CCS PCH C Compiler, Version 4.104, 5967               11-oct.-19 14:50

               Filename: H:\JP\JP\Laboratorio\Cabina Extractora de Gases y  Humos\2019\Cabina Extractora Con Filtros GLCD #0045879XX OP2019114\Firmware\Maestro_v2.lst

               ROM used: 36828 bytes (37%)
                         Largest free fragment is 32768
               RAM used: 1489 (45%) at main() level
                         1560 (47%) worst case
               Stack:    8 worst case (6 in main + 2 for interrupts)

*
00000:  GOTO   598E
*
00008:  MOVWF  04
0000A:  MOVFF  FD8,05
0000E:  MOVFF  FE0,06
00012:  MOVLB  0
00014:  MOVFF  FE9,0C
00018:  MOVFF  FEA,07
0001C:  MOVFF  FE1,08
00020:  MOVFF  FE2,09
00024:  MOVFF  FD9,0A
00028:  MOVFF  FDA,0B
0002C:  MOVFF  FF3,12
00030:  MOVFF  FF4,13
00034:  MOVFF  FFA,14
00038:  MOVFF  FFB,15
0003C:  MOVFF  00,0E
00040:  MOVFF  01,0F
00044:  MOVFF  02,10
00048:  MOVFF  03,11
0004C:  BTFSS  FF2.4
0004E:  GOTO   0058
00052:  BTFSC  FF2.1
00054:  GOTO   12A6
00058:  MOVFF  0E,00
0005C:  MOVFF  0F,01
00060:  MOVFF  10,02
00064:  MOVFF  11,03
00068:  MOVFF  0C,FE9
0006C:  MOVFF  07,FEA
00070:  BSF    07.7
00072:  MOVFF  08,FE1
00076:  MOVFF  09,FE2
0007A:  MOVFF  0A,FD9
0007E:  MOVFF  0B,FDA
00082:  MOVFF  12,FF3
00086:  MOVFF  13,FF4
0008A:  MOVFF  14,FFA
0008E:  MOVFF  15,FFB
00092:  MOVF   04,W
00094:  MOVFF  06,FE0
00098:  MOVFF  05,FD8
0009C:  RETFIE 0
.................... //Programa para Cabina de Bioseguridad 
....................  
.................... #include <18F4685.h> 
.................... //////// Standard Header file for the PIC18F4685 device //////////////// 
.................... #device PIC18F4685 
.................... #list 
....................  
.................... #device adc=10 
.................... #fuses HS,NOWDT,NOPROTECT,NOLVP,NODEBUG,NOSTVREN,NOPUT,NOCPD,NOWRT,NOIESO,NOFCMEN,NOPBADEN,NOWRTC,NOWRTB,NOEBTR,NOEBTRB,NOCPB,NOXINST,NOLPT1OSC,NOMCLR 
.................... #use delay(clock=20000000) 
*
01286:  MOVLW  03
01288:  MOVLB  6
0128A:  SUBWF  x17,F
0128C:  BNC   12A2
0128E:  MOVLW  06
01290:  MOVWF  FEA
01292:  MOVLW  17
01294:  MOVWF  FE9
01296:  MOVF   FEF,W
01298:  BZ    12A2
0129A:  BRA    129E
0129C:  BRA    129E
0129E:  DECFSZ FEF,F
012A0:  BRA    129C
012A2:  MOVLB  0
012A4:  RETLW  00
*
01368:  MOVLW  05
0136A:  MOVWF  FEA
0136C:  MOVLW  E1
0136E:  MOVWF  FE9
01370:  MOVF   FEF,W
01372:  BZ    138E
01374:  MOVLW  06
01376:  MOVWF  01
01378:  CLRF   00
0137A:  DECFSZ 00,F
0137C:  BRA    137A
0137E:  DECFSZ 01,F
01380:  BRA    1378
01382:  MOVLW  7B
01384:  MOVWF  00
01386:  DECFSZ 00,F
01388:  BRA    1386
0138A:  DECFSZ FEF,F
0138C:  BRA    1374
0138E:  RETLW  00
.................... #include <MATH.h> 
.................... //////////////////////////////////////////////////////////////////////////// 
.................... ////        (C) Copyright 1996,2008 Custom Computer Services            //// 
.................... //// This source code may only be used by licensed users of the CCS C   //// 
.................... //// compiler.  This source code may only be distributed to other       //// 
.................... //// licensed users of the CCS C compiler.  No other use, reproduction  //// 
.................... //// or distribution is permitted without written permission.           //// 
.................... //// Derivative programs created using this software in object code     //// 
.................... //// form are not restricted in any way.                                //// 
.................... //////////////////////////////////////////////////////////////////////////// 
.................... ////                                                                    //// 
.................... //// History:                                                           //// 
.................... ////  * 9/20/2001 :  Improvments are made to sin/cos code.              //// 
.................... ////                 The code now is small, much faster,                //// 
.................... ////                 and more accurate.                                 //// 
.................... ////  * 2/21/2007 :  Compiler handles & operator differently and does 
.................... ////                 not return generic (int8 *) so type cast is done   //// 
.................... ////                                                                    //// 
.................... //////////////////////////////////////////////////////////////////////////// 
....................  
.................... #ifndef MATH_H 
.................... #define MATH_H 
....................  
.................... #ifdef PI 
.................... #undef  PI 
.................... #endif 
.................... #define PI     3.1415926535897932 
....................  
....................  
.................... #define SQRT2  1.4142135623730950 
....................  
.................... //float const ps[4] = {5.9304945, 21.125224, 8.9403076, 0.29730279}; 
.................... //float const qs[4] = {1.0000000, 15.035723, 17.764134, 2.4934718}; 
....................  
.................... ///////////////////////////// Round Functions ////////////////////////////// 
....................  
.................... float32 CEIL_FLOOR(float32 x, unsigned int8 n) 
.................... { 
....................    float32 y, res; 
....................    unsigned int16 l; 
....................    int1 s; 
....................  
....................    s = 0; 
*
03028:  MOVLB  5
0302A:  BCF    xFD.0
....................    y = x; 
0302C:  MOVFF  5F1,5F6
03030:  MOVFF  5F0,5F5
03034:  MOVFF  5EF,5F4
03038:  MOVFF  5EE,5F3
....................  
....................    if (x < 0) 
0303C:  MOVFF  5F1,601
03040:  MOVFF  5F0,600
03044:  MOVFF  5EF,5FF
03048:  MOVFF  5EE,5FE
0304C:  MOVLB  6
0304E:  CLRF   x05
03050:  CLRF   x04
03052:  CLRF   x03
03054:  CLRF   x02
03056:  MOVLB  0
03058:  CALL   244E
0305C:  BNC   3068
....................    { 
....................       s = 1; 
0305E:  MOVLB  5
03060:  BSF    xFD.0
....................       y = -y; 
03062:  MOVF   xF4,W
03064:  XORLW  80
03066:  MOVWF  xF4
....................    } 
....................  
....................    if (y <= 32768.0) 
03068:  MOVFF  5F6,601
0306C:  MOVFF  5F5,600
03070:  MOVFF  5F4,5FF
03074:  MOVFF  5F3,5FE
03078:  MOVLB  6
0307A:  CLRF   x05
0307C:  CLRF   x04
0307E:  CLRF   x03
03080:  MOVLW  8E
03082:  MOVWF  x02
03084:  MOVLB  0
03086:  CALL   244E
0308A:  BC    308E
0308C:  BNZ   30BE
....................   res = (float32)(unsigned int16)y; 
0308E:  MOVFF  5F6,601
03092:  MOVFF  5F5,600
03096:  MOVFF  5F4,5FF
0309A:  MOVFF  5F3,5FE
0309E:  RCALL  2ECA
030A0:  MOVFF  02,603
030A4:  MOVFF  01,602
030A8:  CALL   1878
030AC:  MOVFF  03,5FA
030B0:  MOVFF  02,5F9
030B4:  MOVFF  01,5F8
030B8:  MOVFF  00,5F7
....................  
....................  else if (y < 10000000.0) 
030BC:  BRA    3260
030BE:  MOVFF  5F6,601
030C2:  MOVFF  5F5,600
030C6:  MOVFF  5F4,5FF
030CA:  MOVFF  5F3,5FE
030CE:  MOVLW  80
030D0:  MOVLB  6
030D2:  MOVWF  x05
030D4:  MOVLW  96
030D6:  MOVWF  x04
030D8:  MOVLW  18
030DA:  MOVWF  x03
030DC:  MOVLW  96
030DE:  MOVWF  x02
030E0:  MOVLB  0
030E2:  CALL   244E
030E6:  BTFSS  FD8.0
030E8:  BRA    3250
....................    { 
....................   l = (unsigned int16)(y/32768.0); 
030EA:  MOVFF  5F6,601
030EE:  MOVFF  5F5,600
030F2:  MOVFF  5F4,5FF
030F6:  MOVFF  5F3,5FE
030FA:  MOVLB  6
030FC:  CLRF   x05
030FE:  CLRF   x04
03100:  CLRF   x03
03102:  MOVLW  8E
03104:  MOVWF  x02
03106:  MOVLB  0
03108:  CALL   18AE
0310C:  MOVFF  03,601
03110:  MOVFF  02,600
03114:  MOVFF  01,5FF
03118:  MOVFF  00,5FE
0311C:  RCALL  2ECA
0311E:  MOVFF  02,5FC
03122:  MOVFF  01,5FB
....................       y = 32768.0*(y/32768.0 - (float32)l); 
03126:  MOVFF  5F6,601
0312A:  MOVFF  5F5,600
0312E:  MOVFF  5F4,5FF
03132:  MOVFF  5F3,5FE
03136:  MOVLB  6
03138:  CLRF   x05
0313A:  CLRF   x04
0313C:  CLRF   x03
0313E:  MOVLW  8E
03140:  MOVWF  x02
03142:  MOVLB  0
03144:  CALL   18AE
03148:  MOVFF  00,5FE
0314C:  MOVFF  01,5FF
03150:  MOVFF  02,600
03154:  MOVFF  03,601
03158:  MOVFF  5FC,603
0315C:  MOVFF  5FB,602
03160:  CALL   1878
03164:  BSF    FD8.1
03166:  MOVFF  601,605
0316A:  MOVFF  600,604
0316E:  MOVFF  5FF,603
03172:  MOVFF  5FE,602
03176:  MOVFF  03,609
0317A:  MOVFF  02,608
0317E:  MOVFF  01,607
03182:  MOVFF  00,606
03186:  CALL   1A2C
0318A:  MOVLB  6
0318C:  CLRF   x01
0318E:  CLRF   x00
03190:  MOVLB  5
03192:  CLRF   xFF
03194:  MOVLW  8E
03196:  MOVWF  xFE
03198:  MOVFF  03,605
0319C:  MOVFF  02,604
031A0:  MOVFF  01,603
031A4:  MOVFF  00,602
031A8:  MOVLB  0
031AA:  RCALL  2F06
031AC:  MOVFF  03,5F6
031B0:  MOVFF  02,5F5
031B4:  MOVFF  01,5F4
031B8:  MOVFF  00,5F3
....................   res = 32768.0*(float32)l; 
031BC:  MOVFF  5FC,603
031C0:  MOVFF  5FB,602
031C4:  CALL   1878
031C8:  MOVLB  6
031CA:  CLRF   x01
031CC:  CLRF   x00
031CE:  MOVLB  5
031D0:  CLRF   xFF
031D2:  MOVLW  8E
031D4:  MOVWF  xFE
031D6:  MOVFF  03,605
031DA:  MOVFF  02,604
031DE:  MOVFF  01,603
031E2:  MOVFF  00,602
031E6:  MOVLB  0
031E8:  RCALL  2F06
031EA:  MOVFF  03,5FA
031EE:  MOVFF  02,5F9
031F2:  MOVFF  01,5F8
031F6:  MOVFF  00,5F7
....................   res += (float32)(unsigned int16)y; 
031FA:  MOVFF  5F6,601
031FE:  MOVFF  5F5,600
03202:  MOVFF  5F4,5FF
03206:  MOVFF  5F3,5FE
0320A:  RCALL  2ECA
0320C:  MOVFF  02,603
03210:  MOVFF  01,602
03214:  CALL   1878
03218:  BCF    FD8.1
0321A:  MOVFF  5FA,605
0321E:  MOVFF  5F9,604
03222:  MOVFF  5F8,603
03226:  MOVFF  5F7,602
0322A:  MOVFF  03,609
0322E:  MOVFF  02,608
03232:  MOVFF  01,607
03236:  MOVFF  00,606
0323A:  CALL   1A2C
0323E:  MOVFF  03,5FA
03242:  MOVFF  02,5F9
03246:  MOVFF  01,5F8
0324A:  MOVFF  00,5F7
....................  } 
....................  
....................  else 
0324E:  BRA    3260
....................   res = y; 
03250:  MOVFF  5F6,5FA
03254:  MOVFF  5F5,5F9
03258:  MOVFF  5F4,5F8
0325C:  MOVFF  5F3,5F7
....................  
....................  y = y - (float32)(unsigned int16)y; 
03260:  MOVFF  5F6,601
03264:  MOVFF  5F5,600
03268:  MOVFF  5F4,5FF
0326C:  MOVFF  5F3,5FE
03270:  RCALL  2ECA
03272:  MOVFF  02,603
03276:  MOVFF  01,602
0327A:  CALL   1878
0327E:  BSF    FD8.1
03280:  MOVFF  5F6,605
03284:  MOVFF  5F5,604
03288:  MOVFF  5F4,603
0328C:  MOVFF  5F3,602
03290:  MOVFF  03,609
03294:  MOVFF  02,608
03298:  MOVFF  01,607
0329C:  MOVFF  00,606
032A0:  CALL   1A2C
032A4:  MOVFF  03,5F6
032A8:  MOVFF  02,5F5
032AC:  MOVFF  01,5F4
032B0:  MOVFF  00,5F3
....................  
....................  if (s) 
032B4:  MOVLB  5
032B6:  BTFSS  xFD.0
032B8:  BRA    32C0
....................   res = -res; 
032BA:  MOVF   xF8,W
032BC:  XORLW  80
032BE:  MOVWF  xF8
....................  
....................  if (y != 0) 
032C0:  MOVFF  5F6,601
032C4:  MOVFF  5F5,600
032C8:  MOVFF  5F4,5FF
032CC:  MOVFF  5F3,5FE
032D0:  MOVLB  6
032D2:  CLRF   x05
032D4:  CLRF   x04
032D6:  CLRF   x03
032D8:  CLRF   x02
032DA:  MOVLB  0
032DC:  CALL   244E
032E0:  BZ    335E
....................  { 
....................   if (s == 1 && n == 0) 
032E2:  MOVLB  5
032E4:  BTFSS  xFD.0
032E6:  BRA    3322
032E8:  MOVF   xF2,F
032EA:  BNZ   3322
....................    res -= 1.0; 
032EC:  BSF    FD8.1
032EE:  MOVFF  5FA,605
032F2:  MOVFF  5F9,604
032F6:  MOVFF  5F8,603
032FA:  MOVFF  5F7,602
032FE:  MOVLB  6
03300:  CLRF   x09
03302:  CLRF   x08
03304:  CLRF   x07
03306:  MOVLW  7F
03308:  MOVWF  x06
0330A:  MOVLB  0
0330C:  CALL   1A2C
03310:  MOVFF  03,5FA
03314:  MOVFF  02,5F9
03318:  MOVFF  01,5F8
0331C:  MOVFF  00,5F7
03320:  MOVLB  5
....................  
....................   if (s == 0 && n == 1) 
03322:  BTFSC  xFD.0
03324:  BRA    3360
03326:  DECFSZ xF2,W
03328:  BRA    3360
....................    res += 1.0; 
0332A:  BCF    FD8.1
0332C:  MOVFF  5FA,605
03330:  MOVFF  5F9,604
03334:  MOVFF  5F8,603
03338:  MOVFF  5F7,602
0333C:  MOVLB  6
0333E:  CLRF   x09
03340:  CLRF   x08
03342:  CLRF   x07
03344:  MOVLW  7F
03346:  MOVWF  x06
03348:  MOVLB  0
0334A:  CALL   1A2C
0334E:  MOVFF  03,5FA
03352:  MOVFF  02,5F9
03356:  MOVFF  01,5F8
0335A:  MOVFF  00,5F7
0335E:  MOVLB  5
....................  } 
....................  if (x == 0) 
03360:  MOVFF  5F1,601
03364:  MOVFF  5F0,600
03368:  MOVFF  5EF,5FF
0336C:  MOVFF  5EE,5FE
03370:  MOVLB  6
03372:  CLRF   x05
03374:  CLRF   x04
03376:  CLRF   x03
03378:  CLRF   x02
0337A:  MOVLB  0
0337C:  CALL   244E
03380:  BNZ   338E
....................     res = 0; 
03382:  MOVLB  5
03384:  CLRF   xFA
03386:  CLRF   xF9
03388:  CLRF   xF8
0338A:  CLRF   xF7
0338C:  MOVLB  0
....................  
....................  return (res); 
0338E:  MOVFF  5F7,00
03392:  MOVFF  5F8,01
03396:  MOVFF  5F9,02
0339A:  MOVFF  5FA,03
.................... } 
0339E:  RETLW  00
....................  
.................... // Overloaded Functions to take care for new Data types in PCD 
.................... // Overloaded function CEIL_FLOOR() for data type - Float48 
.................... #if defined(__PCD__) 
.................... float48 CEIL_FLOOR(float48 x, unsigned int8 n) 
.................... { 
....................    float48 y, res; 
....................    unsigned int16 l; 
....................    int1 s; 
....................  
....................    s = 0; 
....................    y = x; 
....................  
....................    if (x < 0) 
....................    { 
....................       s = 1; 
....................       y = -y; 
....................    } 
....................  
....................    if (y <= 32768.0) 
....................   res = (float48)(unsigned int16)y; 
....................  
....................  else if (y < 10000000.0) 
....................    { 
....................   l = (unsigned int16)(y/32768.0); 
....................       y = 32768.0*(y/32768.0 - (float48)l); 
....................   res = 32768.0*(float32)l; 
....................   res += (float48)(unsigned int16)y; 
....................  } 
....................  
....................  else 
....................   res = y; 
....................  
....................  y = y - (float48)(unsigned int16)y; 
....................  
....................  if (s) 
....................   res = -res; 
....................  
....................  if (y != 0) 
....................  { 
....................   if (s == 1 && n == 0) 
....................    res -= 1.0; 
....................  
....................   if (s == 0 && n == 1) 
....................    res += 1.0; 
....................  } 
....................  if (x == 0) 
....................     res = 0; 
....................  
....................  return (res); 
.................... } 
....................  
....................  
.................... // Overloaded function CEIL_FLOOR() for data type - Float64 
.................... float64 CEIL_FLOOR(float64 x, unsigned int8 n) 
.................... { 
....................    float64 y, res; 
....................    unsigned int16 l; 
....................    int1 s; 
....................  
....................    s = 0; 
....................    y = x; 
....................  
....................    if (x < 0) 
....................    { 
....................       s = 1; 
....................       y = -y; 
....................    } 
....................  
....................    if (y <= 32768.0) 
....................   res = (float64)(unsigned int16)y; 
....................  
....................  else if (y < 10000000.0) 
....................    { 
....................   l = (unsigned int16)(y/32768.0); 
....................       y = 32768.0*(y/32768.0 - (float64)l); 
....................   res = 32768.0*(float64)l; 
....................   res += (float64)(unsigned int16)y; 
....................  } 
....................  
....................  else 
....................   res = y; 
....................  
....................  y = y - (float64)(unsigned int16)y; 
....................  
....................  if (s) 
....................   res = -res; 
....................  
....................  if (y != 0) 
....................  { 
....................   if (s == 1 && n == 0) 
....................    res -= 1.0; 
....................  
....................   if (s == 0 && n == 1) 
....................    res += 1.0; 
....................  } 
....................  if (x == 0) 
....................     res = 0; 
....................  
....................  return (res); 
.................... } 
.................... #endif 
....................  
.................... //////////////////////////////////////////////////////////////////////////// 
.................... //   float floor(float x) 
.................... //////////////////////////////////////////////////////////////////////////// 
.................... // Description : rounds down the number x. 
.................... // Date : N/A 
.................... // 
.................... float32 floor(float32 x) 
.................... { 
....................    return CEIL_FLOOR(x, 0); 
*
033BE:  MOVFF  5ED,5F1
033C2:  MOVFF  5EC,5F0
033C6:  MOVFF  5EB,5EF
033CA:  MOVFF  5EA,5EE
033CE:  MOVLB  5
033D0:  CLRF   xF2
033D2:  MOVLB  0
033D4:  RCALL  3028
.................... } 
033D6:  GOTO   34E2 (RETURN)
.................... // Following 2 functions are overloaded functions of floor() for PCD 
.................... // Overloaded function floor() for data type - Float48 
.................... #if defined(__PCD__) 
.................... float48 floor(float48 x) 
.................... { 
....................    return CEIL_FLOOR(x, 0); 
.................... } 
....................  
.................... // Overloaded function floor() for data type - Float64 
.................... float64 floor(float64 x) 
.................... { 
....................    return CEIL_FLOOR(x, 0); 
.................... } 
.................... #endif 
....................  
....................  
.................... //////////////////////////////////////////////////////////////////////////// 
.................... //   float ceil(float x) 
.................... //////////////////////////////////////////////////////////////////////////// 
.................... // Description : rounds up the number x. 
.................... // Date : N/A 
.................... // 
.................... float32 ceil(float32 x) 
.................... { 
....................    return CEIL_FLOOR(x, 1); 
*
033A0:  MOVFF  5ED,5F1
033A4:  MOVFF  5EC,5F0
033A8:  MOVFF  5EB,5EF
033AC:  MOVFF  5EA,5EE
033B0:  MOVLW  01
033B2:  MOVLB  5
033B4:  MOVWF  xF2
033B6:  MOVLB  0
033B8:  RCALL  3028
.................... } 
033BA:  GOTO   349A (RETURN)
.................... // Following 2 functions are overloaded functions of ceil() for PCD 
.................... // Overloaded function ceil() for data type - Float48 
.................... #if defined(__PCD__) 
.................... float48 ceil(float48 x) 
.................... { 
....................    return CEIL_FLOOR(x, 1); 
.................... } 
....................  
.................... // Overloaded function ceil() for data type - Float64 
.................... float64 ceil(float64 x) 
.................... { 
....................    return CEIL_FLOOR(x, 1); 
.................... } 
.................... #endif 
....................  
....................  //////////////////////////////////////////////////////////////////////////// 
.................... //   float fabs(float x) 
.................... //////////////////////////////////////////////////////////////////////////// 
.................... // Description : Computes the absolute value of floating point number x 
.................... // Returns : returns the absolute value of x 
.................... // Date : N/A 
.................... // 
.................... #define fabs abs 
....................  
.................... //////////////////////////////////////////////////////////////////////////// 
.................... //   float fmod(float x) 
.................... //////////////////////////////////////////////////////////////////////////// 
.................... // Description : Computes the floating point remainder of x/y 
.................... // Returns : returns the value of x= i*y, for some integer i such that, if y 
.................... // is non zero, the result has the same isgn of x na dmagnitude less than the 
.................... // magnitude of y. If y is zero then a domain error occurs. 
.................... // Date : N/A 
.................... // 
....................  
.................... float fmod(float32 x,float32 y) 
.................... { 
....................    float32 i; 
....................    if (y!=0.0) 
*
033DA:  MOVFF  5E1,601
033DE:  MOVFF  5E0,600
033E2:  MOVFF  5DF,5FF
033E6:  MOVFF  5DE,5FE
033EA:  MOVLB  6
033EC:  CLRF   x05
033EE:  CLRF   x04
033F0:  CLRF   x03
033F2:  CLRF   x02
033F4:  MOVLB  0
033F6:  CALL   244E
033FA:  BTFSC  FD8.2
033FC:  BRA    353E
....................    { 
....................       i=(x/y < 0.0)? ceil(x/y): floor(x/y); 
033FE:  MOVFF  5DD,601
03402:  MOVFF  5DC,600
03406:  MOVFF  5DB,5FF
0340A:  MOVFF  5DA,5FE
0340E:  MOVFF  5E1,605
03412:  MOVFF  5E0,604
03416:  MOVFF  5DF,603
0341A:  MOVFF  5DE,602
0341E:  CALL   18AE
03422:  MOVFF  00,5E6
03426:  MOVFF  01,5E7
0342A:  MOVFF  02,5E8
0342E:  MOVFF  03,5E9
03432:  MOVFF  03,601
03436:  MOVFF  02,600
0343A:  MOVFF  01,5FF
0343E:  MOVFF  00,5FE
03442:  MOVLB  6
03444:  CLRF   x05
03446:  CLRF   x04
03448:  CLRF   x03
0344A:  CLRF   x02
0344C:  MOVLB  0
0344E:  CALL   244E
03452:  BNC   349C
03454:  MOVFF  5DD,601
03458:  MOVFF  5DC,600
0345C:  MOVFF  5DB,5FF
03460:  MOVFF  5DA,5FE
03464:  MOVFF  5E1,605
03468:  MOVFF  5E0,604
0346C:  MOVFF  5DF,603
03470:  MOVFF  5DE,602
03474:  CALL   18AE
03478:  MOVFF  00,5E6
0347C:  MOVFF  01,5E7
03480:  MOVFF  02,5E8
03484:  MOVFF  03,5E9
03488:  MOVFF  03,5ED
0348C:  MOVFF  02,5EC
03490:  MOVFF  01,5EB
03494:  MOVFF  00,5EA
03498:  BRA    33A0
0349A:  BRA    34E2
0349C:  MOVFF  5DD,601
034A0:  MOVFF  5DC,600
034A4:  MOVFF  5DB,5FF
034A8:  MOVFF  5DA,5FE
034AC:  MOVFF  5E1,605
034B0:  MOVFF  5E0,604
034B4:  MOVFF  5DF,603
034B8:  MOVFF  5DE,602
034BC:  CALL   18AE
034C0:  MOVFF  00,5E6
034C4:  MOVFF  01,5E7
034C8:  MOVFF  02,5E8
034CC:  MOVFF  03,5E9
034D0:  MOVFF  03,5ED
034D4:  MOVFF  02,5EC
034D8:  MOVFF  01,5EB
034DC:  MOVFF  00,5EA
034E0:  BRA    33BE
034E2:  MOVFF  03,5E5
034E6:  MOVFF  02,5E4
034EA:  MOVFF  01,5E3
034EE:  MOVFF  00,5E2
....................       return(x-(i*y)); 
034F2:  MOVFF  5E5,601
034F6:  MOVFF  5E4,600
034FA:  MOVFF  5E3,5FF
034FE:  MOVFF  5E2,5FE
03502:  MOVFF  5E1,605
03506:  MOVFF  5E0,604
0350A:  MOVFF  5DF,603
0350E:  MOVFF  5DE,602
03512:  RCALL  2F06
03514:  BSF    FD8.1
03516:  MOVFF  5DD,605
0351A:  MOVFF  5DC,604
0351E:  MOVFF  5DB,603
03522:  MOVFF  5DA,602
03526:  MOVFF  03,609
0352A:  MOVFF  02,608
0352E:  MOVFF  01,607
03532:  MOVFF  00,606
03536:  CALL   1A2C
0353A:  BRA    353E
....................    } 
....................    else 
0353C:  BRA    353E
....................    { 
....................    #ifdef _ERRNO 
....................    { 
....................       errno=EDOM; 
....................    } 
....................    #endif 
....................    } 
.................... } 
0353E:  RETLW  00
.................... //Overloaded function for fmod() for PCD 
.................... // Overloaded function fmod() for data type - Float48 
.................... #if defined(__PCD__) 
.................... float48 fmod(float48 x,float48 y) 
.................... { 
....................    float48 i; 
....................    if (y!=0.0) 
....................    { 
....................       i=(x/y < 0.0)? ceil(x/y): floor(x/y); 
....................       return(x-(i*y)); 
....................    } 
....................    else 
....................    { 
....................    #ifdef _ERRNO 
....................    { 
....................       errno=EDOM; 
....................    } 
....................    #endif 
....................    } 
.................... } 
.................... // Overloaded function fmod() for data type - Float64 
.................... float64 fmod(float64 x,float64 y) 
.................... { 
....................    float64 i; 
....................    if (y!=0.0) 
....................    { 
....................       i=(x/y < 0.0)? ceil(x/y): floor(x/y); 
....................       return(x-(i*y)); 
....................    } 
....................    else 
....................    { 
....................    #ifdef _ERRNO 
....................    { 
....................       errno=EDOM; 
....................    } 
....................    #endif 
....................    } 
.................... } 
.................... #endif 
.................... //////////////////// Exponential and logarithmic functions //////////////////// 
.................... //////////////////////////////////////////////////////////////////////////// 
.................... //   float exp(float x) 
.................... //////////////////////////////////////////////////////////////////////////// 
.................... // Description : returns the value (e^x) 
.................... // Date : N/A 
.................... // 
.................... #define LN2 0.6931471805599453 
....................  
.................... float const pe[6] = {0.000207455774, 0.00127100575, 0.00965065093, 
....................                      0.0554965651,  0.240227138,  0.693147172}; 
....................  
....................  
.................... float32 exp(float32 x) 
.................... { 
....................    float32 y, res, r; 
....................    #if defined(__PCD__) 
....................    int8 data1; 
....................    #endif 
....................    signed int8 n; 
....................    int1 s; 
....................    #ifdef _ERRNO 
....................    if(x > 88.722838) 
....................    { 
....................       errno=ERANGE; 
....................       return(0); 
....................    } 
....................    #endif 
....................    n = (signed int16)(x/LN2); 
*
03A72:  MOVFF  5E1,601
03A76:  MOVFF  5E0,600
03A7A:  MOVFF  5DF,5FF
03A7E:  MOVFF  5DE,5FE
03A82:  MOVLW  18
03A84:  MOVLB  6
03A86:  MOVWF  x05
03A88:  MOVLW  72
03A8A:  MOVWF  x04
03A8C:  MOVLW  31
03A8E:  MOVWF  x03
03A90:  MOVLW  7E
03A92:  MOVWF  x02
03A94:  MOVLB  0
03A96:  CALL   18AE
03A9A:  MOVFF  03,601
03A9E:  MOVFF  02,600
03AA2:  MOVFF  01,5FF
03AA6:  MOVFF  00,5FE
03AAA:  CALL   2ECA
03AAE:  MOVFF  01,5EE
....................    s = 0; 
03AB2:  MOVLB  5
03AB4:  BCF    xEF.0
....................    y = x; 
03AB6:  MOVFF  5E1,5E5
03ABA:  MOVFF  5E0,5E4
03ABE:  MOVFF  5DF,5E3
03AC2:  MOVFF  5DE,5E2
....................  
....................    if (x < 0) 
03AC6:  MOVFF  5E1,601
03ACA:  MOVFF  5E0,600
03ACE:  MOVFF  5DF,5FF
03AD2:  MOVFF  5DE,5FE
03AD6:  MOVLB  6
03AD8:  CLRF   x05
03ADA:  CLRF   x04
03ADC:  CLRF   x03
03ADE:  CLRF   x02
03AE0:  MOVLB  0
03AE2:  CALL   244E
03AE6:  BNC   3AF4
....................    { 
....................       s = 1; 
03AE8:  MOVLB  5
03AEA:  BSF    xEF.0
....................       n = -n; 
03AEC:  NEGF   xEE
....................       y = -y; 
03AEE:  MOVF   xE3,W
03AF0:  XORLW  80
03AF2:  MOVWF  xE3
....................    } 
....................  
....................    res = 0.0; 
03AF4:  MOVLB  5
03AF6:  CLRF   xE9
03AF8:  CLRF   xE8
03AFA:  CLRF   xE7
03AFC:  CLRF   xE6
.................... #if !defined(__PCD__) 
....................    *((unsigned int8 *)(&res)) = n + 0x7F; 
03AFE:  MOVLW  05
03B00:  MOVWF  xF1
03B02:  MOVLW  E6
03B04:  MOVWF  FE9
03B06:  MOVFF  5F1,FEA
03B0A:  MOVLW  7F
03B0C:  ADDWF  xEE,W
03B0E:  MOVWF  FEF
.................... #endif 
....................  
.................... #if defined(__PCD__)  // Takes care of IEEE format for PCD 
....................    data1 = n+0x7F; 
....................    if(bit_test(data1,0)) 
....................    bit_set(*(((unsigned int8 *)(&res)+2)),7); 
....................    rotate_right(&data1,1); 
....................    bit_clear(data1,7); 
....................    *(((unsigned int8 *)(&res)+3)) = data1; 
.................... #endif 
....................  
....................    y = y/LN2 - (float32)n; 
03B10:  MOVFF  5E5,601
03B14:  MOVFF  5E4,600
03B18:  MOVFF  5E3,5FF
03B1C:  MOVFF  5E2,5FE
03B20:  MOVLW  18
03B22:  MOVLB  6
03B24:  MOVWF  x05
03B26:  MOVLW  72
03B28:  MOVWF  x04
03B2A:  MOVLW  31
03B2C:  MOVWF  x03
03B2E:  MOVLW  7E
03B30:  MOVWF  x02
03B32:  MOVLB  0
03B34:  CALL   18AE
03B38:  MOVFF  00,5F0
03B3C:  MOVFF  01,5F1
03B40:  MOVFF  02,5F2
03B44:  MOVFF  03,5F3
03B48:  MOVLB  5
03B4A:  CLRF   xF5
03B4C:  MOVFF  5EE,5F4
03B50:  BTFSC  xF4.7
03B52:  DECF   xF5,F
03B54:  MOVLB  0
03B56:  RCALL  3540
03B58:  BSF    FD8.1
03B5A:  MOVFF  5F3,605
03B5E:  MOVFF  5F2,604
03B62:  MOVFF  5F1,603
03B66:  MOVFF  5F0,602
03B6A:  MOVFF  03,609
03B6E:  MOVFF  02,608
03B72:  MOVFF  01,607
03B76:  MOVFF  00,606
03B7A:  CALL   1A2C
03B7E:  MOVFF  03,5E5
03B82:  MOVFF  02,5E4
03B86:  MOVFF  01,5E3
03B8A:  MOVFF  00,5E2
....................  
....................    r = pe[0]*y + pe[1]; 
03B8E:  MOVLW  7C
03B90:  MOVLB  6
03B92:  MOVWF  x01
03B94:  MOVLW  88
03B96:  MOVWF  x00
03B98:  MOVLW  59
03B9A:  MOVLB  5
03B9C:  MOVWF  xFF
03B9E:  MOVLW  72
03BA0:  MOVWF  xFE
03BA2:  MOVFF  5E5,605
03BA6:  MOVFF  5E4,604
03BAA:  MOVFF  5E3,603
03BAE:  MOVFF  5E2,602
03BB2:  MOVLB  0
03BB4:  CALL   2F06
03BB8:  MOVFF  00,5F0
03BBC:  MOVFF  01,5F1
03BC0:  MOVFF  02,5F2
03BC4:  MOVFF  03,5F3
03BC8:  BCF    FD8.1
03BCA:  MOVFF  03,605
03BCE:  MOVFF  02,604
03BD2:  MOVFF  01,603
03BD6:  MOVFF  00,602
03BDA:  MOVLW  E0
03BDC:  MOVLB  6
03BDE:  MOVWF  x09
03BE0:  MOVLW  97
03BE2:  MOVWF  x08
03BE4:  MOVLW  26
03BE6:  MOVWF  x07
03BE8:  MOVLW  75
03BEA:  MOVWF  x06
03BEC:  MOVLB  0
03BEE:  CALL   1A2C
03BF2:  MOVFF  03,5ED
03BF6:  MOVFF  02,5EC
03BFA:  MOVFF  01,5EB
03BFE:  MOVFF  00,5EA
....................    r = r*y + pe[2]; 
03C02:  MOVFF  5ED,601
03C06:  MOVFF  5EC,600
03C0A:  MOVFF  5EB,5FF
03C0E:  MOVFF  5EA,5FE
03C12:  MOVFF  5E5,605
03C16:  MOVFF  5E4,604
03C1A:  MOVFF  5E3,603
03C1E:  MOVFF  5E2,602
03C22:  CALL   2F06
03C26:  MOVFF  00,5F0
03C2A:  MOVFF  01,5F1
03C2E:  MOVFF  02,5F2
03C32:  MOVFF  03,5F3
03C36:  BCF    FD8.1
03C38:  MOVFF  03,605
03C3C:  MOVFF  02,604
03C40:  MOVFF  01,603
03C44:  MOVFF  00,602
03C48:  MOVLW  C4
03C4A:  MOVLB  6
03C4C:  MOVWF  x09
03C4E:  MOVLW  1D
03C50:  MOVWF  x08
03C52:  MOVLW  1E
03C54:  MOVWF  x07
03C56:  MOVLW  78
03C58:  MOVWF  x06
03C5A:  MOVLB  0
03C5C:  CALL   1A2C
03C60:  MOVFF  03,5ED
03C64:  MOVFF  02,5EC
03C68:  MOVFF  01,5EB
03C6C:  MOVFF  00,5EA
....................    r = r*y + pe[3]; 
03C70:  MOVFF  5ED,601
03C74:  MOVFF  5EC,600
03C78:  MOVFF  5EB,5FF
03C7C:  MOVFF  5EA,5FE
03C80:  MOVFF  5E5,605
03C84:  MOVFF  5E4,604
03C88:  MOVFF  5E3,603
03C8C:  MOVFF  5E2,602
03C90:  CALL   2F06
03C94:  MOVFF  00,5F0
03C98:  MOVFF  01,5F1
03C9C:  MOVFF  02,5F2
03CA0:  MOVFF  03,5F3
03CA4:  BCF    FD8.1
03CA6:  MOVFF  03,605
03CAA:  MOVFF  02,604
03CAE:  MOVFF  01,603
03CB2:  MOVFF  00,602
03CB6:  MOVLW  5E
03CB8:  MOVLB  6
03CBA:  MOVWF  x09
03CBC:  MOVLW  50
03CBE:  MOVWF  x08
03CC0:  MOVLW  63
03CC2:  MOVWF  x07
03CC4:  MOVLW  7A
03CC6:  MOVWF  x06
03CC8:  MOVLB  0
03CCA:  CALL   1A2C
03CCE:  MOVFF  03,5ED
03CD2:  MOVFF  02,5EC
03CD6:  MOVFF  01,5EB
03CDA:  MOVFF  00,5EA
....................    r = r*y + pe[4]; 
03CDE:  MOVFF  5ED,601
03CE2:  MOVFF  5EC,600
03CE6:  MOVFF  5EB,5FF
03CEA:  MOVFF  5EA,5FE
03CEE:  MOVFF  5E5,605
03CF2:  MOVFF  5E4,604
03CF6:  MOVFF  5E3,603
03CFA:  MOVFF  5E2,602
03CFE:  CALL   2F06
03D02:  MOVFF  00,5F0
03D06:  MOVFF  01,5F1
03D0A:  MOVFF  02,5F2
03D0E:  MOVFF  03,5F3
03D12:  BCF    FD8.1
03D14:  MOVFF  03,605
03D18:  MOVFF  02,604
03D1C:  MOVFF  01,603
03D20:  MOVFF  00,602
03D24:  MOVLW  1A
03D26:  MOVLB  6
03D28:  MOVWF  x09
03D2A:  MOVLW  FE
03D2C:  MOVWF  x08
03D2E:  MOVLW  75
03D30:  MOVWF  x07
03D32:  MOVLW  7C
03D34:  MOVWF  x06
03D36:  MOVLB  0
03D38:  CALL   1A2C
03D3C:  MOVFF  03,5ED
03D40:  MOVFF  02,5EC
03D44:  MOVFF  01,5EB
03D48:  MOVFF  00,5EA
....................    r = r*y + pe[5]; 
03D4C:  MOVFF  5ED,601
03D50:  MOVFF  5EC,600
03D54:  MOVFF  5EB,5FF
03D58:  MOVFF  5EA,5FE
03D5C:  MOVFF  5E5,605
03D60:  MOVFF  5E4,604
03D64:  MOVFF  5E3,603
03D68:  MOVFF  5E2,602
03D6C:  CALL   2F06
03D70:  MOVFF  00,5F0
03D74:  MOVFF  01,5F1
03D78:  MOVFF  02,5F2
03D7C:  MOVFF  03,5F3
03D80:  BCF    FD8.1
03D82:  MOVFF  03,605
03D86:  MOVFF  02,604
03D8A:  MOVFF  01,603
03D8E:  MOVFF  00,602
03D92:  MOVLW  18
03D94:  MOVLB  6
03D96:  MOVWF  x09
03D98:  MOVLW  72
03D9A:  MOVWF  x08
03D9C:  MOVLW  31
03D9E:  MOVWF  x07
03DA0:  MOVLW  7E
03DA2:  MOVWF  x06
03DA4:  MOVLB  0
03DA6:  CALL   1A2C
03DAA:  MOVFF  03,5ED
03DAE:  MOVFF  02,5EC
03DB2:  MOVFF  01,5EB
03DB6:  MOVFF  00,5EA
....................  
....................    res = res*(1.0 + y*r); 
03DBA:  MOVFF  5E5,601
03DBE:  MOVFF  5E4,600
03DC2:  MOVFF  5E3,5FF
03DC6:  MOVFF  5E2,5FE
03DCA:  MOVFF  5ED,605
03DCE:  MOVFF  5EC,604
03DD2:  MOVFF  5EB,603
03DD6:  MOVFF  5EA,602
03DDA:  CALL   2F06
03DDE:  BCF    FD8.1
03DE0:  MOVLB  6
03DE2:  CLRF   x05
03DE4:  CLRF   x04
03DE6:  CLRF   x03
03DE8:  MOVLW  7F
03DEA:  MOVWF  x02
03DEC:  MOVFF  03,609
03DF0:  MOVFF  02,608
03DF4:  MOVFF  01,607
03DF8:  MOVFF  00,606
03DFC:  MOVLB  0
03DFE:  CALL   1A2C
03E02:  MOVFF  5E9,601
03E06:  MOVFF  5E8,600
03E0A:  MOVFF  5E7,5FF
03E0E:  MOVFF  5E6,5FE
03E12:  MOVFF  03,605
03E16:  MOVFF  02,604
03E1A:  MOVFF  01,603
03E1E:  MOVFF  00,602
03E22:  CALL   2F06
03E26:  MOVFF  03,5E9
03E2A:  MOVFF  02,5E8
03E2E:  MOVFF  01,5E7
03E32:  MOVFF  00,5E6
....................  
....................    if (s) 
03E36:  MOVLB  5
03E38:  BTFSS  xEF.0
03E3A:  BRA    3E72
....................       res = 1.0/res; 
03E3C:  MOVLB  6
03E3E:  CLRF   x01
03E40:  CLRF   x00
03E42:  MOVLB  5
03E44:  CLRF   xFF
03E46:  MOVLW  7F
03E48:  MOVWF  xFE
03E4A:  MOVFF  5E9,605
03E4E:  MOVFF  5E8,604
03E52:  MOVFF  5E7,603
03E56:  MOVFF  5E6,602
03E5A:  MOVLB  0
03E5C:  CALL   18AE
03E60:  MOVFF  03,5E9
03E64:  MOVFF  02,5E8
03E68:  MOVFF  01,5E7
03E6C:  MOVFF  00,5E6
03E70:  MOVLB  5
....................    return(res); 
03E72:  MOVFF  5E6,00
03E76:  MOVFF  5E7,01
03E7A:  MOVFF  5E8,02
03E7E:  MOVFF  5E9,03
.................... } 
03E82:  MOVLB  0
03E84:  RETLW  00
....................  
....................  
.................... //Overloaded function for exp() for PCD 
.................... // Overloaded function exp() for data type - Float48 
.................... #if defined(__PCD__) 
.................... float48 exp(float48 x) 
.................... { 
....................    float48 y, res, r; 
....................    int8 data1; 
....................    signed int8 n; 
....................    int1 s; 
....................    #ifdef _ERRNO 
....................    if(x > 88.722838) 
....................    { 
....................       errno=ERANGE; 
....................       return(0); 
....................    } 
....................    #endif 
....................    n = (signed int16)(x/LN2); 
....................    s = 0; 
....................    y = x; 
....................  
....................    if (x < 0) 
....................    { 
....................       s = 1; 
....................       n = -n; 
....................       y = -y; 
....................    } 
....................  
....................    res = 0.0; 
....................  
....................    data1 = n+0x7F; 
....................    if(bit_test(data1,0)) 
....................    bit_set(*(((unsigned int8 *)(&res)+4)),7); 
....................    rotate_right(&data1,1); 
....................    bit_clear(data1,7); 
....................    *(((unsigned int8 *)(&res)+5)) = data1; 
....................  
....................    y = y/LN2 - (float48)n; 
....................  
....................    r = pe[0]*y + pe[1]; 
....................    r = r*y + pe[2]; 
....................    r = r*y + pe[3]; 
....................    r = r*y + pe[4]; 
....................    r = r*y + pe[5]; 
....................  
....................    res = res*(1.0 + y*r); 
....................  
....................    if (s) 
....................       res = 1.0/res; 
....................    return(res); 
.................... } 
....................  
.................... // Overloaded function exp() for data type - Float64 
.................... float64 exp(float64 x) 
.................... { 
....................    float64 y, res, r; 
....................    unsigned int16 data1, data2; 
....................    unsigned int16 *p; 
....................    signed int16 n; 
....................    int1 s; 
....................    #ifdef _ERRNO 
....................    if(x > 709.7827128) 
....................    { 
....................       errno=ERANGE; 
....................       return(0); 
....................    } 
....................    #endif 
....................    n = (signed int16)(x/LN2); 
....................    s = 0; 
....................    y = x; 
....................  
....................    if (x < 0) 
....................    { 
....................       s = 1; 
....................       n = -n; 
....................       y = -y; 
....................    } 
....................  
....................    res = 0.0; 
....................  
.................... #if !defined(__PCD__) 
....................    *((unsigned int16 *)(&res)) = n + 0x7F; 
.................... #endif 
....................    p= (((unsigned int16 *)(&res))+3); 
....................    data1 = *p; 
....................    data2 = *p;    
....................    data1 = n + 0x3FF; 
....................    data1 = data1 <<4; 
....................    if(bit_test(data2,15)) 
....................    bit_set(data1,15); 
....................    data2 = data2 & 0x000F; 
....................    data1 ^= data2; 
....................  
....................    *(((unsigned int16 *)(&res)+3)) = data1; 
....................  
....................  
....................    y = y/LN2 - (float64)n; 
....................  
....................    r = pe[0]*y + pe[1]; 
....................    r = r*y + pe[2]; 
....................    r = r*y + pe[3]; 
....................    r = r*y + pe[4]; 
....................    r = r*y + pe[5]; 
....................  
....................    res = res*(1.0 + y*r); 
....................  
....................    if (s) 
....................       res = 1.0/res; 
....................    return(res); 
.................... } 
....................  
.................... #ENDIF 
....................  
....................  
.................... /************************************************************/ 
....................  
.................... float32 const pl[4] = {0.45145214, -9.0558803, 26.940971, -19.860189}; 
.................... float32 const ql[4] = {1.0000000,  -8.1354259, 16.780517, -9.9300943}; 
....................  
.................... //////////////////////////////////////////////////////////////////////////// 
.................... //   float log(float x) 
.................... //////////////////////////////////////////////////////////////////////////// 
.................... // Description : returns the the natural log of x 
.................... // Date : N/A 
.................... // 
.................... float32 log(float32 x) 
.................... { 
....................    float32 y, res, r, y2; 
....................    #if defined(__PCD__) 
....................    unsigned int8  data1,data2; 
....................    #endif 
....................    signed int8 n; 
....................    #ifdef _ERRNO 
....................    if(x <0) 
....................    { 
....................       errno=EDOM; 
....................    } 
....................    if(x ==0) 
....................    { 
....................       errno=ERANGE; 
....................       return(0); 
....................    } 
....................    #endif 
....................    y = x; 
*
03590:  MOVFF  5E1,5E5
03594:  MOVFF  5E0,5E4
03598:  MOVFF  5DF,5E3
0359C:  MOVFF  5DE,5E2
....................  
....................    if (y != 1.0) 
035A0:  MOVFF  5E5,601
035A4:  MOVFF  5E4,600
035A8:  MOVFF  5E3,5FF
035AC:  MOVFF  5E2,5FE
035B0:  MOVLB  6
035B2:  CLRF   x05
035B4:  CLRF   x04
035B6:  CLRF   x03
035B8:  MOVLW  7F
035BA:  MOVWF  x02
035BC:  MOVLB  0
035BE:  CALL   244E
035C2:  BTFSC  FD8.2
035C4:  BRA    3A54
....................    { 
.................... #if !defined(__PCD__) 
....................     *((unsigned int8 *)(&y)) = 0x7E;  
035C6:  MOVLW  05
035C8:  MOVLB  5
035CA:  MOVWF  xF4
035CC:  MOVLW  E2
035CE:  MOVWF  FE9
035D0:  MOVFF  5F4,FEA
035D4:  MOVLW  7E
035D6:  MOVWF  FEF
.................... #endif 
....................  
.................... #if defined(__PCD__) // Takes care of IEEE format 
....................    data2 = *(((unsigned int8 *)(&y))+3); 
....................    *(((unsigned int8 *)(&y))+3) = 0x3F; 
....................    data1 = *(((unsigned int8 *)(&y))+2); 
....................    bit_clear(data1,7); 
....................    *(((unsigned int8 *)(&y))+2) = data1; 
....................    if(bit_test(data2,7)) 
....................    bit_set(*(((unsigned int8 *)(&y))+3),7); 
.................... #endif 
....................  
....................       y = (y - 1.0)/(y + 1.0); 
035D8:  BSF    FD8.1
035DA:  MOVFF  5E5,605
035DE:  MOVFF  5E4,604
035E2:  MOVFF  5E3,603
035E6:  MOVFF  5E2,602
035EA:  MOVLB  6
035EC:  CLRF   x09
035EE:  CLRF   x08
035F0:  CLRF   x07
035F2:  MOVLW  7F
035F4:  MOVWF  x06
035F6:  MOVLB  0
035F8:  CALL   1A2C
035FC:  MOVFF  00,5F3
03600:  MOVFF  01,5F4
03604:  MOVFF  02,5F5
03608:  MOVFF  03,5F6
0360C:  BCF    FD8.1
0360E:  MOVFF  5E5,605
03612:  MOVFF  5E4,604
03616:  MOVFF  5E3,603
0361A:  MOVFF  5E2,602
0361E:  MOVLB  6
03620:  CLRF   x09
03622:  CLRF   x08
03624:  CLRF   x07
03626:  MOVLW  7F
03628:  MOVWF  x06
0362A:  MOVLB  0
0362C:  CALL   1A2C
03630:  MOVFF  5F6,601
03634:  MOVFF  5F5,600
03638:  MOVFF  5F4,5FF
0363C:  MOVFF  5F3,5FE
03640:  MOVFF  03,605
03644:  MOVFF  02,604
03648:  MOVFF  01,603
0364C:  MOVFF  00,602
03650:  CALL   18AE
03654:  MOVFF  03,5E5
03658:  MOVFF  02,5E4
0365C:  MOVFF  01,5E3
03660:  MOVFF  00,5E2
....................  
....................       y2=y*y; 
03664:  MOVFF  5E5,601
03668:  MOVFF  5E4,600
0366C:  MOVFF  5E3,5FF
03670:  MOVFF  5E2,5FE
03674:  MOVFF  5E5,605
03678:  MOVFF  5E4,604
0367C:  MOVFF  5E3,603
03680:  MOVFF  5E2,602
03684:  RCALL  2F06
03686:  MOVFF  03,5F1
0368A:  MOVFF  02,5F0
0368E:  MOVFF  01,5EF
03692:  MOVFF  00,5EE
....................  
....................       res = pl[0]*y2 + pl[1]; 
03696:  MOVLW  BC
03698:  MOVLB  6
0369A:  MOVWF  x01
0369C:  MOVLW  24
0369E:  MOVWF  x00
036A0:  MOVLW  67
036A2:  MOVLB  5
036A4:  MOVWF  xFF
036A6:  MOVLW  7D
036A8:  MOVWF  xFE
036AA:  MOVFF  5F1,605
036AE:  MOVFF  5F0,604
036B2:  MOVFF  5EF,603
036B6:  MOVFF  5EE,602
036BA:  MOVLB  0
036BC:  RCALL  2F06
036BE:  MOVFF  00,5F3
036C2:  MOVFF  01,5F4
036C6:  MOVFF  02,5F5
036CA:  MOVFF  03,5F6
036CE:  BCF    FD8.1
036D0:  MOVFF  03,605
036D4:  MOVFF  02,604
036D8:  MOVFF  01,603
036DC:  MOVFF  00,602
036E0:  MOVLW  E3
036E2:  MOVLB  6
036E4:  MOVWF  x09
036E6:  MOVLW  E4
036E8:  MOVWF  x08
036EA:  MOVLW  90
036EC:  MOVWF  x07
036EE:  MOVLW  82
036F0:  MOVWF  x06
036F2:  MOVLB  0
036F4:  CALL   1A2C
036F8:  MOVFF  03,5E9
036FC:  MOVFF  02,5E8
03700:  MOVFF  01,5E7
03704:  MOVFF  00,5E6
....................       res = res*y2 + pl[2]; 
03708:  MOVFF  5E9,601
0370C:  MOVFF  5E8,600
03710:  MOVFF  5E7,5FF
03714:  MOVFF  5E6,5FE
03718:  MOVFF  5F1,605
0371C:  MOVFF  5F0,604
03720:  MOVFF  5EF,603
03724:  MOVFF  5EE,602
03728:  CALL   2F06
0372C:  MOVFF  00,5F3
03730:  MOVFF  01,5F4
03734:  MOVFF  02,5F5
03738:  MOVFF  03,5F6
0373C:  BCF    FD8.1
0373E:  MOVFF  03,605
03742:  MOVFF  02,604
03746:  MOVFF  01,603
0374A:  MOVFF  00,602
0374E:  MOVLW  1C
03750:  MOVLB  6
03752:  MOVWF  x09
03754:  MOVLW  87
03756:  MOVWF  x08
03758:  MOVLW  57
0375A:  MOVWF  x07
0375C:  MOVLW  83
0375E:  MOVWF  x06
03760:  MOVLB  0
03762:  CALL   1A2C
03766:  MOVFF  03,5E9
0376A:  MOVFF  02,5E8
0376E:  MOVFF  01,5E7
03772:  MOVFF  00,5E6
....................       res = res*y2 + pl[3]; 
03776:  MOVFF  5E9,601
0377A:  MOVFF  5E8,600
0377E:  MOVFF  5E7,5FF
03782:  MOVFF  5E6,5FE
03786:  MOVFF  5F1,605
0378A:  MOVFF  5F0,604
0378E:  MOVFF  5EF,603
03792:  MOVFF  5EE,602
03796:  CALL   2F06
0379A:  MOVFF  00,5F3
0379E:  MOVFF  01,5F4
037A2:  MOVFF  02,5F5
037A6:  MOVFF  03,5F6
037AA:  BCF    FD8.1
037AC:  MOVFF  03,605
037B0:  MOVFF  02,604
037B4:  MOVFF  01,603
037B8:  MOVFF  00,602
037BC:  MOVLW  AB
037BE:  MOVLB  6
037C0:  MOVWF  x09
037C2:  MOVLW  E1
037C4:  MOVWF  x08
037C6:  MOVLW  9E
037C8:  MOVWF  x07
037CA:  MOVLW  83
037CC:  MOVWF  x06
037CE:  MOVLB  0
037D0:  CALL   1A2C
037D4:  MOVFF  03,5E9
037D8:  MOVFF  02,5E8
037DC:  MOVFF  01,5E7
037E0:  MOVFF  00,5E6
....................  
....................       r = ql[0]*y2 + ql[1]; 
037E4:  MOVLB  6
037E6:  CLRF   x01
037E8:  CLRF   x00
037EA:  MOVLB  5
037EC:  CLRF   xFF
037EE:  MOVLW  7F
037F0:  MOVWF  xFE
037F2:  MOVFF  5F1,605
037F6:  MOVFF  5F0,604
037FA:  MOVFF  5EF,603
037FE:  MOVFF  5EE,602
03802:  MOVLB  0
03804:  CALL   2F06
03808:  MOVFF  00,5F3
0380C:  MOVFF  01,5F4
03810:  MOVFF  02,5F5
03814:  MOVFF  03,5F6
03818:  BCF    FD8.1
0381A:  MOVFF  03,605
0381E:  MOVFF  02,604
03822:  MOVFF  01,603
03826:  MOVFF  00,602
0382A:  MOVLW  B4
0382C:  MOVLB  6
0382E:  MOVWF  x09
03830:  MOVLW  2A
03832:  MOVWF  x08
03834:  MOVLW  82
03836:  MOVWF  x07
03838:  MOVWF  x06
0383A:  MOVLB  0
0383C:  CALL   1A2C
03840:  MOVFF  03,5ED
03844:  MOVFF  02,5EC
03848:  MOVFF  01,5EB
0384C:  MOVFF  00,5EA
....................       r = r*y2 + ql[2]; 
03850:  MOVFF  5ED,601
03854:  MOVFF  5EC,600
03858:  MOVFF  5EB,5FF
0385C:  MOVFF  5EA,5FE
03860:  MOVFF  5F1,605
03864:  MOVFF  5F0,604
03868:  MOVFF  5EF,603
0386C:  MOVFF  5EE,602
03870:  CALL   2F06
03874:  MOVFF  00,5F3
03878:  MOVFF  01,5F4
0387C:  MOVFF  02,5F5
03880:  MOVFF  03,5F6
03884:  BCF    FD8.1
03886:  MOVFF  03,605
0388A:  MOVFF  02,604
0388E:  MOVFF  01,603
03892:  MOVFF  00,602
03896:  MOVLW  80
03898:  MOVLB  6
0389A:  MOVWF  x09
0389C:  MOVLW  3E
0389E:  MOVWF  x08
038A0:  MOVLW  06
038A2:  MOVWF  x07
038A4:  MOVLW  83
038A6:  MOVWF  x06
038A8:  MOVLB  0
038AA:  CALL   1A2C
038AE:  MOVFF  03,5ED
038B2:  MOVFF  02,5EC
038B6:  MOVFF  01,5EB
038BA:  MOVFF  00,5EA
....................       r = r*y2 + ql[3]; 
038BE:  MOVFF  5ED,601
038C2:  MOVFF  5EC,600
038C6:  MOVFF  5EB,5FF
038CA:  MOVFF  5EA,5FE
038CE:  MOVFF  5F1,605
038D2:  MOVFF  5F0,604
038D6:  MOVFF  5EF,603
038DA:  MOVFF  5EE,602
038DE:  CALL   2F06
038E2:  MOVFF  00,5F3
038E6:  MOVFF  01,5F4
038EA:  MOVFF  02,5F5
038EE:  MOVFF  03,5F6
038F2:  BCF    FD8.1
038F4:  MOVFF  03,605
038F8:  MOVFF  02,604
038FC:  MOVFF  01,603
03900:  MOVFF  00,602
03904:  MOVLW  AB
03906:  MOVLB  6
03908:  MOVWF  x09
0390A:  MOVLW  E1
0390C:  MOVWF  x08
0390E:  MOVLW  9E
03910:  MOVWF  x07
03912:  MOVLW  82
03914:  MOVWF  x06
03916:  MOVLB  0
03918:  CALL   1A2C
0391C:  MOVFF  03,5ED
03920:  MOVFF  02,5EC
03924:  MOVFF  01,5EB
03928:  MOVFF  00,5EA
....................  
....................       res = y*res/r; 
0392C:  MOVFF  5E5,601
03930:  MOVFF  5E4,600
03934:  MOVFF  5E3,5FF
03938:  MOVFF  5E2,5FE
0393C:  MOVFF  5E9,605
03940:  MOVFF  5E8,604
03944:  MOVFF  5E7,603
03948:  MOVFF  5E6,602
0394C:  CALL   2F06
03950:  MOVFF  00,5F3
03954:  MOVFF  01,5F4
03958:  MOVFF  02,5F5
0395C:  MOVFF  03,5F6
03960:  MOVFF  03,601
03964:  MOVFF  02,600
03968:  MOVFF  01,5FF
0396C:  MOVFF  00,5FE
03970:  MOVFF  5ED,605
03974:  MOVFF  5EC,604
03978:  MOVFF  5EB,603
0397C:  MOVFF  5EA,602
03980:  CALL   18AE
03984:  MOVFF  03,5E9
03988:  MOVFF  02,5E8
0398C:  MOVFF  01,5E7
03990:  MOVFF  00,5E6
.................... #if !defined(__PCD__) 
....................       n = *((unsigned int8 *)(&x)) - 0x7E; 
03994:  MOVLW  05
03996:  MOVLB  5
03998:  MOVWF  xF4
0399A:  MOVLW  DE
0399C:  MOVWF  FE9
0399E:  MOVFF  5F4,FEA
039A2:  MOVLW  7E
039A4:  SUBWF  FEF,W
039A6:  MOVWF  xF2
.................... #endif 
.................... #if defined(__PCD__)  
....................     data1 = *(((unsigned int8 *)(&x)+3)); 
....................     rotate_left(&data1,1); 
....................     data2 = *(((unsigned int8 *)(&x)+2)); 
....................     if(bit_test (data2,7)) 
....................       bit_set(data1,0); 
....................     n = data1 - 0x7E; 
.................... #endif 
....................  
....................       if (n<0)  
039A8:  BTFSC  xF2.7
039AA:  BRA    39AE
039AC:  BRA    39D6
....................          r = -(float32)-n; 
039AE:  MOVLW  00
039B0:  BSF    FD8.0
039B2:  SUBFWB xF2,W
039B4:  CLRF   xF5
039B6:  MOVWF  xF4
039B8:  BTFSC  xF4.7
039BA:  DECF   xF5,F
039BC:  MOVLB  0
039BE:  RCALL  3540
039C0:  MOVFF  00,5EA
039C4:  MOVF   01,W
039C6:  XORLW  80
039C8:  MOVLB  5
039CA:  MOVWF  xEB
039CC:  MOVFF  02,5EC
039D0:  MOVFF  03,5ED
....................       else 
039D4:  BRA    39F4
....................          r = (float32)n; 
039D6:  CLRF   xF5
039D8:  MOVFF  5F2,5F4
039DC:  BTFSC  xF4.7
039DE:  DECF   xF5,F
039E0:  MOVLB  0
039E2:  RCALL  3540
039E4:  MOVFF  03,5ED
039E8:  MOVFF  02,5EC
039EC:  MOVFF  01,5EB
039F0:  MOVFF  00,5EA
....................  
....................       res += r*LN2; 
039F4:  MOVFF  5ED,601
039F8:  MOVFF  5EC,600
039FC:  MOVFF  5EB,5FF
03A00:  MOVFF  5EA,5FE
03A04:  MOVLW  18
03A06:  MOVLB  6
03A08:  MOVWF  x05
03A0A:  MOVLW  72
03A0C:  MOVWF  x04
03A0E:  MOVLW  31
03A10:  MOVWF  x03
03A12:  MOVLW  7E
03A14:  MOVWF  x02
03A16:  MOVLB  0
03A18:  CALL   2F06
03A1C:  BCF    FD8.1
03A1E:  MOVFF  5E9,605
03A22:  MOVFF  5E8,604
03A26:  MOVFF  5E7,603
03A2A:  MOVFF  5E6,602
03A2E:  MOVFF  03,609
03A32:  MOVFF  02,608
03A36:  MOVFF  01,607
03A3A:  MOVFF  00,606
03A3E:  CALL   1A2C
03A42:  MOVFF  03,5E9
03A46:  MOVFF  02,5E8
03A4A:  MOVFF  01,5E7
03A4E:  MOVFF  00,5E6
....................    } 
....................  
....................    else 
03A52:  BRA    3A60
....................       res = 0.0; 
03A54:  MOVLB  5
03A56:  CLRF   xE9
03A58:  CLRF   xE8
03A5A:  CLRF   xE7
03A5C:  CLRF   xE6
03A5E:  MOVLB  0
....................  
....................    return(res); 
03A60:  MOVFF  5E6,00
03A64:  MOVFF  5E7,01
03A68:  MOVFF  5E8,02
03A6C:  MOVFF  5E9,03
.................... } 
03A70:  RETLW  00
....................  
.................... //Overloaded function for log() for PCD 
.................... // Overloaded function log() for data type - Float48 
.................... #if defined(__PCD__) 
.................... float48 log(float48 x) 
.................... { 
....................    float48 y, res, r, y2; 
....................    unsigned int8  data1,data2; 
....................    signed int8 n; 
....................    #ifdef _ERRNO 
....................    if(x <0) 
....................    { 
....................       errno=EDOM; 
....................    } 
....................    if(x ==0) 
....................    { 
....................       errno=ERANGE; 
....................       return(0); 
....................    } 
....................    #endif 
....................    y = x; 
....................  
....................    if (y != 1.0) 
....................    { 
....................     
....................    #if !defined(__PCD__) 
....................        *((unsigned int8 *)(&y)) = 0x7E;  
....................    #endif 
....................       data2 = *(((unsigned int8 *)(&y))+5); 
....................       *(((unsigned int8 *)(&y))+5) = 0x3F; 
....................       data1 = *(((unsigned int8 *)(&y))+4); 
....................       bit_clear(data1,7); 
....................       *(((unsigned int8 *)(&y))+4) = data1; 
....................    
....................       if(bit_test(data2,7)) 
....................          bit_set(*(((unsigned int8 *)(&y))+4),7); 
....................       y = (y - 1.0)/(y + 1.0); 
....................  
....................       y2=y*y; 
....................  
....................       res = pl[0]*y2 + pl[1]; 
....................       res = res*y2 + pl[2]; 
....................       res = res*y2 + pl[3]; 
....................  
....................       r = ql[0]*y2 + ql[1]; 
....................       r = r*y2 + ql[2]; 
....................       r = r*y2 + ql[3]; 
....................  
....................       res = y*res/r; 
....................  
....................     data1 = *(((unsigned int8 *)(&x)+5)); 
....................     rotate_left(&data1,1); 
....................     data2 = *(((unsigned int8 *)(&x)+4)); 
....................     if(bit_test (data2,7)) 
....................        bit_set(data1,0); 
....................       
....................     n = data1 - 0x7E; 
....................  
....................       if (n<0) 
....................          r = -(float48)-n; 
....................       else 
....................          r = (float48)n; 
....................  
....................       res += r*LN2; 
....................    } 
....................  
....................    else 
....................       res = 0.0; 
....................  
....................    return(res); 
.................... } 
....................  
.................... // Overloaded function log() for data type - Float48 
.................... #if defined(__PCD__) 
.................... float32 const pl_64[4] = {0.45145214, -9.0558803, 26.940971, -19.860189}; 
.................... float32 const ql_64[4] = {1.0000000,  -8.1354259, 16.780517, -9.9300943}; 
.................... #endif 
.................... float64 log(float64 x) 
.................... { 
....................    float64 y, res, r, y2; 
....................    unsigned int16  data1,data2; 
....................    unsigned int16 *p; 
....................    signed int16 n; 
....................    #ifdef _ERRNO 
....................    if(x <0) 
....................    { 
....................       errno=EDOM; 
....................    } 
....................    if(x ==0) 
....................    { 
....................       errno=ERANGE; 
....................       return(0); 
....................    } 
....................    #endif 
....................    y = x; 
....................  
....................    if (y != 1.0) 
....................    { 
....................    #if !defined(__PCD__) 
....................        *((unsigned int8 *)(&y)) = 0x7E;  
....................    #endif 
....................       p= (((unsigned int16 *)(&y))+3); 
....................       data1 = *p; 
....................       data2 = *p; 
....................       data1 = 0x3FE; 
....................       data1 = data1 <<4; 
....................       if(bit_test (data2,15)) 
....................       bit_set(data1,15); 
....................       data2 = data2 & 0x000F; 
....................       data1 ^=data2; 
....................  
....................       *p = data1; 
....................  
....................       y = (y - 1.0)/(y + 1.0); 
....................  
....................       y2=y*y; 
....................  
....................       res = pl_64[0]*y2 + pl_64[1]; 
....................       res = res*y2 + pl_64[2]; 
....................       res = res*y2 + pl_64[3]; 
....................  
....................       r = ql_64[0]*y2 + ql_64[1]; 
....................       r = r*y2 + ql_64[2]; 
....................       r = r*y2 + ql_64[3]; 
....................  
....................       res = y*res/r; 
....................   
....................       p= (((unsigned int16 *)(&x))+3); 
....................       data1 = *p; 
....................       bit_clear(data1,15); 
....................       data1 = data1 >>4;     
....................       n = data1 - 0x3FE; 
....................  
....................  
....................       if (n<0) 
....................          r = -(float64)-n; 
....................       else 
....................          r = (float64)n; 
....................  
....................       res += r*LN2; 
....................    } 
....................  
....................    else 
....................       res = 0.0; 
....................  
....................    return(res); 
.................... } 
.................... #endif 
....................  
....................  
.................... #define LN10 2.3025850929940456 
....................  
.................... //////////////////////////////////////////////////////////////////////////// 
.................... //   float log10(float x) 
.................... //////////////////////////////////////////////////////////////////////////// 
.................... // Description : returns the the log base 10 of x 
.................... // Date : N/A 
.................... // 
.................... float32 log10(float32 x) 
.................... { 
....................    float32 r; 
....................  
....................    r = log(x); 
....................    r = r/LN10; 
....................    return(r); 
.................... } 
....................  
.................... //Overloaded functions for log10() for PCD 
.................... // Overloaded function log10() for data type - Float48 
.................... #if defined(__PCD__) 
.................... float48 log10(float48 x) 
.................... { 
....................    float48 r; 
....................  
....................    r = log(x); 
....................    r = r/LN10; 
....................    return(r); 
.................... } 
....................  
.................... // Overloaded function log10() for data type - Float64 
.................... float64 log10(float64 x) 
.................... { 
....................    float64 r; 
....................  
....................    r = log(x); 
....................    r = r/LN10; 
....................    return(r); 
.................... } 
.................... #endif 
.................... //////////////////////////////////////////////////////////////////////////// 
.................... //   float modf(float x) 
.................... //////////////////////////////////////////////////////////////////////////// 
.................... // Description :breaks the argument value int integral and fractional parts, 
.................... // ach of which have the same sign as the argument.  It stores the integral part 
.................... // as a float in the object pointed to by the iptr 
.................... // Returns : returns the signed fractional part of value. 
.................... // Date : N/A 
.................... // 
....................  
.................... float32 modf(float32 value,float32 *iptr) 
.................... { 
....................    *iptr=(value < 0.0)? ceil(value): floor(value); 
....................    return(value - *iptr); 
.................... } 
.................... //Overloaded functions for modf() for PCD 
.................... // Overloaded function modf() for data type - Float48 
.................... #if defined(__PCD__) 
.................... float48 modf(float48 value,float48 *iptr) 
.................... { 
....................    *iptr=(value < 0.0)? ceil(value): floor(value); 
....................    return(value - *iptr); 
.................... } 
.................... // Overloaded function modf() for data type - Float64 
.................... float64 modf(float64 value,float64 *iptr) 
.................... { 
....................    *iptr=(value < 0.0)? ceil(value): floor(value); 
....................    return(value - *iptr); 
.................... } 
.................... #endif 
....................  
.................... //////////////////////////////////////////////////////////////////////////// 
.................... //   float pwr(float x,float y) 
.................... //////////////////////////////////////////////////////////////////////////// 
.................... // Description : returns the value (x^y) 
.................... // Date : N/A 
.................... // Note : 0 is returned when the function will generate an imaginary number 
.................... // 
.................... float32 pwr(float32 x,float32 y) 
.................... { 
....................    if(0 > x && fmod(y, 1) == 0) { 
....................       if(fmod(y, 2) == 0) { 
....................          return (exp(log(-x) * y)); 
....................       } else { 
....................          return (-exp(log(-x) * y)); 
....................       } 
....................    } else if(0 > x && fmod(y, 1) != 0) { 
....................       return 0; 
....................    } else { 
....................       if(x != 0 || 0 >= y) { 
....................          return (exp(log(x) * y)); 
....................       } 
....................    } 
.................... } 
.................... //Overloaded functions for pwr() for PCD 
.................... // Overloaded function pwr() for data type - Float48 
.................... #if defined(__PCD__) 
.................... float48 pwr(float48 x,float48 y) 
.................... { 
....................    if(0 > x && fmod(y, 1) == 0) { 
....................       if(fmod(y, 2) == 0) { 
....................          return (exp(log(-x) * y)); 
....................       } else { 
....................          return (-exp(log(-x) * y)); 
....................       } 
....................    } else if(0 > x && fmod(y, 1) != 0) { 
....................       return 0; 
....................    } else { 
....................       if(x != 0 || 0 >= y) { 
....................          return (exp(log(x) * y)); 
....................       } 
....................    } 
.................... } 
.................... // Overloaded function pwr() for data type - Float64 
.................... float64 pwr(float64 x,float64 y) 
.................... { 
....................    if(0 > x && fmod(y, 1) == 0) { 
....................       if(fmod(y, 2) == 0) { 
....................          return (exp(log(-x) * y)); 
....................       } else { 
....................          return (-exp(log(-x) * y)); 
....................       } 
....................    } else if(0 > x && fmod(y, 1) != 0) { 
....................       return 0; 
....................    } else { 
....................       if(x != 0 || 0 >= y) { 
....................          return (exp(log(x) * y)); 
....................       } 
....................    } 
.................... } 
.................... #endif 
....................  
.................... //////////////////// Power functions //////////////////// 
....................  
.................... //////////////////////////////////////////////////////////////////////////// 
.................... //   float pow(float x,float y) 
.................... //////////////////////////////////////////////////////////////////////////// 
.................... // Description : returns the value (x^y) 
.................... // Date : N/A 
.................... // Note : 0 is returned when the function will generate an imaginary number 
.................... // 
.................... float32 pow(float32 x,float32 y) 
.................... { 
....................    if(0 > x && fmod(y, 1) == 0) { 
*
03E86:  MOVFF  5D5,601
03E8A:  MOVFF  5D4,600
03E8E:  MOVFF  5D3,5FF
03E92:  MOVFF  5D2,5FE
03E96:  MOVLB  6
03E98:  CLRF   x05
03E9A:  CLRF   x04
03E9C:  CLRF   x03
03E9E:  CLRF   x02
03EA0:  MOVLB  0
03EA2:  CALL   244E
03EA6:  BTFSS  FD8.0
03EA8:  BRA    405C
03EAA:  MOVFF  5D9,5DD
03EAE:  MOVFF  5D8,5DC
03EB2:  MOVFF  5D7,5DB
03EB6:  MOVFF  5D6,5DA
03EBA:  MOVLB  5
03EBC:  CLRF   xE1
03EBE:  CLRF   xE0
03EC0:  CLRF   xDF
03EC2:  MOVLW  7F
03EC4:  MOVWF  xDE
03EC6:  MOVLB  0
03EC8:  CALL   33DA
03ECC:  MOVFF  00,5DA
03ED0:  MOVFF  01,5DB
03ED4:  MOVFF  02,5DC
03ED8:  MOVFF  03,5DD
03EDC:  MOVFF  03,601
03EE0:  MOVFF  02,600
03EE4:  MOVFF  01,5FF
03EE8:  MOVFF  00,5FE
03EEC:  MOVLB  6
03EEE:  CLRF   x05
03EF0:  CLRF   x04
03EF2:  CLRF   x03
03EF4:  CLRF   x02
03EF6:  MOVLB  0
03EF8:  CALL   244E
03EFC:  BTFSS  FD8.2
03EFE:  BRA    405C
....................       if(fmod(y, 2) == 0) { 
03F00:  MOVFF  5D9,5DD
03F04:  MOVFF  5D8,5DC
03F08:  MOVFF  5D7,5DB
03F0C:  MOVFF  5D6,5DA
03F10:  MOVLB  5
03F12:  CLRF   xE1
03F14:  CLRF   xE0
03F16:  CLRF   xDF
03F18:  MOVLW  80
03F1A:  MOVWF  xDE
03F1C:  MOVLB  0
03F1E:  CALL   33DA
03F22:  MOVFF  00,5DA
03F26:  MOVFF  01,5DB
03F2A:  MOVFF  02,5DC
03F2E:  MOVFF  03,5DD
03F32:  MOVFF  03,601
03F36:  MOVFF  02,600
03F3A:  MOVFF  01,5FF
03F3E:  MOVFF  00,5FE
03F42:  MOVLB  6
03F44:  CLRF   x05
03F46:  CLRF   x04
03F48:  CLRF   x03
03F4A:  CLRF   x02
03F4C:  MOVLB  0
03F4E:  CALL   244E
03F52:  BNZ   3FD6
....................          return (exp(log(-x) * y)); 
03F54:  MOVFF  5D2,5DA
03F58:  MOVLB  5
03F5A:  MOVF   xD3,W
03F5C:  XORLW  80
03F5E:  MOVWF  xDB
03F60:  MOVFF  5D4,5DC
03F64:  MOVFF  5D5,5DD
03F68:  MOVFF  5D5,5E1
03F6C:  MOVFF  5D4,5E0
03F70:  MOVWF  xDF
03F72:  MOVFF  5D2,5DE
03F76:  MOVLB  0
03F78:  CALL   3590
03F7C:  MOVFF  00,5DA
03F80:  MOVFF  01,5DB
03F84:  MOVFF  02,5DC
03F88:  MOVFF  03,5DD
03F8C:  MOVFF  03,601
03F90:  MOVFF  02,600
03F94:  MOVFF  01,5FF
03F98:  MOVFF  00,5FE
03F9C:  MOVFF  5D9,605
03FA0:  MOVFF  5D8,604
03FA4:  MOVFF  5D7,603
03FA8:  MOVFF  5D6,602
03FAC:  CALL   2F06
03FB0:  MOVFF  00,5DA
03FB4:  MOVFF  01,5DB
03FB8:  MOVFF  02,5DC
03FBC:  MOVFF  03,5DD
03FC0:  MOVFF  03,5E1
03FC4:  MOVFF  02,5E0
03FC8:  MOVFF  01,5DF
03FCC:  MOVFF  00,5DE
03FD0:  RCALL  3A72
03FD2:  BRA    4190
....................       } else { 
03FD4:  BRA    405A
....................          return (-exp(log(-x) * y)); 
03FD6:  MOVFF  5D2,5DA
03FDA:  MOVLB  5
03FDC:  MOVF   xD3,W
03FDE:  XORLW  80
03FE0:  MOVWF  xDB
03FE2:  MOVFF  5D4,5DC
03FE6:  MOVFF  5D5,5DD
03FEA:  MOVFF  5D5,5E1
03FEE:  MOVFF  5D4,5E0
03FF2:  MOVWF  xDF
03FF4:  MOVFF  5D2,5DE
03FF8:  MOVLB  0
03FFA:  CALL   3590
03FFE:  MOVFF  00,5DA
04002:  MOVFF  01,5DB
04006:  MOVFF  02,5DC
0400A:  MOVFF  03,5DD
0400E:  MOVFF  03,601
04012:  MOVFF  02,600
04016:  MOVFF  01,5FF
0401A:  MOVFF  00,5FE
0401E:  MOVFF  5D9,605
04022:  MOVFF  5D8,604
04026:  MOVFF  5D7,603
0402A:  MOVFF  5D6,602
0402E:  CALL   2F06
04032:  MOVFF  00,5DA
04036:  MOVFF  01,5DB
0403A:  MOVFF  02,5DC
0403E:  MOVFF  03,5DD
04042:  MOVFF  03,5E1
04046:  MOVFF  02,5E0
0404A:  MOVFF  01,5DF
0404E:  MOVFF  00,5DE
04052:  RCALL  3A72
04054:  MOVLW  80
04056:  XORWF  01,F
04058:  BRA    4190
....................       } 
....................    } else if(0 > x && fmod(y, 1) != 0) { 
0405A:  BRA    4190
0405C:  MOVFF  5D5,601
04060:  MOVFF  5D4,600
04064:  MOVFF  5D3,5FF
04068:  MOVFF  5D2,5FE
0406C:  MOVLB  6
0406E:  CLRF   x05
04070:  CLRF   x04
04072:  CLRF   x03
04074:  CLRF   x02
04076:  MOVLB  0
04078:  CALL   244E
0407C:  BNC   40DE
0407E:  MOVFF  5D9,5DD
04082:  MOVFF  5D8,5DC
04086:  MOVFF  5D7,5DB
0408A:  MOVFF  5D6,5DA
0408E:  MOVLB  5
04090:  CLRF   xE1
04092:  CLRF   xE0
04094:  CLRF   xDF
04096:  MOVLW  7F
04098:  MOVWF  xDE
0409A:  MOVLB  0
0409C:  CALL   33DA
040A0:  MOVFF  00,5DA
040A4:  MOVFF  01,5DB
040A8:  MOVFF  02,5DC
040AC:  MOVFF  03,5DD
040B0:  MOVFF  03,601
040B4:  MOVFF  02,600
040B8:  MOVFF  01,5FF
040BC:  MOVFF  00,5FE
040C0:  MOVLB  6
040C2:  CLRF   x05
040C4:  CLRF   x04
040C6:  CLRF   x03
040C8:  CLRF   x02
040CA:  MOVLB  0
040CC:  CALL   244E
040D0:  BZ    40DE
....................       return 0; 
040D2:  CLRF   00
040D4:  CLRF   01
040D6:  CLRF   02
040D8:  CLRF   03
040DA:  BRA    4190
....................    } else { 
040DC:  BRA    4190
....................       if(x != 0 || 0 >= y) { 
040DE:  MOVFF  5D5,601
040E2:  MOVFF  5D4,600
040E6:  MOVFF  5D3,5FF
040EA:  MOVFF  5D2,5FE
040EE:  MOVLB  6
040F0:  CLRF   x05
040F2:  CLRF   x04
040F4:  CLRF   x03
040F6:  CLRF   x02
040F8:  MOVLB  0
040FA:  CALL   244E
040FE:  BNZ   4124
04100:  MOVFF  5D9,601
04104:  MOVFF  5D8,600
04108:  MOVFF  5D7,5FF
0410C:  MOVFF  5D6,5FE
04110:  MOVLB  6
04112:  CLRF   x05
04114:  CLRF   x04
04116:  CLRF   x03
04118:  CLRF   x02
0411A:  MOVLB  0
0411C:  CALL   244E
04120:  BC    4124
04122:  BNZ   4190
....................          return (exp(log(x) * y)); 
04124:  MOVFF  5D5,5E1
04128:  MOVFF  5D4,5E0
0412C:  MOVFF  5D3,5DF
04130:  MOVFF  5D2,5DE
04134:  CALL   3590
04138:  MOVFF  00,5DA
0413C:  MOVFF  01,5DB
04140:  MOVFF  02,5DC
04144:  MOVFF  03,5DD
04148:  MOVFF  03,601
0414C:  MOVFF  02,600
04150:  MOVFF  01,5FF
04154:  MOVFF  00,5FE
04158:  MOVFF  5D9,605
0415C:  MOVFF  5D8,604
04160:  MOVFF  5D7,603
04164:  MOVFF  5D6,602
04168:  CALL   2F06
0416C:  MOVFF  00,5DA
04170:  MOVFF  01,5DB
04174:  MOVFF  02,5DC
04178:  MOVFF  03,5DD
0417C:  MOVFF  03,5E1
04180:  MOVFF  02,5E0
04184:  MOVFF  01,5DF
04188:  MOVFF  00,5DE
0418C:  RCALL  3A72
0418E:  BRA    4190
....................       } 
....................    } 
.................... } 
04190:  RETLW  00
.................... //Overloaded functions for pow() for PCD 
.................... // Overloaded function for pow() data type - Float48 
.................... #if defined(__PCD__) 
.................... float48 pow(float48 x,float48 y) 
.................... { 
....................    if(0 > x && fmod(y, 1) == 0) { 
....................       if(fmod(y, 2) == 0) { 
....................          return (exp(log(-x) * y)); 
....................       } else { 
....................          return (-exp(log(-x) * y)); 
....................       } 
....................    } else if(0 > x && fmod(y, 1) != 0) { 
....................       return 0; 
....................    } else { 
....................       if(x != 0 || 0 >= y) { 
....................          return (exp(log(x) * y)); 
....................       } 
....................    } 
.................... } 
....................  
.................... // Overloaded function pow() for data type - Float64 
.................... float64 pow(float64 x,float64 y) 
.................... { 
....................    if(0 > x && fmod(y, 1) == 0) { 
....................       if(fmod(y, 2) == 0) { 
....................          return (exp(log(-x) * y)); 
....................       } else { 
....................          return (-exp(log(-x) * y)); 
....................       } 
....................    } else if(0 > x && fmod(y, 1) != 0) { 
....................       return 0; 
....................    } else { 
....................       if(x != 0 || 0 >= y) { 
....................          return (exp(log(x) * y)); 
....................       } 
....................    } 
.................... } 
.................... #endif 
....................  
.................... //////////////////////////////////////////////////////////////////////////// 
.................... //   float sqrt(float x) 
.................... //////////////////////////////////////////////////////////////////////////// 
.................... // Description : returns the square root of x 
.................... // Date : N/A 
.................... // 
.................... float32 sqrt(float32 x) 
.................... { 
....................    float32 y, res; 
....................    #if defined(__PCD__) 
....................    unsigned int16 data1,data2; 
....................    #endif 
....................    BYTE *p; 
....................  
....................    #ifdef _ERRNO 
....................    if(x < 0) 
....................    { 
....................       errno=EDOM; 
....................    } 
....................    #endif 
....................  
....................    if( x<=0.0) 
....................       return(0.0); 
....................  
....................    y=x; 
....................     
....................    #if !defined(__PCD__) 
....................     p=&y; 
....................    (*p)=(BYTE)((((unsigned int16)(*p)) + 127) >> 1); 
....................    #endif 
....................     
....................    #if defined(__PCD__) 
....................     p = (((unsigned int8 *)(&y))+3); 
....................     data1 = *(((unsigned int8 *)(&y))+3); 
....................     data2 = *(((unsigned int8 *)(&y))+2); 
....................     rotate_left(&data1,1);     
....................     if(bit_test(data2,7))     
....................     bit_set(data1,0);     
....................     data1 = ((data1+127) >>1); 
....................     bit_clear(data2,7); 
....................     if(bit_test(data1,0)) 
....................     bit_set(data2,7); 
....................     data1 = data1 >>1; 
....................     *(((unsigned int8 *)(&y))+3) = data1; 
....................     *(((unsigned int8 *)(&y))+2) = data2; 
....................      
....................   #endif 
....................  
....................    do { 
....................       res=y; 
....................       y+=(x/y); 
....................  
....................       #if !defined(__PCD__) 
....................      (*p)--; 
....................    #endif 
....................     
....................    #if defined(__PCD__) 
....................     data1 = *(((unsigned int8 *)(&y))+3); 
....................     data2 = *(((unsigned int8 *)(&y))+2); 
....................     rotate_left(&data1,1); 
....................     if(bit_test(data2,7)) 
....................     bit_set(data1,0);     
....................     data1--; 
....................     bit_clear(data2,7); 
....................     if(bit_test(data1,0)) 
....................     bit_set(data2,7); 
....................     data1 = data1 >>1; 
....................     *(((unsigned int8 *)(&y))+3) = data1; 
....................     *(((unsigned int8 *)(&y))+2) = data2; 
....................      
....................   #endif 
....................    } while(res != y); 
....................  
....................    return(res); 
.................... } 
.................... //Overloaded functions for sqrt() for PCD 
.................... // Overloaded function sqrt() for data type - Float48 
.................... #if defined(__PCD__) 
.................... float48 sqrt(float48 x) 
.................... { 
....................    float48 y, res; 
....................    unsigned int16 data1,data2; 
....................    BYTE *p; 
....................  
....................    #ifdef _ERRNO 
....................    if(x < 0) 
....................    { 
....................       errno=EDOM; 
....................    } 
....................    #endif 
....................  
....................    if( x<=0.0) 
....................       return(0.0); 
....................  
....................    y=x; 
....................     
....................    #if !defined(__PCD__) 
....................     p=&y; 
....................    (*p)=(BYTE)((((unsigned int16)(*p)) + 127) >> 1); 
....................    #endif 
....................     
....................    #if defined(__PCD__) 
....................     p = (((unsigned int8 *)(&y))+5); 
....................     data1 = *(((unsigned int8 *)(&y))+5); 
....................     data2 = *(((unsigned int8 *)(&y))+4); 
....................     rotate_left(&data1,1); 
....................     if(bit_test(data2,7)) 
....................     bit_set(data1,0);     
....................     data1 = ((data1+127) >>1); 
....................     bit_clear(data2,7); 
....................     if(bit_test(data1,0)) 
....................     bit_set(data2,7); 
....................     data1 = data1 >>1; 
....................     *(((unsigned int8 *)(&y))+5) = data1; 
....................     *(((unsigned int8 *)(&y))+4) = data2; 
....................      
....................   #endif 
....................  
....................    do { 
....................       res=y; 
....................       y+=(x/y); 
....................  
....................       #if !defined(__PCD__) 
....................      (*p)--; 
....................    #endif 
....................     
....................     data1 = *(((unsigned int8 *)(&y))+5); 
....................     data2 = *(((unsigned int8 *)(&y))+4); 
....................     rotate_left(&data1,1); 
....................     if(bit_test(data2,7)) 
....................     bit_set(data1,0);     
....................     data1--; 
....................     bit_clear(data2,7); 
....................     if(bit_test(data1,0)) 
....................     bit_set(data2,7); 
....................     data1 = data1 >>1; 
....................     *(((unsigned int8 *)(&y))+5) = data1; 
....................     *(((unsigned int8 *)(&y))+4) = data2; 
....................      
....................    } while(res != y); 
....................  
....................    return(res); 
.................... } 
....................  
.................... // Overloaded function sqrt() for data type - Float64 
.................... float64 sqrt(float64 x) 
.................... { 
....................    float64 y, res; 
....................    unsigned int16 *p; 
....................    unsigned int16 temp1,temp2; 
....................  
....................    #ifdef _ERRNO 
....................    if(x < 0) 
....................    { 
....................       errno=EDOM; 
....................    } 
....................    #endif 
....................  
....................    if( x<=0.0) 
....................       return(0.0); 
....................  
....................    y=x; 
....................    p= (((unsigned int16 *)(&y))+3); 
....................    temp1 = *p; 
....................    temp2 = *p; 
....................    bit_clear(temp1,15); 
....................    temp1 = (temp1>>4)+1023; 
....................    temp1 = temp1 >> 1; 
....................    temp1 = (temp1<<4) & 0xFFF0; 
....................    if(bit_test(temp2,15)) 
....................    bit_set(temp1,15); 
....................    temp2 = temp2 & 0x000F; 
....................    temp1 ^= temp2; 
....................     
....................    (*p) = temp1; 
....................     
....................    do { 
....................       res=y; 
....................       y+=(x/y); 
....................      temp1 = *p; 
....................      temp2 = *p; 
....................      bit_clear(temp1,15); 
....................      temp1 = (temp1>>4); 
....................      temp1--; 
....................      temp1 = (temp1<<4) & 0xFFF0; 
....................      if(bit_test(temp2,15)) 
....................      bit_set(temp1,15); 
....................      temp2 = temp2 & 0x000F; 
....................      temp1 ^= temp2; 
....................      (*p) = temp1; 
....................  
....................    } while(res != y); 
....................  
....................    return(res); 
.................... } 
.................... #endif 
....................  
.................... ////////////////////////////// Trig Functions ////////////////////////////// 
.................... #ifdef PI_DIV_BY_TWO 
.................... #undef PI_DIV_BY_TWO 
.................... #endif 
.................... #define PI_DIV_BY_TWO   1.5707963267948966 
.................... #ifdef TWOBYPI 
.................... #undef TWOBYPI 
.................... #define TWOBYPI          0.6366197723675813 
.................... #endif 
.................... //////////////////////////////////////////////////////////////////////////// 
.................... //   float cos(float x) 
.................... //////////////////////////////////////////////////////////////////////////// 
.................... // Description : returns the cosine value of the angle x, which is in radian 
.................... // Date : 9/20/2001 
.................... // 
.................... float32 cos(float32 x) 
.................... { 
....................    float32 y, t, t2 = 1.0; 
....................    unsigned int8 quad, i; 
....................    float32 frac; 
....................    float32 p[6] = {                    //by the series definition for cosine 
....................       -0.5,                            // sum ( ( (-1)^n * x^2n )/(2n)! ) 
....................        0.04166666666667, 
....................       -0.00138888888889, 
....................        0.00002480158730, 
....................       -0.00000027557319, 
....................        0.00000000208767, 
....................       //-0.00000000001147, 
....................       // 0.00000000000005 
....................    }; 
....................  
....................    if (x < 0) x = -x;                  // absolute value of input 
....................  
....................    quad = (unsigned int8)(x / PI_DIV_BY_TWO);    // quadrant 
....................    frac = (x / PI_DIV_BY_TWO) - quad;  // fractional part of input 
....................    quad = quad % 4;                    // quadrant (0 to 3) 
....................  
....................    if (quad == 0 || quad == 2) 
....................       t = frac * PI_DIV_BY_TWO; 
....................    else if (quad == 1) 
....................       t = (1-frac) * PI_DIV_BY_TWO; 
....................    else // should be 3 
....................       t = (frac-1) * PI_DIV_BY_TWO; 
....................  
....................    y = 1.0; 
....................    t = t * t; 
....................    for (i = 0; i <= 5; i++) 
....................    { 
....................       t2 = t2 * t; 
....................       y = y + p[i] * t2; 
....................    } 
....................  
....................    if (quad == 2 || quad == 1) 
....................       y = -y;  // correct sign 
....................  
....................    return (y); 
.................... } 
....................  
....................  
.................... //Overloaded functions for cos() for PCD 
.................... // Overloaded function cos() for data type - Float48 
.................... #if defined(__PCD__) 
.................... float48 cos(float48 x) 
.................... { 
....................    float48 y, t, t2 = 1.0; 
....................    unsigned int8 quad, i; 
....................    float48 frac; 
....................    float48 p[6] = {                    //by the series definition for cosine 
....................       -0.5,                            // sum ( ( (-1)^n * x^2n )/(2n)! ) 
....................        0.04166666666667, 
....................       -0.00138888888889, 
....................        0.00002480158730, 
....................       -0.00000027557319, 
....................        0.00000000208767, 
....................       //-0.00000000001147, 
....................       // 0.00000000000005 
....................    }; 
....................  
....................    if (x < 0) x = -x;                  // absolute value of input 
....................  
....................    quad = (unsigned int8)(x / PI_DIV_BY_TWO);    // quadrant 
....................    frac = (x / PI_DIV_BY_TWO) - quad;  // fractional part of input 
....................    quad = quad % 4;                    // quadrant (0 to 3) 
....................  
....................    if (quad == 0 || quad == 2) 
....................       t = frac * PI_DIV_BY_TWO; 
....................    else if (quad == 1) 
....................       t = (1-frac) * PI_DIV_BY_TWO; 
....................    else // should be 3 
....................       t = (frac-1) * PI_DIV_BY_TWO; 
....................  
....................    y = 0.999999999781; 
....................    t = t * t; 
....................    for (i = 0; i <= 5; i++) 
....................    { 
....................       t2 = t2 * t; 
....................       y = y + p[i] * t2; 
....................    } 
....................  
....................    if (quad == 2 || quad == 1) 
....................       y = -y;  // correct sign 
....................  
....................    return (y); 
.................... } 
....................  
.................... // Overloaded function cos() for data type - Float48 
.................... float64 cos(float64 x) 
.................... { 
....................    float64 y, t, t2 = 1.0; 
....................    unsigned int8 quad, i; 
....................    float64 frac; 
....................    float64 p[6] = {                    //by the series definition for cosine 
....................       -0.5,                            // sum ( ( (-1)^n * x^2n )/(2n)! ) 
....................        0.04166666666667, 
....................       -0.00138888888889, 
....................        0.00002480158730, 
....................       -0.00000027557319, 
....................        0.00000000208767, 
....................       //-0.00000000001147, 
....................       // 0.00000000000005 
....................    }; 
....................  
....................    if (x < 0) x = -x;                  // absolute value of input 
....................  
....................    quad = (unsigned int8)(x / PI_DIV_BY_TWO);    // quadrant 
....................    frac = (x / PI_DIV_BY_TWO) - quad;  // fractional part of input 
....................    quad = quad % 4;                    // quadrant (0 to 3) 
....................  
....................    if (quad == 0 || quad == 2) 
....................       t = frac * PI_DIV_BY_TWO; 
....................    else if (quad == 1) 
....................       t = (1-frac) * PI_DIV_BY_TWO; 
....................    else // should be 3 
....................       t = (frac-1) * PI_DIV_BY_TWO; 
....................  
....................    y = 0.999999999781; 
....................    t = t * t; 
....................    for (i = 0; i <= 5; i++) 
....................    { 
....................       t2 = t2 * t; 
....................       y = y + p[i] * t2; 
....................    } 
....................  
....................    if (quad == 2 || quad == 1) 
....................       y = -y;  // correct sign 
....................  
....................    return (y); 
.................... } 
....................  
.................... #endif 
....................  
.................... //////////////////////////////////////////////////////////////////////////// 
.................... //   float sin(float x) 
.................... //////////////////////////////////////////////////////////////////////////// 
.................... // Description : returns the sine value of the angle x, which is in radian 
.................... // Date : 9/20/2001 
.................... // 
.................... float32 sin(float32 x) 
.................... { 
....................    return cos(x - PI_DIV_BY_TWO); 
.................... } 
....................  
.................... //Overloaded functions for sin() for PCD 
.................... // Overloaded function sin() for data type - Float48 
.................... #if defined(__PCD__) 
.................... float48 sin(float48 x) 
.................... { 
....................    return cos(x - PI_DIV_BY_TWO); 
.................... } 
....................  
.................... // Overloaded function sin() for data type - Float48 
.................... float64 sin(float64 x) 
.................... { 
....................    return cos(x - PI_DIV_BY_TWO); 
.................... } 
.................... #endif 
....................  
.................... //////////////////////////////////////////////////////////////////////////// 
.................... //   float tan(float x) 
.................... //////////////////////////////////////////////////////////////////////////// 
.................... // Description : returns the tangent value of the angle x, which is in radian 
.................... // Date : 9/20/2001 
.................... // 
.................... float32 tan(float32 x) 
.................... { 
....................    float32 c, s; 
....................  
....................    c = cos(x); 
....................    if (c == 0.0) 
....................       return (1.0e+36); 
....................  
....................    s = sin(x); 
....................    return(s/c); 
.................... } 
.................... //Overloaded functions for tan() for PCD 
.................... // Overloaded function tan() for data type - Float48 
.................... #if defined(__PCD__) 
.................... float48 tan(float48 x) 
.................... { 
....................    float48 c, s; 
....................  
....................    c = cos(x); 
....................    if (c == 0.0) 
....................       return (1.0e+36); 
....................  
....................    s = sin(x); 
....................    return(s/c); 
.................... } 
....................  
.................... // Overloaded function tan() for data type - Float48 
.................... float64 tan(float64 x) 
.................... { 
....................    float64 c, s; 
....................  
....................    c = cos(x); 
....................    if (c == 0.0) 
....................       return (1.0e+36); 
....................  
....................    s = sin(x); 
....................    return(s/c); 
.................... } 
.................... #endif 
....................  
.................... float32 const pas[3] = {0.49559947, -4.6145309, 5.6036290}; 
.................... float32 const qas[3] = {1.0000000,  -5.5484666, 5.6036290}; 
....................  
.................... float32 ASIN_COS(float32 x, unsigned int8 n) 
.................... { 
....................    float32 y, res, r, y2; 
....................    int1 s; 
....................    #ifdef _ERRNO 
....................    if(x <-1 || x > 1) 
....................    { 
....................       errno=EDOM; 
....................    } 
....................    #endif 
....................    s = 0; 
....................    y = x; 
....................  
....................    if (x < 0) 
....................    { 
....................       s = 1; 
....................       y = -y; 
....................    } 
....................  
....................    if (y > 0.5) 
....................    { 
....................       y = sqrt((1.0 - y)/2.0); 
....................       n += 2; 
....................    } 
....................  
....................    y2=y*y; 
....................  
....................    res = pas[0]*y2 + pas[1]; 
....................    res = res*y2 + pas[2]; 
....................  
....................    r = qas[0]*y2 + qas[1]; 
....................    r = r*y2 + qas[2]; 
....................  
....................    res = y*res/r; 
....................  
....................    if (n & 2)     // |x| > 0.5 
....................       res = PI_DIV_BY_TWO - 2.0*res; 
....................    if (s) 
....................       res = -res; 
....................    if (n & 1)           // take arccos 
....................       res = PI_DIV_BY_TWO - res; 
....................  
....................    return(res); 
.................... } 
....................  
.................... //Overloaded functions for ASIN_COS() for PCD 
.................... // Overloaded function ASIN_COS() for data type - Float48 
.................... #if defined(__PCD__) 
.................... float48 ASIN_COS(float48 x, unsigned int8 n) 
.................... { 
....................    float48 y, res, r, y2; 
....................    int1 s; 
....................    #ifdef _ERRNO 
....................    if(x <-1 || x > 1) 
....................    { 
....................       errno=EDOM; 
....................    } 
....................    #endif 
....................    s = 0; 
....................    y = x; 
....................  
....................    if (x < 0) 
....................    { 
....................       s = 1; 
....................       y = -y; 
....................    } 
....................  
....................    if (y > 0.5) 
....................    { 
....................       y = sqrt((1.0 - y)/2.0); 
....................       n += 2; 
....................    } 
....................  
....................    y2=y*y; 
....................  
....................    res = pas[0]*y2 + pas[1]; 
....................    res = res*y2 + pas[2]; 
....................  
....................    r = qas[0]*y2 + qas[1]; 
....................    r = r*y2 + qas[2]; 
....................  
....................    res = y*res/r; 
....................  
....................    if (n & 2)     // |x| > 0.5 
....................       res = PI_DIV_BY_TWO - 2.0*res; 
....................    if (s) 
....................       res = -res; 
....................    if (n & 1)           // take arccos 
....................       res = PI_DIV_BY_TWO - res; 
....................  
....................    return(res); 
.................... } 
....................  
.................... // Overloaded function ASIN_COS() for data type - Float64 
.................... float64 ASIN_COS(float64 x, unsigned int8 n) 
.................... { 
....................    float64 y, res, r, y2; 
....................    int1 s; 
....................    #ifdef _ERRNO 
....................    if(x <-1 || x > 1) 
....................    { 
....................       errno=EDOM; 
....................    } 
....................    #endif 
....................    s = 0; 
....................    y = x; 
....................  
....................    if (x < 0) 
....................    { 
....................       s = 1; 
....................       y = -y; 
....................    } 
....................  
....................    if (y > 0.5) 
....................    { 
....................       y = sqrt((1.0 - y)/2.0); 
....................       n += 2; 
....................    } 
....................  
....................    y2=y*y; 
....................  
....................    res = pas[0]*y2 + pas[1]; 
....................    res = res*y2 + pas[2]; 
....................  
....................    r = qas[0]*y2 + qas[1]; 
....................    r = r*y2 + qas[2]; 
....................  
....................    res = y*res/r; 
....................  
....................    if (n & 2)     // |x| > 0.5 
....................       res = PI_DIV_BY_TWO - 2.0*res; 
....................    if (s) 
....................       res = -res; 
....................    if (n & 1)           // take arccos 
....................       res = PI_DIV_BY_TWO - res; 
....................  
....................    return(res); 
.................... } 
.................... #endif 
....................  
.................... //////////////////////////////////////////////////////////////////////////// 
.................... //   float asin(float x) 
.................... //////////////////////////////////////////////////////////////////////////// 
.................... // Description : returns the arcsine value of the value x. 
.................... // Date : N/A 
.................... // 
.................... float32 asin(float32 x) 
.................... { 
....................    float32 r; 
....................  
....................    r = ASIN_COS(x, 0); 
....................    return(r); 
.................... } 
.................... //Overloaded functions for asin() for PCD 
.................... // Overloaded function asin() for data type - Float48 
.................... #if defined(__PCD__) 
.................... float48 asin(float48 x) 
.................... { 
....................    float48 r; 
....................  
....................    r = ASIN_COS(x, 0); 
....................    return(r); 
.................... } 
....................  
.................... // Overloaded function asin() for data type - Float64 
.................... float64 asin(float64 x) 
.................... { 
....................    float64 r; 
....................  
....................    r = ASIN_COS(x, 0); 
....................    return(r); 
.................... } 
.................... #endif 
....................  
.................... //////////////////////////////////////////////////////////////////////////// 
.................... //   float acos(float x) 
.................... //////////////////////////////////////////////////////////////////////////// 
.................... // Description : returns the arccosine value of the value x. 
.................... // Date : N/A 
.................... // 
.................... float32 acos(float32 x) 
.................... { 
....................    float32 r; 
....................  
....................    r = ASIN_COS(x, 1); 
....................    return(r); 
.................... } 
.................... //Overloaded functions for acos() for PCD 
.................... // Overloaded function acos() for data type - Float48 
.................... #if defined(__PCD__) 
.................... float48 acos(float48 x) 
.................... { 
....................    float48 r; 
....................  
....................    r = ASIN_COS(x, 1); 
....................    return(r); 
.................... } 
....................  
.................... // Overloaded function acos() for data type - Float64 
.................... float64 acos(float64 x) 
.................... { 
....................    float64 r; 
....................  
....................    r = ASIN_COS(x, 1); 
....................    return(r); 
.................... } 
.................... #endif 
....................  
.................... float32 const pat[4] = {0.17630401, 5.6710795, 22.376096, 19.818457}; 
.................... float32 const qat[4] = {1.0000000,  11.368190, 28.982246, 19.818457}; 
....................  
.................... //////////////////////////////////////////////////////////////////////////// 
.................... //   float atan(float x) 
.................... //////////////////////////////////////////////////////////////////////////// 
.................... // Description : returns the arctangent value of the value x. 
.................... // Date : N/A 
.................... // 
.................... float32 atan(float32 x) 
.................... { 
....................    float32 y, res, r; 
....................    int1 s, flag; 
....................  
....................    s = 0; 
....................    flag = 0; 
....................    y = x; 
....................  
....................    if (x < 0) 
....................    { 
....................       s = 1; 
....................       y = -y; 
....................    } 
....................  
....................    if (y > 1.0) 
....................    { 
....................       y = 1.0/y; 
....................       flag = 1; 
....................    } 
....................  
....................    res = pat[0]*y*y + pat[1]; 
....................    res = res*y*y + pat[2]; 
....................    res = res*y*y + pat[3]; 
....................  
....................    r = qat[0]*y*y + qat[1]; 
....................    r = r*y*y + qat[2]; 
....................    r = r*y*y + qat[3]; 
....................  
....................    res = y*res/r; 
....................  
....................  
....................    if (flag)                              // for |x| > 1 
....................       res = PI_DIV_BY_TWO - res; 
....................    if (s) 
....................       res = -res; 
....................  
....................    return(res); 
.................... } 
.................... //Overloaded functions for atan() for PCD 
.................... // Overloaded function atan() for data type - Float48 
.................... #if defined(__PCD__) 
.................... float48 atan(float48 x) 
.................... { 
....................    float48 y, res, r; 
....................    int1 s, flag; 
....................  
....................    s = 0; 
....................    flag = 0; 
....................    y = x; 
....................  
....................    if (x < 0) 
....................    { 
....................       s = 1; 
....................       y = -y; 
....................    } 
....................  
....................    if (y > 1.0) 
....................    { 
....................       y = 1.0/y; 
....................       flag = 1; 
....................    } 
....................  
....................    res = pat[0]*y*y + pat[1]; 
....................    res = res*y*y + pat[2]; 
....................    res = res*y*y + pat[3]; 
....................  
....................    r = qat[0]*y*y + qat[1]; 
....................    r = r*y*y + qat[2]; 
....................    r = r*y*y + qat[3]; 
....................  
....................    res = y*res/r; 
....................  
....................  
....................    if (flag)                              // for |x| > 1 
....................       res = PI_DIV_BY_TWO - res; 
....................    if (s) 
....................       res = -res; 
....................  
....................    return(res); 
.................... } 
....................  
.................... // Overloaded function atan() for data type - Float64 
.................... float64 atan(float64 x) 
.................... { 
....................    float64 y, res, r; 
....................    int1 s, flag; 
....................  
....................    s = 0; 
....................    flag = 0; 
....................    y = x; 
....................  
....................    if (x < 0) 
....................    { 
....................       s = 1; 
....................       y = -y; 
....................    } 
....................  
....................    if (y > 1.0) 
....................    { 
....................       y = 1.0/y; 
....................       flag = 1; 
....................    } 
....................  
....................    res = pat[0]*y*y + pat[1]; 
....................    res = res*y*y + pat[2]; 
....................    res = res*y*y + pat[3]; 
....................  
....................    r = qat[0]*y*y + qat[1]; 
....................    r = r*y*y + qat[2]; 
....................    r = r*y*y + qat[3]; 
....................  
....................    res = y*res/r; 
....................  
....................  
....................    if (flag)                              // for |x| > 1 
....................       res = PI_DIV_BY_TWO - res; 
....................    if (s) 
....................       res = -res; 
....................  
....................    return(res); 
.................... } 
.................... #endif 
....................  
.................... ///////////////////////////////////////////////////////////////////////////// 
.................... //   float atan2(float y, float x) 
.................... ///////////////////////////////////////////////////////////////////////////// 
.................... // Description :computes the principal value of arc tangent of y/x, using the 
.................... // signs of both the arguments to determine the quadrant of the return value 
.................... // Returns : returns the arc tangent of y/x. 
.................... // Date : N/A 
.................... // 
....................  
.................... float32 atan2(float32 y,float32 x) 
.................... { 
....................    float32 z; 
....................    int1 sign; 
....................    unsigned int8 quad; 
....................    sign=0; 
....................    quad=0; //quadrant 
....................    quad=((y<=0.0)?((x<=0.0)?3:4):((x<0.0)?2:1)); 
....................    if(y<0.0) 
....................    { 
....................       sign=1; 
....................       y=-y; 
....................    } 
....................    if(x<0.0) 
....................    { 
....................       x=-x; 
....................    } 
....................    if (x==0.0) 
....................    { 
....................       if(y==0.0) 
....................       { 
....................       #ifdef _ERRNO 
....................       { 
....................          errno=EDOM; 
....................       } 
....................       #endif 
....................       } 
....................       else 
....................       { 
....................          if(sign) 
....................          { 
....................          return (-(PI_DIV_BY_TWO)); 
....................          } 
....................          else 
....................          { 
....................          return (PI_DIV_BY_TWO); 
....................          } 
....................       } 
....................    } 
....................    else 
....................    { 
....................       z=y/x; 
....................       switch(quad) 
....................       { 
....................          case 1: 
....................          { 
....................             return atan(z); 
....................             break; 
....................          } 
....................          case 2: 
....................          { 
.................... //            return (atan(z)+PI_DIV_BY_TWO);  //2L3122 
....................             return (PI-atan(z)); 
....................             break; 
....................          } 
....................          case 3: 
....................          { 
....................             return (atan(z)-PI); 
....................             break; 
....................          } 
....................          case 4: 
....................          { 
....................             return (-atan(z)); 
....................             break; 
....................          } 
....................       } 
....................    } 
.................... } 
....................  
.................... //Overloaded functions for atan2() for PCD 
.................... // Overloaded function atan2() for data type - Float48 
.................... #if defined(__PCD__) 
.................... float48 atan2(float48 y,float48 x) 
.................... { 
....................    float48 z; 
....................    int1 sign; 
....................    unsigned int8 quad; 
....................    sign=0; 
....................    quad=0; //quadrant 
....................    quad=((y<=0.0)?((x<=0.0)?3:4):((x<0.0)?2:1)); 
....................    if(y<0.0) 
....................    { 
....................       sign=1; 
....................       y=-y; 
....................    } 
....................    if(x<0.0) 
....................    { 
....................       x=-x; 
....................    } 
....................    if (x==0.0) 
....................    { 
....................       if(y==0.0) 
....................       { 
....................       #ifdef _ERRNO 
....................       { 
....................          errno=EDOM; 
....................       } 
....................       #endif 
....................       } 
....................       else 
....................       { 
....................          if(sign) 
....................          { 
....................          return (-(PI_DIV_BY_TWO)); 
....................          } 
....................          else 
....................          { 
....................          return (PI_DIV_BY_TWO); 
....................          } 
....................       } 
....................    } 
....................    else 
....................    { 
....................       z=y/x; 
....................       switch(quad) 
....................       { 
....................          case 1: 
....................          { 
....................             return atan(z); 
....................             break; 
....................          } 
....................          case 2: 
....................          { 
.................... //            return (atan(z)+PI_DIV_BY_TWO);  //2L3122 
....................             return (PI-atan(z)); 
....................             break; 
....................          } 
....................          case 3: 
....................          { 
....................             return (atan(z)-PI); 
....................             break; 
....................          } 
....................          case 4: 
....................          { 
....................             return (-atan(z)); 
....................             break; 
....................          } 
....................       } 
....................    } 
.................... } 
....................  
.................... // Overloaded function atan2() for data type - Float64 
.................... float64 atan2(float64 y,float64 x) 
.................... { 
....................    float64 z; 
....................    int1 sign; 
....................    unsigned int8 quad; 
....................    sign=0; 
....................    quad=0; //quadrant 
....................    quad=((y<=0.0)?((x<=0.0)?3:4):((x<0.0)?2:1)); 
....................    if(y<0.0) 
....................    { 
....................       sign=1; 
....................       y=-y; 
....................    } 
....................    if(x<0.0) 
....................    { 
....................       x=-x; 
....................    } 
....................    if (x==0.0) 
....................    { 
....................       if(y==0.0) 
....................       { 
....................       #ifdef _ERRNO 
....................       { 
....................          errno=EDOM; 
....................       } 
....................       #endif 
....................       } 
....................       else 
....................       { 
....................          if(sign) 
....................          { 
....................          return (-(PI_DIV_BY_TWO)); 
....................          } 
....................          else 
....................          { 
....................          return (PI_DIV_BY_TWO); 
....................          } 
....................       } 
....................    } 
....................    else 
....................    { 
....................       z=y/x; 
....................       switch(quad) 
....................       { 
....................          case 1: 
....................          { 
....................             return atan(z); 
....................             break; 
....................          } 
....................          case 2: 
....................          { 
.................... //            return (atan(z)+PI_DIV_BY_TWO);  //2L3122 
....................             return (PI-atan(z)); 
....................             break; 
....................          } 
....................          case 3: 
....................          { 
....................             return (atan(z)-PI); 
....................             break; 
....................          } 
....................          case 4: 
....................          { 
....................             return (-atan(z)); 
....................             break; 
....................          } 
....................       } 
....................    } 
.................... } 
.................... #endif 
....................  
.................... //////////////////// Hyperbolic functions //////////////////// 
....................  
.................... //////////////////////////////////////////////////////////////////////////// 
.................... //   float cosh(float x) 
.................... //////////////////////////////////////////////////////////////////////////// 
.................... // Description : Computes the hyperbolic cosine value of x 
.................... // Returns : returns the hyperbolic cosine value of x 
.................... // Date : N/A 
.................... // 
....................  
.................... float32 cosh(float32 x) 
.................... { 
....................    return ((exp(x)+exp(-x))/2); 
.................... } 
.................... //Overloaded functions for cosh() for PCD 
.................... // Overloaded function cosh() for data type - Float48 
.................... #if defined(__PCD__) 
.................... float48 cosh(float48 x) 
.................... { 
....................    return ((exp(x)+exp(-x))/2); 
.................... } 
....................  
.................... // Overloaded function cosh() for data type - Float64 
.................... float64 cosh(float64 x) 
.................... { 
....................    return ((exp(x)+exp(-x))/2); 
.................... } 
.................... #endif 
....................  
.................... //////////////////////////////////////////////////////////////////////////// 
.................... //   float sinh(float x) 
.................... //////////////////////////////////////////////////////////////////////////// 
.................... // Description : Computes the hyperbolic sine value of x 
.................... // Returns : returns the hyperbolic sine value of x 
.................... // Date : N/A 
.................... // 
....................  
.................... float32 sinh(float32 x) 
.................... { 
....................  
....................    return ((exp(x) - exp(-x))/2); 
.................... } 
.................... //Overloaded functions for sinh() for PCD 
.................... // Overloaded function sinh() for data type - Float48 
.................... #if defined(__PCD__) 
.................... float48 sinh(float48 x) 
.................... { 
....................  
....................    return ((exp(x) - exp(-x))/2); 
.................... } 
....................  
.................... // Overloaded function sinh() for data type - Float48 
.................... float64 sinh(float64 x) 
.................... { 
....................  
....................    return ((exp(x) - exp(-x))/2); 
.................... } 
.................... #endif 
....................  
.................... //////////////////////////////////////////////////////////////////////////// 
.................... //   float tanh(float x) 
.................... //////////////////////////////////////////////////////////////////////////// 
.................... // Description : Computes the hyperbolic tangent value of x 
.................... // Returns : returns the hyperbolic tangent value of x 
.................... // Date : N/A 
.................... // 
....................  
.................... float32 tanh(float32 x) 
.................... { 
....................    return(sinh(x)/cosh(x)); 
.................... } 
.................... //Overloaded functions for tanh() for PCD 
.................... // Overloaded function tanh() for data type - Float48 
.................... #if defined(__PCD__) 
.................... float48 tanh(float48 x) 
.................... { 
....................    return(sinh(x)/cosh(x)); 
.................... } 
....................  
.................... // Overloaded function tanh() for data type - Float64 
.................... float64 tanh(float64 x) 
.................... { 
....................    return(sinh(x)/cosh(x)); 
.................... } 
.................... #endif 
....................  
.................... //////////////////////////////////////////////////////////////////////////// 
.................... //   float frexp(float x, signed int *exp) 
.................... //////////////////////////////////////////////////////////////////////////// 
.................... // Description : breaks a floating point number into a normalized fraction and an integral 
.................... // power of 2. It stores the integer in the signed int object pointed to by exp. 
.................... // Returns : returns the value x, such that x is a double with magnitude in the interval 
.................... // [1/2,1) or zero, and value equals x times 2 raised to the power *exp.If value is zero, 
.................... // both parts of the result are zero. 
.................... // Date : N/A 
.................... // 
....................  
.................... #define LOG2 .30102999566398119521 
.................... float32 frexp(float32 x, signed int8 *exp) 
.................... { 
....................    float32 res; 
....................    int1 sign = 0; 
....................    if(x == 0.0) 
....................    { 
....................       *exp=0; 
....................       return (0.0); 
....................    } 
....................    if(x < 0.0) 
....................    { 
....................      x=-x; 
....................      sign=1; 
....................    } 
....................    if (x > 1.0) 
....................    { 
....................       *exp=(ceil(log10(x)/LOG2)); 
....................       res=x/(pow(2, *exp)); 
....................       if (res == 1) 
....................       { 
....................          *exp=*exp+1; 
....................           res=.5; 
....................       } 
....................    } 
....................    else 
....................    { 
....................       if(x < 0.5) 
....................       { 
....................          *exp=-1; 
....................          res=x*2; 
....................       } 
....................       else 
....................       { 
....................          *exp=0; 
....................           res=x; 
....................       } 
....................    } 
....................    if(sign) 
....................    { 
....................       res=-res; 
....................    } 
....................    return res; 
.................... } 
....................  
.................... //Overloaded functions for frexp() for PCD 
.................... // Overloaded function frexp() for data type - Float48 
.................... #if defined(__PCD__) 
.................... float48 frexp(float48 x, signed int8 *exp) 
.................... { 
....................    float48 res; 
....................    int1 sign = 0; 
....................    if(x == 0.0) 
....................    { 
....................       *exp=0; 
....................       return (0.0); 
....................    } 
....................    if(x < 0.0) 
....................    { 
....................      x=-x; 
....................      sign=1; 
....................    } 
....................    if (x > 1.0) 
....................    { 
....................       *exp=(ceil(log10(x)/LOG2)); 
....................       res=x/(pow(2, *exp)); 
....................       if (res == 1) 
....................       { 
....................          *exp=*exp+1; 
....................           res=.5; 
....................       } 
....................    } 
....................    else 
....................    { 
....................       if(x < 0.5) 
....................       { 
....................          *exp=-1; 
....................          res=x*2; 
....................       } 
....................       else 
....................       { 
....................          *exp=0; 
....................           res=x; 
....................       } 
....................    } 
....................    if(sign) 
....................    { 
....................       res=-res; 
....................    } 
....................    return res; 
.................... } 
....................  
.................... // Overloaded function frexp() for data type - Float64 
.................... float64 frexp(float64 x, signed int8 *exp) 
.................... { 
....................    float64 res; 
....................    int1 sign = 0; 
....................    if(x == 0.0) 
....................    { 
....................       *exp=0; 
....................       return (0.0); 
....................    } 
....................    if(x < 0.0) 
....................    { 
....................      x=-x; 
....................      sign=1; 
....................    } 
....................    if (x > 1.0) 
....................    { 
....................       *exp=(ceil(log10(x)/LOG2)); 
....................       res=x/(pow(2, *exp)); 
....................       if (res == 1) 
....................       { 
....................          *exp=*exp+1; 
....................           res=.5; 
....................       } 
....................    } 
....................    else 
....................    { 
....................       if(x < 0.5) 
....................       { 
....................          *exp=-1; 
....................          res=x*2; 
....................       } 
....................       else 
....................       { 
....................          *exp=0; 
....................           res=x; 
....................       } 
....................    } 
....................    if(sign) 
....................    { 
....................       res=-res; 
....................    } 
....................    return res; 
.................... } 
.................... #endif 
....................  
.................... ////////////////////////////////////////////////////////////////////////////// 
.................... //   float ldexp(float x, signed int *exp) 
.................... ////////////////////////////////////////////////////////////////////////////// 
.................... // Description : multiplies a floating point number by an integral power of 2. 
.................... // Returns : returns the value of x times 2 raised to the power exp. 
.................... // Date : N/A 
.................... // 
....................  
.................... float32 ldexp(float32 value, signed int8 exp) 
.................... { 
....................    return (value * pow(2,exp)); 
.................... } 
.................... //Overloaded functions for ldexp() for PCD 
.................... // Overloaded function ldexp() for data type - Float48 
....................  
.................... #if defined(__PCD__) 
.................... float48 ldexp(float48 value, signed int8 exp) 
.................... { 
....................    return (value * pow(2,exp)); 
.................... } 
.................... // Overloaded function ldexp() for data type - Float64 
.................... float64 ldexp(float64 value, signed int8 exp) 
.................... { 
....................    return (value * pow(2,exp)); 
.................... } 
.................... #endif 
....................  
.................... #endif 
....................  
.................... #include "HDM64GS12.c" 
.................... ///////////////////////////////////////////////////////////////////////// 
.................... ////                           HDM64GS12.c                           //// 
.................... ////                                                                 //// 
.................... //// This file contains drivers for using a Hantronix HDM64GS12 with //// 
.................... //// a KS0108 display controller. The HDM64GS12 is 128 by 64 pixels. //// 
.................... //// The driver treats the upper left pixel as (0,0).                //// 
.................... ////                                                                 //// 
.................... //// Use #define FAST_GLCD if the target chip has at least 1k of RAM //// 
.................... //// to decrease the time it takes to update the display.            //// 
.................... //// glcd_update() must then be called to update the display after   //// 
.................... //// changing the pixel information.                                 //// 
.................... //// See ex_glcd.c for suggested usage.                              //// 
.................... //// See KS0108.c for controlling a single 64 by 64 display          //// 
.................... ///////////////////////////////////////////////////////////////////////// 
.................... ////                                                                 //// 
.................... //// LCD Pin connections:                                            //// 
.................... //// (These can be changed as needed in the following defines).      //// 
.................... ////  * 1: VSS is connected to GND                                   //// 
.................... ////  * 2: VDD is connected to +5V                                   //// 
.................... ////  * 3: V0  - LCD operating voltage (Constrast adjustment)        //// 
.................... ////  * 4: D/I - Data or Instruction is connected to B2              //// 
.................... ////  * 5: R/W - Read or Write is connected to B4                    //// 
.................... ////  * 6: Enable is connected to B5                                 //// 
.................... ////  *7-14: Data Bus 0 to 7 is connected to port d                  //// 
.................... ////  *15: Chip Select 1 is connected to B0                          //// 
.................... ////  *16: Chip Select 2 is connected to B1                          //// 
.................... ////  *17: Reset is connected to C0                                  //// 
.................... ////  *18: Negative voltage is also connected to the 20k Ohm POT     //// 
.................... ////  *19: Positive voltage for LED backlight is connected to +5V    //// 
.................... ////  *20: Negavtive voltage for LED backlight is connected to GND   //// 
.................... ////                                                                 //// 
.................... ///////////////////////////////////////////////////////////////////////// 
.................... ////                                                                 //// 
.................... ////  glcd_init(mode)                                                //// 
.................... ////     * Must be called before any other function.                 //// 
.................... ////       - mode can be ON or OFF to turn the LCD on or off         //// 
.................... ////                                                                 //// 
.................... ////  glcd_pixel(x,y,color)                                          //// 
.................... ////     * Sets the pixel to the given color.                        //// 
.................... ////       - color can be ON or OFF                                  //// 
.................... ////                                                                 //// 
.................... ////  glcd_fillScreen(color)                                         //// 
.................... ////     * Fills the entire LCD with the given color.                //// 
.................... ////       - color can be ON or OFF                                  //// 
.................... ////                                                                 //// 
.................... ////  glcd_update()                                                  //// 
.................... ////     * Write the display data stored in RAM to the LCD           //// 
.................... ////     * Only available if FAST_GLCD is defined                    //// 
.................... ////                                                                 //// 
.................... ///////////////////////////////////////////////////////////////////////// 
.................... ////        (C) Copyright 1996, 2004 Custom Computer Services        //// 
.................... //// This source code may only be used by licensed users of the CCS  //// 
.................... //// C compiler.  This source code may only be distributed to other  //// 
.................... //// licensed users of the CCS C compiler.  No other use,            //// 
.................... //// reproduction or distribution is permitted without written       //// 
.................... //// permission.  Derivative programs created using this software    //// 
.................... //// in object code form are not restricted in any way.              //// 
.................... ///////////////////////////////////////////////////////////////////////// 
....................  
....................  
....................  
.................... #ifndef HDM64GS12 
.................... #define HDM64GS12 
....................  
.................... #ifndef FAST_GLCD 
.................... #define FAST_GLCD 
....................  
.................... #ifndef GLCD_WIDTH 
.................... #define GLCD_WIDTH   128 
.................... #endif 
....................  
.................... #ifndef GLCD_CS1 
.................... #define GLCD_CS1     PIN_B2   // Chip Selection 1 
.................... #endif 
....................  
.................... #ifndef GLCD_CS2 
.................... #define GLCD_CS2     PIN_B3   // Chip Selection 2 
.................... #endif 
....................  
.................... #ifndef GLCD_DI 
.................... #define GLCD_DI      PIN_B5   // Data or Instruction input 
.................... #endif 
....................  
.................... #ifndef GLCD_RW 
.................... #define GLCD_RW      PIN_B6   // Read/Write 
.................... #endif 
....................  
.................... #ifndef GLCD_E 
.................... #define GLCD_E       PIN_B7   // Enable 
.................... #endif 
....................  
.................... #ifndef GLCD_RST 
.................... #define GLCD_RST     PIN_B4   // Reset 
.................... #endif 
....................  
.................... #define GLCD_LEFT    0 
.................... #define GLCD_RIGHT   1 
....................  
.................... #ifndef ON 
.................... #define ON           1 
.................... #endif 
....................  
.................... #ifndef OFF 
.................... #define OFF          0 
.................... #endif 
....................  
.................... ///////////////////////////////////////////////////////////////////////// 
.................... // Function Prototypes 
.................... ///////////////////////////////////////////////////////////////////////// 
.................... void glcd_init(int1 mode); 
.................... void glcd_pixel(int8 x, int8 y, int1 color); 
.................... void glcd_fillScreen(int1 color); 
.................... void glcd_writeByte(int1 side, BYTE data); 
.................... BYTE glcd_readByte(int1 side); 
.................... void glcd_update(); 
.................... ///////////////////////////////////////////////////////////////////////// 
....................  
.................... #ifdef FAST_GLCD 
.................... struct 
.................... { 
....................    int8 left[512]; 
....................    int8 right[512]; 
.................... } displayData; 
.................... #endif 
....................  
....................  
.................... // Purpose:       Initialize the LCD. 
.................... //                Call before using any other LCD function. 
.................... // Inputs:        OFF - Turns the LCD off 
.................... //                ON  - Turns the LCD on 
.................... void glcd_init(int1 mode) 
.................... { 
....................    // Initialze some pins 
....................    output_high(GLCD_RST); 
*
0155A:  BCF    F93.4
0155C:  BSF    F8A.4
....................    output_low(GLCD_E); 
0155E:  BCF    F93.7
01560:  BCF    F8A.7
....................    output_low(GLCD_CS1); 
01562:  BCF    F93.2
01564:  BCF    F8A.2
....................    output_low(GLCD_CS2); 
01566:  BCF    F93.3
01568:  BCF    F8A.3
....................  
....................    output_low(GLCD_DI);                 // Set for instruction 
0156A:  BCF    F93.5
0156C:  BCF    F8A.5
....................    glcd_writeByte(GLCD_LEFT,  0xC0);    // Specify first RAM line at the top 
0156E:  MOVLB  5
01570:  CLRF   xDC
01572:  MOVLW  C0
01574:  MOVWF  xDD
01576:  MOVLB  0
01578:  RCALL  1412
....................    glcd_writeByte(GLCD_RIGHT, 0xC0);    //   of the screen 
0157A:  MOVLW  01
0157C:  MOVLB  5
0157E:  MOVWF  xDC
01580:  MOVLW  C0
01582:  MOVWF  xDD
01584:  MOVLB  0
01586:  RCALL  1412
....................    glcd_writeByte(GLCD_LEFT,  0x40);    // Set the column address to 0 
01588:  MOVLB  5
0158A:  CLRF   xDC
0158C:  MOVLW  40
0158E:  MOVWF  xDD
01590:  MOVLB  0
01592:  RCALL  1412
....................    glcd_writeByte(GLCD_RIGHT, 0x40); 
01594:  MOVLW  01
01596:  MOVLB  5
01598:  MOVWF  xDC
0159A:  MOVLW  40
0159C:  MOVWF  xDD
0159E:  MOVLB  0
015A0:  RCALL  1412
....................    glcd_writeByte(GLCD_LEFT,  0xB8);    // Set the page address to 0 
015A2:  MOVLB  5
015A4:  CLRF   xDC
015A6:  MOVLW  B8
015A8:  MOVWF  xDD
015AA:  MOVLB  0
015AC:  RCALL  1412
....................    glcd_writeByte(GLCD_RIGHT, 0xB8); 
015AE:  MOVLW  01
015B0:  MOVLB  5
015B2:  MOVWF  xDC
015B4:  MOVLW  B8
015B6:  MOVWF  xDD
015B8:  MOVLB  0
015BA:  RCALL  1412
....................  
....................    if(mode == ON) 
015BC:  MOVLB  5
015BE:  DECFSZ xCD,W
015C0:  BRA    15DE
....................    { 
....................       glcd_writeByte(GLCD_LEFT,  0x3F); // Turn the display on 
015C2:  CLRF   xDC
015C4:  MOVLW  3F
015C6:  MOVWF  xDD
015C8:  MOVLB  0
015CA:  RCALL  1412
....................       glcd_writeByte(GLCD_RIGHT, 0x3F); 
015CC:  MOVLW  01
015CE:  MOVLB  5
015D0:  MOVWF  xDC
015D2:  MOVLW  3F
015D4:  MOVWF  xDD
015D6:  MOVLB  0
015D8:  RCALL  1412
....................    } 
....................    else 
015DA:  BRA    15F6
015DC:  MOVLB  5
....................    { 
....................       glcd_writeByte(GLCD_LEFT,  0x3E); // Turn the display off 
015DE:  CLRF   xDC
015E0:  MOVLW  3E
015E2:  MOVWF  xDD
015E4:  MOVLB  0
015E6:  RCALL  1412
....................       glcd_writeByte(GLCD_RIGHT, 0x3E); 
015E8:  MOVLW  01
015EA:  MOVLB  5
015EC:  MOVWF  xDC
015EE:  MOVLW  3E
015F0:  MOVWF  xDD
015F2:  MOVLB  0
015F4:  RCALL  1412
....................    } 
....................  
....................    glcd_fillScreen(OFF);                // Clear the display 
015F6:  MOVLB  5
015F8:  CLRF   xD5
015FA:  MOVLB  0
015FC:  RCALL  1448
....................  
....................    #ifdef FAST_GLCD 
....................    glcd_update(); 
015FE:  RCALL  14A2
....................    #endif 
.................... } 
01600:  RETLW  00
....................  
....................  
.................... // Purpose:    Update the LCD with data from the display arrays 
.................... #ifdef FAST_GLCD 
.................... void glcd_update() 
.................... { 
....................    int8 i, j; 
....................    int8 *p1, *p2; 
....................  
....................    p1 = displayData.left; 
*
014A2:  MOVLB  5
014A4:  CLRF   xD8
014A6:  MOVLW  17
014A8:  MOVWF  xD7
....................    p2 = displayData.right; 
014AA:  MOVLW  02
014AC:  MOVWF  xDA
014AE:  MOVLW  17
014B0:  MOVWF  xD9
....................  
....................    // Loop through the vertical pages 
....................    for(i = 0; i < 8; ++i) 
014B2:  CLRF   xD5
014B4:  MOVF   xD5,W
014B6:  SUBLW  07
014B8:  BNC   1556
....................    { 
....................       output_low(GLCD_DI);                      // Set for instruction 
014BA:  BCF    F93.5
014BC:  BCF    F8A.5
....................       glcd_writeByte(GLCD_LEFT, 0x40);          // Set horizontal address to 0 
014BE:  CLRF   xDC
014C0:  MOVLW  40
014C2:  MOVWF  xDD
014C4:  MOVLB  0
014C6:  RCALL  1412
....................       glcd_writeByte(GLCD_RIGHT, 0x40); 
014C8:  MOVLW  01
014CA:  MOVLB  5
014CC:  MOVWF  xDC
014CE:  MOVLW  40
014D0:  MOVWF  xDD
014D2:  MOVLB  0
014D4:  RCALL  1412
....................       glcd_writeByte(GLCD_LEFT, i | 0xB8);      // Set page address 
014D6:  MOVLB  5
014D8:  MOVF   xD5,W
014DA:  IORLW  B8
014DC:  MOVWF  xDB
014DE:  CLRF   xDC
014E0:  MOVWF  xDD
014E2:  MOVLB  0
014E4:  RCALL  1412
....................       glcd_writeByte(GLCD_RIGHT, i | 0xB8); 
014E6:  MOVLB  5
014E8:  MOVF   xD5,W
014EA:  IORLW  B8
014EC:  MOVWF  xDB
014EE:  MOVLW  01
014F0:  MOVWF  xDC
014F2:  MOVFF  5DB,5DD
014F6:  MOVLB  0
014F8:  RCALL  1412
....................       output_high(GLCD_DI);                     // Set for data 
014FA:  BCF    F93.5
014FC:  BSF    F8A.5
....................  
....................       // Loop through the horizontal sections 
....................       for(j = 0; j < 64; ++j) 
014FE:  MOVLB  5
01500:  CLRF   xD6
01502:  MOVF   xD6,W
01504:  SUBLW  3F
01506:  BNC   1552
....................       { 
....................          glcd_writeByte(GLCD_LEFT, *p1++);      // Turn pixels on or off 
01508:  MOVFF  5D8,03
0150C:  MOVF   xD7,W
0150E:  INCF   xD7,F
01510:  BTFSC  FD8.2
01512:  INCF   xD8,F
01514:  MOVWF  FE9
01516:  MOVFF  03,FEA
0151A:  MOVFF  FEF,5DB
0151E:  CLRF   xDC
01520:  MOVFF  5DB,5DD
01524:  MOVLB  0
01526:  RCALL  1412
....................          glcd_writeByte(GLCD_RIGHT, *p2++);     // Turn pixels on or off 
01528:  MOVLB  5
0152A:  MOVFF  5DA,03
0152E:  MOVF   xD9,W
01530:  INCF   xD9,F
01532:  BTFSC  FD8.2
01534:  INCF   xDA,F
01536:  MOVWF  FE9
01538:  MOVFF  03,FEA
0153C:  MOVFF  FEF,5DB
01540:  MOVLW  01
01542:  MOVWF  xDC
01544:  MOVFF  5DB,5DD
01548:  MOVLB  0
0154A:  RCALL  1412
....................       } 
0154C:  MOVLB  5
0154E:  INCF   xD6,F
01550:  BRA    1502
....................    } 
01552:  INCF   xD5,F
01554:  BRA    14B4
.................... } 
01556:  MOVLB  0
01558:  RETLW  00
.................... #endif 
....................  
....................  
.................... // Purpose:    Turn a pixel on a graphic LCD on or off 
.................... // Inputs:     1) x - the x coordinate of the pixel 
.................... //             2) y - the y coordinate of the pixel 
.................... //             3) color - ON or OFF 
.................... void glcd_pixel(int8 x, int8 y, int1 color) 
.................... #ifdef FAST_GLCD 
.................... { 
....................    int8* p; 
....................    int16 temp; 
....................    temp =  y/8; 
*
01602:  MOVLB  6
01604:  CLRF   x07
01606:  RRCF   x02,W
01608:  MOVWF  x06
0160A:  RRCF   x06,F
0160C:  RRCF   x06,F
0160E:  MOVLW  1F
01610:  ANDWF  x06,F
....................    temp *= 64; 
01612:  RLCF   x06,F
01614:  RLCF   x07,F
01616:  RLCF   x06,F
01618:  RLCF   x07,F
0161A:  RLCF   x06,F
0161C:  RLCF   x07,F
0161E:  RLCF   x06,F
01620:  RLCF   x07,F
01622:  RLCF   x06,F
01624:  RLCF   x07,F
01626:  RLCF   x06,F
01628:  RLCF   x07,F
0162A:  MOVLW  C0
0162C:  ANDWF  x06,F
....................    temp += x; 
0162E:  MOVF   x01,W
01630:  ADDWF  x06,F
01632:  MOVLW  00
01634:  ADDWFC x07,F
....................  
....................    if(x > 63) 
01636:  MOVF   x01,W
01638:  SUBLW  3F
0163A:  BC    1656
....................    { 
....................       p = displayData.right + temp - 64; 
0163C:  MOVLW  17
0163E:  ADDWF  x06,W
01640:  MOVWF  x08
01642:  MOVLW  02
01644:  ADDWFC x07,W
01646:  MOVWF  x09
01648:  MOVLW  40
0164A:  SUBWF  x08,W
0164C:  MOVWF  x04
0164E:  MOVLW  00
01650:  SUBWFB x09,W
01652:  MOVWF  x05
....................    } 
....................    else 
01654:  BRA    1662
....................    { 
....................       p = displayData.left + temp; 
01656:  MOVLW  17
01658:  ADDWF  x06,W
0165A:  MOVWF  x04
0165C:  MOVLW  00
0165E:  ADDWFC x07,W
01660:  MOVWF  x05
....................    } 
....................  
....................    if(color) 
01662:  MOVF   x03,F
01664:  BZ    1690
....................    { 
....................       bit_set(*p, y%8); 
01666:  MOVFF  605,03
0166A:  MOVFF  604,FE9
0166E:  MOVFF  605,FEA
01672:  MOVF   x02,W
01674:  ANDLW  07
01676:  MOVWF  x08
01678:  MOVLW  01
0167A:  MOVWF  00
0167C:  MOVF   x08,W
0167E:  MOVWF  01
01680:  BZ    168A
01682:  BCF    FD8.0
01684:  RLCF   00,F
01686:  DECFSZ 01,F
01688:  BRA    1682
0168A:  MOVF   00,W
0168C:  IORWF  FEF,F
....................    } 
....................    else 
0168E:  BRA    16BA
....................    { 
....................       bit_clear(*p, y%8); 
01690:  MOVFF  605,03
01694:  MOVFF  604,FE9
01698:  MOVFF  605,FEA
0169C:  MOVF   x02,W
0169E:  ANDLW  07
016A0:  MOVWF  x08
016A2:  MOVLW  01
016A4:  MOVWF  00
016A6:  MOVF   x08,W
016A8:  MOVWF  01
016AA:  BZ    16B4
016AC:  BCF    FD8.0
016AE:  RLCF   00,F
016B0:  DECFSZ 01,F
016B2:  BRA    16AC
016B4:  MOVF   00,W
016B6:  XORLW  FF
016B8:  ANDWF  FEF,F
....................    } 
.................... } 
016BA:  MOVLB  0
016BC:  RETLW  00
.................... #else 
.................... { 
....................    BYTE data; 
....................    int1 side = GLCD_LEFT;  // Stores which chip to use on the LCD 
....................  
....................    if(x > 63)              // Check for first or second display area 
....................    { 
....................       x -= 64; 
....................       side = GLCD_RIGHT; 
....................    } 
....................  
....................    output_low(GLCD_DI);                         // Set for instruction 
....................    bit_clear(x,7);                              // Clear the MSB. Part of an instruction code 
....................    bit_set(x,6);                                // Set bit 6. Also part of an instruction code 
....................    glcd_writeByte(side, x);                     // Set the horizontal address 
....................    glcd_writeByte(side, (y/8 & 0xBF) | 0xB8);   // Set the vertical page address 
....................    output_high(GLCD_DI);                        // Set for data 
....................    glcd_readByte(side);                         // Need two reads to get data 
....................    data = glcd_readByte(side);                  //  at new address 
....................  
....................    if(color == ON) 
....................       bit_set(data, y%8);        // Turn the pixel on 
....................    else                          // or 
....................       bit_clear(data, y%8);      // turn the pixel off 
....................  
....................    output_low(GLCD_DI);          // Set for instruction 
....................    glcd_writeByte(side, x);      // Set the horizontal address 
....................    output_high(GLCD_DI);         // Set for data 
....................    glcd_writeByte(side, data);   // Write the pixel data 
.................... } 
.................... #endif 
....................  
....................  
.................... // Purpose:    Fill the LCD screen with the passed in color 
.................... // Inputs:     ON  - turn all the pixels on 
.................... //             OFF - turn all the pixels off 
.................... void glcd_fillScreen(int1 color) 
.................... #ifdef FAST_GLCD 
.................... { 
....................    int8  data; 
....................    int8  *p1, *p2; 
....................    int16 i; 
....................  
....................    p1 = displayData.left; 
*
01448:  MOVLB  5
0144A:  CLRF   xD8
0144C:  MOVLW  17
0144E:  MOVWF  xD7
....................    p2 = displayData.right; 
01450:  MOVLW  02
01452:  MOVWF  xDA
01454:  MOVLW  17
01456:  MOVWF  xD9
....................    data = 0xFF * color; 
01458:  MOVF   xD5,W
0145A:  MULLW  FF
0145C:  MOVFF  FF3,5D6
....................  
....................    for(i=0; i<512; ++i) 
01460:  CLRF   xDC
01462:  CLRF   xDB
01464:  MOVF   xDC,W
01466:  SUBLW  01
01468:  BNC   149E
....................    { 
....................       *p1++ = data; 
0146A:  MOVFF  5D8,03
0146E:  MOVF   xD7,W
01470:  INCF   xD7,F
01472:  BTFSC  FD8.2
01474:  INCF   xD8,F
01476:  MOVWF  FE9
01478:  MOVFF  03,FEA
0147C:  MOVFF  5D6,FEF
....................       *p2++ = data; 
01480:  MOVFF  5DA,03
01484:  MOVF   xD9,W
01486:  INCF   xD9,F
01488:  BTFSC  FD8.2
0148A:  INCF   xDA,F
0148C:  MOVWF  FE9
0148E:  MOVFF  03,FEA
01492:  MOVFF  5D6,FEF
....................    } 
01496:  INCF   xDB,F
01498:  BTFSC  FD8.2
0149A:  INCF   xDC,F
0149C:  BRA    1464
.................... } 
0149E:  MOVLB  0
014A0:  RETLW  00
.................... #else 
.................... { 
....................    int8 i, j; 
....................  
....................    // Loop through the vertical pages 
....................    for(i = 0; i < 8; ++i) 
....................    { 
....................       output_low(GLCD_DI);                      // Set for instruction 
....................       glcd_writeByte(GLCD_LEFT, 0b01000000);    // Set horizontal address to 0 
....................       glcd_writeByte(GLCD_RIGHT, 0b01000000); 
....................       glcd_writeByte(GLCD_LEFT, i | 0b10111000);// Set page address 
....................       glcd_writeByte(GLCD_RIGHT, i | 0b10111000); 
....................       output_high(GLCD_DI);                     // Set for data 
....................  
....................       // Loop through the horizontal sections 
....................       for(j = 0; j < 64; ++j) 
....................       { 
....................          glcd_writeByte(GLCD_LEFT, 0xFF*color);  // Turn pixels on or off 
....................          glcd_writeByte(GLCD_RIGHT, 0xFF*color); // Turn pixels on or off 
....................       } 
....................    } 
.................... } 
.................... #endif 
....................  
....................  
.................... // Purpose:    Write a byte of data to the specified chip 
.................... // Inputs:     1) chipSelect - which chip to write the data to 
.................... //             2) data - the byte of data to write 
.................... void glcd_writeByte(int1 side, BYTE data) 
.................... { 
....................    if(side)                   // Choose which side to write to 
*
01412:  MOVLB  5
01414:  MOVF   xDC,F
01416:  BZ    141E
....................       output_high(GLCD_CS2); 
01418:  BCF    F93.3
0141A:  BSF    F8A.3
....................    else 
0141C:  BRA    1422
....................       output_high(GLCD_CS1); 
0141E:  BCF    F93.2
01420:  BSF    F8A.2
....................  
....................    output_low(GLCD_RW);       // Set for writing 
01422:  BCF    F93.6
01424:  BCF    F8A.6
....................    output_d(data);            // Put the data on the port 
01426:  CLRF   F95
01428:  MOVFF  5DD,F8C
....................    delay_cycles(1); 
0142C:  NOP   
....................    output_high(GLCD_E);       // Pulse the enable pin 
0142E:  BCF    F93.7
01430:  BSF    F8A.7
....................    delay_cycles(5); 
01432:  BRA    1434
01434:  BRA    1436
01436:  NOP   
....................    output_low(GLCD_E); 
01438:  BCF    F93.7
0143A:  BCF    F8A.7
....................  
....................    output_low(GLCD_CS1);      // Reset the chip select lines 
0143C:  BCF    F93.2
0143E:  BCF    F8A.2
....................    output_low(GLCD_CS2); 
01440:  BCF    F93.3
01442:  BCF    F8A.3
.................... } 
01444:  MOVLB  0
01446:  RETLW  00
....................  
....................  
.................... // Purpose:    Reads a byte of data from the specified chip 
.................... // Ouputs:     A byte of data read from the chip 
.................... BYTE glcd_readByte(int1 side) 
.................... { 
....................    BYTE data;                 // Stores the data read from the LCD 
....................  
....................    set_tris_d(0xFF);          // Set port d to input 
....................    output_high(GLCD_RW);      // Set for reading 
....................  
....................    if(side)                   // Choose which side to write to 
....................       output_high(GLCD_CS2); 
....................    else 
....................       output_high(GLCD_CS1); 
....................  
....................    delay_cycles(1); 
....................    output_high(GLCD_E);       // Pulse the enable pin 
....................    delay_cycles(4); 
....................    data = input_d();          // Get the data from the display's output register 
....................    output_low(GLCD_E); 
....................  
....................    output_low(GLCD_CS1);      // Reset the chip select lines 
....................    output_low(GLCD_CS2); 
....................    return data;               // Return the read data 
.................... } 
....................  
.................... #endif 
....................  
.................... #include "GRAPHICS.c" 
.................... ///////////////////////////////////////////////////////////////////////// 
.................... ////                          graphics.c                             //// 
.................... ////                                                                 //// 
.................... ////   This file contains functions to draw lines, rectangles, bars, //// 
.................... ////   circles and text to a display. A function which draws a       //// 
.................... ////   single pixel must be defined before calling the functions in  //// 
.................... ////   this file. Call it glcd_pixel(x, y, color) where x is the     //// 
.................... ////   horizontal coordinate, y is the vertical coordinate, and      //// 
.................... ////   color is 1 bit to turn the pixel on or off.                   //// 
.................... ////                                                                 //// 
.................... ////   * Note: (0, 0) is treated as the upper left corner            //// 
.................... ////                                                                 //// 
.................... ///////////////////////////////////////////////////////////////////////// 
.................... ////                                                                 //// 
.................... ////  glcd_line(x1, y1, x2, y2, color)                               //// 
.................... ////     * Draws a line from the first point to the second point     //// 
.................... ////       with the given color                                      //// 
.................... ////       - color can be ON or OFF                                  //// 
.................... ////                                                                 //// 
.................... ////  glcd_rect(x1, y1, x2, y2, fill, color)                         //// 
.................... ////     * Draws a rectangle with one corner at point (x1,y1) and    //// 
.................... ////       the other corner at point (x2,y2)                         //// 
.................... ////       - fill can be YES or NO                                   //// 
.................... ////       - color can be ON or OFF                                  //// 
.................... ////                                                                 //// 
.................... ////  glcd_bar(x1, y1, x2, y2, width, color)                         //// 
.................... ////     * Draws a bar (wide line) from the first point to the       //// 
.................... ////       second point                                              //// 
.................... ////       - width is the number of pixels wide                      //// 
.................... ////       - color is ON or OFF                                      //// 
.................... ////                                                                 //// 
.................... ////  glcd_circle(x, y, radius, fill, color)                         //// 
.................... ////     * Draws a circle with center at (x,y)                       //// 
.................... ////       - fill can be YES or NO                                   //// 
.................... ////       - color can be ON or OFF                                  //// 
.................... ////                                                                 //// 
.................... ////  glcd_text57(x, y, textptr, size, color)                        //// 
.................... ////     * Write the null terminated text pointed to by textptr with //// 
.................... ////       the upper left coordinate of the first character at (x,y) //// 
.................... ////       Characters are 5 pixels wide and 7 pixels tall            //// 
.................... ////       - size is an integer that scales the size of the text     //// 
.................... ////       - color is ON or OFF                                      //// 
.................... ////     * Note - This function wraps characters to the next line    //// 
.................... ////              use #define GLCD_WIDTH to specify a display width  //// 
.................... ////                                                                 //// 
.................... ///////////////////////////////////////////////////////////////////////// 
.................... ////        (C) Copyright 1996, 2004 Custom Computer Services        //// 
.................... //// This source code may only be used by licensed users of the CCS  //// 
.................... //// C compiler.  This source code may only be distributed to other  //// 
.................... //// licensed users of the CCS C compiler.  No other use,            //// 
.................... //// reproduction or distribution is permitted without written       //// 
.................... //// permission.  Derivative programs created using this software    //// 
.................... //// in object code form are not restricted in any way.              //// 
.................... ///////////////////////////////////////////////////////////////////////// 
....................  
....................  
.................... ///////////////////////////////////////////////////////////////////////// 
.................... #ifndef GRAPHICS_DRAWING_FUNCTIONS 
.................... #define GRAPHICS_DRAWING_FUNCTIONS 
.................... ///////////////////////////////////////////////////////////////////////// 
....................  
....................  
.................... ///////////////////////////////////////////////////////////////////////// 
.................... #ifndef ON 
.................... #define ON  1 
.................... #endif 
....................  
.................... #ifndef OFF 
.................... #define OFF 0 
.................... #endif 
....................  
.................... #ifndef YES 
.................... #define YES 1 
.................... #endif 
....................  
.................... #ifndef NO 
.................... #define NO  0 
.................... #endif 
.................... ///////////////////////////////////////////////////////////////////////// 
....................  
....................  
.................... ///////////////////////////////////////////////////////////////////////// 
.................... //// Defines a 5x7 font 
.................... ///////////////////////////////////////////////////////////////////////// 
.................... const int8 FONT[51][5] ={0x00, 0x00, 0x00, 0x00, 0x00, // SPACE 
....................                          0x00, 0x00, 0x5F, 0x00, 0x00, // ! 
....................                          0x00, 0x03, 0x00, 0x03, 0x00, // " 
....................                          0x14, 0x3E, 0x14, 0x3E, 0x14, // # 
....................                          0x24, 0x2A, 0x7F, 0x2A, 0x12, // $ 
....................                          0x43, 0x33, 0x08, 0x66, 0x61, // % 
....................                          0x36, 0x49, 0x55, 0x22, 0x50, // & 
....................                          0x00, 0x05, 0x03, 0x00, 0x00, // ' 
....................                          0x00, 0x1C, 0x22, 0x41, 0x00, // ( 
....................                          0x00, 0x41, 0x22, 0x1C, 0x00, // ) 
....................                          0x14, 0x08, 0x3E, 0x08, 0x14, // * 
....................                          0x08, 0x08, 0x3E, 0x08, 0x08, // + 
....................                          0x00, 0x50, 0x30, 0x00, 0x00, // , 
....................                          0x08, 0x08, 0x08, 0x08, 0x08, // - 
....................                          0x00, 0x60, 0x60, 0x00, 0x00, // . 
....................                          0x20, 0x10, 0x08, 0x04, 0x02, // / 
....................                          0x3E, 0x51, 0x49, 0x45, 0x3E, // 0 
....................                          0x00, 0x04, 0x02, 0x7F, 0x00, // 1 
....................                          0x42, 0x61, 0x51, 0x49, 0x46, // 2 
....................                          0x22, 0x41, 0x49, 0x49, 0x36, // 3 
....................                          0x18, 0x14, 0x12, 0x7F, 0x10, // 4 
....................                          0x27, 0x45, 0x45, 0x45, 0x39, // 5 
....................                          0x3E, 0x49, 0x49, 0x49, 0x32, // 6 
....................                          0x01, 0x01, 0x71, 0x09, 0x07, // 7 
....................                          0x36, 0x49, 0x49, 0x49, 0x36, // 8 
....................                          0x26, 0x49, 0x49, 0x49, 0x3E, // 9 
....................                          0x00, 0x36, 0x36, 0x00, 0x00, // : 
....................                          0x00, 0x56, 0x36, 0x00, 0x00, // ; 
....................                          0x08, 0x14, 0x22, 0x41, 0x00, // < 
....................                          0x14, 0x14, 0x14, 0x14, 0x14, // = 
....................                          0x00, 0x41, 0x22, 0x14, 0x08, // > 
....................                          0x02, 0x01, 0x51, 0x09, 0x06, // ? 
....................                          0x3E, 0x41, 0x59, 0x55, 0x5E, // @ 
....................                          0x7E, 0x09, 0x09, 0x09, 0x7E, // A 
....................                          0x7F, 0x49, 0x49, 0x49, 0x36, // B 
....................                          0x3E, 0x41, 0x41, 0x41, 0x22, // C 
....................                          0x7F, 0x41, 0x41, 0x41, 0x3E, // D 
....................                          0x7F, 0x49, 0x49, 0x49, 0x41, // E 
....................                          0x7F, 0x09, 0x09, 0x09, 0x01, // F 
....................                          0x3E, 0x41, 0x41, 0x49, 0x3A, // G 
....................                          0x7F, 0x08, 0x08, 0x08, 0x7F, // H 
....................                          0x00, 0x41, 0x7F, 0x41, 0x00, // I 
....................                          0x30, 0x40, 0x40, 0x40, 0x3F, // J 
....................                          0x7F, 0x08, 0x14, 0x22, 0x41, // K 
....................                          0x7F, 0x40, 0x40, 0x40, 0x40, // L 
....................                          0x7F, 0x02, 0x0C, 0x02, 0x7F, // M 
....................                          0x7F, 0x02, 0x04, 0x08, 0x7F, // N 
....................                          0x3E, 0x41, 0x41, 0x41, 0x3E, // O 
....................                          0x7F, 0x09, 0x09, 0x09, 0x06, // P 
....................                          0x1E, 0x21, 0x21, 0x21, 0x5E, // Q 
....................                          0x7F, 0x09, 0x09, 0x09, 0x76};// R 
....................  
.................... const int8 FONT2[44][5]={0x26, 0x49, 0x49, 0x49, 0x32, // S 
....................                          0x01, 0x01, 0x7F, 0x01, 0x01, // T 
....................                          0x3F, 0x40, 0x40, 0x40, 0x3F, // U 
....................                          0x1F, 0x20, 0x40, 0x20, 0x1F, // V 
....................                          0x7F, 0x20, 0x10, 0x20, 0x7F, // W 
....................                          0x41, 0x22, 0x1C, 0x22, 0x41, // X 
....................                          0x07, 0x08, 0x70, 0x08, 0x07, // Y 
....................                          0x61, 0x51, 0x49, 0x45, 0x43, // Z 
....................                          0x00, 0x7F, 0x41, 0x00, 0x00, // [ 
....................                          0x02, 0x04, 0x08, 0x10, 0x20, // \ 
....................                          0x00, 0x00, 0x41, 0x7F, 0x00, // ] 
....................                          0x04, 0x02, 0x01, 0x02, 0x04, // ^ 
....................                          0x40, 0x40, 0x40, 0x40, 0x40, // _ 
....................                          0x00, 0x01, 0x02, 0x04, 0x00, // ` 
....................                          0x20, 0x54, 0x54, 0x54, 0x78, // a 
....................                          0x7F, 0x44, 0x44, 0x44, 0x38, // b 
....................                          0x38, 0x44, 0x44, 0x44, 0x44, // c 
....................                          0x38, 0x44, 0x44, 0x44, 0x7F, // d 
....................                          0x38, 0x54, 0x54, 0x54, 0x18, // e 
....................                          0x04, 0x04, 0x7E, 0x05, 0x05, // f 
....................                          0x08, 0x54, 0x54, 0x54, 0x3C, // g 
....................                          0x7F, 0x08, 0x04, 0x04, 0x78, // h 
....................                          0x00, 0x44, 0x7D, 0x40, 0x00, // i 
....................                          0x20, 0x40, 0x44, 0x3D, 0x00, // j 
....................                          0x7F, 0x10, 0x28, 0x44, 0x00, // k 
....................                          0x00, 0x41, 0x7F, 0x40, 0x00, // l 
....................                          0x7C, 0x04, 0x78, 0x04, 0x78, // m 
....................                          0x7C, 0x08, 0x04, 0x04, 0x78, // n 
....................                          0x38, 0x44, 0x44, 0x44, 0x38, // o 
....................                          0x7C, 0x14, 0x14, 0x14, 0x08, // p 
....................                          0x08, 0x14, 0x14, 0x14, 0x7C, // q 
....................                          0x00, 0x7C, 0x08, 0x04, 0x04, // r 
....................                          0x48, 0x54, 0x54, 0x54, 0x20, // s 
....................                          0x04, 0x04, 0x3F, 0x44, 0x44, // t 
....................                          0x3C, 0x40, 0x40, 0x20, 0x7C, // u 
....................                          0x1C, 0x20, 0x40, 0x20, 0x1C, // v 
....................                          0x3C, 0x40, 0x30, 0x40, 0x3C, // w 
....................                          0x44, 0x28, 0x10, 0x28, 0x44, // x 
....................                          0x0C, 0x50, 0x50, 0x50, 0x3C, // y 
....................                          0x44, 0x64, 0x54, 0x4C, 0x44, // z 
....................                          0x00, 0x08, 0x36, 0x41, 0x41, // { 
....................                          0x00, 0x00, 0x7F, 0x00, 0x00, // | 
....................                          0x41, 0x41, 0x36, 0x08, 0x00, // } 
....................                          0x02, 0x01, 0x02, 0x04, 0x02};// ~ 
.................... ///////////////////////////////////////////////////////////////////////// 
....................  
....................  
.................... ///////////////////////////////////////////////////////////////////////// 
.................... // Purpose:       Draw a line on a graphic LCD using Bresenham's 
.................... //                line drawing algorithm 
.................... // Inputs:        (x1, y1) - the start coordinate 
.................... //                (x2, y2) - the end coordinate 
.................... //                color - ON or OFF 
.................... // Dependencies:  glcd_pixel() 
.................... ///////////////////////////////////////////////////////////////////////// 
.................... #ifdef LARGE_LCD 
.................... void glcd_line(int16 x1, int16 y1, int16 x2, int16 y2, int1 color) 
.................... #else 
.................... void glcd_line(int8 x1, int8 y1, int8 x2, int8 y2, int1 color) 
.................... #endif 
.................... { 
*
0485E:  MOVLW  01
04860:  MOVLB  5
04862:  MOVWF  xFA
04864:  MOVWF  xFB
04866:  MOVLB  6
04868:  CLRF   x00
....................    int16        dy, dx; 
....................    signed int8  addx=1, addy=1; 
....................    signed int16 P, diff; 
....................  
....................    #ifdef LARGE_LCD 
....................    int16 i=0; 
....................    dx = abs((signed int16)(x2 - x1)); 
....................    dy = abs((signed int16)(y2 - y1)); 
....................    #else 
....................    int8 i=0; 
....................    dx = abs((signed int8)(x2 - x1)); 
0486A:  MOVLB  5
0486C:  MOVF   xF1,W
0486E:  SUBWF  xF3,W
04870:  MOVLB  6
04872:  MOVWF  x01
04874:  MOVF   x01,W
04876:  BTFSS  x01.7
04878:  BRA    4880
0487A:  MOVLW  00
0487C:  BSF    FD8.0
0487E:  SUBFWB x01,W
04880:  CLRF   03
04882:  MOVLB  5
04884:  MOVWF  xF8
04886:  MOVFF  03,5F9
....................    dy = abs((signed int8)(y2 - y1)); 
0488A:  MOVF   xF2,W
0488C:  SUBWF  xF4,W
0488E:  MOVLB  6
04890:  MOVWF  x01
04892:  MOVF   x01,W
04894:  BTFSS  x01.7
04896:  BRA    489E
04898:  MOVLW  00
0489A:  BSF    FD8.0
0489C:  SUBFWB x01,W
0489E:  CLRF   03
048A0:  MOVLB  5
048A2:  MOVWF  xF6
048A4:  MOVFF  03,5F7
....................    #endif 
....................  
....................    if(x1 > x2) 
048A8:  MOVF   xF1,W
048AA:  SUBWF  xF3,W
048AC:  BC    48B2
....................       addx = -1; 
048AE:  MOVLW  FF
048B0:  MOVWF  xFA
....................    if(y1 > y2) 
048B2:  MOVF   xF2,W
048B4:  SUBWF  xF4,W
048B6:  BC    48BC
....................       addy = -1; 
048B8:  MOVLW  FF
048BA:  MOVWF  xFB
....................  
....................    if(dx >= dy) 
048BC:  MOVF   xF7,W
048BE:  SUBWF  xF9,W
048C0:  BNC   4942
048C2:  BNZ   48CA
048C4:  MOVF   xF6,W
048C6:  SUBWF  xF8,W
048C8:  BNC   4942
....................    { 
....................       dy *= 2; 
048CA:  BCF    FD8.0
048CC:  RLCF   xF6,F
048CE:  RLCF   xF7,F
....................       P = dy - dx; 
048D0:  MOVF   xF8,W
048D2:  SUBWF  xF6,W
048D4:  MOVWF  00
048D6:  MOVF   xF9,W
048D8:  SUBWFB xF7,W
048DA:  MOVFF  00,5FC
048DE:  MOVWF  xFD
....................       diff = P - dx; 
048E0:  MOVF   xF8,W
048E2:  SUBWF  xFC,W
048E4:  MOVWF  xFE
048E6:  MOVF   xF9,W
048E8:  SUBWFB xFD,W
048EA:  MOVWF  xFF
....................  
....................       for(; i<=dx; ++i) 
048EC:  MOVF   xF9,F
048EE:  BNZ   48FA
048F0:  MOVLB  6
048F2:  MOVF   x00,W
048F4:  MOVLB  5
048F6:  SUBWF  xF8,W
048F8:  BNC   4940
....................       { 
....................          glcd_pixel(x1, y1, color); 
048FA:  MOVFF  5F1,601
048FE:  MOVFF  5F2,602
04902:  MOVFF  5F5,603
04906:  MOVLB  0
04908:  CALL   1602
....................  
....................          if(P < 0) 
0490C:  MOVLB  5
0490E:  BTFSC  xFD.7
04910:  BRA    4914
04912:  BRA    4924
....................          { 
....................             P  += dy; 
04914:  MOVF   xF6,W
04916:  ADDWF  xFC,F
04918:  MOVF   xF7,W
0491A:  ADDWFC xFD,F
....................             x1 += addx; 
0491C:  MOVF   xFA,W
0491E:  ADDWF  xF1,W
04920:  MOVWF  xF1
....................          } 
....................          else 
04922:  BRA    4938
....................          { 
....................             P  += diff; 
04924:  MOVF   xFE,W
04926:  ADDWF  xFC,F
04928:  MOVF   xFF,W
0492A:  ADDWFC xFD,F
....................             x1 += addx; 
0492C:  MOVF   xFA,W
0492E:  ADDWF  xF1,W
04930:  MOVWF  xF1
....................             y1 += addy; 
04932:  MOVF   xFB,W
04934:  ADDWF  xF2,W
04936:  MOVWF  xF2
....................          } 
....................       } 
04938:  MOVLB  6
0493A:  INCF   x00,F
0493C:  MOVLB  5
0493E:  BRA    48EC
....................    } 
....................    else 
04940:  BRA    49B8
....................    { 
....................       dx *= 2; 
04942:  BCF    FD8.0
04944:  RLCF   xF8,F
04946:  RLCF   xF9,F
....................       P = dx - dy; 
04948:  MOVF   xF6,W
0494A:  SUBWF  xF8,W
0494C:  MOVWF  00
0494E:  MOVF   xF7,W
04950:  SUBWFB xF9,W
04952:  MOVFF  00,5FC
04956:  MOVWF  xFD
....................       diff = P - dy; 
04958:  MOVF   xF6,W
0495A:  SUBWF  xFC,W
0495C:  MOVWF  xFE
0495E:  MOVF   xF7,W
04960:  SUBWFB xFD,W
04962:  MOVWF  xFF
....................  
....................       for(; i<=dy; ++i) 
04964:  MOVF   xF7,F
04966:  BNZ   4972
04968:  MOVLB  6
0496A:  MOVF   x00,W
0496C:  MOVLB  5
0496E:  SUBWF  xF6,W
04970:  BNC   49B8
....................       { 
....................          glcd_pixel(x1, y1, color); 
04972:  MOVFF  5F1,601
04976:  MOVFF  5F2,602
0497A:  MOVFF  5F5,603
0497E:  MOVLB  0
04980:  CALL   1602
....................  
....................          if(P < 0) 
04984:  MOVLB  5
04986:  BTFSC  xFD.7
04988:  BRA    498C
0498A:  BRA    499C
....................          { 
....................             P  += dx; 
0498C:  MOVF   xF8,W
0498E:  ADDWF  xFC,F
04990:  MOVF   xF9,W
04992:  ADDWFC xFD,F
....................             y1 += addy; 
04994:  MOVF   xFB,W
04996:  ADDWF  xF2,W
04998:  MOVWF  xF2
....................          } 
....................          else 
0499A:  BRA    49B0
....................          { 
....................             P  += diff; 
0499C:  MOVF   xFE,W
0499E:  ADDWF  xFC,F
049A0:  MOVF   xFF,W
049A2:  ADDWFC xFD,F
....................             x1 += addx; 
049A4:  MOVF   xFA,W
049A6:  ADDWF  xF1,W
049A8:  MOVWF  xF1
....................             y1 += addy; 
049AA:  MOVF   xFB,W
049AC:  ADDWF  xF2,W
049AE:  MOVWF  xF2
....................          } 
....................       } 
049B0:  MOVLB  6
049B2:  INCF   x00,F
049B4:  MOVLB  5
049B6:  BRA    4964
....................    } 
.................... } 
049B8:  MOVLB  0
049BA:  RETLW  00
....................  
....................  
.................... ///////////////////////////////////////////////////////////////////////// 
.................... // Purpose:       Draw a rectangle on a graphic LCD 
.................... // Inputs:        (x1, y1) - the start coordinate 
.................... //                (x2, y2) - the end coordinate 
.................... //                fill  - YES or NO 
.................... //                color - ON or OFF 
.................... // Dependencies:  glcd_pixel(), glcd_line() 
.................... ///////////////////////////////////////////////////////////////////////// 
.................... #ifdef LARGE_LCD 
.................... void glcd_rect(int16 x1, int16 y1, int16 x2, int16 y2, int1 fill, int1 color) 
.................... #else 
.................... void glcd_rect(int8 x1, int8 y1, int8 x2, int8 y2, int1 fill, int1 color) 
.................... #endif 
.................... { 
....................    if(fill) 
049BC:  MOVLB  5
049BE:  MOVF   xEA,F
049C0:  BZ    4A20
....................    { 
....................       #ifdef LARGE_LCD 
....................       int16 i, xmin, xmax, ymin, ymax; 
....................       #else 
....................       int8  i, xmin, xmax, ymin, ymax; 
....................       #endif 
....................  
....................       if(x1 < x2)                            //  Find x min and max 
049C2:  MOVF   xE8,W
049C4:  SUBWF  xE6,W
049C6:  BC    49D2
....................       { 
....................          xmin = x1; 
049C8:  MOVFF  5E6,5ED
....................          xmax = x2; 
049CC:  MOVFF  5E8,5EE
....................       } 
....................       else 
049D0:  BRA    49DA
....................       { 
....................          xmin = x2; 
049D2:  MOVFF  5E8,5ED
....................          xmax = x1; 
049D6:  MOVFF  5E6,5EE
....................       } 
....................  
....................       if(y1 < y2)                            // Find the y min and max 
049DA:  MOVF   xE9,W
049DC:  SUBWF  xE7,W
049DE:  BC    49EA
....................       { 
....................          ymin = y1; 
049E0:  MOVFF  5E7,5EF
....................          ymax = y2; 
049E4:  MOVFF  5E9,5F0
....................       } 
....................       else 
049E8:  BRA    49F2
....................       { 
....................          ymin = y2; 
049EA:  MOVFF  5E9,5EF
....................          ymax = y1; 
049EE:  MOVFF  5E7,5F0
....................       } 
....................  
....................       for(; xmin <= xmax; ++xmin) 
049F2:  MOVF   xED,W
049F4:  SUBWF  xEE,W
049F6:  BNC   4A1E
....................       { 
....................          for(i=ymin; i<=ymax; ++i) 
049F8:  MOVFF  5EF,5EC
049FC:  MOVF   xEC,W
049FE:  SUBWF  xF0,W
04A00:  BNC   4A1A
....................          { 
....................             glcd_pixel(xmin, i, color); 
04A02:  MOVFF  5ED,601
04A06:  MOVFF  5EC,602
04A0A:  MOVFF  5EB,603
04A0E:  MOVLB  0
04A10:  CALL   1602
....................          } 
04A14:  MOVLB  5
04A16:  INCF   xEC,F
04A18:  BRA    49FC
....................       } 
04A1A:  INCF   xED,F
04A1C:  BRA    49F2
....................    } 
....................    else 
04A1E:  BRA    4A7C
....................    { 
....................       glcd_line(x1, y1, x2, y1, color);      // Draw the 4 sides 
04A20:  MOVFF  5E6,5F1
04A24:  MOVFF  5E7,5F2
04A28:  MOVFF  5E8,5F3
04A2C:  MOVFF  5E7,5F4
04A30:  MOVFF  5EB,5F5
04A34:  MOVLB  0
04A36:  RCALL  485E
....................       glcd_line(x1, y2, x2, y2, color); 
04A38:  MOVFF  5E6,5F1
04A3C:  MOVFF  5E9,5F2
04A40:  MOVFF  5E8,5F3
04A44:  MOVFF  5E9,5F4
04A48:  MOVFF  5EB,5F5
04A4C:  RCALL  485E
....................       glcd_line(x1, y1, x1, y2, color); 
04A4E:  MOVFF  5E6,5F1
04A52:  MOVFF  5E7,5F2
04A56:  MOVFF  5E6,5F3
04A5A:  MOVFF  5E9,5F4
04A5E:  MOVFF  5EB,5F5
04A62:  RCALL  485E
....................       glcd_line(x2, y1, x2, y2, color); 
04A64:  MOVFF  5E8,5F1
04A68:  MOVFF  5E7,5F2
04A6C:  MOVFF  5E8,5F3
04A70:  MOVFF  5E9,5F4
04A74:  MOVFF  5EB,5F5
04A78:  RCALL  485E
04A7A:  MOVLB  5
....................    } 
.................... } 
04A7C:  MOVLB  0
04A7E:  RETLW  00
....................  
.................... ///////////////////////////////////////////////////////////////////////// 
.................... // Purpose:       Draw a bar (wide line) on a graphic LCD 
.................... // Inputs:        (x1, y1) - the start coordinate 
.................... //                (x2, y2) - the end coordinate 
.................... //                width  - The number of pixels wide 
.................... //                color - ON or OFF 
.................... ///////////////////////////////////////////////////////////////////////// 
.................... #ifdef LARGE_LCD 
.................... void glcd_bar(int16 x1, int16 y1, int16 x2, int16 y2, int8 width, int1 color) 
.................... #else 
.................... void glcd_bar(int8 x1, int8 y1, int8 x2, int8 y2, int8 width, int1 color) 
.................... #endif 
.................... { 
....................    int8         half_width; 
....................    signed int16 dy, dx; 
....................    signed int8  addx=1, addy=1, j; 
....................    signed int16 P, diff, c1, c2; 
....................  
....................    #ifdef LARGE_LCD 
....................    int16 i=0; 
....................    dx = abs((signed int16)(x2 - x1)); 
....................    dy = abs((signed int16)(y2 - y1)); 
....................    #else 
....................    int8 i=0; 
....................    dx = abs((signed int8)(x2 - x1)); 
....................    dy = abs((signed int8)(y2 - y1)); 
....................    #endif 
....................  
....................    half_width = width/2; 
....................    c1 = -(dx*x1 + dy*y1); 
....................    c2 = -(dx*x2 + dy*y2); 
....................  
....................    if(x1 > x2) 
....................    { 
....................       signed int16 temp; 
....................       temp = c1; 
....................       c1 = c2; 
....................       c2 = temp; 
....................       addx = -1; 
....................    } 
....................    if(y1 > y2) 
....................    { 
....................       signed int16 temp; 
....................       temp = c1; 
....................       c1 = c2; 
....................       c2 = temp; 
....................       addy = -1; 
....................    } 
....................  
....................    if(dx >= dy) 
....................    { 
....................       P = 2*dy - dx; 
....................       diff = P - dx; 
....................  
....................       for(i=0; i<=dx; ++i) 
....................       { 
....................          for(j=-half_width; j<half_width+width%2; ++j) 
....................          { 
....................             #ifdef LARGE_LCD 
....................             int16 temp; 
....................             #else 
....................             int8 temp; 
....................             #endif 
....................  
....................             temp = dx*x1+dy*(y1+j);    // Use more RAM to increase speed 
....................             if(temp+c1 >= 0 && temp+c2 <=0) 
....................                glcd_pixel(x1, y1+j, color); 
....................          } 
....................          if(P < 0) 
....................          { 
....................             P  += 2*dy; 
....................             x1 += addx; 
....................          } 
....................          else 
....................          { 
....................             P  += diff; 
....................             x1 += addx; 
....................             y1 += addy; 
....................          } 
....................       } 
....................    } 
....................    else 
....................    { 
....................       P = 2*dx - dy; 
....................       diff = P - dy; 
....................  
....................       for(i=0; i<=dy; ++i) 
....................       { 
....................          if(P < 0) 
....................          { 
....................             P  += 2*dx; 
....................             y1 += addy; 
....................          } 
....................          else 
....................          { 
....................             P  += diff; 
....................             x1 += addx; 
....................             y1 += addy; 
....................          } 
....................          for(j=-half_width; j<half_width+width%2; ++j) 
....................          { 
....................             #ifdef LARGE_LCD 
....................             int16 temp; 
....................             #else 
....................             int8 temp; 
....................             #endif 
....................  
....................             temp = dx*x1+dy*(y1+j);    // Use more RAM to increase speed 
....................             if(temp+c1 >= 0 && temp+c2 <=0) 
....................                glcd_pixel(x1+j, y1, color); 
....................          } 
....................       } 
....................    } 
.................... } 
....................  
....................  
.................... ///////////////////////////////////////////////////////////////////////// 
.................... // Purpose:       Draw a circle on a graphic LCD 
.................... // Inputs:        (x,y) - the center of the circle 
.................... //                radius - the radius of the circle 
.................... //                fill - YES or NO 
.................... //                color - ON or OFF 
.................... ///////////////////////////////////////////////////////////////////////// 
.................... #ifdef LARGE_LCD 
.................... void glcd_circle(int16 x, int16 y, int16 radius, int1 fill, int1 color) 
.................... #else 
.................... void glcd_circle(int8 x, int8 y, int8 radius, int1 fill, int1 color) 
.................... #endif 
.................... { 
....................    #ifdef LARGE_LCD 
....................    signed int16 a, b, P; 
....................    #else 
....................    signed int8  a, b, P; 
....................    #endif 
....................  
....................    a = 0; 
....................    b = radius; 
....................    P = 1 - radius; 
....................  
....................    do 
....................    { 
....................       if(fill) 
....................       { 
....................          glcd_line(x-a, y+b, x+a, y+b, color); 
....................          glcd_line(x-a, y-b, x+a, y-b, color); 
....................          glcd_line(x-b, y+a, x+b, y+a, color); 
....................          glcd_line(x-b, y-a, x+b, y-a, color); 
....................       } 
....................       else 
....................       { 
....................          glcd_pixel(a+x, b+y, color); 
....................          glcd_pixel(b+x, a+y, color); 
....................          glcd_pixel(x-a, b+y, color); 
....................          glcd_pixel(x-b, a+y, color); 
....................          glcd_pixel(b+x, y-a, color); 
....................          glcd_pixel(a+x, y-b, color); 
....................          glcd_pixel(x-a, y-b, color); 
....................          glcd_pixel(x-b, y-a, color); 
....................       } 
....................  
....................       if(P < 0) 
....................          P += 3 + 2 * a++; 
....................       else 
....................          P += 5 + 2 * (a++ - b--); 
....................     } while(a <= b); 
.................... } 
....................  
....................  
.................... ///////////////////////////////////////////////////////////////////////// 
.................... // Purpose:       Write text on a graphic LCD 
.................... // Inputs:        (x,y) - The upper left coordinate of the first letter 
.................... //                textptr - A pointer to an array of text to display 
.................... //                size - The size of the text: 1 = 5x7, 2 = 10x14, ... 
.................... //                color - ON or OFF 
.................... ///////////////////////////////////////////////////////////////////////// 
.................... #ifdef LARGE_LCD 
.................... void glcd_text57(int16 x, int16 y, char* textptr, int8 size, int1 color) 
.................... #else 
.................... void glcd_text57(int8 x, int8 y, char* textptr, int8 size, int1 color) 
.................... #endif 
.................... { 
....................    int8 j, k, l, m;                       // Loop counters 
....................    int8 pixelData[5];                     // Stores character data 
....................  
....................    for(; *textptr != '\0'; ++textptr, ++x)// Loop through the passed string 
*
016BE:  MOVFF  5E9,03
016C2:  MOVLB  5
016C4:  MOVFF  5E8,FE9
016C8:  MOVFF  5E9,FEA
016CC:  MOVF   FEF,F
016CE:  BTFSC  FD8.2
016D0:  BRA    1874
....................    { 
....................       if(*textptr < 'S') // Checks if the letter is in the first font array 
016D2:  MOVFF  5E9,03
016D6:  MOVFF  5E8,FE9
016DA:  MOVFF  5E9,FEA
016DE:  MOVF   FEF,W
016E0:  SUBLW  52
016E2:  BNC   1732
....................          memcpy(pixelData, FONT[*textptr - ' '], 5); 
016E4:  MOVFF  5E9,03
016E8:  MOVFF  5E8,FE9
016EC:  MOVFF  5E9,FEA
016F0:  MOVLW  20
016F2:  SUBWF  FEF,W
016F4:  MULLW  05
016F6:  MOVF   FF3,W
016F8:  CLRF   03
016FA:  MOVWF  xF5
016FC:  MOVLW  05
016FE:  MOVWF  FEA
01700:  MOVLW  F0
01702:  MOVWF  FE9
01704:  CLRF   xF9
01706:  MOVFF  5F5,5F8
0170A:  MOVFF  FF2,5F6
0170E:  BCF    FF2.7
01710:  MOVLW  05
01712:  MOVWF  01
01714:  CLRF   FF7
01716:  MOVF   xF5,W
01718:  MOVLB  0
0171A:  CALL   009E
0171E:  TBLRD*-
01720:  TBLRD*+
01722:  MOVFF  FF5,FEE
01726:  DECFSZ 01,F
01728:  BRA    1720
0172A:  MOVLB  5
0172C:  BTFSC  xF6.7
0172E:  BSF    FF2.7
....................       else if(*textptr <= '~') // Check if the letter is in the second font array 
01730:  BRA    179C
01732:  MOVFF  5E9,03
01736:  MOVFF  5E8,FE9
0173A:  MOVFF  5E9,FEA
0173E:  MOVF   FEF,W
01740:  SUBLW  7E
01742:  BNC   1792
....................          memcpy(pixelData, FONT2[*textptr - 'S'], 5); 
01744:  MOVFF  5E9,03
01748:  MOVFF  5E8,FE9
0174C:  MOVFF  5E9,FEA
01750:  MOVLW  53
01752:  SUBWF  FEF,W
01754:  MULLW  05
01756:  MOVF   FF3,W
01758:  CLRF   03
0175A:  MOVWF  xF5
0175C:  MOVLW  05
0175E:  MOVWF  FEA
01760:  MOVLW  F0
01762:  MOVWF  FE9
01764:  CLRF   xF9
01766:  MOVFF  5F5,5F8
0176A:  MOVFF  FF2,5F6
0176E:  BCF    FF2.7
01770:  MOVLW  05
01772:  MOVWF  01
01774:  CLRF   FF7
01776:  MOVF   xF5,W
01778:  MOVLB  0
0177A:  CALL   01BC
0177E:  TBLRD*-
01780:  TBLRD*+
01782:  MOVFF  FF5,FEE
01786:  DECFSZ 01,F
01788:  BRA    1780
0178A:  MOVLB  5
0178C:  BTFSC  xF6.7
0178E:  BSF    FF2.7
....................       else 
01790:  BRA    179C
....................          memcpy(pixelData, FONT[0], 5);   // Default to space 
01792:  CLRF   xF0
01794:  CLRF   xF1
01796:  CLRF   xF2
01798:  CLRF   xF3
0179A:  CLRF   xF4
....................  
....................       // Handles newline and carriage returns 
....................       switch(*textptr) 
....................       { 
0179C:  MOVFF  5E9,03
017A0:  MOVF   xE8,W
017A2:  MOVWF  FE9
017A4:  MOVFF  03,FEA
017A8:  MOVF   FEF,W
017AA:  XORLW  0A
017AC:  MOVLB  0
017AE:  BZ    17B6
017B0:  XORLW  07
017B2:  BZ    17C6
017B4:  BRA    17CC
....................          case '\n': 
....................             y += 7*size + 1; 
017B6:  MOVLB  5
017B8:  MOVF   xEA,W
017BA:  MULLW  07
017BC:  MOVF   FF3,W
017BE:  ADDLW  01
017C0:  ADDWF  xE7,F
....................             continue; 
017C2:  BRA    1866
017C4:  MOVLB  0
....................          case '\r': 
....................             x = 0; 
017C6:  MOVLB  5
017C8:  CLRF   xE6
....................             continue; 
017CA:  BRA    1866
....................       } 
....................  
....................       if(x+5*size >= GLCD_WIDTH)          // Performs character wrapping 
017CC:  MOVLB  5
017CE:  MOVF   xEA,W
017D0:  MULLW  05
017D2:  MOVF   FF3,W
017D4:  ADDWF  xE6,W
017D6:  SUBLW  7F
017D8:  BC    17E6
....................       { 
....................          x = 0;                           // Set x at far left position 
017DA:  CLRF   xE6
....................          y += 7*size + 1;                 // Set y at next position down 
017DC:  MOVF   xEA,W
017DE:  MULLW  07
017E0:  MOVF   FF3,W
017E2:  ADDLW  01
017E4:  ADDWF  xE7,F
....................       } 
....................       for(j=0; j<5; ++j, x+=size)         // Loop through character byte data 
017E6:  CLRF   xEC
017E8:  MOVF   xEC,W
017EA:  SUBLW  04
017EC:  BNC   1866
....................       { 
....................          for(k=0; k < 7; ++k)             // Loop through the vertical pixels 
017EE:  CLRF   xED
017F0:  MOVF   xED,W
017F2:  SUBLW  06
017F4:  BNC   185E
....................          { 
....................             if(bit_test(pixelData[j], k)) // Check if the pixel should be set 
017F6:  CLRF   03
017F8:  MOVF   xEC,W
017FA:  ADDLW  F0
017FC:  MOVWF  FE9
017FE:  MOVLW  05
01800:  ADDWFC 03,W
01802:  MOVWF  FEA
01804:  MOVFF  FEF,5F5
01808:  MOVFF  5F5,00
0180C:  MOVF   xED,W
0180E:  MOVWF  01
01810:  BZ    181A
01812:  BCF    FD8.0
01814:  RRCF   00,F
01816:  DECFSZ 01,F
01818:  BRA    1812
0181A:  BTFSS  00.0
0181C:  BRA    185A
....................             { 
....................                for(l=0; l < size; ++l)    // These two loops change the 
0181E:  CLRF   xEE
01820:  MOVF   xEA,W
01822:  SUBWF  xEE,W
01824:  BC    185A
....................                {                          // character's size 
....................                   for(m=0; m < size; ++m) 
01826:  CLRF   xEF
01828:  MOVF   xEA,W
0182A:  SUBWF  xEF,W
0182C:  BC    1856
....................                   { 
....................                      glcd_pixel(x+m, y+k*size+l, color); // Draws the pixel 
0182E:  MOVF   xEF,W
01830:  ADDWF  xE6,W
01832:  MOVWF  xF5
01834:  MOVF   xED,W
01836:  MULWF  xEA
01838:  MOVF   FF3,W
0183A:  ADDWF  xE7,W
0183C:  ADDWF  xEE,W
0183E:  MOVWF  xF6
01840:  MOVFF  5F5,601
01844:  MOVFF  FE8,602
01848:  MOVFF  5EB,603
0184C:  MOVLB  0
0184E:  RCALL  1602
....................                   } 
01850:  MOVLB  5
01852:  INCF   xEF,F
01854:  BRA    1828
....................                } 
01856:  INCF   xEE,F
01858:  BRA    1820
....................             } 
....................          } 
0185A:  INCF   xED,F
0185C:  BRA    17F0
....................       } 
0185E:  INCF   xEC,F
01860:  MOVF   xEA,W
01862:  ADDWF  xE6,F
01864:  BRA    17E8
....................    } 
01866:  INCF   xE8,F
01868:  BTFSC  FD8.2
0186A:  INCF   xE9,F
0186C:  INCF   xE6,F
0186E:  MOVLB  0
01870:  BRA    16BE
01872:  MOVLB  5
.................... } 
01874:  MOVLB  0
01876:  RETLW  00
....................  
.................... #endif 
....................  
.................... #include "imagen.h" 
.................... const int8 Bombillo [64][16] = { 
.................... 0x00, 0x00, 0x00, 0x00, 0x00, 0x00, 0x00, 0x00, 0x00, 0x00, 0x00, 0x00, 0x00, 0x00, 0x00, 0x00, 
.................... 0x00, 0x00, 0x00, 0x00, 0x00, 0x00, 0x00, 0x00, 0x00, 0x00, 0x00, 0x00, 0x00, 0x00, 0x00, 0x00, 
.................... 0x00, 0x00, 0x00, 0x00, 0x00, 0x00, 0x00, 0x00, 0x00, 0x00, 0x00, 0x00, 0x00, 0x00, 0x00, 0x00, 
.................... 0x00, 0x00, 0x00, 0x00, 0x00, 0x00, 0x00, 0x00, 0x00, 0x00, 0x00, 0x00, 0x00, 0x00, 0x00, 0x00, 
.................... 0x00, 0x00, 0x00, 0x00, 0x00, 0x00, 0x00, 0x00, 0x00, 0x00, 0x00, 0x00, 0x00, 0x00, 0x00, 0x00, 
.................... 0x00, 0x00, 0x00, 0x00, 0x00, 0x00, 0x00, 0x00, 0x00, 0x00, 0x00, 0x00, 0x00, 0x00, 0x00, 0x00, 
.................... 0x00, 0x00, 0x00, 0x00, 0x00, 0x00, 0x00, 0x00, 0x00, 0x00, 0x00, 0x00, 0x00, 0x00, 0x00, 0x00, 
.................... 0x00, 0x00, 0x00, 0x00, 0x00, 0x00, 0x00, 0x00, 0x00, 0x00, 0x00, 0x00, 0x00, 0x00, 0x00, 0x00, 
.................... 0x00, 0x00, 0x00, 0x00, 0x00, 0x00, 0x00, 0x00, 0x00, 0x00, 0x00, 0x00, 0x00, 0x00, 0x00, 0x00, 
.................... 0x00, 0x00, 0x00, 0x00, 0x00, 0x00, 0x00, 0x00, 0x00, 0x00, 0x00, 0x00, 0x00, 0x00, 0x00, 0x00, 
.................... 0x00, 0x00, 0x00, 0x00, 0x00, 0x00, 0x00, 0x00, 0x00, 0x00, 0x00, 0x00, 0x00, 0x00, 0x00, 0x00, 
.................... 0x00, 0x00, 0x00, 0x00, 0x00, 0x00, 0x00, 0x00, 0x00, 0x00, 0x00, 0x00, 0x00, 0x00, 0x00, 0x00, 
.................... 0x00, 0x00, 0x00, 0x00, 0x00, 0x00, 0x00, 0x00, 0x00, 0x00, 0x00, 0x00, 0x00, 0x00, 0x00, 0x00, 
.................... 0x00, 0x00, 0x00, 0x00, 0x00, 0x00, 0x00, 0x00, 0x00, 0x00, 0x00, 0x00, 0x00, 0x00, 0x00, 0x00, 
.................... 0x00, 0x00, 0x00, 0x00, 0x00, 0x00, 0x00, 0x00, 0x00, 0x00, 0x00, 0x00, 0x00, 0x00, 0x00, 0x00, 
.................... 0x00, 0x00, 0x00, 0x00, 0x00, 0x00, 0x00, 0x00, 0x00, 0x00, 0x00, 0x00, 0x00, 0x08, 0x00, 0x80, 
.................... 0x00, 0x00, 0x00, 0x00, 0x00, 0x00, 0x00, 0x00, 0x00, 0x00, 0x00, 0x00, 0x00, 0x04, 0x01, 0x00, 
.................... 0x00, 0x00, 0x00, 0x00, 0x00, 0x00, 0x00, 0x00, 0x00, 0x00, 0x00, 0x00, 0x00, 0x02, 0x02, 0x00, 
.................... 0x00, 0x00, 0x00, 0x00, 0x00, 0x00, 0x00, 0x00, 0x00, 0x00, 0x00, 0x00, 0x00, 0x00, 0x78, 0x00, 
.................... 0x00, 0x00, 0x00, 0x00, 0x00, 0x00, 0x00, 0x00, 0x00, 0x00, 0x00, 0x00, 0x00, 0x00, 0x84, 0x00, 
.................... 0x00, 0x00, 0x00, 0x00, 0x00, 0x00, 0x00, 0x00, 0x00, 0x00, 0x00, 0x00, 0x00, 0x01, 0x02, 0x00, 
.................... 0x00, 0x00, 0x00, 0x00, 0x00, 0x00, 0x00, 0x00, 0x00, 0x00, 0x00, 0x00, 0x00, 0xF9, 0x02, 0xF8, 
.................... 0x00, 0x00, 0x00, 0x00, 0x00, 0x00, 0x00, 0x00, 0x00, 0x00, 0x00, 0x00, 0x00, 0x01, 0x02, 0x00, 
.................... 0x00, 0x00, 0x00, 0x00, 0x00, 0x00, 0x00, 0x00, 0x00, 0x00, 0x00, 0x00, 0x00, 0x01, 0x02, 0x00, 
.................... 0x00, 0x00, 0x00, 0x00, 0x00, 0x00, 0x00, 0x00, 0x00, 0x00, 0x00, 0x00, 0x00, 0x04, 0x84, 0x80, 
.................... 0x00, 0x00, 0x00, 0x00, 0x00, 0x00, 0x00, 0x00, 0x00, 0x00, 0x00, 0x00, 0x00, 0x08, 0x78, 0x40, 
.................... 0x00, 0x00, 0x00, 0x00, 0x00, 0x00, 0x00, 0x00, 0x00, 0x00, 0x00, 0x00, 0x00, 0x10, 0x48, 0x20, 
.................... 0x00, 0x00, 0x00, 0x00, 0x00, 0x00, 0x00, 0x00, 0x00, 0x00, 0x00, 0x00, 0x00, 0x20, 0x48, 0x10, 
.................... 0x00, 0x00, 0x00, 0x00, 0x00, 0x00, 0x00, 0x00, 0x00, 0x00, 0x00, 0x00, 0x00, 0x00, 0x78, 0x00, 
.................... 0x00, 0x00, 0x00, 0x00, 0x00, 0x00, 0x00, 0x00, 0x00, 0x00, 0x00, 0x00, 0x00, 0x00, 0x00, 0x00, 
.................... 0x00, 0x00, 0x00, 0x00, 0x00, 0x00, 0x00, 0x00, 0x00, 0x00, 0x00, 0x00, 0x00, 0x00, 0x00, 0x00, 
.................... 0x00, 0x00, 0x00, 0x00, 0x00, 0x00, 0x00, 0x00, 0x00, 0x00, 0x00, 0x00, 0x00, 0x00, 0x00, 0x00, 
.................... 0x00, 0x00, 0x00, 0x00, 0x00, 0x00, 0x00, 0x00, 0x00, 0x00, 0x00, 0x00, 0x00, 0x00, 0x00, 0x00, 
.................... 0x00, 0x00, 0x00, 0x00, 0x00, 0x00, 0x00, 0x00, 0x00, 0x00, 0x00, 0x00, 0x00, 0x00, 0x00, 0x00, 
.................... 0x00, 0x00, 0x00, 0x00, 0x00, 0x00, 0x00, 0x00, 0x00, 0x00, 0x00, 0x00, 0x00, 0x00, 0x00, 0x00, 
.................... 0x00, 0x00, 0x00, 0x00, 0x00, 0x00, 0x00, 0x00, 0x00, 0x00, 0x00, 0x00, 0x00, 0x00, 0x00, 0x00, 
.................... 0x00, 0x00, 0x00, 0x00, 0x00, 0x00, 0x00, 0x00, 0x00, 0x00, 0x00, 0x00, 0x00, 0x00, 0x00, 0x00, 
.................... 0x00, 0x00, 0x00, 0x00, 0x00, 0x00, 0x00, 0x00, 0x00, 0x00, 0x00, 0x00, 0x00, 0x00, 0x00, 0x00, 
.................... 0x00, 0x00, 0x00, 0x00, 0x00, 0x00, 0x00, 0x00, 0x00, 0x00, 0x00, 0x00, 0x00, 0x00, 0x00, 0x00, 
.................... 0x00, 0x00, 0x00, 0x00, 0x00, 0x00, 0x00, 0x00, 0x00, 0x00, 0x00, 0x00, 0x00, 0x00, 0x00, 0x00, 
.................... 0x00, 0x00, 0x00, 0x00, 0x00, 0x00, 0x00, 0x00, 0x00, 0x00, 0x00, 0x00, 0x00, 0x00, 0x00, 0x00, 
.................... 0x00, 0x00, 0x00, 0x00, 0x00, 0x00, 0x00, 0x00, 0x00, 0x00, 0x00, 0x00, 0x00, 0x00, 0x00, 0x00, 
.................... 0x00, 0x00, 0x00, 0x00, 0x00, 0x00, 0x00, 0x00, 0x00, 0x00, 0x00, 0x00, 0x00, 0x00, 0x00, 0x00, 
.................... 0x00, 0x00, 0x00, 0x00, 0x00, 0x00, 0x00, 0x00, 0x00, 0x00, 0x00, 0x00, 0x00, 0x00, 0x00, 0x00, 
.................... 0x00, 0x00, 0x00, 0x00, 0x00, 0x00, 0x00, 0x00, 0x00, 0x00, 0x00, 0x00, 0x00, 0x00, 0x00, 0x00, 
.................... 0x00, 0x00, 0x00, 0x00, 0x00, 0x00, 0x00, 0x00, 0x00, 0x00, 0x00, 0x00, 0x00, 0x00, 0x00, 0x00, 
.................... 0x00, 0x00, 0x00, 0x00, 0x00, 0x00, 0x00, 0x00, 0x00, 0x00, 0x00, 0x00, 0x00, 0x00, 0x00, 0x00, 
.................... 0x00, 0x00, 0x00, 0x00, 0x00, 0x00, 0x00, 0x00, 0x00, 0x00, 0x00, 0x00, 0x00, 0x00, 0x00, 0x00, 
.................... 0x00, 0x00, 0x00, 0x00, 0x00, 0x00, 0x00, 0x00, 0x00, 0x00, 0x00, 0x00, 0x00, 0x00, 0x00, 0x00, 
.................... 0x00, 0x00, 0x00, 0x00, 0x00, 0x00, 0x00, 0x00, 0x00, 0x00, 0x00, 0x00, 0x00, 0x00, 0x00, 0x00, 
.................... 0x00, 0x00, 0x00, 0x00, 0x00, 0x00, 0x00, 0x00, 0x00, 0x00, 0x00, 0x00, 0x00, 0x00, 0x00, 0x00, 
.................... 0x00, 0x00, 0x00, 0x00, 0x00, 0x00, 0x00, 0x00, 0x00, 0x00, 0x00, 0x00, 0x00, 0x00, 0x00, 0x00, 
.................... 0x00, 0x00, 0x00, 0x00, 0x00, 0x00, 0x00, 0x00, 0x00, 0x00, 0x00, 0x00, 0x00, 0x00, 0x00, 0x00, 
.................... 0x00, 0x00, 0x00, 0x00, 0x00, 0x00, 0x00, 0x00, 0x00, 0x00, 0x00, 0x00, 0x00, 0x00, 0x00, 0x00, 
.................... 0x00, 0x00, 0x00, 0x00, 0x00, 0x00, 0x00, 0x00, 0x00, 0x00, 0x00, 0x00, 0x00, 0x00, 0x00, 0x00, 
.................... 0x00, 0x00, 0x00, 0x00, 0x00, 0x00, 0x00, 0x00, 0x00, 0x00, 0x00, 0x00, 0x00, 0x00, 0x00, 0x00, 
.................... 0x00, 0x00, 0x00, 0x00, 0x00, 0x00, 0x00, 0x00, 0x00, 0x00, 0x00, 0x00, 0x00, 0x00, 0x00, 0x00, 
.................... 0x00, 0x00, 0x00, 0x00, 0x00, 0x00, 0x00, 0x00, 0x00, 0x00, 0x00, 0x00, 0x00, 0x00, 0x00, 0x00, 
.................... 0x00, 0x00, 0x00, 0x00, 0x00, 0x00, 0x00, 0x00, 0x00, 0x00, 0x00, 0x00, 0x00, 0x00, 0x00, 0x00, 
.................... 0x00, 0x00, 0x00, 0x00, 0x00, 0x00, 0x00, 0x00, 0x00, 0x00, 0x00, 0x00, 0x00, 0x00, 0x00, 0x00, 
.................... 0x00, 0x00, 0x00, 0x00, 0x00, 0x00, 0x00, 0x00, 0x00, 0x00, 0x00, 0x00, 0x00, 0x00, 0x00, 0x00, 
.................... 0x00, 0x00, 0x00, 0x00, 0x00, 0x00, 0x00, 0x00, 0x00, 0x00, 0x00, 0x00, 0x00, 0x00, 0x00, 0x00, 
.................... 0x00, 0x00, 0x00, 0x00, 0x00, 0x00, 0x00, 0x00, 0x00, 0x00, 0x00, 0x00, 0x00, 0x00, 0x00, 0x00, 
.................... 0x00, 0x00, 0x00, 0x00, 0x00, 0x00, 0x00, 0x00, 0x00, 0x00, 0x00, 0x00, 0x00, 0x00, 0x00, 0x00 
.................... }; 
....................  
.................... const int8 Tomai [64][16] = { 
.................... 0x00, 0x00, 0x00, 0x00, 0x00, 0x00, 0x00, 0x00, 0x00, 0x00, 0x00, 0x00, 0x00, 0x00, 0x00, 0x00, 
.................... 0x00, 0x00, 0x00, 0x00, 0x00, 0x00, 0x00, 0x00, 0x00, 0x00, 0x00, 0x00, 0x00, 0x00, 0x00, 0x00, 
.................... 0x00, 0x00, 0x00, 0x00, 0x00, 0x00, 0x00, 0x00, 0x00, 0x00, 0x00, 0x00, 0x00, 0x00, 0x00, 0x00, 
.................... 0x00, 0x00, 0x00, 0x00, 0x00, 0x00, 0x00, 0x00, 0x00, 0x00, 0x00, 0x00, 0x00, 0x00, 0x00, 0x00, 
.................... 0x00, 0x00, 0x00, 0x00, 0x00, 0x00, 0x00, 0x00, 0x00, 0x00, 0x00, 0x00, 0x00, 0x00, 0x00, 0x00, 
.................... 0x00, 0x00, 0x00, 0x00, 0x00, 0x00, 0x00, 0x00, 0x00, 0x00, 0x00, 0x00, 0x00, 0x00, 0x00, 0x00, 
.................... 0x00, 0x00, 0x00, 0x00, 0x00, 0x00, 0x00, 0x00, 0x00, 0x00, 0x00, 0x00, 0x00, 0x00, 0x00, 0x00, 
.................... 0x00, 0x00, 0x00, 0x00, 0x00, 0x00, 0x00, 0x00, 0x00, 0x00, 0x00, 0x00, 0x00, 0x00, 0x00, 0x00, 
.................... 0x00, 0x00, 0x00, 0x00, 0x00, 0x00, 0x00, 0x00, 0x00, 0x00, 0x00, 0x00, 0x00, 0x00, 0x00, 0x00, 
.................... 0x00, 0x00, 0x00, 0x00, 0x00, 0x00, 0x00, 0x00, 0x00, 0x00, 0x00, 0x00, 0x00, 0x00, 0x00, 0x00, 
.................... 0x00, 0x00, 0x00, 0x00, 0x00, 0x00, 0x00, 0x00, 0x00, 0x00, 0x00, 0x00, 0x00, 0x00, 0x00, 0x00, 
.................... 0x00, 0x00, 0x00, 0x00, 0x00, 0x00, 0x00, 0x00, 0x00, 0x00, 0x00, 0x00, 0x00, 0x00, 0x00, 0x00, 
.................... 0x00, 0x00, 0x00, 0x00, 0x00, 0x00, 0x00, 0x00, 0x00, 0x00, 0x00, 0x00, 0x00, 0x00, 0x00, 0x00, 
.................... 0x00, 0x00, 0x00, 0x00, 0x00, 0x00, 0x00, 0x00, 0x00, 0x00, 0x00, 0x00, 0x00, 0x00, 0x00, 0x00, 
.................... 0x00, 0x00, 0x00, 0x00, 0x00, 0x00, 0x00, 0x00, 0x00, 0x00, 0x00, 0x00, 0x00, 0x00, 0x00, 0x00, 
.................... 0x00, 0x00, 0x00, 0x00, 0x00, 0x00, 0x00, 0x00, 0x00, 0x00, 0x00, 0x00, 0x00, 0x00, 0x00, 0x00, 
.................... 0x00, 0x00, 0x00, 0x00, 0x00, 0x00, 0x00, 0x00, 0x00, 0x00, 0x00, 0x00, 0x00, 0x00, 0x00, 0x00, 
.................... 0x00, 0x00, 0x00, 0x00, 0x00, 0x00, 0x00, 0x00, 0x00, 0x00, 0x00, 0x00, 0x00, 0x00, 0x00, 0x00, 
.................... 0x00, 0x00, 0x00, 0x00, 0x00, 0x00, 0x00, 0x00, 0x00, 0x00, 0x00, 0x00, 0x00, 0x00, 0x00, 0x00, 
.................... 0x00, 0x00, 0x00, 0x00, 0x00, 0x00, 0x00, 0x00, 0x00, 0x00, 0x00, 0x00, 0x00, 0x00, 0x00, 0x00, 
.................... 0x00, 0x00, 0x00, 0x00, 0x00, 0x00, 0x00, 0x00, 0x00, 0x00, 0x00, 0x00, 0x00, 0x00, 0x00, 0x00, 
.................... 0x00, 0x00, 0x00, 0x00, 0x00, 0x00, 0x00, 0x00, 0x00, 0x00, 0x00, 0x00, 0x00, 0x00, 0x00, 0x00, 
.................... 0x00, 0x00, 0x00, 0x00, 0x00, 0x00, 0x00, 0x00, 0x00, 0x00, 0x00, 0x00, 0x00, 0x00, 0x00, 0x00, 
.................... 0x00, 0x00, 0x00, 0x00, 0x00, 0x00, 0x00, 0x00, 0x00, 0x00, 0x00, 0x00, 0x00, 0x00, 0x00, 0x00, 
.................... 0x00, 0x00, 0x00, 0x00, 0x00, 0x00, 0x00, 0x00, 0x00, 0x00, 0x00, 0x00, 0x00, 0x00, 0x00, 0x00, 
.................... 0x00, 0x00, 0x00, 0x00, 0x00, 0x00, 0x00, 0x00, 0x00, 0x00, 0x00, 0x00, 0x00, 0x00, 0x00, 0x00, 
.................... 0x00, 0x00, 0x00, 0x00, 0x00, 0x00, 0x00, 0x00, 0x00, 0x00, 0x00, 0x00, 0x00, 0x00, 0x00, 0x00, 
.................... 0x00, 0x00, 0x00, 0x00, 0x00, 0x00, 0x00, 0x00, 0x00, 0x00, 0x00, 0x00, 0x00, 0x00, 0x00, 0x00, 
.................... 0x00, 0x00, 0x00, 0x00, 0x00, 0x00, 0x00, 0x00, 0x00, 0x00, 0x00, 0x00, 0x00, 0x00, 0x00, 0x00, 
.................... 0x00, 0x00, 0x00, 0x00, 0x00, 0x00, 0x00, 0x00, 0x00, 0x00, 0x00, 0x00, 0x00, 0x00, 0x00, 0x00, 
.................... 0x00, 0x00, 0x00, 0x00, 0x00, 0x00, 0x00, 0x00, 0x00, 0x00, 0x00, 0x00, 0x00, 0x7F, 0xFF, 0xF8, 
.................... 0x00, 0x00, 0x00, 0x00, 0x00, 0x00, 0x00, 0x00, 0x00, 0x00, 0x00, 0x00, 0x00, 0x40, 0x00, 0x08, 
.................... 0x00, 0x00, 0x00, 0x00, 0x00, 0x00, 0x00, 0x00, 0x00, 0x00, 0x00, 0x00, 0x00, 0x47, 0x03, 0x88, 
.................... 0x00, 0x00, 0x00, 0x00, 0x00, 0x00, 0x00, 0x00, 0x00, 0x00, 0x00, 0x00, 0x00, 0x45, 0x02, 0x88, 
.................... 0x00, 0x00, 0x00, 0x00, 0x00, 0x00, 0x00, 0x00, 0x00, 0x00, 0x00, 0x00, 0x00, 0x45, 0x02, 0x88, 
.................... 0x00, 0x00, 0x00, 0x00, 0x00, 0x00, 0x00, 0x00, 0x00, 0x00, 0x00, 0x00, 0x00, 0x45, 0x02, 0x88, 
.................... 0x00, 0x00, 0x00, 0x00, 0x00, 0x00, 0x00, 0x00, 0x00, 0x00, 0x00, 0x00, 0x00, 0x45, 0x02, 0x88, 
.................... 0x00, 0x00, 0x00, 0x00, 0x00, 0x00, 0x00, 0x00, 0x00, 0x00, 0x00, 0x00, 0x00, 0x47, 0x03, 0x88, 
.................... 0x00, 0x00, 0x00, 0x00, 0x00, 0x00, 0x00, 0x00, 0x00, 0x00, 0x00, 0x00, 0x00, 0x40, 0x00, 0x08, 
.................... 0x00, 0x00, 0x00, 0x00, 0x00, 0x00, 0x00, 0x00, 0x00, 0x00, 0x00, 0x00, 0x00, 0x40, 0xFC, 0x08, 
.................... 0x00, 0x00, 0x00, 0x00, 0x00, 0x00, 0x00, 0x00, 0x00, 0x00, 0x00, 0x00, 0x00, 0x40, 0x84, 0x08, 
.................... 0x00, 0x00, 0x00, 0x00, 0x00, 0x00, 0x00, 0x00, 0x00, 0x00, 0x00, 0x00, 0x00, 0x40, 0x84, 0x08, 
.................... 0x00, 0x00, 0x00, 0x00, 0x00, 0x00, 0x00, 0x00, 0x00, 0x00, 0x00, 0x00, 0x00, 0x40, 0xFC, 0x08, 
.................... 0x00, 0x00, 0x00, 0x00, 0x00, 0x00, 0x00, 0x00, 0x00, 0x00, 0x00, 0x00, 0x00, 0x40, 0x00, 0x08, 
.................... 0x00, 0x00, 0x00, 0x00, 0x00, 0x00, 0x00, 0x00, 0x00, 0x00, 0x00, 0x00, 0x00, 0x7F, 0xFF, 0xF8, 
.................... 0x00, 0x00, 0x00, 0x00, 0x00, 0x00, 0x00, 0x00, 0x00, 0x00, 0x00, 0x00, 0x00, 0x00, 0x00, 0x00, 
.................... 0x00, 0x00, 0x00, 0x00, 0x00, 0x00, 0x00, 0x00, 0x00, 0x00, 0x00, 0x00, 0x00, 0x00, 0x00, 0x00, 
.................... 0x00, 0x00, 0x00, 0x00, 0x00, 0x00, 0x00, 0x00, 0x00, 0x00, 0x00, 0x00, 0x00, 0x00, 0x00, 0x00, 
.................... 0x00, 0x00, 0x00, 0x00, 0x00, 0x00, 0x00, 0x00, 0x00, 0x00, 0x00, 0x00, 0x00, 0x00, 0x00, 0x00, 
.................... 0x00, 0x00, 0x00, 0x00, 0x00, 0x00, 0x00, 0x00, 0x00, 0x00, 0x00, 0x00, 0x00, 0x00, 0x00, 0x00, 
.................... 0x00, 0x00, 0x00, 0x00, 0x00, 0x00, 0x00, 0x00, 0x00, 0x00, 0x00, 0x00, 0x00, 0x00, 0x00, 0x00, 
.................... 0x00, 0x00, 0x00, 0x00, 0x00, 0x00, 0x00, 0x00, 0x00, 0x00, 0x00, 0x00, 0x00, 0x00, 0x00, 0x00, 
.................... 0x00, 0x00, 0x00, 0x00, 0x00, 0x00, 0x00, 0x00, 0x00, 0x00, 0x00, 0x00, 0x00, 0x00, 0x00, 0x00, 
.................... 0x00, 0x00, 0x00, 0x00, 0x00, 0x00, 0x00, 0x00, 0x00, 0x00, 0x00, 0x00, 0x00, 0x00, 0x00, 0x00, 
.................... 0x00, 0x00, 0x00, 0x00, 0x00, 0x00, 0x00, 0x00, 0x00, 0x00, 0x00, 0x00, 0x00, 0x00, 0x00, 0x00, 
.................... 0x00, 0x00, 0x00, 0x00, 0x00, 0x00, 0x00, 0x00, 0x00, 0x00, 0x00, 0x00, 0x00, 0x00, 0x00, 0x00, 
.................... 0x00, 0x00, 0x00, 0x00, 0x00, 0x00, 0x00, 0x00, 0x00, 0x00, 0x00, 0x00, 0x00, 0x00, 0x00, 0x00, 
.................... 0x00, 0x00, 0x00, 0x00, 0x00, 0x00, 0x00, 0x00, 0x00, 0x00, 0x00, 0x00, 0x00, 0x00, 0x00, 0x00, 
.................... 0x00, 0x00, 0x00, 0x00, 0x00, 0x00, 0x00, 0x00, 0x00, 0x00, 0x00, 0x00, 0x00, 0x00, 0x00, 0x00, 
.................... 0x00, 0x00, 0x00, 0x00, 0x00, 0x00, 0x00, 0x00, 0x00, 0x00, 0x00, 0x00, 0x00, 0x00, 0x00, 0x00, 
.................... 0x00, 0x00, 0x00, 0x00, 0x00, 0x00, 0x00, 0x00, 0x00, 0x00, 0x00, 0x00, 0x00, 0x00, 0x00, 0x00, 
.................... 0x00, 0x00, 0x00, 0x00, 0x00, 0x00, 0x00, 0x00, 0x00, 0x00, 0x00, 0x00, 0x00, 0x00, 0x00, 0x00, 
.................... 0x00, 0x00, 0x00, 0x00, 0x00, 0x00, 0x00, 0x00, 0x00, 0x00, 0x00, 0x00, 0x00, 0x00, 0x00, 0x00, 
.................... 0x00, 0x00, 0x00, 0x00, 0x00, 0x00, 0x00, 0x00, 0x00, 0x00, 0x00, 0x00, 0x00, 0x00, 0x00, 0x00 
.................... }; 
....................  
.................... const int8 Ventilador [64][16] = { 
.................... 0x00, 0x00, 0x00, 0x00, 0x00, 0x00, 0x00, 0x00, 0x00, 0x00, 0x00, 0x00, 0x00, 0x00, 0x00, 0x00, 
.................... 0x00, 0x00, 0x00, 0x00, 0x00, 0x00, 0x00, 0x00, 0x00, 0x00, 0x00, 0x00, 0x00, 0x00, 0x00, 0x00, 
.................... 0x00, 0x00, 0x00, 0x00, 0x00, 0x00, 0x00, 0x00, 0x00, 0x00, 0x00, 0x00, 0x00, 0x00, 0x00, 0x00, 
.................... 0x00, 0x00, 0x00, 0x00, 0x00, 0x00, 0x00, 0x00, 0x00, 0x00, 0x00, 0x00, 0x00, 0x00, 0x00, 0x00, 
.................... 0x00, 0x00, 0x00, 0x00, 0x00, 0x00, 0x00, 0x00, 0x00, 0x00, 0x00, 0x00, 0x00, 0x00, 0x00, 0x00, 
.................... 0x00, 0x00, 0x00, 0x00, 0x00, 0x00, 0x00, 0x00, 0x00, 0x00, 0x00, 0x00, 0x00, 0x00, 0x00, 0x00, 
.................... 0x00, 0x00, 0x00, 0x00, 0x00, 0x00, 0x00, 0x00, 0x00, 0x00, 0x00, 0x00, 0x00, 0x00, 0x00, 0x00, 
.................... 0x00, 0x00, 0x00, 0x00, 0x00, 0x00, 0x00, 0x00, 0x00, 0x00, 0x00, 0x00, 0x00, 0x00, 0x00, 0x00, 
.................... 0x00, 0x00, 0x00, 0x00, 0x00, 0x00, 0x00, 0x00, 0x00, 0x00, 0x00, 0x00, 0x00, 0x00, 0x00, 0x00, 
.................... 0x00, 0x00, 0x00, 0x00, 0x00, 0x00, 0x00, 0x00, 0x00, 0x00, 0x00, 0x00, 0x00, 0x00, 0x00, 0x00, 
.................... 0x00, 0x00, 0x00, 0x00, 0x00, 0x00, 0x00, 0x00, 0x00, 0x00, 0x00, 0x00, 0x00, 0x00, 0x00, 0x00, 
.................... 0x00, 0x00, 0x00, 0x00, 0x00, 0x00, 0x00, 0x00, 0x00, 0x00, 0x00, 0x00, 0x00, 0x00, 0x00, 0x00, 
.................... 0x00, 0x00, 0x00, 0x00, 0x00, 0x00, 0x00, 0x00, 0x00, 0x00, 0x00, 0x00, 0x00, 0x00, 0x00, 0x00, 
.................... 0x00, 0x00, 0x00, 0x00, 0x00, 0x00, 0x00, 0x00, 0x00, 0x00, 0x00, 0x00, 0x00, 0x00, 0x00, 0x00, 
.................... 0x00, 0x00, 0x00, 0x00, 0x00, 0x00, 0x00, 0x00, 0x00, 0x00, 0x00, 0x00, 0x00, 0x00, 0x00, 0x00, 
.................... 0x00, 0x00, 0x00, 0x00, 0x00, 0x00, 0x00, 0x00, 0x00, 0x00, 0x00, 0x00, 0x00, 0x00, 0x00, 0x00, 
.................... 0x00, 0x00, 0x00, 0x00, 0x00, 0x00, 0x00, 0x00, 0x00, 0x00, 0x00, 0x00, 0x00, 0x00, 0x00, 0x00, 
.................... 0x00, 0x00, 0x00, 0x00, 0x00, 0x00, 0x00, 0x00, 0x00, 0x00, 0x00, 0x00, 0x00, 0x00, 0x00, 0x00, 
.................... 0x00, 0x00, 0x00, 0x00, 0x00, 0x00, 0x00, 0x00, 0x00, 0x00, 0x00, 0x00, 0x00, 0x00, 0x00, 0x00, 
.................... 0x00, 0x00, 0x00, 0x00, 0x00, 0x00, 0x00, 0x00, 0x00, 0x00, 0x00, 0x00, 0x00, 0x00, 0x00, 0x00, 
.................... 0x00, 0x00, 0x00, 0x00, 0x00, 0x00, 0x00, 0x00, 0x00, 0x00, 0x00, 0x00, 0x00, 0x00, 0x00, 0x00, 
.................... 0x00, 0x00, 0x00, 0x00, 0x00, 0x00, 0x00, 0x00, 0x00, 0x00, 0x00, 0x00, 0x00, 0x00, 0x00, 0x00, 
.................... 0x00, 0x00, 0x00, 0x00, 0x00, 0x00, 0x00, 0x00, 0x00, 0x00, 0x00, 0x00, 0x00, 0x00, 0x00, 0x00, 
.................... 0x00, 0x00, 0x00, 0x00, 0x00, 0x00, 0x00, 0x00, 0x00, 0x00, 0x00, 0x00, 0x00, 0x00, 0x00, 0x00, 
.................... 0x00, 0x00, 0x00, 0x00, 0x00, 0x00, 0x00, 0x00, 0x00, 0x00, 0x00, 0x00, 0x00, 0x00, 0x00, 0x00, 
.................... 0x00, 0x00, 0x00, 0x00, 0x00, 0x00, 0x00, 0x00, 0x00, 0x00, 0x00, 0x00, 0x00, 0x00, 0x00, 0x00, 
.................... 0x00, 0x00, 0x00, 0x00, 0x00, 0x00, 0x00, 0x00, 0x00, 0x00, 0x00, 0x00, 0x00, 0x00, 0x00, 0x00, 
.................... 0x00, 0x00, 0x00, 0x00, 0x00, 0x00, 0x00, 0x00, 0x00, 0x00, 0x00, 0x00, 0x00, 0x00, 0x00, 0x00, 
.................... 0x00, 0x00, 0x00, 0x00, 0x00, 0x00, 0x00, 0x00, 0x00, 0x00, 0x00, 0x00, 0x00, 0x00, 0x00, 0x00, 
.................... 0x00, 0x00, 0x00, 0x00, 0x00, 0x00, 0x00, 0x00, 0x00, 0x00, 0x00, 0x00, 0x00, 0x00, 0x00, 0x00, 
.................... 0x00, 0x00, 0x00, 0x00, 0x00, 0x00, 0x00, 0x00, 0x00, 0x00, 0x00, 0x00, 0x00, 0x00, 0x00, 0x00, 
.................... 0x00, 0x00, 0x00, 0x00, 0x00, 0x00, 0x00, 0x00, 0x00, 0x00, 0x00, 0x00, 0x00, 0x00, 0x00, 0x00, 
.................... 0x00, 0x00, 0x00, 0x00, 0x00, 0x00, 0x00, 0x00, 0x00, 0x00, 0x00, 0x00, 0x00, 0x00, 0x00, 0x00, 
.................... 0x00, 0x00, 0x00, 0x00, 0x00, 0x00, 0x00, 0x00, 0x00, 0x00, 0x00, 0x00, 0x00, 0x00, 0x00, 0x00, 
.................... 0x00, 0x00, 0x00, 0x00, 0x00, 0x00, 0x00, 0x00, 0x00, 0x00, 0x00, 0x00, 0x00, 0x00, 0x00, 0x00, 
.................... 0x00, 0x00, 0x00, 0x00, 0x00, 0x00, 0x00, 0x00, 0x00, 0x00, 0x00, 0x00, 0x00, 0x00, 0x00, 0x00, 
.................... 0x00, 0x00, 0x00, 0x00, 0x00, 0x00, 0x00, 0x00, 0x00, 0x00, 0x00, 0x00, 0x00, 0x00, 0x00, 0x00, 
.................... 0x00, 0x00, 0x00, 0x00, 0x00, 0x00, 0x00, 0x00, 0x00, 0x00, 0x00, 0x00, 0x00, 0x00, 0x00, 0x00, 
.................... 0x00, 0x00, 0x00, 0x00, 0x00, 0x00, 0x00, 0x00, 0x00, 0x00, 0x00, 0x00, 0x00, 0x00, 0x00, 0x00, 
.................... 0x00, 0x00, 0x00, 0x00, 0x00, 0x00, 0x00, 0x00, 0x00, 0x00, 0x00, 0x00, 0x00, 0x00, 0x00, 0x00, 
.................... 0x00, 0x00, 0x00, 0x00, 0x00, 0x00, 0x00, 0x00, 0x00, 0x00, 0x00, 0x00, 0x00, 0x00, 0x00, 0x00, 
.................... 0x00, 0x00, 0x00, 0x00, 0x00, 0x00, 0x00, 0x00, 0x00, 0x00, 0x00, 0x00, 0x00, 0x00, 0x00, 0x00, 
.................... 0x00, 0x00, 0x00, 0x00, 0x00, 0x00, 0x00, 0x00, 0x00, 0x00, 0x00, 0x00, 0x00, 0x00, 0x00, 0x00, 
.................... 0x00, 0x00, 0x00, 0x00, 0x00, 0x00, 0x00, 0x00, 0x00, 0x00, 0x00, 0x00, 0x00, 0x00, 0x00, 0x00, 
.................... 0x00, 0x00, 0x00, 0x00, 0x00, 0x00, 0x00, 0x00, 0x00, 0x00, 0x00, 0x00, 0x00, 0x00, 0x00, 0x00, 
.................... 0x00, 0x00, 0x00, 0x00, 0x00, 0x00, 0x00, 0x00, 0x00, 0x00, 0x00, 0x00, 0x00, 0x00, 0x00, 0x00, 
.................... 0x00, 0x00, 0x00, 0x00, 0x00, 0x00, 0x00, 0x00, 0x00, 0x00, 0x00, 0x00, 0x00, 0x00, 0x60, 0x00, 
.................... 0x00, 0x00, 0x00, 0x00, 0x00, 0x00, 0x00, 0x00, 0x00, 0x00, 0x00, 0x00, 0x00, 0x00, 0xF0, 0x00, 
.................... 0x00, 0x00, 0x00, 0x00, 0x00, 0x00, 0x00, 0x00, 0x00, 0x00, 0x00, 0x00, 0x00, 0x01, 0xF8, 0x00, 
.................... 0x00, 0x00, 0x00, 0x00, 0x00, 0x00, 0x00, 0x00, 0x00, 0x00, 0x00, 0x00, 0x00, 0x01, 0xF8, 0x00, 
.................... 0x00, 0x00, 0x00, 0x00, 0x00, 0x00, 0x00, 0x00, 0x00, 0x00, 0x00, 0x00, 0x00, 0x01, 0xF8, 0x00, 
.................... 0x00, 0x00, 0x00, 0x00, 0x00, 0x00, 0x00, 0x00, 0x00, 0x00, 0x00, 0x00, 0x00, 0x00, 0xF0, 0x00, 
.................... 0x00, 0x00, 0x00, 0x00, 0x00, 0x00, 0x00, 0x00, 0x00, 0x00, 0x00, 0x00, 0x00, 0x38, 0x71, 0xC0, 
.................... 0x00, 0x00, 0x00, 0x00, 0x00, 0x00, 0x00, 0x00, 0x00, 0x00, 0x00, 0x00, 0x00, 0x7C, 0x93, 0xE0, 
.................... 0x00, 0x00, 0x00, 0x00, 0x00, 0x00, 0x00, 0x00, 0x00, 0x00, 0x00, 0x00, 0x00, 0xFF, 0x0F, 0xF0, 
.................... 0x00, 0x00, 0x00, 0x00, 0x00, 0x00, 0x00, 0x00, 0x00, 0x00, 0x00, 0x00, 0x00, 0xFF, 0x0F, 0xF0, 
.................... 0x00, 0x00, 0x00, 0x00, 0x00, 0x00, 0x00, 0x00, 0x00, 0x00, 0x00, 0x00, 0x00, 0x7D, 0x93, 0xE0, 
.................... 0x00, 0x00, 0x00, 0x00, 0x00, 0x00, 0x00, 0x00, 0x00, 0x00, 0x00, 0x00, 0x00, 0x38, 0x61, 0xC0, 
.................... 0x00, 0x00, 0x00, 0x00, 0x00, 0x00, 0x00, 0x00, 0x00, 0x00, 0x00, 0x00, 0x00, 0x00, 0xF0, 0x00, 
.................... 0x00, 0x00, 0x00, 0x00, 0x00, 0x00, 0x00, 0x00, 0x00, 0x00, 0x00, 0x00, 0x00, 0x01, 0xF8, 0x00, 
.................... 0x00, 0x00, 0x00, 0x00, 0x00, 0x00, 0x00, 0x00, 0x00, 0x00, 0x00, 0x00, 0x00, 0x01, 0xF8, 0x00, 
.................... 0x00, 0x00, 0x00, 0x00, 0x00, 0x00, 0x00, 0x00, 0x00, 0x00, 0x00, 0x00, 0x00, 0x01, 0xF8, 0x00, 
.................... 0x00, 0x00, 0x00, 0x00, 0x00, 0x00, 0x00, 0x00, 0x00, 0x00, 0x00, 0x00, 0x00, 0x00, 0xF0, 0x00, 
.................... 0x00, 0x00, 0x00, 0x00, 0x00, 0x00, 0x00, 0x00, 0x00, 0x00, 0x00, 0x00, 0x00, 0x00, 0x60, 0x00 
.................... }; 
....................  
.................... #include "FuncionesDisplay.h" 
....................  
.................... typedef struct{ 
....................    char Letra[20]; 
.................... }MENUU; 
....................  
.................... MENUU Menus; 
....................   
.................... void displayContrasena(int digito, int x, int y, int sombreado) 
.................... { 
....................    char voltage[9]; 
....................    sprintf(voltage, "%i", digito); 
*
04A80:  MOVLW  05
04A82:  MOVLB  4
04A84:  MOVWF  x2C
04A86:  MOVLW  DB
04A88:  MOVWF  x2B
04A8A:  MOVFF  5D7,5E4
04A8E:  MOVLW  1F
04A90:  MOVLB  5
04A92:  MOVWF  xE5
04A94:  MOVLB  0
04A96:  RCALL  4780
....................     
....................    if(sombreado==1) 
04A98:  MOVLB  5
04A9A:  DECFSZ xDA,W
04A9C:  BRA    4AEE
....................       {glcd_rect(x, y, x+18, y+24, YES, ON);glcd_text57(x+2, y+1, voltage, 2, OFF);} 
04A9E:  MOVLW  12
04AA0:  ADDWF  xD8,W
04AA2:  MOVWF  xE4
04AA4:  MOVLW  18
04AA6:  ADDWF  xD9,W
04AA8:  MOVWF  xE5
04AAA:  MOVFF  5D8,5E6
04AAE:  MOVFF  5D9,5E7
04AB2:  MOVFF  5E4,5E8
04AB6:  MOVWF  xE9
04AB8:  MOVLW  01
04ABA:  MOVWF  xEA
04ABC:  MOVWF  xEB
04ABE:  MOVLB  0
04AC0:  RCALL  49BC
04AC2:  MOVLW  02
04AC4:  MOVLB  5
04AC6:  ADDWF  xD8,W
04AC8:  MOVWF  xE4
04ACA:  MOVLW  01
04ACC:  ADDWF  xD9,W
04ACE:  MOVWF  xE5
04AD0:  MOVFF  5E4,5E6
04AD4:  MOVWF  xE7
04AD6:  MOVLW  05
04AD8:  MOVWF  xE9
04ADA:  MOVLW  DB
04ADC:  MOVWF  xE8
04ADE:  MOVLW  02
04AE0:  MOVWF  xEA
04AE2:  CLRF   xEB
04AE4:  MOVLB  0
04AE6:  CALL   16BE
....................    else    
04AEA:  BRA    4B3A
04AEC:  MOVLB  5
....................       {glcd_rect(x, y, x+18, y+24, NO, OFF);glcd_text57(x+2, y+1, voltage, 2, ON);} 
04AEE:  MOVLW  12
04AF0:  ADDWF  xD8,W
04AF2:  MOVWF  xE4
04AF4:  MOVLW  18
04AF6:  ADDWF  xD9,W
04AF8:  MOVWF  xE5
04AFA:  MOVFF  5D8,5E6
04AFE:  MOVFF  5D9,5E7
04B02:  MOVFF  5E4,5E8
04B06:  MOVWF  xE9
04B08:  CLRF   xEA
04B0A:  CLRF   xEB
04B0C:  MOVLB  0
04B0E:  RCALL  49BC
04B10:  MOVLW  02
04B12:  MOVLB  5
04B14:  ADDWF  xD8,W
04B16:  MOVWF  xE4
04B18:  MOVLW  01
04B1A:  ADDWF  xD9,W
04B1C:  MOVWF  xE5
04B1E:  MOVFF  5E4,5E6
04B22:  MOVWF  xE7
04B24:  MOVLW  05
04B26:  MOVWF  xE9
04B28:  MOVLW  DB
04B2A:  MOVWF  xE8
04B2C:  MOVLW  02
04B2E:  MOVWF  xEA
04B30:  MOVLW  01
04B32:  MOVWF  xEB
04B34:  MOVLB  0
04B36:  CALL   16BE
....................  
.................... } 
04B3A:  RETLW  00
....................  
.................... void displayTiempo(int digito, int x, int y, int sombreado, int tamano) 
.................... { 
....................    char voltage[9]; 
....................    sprintf(voltage, "%i", digito); 
*
0530E:  MOVLW  05
05310:  MOVLB  4
05312:  MOVWF  x2C
05314:  MOVLW  D2
05316:  MOVWF  x2B
05318:  MOVFF  5CD,5E4
0531C:  MOVLW  1F
0531E:  MOVLB  5
05320:  MOVWF  xE5
05322:  MOVLB  0
05324:  CALL   4780
....................     
....................    if(sombreado==1) 
05328:  MOVLB  5
0532A:  DECFSZ xD0,W
0532C:  BRA    5386
....................       {glcd_rect(x, y, x+(tamano*6), y+(tamano*8), YES, ON);glcd_text57(x+2, y+1, voltage, tamano, OFF);} 
0532E:  MOVF   xD1,W
05330:  MULLW  06
05332:  MOVF   FF3,W
05334:  ADDWF  xCE,W
05336:  MOVWF  xDB
05338:  MOVF   xD1,W
0533A:  MULLW  08
0533C:  MOVF   FF3,W
0533E:  ADDWF  xCF,W
05340:  MOVWF  xDC
05342:  MOVFF  5CE,5E6
05346:  MOVFF  5CF,5E7
0534A:  MOVFF  5DB,5E8
0534E:  MOVWF  xE9
05350:  MOVLW  01
05352:  MOVWF  xEA
05354:  MOVWF  xEB
05356:  MOVLB  0
05358:  CALL   49BC
0535C:  MOVLW  02
0535E:  MOVLB  5
05360:  ADDWF  xCE,W
05362:  MOVWF  xDB
05364:  MOVLW  01
05366:  ADDWF  xCF,W
05368:  MOVWF  xDC
0536A:  MOVFF  5DB,5E6
0536E:  MOVWF  xE7
05370:  MOVLW  05
05372:  MOVWF  xE9
05374:  MOVLW  D2
05376:  MOVWF  xE8
05378:  MOVFF  5D1,5EA
0537C:  CLRF   xEB
0537E:  MOVLB  0
05380:  CALL   16BE
05384:  MOVLB  5
....................    if(sombreado==0) 
05386:  MOVF   xD0,F
05388:  BNZ   53E4
....................       {glcd_rect(x, y, x+(tamano*6), y+(tamano*8), YES, OFF);glcd_text57(x+2, y+1, voltage, tamano, ON);} 
0538A:  MOVF   xD1,W
0538C:  MULLW  06
0538E:  MOVF   FF3,W
05390:  ADDWF  xCE,W
05392:  MOVWF  xDB
05394:  MOVF   xD1,W
05396:  MULLW  08
05398:  MOVF   FF3,W
0539A:  ADDWF  xCF,W
0539C:  MOVWF  xDC
0539E:  MOVFF  5CE,5E6
053A2:  MOVFF  5CF,5E7
053A6:  MOVFF  5DB,5E8
053AA:  MOVWF  xE9
053AC:  MOVLW  01
053AE:  MOVWF  xEA
053B0:  CLRF   xEB
053B2:  MOVLB  0
053B4:  CALL   49BC
053B8:  MOVLW  02
053BA:  MOVLB  5
053BC:  ADDWF  xCE,W
053BE:  MOVWF  xDB
053C0:  MOVLW  01
053C2:  ADDWF  xCF,W
053C4:  MOVWF  xDC
053C6:  MOVFF  5DB,5E6
053CA:  MOVWF  xE7
053CC:  MOVLW  05
053CE:  MOVWF  xE9
053D0:  MOVLW  D2
053D2:  MOVWF  xE8
053D4:  MOVFF  5D1,5EA
053D8:  MOVLW  01
053DA:  MOVWF  xEB
053DC:  MOVLB  0
053DE:  CALL   16BE
053E2:  MOVLB  5
....................  
.................... } 
053E4:  MOVLB  0
053E6:  RETLW  00
....................  
.................... void displayMenu(char palabra[100], int x, int y, int sombreado, int tamano) 
.................... { 
....................    strcpy(Menus.Letra,palabra); 
*
04B3C:  MOVLB  5
04B3E:  MOVFF  5D5,01
04B42:  MOVFF  5D6,03
04B46:  MOVFF  5D5,5DB
04B4A:  MOVFF  5D6,5DC
04B4E:  MOVLW  04
04B50:  MOVWF  FEA
04B52:  MOVLW  17
04B54:  MOVWF  FE9
04B56:  MOVFF  5D6,FE2
04B5A:  MOVFF  5D5,FE1
04B5E:  MOVF   FE7,F
04B60:  MOVFF  FE6,FEE
04B64:  BNZ   4B5E
....................    if(sombreado==1) 
04B66:  DECFSZ xD9,W
04B68:  BRA    4BB6
....................       {glcd_rect(0, y, 127, y+(tamano*8), YES, ON);glcd_text57(x+1, y+1, Menus.Letra, tamano, OFF);} 
04B6A:  MOVF   xDA,W
04B6C:  MULLW  08
04B6E:  MOVF   FF3,W
04B70:  ADDWF  xD8,W
04B72:  MOVWF  xDB
04B74:  CLRF   xE6
04B76:  MOVFF  5D8,5E7
04B7A:  MOVLW  7F
04B7C:  MOVWF  xE8
04B7E:  MOVFF  5DB,5E9
04B82:  MOVLW  01
04B84:  MOVWF  xEA
04B86:  MOVWF  xEB
04B88:  MOVLB  0
04B8A:  RCALL  49BC
04B8C:  MOVLW  01
04B8E:  MOVLB  5
04B90:  ADDWF  xD7,W
04B92:  MOVWF  xDB
04B94:  MOVLW  01
04B96:  ADDWF  xD8,W
04B98:  MOVWF  xDC
04B9A:  MOVFF  5DB,5E6
04B9E:  MOVWF  xE7
04BA0:  MOVLW  04
04BA2:  MOVWF  xE9
04BA4:  MOVLW  17
04BA6:  MOVWF  xE8
04BA8:  MOVFF  5DA,5EA
04BAC:  CLRF   xEB
04BAE:  MOVLB  0
04BB0:  CALL   16BE
04BB4:  MOVLB  5
....................    if(sombreado==0) 
04BB6:  MOVF   xD9,F
04BB8:  BNZ   4C08
....................       {glcd_rect(0, y, 127, y+(tamano*8), YES, OFF);glcd_text57(x+1, y+1, Menus.Letra, tamano, ON);} 
04BBA:  MOVF   xDA,W
04BBC:  MULLW  08
04BBE:  MOVF   FF3,W
04BC0:  ADDWF  xD8,W
04BC2:  MOVWF  xDB
04BC4:  CLRF   xE6
04BC6:  MOVFF  5D8,5E7
04BCA:  MOVLW  7F
04BCC:  MOVWF  xE8
04BCE:  MOVFF  5DB,5E9
04BD2:  MOVLW  01
04BD4:  MOVWF  xEA
04BD6:  CLRF   xEB
04BD8:  MOVLB  0
04BDA:  RCALL  49BC
04BDC:  MOVLW  01
04BDE:  MOVLB  5
04BE0:  ADDWF  xD7,W
04BE2:  MOVWF  xDB
04BE4:  MOVLW  01
04BE6:  ADDWF  xD8,W
04BE8:  MOVWF  xDC
04BEA:  MOVFF  5DB,5E6
04BEE:  MOVWF  xE7
04BF0:  MOVLW  04
04BF2:  MOVWF  xE9
04BF4:  MOVLW  17
04BF6:  MOVWF  xE8
04BF8:  MOVFF  5DA,5EA
04BFC:  MOVLW  01
04BFE:  MOVWF  xEB
04C00:  MOVLB  0
04C02:  CALL   16BE
04C06:  MOVLB  5
....................  
.................... } 
04C08:  MOVLB  0
04C0A:  RETLW  00
....................  
.................... void displayfloat(float adc,int x,int y,int sombreado, int tamano) { 
....................    char voltage[9];     
....................       sprintf(voltage, "%2.0fC",adc); // Converts adc to text 
*
05890:  MOVLW  05
05892:  MOVLB  4
05894:  MOVWF  x2C
05896:  MOVLW  D9
05898:  MOVWF  x2B
0589A:  MOVLW  01
0589C:  MOVWF  FE9
0589E:  MOVFF  5D4,5E5
058A2:  MOVFF  5D3,5E4
058A6:  MOVFF  5D2,5E3
058AA:  MOVFF  5D1,5E2
058AE:  MOVLB  5
058B0:  CLRF   xE6
058B2:  MOVLB  0
058B4:  BRA    56D8
058B6:  MOVLW  B0
058B8:  MOVLB  5
058BA:  MOVWF  xEF
058BC:  MOVLB  0
058BE:  CALL   475E
058C2:  MOVLW  43
058C4:  MOVLB  5
058C6:  MOVWF  xEF
058C8:  MOVLB  0
058CA:  CALL   475E
....................        
....................    if(sombreado==1) 
058CE:  MOVLB  5
058D0:  DECFSZ xD7,W
058D2:  BRA    592C
....................       {glcd_rect(x, y, x+(tamano*20), y+(tamano*8), YES, ON);glcd_text57(x+2, y+1, voltage, tamano, OFF);} 
058D4:  MOVF   xD8,W
058D6:  MULLW  14
058D8:  MOVF   FF3,W
058DA:  ADDWF  xD5,W
058DC:  MOVWF  xE2
058DE:  MOVF   xD8,W
058E0:  MULLW  08
058E2:  MOVF   FF3,W
058E4:  ADDWF  xD6,W
058E6:  MOVWF  xE3
058E8:  MOVFF  5D5,5E6
058EC:  MOVFF  5D6,5E7
058F0:  MOVFF  5E2,5E8
058F4:  MOVWF  xE9
058F6:  MOVLW  01
058F8:  MOVWF  xEA
058FA:  MOVWF  xEB
058FC:  MOVLB  0
058FE:  CALL   49BC
05902:  MOVLW  02
05904:  MOVLB  5
05906:  ADDWF  xD5,W
05908:  MOVWF  xE2
0590A:  MOVLW  01
0590C:  ADDWF  xD6,W
0590E:  MOVWF  xE3
05910:  MOVFF  5E2,5E6
05914:  MOVWF  xE7
05916:  MOVLW  05
05918:  MOVWF  xE9
0591A:  MOVLW  D9
0591C:  MOVWF  xE8
0591E:  MOVFF  5D8,5EA
05922:  CLRF   xEB
05924:  MOVLB  0
05926:  CALL   16BE
0592A:  MOVLB  5
....................    if(sombreado==0) 
0592C:  MOVF   xD7,F
0592E:  BNZ   598A
....................       {glcd_rect(x, y, x+(tamano*20), y+(tamano*8), YES, OFF);glcd_text57(x+2, y+1, voltage, tamano, ON);} 
05930:  MOVF   xD8,W
05932:  MULLW  14
05934:  MOVF   FF3,W
05936:  ADDWF  xD5,W
05938:  MOVWF  xE2
0593A:  MOVF   xD8,W
0593C:  MULLW  08
0593E:  MOVF   FF3,W
05940:  ADDWF  xD6,W
05942:  MOVWF  xE3
05944:  MOVFF  5D5,5E6
05948:  MOVFF  5D6,5E7
0594C:  MOVFF  5E2,5E8
05950:  MOVWF  xE9
05952:  MOVLW  01
05954:  MOVWF  xEA
05956:  CLRF   xEB
05958:  MOVLB  0
0595A:  CALL   49BC
0595E:  MOVLW  02
05960:  MOVLB  5
05962:  ADDWF  xD5,W
05964:  MOVWF  xE2
05966:  MOVLW  01
05968:  ADDWF  xD6,W
0596A:  MOVWF  xE3
0596C:  MOVFF  5E2,5E6
05970:  MOVWF  xE7
05972:  MOVLW  05
05974:  MOVWF  xE9
05976:  MOVLW  D9
05978:  MOVWF  xE8
0597A:  MOVFF  5D8,5EA
0597E:  MOVLW  01
05980:  MOVWF  xEB
05982:  MOVLB  0
05984:  CALL   16BE
05988:  MOVLB  5
....................        
.................... } 
0598A:  MOVLB  0
0598C:  RETLW  00
....................  
.................... // Funcion para conversor analogo-digital 
.................... unsigned int16 sensores(int x){ 
.................... unsigned int16 y;set_adc_channel(x);delay_ms(1);y=read_adc();return (y); 
*
02E8C:  MOVLB  5
02E8E:  RLCF   xDE,W
02E90:  MOVWF  00
02E92:  RLCF   00,F
02E94:  MOVLW  FC
02E96:  ANDWF  00,F
02E98:  MOVFF  00,01
02E9C:  MOVF   FC2,W
02E9E:  ANDLW  C3
02EA0:  IORWF  00,W
02EA2:  MOVWF  FC2
02EA4:  MOVLW  01
02EA6:  MOVWF  xE1
02EA8:  MOVLB  0
02EAA:  CALL   1368
02EAE:  BSF    FC2.1
02EB0:  BTFSC  FC2.1
02EB2:  BRA    2EB0
02EB4:  MOVFF  FC4,5E0
02EB8:  MOVLB  5
02EBA:  MOVFF  FC3,5DF
02EBE:  MOVFF  5DF,01
02EC2:  MOVFF  5E0,02
.................... } 
02EC6:  MOVLB  0
02EC8:  RETLW  00
....................  
....................  
.................... #define   UP               !input(PIN_A5) 
.................... #define   DOWN             !input(PIN_E0) 
.................... #define   RIGHT            !input(PIN_E1) 
.................... #define   LEFT             !input(PIN_E2) 
.................... #define   VIDRIOUP         input(PIN_A3) 
.................... #define   VIDRIODN         input(PIN_A4) 
....................  
.................... #define   Alarma_on           output_bit(PIN_C7,1) 
.................... #define   Alarma_off          output_bit(PIN_C7,0) 
.................... #define   LuzBlanca_on        output_bit(PIN_C0,1) 
.................... #define   LuzBlanca_off       output_bit(PIN_C0,0) 
.................... #define   Aux_on              output_bit(PIN_C1,1) 
.................... #define   Aux_off             output_bit(PIN_C1,0) 
.................... #define   Motor_on            output_bit(PIN_C2,1) 
.................... #define   Motor_off           output_bit(PIN_C2,0) 
.................... #define   Display_on          output_bit(PIN_B1,1) 
.................... #define   Display_off         output_bit(PIN_B1,0) 
....................  
.................... short Flanco=0,Flanco1=0,Flanco2=0,Flanco3=0,Flanco5=0,imprimir=0,flag_blower=0,flag_toma=0,flag_luz=0,flag_alarma=0,w=0; 
.................... short tiempo_purga=0,tiempo_trabajo=0,flag_latencia=0; 
.................... short guardatrabajo=0,Lectura=0,n=0; 
.................... char  JP[] = "JP Inglobal", Cabina[] = "Cabina Extractora",Dos_puntos[]=":"; 
.................... char  Clase[] = "Sin Ductos", Tiempo[] = "Tiempo de Purga"; 
.................... char  Inflowt[] = "Vel:",Downflowt[] = "Temperatura", ZF[] = "Fabrica:208.0", ZA[] = "Actual:",AJ[]="Ajuste:"; 
.................... char  Vida_Filtro[] = "T. Filtro:",ZFP[] = "Fabrica:235.0", Perdida[]="!Filtro Saturado!"; 
.................... int8 Menu=200, unidad=1, Opcion=1,negativo=10,G_l=0,G_h=0,tiemporeset=0; 
.................... int8 q=0,r=0,l=0,h=0,Entero=0,Decimal1=0,Alarma=10; 
....................  
.................... unsigned int16 Inflow_adc=0,Filtro_Downflow_adc=0,Temporal1=0; 
....................  
.................... int16 t_latencia=0,minutos_uv=0,minutos_trabajo=0,G16=0; 
.................... signed int  Tpurga[4]={0,0,0,0};       // Tiempo de Purga transcurrido 
.................... signed int  Tpurgap[4]={9,0,0,0};      // Tiempo de Purga programado 
.................... signed int  Tppurgap[4]={9,0,0,0};     // Tiempo de Post-Purga programado 
.................... signed int  Tuv[4]={0,0,0,0};          // Tiempo de UV transcurrido(en Horas) 
.................... signed int  Tempouvp[4]={0,0,0,0};        // Tiempo de UV transcurrido 
.................... signed int  Ttrabajo[4]={0,0,0,0};        // Tiempo de trabajo transcurrido (en Horas) 
.................... signed int  Contrasena[4]={0,0,0,0};      // Contrasena de 4 digitos 
.................... signed int  Password[4]={0,0,0,0};        // Contrasena Almacenada de 4 digitos 
.................... float Inflow=0.0,Downflow=0.0,Filtro_Downflow=0.0,Diferencia=0.0; 
.................... float Velocidad=0.0,x_uno=0.0,x_cuadrado=0.0,x_cubo=0.0,Ajuste1=0.0,Ajuste2=0.0; 
.................... float Temporal=0.0,Temporal2=0.0; 
.................... float a=0.00000957915546738639,b=-0.00727819571978831,c= 1.85375754678451,d= -156.816806902063; 
.................... //float t=378.463968402560,f=-18275.0402762787;//Sensor 2 Posible bueno 
....................  
.................... float promedio[8]={0.0,0.0,0.0,0.0,0.0,0.0,0.0,0.0}; 
.................... float promedio2[8]={0.0,0.0,0.0,0.0,0.0,0.0,0.0,0.0}; 
.................... float PromPresion[8]={0.0,0.0,0.0,0.0,0.0,0.0,0.0,0.0}; 
.................... float Flujo=0.0,zero_fabrica=208.0,zero_actual=0.0; 
.................... float V1=0.0,Presion=0.0,G=2.0; 
....................  
.................... int16 pulsos=0,retardo=0; 
.................... int8 i=0,l2=0,h2=0,Temperatura=0; 
.................... short Cruce=OFF,Purga=OFF; 
.................... int16 tiempocruce=0; 
.................... int8 Porcentaje=0,VelMotor=0; 
.................... float Tcruce=0.0,Tcruce2=0; 
....................  
.................... #include "Funciones.h" 
.................... float leeTemperatura(int8 media){ 
*
04560:  MOVLB  5
04562:  CLRF   xD1
04564:  CLRF   xD0
04566:  CLRF   xCF
04568:  CLRF   xCE
0456A:  CLRF   xD5
0456C:  CLRF   xD4
0456E:  CLRF   xD3
04570:  CLRF   xD2
04572:  CLRF   xD9
04574:  CLRF   xD8
04576:  CLRF   xD7
04578:  CLRF   xD6
0457A:  CLRF   xDD
0457C:  CLRF   xDC
0457E:  CLRF   xDB
04580:  CLRF   xDA
....................    float ADC=0,V=0,T=0,Tempera=0; 
....................    ADC=sensores(0); 
04582:  CLRF   xDE
04584:  MOVLB  0
04586:  CALL   2E8C
0458A:  MOVFF  02,603
0458E:  MOVFF  01,602
04592:  CALL   1878
04596:  MOVFF  03,5D1
0459A:  MOVFF  02,5D0
0459E:  MOVFF  01,5CF
045A2:  MOVFF  00,5CE
....................    V=5*ADC/1023; 
045A6:  MOVLB  6
045A8:  CLRF   x01
045AA:  CLRF   x00
045AC:  MOVLW  20
045AE:  MOVLB  5
045B0:  MOVWF  xFF
045B2:  MOVLW  81
045B4:  MOVWF  xFE
045B6:  MOVFF  5D1,605
045BA:  MOVFF  5D0,604
045BE:  MOVFF  5CF,603
045C2:  MOVFF  5CE,602
045C6:  MOVLB  0
045C8:  CALL   2F06
045CC:  MOVFF  00,5DE
045D0:  MOVFF  01,5DF
045D4:  MOVFF  02,5E0
045D8:  MOVFF  03,5E1
045DC:  MOVFF  03,601
045E0:  MOVFF  02,600
045E4:  MOVFF  01,5FF
045E8:  MOVFF  00,5FE
045EC:  MOVLB  6
045EE:  CLRF   x05
045F0:  MOVLW  C0
045F2:  MOVWF  x04
045F4:  MOVLW  7F
045F6:  MOVWF  x03
045F8:  MOVLW  88
045FA:  MOVWF  x02
045FC:  MOVLB  0
045FE:  CALL   18AE
04602:  MOVFF  03,5D5
04606:  MOVFF  02,5D4
0460A:  MOVFF  01,5D3
0460E:  MOVFF  00,5D2
....................    T=V/0.01; 
04612:  MOVFF  5D5,601
04616:  MOVFF  5D4,600
0461A:  MOVFF  5D3,5FF
0461E:  MOVFF  5D2,5FE
04622:  MOVLW  0A
04624:  MOVLB  6
04626:  MOVWF  x05
04628:  MOVLW  D7
0462A:  MOVWF  x04
0462C:  MOVLW  23
0462E:  MOVWF  x03
04630:  MOVLW  78
04632:  MOVWF  x02
04634:  MOVLB  0
04636:  CALL   18AE
0463A:  MOVFF  03,5D9
0463E:  MOVFF  02,5D8
04642:  MOVFF  01,5D7
04646:  MOVFF  00,5D6
....................    if(l2>media) 
0464A:  MOVLB  5
0464C:  MOVF   xBE,W
0464E:  SUBWF  xCD,W
04650:  BC    4654
....................       l2=0; 
04652:  CLRF   xBE
....................        
....................    promedio2[l2]=T;l2++; 
04654:  MOVF   xBE,W
04656:  MULLW  04
04658:  MOVF   FF3,W
0465A:  CLRF   03
0465C:  ADDLW  61
0465E:  MOVWF  FE9
04660:  MOVLW  05
04662:  ADDWFC 03,W
04664:  MOVWF  FEA
04666:  MOVFF  5D6,FEF
0466A:  MOVFF  5D7,FEC
0466E:  MOVFF  5D8,FEC
04672:  MOVFF  5D9,FEC
04676:  INCF   xBE,F
....................    Tempera=0; 
04678:  CLRF   xDD
0467A:  CLRF   xDC
0467C:  CLRF   xDB
0467E:  CLRF   xDA
....................       
....................      for(h2=0;h2<=(media-1);h2++){ 
04680:  CLRF   xBF
04682:  MOVLW  01
04684:  SUBWF  xCD,W
04686:  SUBWF  xBF,W
04688:  BZ    468C
0468A:  BC    46FC
....................         Tempera+=promedio2[h2]; 
0468C:  MOVF   xBF,W
0468E:  MULLW  04
04690:  MOVF   FF3,W
04692:  CLRF   03
04694:  ADDLW  61
04696:  MOVWF  FE9
04698:  MOVLW  05
0469A:  ADDWFC 03,W
0469C:  MOVWF  FEA
0469E:  MOVFF  FEF,00
046A2:  MOVFF  FEC,01
046A6:  MOVFF  FEC,02
046AA:  MOVFF  FEC,03
046AE:  MOVFF  FEA,5DF
046B2:  MOVFF  FE9,5DE
046B6:  BCF    FD8.1
046B8:  MOVFF  5DD,605
046BC:  MOVFF  5DC,604
046C0:  MOVFF  5DB,603
046C4:  MOVFF  5DA,602
046C8:  MOVFF  03,609
046CC:  MOVFF  02,608
046D0:  MOVFF  01,607
046D4:  MOVFF  00,606
046D8:  MOVLB  0
046DA:  CALL   1A2C
046DE:  MOVFF  5DF,FEA
046E2:  MOVFF  5DE,FE9
046E6:  MOVFF  03,5DD
046EA:  MOVFF  02,5DC
046EE:  MOVFF  01,5DB
046F2:  MOVFF  00,5DA
....................      }       
046F6:  MOVLB  5
046F8:  INCF   xBF,F
046FA:  BRA    4682
....................    return Tempera/media; 
046FC:  MOVLB  6
046FE:  CLRF   x03
04700:  MOVFF  5CD,602
04704:  MOVLB  0
04706:  CALL   1878
0470A:  MOVFF  5DD,601
0470E:  MOVFF  5DC,600
04712:  MOVFF  5DB,5FF
04716:  MOVFF  5DA,5FE
0471A:  MOVFF  03,605
0471E:  MOVFF  02,604
04722:  MOVFF  01,603
04726:  MOVFF  00,602
0472A:  CALL   18AE
.................... } 
0472E:  GOTO   5FA8 (RETURN)
....................  
.................... void LeeEEPROM(void){ 
....................    Password[0]=read_eeprom(0); 
*
01CA4:  MOVFF  FF2,5CD
01CA8:  BCF    FF2.7
01CAA:  CLRF   FAA
01CAC:  CLRF   FA9
01CAE:  BCF    FA6.6
01CB0:  BCF    FA6.7
01CB2:  BSF    FA6.0
01CB4:  MOVF   FA8,W
01CB6:  MOVLB  5
01CB8:  BTFSC  xCD.7
01CBA:  BSF    FF2.7
01CBC:  MOVLB  4
01CBE:  MOVWF  xFD
....................    delay_ms(10); 
01CC0:  MOVLW  0A
01CC2:  MOVLB  5
01CC4:  MOVWF  xE1
01CC6:  MOVLB  0
01CC8:  CALL   1368
....................    Password[1]=read_eeprom(1); 
01CCC:  MOVFF  FF2,5CD
01CD0:  BCF    FF2.7
01CD2:  CLRF   FAA
01CD4:  MOVLW  01
01CD6:  MOVWF  FA9
01CD8:  BCF    FA6.6
01CDA:  BCF    FA6.7
01CDC:  BSF    FA6.0
01CDE:  MOVF   FA8,W
01CE0:  MOVLB  5
01CE2:  BTFSC  xCD.7
01CE4:  BSF    FF2.7
01CE6:  MOVLB  4
01CE8:  MOVWF  xFE
....................    delay_ms(10); 
01CEA:  MOVLW  0A
01CEC:  MOVLB  5
01CEE:  MOVWF  xE1
01CF0:  MOVLB  0
01CF2:  CALL   1368
....................    Password[2]=read_eeprom(2); 
01CF6:  MOVFF  FF2,5CD
01CFA:  BCF    FF2.7
01CFC:  CLRF   FAA
01CFE:  MOVLW  02
01D00:  MOVWF  FA9
01D02:  BCF    FA6.6
01D04:  BCF    FA6.7
01D06:  BSF    FA6.0
01D08:  MOVF   FA8,W
01D0A:  MOVLB  5
01D0C:  BTFSC  xCD.7
01D0E:  BSF    FF2.7
01D10:  MOVLB  4
01D12:  MOVWF  xFF
....................    delay_ms(10); 
01D14:  MOVLW  0A
01D16:  MOVLB  5
01D18:  MOVWF  xE1
01D1A:  MOVLB  0
01D1C:  CALL   1368
....................    Password[3]=read_eeprom(3); 
01D20:  MOVFF  FF2,5CD
01D24:  BCF    FF2.7
01D26:  CLRF   FAA
01D28:  MOVLW  03
01D2A:  MOVWF  FA9
01D2C:  BCF    FA6.6
01D2E:  BCF    FA6.7
01D30:  BSF    FA6.0
01D32:  MOVF   FA8,W
01D34:  MOVLB  5
01D36:  BTFSC  xCD.7
01D38:  BSF    FF2.7
01D3A:  MOVWF  x00
....................    delay_ms(10); 
01D3C:  MOVLW  0A
01D3E:  MOVWF  xE1
01D40:  MOVLB  0
01D42:  CALL   1368
....................    Tpurgap[0]=read_eeprom(4); 
01D46:  MOVFF  FF2,5CD
01D4A:  BCF    FF2.7
01D4C:  CLRF   FAA
01D4E:  MOVLW  04
01D50:  MOVWF  FA9
01D52:  BCF    FA6.6
01D54:  BCF    FA6.7
01D56:  BSF    FA6.0
01D58:  MOVF   FA8,W
01D5A:  MOVLB  5
01D5C:  BTFSC  xCD.7
01D5E:  BSF    FF2.7
01D60:  MOVLB  4
01D62:  MOVWF  xE5
....................    delay_ms(10); 
01D64:  MOVLW  0A
01D66:  MOVLB  5
01D68:  MOVWF  xE1
01D6A:  MOVLB  0
01D6C:  CALL   1368
....................    Tpurgap[1]=read_eeprom(5); 
01D70:  MOVFF  FF2,5CD
01D74:  BCF    FF2.7
01D76:  CLRF   FAA
01D78:  MOVLW  05
01D7A:  MOVWF  FA9
01D7C:  BCF    FA6.6
01D7E:  BCF    FA6.7
01D80:  BSF    FA6.0
01D82:  MOVF   FA8,W
01D84:  MOVLB  5
01D86:  BTFSC  xCD.7
01D88:  BSF    FF2.7
01D8A:  MOVLB  4
01D8C:  MOVWF  xE6
....................    delay_ms(10); 
01D8E:  MOVLW  0A
01D90:  MOVLB  5
01D92:  MOVWF  xE1
01D94:  MOVLB  0
01D96:  CALL   1368
....................    Tpurgap[2]=read_eeprom(6); 
01D9A:  MOVFF  FF2,5CD
01D9E:  BCF    FF2.7
01DA0:  CLRF   FAA
01DA2:  MOVLW  06
01DA4:  MOVWF  FA9
01DA6:  BCF    FA6.6
01DA8:  BCF    FA6.7
01DAA:  BSF    FA6.0
01DAC:  MOVF   FA8,W
01DAE:  MOVLB  5
01DB0:  BTFSC  xCD.7
01DB2:  BSF    FF2.7
01DB4:  MOVLB  4
01DB6:  MOVWF  xE7
....................    delay_ms(10); 
01DB8:  MOVLW  0A
01DBA:  MOVLB  5
01DBC:  MOVWF  xE1
01DBE:  MOVLB  0
01DC0:  CALL   1368
....................    Tpurgap[3]=read_eeprom(7); 
01DC4:  MOVFF  FF2,5CD
01DC8:  BCF    FF2.7
01DCA:  CLRF   FAA
01DCC:  MOVLW  07
01DCE:  MOVWF  FA9
01DD0:  BCF    FA6.6
01DD2:  BCF    FA6.7
01DD4:  BSF    FA6.0
01DD6:  MOVF   FA8,W
01DD8:  MOVLB  5
01DDA:  BTFSC  xCD.7
01DDC:  BSF    FF2.7
01DDE:  MOVLB  4
01DE0:  MOVWF  xE8
....................    delay_ms(10); 
01DE2:  MOVLW  0A
01DE4:  MOVLB  5
01DE6:  MOVWF  xE1
01DE8:  MOVLB  0
01DEA:  CALL   1368
....................    Tppurgap[0]=read_eeprom(8); 
01DEE:  MOVFF  FF2,5CD
01DF2:  BCF    FF2.7
01DF4:  CLRF   FAA
01DF6:  MOVLW  08
01DF8:  MOVWF  FA9
01DFA:  BCF    FA6.6
01DFC:  BCF    FA6.7
01DFE:  BSF    FA6.0
01E00:  MOVF   FA8,W
01E02:  MOVLB  5
01E04:  BTFSC  xCD.7
01E06:  BSF    FF2.7
01E08:  MOVLB  4
01E0A:  MOVWF  xE9
....................    delay_ms(10); 
01E0C:  MOVLW  0A
01E0E:  MOVLB  5
01E10:  MOVWF  xE1
01E12:  MOVLB  0
01E14:  CALL   1368
....................    Tppurgap[1]=read_eeprom(9); 
01E18:  MOVFF  FF2,5CD
01E1C:  BCF    FF2.7
01E1E:  CLRF   FAA
01E20:  MOVLW  09
01E22:  MOVWF  FA9
01E24:  BCF    FA6.6
01E26:  BCF    FA6.7
01E28:  BSF    FA6.0
01E2A:  MOVF   FA8,W
01E2C:  MOVLB  5
01E2E:  BTFSC  xCD.7
01E30:  BSF    FF2.7
01E32:  MOVLB  4
01E34:  MOVWF  xEA
....................    delay_ms(10); 
01E36:  MOVLW  0A
01E38:  MOVLB  5
01E3A:  MOVWF  xE1
01E3C:  MOVLB  0
01E3E:  CALL   1368
....................    Tppurgap[2]=read_eeprom(10); 
01E42:  MOVFF  FF2,5CD
01E46:  BCF    FF2.7
01E48:  CLRF   FAA
01E4A:  MOVLW  0A
01E4C:  MOVWF  FA9
01E4E:  BCF    FA6.6
01E50:  BCF    FA6.7
01E52:  BSF    FA6.0
01E54:  MOVF   FA8,W
01E56:  MOVLB  5
01E58:  BTFSC  xCD.7
01E5A:  BSF    FF2.7
01E5C:  MOVLB  4
01E5E:  MOVWF  xEB
....................    delay_ms(10); 
01E60:  MOVLW  0A
01E62:  MOVLB  5
01E64:  MOVWF  xE1
01E66:  MOVLB  0
01E68:  CALL   1368
....................    Tppurgap[3]=read_eeprom(11); 
01E6C:  MOVFF  FF2,5CD
01E70:  BCF    FF2.7
01E72:  CLRF   FAA
01E74:  MOVLW  0B
01E76:  MOVWF  FA9
01E78:  BCF    FA6.6
01E7A:  BCF    FA6.7
01E7C:  BSF    FA6.0
01E7E:  MOVF   FA8,W
01E80:  MOVLB  5
01E82:  BTFSC  xCD.7
01E84:  BSF    FF2.7
01E86:  MOVLB  4
01E88:  MOVWF  xEC
....................    delay_ms(10); 
01E8A:  MOVLW  0A
01E8C:  MOVLB  5
01E8E:  MOVWF  xE1
01E90:  MOVLB  0
01E92:  CALL   1368
....................    Tuv[0]=read_eeprom(12); 
01E96:  MOVFF  FF2,5CD
01E9A:  BCF    FF2.7
01E9C:  CLRF   FAA
01E9E:  MOVLW  0C
01EA0:  MOVWF  FA9
01EA2:  BCF    FA6.6
01EA4:  BCF    FA6.7
01EA6:  BSF    FA6.0
01EA8:  MOVF   FA8,W
01EAA:  MOVLB  5
01EAC:  BTFSC  xCD.7
01EAE:  BSF    FF2.7
01EB0:  MOVLB  4
01EB2:  MOVWF  xED
....................    delay_ms(10); 
01EB4:  MOVLW  0A
01EB6:  MOVLB  5
01EB8:  MOVWF  xE1
01EBA:  MOVLB  0
01EBC:  CALL   1368
....................    Tuv[1]=read_eeprom(13); 
01EC0:  MOVFF  FF2,5CD
01EC4:  BCF    FF2.7
01EC6:  CLRF   FAA
01EC8:  MOVLW  0D
01ECA:  MOVWF  FA9
01ECC:  BCF    FA6.6
01ECE:  BCF    FA6.7
01ED0:  BSF    FA6.0
01ED2:  MOVF   FA8,W
01ED4:  MOVLB  5
01ED6:  BTFSC  xCD.7
01ED8:  BSF    FF2.7
01EDA:  MOVLB  4
01EDC:  MOVWF  xEE
....................    delay_ms(10); 
01EDE:  MOVLW  0A
01EE0:  MOVLB  5
01EE2:  MOVWF  xE1
01EE4:  MOVLB  0
01EE6:  CALL   1368
....................    Tuv[2]=read_eeprom(14); 
01EEA:  MOVFF  FF2,5CD
01EEE:  BCF    FF2.7
01EF0:  CLRF   FAA
01EF2:  MOVLW  0E
01EF4:  MOVWF  FA9
01EF6:  BCF    FA6.6
01EF8:  BCF    FA6.7
01EFA:  BSF    FA6.0
01EFC:  MOVF   FA8,W
01EFE:  MOVLB  5
01F00:  BTFSC  xCD.7
01F02:  BSF    FF2.7
01F04:  MOVLB  4
01F06:  MOVWF  xEF
....................    delay_ms(10); 
01F08:  MOVLW  0A
01F0A:  MOVLB  5
01F0C:  MOVWF  xE1
01F0E:  MOVLB  0
01F10:  CALL   1368
....................    Tuv[3]=read_eeprom(15); 
01F14:  MOVFF  FF2,5CD
01F18:  BCF    FF2.7
01F1A:  CLRF   FAA
01F1C:  MOVLW  0F
01F1E:  MOVWF  FA9
01F20:  BCF    FA6.6
01F22:  BCF    FA6.7
01F24:  BSF    FA6.0
01F26:  MOVF   FA8,W
01F28:  MOVLB  5
01F2A:  BTFSC  xCD.7
01F2C:  BSF    FF2.7
01F2E:  MOVLB  4
01F30:  MOVWF  xF0
....................    delay_ms(10); 
01F32:  MOVLW  0A
01F34:  MOVLB  5
01F36:  MOVWF  xE1
01F38:  MOVLB  0
01F3A:  CALL   1368
....................    Ttrabajo[0]=read_eeprom(16); 
01F3E:  MOVFF  FF2,5CD
01F42:  BCF    FF2.7
01F44:  CLRF   FAA
01F46:  MOVLW  10
01F48:  MOVWF  FA9
01F4A:  BCF    FA6.6
01F4C:  BCF    FA6.7
01F4E:  BSF    FA6.0
01F50:  MOVF   FA8,W
01F52:  MOVLB  5
01F54:  BTFSC  xCD.7
01F56:  BSF    FF2.7
01F58:  MOVLB  4
01F5A:  MOVWF  xF5
....................    delay_ms(10); 
01F5C:  MOVLW  0A
01F5E:  MOVLB  5
01F60:  MOVWF  xE1
01F62:  MOVLB  0
01F64:  CALL   1368
....................    Ttrabajo[1]=read_eeprom(17); 
01F68:  MOVFF  FF2,5CD
01F6C:  BCF    FF2.7
01F6E:  CLRF   FAA
01F70:  MOVLW  11
01F72:  MOVWF  FA9
01F74:  BCF    FA6.6
01F76:  BCF    FA6.7
01F78:  BSF    FA6.0
01F7A:  MOVF   FA8,W
01F7C:  MOVLB  5
01F7E:  BTFSC  xCD.7
01F80:  BSF    FF2.7
01F82:  MOVLB  4
01F84:  MOVWF  xF6
....................    delay_ms(10); 
01F86:  MOVLW  0A
01F88:  MOVLB  5
01F8A:  MOVWF  xE1
01F8C:  MOVLB  0
01F8E:  CALL   1368
....................    Ttrabajo[2]=read_eeprom(18); 
01F92:  MOVFF  FF2,5CD
01F96:  BCF    FF2.7
01F98:  CLRF   FAA
01F9A:  MOVLW  12
01F9C:  MOVWF  FA9
01F9E:  BCF    FA6.6
01FA0:  BCF    FA6.7
01FA2:  BSF    FA6.0
01FA4:  MOVF   FA8,W
01FA6:  MOVLB  5
01FA8:  BTFSC  xCD.7
01FAA:  BSF    FF2.7
01FAC:  MOVLB  4
01FAE:  MOVWF  xF7
....................    delay_ms(10); 
01FB0:  MOVLW  0A
01FB2:  MOVLB  5
01FB4:  MOVWF  xE1
01FB6:  MOVLB  0
01FB8:  CALL   1368
....................    Ttrabajo[3]=read_eeprom(19); 
01FBC:  MOVFF  FF2,5CD
01FC0:  BCF    FF2.7
01FC2:  CLRF   FAA
01FC4:  MOVLW  13
01FC6:  MOVWF  FA9
01FC8:  BCF    FA6.6
01FCA:  BCF    FA6.7
01FCC:  BSF    FA6.0
01FCE:  MOVF   FA8,W
01FD0:  MOVLB  5
01FD2:  BTFSC  xCD.7
01FD4:  BSF    FF2.7
01FD6:  MOVLB  4
01FD8:  MOVWF  xF8
....................    delay_ms(10); 
01FDA:  MOVLW  0A
01FDC:  MOVLB  5
01FDE:  MOVWF  xE1
01FE0:  MOVLB  0
01FE2:  CALL   1368
....................    //flag_alarma=read_eeprom(20); 
....................    //delay_ms(10); 
....................    Tempouvp[0]=read_eeprom(21); 
01FE6:  MOVFF  FF2,5CD
01FEA:  BCF    FF2.7
01FEC:  CLRF   FAA
01FEE:  MOVLW  15
01FF0:  MOVWF  FA9
01FF2:  BCF    FA6.6
01FF4:  BCF    FA6.7
01FF6:  BSF    FA6.0
01FF8:  MOVF   FA8,W
01FFA:  MOVLB  5
01FFC:  BTFSC  xCD.7
01FFE:  BSF    FF2.7
02000:  MOVLB  4
02002:  MOVWF  xF1
....................    delay_ms(10); 
02004:  MOVLW  0A
02006:  MOVLB  5
02008:  MOVWF  xE1
0200A:  MOVLB  0
0200C:  CALL   1368
....................    Tempouvp[1]=read_eeprom(22); 
02010:  MOVFF  FF2,5CD
02014:  BCF    FF2.7
02016:  CLRF   FAA
02018:  MOVLW  16
0201A:  MOVWF  FA9
0201C:  BCF    FA6.6
0201E:  BCF    FA6.7
02020:  BSF    FA6.0
02022:  MOVF   FA8,W
02024:  MOVLB  5
02026:  BTFSC  xCD.7
02028:  BSF    FF2.7
0202A:  MOVLB  4
0202C:  MOVWF  xF2
....................    delay_ms(10); 
0202E:  MOVLW  0A
02030:  MOVLB  5
02032:  MOVWF  xE1
02034:  MOVLB  0
02036:  CALL   1368
....................    Tempouvp[2]=read_eeprom(23); 
0203A:  MOVFF  FF2,5CD
0203E:  BCF    FF2.7
02040:  CLRF   FAA
02042:  MOVLW  17
02044:  MOVWF  FA9
02046:  BCF    FA6.6
02048:  BCF    FA6.7
0204A:  BSF    FA6.0
0204C:  MOVF   FA8,W
0204E:  MOVLB  5
02050:  BTFSC  xCD.7
02052:  BSF    FF2.7
02054:  MOVLB  4
02056:  MOVWF  xF3
....................    delay_ms(10); 
02058:  MOVLW  0A
0205A:  MOVLB  5
0205C:  MOVWF  xE1
0205E:  MOVLB  0
02060:  CALL   1368
....................    Tempouvp[3]=read_eeprom(24); 
02064:  MOVFF  FF2,5CD
02068:  BCF    FF2.7
0206A:  CLRF   FAA
0206C:  MOVLW  18
0206E:  MOVWF  FA9
02070:  BCF    FA6.6
02072:  BCF    FA6.7
02074:  BSF    FA6.0
02076:  MOVF   FA8,W
02078:  MOVLB  5
0207A:  BTFSC  xCD.7
0207C:  BSF    FF2.7
0207E:  MOVLB  4
02080:  MOVWF  xF4
....................     
....................    delay_ms(10); 
02082:  MOVLW  0A
02084:  MOVLB  5
02086:  MOVWF  xE1
02088:  MOVLB  0
0208A:  CALL   1368
....................    Entero=read_eeprom(25);//Decimal1=read_eeprom(26); 
0208E:  MOVFF  FF2,5CD
02092:  BCF    FF2.7
02094:  CLRF   FAA
02096:  MOVLW  19
02098:  MOVWF  FA9
0209A:  BCF    FA6.6
0209C:  BCF    FA6.7
0209E:  BSF    FA6.0
020A0:  MOVF   FA8,W
020A2:  MOVLB  5
020A4:  BTFSC  xCD.7
020A6:  BSF    FF2.7
020A8:  MOVLB  4
020AA:  MOVWF  xD0
....................    delay_ms(10); 
020AC:  MOVLW  0A
020AE:  MOVLB  5
020B0:  MOVWF  xE1
020B2:  MOVLB  0
020B4:  CALL   1368
....................    Temporal=read_eeprom(26); 
020B8:  MOVFF  FF2,5CD
020BC:  BCF    FF2.7
020BE:  CLRF   FAA
020C0:  MOVLW  1A
020C2:  MOVWF  FA9
020C4:  BCF    FA6.6
020C6:  BCF    FA6.7
020C8:  BSF    FA6.0
020CA:  MOVF   FA8,W
020CC:  MOVLB  5
020CE:  BTFSC  xCD.7
020D0:  BSF    FF2.7
020D2:  MOVLB  6
020D4:  CLRF   x03
020D6:  MOVWF  x02
020D8:  MOVLB  0
020DA:  CALL   1878
020DE:  MOVFF  03,52C
020E2:  MOVFF  02,52B
020E6:  MOVFF  01,52A
020EA:  MOVFF  00,529
....................    delay_ms(10); 
020EE:  MOVLW  0A
020F0:  MOVLB  5
020F2:  MOVWF  xE1
020F4:  MOVLB  0
020F6:  CALL   1368
....................    Temporal=Temporal/10.0; 
020FA:  MOVFF  52C,601
020FE:  MOVFF  52B,600
02102:  MOVFF  52A,5FF
02106:  MOVFF  529,5FE
0210A:  MOVLB  6
0210C:  CLRF   x05
0210E:  CLRF   x04
02110:  MOVLW  20
02112:  MOVWF  x03
02114:  MOVLW  82
02116:  MOVWF  x02
02118:  MOVLB  0
0211A:  CALL   18AE
0211E:  MOVFF  03,52C
02122:  MOVFF  02,52B
02126:  MOVFF  01,52A
0212A:  MOVFF  00,529
....................    Ajuste1=Entero+Temporal; 
0212E:  MOVLB  6
02130:  CLRF   x03
02132:  MOVFF  4D0,602
02136:  MOVLB  0
02138:  CALL   1878
0213C:  BCF    FD8.1
0213E:  MOVFF  03,605
02142:  MOVFF  02,604
02146:  MOVFF  01,603
0214A:  MOVFF  00,602
0214E:  MOVFF  52C,609
02152:  MOVFF  52B,608
02156:  MOVFF  52A,607
0215A:  MOVFF  529,606
0215E:  RCALL  1A2C
02160:  MOVFF  03,524
02164:  MOVFF  02,523
02168:  MOVFF  01,522
0216C:  MOVFF  00,521
....................     
....................     
....................    Entero=read_eeprom(27);//Decimal1=read_eeprom(26); 
02170:  MOVFF  FF2,5CD
02174:  BCF    FF2.7
02176:  CLRF   FAA
02178:  MOVLW  1B
0217A:  MOVWF  FA9
0217C:  BCF    FA6.6
0217E:  BCF    FA6.7
02180:  BSF    FA6.0
02182:  MOVF   FA8,W
02184:  MOVLB  5
02186:  BTFSC  xCD.7
02188:  BSF    FF2.7
0218A:  MOVLB  4
0218C:  MOVWF  xD0
....................    delay_ms(10); 
0218E:  MOVLW  0A
02190:  MOVLB  5
02192:  MOVWF  xE1
02194:  MOVLB  0
02196:  CALL   1368
....................    Temporal=read_eeprom(28); 
0219A:  MOVFF  FF2,5CD
0219E:  BCF    FF2.7
021A0:  CLRF   FAA
021A2:  MOVLW  1C
021A4:  MOVWF  FA9
021A6:  BCF    FA6.6
021A8:  BCF    FA6.7
021AA:  BSF    FA6.0
021AC:  MOVF   FA8,W
021AE:  MOVLB  5
021B0:  BTFSC  xCD.7
021B2:  BSF    FF2.7
021B4:  MOVLB  6
021B6:  CLRF   x03
021B8:  MOVWF  x02
021BA:  MOVLB  0
021BC:  CALL   1878
021C0:  MOVFF  03,52C
021C4:  MOVFF  02,52B
021C8:  MOVFF  01,52A
021CC:  MOVFF  00,529
....................    delay_ms(10); 
021D0:  MOVLW  0A
021D2:  MOVLB  5
021D4:  MOVWF  xE1
021D6:  MOVLB  0
021D8:  CALL   1368
....................    Temporal=Temporal/10.0; 
021DC:  MOVFF  52C,601
021E0:  MOVFF  52B,600
021E4:  MOVFF  52A,5FF
021E8:  MOVFF  529,5FE
021EC:  MOVLB  6
021EE:  CLRF   x05
021F0:  CLRF   x04
021F2:  MOVLW  20
021F4:  MOVWF  x03
021F6:  MOVLW  82
021F8:  MOVWF  x02
021FA:  MOVLB  0
021FC:  CALL   18AE
02200:  MOVFF  03,52C
02204:  MOVFF  02,52B
02208:  MOVFF  01,52A
0220C:  MOVFF  00,529
....................    Ajuste2=Entero+Temporal; 
02210:  MOVLB  6
02212:  CLRF   x03
02214:  MOVFF  4D0,602
02218:  MOVLB  0
0221A:  CALL   1878
0221E:  BCF    FD8.1
02220:  MOVFF  03,605
02224:  MOVFF  02,604
02228:  MOVFF  01,603
0222C:  MOVFF  00,602
02230:  MOVFF  52C,609
02234:  MOVFF  52B,608
02238:  MOVFF  52A,607
0223C:  MOVFF  529,606
02240:  CALL   1A2C
02244:  MOVFF  03,528
02248:  MOVFF  02,527
0224C:  MOVFF  01,526
02250:  MOVFF  00,525
....................     
....................    zero_actual=make16(read_eeprom(30),read_eeprom(29)); 
02254:  MOVFF  FF2,5CD
02258:  BCF    FF2.7
0225A:  CLRF   FAA
0225C:  MOVLW  1E
0225E:  MOVWF  FA9
02260:  BCF    FA6.6
02262:  BCF    FA6.7
02264:  BSF    FA6.0
02266:  MOVF   FA8,W
02268:  MOVLB  5
0226A:  BTFSC  xCD.7
0226C:  BSF    FF2.7
0226E:  MOVWF  xCE
02270:  MOVFF  FF2,5CF
02274:  BCF    FF2.7
02276:  CLRF   FAA
02278:  MOVLW  1D
0227A:  MOVWF  FA9
0227C:  BCF    FA6.6
0227E:  BCF    FA6.7
02280:  BSF    FA6.0
02282:  MOVF   FA8,W
02284:  BTFSC  xCF.7
02286:  BSF    FF2.7
02288:  MOVWF  xD0
0228A:  MOVFF  5CE,03
0228E:  MOVF   xD0,W
02290:  MOVLB  6
02292:  MOVWF  x02
02294:  MOVFF  03,603
02298:  MOVLB  0
0229A:  CALL   1878
0229E:  MOVFF  03,5AC
022A2:  MOVFF  02,5AB
022A6:  MOVFF  01,5AA
022AA:  MOVFF  00,5A9
....................    delay_ms(10); 
022AE:  MOVLW  0A
022B0:  MOVLB  5
022B2:  MOVWF  xE1
022B4:  MOVLB  0
022B6:  CALL   1368
....................    minutos_trabajo=make16(read_eeprom(34),read_eeprom(33)); 
022BA:  MOVFF  FF2,5CD
022BE:  BCF    FF2.7
022C0:  CLRF   FAA
022C2:  MOVLW  22
022C4:  MOVWF  FA9
022C6:  BCF    FA6.6
022C8:  BCF    FA6.7
022CA:  BSF    FA6.0
022CC:  MOVF   FA8,W
022CE:  MOVLB  5
022D0:  BTFSC  xCD.7
022D2:  BSF    FF2.7
022D4:  MOVWF  xCE
022D6:  MOVFF  FF2,5CF
022DA:  BCF    FF2.7
022DC:  CLRF   FAA
022DE:  MOVLW  21
022E0:  MOVWF  FA9
022E2:  BCF    FA6.6
022E4:  BCF    FA6.7
022E6:  BSF    FA6.0
022E8:  MOVF   FA8,W
022EA:  BTFSC  xCF.7
022EC:  BSF    FF2.7
022EE:  MOVWF  xD0
022F0:  MOVFF  5CE,4DE
022F4:  MOVFF  5D0,4DD
....................    delay_ms(10); 
022F8:  MOVLW  0A
022FA:  MOVWF  xE1
022FC:  MOVLB  0
022FE:  CALL   1368
....................    minutos_uv=read_eeprom(31); 
02302:  MOVFF  FF2,5CD
02306:  BCF    FF2.7
02308:  CLRF   FAA
0230A:  MOVLW  1F
0230C:  MOVWF  FA9
0230E:  BCF    FA6.6
02310:  BCF    FA6.7
02312:  BSF    FA6.0
02314:  MOVF   FA8,W
02316:  MOVLB  5
02318:  BTFSC  xCD.7
0231A:  BSF    FF2.7
0231C:  MOVLB  4
0231E:  CLRF   xDC
02320:  MOVWF  xDB
....................    delay_ms(10); 
02322:  MOVLW  0A
02324:  MOVLB  5
02326:  MOVWF  xE1
02328:  MOVLB  0
0232A:  CALL   1368
....................    VelMotor=read_eeprom(32); 
0232E:  MOVFF  FF2,5CD
02332:  BCF    FF2.7
02334:  CLRF   FAA
02336:  MOVLW  20
02338:  MOVWF  FA9
0233A:  BCF    FA6.6
0233C:  BCF    FA6.7
0233E:  BSF    FA6.0
02340:  MOVF   FA8,W
02342:  MOVLB  5
02344:  BTFSC  xCD.7
02346:  BSF    FF2.7
02348:  MOVWF  xC4
....................    delay_ms(10); 
0234A:  MOVLW  0A
0234C:  MOVWF  xE1
0234E:  MOVLB  0
02350:  CALL   1368
....................     
....................    Diferencia=make16(read_eeprom(61),read_eeprom(60)); 
02354:  MOVFF  FF2,5CD
02358:  BCF    FF2.7
0235A:  CLRF   FAA
0235C:  MOVLW  3D
0235E:  MOVWF  FA9
02360:  BCF    FA6.6
02362:  BCF    FA6.7
02364:  BSF    FA6.0
02366:  MOVF   FA8,W
02368:  MOVLB  5
0236A:  BTFSC  xCD.7
0236C:  BSF    FF2.7
0236E:  MOVWF  xCE
02370:  MOVFF  FF2,5CF
02374:  BCF    FF2.7
02376:  CLRF   FAA
02378:  MOVLW  3C
0237A:  MOVWF  FA9
0237C:  BCF    FA6.6
0237E:  BCF    FA6.7
02380:  BSF    FA6.0
02382:  MOVF   FA8,W
02384:  BTFSC  xCF.7
02386:  BSF    FF2.7
02388:  MOVWF  xD0
0238A:  MOVFF  5CE,03
0238E:  MOVF   xD0,W
02390:  MOVLB  6
02392:  MOVWF  x02
02394:  MOVFF  03,603
02398:  MOVLB  0
0239A:  CALL   1878
0239E:  MOVFF  03,510
023A2:  MOVFF  02,50F
023A6:  MOVFF  01,50E
023AA:  MOVFF  00,50D
....................    delay_ms(10); 
023AE:  MOVLW  0A
023B0:  MOVLB  5
023B2:  MOVWF  xE1
023B4:  MOVLB  0
023B6:  CALL   1368
....................    G=make16(read_eeprom(63),read_eeprom(62)); 
023BA:  MOVFF  FF2,5CD
023BE:  BCF    FF2.7
023C0:  CLRF   FAA
023C2:  MOVLW  3F
023C4:  MOVWF  FA9
023C6:  BCF    FA6.6
023C8:  BCF    FA6.7
023CA:  BSF    FA6.0
023CC:  MOVF   FA8,W
023CE:  MOVLB  5
023D0:  BTFSC  xCD.7
023D2:  BSF    FF2.7
023D4:  MOVWF  xCE
023D6:  MOVFF  FF2,5CF
023DA:  BCF    FF2.7
023DC:  CLRF   FAA
023DE:  MOVLW  3E
023E0:  MOVWF  FA9
023E2:  BCF    FA6.6
023E4:  BCF    FA6.7
023E6:  BSF    FA6.0
023E8:  MOVF   FA8,W
023EA:  BTFSC  xCF.7
023EC:  BSF    FF2.7
023EE:  MOVWF  xD0
023F0:  MOVFF  5CE,03
023F4:  MOVF   xD0,W
023F6:  MOVLB  6
023F8:  MOVWF  x02
023FA:  MOVFF  03,603
023FE:  MOVLB  0
02400:  CALL   1878
02404:  MOVFF  03,5B8
02408:  MOVFF  02,5B7
0240C:  MOVFF  01,5B6
02410:  MOVFF  00,5B5
....................    delay_ms(10); 
02414:  MOVLW  0A
02416:  MOVLB  5
02418:  MOVWF  xE1
0241A:  MOVLB  0
0241C:  CALL   1368
....................    negativo=read_eeprom(50); 
02420:  MOVFF  FF2,5CD
02424:  BCF    FF2.7
02426:  CLRF   FAA
02428:  MOVLW  32
0242A:  MOVWF  FA9
0242C:  BCF    FA6.6
0242E:  BCF    FA6.7
02430:  BSF    FA6.0
02432:  MOVF   FA8,W
02434:  MOVLB  5
02436:  BTFSC  xCD.7
02438:  BSF    FF2.7
0243A:  MOVLB  4
0243C:  MOVWF  xC8
....................    delay_ms(10); 
0243E:  MOVLW  0A
02440:  MOVLB  5
02442:  MOVWF  xE1
02444:  MOVLB  0
02446:  CALL   1368
....................  
.................... } 
0244A:  GOTO   5F70 (RETURN)
....................  
.................... void LimitaValores(void){ 
....................    if(Password[0]>9 || Password[0]<0){ 
*
024F2:  MOVLB  4
024F4:  BTFSC  xFD.7
024F6:  BRA    24FE
024F8:  MOVF   xFD,W
024FA:  SUBLW  09
024FC:  BNC   2504
024FE:  BTFSC  xFD.7
02500:  BRA    2504
02502:  BRA    2530
....................       Password[0]=0;write_eeprom(0,0); 
02504:  CLRF   xFD
02506:  CLRF   FAA
02508:  CLRF   FA9
0250A:  CLRF   FA8
0250C:  BCF    FA6.6
0250E:  BCF    FA6.7
02510:  BSF    FA6.2
02512:  MOVF   FF2,W
02514:  MOVWF  00
02516:  BCF    FF2.7
02518:  MOVLB  F
0251A:  MOVLW  55
0251C:  MOVWF  FA7
0251E:  MOVLW  AA
02520:  MOVWF  FA7
02522:  BSF    FA6.1
02524:  BTFSC  FA6.1
02526:  BRA    2524
02528:  BCF    FA6.2
0252A:  MOVF   00,W
0252C:  IORWF  FF2,F
0252E:  MOVLB  4
....................    } 
....................    if(Password[1]>9 || Password[1]<0){ 
02530:  BTFSC  xFE.7
02532:  BRA    253A
02534:  MOVF   xFE,W
02536:  SUBLW  09
02538:  BNC   2540
0253A:  BTFSC  xFE.7
0253C:  BRA    2540
0253E:  BRA    256E
....................       Password[1]=0;write_eeprom(1,0); 
02540:  CLRF   xFE
02542:  CLRF   FAA
02544:  MOVLW  01
02546:  MOVWF  FA9
02548:  CLRF   FA8
0254A:  BCF    FA6.6
0254C:  BCF    FA6.7
0254E:  BSF    FA6.2
02550:  MOVF   FF2,W
02552:  MOVWF  00
02554:  BCF    FF2.7
02556:  MOVLB  F
02558:  MOVLW  55
0255A:  MOVWF  FA7
0255C:  MOVLW  AA
0255E:  MOVWF  FA7
02560:  BSF    FA6.1
02562:  BTFSC  FA6.1
02564:  BRA    2562
02566:  BCF    FA6.2
02568:  MOVF   00,W
0256A:  IORWF  FF2,F
0256C:  MOVLB  4
....................    } 
....................    if(Password[2]>9 || Password[2]<0){ 
0256E:  BTFSC  xFF.7
02570:  BRA    2578
02572:  MOVF   xFF,W
02574:  SUBLW  09
02576:  BNC   257E
02578:  BTFSC  xFF.7
0257A:  BRA    257E
0257C:  BRA    25AA
....................       Password[2]=0;write_eeprom(2,0); 
0257E:  CLRF   xFF
02580:  CLRF   FAA
02582:  MOVLW  02
02584:  MOVWF  FA9
02586:  CLRF   FA8
02588:  BCF    FA6.6
0258A:  BCF    FA6.7
0258C:  BSF    FA6.2
0258E:  MOVF   FF2,W
02590:  MOVWF  00
02592:  BCF    FF2.7
02594:  MOVLB  F
02596:  MOVLW  55
02598:  MOVWF  FA7
0259A:  MOVLW  AA
0259C:  MOVWF  FA7
0259E:  BSF    FA6.1
025A0:  BTFSC  FA6.1
025A2:  BRA    25A0
025A4:  BCF    FA6.2
025A6:  MOVF   00,W
025A8:  IORWF  FF2,F
....................    } 
....................    if(Password[3]>9 || Password[3]<0){ 
025AA:  MOVLB  5
025AC:  BTFSC  x00.7
025AE:  BRA    25B6
025B0:  MOVF   x00,W
025B2:  SUBLW  09
025B4:  BNC   25BC
025B6:  BTFSC  x00.7
025B8:  BRA    25BC
025BA:  BRA    25E8
....................       Password[3]=0;write_eeprom(3,0); 
025BC:  CLRF   x00
025BE:  CLRF   FAA
025C0:  MOVLW  03
025C2:  MOVWF  FA9
025C4:  CLRF   FA8
025C6:  BCF    FA6.6
025C8:  BCF    FA6.7
025CA:  BSF    FA6.2
025CC:  MOVF   FF2,W
025CE:  MOVWF  00
025D0:  BCF    FF2.7
025D2:  MOVLB  F
025D4:  MOVLW  55
025D6:  MOVWF  FA7
025D8:  MOVLW  AA
025DA:  MOVWF  FA7
025DC:  BSF    FA6.1
025DE:  BTFSC  FA6.1
025E0:  BRA    25DE
025E2:  BCF    FA6.2
025E4:  MOVF   00,W
025E6:  IORWF  FF2,F
....................    } 
....................    if(Tpurgap[0]>9 || Tpurgap[0]<0){ 
025E8:  MOVLB  4
025EA:  BTFSC  xE5.7
025EC:  BRA    25F4
025EE:  MOVF   xE5,W
025F0:  SUBLW  09
025F2:  BNC   25FA
025F4:  BTFSC  xE5.7
025F6:  BRA    25FA
025F8:  BRA    2628
....................       Tpurgap[0]=0;write_eeprom(4,0); 
025FA:  CLRF   xE5
025FC:  CLRF   FAA
025FE:  MOVLW  04
02600:  MOVWF  FA9
02602:  CLRF   FA8
02604:  BCF    FA6.6
02606:  BCF    FA6.7
02608:  BSF    FA6.2
0260A:  MOVF   FF2,W
0260C:  MOVWF  00
0260E:  BCF    FF2.7
02610:  MOVLB  F
02612:  MOVLW  55
02614:  MOVWF  FA7
02616:  MOVLW  AA
02618:  MOVWF  FA7
0261A:  BSF    FA6.1
0261C:  BTFSC  FA6.1
0261E:  BRA    261C
02620:  BCF    FA6.2
02622:  MOVF   00,W
02624:  IORWF  FF2,F
02626:  MOVLB  4
....................    } 
....................    if(Tpurgap[1]>9 || Tpurgap[1]<0){ 
02628:  BTFSC  xE6.7
0262A:  BRA    2632
0262C:  MOVF   xE6,W
0262E:  SUBLW  09
02630:  BNC   2638
02632:  BTFSC  xE6.7
02634:  BRA    2638
02636:  BRA    2666
....................       Tpurgap[1]=0;write_eeprom(5,0); 
02638:  CLRF   xE6
0263A:  CLRF   FAA
0263C:  MOVLW  05
0263E:  MOVWF  FA9
02640:  CLRF   FA8
02642:  BCF    FA6.6
02644:  BCF    FA6.7
02646:  BSF    FA6.2
02648:  MOVF   FF2,W
0264A:  MOVWF  00
0264C:  BCF    FF2.7
0264E:  MOVLB  F
02650:  MOVLW  55
02652:  MOVWF  FA7
02654:  MOVLW  AA
02656:  MOVWF  FA7
02658:  BSF    FA6.1
0265A:  BTFSC  FA6.1
0265C:  BRA    265A
0265E:  BCF    FA6.2
02660:  MOVF   00,W
02662:  IORWF  FF2,F
02664:  MOVLB  4
....................    } 
....................    if(Tpurgap[2]>9 || Tpurgap[2]<0){ 
02666:  BTFSC  xE7.7
02668:  BRA    2670
0266A:  MOVF   xE7,W
0266C:  SUBLW  09
0266E:  BNC   2676
02670:  BTFSC  xE7.7
02672:  BRA    2676
02674:  BRA    26A8
....................       Tpurgap[2]=2;write_eeprom(6,2); 
02676:  MOVLW  02
02678:  MOVWF  xE7
0267A:  CLRF   FAA
0267C:  MOVLW  06
0267E:  MOVWF  FA9
02680:  MOVLW  02
02682:  MOVWF  FA8
02684:  BCF    FA6.6
02686:  BCF    FA6.7
02688:  BSF    FA6.2
0268A:  MOVF   FF2,W
0268C:  MOVWF  00
0268E:  BCF    FF2.7
02690:  MOVLB  F
02692:  MOVLW  55
02694:  MOVWF  FA7
02696:  MOVLW  AA
02698:  MOVWF  FA7
0269A:  BSF    FA6.1
0269C:  BTFSC  FA6.1
0269E:  BRA    269C
026A0:  BCF    FA6.2
026A2:  MOVF   00,W
026A4:  IORWF  FF2,F
026A6:  MOVLB  4
....................    } 
....................    if(Tpurgap[3]>9 || Tpurgap[3]<0){ 
026A8:  BTFSC  xE8.7
026AA:  BRA    26B2
026AC:  MOVF   xE8,W
026AE:  SUBLW  09
026B0:  BNC   26B8
026B2:  BTFSC  xE8.7
026B4:  BRA    26B8
026B6:  BRA    26E6
....................       Tpurgap[3]=0;write_eeprom(7,0); 
026B8:  CLRF   xE8
026BA:  CLRF   FAA
026BC:  MOVLW  07
026BE:  MOVWF  FA9
026C0:  CLRF   FA8
026C2:  BCF    FA6.6
026C4:  BCF    FA6.7
026C6:  BSF    FA6.2
026C8:  MOVF   FF2,W
026CA:  MOVWF  00
026CC:  BCF    FF2.7
026CE:  MOVLB  F
026D0:  MOVLW  55
026D2:  MOVWF  FA7
026D4:  MOVLW  AA
026D6:  MOVWF  FA7
026D8:  BSF    FA6.1
026DA:  BTFSC  FA6.1
026DC:  BRA    26DA
026DE:  BCF    FA6.2
026E0:  MOVF   00,W
026E2:  IORWF  FF2,F
026E4:  MOVLB  4
....................    } 
....................    if(Tppurgap[0]>9 || Tppurgap[0]<0){ 
026E6:  BTFSC  xE9.7
026E8:  BRA    26F0
026EA:  MOVF   xE9,W
026EC:  SUBLW  09
026EE:  BNC   26F6
026F0:  BTFSC  xE9.7
026F2:  BRA    26F6
026F4:  BRA    2724
....................       Tppurgap[0]=0;write_eeprom(8,0); 
026F6:  CLRF   xE9
026F8:  CLRF   FAA
026FA:  MOVLW  08
026FC:  MOVWF  FA9
026FE:  CLRF   FA8
02700:  BCF    FA6.6
02702:  BCF    FA6.7
02704:  BSF    FA6.2
02706:  MOVF   FF2,W
02708:  MOVWF  00
0270A:  BCF    FF2.7
0270C:  MOVLB  F
0270E:  MOVLW  55
02710:  MOVWF  FA7
02712:  MOVLW  AA
02714:  MOVWF  FA7
02716:  BSF    FA6.1
02718:  BTFSC  FA6.1
0271A:  BRA    2718
0271C:  BCF    FA6.2
0271E:  MOVF   00,W
02720:  IORWF  FF2,F
02722:  MOVLB  4
....................    } 
....................    if(Tppurgap[1]>9 || Tppurgap[1]<0){ 
02724:  BTFSC  xEA.7
02726:  BRA    272E
02728:  MOVF   xEA,W
0272A:  SUBLW  09
0272C:  BNC   2734
0272E:  BTFSC  xEA.7
02730:  BRA    2734
02732:  BRA    2762
....................       Tppurgap[1]=0;write_eeprom(9,0); 
02734:  CLRF   xEA
02736:  CLRF   FAA
02738:  MOVLW  09
0273A:  MOVWF  FA9
0273C:  CLRF   FA8
0273E:  BCF    FA6.6
02740:  BCF    FA6.7
02742:  BSF    FA6.2
02744:  MOVF   FF2,W
02746:  MOVWF  00
02748:  BCF    FF2.7
0274A:  MOVLB  F
0274C:  MOVLW  55
0274E:  MOVWF  FA7
02750:  MOVLW  AA
02752:  MOVWF  FA7
02754:  BSF    FA6.1
02756:  BTFSC  FA6.1
02758:  BRA    2756
0275A:  BCF    FA6.2
0275C:  MOVF   00,W
0275E:  IORWF  FF2,F
02760:  MOVLB  4
....................    } 
....................    if(Tppurgap[2]>9 || Tppurgap[2]<0){ 
02762:  BTFSC  xEB.7
02764:  BRA    276C
02766:  MOVF   xEB,W
02768:  SUBLW  09
0276A:  BNC   2772
0276C:  BTFSC  xEB.7
0276E:  BRA    2772
02770:  BRA    27A4
....................       Tppurgap[2]=2;write_eeprom(10,2); 
02772:  MOVLW  02
02774:  MOVWF  xEB
02776:  CLRF   FAA
02778:  MOVLW  0A
0277A:  MOVWF  FA9
0277C:  MOVLW  02
0277E:  MOVWF  FA8
02780:  BCF    FA6.6
02782:  BCF    FA6.7
02784:  BSF    FA6.2
02786:  MOVF   FF2,W
02788:  MOVWF  00
0278A:  BCF    FF2.7
0278C:  MOVLB  F
0278E:  MOVLW  55
02790:  MOVWF  FA7
02792:  MOVLW  AA
02794:  MOVWF  FA7
02796:  BSF    FA6.1
02798:  BTFSC  FA6.1
0279A:  BRA    2798
0279C:  BCF    FA6.2
0279E:  MOVF   00,W
027A0:  IORWF  FF2,F
027A2:  MOVLB  4
....................    } 
....................    if(Tppurgap[3]>9 || Tppurgap[3]<0){ 
027A4:  BTFSC  xEC.7
027A6:  BRA    27AE
027A8:  MOVF   xEC,W
027AA:  SUBLW  09
027AC:  BNC   27B4
027AE:  BTFSC  xEC.7
027B0:  BRA    27B4
027B2:  BRA    27E2
....................       Tppurgap[3]=0;write_eeprom(11,0); 
027B4:  CLRF   xEC
027B6:  CLRF   FAA
027B8:  MOVLW  0B
027BA:  MOVWF  FA9
027BC:  CLRF   FA8
027BE:  BCF    FA6.6
027C0:  BCF    FA6.7
027C2:  BSF    FA6.2
027C4:  MOVF   FF2,W
027C6:  MOVWF  00
027C8:  BCF    FF2.7
027CA:  MOVLB  F
027CC:  MOVLW  55
027CE:  MOVWF  FA7
027D0:  MOVLW  AA
027D2:  MOVWF  FA7
027D4:  BSF    FA6.1
027D6:  BTFSC  FA6.1
027D8:  BRA    27D6
027DA:  BCF    FA6.2
027DC:  MOVF   00,W
027DE:  IORWF  FF2,F
027E0:  MOVLB  4
....................    } 
....................    if(Tuv[0]>9 || Tuv[0]<0){ 
027E2:  BTFSC  xED.7
027E4:  BRA    27EC
027E6:  MOVF   xED,W
027E8:  SUBLW  09
027EA:  BNC   27F2
027EC:  BTFSC  xED.7
027EE:  BRA    27F2
027F0:  BRA    2820
....................       Tuv[0]=0;write_eeprom(12,0); 
027F2:  CLRF   xED
027F4:  CLRF   FAA
027F6:  MOVLW  0C
027F8:  MOVWF  FA9
027FA:  CLRF   FA8
027FC:  BCF    FA6.6
027FE:  BCF    FA6.7
02800:  BSF    FA6.2
02802:  MOVF   FF2,W
02804:  MOVWF  00
02806:  BCF    FF2.7
02808:  MOVLB  F
0280A:  MOVLW  55
0280C:  MOVWF  FA7
0280E:  MOVLW  AA
02810:  MOVWF  FA7
02812:  BSF    FA6.1
02814:  BTFSC  FA6.1
02816:  BRA    2814
02818:  BCF    FA6.2
0281A:  MOVF   00,W
0281C:  IORWF  FF2,F
0281E:  MOVLB  4
....................    } 
....................    if(Tuv[1]>9 || Tuv[1]<0){ 
02820:  BTFSC  xEE.7
02822:  BRA    282A
02824:  MOVF   xEE,W
02826:  SUBLW  09
02828:  BNC   2830
0282A:  BTFSC  xEE.7
0282C:  BRA    2830
0282E:  BRA    285E
....................       Tuv[1]=0;write_eeprom(13,0); 
02830:  CLRF   xEE
02832:  CLRF   FAA
02834:  MOVLW  0D
02836:  MOVWF  FA9
02838:  CLRF   FA8
0283A:  BCF    FA6.6
0283C:  BCF    FA6.7
0283E:  BSF    FA6.2
02840:  MOVF   FF2,W
02842:  MOVWF  00
02844:  BCF    FF2.7
02846:  MOVLB  F
02848:  MOVLW  55
0284A:  MOVWF  FA7
0284C:  MOVLW  AA
0284E:  MOVWF  FA7
02850:  BSF    FA6.1
02852:  BTFSC  FA6.1
02854:  BRA    2852
02856:  BCF    FA6.2
02858:  MOVF   00,W
0285A:  IORWF  FF2,F
0285C:  MOVLB  4
....................    } 
....................    if(Tuv[2]>9 || Tuv[2]<0){ 
0285E:  BTFSC  xEF.7
02860:  BRA    2868
02862:  MOVF   xEF,W
02864:  SUBLW  09
02866:  BNC   286E
02868:  BTFSC  xEF.7
0286A:  BRA    286E
0286C:  BRA    289C
....................       Tuv[2]=0;write_eeprom(14,0); 
0286E:  CLRF   xEF
02870:  CLRF   FAA
02872:  MOVLW  0E
02874:  MOVWF  FA9
02876:  CLRF   FA8
02878:  BCF    FA6.6
0287A:  BCF    FA6.7
0287C:  BSF    FA6.2
0287E:  MOVF   FF2,W
02880:  MOVWF  00
02882:  BCF    FF2.7
02884:  MOVLB  F
02886:  MOVLW  55
02888:  MOVWF  FA7
0288A:  MOVLW  AA
0288C:  MOVWF  FA7
0288E:  BSF    FA6.1
02890:  BTFSC  FA6.1
02892:  BRA    2890
02894:  BCF    FA6.2
02896:  MOVF   00,W
02898:  IORWF  FF2,F
0289A:  MOVLB  4
....................    } 
....................    if(Tuv[3]>9 || Tuv[3]<0){ 
0289C:  BTFSC  xF0.7
0289E:  BRA    28A6
028A0:  MOVF   xF0,W
028A2:  SUBLW  09
028A4:  BNC   28AC
028A6:  BTFSC  xF0.7
028A8:  BRA    28AC
028AA:  BRA    28DA
....................       Tuv[3]=0;write_eeprom(15,0); 
028AC:  CLRF   xF0
028AE:  CLRF   FAA
028B0:  MOVLW  0F
028B2:  MOVWF  FA9
028B4:  CLRF   FA8
028B6:  BCF    FA6.6
028B8:  BCF    FA6.7
028BA:  BSF    FA6.2
028BC:  MOVF   FF2,W
028BE:  MOVWF  00
028C0:  BCF    FF2.7
028C2:  MOVLB  F
028C4:  MOVLW  55
028C6:  MOVWF  FA7
028C8:  MOVLW  AA
028CA:  MOVWF  FA7
028CC:  BSF    FA6.1
028CE:  BTFSC  FA6.1
028D0:  BRA    28CE
028D2:  BCF    FA6.2
028D4:  MOVF   00,W
028D6:  IORWF  FF2,F
028D8:  MOVLB  4
....................    } 
....................    if(Ttrabajo[0]>9 || Ttrabajo[0]<0){ 
028DA:  BTFSC  xF5.7
028DC:  BRA    28E4
028DE:  MOVF   xF5,W
028E0:  SUBLW  09
028E2:  BNC   28EA
028E4:  BTFSC  xF5.7
028E6:  BRA    28EA
028E8:  BRA    2918
....................       Ttrabajo[0]=0;write_eeprom(16,0); 
028EA:  CLRF   xF5
028EC:  CLRF   FAA
028EE:  MOVLW  10
028F0:  MOVWF  FA9
028F2:  CLRF   FA8
028F4:  BCF    FA6.6
028F6:  BCF    FA6.7
028F8:  BSF    FA6.2
028FA:  MOVF   FF2,W
028FC:  MOVWF  00
028FE:  BCF    FF2.7
02900:  MOVLB  F
02902:  MOVLW  55
02904:  MOVWF  FA7
02906:  MOVLW  AA
02908:  MOVWF  FA7
0290A:  BSF    FA6.1
0290C:  BTFSC  FA6.1
0290E:  BRA    290C
02910:  BCF    FA6.2
02912:  MOVF   00,W
02914:  IORWF  FF2,F
02916:  MOVLB  4
....................    } 
....................    if(Ttrabajo[1]>9 || Ttrabajo[1]<0){ 
02918:  BTFSC  xF6.7
0291A:  BRA    2922
0291C:  MOVF   xF6,W
0291E:  SUBLW  09
02920:  BNC   2928
02922:  BTFSC  xF6.7
02924:  BRA    2928
02926:  BRA    2956
....................       Ttrabajo[1]=0;write_eeprom(17,0); 
02928:  CLRF   xF6
0292A:  CLRF   FAA
0292C:  MOVLW  11
0292E:  MOVWF  FA9
02930:  CLRF   FA8
02932:  BCF    FA6.6
02934:  BCF    FA6.7
02936:  BSF    FA6.2
02938:  MOVF   FF2,W
0293A:  MOVWF  00
0293C:  BCF    FF2.7
0293E:  MOVLB  F
02940:  MOVLW  55
02942:  MOVWF  FA7
02944:  MOVLW  AA
02946:  MOVWF  FA7
02948:  BSF    FA6.1
0294A:  BTFSC  FA6.1
0294C:  BRA    294A
0294E:  BCF    FA6.2
02950:  MOVF   00,W
02952:  IORWF  FF2,F
02954:  MOVLB  4
....................    } 
....................    if(Ttrabajo[2]>9 || Ttrabajo[2]<0){ 
02956:  BTFSC  xF7.7
02958:  BRA    2960
0295A:  MOVF   xF7,W
0295C:  SUBLW  09
0295E:  BNC   2966
02960:  BTFSC  xF7.7
02962:  BRA    2966
02964:  BRA    2994
....................       Ttrabajo[2]=0;write_eeprom(18,0); 
02966:  CLRF   xF7
02968:  CLRF   FAA
0296A:  MOVLW  12
0296C:  MOVWF  FA9
0296E:  CLRF   FA8
02970:  BCF    FA6.6
02972:  BCF    FA6.7
02974:  BSF    FA6.2
02976:  MOVF   FF2,W
02978:  MOVWF  00
0297A:  BCF    FF2.7
0297C:  MOVLB  F
0297E:  MOVLW  55
02980:  MOVWF  FA7
02982:  MOVLW  AA
02984:  MOVWF  FA7
02986:  BSF    FA6.1
02988:  BTFSC  FA6.1
0298A:  BRA    2988
0298C:  BCF    FA6.2
0298E:  MOVF   00,W
02990:  IORWF  FF2,F
02992:  MOVLB  4
....................    } 
....................    if(Ttrabajo[3]>9 || Ttrabajo[3]<0){ 
02994:  BTFSC  xF8.7
02996:  BRA    299E
02998:  MOVF   xF8,W
0299A:  SUBLW  09
0299C:  BNC   29A4
0299E:  BTFSC  xF8.7
029A0:  BRA    29A4
029A2:  BRA    29D2
....................       Ttrabajo[3]=0;write_eeprom(19,0); 
029A4:  CLRF   xF8
029A6:  CLRF   FAA
029A8:  MOVLW  13
029AA:  MOVWF  FA9
029AC:  CLRF   FA8
029AE:  BCF    FA6.6
029B0:  BCF    FA6.7
029B2:  BSF    FA6.2
029B4:  MOVF   FF2,W
029B6:  MOVWF  00
029B8:  BCF    FF2.7
029BA:  MOVLB  F
029BC:  MOVLW  55
029BE:  MOVWF  FA7
029C0:  MOVLW  AA
029C2:  MOVWF  FA7
029C4:  BSF    FA6.1
029C6:  BTFSC  FA6.1
029C8:  BRA    29C6
029CA:  BCF    FA6.2
029CC:  MOVF   00,W
029CE:  IORWF  FF2,F
029D0:  MOVLB  4
....................    } 
....................    if(Tempouvp[0]>9 || Tempouvp[0]<0){ 
029D2:  BTFSC  xF1.7
029D4:  BRA    29DC
029D6:  MOVF   xF1,W
029D8:  SUBLW  09
029DA:  BNC   29E2
029DC:  BTFSC  xF1.7
029DE:  BRA    29E2
029E0:  BRA    2A10
....................       Tempouvp[0]=0;write_eeprom(21,0); 
029E2:  CLRF   xF1
029E4:  CLRF   FAA
029E6:  MOVLW  15
029E8:  MOVWF  FA9
029EA:  CLRF   FA8
029EC:  BCF    FA6.6
029EE:  BCF    FA6.7
029F0:  BSF    FA6.2
029F2:  MOVF   FF2,W
029F4:  MOVWF  00
029F6:  BCF    FF2.7
029F8:  MOVLB  F
029FA:  MOVLW  55
029FC:  MOVWF  FA7
029FE:  MOVLW  AA
02A00:  MOVWF  FA7
02A02:  BSF    FA6.1
02A04:  BTFSC  FA6.1
02A06:  BRA    2A04
02A08:  BCF    FA6.2
02A0A:  MOVF   00,W
02A0C:  IORWF  FF2,F
02A0E:  MOVLB  4
....................    } 
....................    if(Tempouvp[1]>9 || Tempouvp[1]<0){ 
02A10:  BTFSC  xF2.7
02A12:  BRA    2A1A
02A14:  MOVF   xF2,W
02A16:  SUBLW  09
02A18:  BNC   2A20
02A1A:  BTFSC  xF2.7
02A1C:  BRA    2A20
02A1E:  BRA    2A4E
....................       Tempouvp[1]=0;write_eeprom(22,0); 
02A20:  CLRF   xF2
02A22:  CLRF   FAA
02A24:  MOVLW  16
02A26:  MOVWF  FA9
02A28:  CLRF   FA8
02A2A:  BCF    FA6.6
02A2C:  BCF    FA6.7
02A2E:  BSF    FA6.2
02A30:  MOVF   FF2,W
02A32:  MOVWF  00
02A34:  BCF    FF2.7
02A36:  MOVLB  F
02A38:  MOVLW  55
02A3A:  MOVWF  FA7
02A3C:  MOVLW  AA
02A3E:  MOVWF  FA7
02A40:  BSF    FA6.1
02A42:  BTFSC  FA6.1
02A44:  BRA    2A42
02A46:  BCF    FA6.2
02A48:  MOVF   00,W
02A4A:  IORWF  FF2,F
02A4C:  MOVLB  4
....................    } 
....................    if(Tempouvp[2]>9 || Tempouvp[2]<0){ 
02A4E:  BTFSC  xF3.7
02A50:  BRA    2A58
02A52:  MOVF   xF3,W
02A54:  SUBLW  09
02A56:  BNC   2A5E
02A58:  BTFSC  xF3.7
02A5A:  BRA    2A5E
02A5C:  BRA    2A8C
....................       Tempouvp[2]=0;write_eeprom(23,0); 
02A5E:  CLRF   xF3
02A60:  CLRF   FAA
02A62:  MOVLW  17
02A64:  MOVWF  FA9
02A66:  CLRF   FA8
02A68:  BCF    FA6.6
02A6A:  BCF    FA6.7
02A6C:  BSF    FA6.2
02A6E:  MOVF   FF2,W
02A70:  MOVWF  00
02A72:  BCF    FF2.7
02A74:  MOVLB  F
02A76:  MOVLW  55
02A78:  MOVWF  FA7
02A7A:  MOVLW  AA
02A7C:  MOVWF  FA7
02A7E:  BSF    FA6.1
02A80:  BTFSC  FA6.1
02A82:  BRA    2A80
02A84:  BCF    FA6.2
02A86:  MOVF   00,W
02A88:  IORWF  FF2,F
02A8A:  MOVLB  4
....................    } 
....................    if(Tempouvp[3]>9 || Tempouvp[3]<0){ 
02A8C:  BTFSC  xF4.7
02A8E:  BRA    2A96
02A90:  MOVF   xF4,W
02A92:  SUBLW  09
02A94:  BNC   2A9C
02A96:  BTFSC  xF4.7
02A98:  BRA    2A9C
02A9A:  BRA    2ACC
....................       Tempouvp[3]=1;write_eeprom(24,1); 
02A9C:  MOVLW  01
02A9E:  MOVWF  xF4
02AA0:  CLRF   FAA
02AA2:  MOVLW  18
02AA4:  MOVWF  FA9
02AA6:  MOVLW  01
02AA8:  MOVWF  FA8
02AAA:  BCF    FA6.6
02AAC:  BCF    FA6.7
02AAE:  BSF    FA6.2
02AB0:  MOVF   FF2,W
02AB2:  MOVWF  00
02AB4:  BCF    FF2.7
02AB6:  MOVLB  F
02AB8:  MOVLW  55
02ABA:  MOVWF  FA7
02ABC:  MOVLW  AA
02ABE:  MOVWF  FA7
02AC0:  BSF    FA6.1
02AC2:  BTFSC  FA6.1
02AC4:  BRA    2AC2
02AC6:  BCF    FA6.2
02AC8:  MOVF   00,W
02ACA:  IORWF  FF2,F
....................    } 
....................    if(Ajuste1>25.0){ 
02ACC:  MOVLB  6
02ACE:  CLRF   x01
02AD0:  CLRF   x00
02AD2:  MOVLW  48
02AD4:  MOVLB  5
02AD6:  MOVWF  xFF
02AD8:  MOVLW  83
02ADA:  MOVWF  xFE
02ADC:  MOVFF  524,605
02AE0:  MOVFF  523,604
02AE4:  MOVFF  522,603
02AE8:  MOVFF  521,602
02AEC:  MOVLB  0
02AEE:  RCALL  244E
02AF0:  BNC   2B56
....................       Ajuste1=1.5;write_eeprom(25,1);write_eeprom(26,5); 
02AF2:  MOVLB  5
02AF4:  CLRF   x24
02AF6:  CLRF   x23
02AF8:  MOVLW  40
02AFA:  MOVWF  x22
02AFC:  MOVLW  7F
02AFE:  MOVWF  x21
02B00:  CLRF   FAA
02B02:  MOVLW  19
02B04:  MOVWF  FA9
02B06:  MOVLW  01
02B08:  MOVWF  FA8
02B0A:  BCF    FA6.6
02B0C:  BCF    FA6.7
02B0E:  BSF    FA6.2
02B10:  MOVF   FF2,W
02B12:  MOVWF  00
02B14:  BCF    FF2.7
02B16:  MOVLB  F
02B18:  MOVLW  55
02B1A:  MOVWF  FA7
02B1C:  MOVLW  AA
02B1E:  MOVWF  FA7
02B20:  BSF    FA6.1
02B22:  BTFSC  FA6.1
02B24:  BRA    2B22
02B26:  BCF    FA6.2
02B28:  MOVF   00,W
02B2A:  IORWF  FF2,F
02B2C:  CLRF   FAA
02B2E:  MOVLW  1A
02B30:  MOVWF  FA9
02B32:  MOVLW  05
02B34:  MOVWF  FA8
02B36:  BCF    FA6.6
02B38:  BCF    FA6.7
02B3A:  BSF    FA6.2
02B3C:  MOVF   FF2,W
02B3E:  MOVWF  00
02B40:  BCF    FF2.7
02B42:  MOVLW  55
02B44:  MOVWF  FA7
02B46:  MOVLW  AA
02B48:  MOVWF  FA7
02B4A:  BSF    FA6.1
02B4C:  BTFSC  FA6.1
02B4E:  BRA    2B4C
02B50:  BCF    FA6.2
02B52:  MOVF   00,W
02B54:  IORWF  FF2,F
....................    } 
....................    if(Ajuste2>25.0){ 
02B56:  MOVLB  6
02B58:  CLRF   x01
02B5A:  CLRF   x00
02B5C:  MOVLW  48
02B5E:  MOVLB  5
02B60:  MOVWF  xFF
02B62:  MOVLW  83
02B64:  MOVWF  xFE
02B66:  MOVFF  528,605
02B6A:  MOVFF  527,604
02B6E:  MOVFF  526,603
02B72:  MOVFF  525,602
02B76:  MOVLB  0
02B78:  RCALL  244E
02B7A:  BNC   2BDC
....................       Ajuste2=1.0;write_eeprom(27,1);write_eeprom(28,0); 
02B7C:  MOVLB  5
02B7E:  CLRF   x28
02B80:  CLRF   x27
02B82:  CLRF   x26
02B84:  MOVLW  7F
02B86:  MOVWF  x25
02B88:  CLRF   FAA
02B8A:  MOVLW  1B
02B8C:  MOVWF  FA9
02B8E:  MOVLW  01
02B90:  MOVWF  FA8
02B92:  BCF    FA6.6
02B94:  BCF    FA6.7
02B96:  BSF    FA6.2
02B98:  MOVF   FF2,W
02B9A:  MOVWF  00
02B9C:  BCF    FF2.7
02B9E:  MOVLB  F
02BA0:  MOVLW  55
02BA2:  MOVWF  FA7
02BA4:  MOVLW  AA
02BA6:  MOVWF  FA7
02BA8:  BSF    FA6.1
02BAA:  BTFSC  FA6.1
02BAC:  BRA    2BAA
02BAE:  BCF    FA6.2
02BB0:  MOVF   00,W
02BB2:  IORWF  FF2,F
02BB4:  CLRF   FAA
02BB6:  MOVLW  1C
02BB8:  MOVWF  FA9
02BBA:  CLRF   FA8
02BBC:  BCF    FA6.6
02BBE:  BCF    FA6.7
02BC0:  BSF    FA6.2
02BC2:  MOVF   FF2,W
02BC4:  MOVWF  00
02BC6:  BCF    FF2.7
02BC8:  MOVLW  55
02BCA:  MOVWF  FA7
02BCC:  MOVLW  AA
02BCE:  MOVWF  FA7
02BD0:  BSF    FA6.1
02BD2:  BTFSC  FA6.1
02BD4:  BRA    2BD2
02BD6:  BCF    FA6.2
02BD8:  MOVF   00,W
02BDA:  IORWF  FF2,F
....................    } 
....................    if(zero_actual>300){ 
02BDC:  MOVLB  6
02BDE:  CLRF   x01
02BE0:  CLRF   x00
02BE2:  MOVLW  16
02BE4:  MOVLB  5
02BE6:  MOVWF  xFF
02BE8:  MOVLW  87
02BEA:  MOVWF  xFE
02BEC:  MOVFF  5AC,605
02BF0:  MOVFF  5AB,604
02BF4:  MOVFF  5AA,603
02BF8:  MOVFF  5A9,602
02BFC:  MOVLB  0
02BFE:  RCALL  244E
02C00:  BNC   2C64
....................       zero_actual=203;write_eeprom(29,203);write_eeprom(30,0); 
02C02:  MOVLB  5
02C04:  CLRF   xAC
02C06:  CLRF   xAB
02C08:  MOVLW  4B
02C0A:  MOVWF  xAA
02C0C:  MOVLW  86
02C0E:  MOVWF  xA9
02C10:  CLRF   FAA
02C12:  MOVLW  1D
02C14:  MOVWF  FA9
02C16:  MOVLW  CB
02C18:  MOVWF  FA8
02C1A:  BCF    FA6.6
02C1C:  BCF    FA6.7
02C1E:  BSF    FA6.2
02C20:  MOVF   FF2,W
02C22:  MOVWF  00
02C24:  BCF    FF2.7
02C26:  MOVLB  F
02C28:  MOVLW  55
02C2A:  MOVWF  FA7
02C2C:  MOVLW  AA
02C2E:  MOVWF  FA7
02C30:  BSF    FA6.1
02C32:  BTFSC  FA6.1
02C34:  BRA    2C32
02C36:  BCF    FA6.2
02C38:  MOVF   00,W
02C3A:  IORWF  FF2,F
02C3C:  CLRF   FAA
02C3E:  MOVLW  1E
02C40:  MOVWF  FA9
02C42:  CLRF   FA8
02C44:  BCF    FA6.6
02C46:  BCF    FA6.7
02C48:  BSF    FA6.2
02C4A:  MOVF   FF2,W
02C4C:  MOVWF  00
02C4E:  BCF    FF2.7
02C50:  MOVLW  55
02C52:  MOVWF  FA7
02C54:  MOVLW  AA
02C56:  MOVWF  FA7
02C58:  BSF    FA6.1
02C5A:  BTFSC  FA6.1
02C5C:  BRA    2C5A
02C5E:  BCF    FA6.2
02C60:  MOVF   00,W
02C62:  IORWF  FF2,F
....................    } 
....................    if(minutos_uv>60){ 
02C64:  MOVLB  4
02C66:  MOVF   xDC,F
02C68:  BNZ   2C70
02C6A:  MOVF   xDB,W
02C6C:  SUBLW  3C
02C6E:  BC    2C9E
....................       minutos_uv=0;write_eeprom(31,0); 
02C70:  CLRF   xDC
02C72:  CLRF   xDB
02C74:  CLRF   FAA
02C76:  MOVLW  1F
02C78:  MOVWF  FA9
02C7A:  CLRF   FA8
02C7C:  BCF    FA6.6
02C7E:  BCF    FA6.7
02C80:  BSF    FA6.2
02C82:  MOVF   FF2,W
02C84:  MOVWF  00
02C86:  BCF    FF2.7
02C88:  MOVLB  F
02C8A:  MOVLW  55
02C8C:  MOVWF  FA7
02C8E:  MOVLW  AA
02C90:  MOVWF  FA7
02C92:  BSF    FA6.1
02C94:  BTFSC  FA6.1
02C96:  BRA    2C94
02C98:  BCF    FA6.2
02C9A:  MOVF   00,W
02C9C:  IORWF  FF2,F
....................    } 
....................    if(VelMotor>6){ 
02C9E:  MOVLB  5
02CA0:  MOVF   xC4,W
02CA2:  SUBLW  06
02CA4:  BC    2CD6
....................       VelMotor=2;write_eeprom(32,2); 
02CA6:  MOVLW  02
02CA8:  MOVWF  xC4
02CAA:  CLRF   FAA
02CAC:  MOVLW  20
02CAE:  MOVWF  FA9
02CB0:  MOVLW  02
02CB2:  MOVWF  FA8
02CB4:  BCF    FA6.6
02CB6:  BCF    FA6.7
02CB8:  BSF    FA6.2
02CBA:  MOVF   FF2,W
02CBC:  MOVWF  00
02CBE:  BCF    FF2.7
02CC0:  MOVLB  F
02CC2:  MOVLW  55
02CC4:  MOVWF  FA7
02CC6:  MOVLW  AA
02CC8:  MOVWF  FA7
02CCA:  BSF    FA6.1
02CCC:  BTFSC  FA6.1
02CCE:  BRA    2CCC
02CD0:  BCF    FA6.2
02CD2:  MOVF   00,W
02CD4:  IORWF  FF2,F
....................    }    
....................    if(minutos_trabajo>3600){ 
02CD6:  MOVLB  4
02CD8:  MOVF   xDE,W
02CDA:  SUBLW  0D
02CDC:  BC    2D3E
02CDE:  XORLW  FF
02CE0:  BNZ   2CE8
02CE2:  MOVF   xDD,W
02CE4:  SUBLW  10
02CE6:  BC    2D3E
....................       minutos_trabajo=0;write_eeprom(33,0);write_eeprom(34,0); 
02CE8:  CLRF   xDE
02CEA:  CLRF   xDD
02CEC:  CLRF   FAA
02CEE:  MOVLW  21
02CF0:  MOVWF  FA9
02CF2:  CLRF   FA8
02CF4:  BCF    FA6.6
02CF6:  BCF    FA6.7
02CF8:  BSF    FA6.2
02CFA:  MOVF   FF2,W
02CFC:  MOVWF  00
02CFE:  BCF    FF2.7
02D00:  MOVLB  F
02D02:  MOVLW  55
02D04:  MOVWF  FA7
02D06:  MOVLW  AA
02D08:  MOVWF  FA7
02D0A:  BSF    FA6.1
02D0C:  BTFSC  FA6.1
02D0E:  BRA    2D0C
02D10:  BCF    FA6.2
02D12:  MOVF   00,W
02D14:  IORWF  FF2,F
02D16:  CLRF   FAA
02D18:  MOVLW  22
02D1A:  MOVWF  FA9
02D1C:  CLRF   FA8
02D1E:  BCF    FA6.6
02D20:  BCF    FA6.7
02D22:  BSF    FA6.2
02D24:  MOVF   FF2,W
02D26:  MOVWF  00
02D28:  BCF    FF2.7
02D2A:  MOVLW  55
02D2C:  MOVWF  FA7
02D2E:  MOVLW  AA
02D30:  MOVWF  FA7
02D32:  BSF    FA6.1
02D34:  BTFSC  FA6.1
02D36:  BRA    2D34
02D38:  BCF    FA6.2
02D3A:  MOVF   00,W
02D3C:  IORWF  FF2,F
....................    } 
....................    //if(Relacion>2.0){ 
....................       //Relacion=0.57;write_eeprom(35,0);write_eeprom(36,57); 
....................    //} 
....................    if(Diferencia>200){ 
02D3E:  MOVLB  6
02D40:  CLRF   x01
02D42:  CLRF   x00
02D44:  MOVLW  48
02D46:  MOVLB  5
02D48:  MOVWF  xFF
02D4A:  MOVLW  86
02D4C:  MOVWF  xFE
02D4E:  MOVFF  510,605
02D52:  MOVFF  50F,604
02D56:  MOVFF  50E,603
02D5A:  MOVFF  50D,602
02D5E:  MOVLB  0
02D60:  CALL   244E
02D64:  BNC   2DC2
....................       Diferencia=0;write_eeprom(60,0);write_eeprom(61,0); 
02D66:  MOVLB  5
02D68:  CLRF   x10
02D6A:  CLRF   x0F
02D6C:  CLRF   x0E
02D6E:  CLRF   x0D
02D70:  CLRF   FAA
02D72:  MOVLW  3C
02D74:  MOVWF  FA9
02D76:  CLRF   FA8
02D78:  BCF    FA6.6
02D7A:  BCF    FA6.7
02D7C:  BSF    FA6.2
02D7E:  MOVF   FF2,W
02D80:  MOVWF  00
02D82:  BCF    FF2.7
02D84:  MOVLB  F
02D86:  MOVLW  55
02D88:  MOVWF  FA7
02D8A:  MOVLW  AA
02D8C:  MOVWF  FA7
02D8E:  BSF    FA6.1
02D90:  BTFSC  FA6.1
02D92:  BRA    2D90
02D94:  BCF    FA6.2
02D96:  MOVF   00,W
02D98:  IORWF  FF2,F
02D9A:  CLRF   FAA
02D9C:  MOVLW  3D
02D9E:  MOVWF  FA9
02DA0:  CLRF   FA8
02DA2:  BCF    FA6.6
02DA4:  BCF    FA6.7
02DA6:  BSF    FA6.2
02DA8:  MOVF   FF2,W
02DAA:  MOVWF  00
02DAC:  BCF    FF2.7
02DAE:  MOVLW  55
02DB0:  MOVWF  FA7
02DB2:  MOVLW  AA
02DB4:  MOVWF  FA7
02DB6:  BSF    FA6.1
02DB8:  BTFSC  FA6.1
02DBA:  BRA    2DB8
02DBC:  BCF    FA6.2
02DBE:  MOVF   00,W
02DC0:  IORWF  FF2,F
....................    } 
....................    if(G>900){ 
02DC2:  MOVLB  6
02DC4:  CLRF   x01
02DC6:  CLRF   x00
02DC8:  MOVLW  61
02DCA:  MOVLB  5
02DCC:  MOVWF  xFF
02DCE:  MOVLW  88
02DD0:  MOVWF  xFE
02DD2:  MOVFF  5B8,605
02DD6:  MOVFF  5B7,604
02DDA:  MOVFF  5B6,603
02DDE:  MOVFF  5B5,602
02DE2:  MOVLB  0
02DE4:  CALL   244E
02DE8:  BNC   2E4C
....................       G=240;write_eeprom(62,240);write_eeprom(63,0); 
02DEA:  MOVLB  5
02DEC:  CLRF   xB8
02DEE:  CLRF   xB7
02DF0:  MOVLW  70
02DF2:  MOVWF  xB6
02DF4:  MOVLW  86
02DF6:  MOVWF  xB5
02DF8:  CLRF   FAA
02DFA:  MOVLW  3E
02DFC:  MOVWF  FA9
02DFE:  MOVLW  F0
02E00:  MOVWF  FA8
02E02:  BCF    FA6.6
02E04:  BCF    FA6.7
02E06:  BSF    FA6.2
02E08:  MOVF   FF2,W
02E0A:  MOVWF  00
02E0C:  BCF    FF2.7
02E0E:  MOVLB  F
02E10:  MOVLW  55
02E12:  MOVWF  FA7
02E14:  MOVLW  AA
02E16:  MOVWF  FA7
02E18:  BSF    FA6.1
02E1A:  BTFSC  FA6.1
02E1C:  BRA    2E1A
02E1E:  BCF    FA6.2
02E20:  MOVF   00,W
02E22:  IORWF  FF2,F
02E24:  CLRF   FAA
02E26:  MOVLW  3F
02E28:  MOVWF  FA9
02E2A:  CLRF   FA8
02E2C:  BCF    FA6.6
02E2E:  BCF    FA6.7
02E30:  BSF    FA6.2
02E32:  MOVF   FF2,W
02E34:  MOVWF  00
02E36:  BCF    FF2.7
02E38:  MOVLW  55
02E3A:  MOVWF  FA7
02E3C:  MOVLW  AA
02E3E:  MOVWF  FA7
02E40:  BSF    FA6.1
02E42:  BTFSC  FA6.1
02E44:  BRA    2E42
02E46:  BCF    FA6.2
02E48:  MOVF   00,W
02E4A:  IORWF  FF2,F
....................    } 
....................    if(negativo>20){ 
02E4C:  MOVLB  4
02E4E:  MOVF   xC8,W
02E50:  SUBLW  14
02E52:  BC    2E86
....................       negativo=10;write_eeprom(50,10); 
02E54:  MOVLW  0A
02E56:  MOVWF  xC8
02E58:  CLRF   FAA
02E5A:  MOVLW  32
02E5C:  MOVWF  FA9
02E5E:  MOVLW  0A
02E60:  MOVWF  FA8
02E62:  BCF    FA6.6
02E64:  BCF    FA6.7
02E66:  BSF    FA6.2
02E68:  MOVF   FF2,W
02E6A:  MOVWF  00
02E6C:  BCF    FF2.7
02E6E:  MOVLB  F
02E70:  MOVLW  55
02E72:  MOVWF  FA7
02E74:  MOVLW  AA
02E76:  MOVWF  FA7
02E78:  BSF    FA6.1
02E7A:  BTFSC  FA6.1
02E7C:  BRA    2E7A
02E7E:  BCF    FA6.2
02E80:  MOVF   00,W
02E82:  IORWF  FF2,F
02E84:  MOVLB  4
....................    } 
.................... } 
02E86:  MOVLB  0
02E88:  GOTO   5F74 (RETURN)
....................  
.................... void VelocidadMotor(int8 Vel){ 
....................    if(Vel==6){ 
*
01390:  MOVLB  5
01392:  MOVF   xCD,W
01394:  SUBLW  06
01396:  BNZ   13A0
....................       Porcentaje=0; 
01398:  CLRF   xC3
....................       Motor_on; 
0139A:  BSF    F8B.2
0139C:  BCF    F94.2
....................    }else if(Vel==5){ 
0139E:  BRA    140E
013A0:  MOVF   xCD,W
013A2:  SUBLW  05
013A4:  BNZ   13B4
....................       Porcentaje=15; 
013A6:  MOVLW  0F
013A8:  MOVWF  xC3
....................       retardo=2000; 
013AA:  MOVLW  07
013AC:  MOVWF  xBC
013AE:  MOVLW  D0
013B0:  MOVWF  xBB
....................    }else if(Vel==4){ 
013B2:  BRA    140E
013B4:  MOVF   xCD,W
013B6:  SUBLW  04
013B8:  BNZ   13C8
....................       Porcentaje=25; 
013BA:  MOVLW  19
013BC:  MOVWF  xC3
....................       retardo=3000; 
013BE:  MOVLW  0B
013C0:  MOVWF  xBC
013C2:  MOVLW  B8
013C4:  MOVWF  xBB
....................    }else if(Vel==3){ 
013C6:  BRA    140E
013C8:  MOVF   xCD,W
013CA:  SUBLW  03
013CC:  BNZ   13DC
....................       Porcentaje=35; 
013CE:  MOVLW  23
013D0:  MOVWF  xC3
....................       retardo=3600; 
013D2:  MOVLW  0E
013D4:  MOVWF  xBC
013D6:  MOVLW  10
013D8:  MOVWF  xBB
....................    }else if(Vel==2){ 
013DA:  BRA    140E
013DC:  MOVF   xCD,W
013DE:  SUBLW  02
013E0:  BNZ   13F0
....................       Porcentaje=45; 
013E2:  MOVLW  2D
013E4:  MOVWF  xC3
....................       retardo=4300; 
013E6:  MOVLW  10
013E8:  MOVWF  xBC
013EA:  MOVLW  CC
013EC:  MOVWF  xBB
....................    }else if(Vel==1){ 
013EE:  BRA    140E
013F0:  DECFSZ xCD,W
013F2:  BRA    1402
....................       Porcentaje=50; 
013F4:  MOVLW  32
013F6:  MOVWF  xC3
....................       retardo=5000; 
013F8:  MOVLW  13
013FA:  MOVWF  xBC
013FC:  MOVLW  88
013FE:  MOVWF  xBB
....................    }else if(Vel==0){ 
01400:  BRA    140E
01402:  MOVF   xCD,F
01404:  BNZ   140E
....................       Porcentaje=100; 
01406:  MOVLW  64
01408:  MOVWF  xC3
....................       Motor_off; 
0140A:  BCF    F8B.2
0140C:  BCF    F94.2
....................    } 
.................... } 
0140E:  MOVLB  0
01410:  RETLW  00
....................  
.................... short PidePassword(int8 MenuAnt, int8 MenuActual, int8 MenuPost, int8 clave0,int8 clave1, int8 clave2,int8 clave3){ 
....................       if(n==0) 
*
04C0C:  MOVLB  4
04C0E:  BTFSC  x2F.0
04C10:  BRA    4CA8
....................       { 
....................          displayContrasena(Contrasena[0],20,30,1);displayContrasena(Contrasena[1],40,30,0); 
04C12:  MOVFF  4F9,5D7
04C16:  MOVLW  14
04C18:  MOVLB  5
04C1A:  MOVWF  xD8
04C1C:  MOVLW  1E
04C1E:  MOVWF  xD9
04C20:  MOVLW  01
04C22:  MOVWF  xDA
04C24:  MOVLB  0
04C26:  RCALL  4A80
04C28:  MOVFF  4FA,5D7
04C2C:  MOVLW  28
04C2E:  MOVLB  5
04C30:  MOVWF  xD8
04C32:  MOVLW  1E
04C34:  MOVWF  xD9
04C36:  CLRF   xDA
04C38:  MOVLB  0
04C3A:  RCALL  4A80
....................          displayContrasena(Contrasena[2],60,30,0);displayContrasena(Contrasena[0],80,30,0); 
04C3C:  MOVFF  4FB,5D7
04C40:  MOVLW  3C
04C42:  MOVLB  5
04C44:  MOVWF  xD8
04C46:  MOVLW  1E
04C48:  MOVWF  xD9
04C4A:  CLRF   xDA
04C4C:  MOVLB  0
04C4E:  RCALL  4A80
04C50:  MOVFF  4F9,5D7
04C54:  MOVLW  50
04C56:  MOVLB  5
04C58:  MOVWF  xD8
04C5A:  MOVLW  1E
04C5C:  MOVWF  xD9
04C5E:  CLRF   xDA
04C60:  MOVLB  0
04C62:  RCALL  4A80
....................          strcpy(Menus.Letra,"Clave"); 
04C64:  MOVLW  04
04C66:  MOVWF  FEA
04C68:  MOVLW  17
04C6A:  MOVWF  FE9
04C6C:  MOVFF  FF2,5D5
04C70:  BCF    FF2.7
04C72:  MOVLW  00
04C74:  CALL   0F0A
04C78:  TBLRD*-
04C7A:  TBLRD*+
04C7C:  MOVF   FF5,W
04C7E:  MOVWF  FEE
04C80:  IORLW  00
04C82:  BNZ   4C7A
04C84:  MOVLB  5
04C86:  BTFSC  xD5.7
04C88:  BSF    FF2.7
....................          displayMenu(Menus.Letra,20,0,1,3); 
04C8A:  MOVLW  04
04C8C:  MOVWF  xD6
04C8E:  MOVLW  17
04C90:  MOVWF  xD5
04C92:  MOVLW  14
04C94:  MOVWF  xD7
04C96:  CLRF   xD8
04C98:  MOVLW  01
04C9A:  MOVWF  xD9
04C9C:  MOVLW  03
04C9E:  MOVWF  xDA
04CA0:  MOVLB  0
04CA2:  RCALL  4B3C
....................          n=1; 
04CA4:  MOVLB  4
04CA6:  BSF    x2F.0
....................       } 
....................        
....................       if(UP){ 
04CA8:  BSF    F92.5
04CAA:  BTFSC  F80.5
04CAC:  BRA    4D88
....................          flag_latencia=0;t_latencia=0; 
04CAE:  BCF    x2E.5
04CB0:  CLRF   xDA
04CB2:  CLRF   xD9
....................          if(Flanco == 0){ 
04CB4:  BTFSC  x2D.0
04CB6:  BRA    4D86
....................             Flanco = 1;delay_ms(5); 
04CB8:  BSF    x2D.0
04CBA:  MOVLW  05
04CBC:  MOVLB  5
04CBE:  MOVWF  xE1
04CC0:  MOVLB  0
04CC2:  CALL   1368
....................             for(i=1;i<=4;i++){ 
04CC6:  MOVLW  01
04CC8:  MOVLB  5
04CCA:  MOVWF  xBD
04CCC:  MOVF   xBD,W
04CCE:  SUBLW  04
04CD0:  BNC   4D84
....................                if(unidad==i){ 
04CD2:  MOVF   xBD,W
04CD4:  MOVLB  4
04CD6:  SUBWF  xC6,W
04CD8:  BNZ   4D4E
....................                   Contrasena[i-1]++; 
04CDA:  MOVLW  01
04CDC:  MOVLB  5
04CDE:  SUBWF  xBD,W
04CE0:  CLRF   03
04CE2:  ADDLW  F9
04CE4:  MOVWF  FE9
04CE6:  MOVLW  04
04CE8:  ADDWFC 03,W
04CEA:  MOVWF  FEA
04CEC:  INCF   FEF,F
....................                   if(Contrasena[i-1]>9){ 
04CEE:  MOVLW  01
04CF0:  SUBWF  xBD,W
04CF2:  CLRF   03
04CF4:  ADDLW  F9
04CF6:  MOVWF  FE9
04CF8:  MOVLW  04
04CFA:  ADDWFC 03,W
04CFC:  MOVWF  FEA
04CFE:  BTFSC  FEF.7
04D00:  BRA    4D1A
04D02:  MOVF   FEF,W
04D04:  SUBLW  09
04D06:  BC    4D1A
....................                      Contrasena[i-1]=0; 
04D08:  MOVLW  01
04D0A:  SUBWF  xBD,W
04D0C:  CLRF   03
04D0E:  ADDLW  F9
04D10:  MOVWF  FE9
04D12:  MOVLW  04
04D14:  ADDWFC 03,W
04D16:  MOVWF  FEA
04D18:  CLRF   FEF
....................                   } 
....................                   displayContrasena(Contrasena[i-1],i*20,30,1); 
04D1A:  MOVLW  01
04D1C:  SUBWF  xBD,W
04D1E:  CLRF   03
04D20:  ADDLW  F9
04D22:  MOVWF  FE9
04D24:  MOVLW  04
04D26:  ADDWFC 03,W
04D28:  MOVWF  FEA
04D2A:  MOVFF  FEF,5D5
04D2E:  MOVF   xBD,W
04D30:  MULLW  14
04D32:  MOVFF  FF3,5D6
04D36:  MOVFF  5D5,5D7
04D3A:  MOVFF  5D6,5D8
04D3E:  MOVLW  1E
04D40:  MOVWF  xD9
04D42:  MOVLW  01
04D44:  MOVWF  xDA
04D46:  MOVLB  0
04D48:  RCALL  4A80
....................                }else{ 
04D4A:  BRA    4D7E
04D4C:  MOVLB  4
....................                   displayContrasena(Contrasena[i-1],i*20,30,0); 
04D4E:  MOVLW  01
04D50:  MOVLB  5
04D52:  SUBWF  xBD,W
04D54:  CLRF   03
04D56:  ADDLW  F9
04D58:  MOVWF  FE9
04D5A:  MOVLW  04
04D5C:  ADDWFC 03,W
04D5E:  MOVWF  FEA
04D60:  MOVFF  FEF,5D5
04D64:  MOVF   xBD,W
04D66:  MULLW  14
04D68:  MOVFF  FF3,5D6
04D6C:  MOVFF  5D5,5D7
04D70:  MOVFF  5D6,5D8
04D74:  MOVLW  1E
04D76:  MOVWF  xD9
04D78:  CLRF   xDA
04D7A:  MOVLB  0
04D7C:  RCALL  4A80
....................                } 
....................             } 
04D7E:  MOVLB  5
04D80:  INCF   xBD,F
04D82:  BRA    4CCC
04D84:  MOVLB  4
....................          } 
....................       }else{ 
04D86:  BRA    4D8A
....................          Flanco = 0; 
04D88:  BCF    x2D.0
....................       } 
....................              
....................       if(DOWN){ 
04D8A:  BSF    F96.0
04D8C:  BTFSC  F84.0
04D8E:  BRA    4E68
....................          flag_latencia=0;t_latencia=0; 
04D90:  BCF    x2E.5
04D92:  CLRF   xDA
04D94:  CLRF   xD9
....................          if(Flanco2 == 0){ 
04D96:  BTFSC  x2D.2
04D98:  BRA    4E66
....................             Flanco2 = 1;delay_ms(5); 
04D9A:  BSF    x2D.2
04D9C:  MOVLW  05
04D9E:  MOVLB  5
04DA0:  MOVWF  xE1
04DA2:  MOVLB  0
04DA4:  CALL   1368
....................             for(i=1;i<=4;i++){ 
04DA8:  MOVLW  01
04DAA:  MOVLB  5
04DAC:  MOVWF  xBD
04DAE:  MOVF   xBD,W
04DB0:  SUBLW  04
04DB2:  BNC   4E64
....................                if(unidad==i){ 
04DB4:  MOVF   xBD,W
04DB6:  MOVLB  4
04DB8:  SUBWF  xC6,W
04DBA:  BNZ   4E2E
....................                   Contrasena[i-1]--; 
04DBC:  MOVLW  01
04DBE:  MOVLB  5
04DC0:  SUBWF  xBD,W
04DC2:  CLRF   03
04DC4:  ADDLW  F9
04DC6:  MOVWF  FE9
04DC8:  MOVLW  04
04DCA:  ADDWFC 03,W
04DCC:  MOVWF  FEA
04DCE:  DECF   FEF,F
....................                   if(Contrasena[i-1]<0){ 
04DD0:  MOVLW  01
04DD2:  SUBWF  xBD,W
04DD4:  CLRF   03
04DD6:  ADDLW  F9
04DD8:  MOVWF  FE9
04DDA:  MOVLW  04
04DDC:  ADDWFC 03,W
04DDE:  MOVWF  FEA
04DE0:  BTFSC  FEF.7
04DE2:  BRA    4DE6
04DE4:  BRA    4DFA
....................                      Contrasena[i-1]=9; 
04DE6:  MOVLW  01
04DE8:  SUBWF  xBD,W
04DEA:  CLRF   03
04DEC:  ADDLW  F9
04DEE:  MOVWF  FE9
04DF0:  MOVLW  04
04DF2:  ADDWFC 03,W
04DF4:  MOVWF  FEA
04DF6:  MOVLW  09
04DF8:  MOVWF  FEF
....................                   } 
....................                   displayContrasena(Contrasena[i-1],i*20,30,1); 
04DFA:  MOVLW  01
04DFC:  SUBWF  xBD,W
04DFE:  CLRF   03
04E00:  ADDLW  F9
04E02:  MOVWF  FE9
04E04:  MOVLW  04
04E06:  ADDWFC 03,W
04E08:  MOVWF  FEA
04E0A:  MOVFF  FEF,5D5
04E0E:  MOVF   xBD,W
04E10:  MULLW  14
04E12:  MOVFF  FF3,5D6
04E16:  MOVFF  5D5,5D7
04E1A:  MOVFF  5D6,5D8
04E1E:  MOVLW  1E
04E20:  MOVWF  xD9
04E22:  MOVLW  01
04E24:  MOVWF  xDA
04E26:  MOVLB  0
04E28:  RCALL  4A80
....................                }else{ 
04E2A:  BRA    4E5E
04E2C:  MOVLB  4
....................                   displayContrasena(Contrasena[i-1],i*20,30,0); 
04E2E:  MOVLW  01
04E30:  MOVLB  5
04E32:  SUBWF  xBD,W
04E34:  CLRF   03
04E36:  ADDLW  F9
04E38:  MOVWF  FE9
04E3A:  MOVLW  04
04E3C:  ADDWFC 03,W
04E3E:  MOVWF  FEA
04E40:  MOVFF  FEF,5D5
04E44:  MOVF   xBD,W
04E46:  MULLW  14
04E48:  MOVFF  FF3,5D6
04E4C:  MOVFF  5D5,5D7
04E50:  MOVFF  5D6,5D8
04E54:  MOVLW  1E
04E56:  MOVWF  xD9
04E58:  CLRF   xDA
04E5A:  MOVLB  0
04E5C:  RCALL  4A80
....................                } 
....................             }       
04E5E:  MOVLB  5
04E60:  INCF   xBD,F
04E62:  BRA    4DAE
04E64:  MOVLB  4
....................          }      
....................       }else{ 
04E66:  BRA    4E6A
....................          Flanco2 = 0; 
04E68:  BCF    x2D.2
....................       } 
....................              
....................       if(RIGHT){ 
04E6A:  BSF    F96.1
04E6C:  BTFSC  F84.1
04E6E:  BRA    4F10
....................          flag_latencia=0;t_latencia=0; 
04E70:  BCF    x2E.5
04E72:  CLRF   xDA
04E74:  CLRF   xD9
....................          if(Flanco1 == 0){ 
04E76:  BTFSC  x2D.1
04E78:  BRA    4F0E
....................             Flanco1 = 1;delay_ms(5);unidad++; 
04E7A:  BSF    x2D.1
04E7C:  MOVLW  05
04E7E:  MOVLB  5
04E80:  MOVWF  xE1
04E82:  MOVLB  0
04E84:  CALL   1368
04E88:  MOVLB  4
04E8A:  INCF   xC6,F
....................             for(i=1;i<=4;i++){ 
04E8C:  MOVLW  01
04E8E:  MOVLB  5
04E90:  MOVWF  xBD
04E92:  MOVF   xBD,W
04E94:  SUBLW  04
04E96:  BNC   4F0C
....................                if(unidad==i){ 
04E98:  MOVF   xBD,W
04E9A:  MOVLB  4
04E9C:  SUBWF  xC6,W
04E9E:  BNZ   4ED6
....................                   displayContrasena(Contrasena[i-1],i*20,30,1); 
04EA0:  MOVLW  01
04EA2:  MOVLB  5
04EA4:  SUBWF  xBD,W
04EA6:  CLRF   03
04EA8:  ADDLW  F9
04EAA:  MOVWF  FE9
04EAC:  MOVLW  04
04EAE:  ADDWFC 03,W
04EB0:  MOVWF  FEA
04EB2:  MOVFF  FEF,5D5
04EB6:  MOVF   xBD,W
04EB8:  MULLW  14
04EBA:  MOVFF  FF3,5D6
04EBE:  MOVFF  5D5,5D7
04EC2:  MOVFF  5D6,5D8
04EC6:  MOVLW  1E
04EC8:  MOVWF  xD9
04ECA:  MOVLW  01
04ECC:  MOVWF  xDA
04ECE:  MOVLB  0
04ED0:  RCALL  4A80
....................                }else{ 
04ED2:  BRA    4F06
04ED4:  MOVLB  4
....................                   displayContrasena(Contrasena[i-1],i*20,30,0); 
04ED6:  MOVLW  01
04ED8:  MOVLB  5
04EDA:  SUBWF  xBD,W
04EDC:  CLRF   03
04EDE:  ADDLW  F9
04EE0:  MOVWF  FE9
04EE2:  MOVLW  04
04EE4:  ADDWFC 03,W
04EE6:  MOVWF  FEA
04EE8:  MOVFF  FEF,5D5
04EEC:  MOVF   xBD,W
04EEE:  MULLW  14
04EF0:  MOVFF  FF3,5D6
04EF4:  MOVFF  5D5,5D7
04EF8:  MOVFF  5D6,5D8
04EFC:  MOVLW  1E
04EFE:  MOVWF  xD9
04F00:  CLRF   xDA
04F02:  MOVLB  0
04F04:  RCALL  4A80
....................                } 
....................             } 
04F06:  MOVLB  5
04F08:  INCF   xBD,F
04F0A:  BRA    4E92
04F0C:  MOVLB  4
....................          } 
....................       }else{ 
04F0E:  BRA    4F12
....................          Flanco1 = 0; 
04F10:  BCF    x2D.1
....................       } 
....................        
....................       if(LEFT){ 
04F12:  BSF    F96.2
04F14:  BTFSC  F84.2
04F16:  BRA    4F60
....................          delay_ms(100); 
04F18:  MOVLW  64
04F1A:  MOVLB  5
04F1C:  MOVWF  xE1
04F1E:  MOVLB  0
04F20:  CALL   1368
....................          if(LEFT){ 
04F24:  BSF    F96.2
04F26:  BTFSC  F84.2
04F28:  BRA    4F5E
....................             Menu=MenuAnt;glcd_fillScreen(OFF);n=0;Opcion=1;unidad=1; 
04F2A:  MOVFF  5CE,4C5
04F2E:  MOVLB  5
04F30:  CLRF   xD5
04F32:  MOVLB  0
04F34:  CALL   1448
04F38:  MOVLB  4
04F3A:  BCF    x2F.0
04F3C:  MOVLW  01
04F3E:  MOVWF  xC7
04F40:  MOVWF  xC6
....................             Contrasena[0]=0;Contrasena[1]=0;Contrasena[2]=0;Contrasena[3]=0; 
04F42:  CLRF   xF9
04F44:  CLRF   xFA
04F46:  CLRF   xFB
04F48:  CLRF   xFC
....................             glcd_fillScreen(OFF);glcd_update(); 
04F4A:  MOVLB  5
04F4C:  CLRF   xD5
04F4E:  MOVLB  0
04F50:  CALL   1448
04F54:  CALL   14A2
....................             return 1; 
04F58:  MOVLW  01
04F5A:  MOVWF  01
04F5C:  BRA    5308
04F5E:  MOVLB  4
....................          } 
....................       } 
....................      
....................       if(unidad>4){ 
04F60:  MOVF   xC6,W
04F62:  SUBLW  04
04F64:  BTFSC  FD8.0
04F66:  BRA    530A
....................          glcd_fillScreen(OFF);unidad=1;flag_latencia=0;t_latencia=0; 
04F68:  MOVLB  5
04F6A:  CLRF   xD5
04F6C:  MOVLB  0
04F6E:  CALL   1448
04F72:  MOVLW  01
04F74:  MOVLB  4
04F76:  MOVWF  xC6
04F78:  BCF    x2E.5
04F7A:  CLRF   xDA
04F7C:  CLRF   xD9
....................           
....................          if(Contrasena[0]==3&&Contrasena[1]==8&&Contrasena[2]==9&&Contrasena[3]==2 && MenuActual==0){ // Si Ingresa clave para reset general del sistema. 
04F7E:  MOVF   xF9,W
04F80:  SUBLW  03
04F82:  BTFSS  FD8.2
04F84:  BRA    507E
04F86:  MOVF   xFA,W
04F88:  SUBLW  08
04F8A:  BTFSS  FD8.2
04F8C:  BRA    507E
04F8E:  MOVF   xFB,W
04F90:  SUBLW  09
04F92:  BNZ   507E
04F94:  MOVF   xFC,W
04F96:  SUBLW  02
04F98:  BNZ   507E
04F9A:  MOVLB  5
04F9C:  MOVF   xCF,F
04F9E:  BTFSC  FD8.2
04FA0:  BRA    4FA6
04FA2:  MOVLB  4
04FA4:  BRA    507E
....................             write_eeprom(0,0);delay_ms(20);write_eeprom(1,0);delay_ms(20);// Reestablece a contrasea de Fabrica y reinicia Programa. 
04FA6:  CLRF   FAA
04FA8:  CLRF   FA9
04FAA:  CLRF   FA8
04FAC:  BCF    FA6.6
04FAE:  BCF    FA6.7
04FB0:  BSF    FA6.2
04FB2:  MOVF   FF2,W
04FB4:  MOVWF  00
04FB6:  BCF    FF2.7
04FB8:  MOVLB  F
04FBA:  MOVLW  55
04FBC:  MOVWF  FA7
04FBE:  MOVLW  AA
04FC0:  MOVWF  FA7
04FC2:  BSF    FA6.1
04FC4:  BTFSC  FA6.1
04FC6:  BRA    4FC4
04FC8:  BCF    FA6.2
04FCA:  MOVF   00,W
04FCC:  IORWF  FF2,F
04FCE:  MOVLW  14
04FD0:  MOVLB  5
04FD2:  MOVWF  xE1
04FD4:  MOVLB  0
04FD6:  CALL   1368
04FDA:  CLRF   FAA
04FDC:  MOVLW  01
04FDE:  MOVWF  FA9
04FE0:  CLRF   FA8
04FE2:  BCF    FA6.6
04FE4:  BCF    FA6.7
04FE6:  BSF    FA6.2
04FE8:  MOVF   FF2,W
04FEA:  MOVWF  00
04FEC:  BCF    FF2.7
04FEE:  MOVLB  F
04FF0:  MOVLW  55
04FF2:  MOVWF  FA7
04FF4:  MOVLW  AA
04FF6:  MOVWF  FA7
04FF8:  BSF    FA6.1
04FFA:  BTFSC  FA6.1
04FFC:  BRA    4FFA
04FFE:  BCF    FA6.2
05000:  MOVF   00,W
05002:  IORWF  FF2,F
05004:  MOVLW  14
05006:  MOVLB  5
05008:  MOVWF  xE1
0500A:  MOVLB  0
0500C:  CALL   1368
....................             write_eeprom(2,0);delay_ms(20);write_eeprom(3,0);delay_ms(20); 
05010:  CLRF   FAA
05012:  MOVLW  02
05014:  MOVWF  FA9
05016:  CLRF   FA8
05018:  BCF    FA6.6
0501A:  BCF    FA6.7
0501C:  BSF    FA6.2
0501E:  MOVF   FF2,W
05020:  MOVWF  00
05022:  BCF    FF2.7
05024:  MOVLB  F
05026:  MOVLW  55
05028:  MOVWF  FA7
0502A:  MOVLW  AA
0502C:  MOVWF  FA7
0502E:  BSF    FA6.1
05030:  BTFSC  FA6.1
05032:  BRA    5030
05034:  BCF    FA6.2
05036:  MOVF   00,W
05038:  IORWF  FF2,F
0503A:  MOVLW  14
0503C:  MOVLB  5
0503E:  MOVWF  xE1
05040:  MOVLB  0
05042:  CALL   1368
05046:  CLRF   FAA
05048:  MOVLW  03
0504A:  MOVWF  FA9
0504C:  CLRF   FA8
0504E:  BCF    FA6.6
05050:  BCF    FA6.7
05052:  BSF    FA6.2
05054:  MOVF   FF2,W
05056:  MOVWF  00
05058:  BCF    FF2.7
0505A:  MOVLB  F
0505C:  MOVLW  55
0505E:  MOVWF  FA7
05060:  MOVLW  AA
05062:  MOVWF  FA7
05064:  BSF    FA6.1
05066:  BTFSC  FA6.1
05068:  BRA    5066
0506A:  BCF    FA6.2
0506C:  MOVF   00,W
0506E:  IORWF  FF2,F
05070:  MOVLW  14
05072:  MOVLB  5
05074:  MOVWF  xE1
05076:  MOVLB  0
05078:  CALL   1368
....................             reset_cpu(); 
0507C:  RESET
....................          } 
....................        
....................          if((Contrasena[0]==clave0)&&(Contrasena[1]==clave1)&&(Contrasena[2]==clave2)&&(Contrasena[3]==clave3)){ 
0507E:  MOVLB  5
05080:  MOVF   xD1,W
05082:  MOVLB  4
05084:  SUBWF  xF9,W
05086:  BTFSS  FD8.2
05088:  BRA    517C
0508A:  MOVLB  5
0508C:  MOVF   xD2,W
0508E:  MOVLB  4
05090:  SUBWF  xFA,W
05092:  BTFSS  FD8.2
05094:  BRA    517C
05096:  MOVLB  5
05098:  MOVF   xD3,W
0509A:  MOVLB  4
0509C:  SUBWF  xFB,W
0509E:  BNZ   517C
050A0:  MOVLB  5
050A2:  MOVF   xD4,W
050A4:  MOVLB  4
050A6:  SUBWF  xFC,W
050A8:  BNZ   517C
....................             glcd_fillScreen(OFF); 
050AA:  MOVLB  5
050AC:  CLRF   xD5
050AE:  MOVLB  0
050B0:  CALL   1448
....................             strcpy(Menus.Letra,"Clave"); 
050B4:  MOVLW  04
050B6:  MOVWF  FEA
050B8:  MOVLW  17
050BA:  MOVWF  FE9
050BC:  MOVFF  FF2,5D5
050C0:  BCF    FF2.7
050C2:  MOVLW  00
050C4:  CALL   0F0A
050C8:  TBLRD*-
050CA:  TBLRD*+
050CC:  MOVF   FF5,W
050CE:  MOVWF  FEE
050D0:  IORLW  00
050D2:  BNZ   50CA
050D4:  MOVLB  5
050D6:  BTFSC  xD5.7
050D8:  BSF    FF2.7
....................             displayMenu(Menus.Letra,30,0,0,2); 
050DA:  MOVLW  04
050DC:  MOVWF  xD6
050DE:  MOVLW  17
050E0:  MOVWF  xD5
050E2:  MOVLW  1E
050E4:  MOVWF  xD7
050E6:  CLRF   xD8
050E8:  CLRF   xD9
050EA:  MOVLW  02
050EC:  MOVWF  xDA
050EE:  MOVLB  0
050F0:  RCALL  4B3C
....................             strcpy(Menus.Letra,"Correcta"); 
050F2:  MOVLW  04
050F4:  MOVWF  FEA
050F6:  MOVLW  17
050F8:  MOVWF  FE9
050FA:  MOVFF  FF2,5D5
050FE:  BCF    FF2.7
05100:  MOVLW  00
05102:  CALL   0F2E
05106:  TBLRD*-
05108:  TBLRD*+
0510A:  MOVF   FF5,W
0510C:  MOVWF  FEE
0510E:  IORLW  00
05110:  BNZ   5108
05112:  MOVLB  5
05114:  BTFSC  xD5.7
05116:  BSF    FF2.7
....................             displayMenu(Menus.Letra,15,30,0,2); 
05118:  MOVLW  04
0511A:  MOVWF  xD6
0511C:  MOVLW  17
0511E:  MOVWF  xD5
05120:  MOVLW  0F
05122:  MOVWF  xD7
05124:  MOVLW  1E
05126:  MOVWF  xD8
05128:  CLRF   xD9
0512A:  MOVLW  02
0512C:  MOVWF  xDA
0512E:  MOVLB  0
05130:  RCALL  4B3C
....................             Menu=MenuPost;glcd_update();delay_ms(1000);glcd_fillScreen(OFF); 
05132:  MOVFF  5D0,4C5
05136:  CALL   14A2
0513A:  MOVLW  04
0513C:  MOVLB  5
0513E:  MOVWF  xD5
05140:  MOVLW  FA
05142:  MOVWF  xE1
05144:  MOVLB  0
05146:  CALL   1368
0514A:  MOVLB  5
0514C:  DECFSZ xD5,F
0514E:  BRA    5140
05150:  CLRF   xD5
05152:  MOVLB  0
05154:  CALL   1448
....................             Contrasena[0]=0;Contrasena[1]=0;Contrasena[2]=0;Contrasena[3]=0; 
05158:  MOVLB  4
0515A:  CLRF   xF9
0515C:  CLRF   xFA
0515E:  CLRF   xFB
05160:  CLRF   xFC
....................             if(MenuActual==0)tiempo_purga=1;n=0; 
05162:  MOVLB  5
05164:  MOVF   xCF,F
05166:  BNZ   516C
05168:  MOVLB  4
0516A:  BSF    x2E.3
0516C:  MOVLB  4
0516E:  BCF    x2F.0
....................             return 1; 
05170:  MOVLW  01
05172:  MOVWF  01
05174:  MOVLB  0
05176:  BRA    5308
....................          }else{ 
05178:  BRA    5308
0517A:  MOVLB  4
....................             glcd_fillScreen(OFF); 
0517C:  MOVLB  5
0517E:  CLRF   xD5
05180:  MOVLB  0
05182:  CALL   1448
....................             strcpy(Menus.Letra,"Clave"); 
05186:  MOVLW  04
05188:  MOVWF  FEA
0518A:  MOVLW  17
0518C:  MOVWF  FE9
0518E:  MOVFF  FF2,5D5
05192:  BCF    FF2.7
05194:  MOVLW  00
05196:  CALL   0F0A
0519A:  TBLRD*-
0519C:  TBLRD*+
0519E:  MOVF   FF5,W
051A0:  MOVWF  FEE
051A2:  IORLW  00
051A4:  BNZ   519C
051A6:  MOVLB  5
051A8:  BTFSC  xD5.7
051AA:  BSF    FF2.7
....................             displayMenu(Menus.Letra,30,0,0,2); 
051AC:  MOVLW  04
051AE:  MOVWF  xD6
051B0:  MOVLW  17
051B2:  MOVWF  xD5
051B4:  MOVLW  1E
051B6:  MOVWF  xD7
051B8:  CLRF   xD8
051BA:  CLRF   xD9
051BC:  MOVLW  02
051BE:  MOVWF  xDA
051C0:  MOVLB  0
051C2:  RCALL  4B3C
....................             strcpy(Menus.Letra,"Incorrecta"); 
051C4:  MOVLW  04
051C6:  MOVWF  FEA
051C8:  MOVLW  17
051CA:  MOVWF  FE9
051CC:  MOVFF  FF2,5D5
051D0:  BCF    FF2.7
051D2:  MOVLW  00
051D4:  CALL   0F56
051D8:  TBLRD*-
051DA:  TBLRD*+
051DC:  MOVF   FF5,W
051DE:  MOVWF  FEE
051E0:  IORLW  00
051E2:  BNZ   51DA
051E4:  MOVLB  5
051E6:  BTFSC  xD5.7
051E8:  BSF    FF2.7
....................             displayMenu(Menus.Letra,0,30,0,2); 
051EA:  MOVLW  04
051EC:  MOVWF  xD6
051EE:  MOVLW  17
051F0:  MOVWF  xD5
051F2:  CLRF   xD7
051F4:  MOVLW  1E
051F6:  MOVWF  xD8
051F8:  CLRF   xD9
051FA:  MOVLW  02
051FC:  MOVWF  xDA
051FE:  MOVLB  0
05200:  RCALL  4B3C
....................             unidad=1;glcd_update();delay_ms(1000);Contrasena[0]=0;Contrasena[1]=0;Contrasena[2]=0;Contrasena[3]=0;glcd_fillScreen(OFF); 
05202:  MOVLW  01
05204:  MOVLB  4
05206:  MOVWF  xC6
05208:  MOVLB  0
0520A:  CALL   14A2
0520E:  MOVLW  04
05210:  MOVLB  5
05212:  MOVWF  xD5
05214:  MOVLW  FA
05216:  MOVWF  xE1
05218:  MOVLB  0
0521A:  CALL   1368
0521E:  MOVLB  5
05220:  DECFSZ xD5,F
05222:  BRA    5214
05224:  MOVLB  4
05226:  CLRF   xF9
05228:  CLRF   xFA
0522A:  CLRF   xFB
0522C:  CLRF   xFC
0522E:  MOVLB  5
05230:  CLRF   xD5
05232:  MOVLB  0
05234:  CALL   1448
....................             glcd_rect(0, 0, 127, 25, YES, ON);strcpy(Menus.Letra,"Clave");glcd_text57(25, 1, Menus.Letra, 3, OFF);displayContrasena(Contrasena[0],20,30,1); 
05238:  MOVLB  5
0523A:  CLRF   xE6
0523C:  CLRF   xE7
0523E:  MOVLW  7F
05240:  MOVWF  xE8
05242:  MOVLW  19
05244:  MOVWF  xE9
05246:  MOVLW  01
05248:  MOVWF  xEA
0524A:  MOVWF  xEB
0524C:  MOVLB  0
0524E:  CALL   49BC
05252:  MOVLW  04
05254:  MOVWF  FEA
05256:  MOVLW  17
05258:  MOVWF  FE9
0525A:  MOVFF  FF2,5D5
0525E:  BCF    FF2.7
05260:  MOVLW  00
05262:  CALL   0F0A
05266:  TBLRD*-
05268:  TBLRD*+
0526A:  MOVF   FF5,W
0526C:  MOVWF  FEE
0526E:  IORLW  00
05270:  BNZ   5268
05272:  MOVLB  5
05274:  BTFSC  xD5.7
05276:  BSF    FF2.7
05278:  MOVLW  19
0527A:  MOVWF  xE6
0527C:  MOVLW  01
0527E:  MOVWF  xE7
05280:  MOVLW  04
05282:  MOVWF  xE9
05284:  MOVLW  17
05286:  MOVWF  xE8
05288:  MOVLW  03
0528A:  MOVWF  xEA
0528C:  CLRF   xEB
0528E:  MOVLB  0
05290:  CALL   16BE
05294:  MOVFF  4F9,5D7
05298:  MOVLW  14
0529A:  MOVLB  5
0529C:  MOVWF  xD8
0529E:  MOVLW  1E
052A0:  MOVWF  xD9
052A2:  MOVLW  01
052A4:  MOVWF  xDA
052A6:  MOVLB  0
052A8:  CALL   4A80
....................             displayContrasena(Contrasena[1],40,30,0);displayContrasena(Contrasena[2],60,30,0);displayContrasena(Contrasena[0],80,30,0); 
052AC:  MOVFF  4FA,5D7
052B0:  MOVLW  28
052B2:  MOVLB  5
052B4:  MOVWF  xD8
052B6:  MOVLW  1E
052B8:  MOVWF  xD9
052BA:  CLRF   xDA
052BC:  MOVLB  0
052BE:  CALL   4A80
052C2:  MOVFF  4FB,5D7
052C6:  MOVLW  3C
052C8:  MOVLB  5
052CA:  MOVWF  xD8
052CC:  MOVLW  1E
052CE:  MOVWF  xD9
052D0:  CLRF   xDA
052D2:  MOVLB  0
052D4:  CALL   4A80
052D8:  MOVFF  4F9,5D7
052DC:  MOVLW  50
052DE:  MOVLB  5
052E0:  MOVWF  xD8
052E2:  MOVLW  1E
052E4:  MOVWF  xD9
052E6:  CLRF   xDA
052E8:  MOVLB  0
052EA:  CALL   4A80
....................             Menu=MenuAnt;glcd_fillScreen(OFF);n=0; 
052EE:  MOVFF  5CE,4C5
052F2:  MOVLB  5
052F4:  CLRF   xD5
052F6:  MOVLB  0
052F8:  CALL   1448
052FC:  MOVLB  4
052FE:  BCF    x2F.0
....................             return 0; 
05300:  MOVLW  00
05302:  MOVWF  01
05304:  MOVLB  0
05306:  BRA    5308
05308:  MOVLB  4
....................          } 
....................       } 
.................... } 
0530A:  MOVLB  0
0530C:  RETLW  00
....................  
....................  
.................... #int_EXT            // Interrupcin de encoder para control. 
.................... void ext0() {       // 6 pulsos por vuelta. 
....................    pulsos++; 
*
012A6:  MOVLB  5
012A8:  INCF   xB9,F
012AA:  BTFSC  FD8.2
012AC:  INCF   xBA,F
....................    if(pulsos>=120){ 
012AE:  MOVF   xBA,F
012B0:  BNZ   12B8
012B2:  MOVF   xB9,W
012B4:  SUBLW  77
012B6:  BC    1310
....................       pulsos=0; 
012B8:  CLRF   xBA
012BA:  CLRF   xB9
....................       imprimir=1;Lectura=1;tiemporeset++; 
012BC:  MOVLB  4
012BE:  BSF    x2D.5
012C0:  BSF    x2E.7
012C2:  INCF   xCB,F
....................     
....................       if(flag_blower==1) 
012C4:  BTFSS  x2D.6
012C6:  BRA    12CE
....................          minutos_trabajo++;  
012C8:  INCF   xDD,F
012CA:  BTFSC  FD8.2
012CC:  INCF   xDE,F
....................    
....................       if(tiempo_purga==1 || Purga){                   
012CE:  BTFSC  x2E.3
012D0:  BRA    12D6
012D2:  BTFSS  x2F.2
012D4:  BRA    130E
....................          Tpurga[0]++; 
012D6:  INCF   xE1,F
....................          if(Tpurga[0]>9){ 
012D8:  BTFSC  xE1.7
012DA:  BRA    12E6
012DC:  MOVF   xE1,W
012DE:  SUBLW  09
012E0:  BC    12E6
....................             Tpurga[0]=0; 
012E2:  CLRF   xE1
....................             Tpurga[1]++; 
012E4:  INCF   xE2,F
....................          } 
....................          if(Tpurga[1]>5){ 
012E6:  BTFSC  xE2.7
012E8:  BRA    12F4
012EA:  MOVF   xE2,W
012EC:  SUBLW  05
012EE:  BC    12F4
....................             Tpurga[1]=0; 
012F0:  CLRF   xE2
....................             Tpurga[2]++; 
012F2:  INCF   xE3,F
....................          } 
....................          if(Tpurga[2]>9){ 
012F4:  BTFSC  xE3.7
012F6:  BRA    1302
012F8:  MOVF   xE3,W
012FA:  SUBLW  09
012FC:  BC    1302
....................             Tpurga[2]=0; 
012FE:  CLRF   xE3
....................             Tpurga[3]++; 
01300:  INCF   xE4,F
....................          } 
....................          if(Tpurga[3]>5){ 
01302:  BTFSC  xE4.7
01304:  BRA    130E
01306:  MOVF   xE4,W
01308:  SUBLW  05
0130A:  BC    130E
....................             Tpurga[3]=0; 
0130C:  CLRF   xE4
0130E:  MOVLB  5
....................          } 
....................       }  
....................    } 
....................    tiempocruce=0; 
01310:  CLRF   xC2
01312:  CLRF   xC1
....................    Cruce=ON; 
01314:  MOVLB  4
01316:  BSF    x2F.1
....................    if(VelMotor<6){ 
01318:  MOVLB  5
0131A:  MOVF   xC4,W
0131C:  SUBLW  05
0131E:  BNC   1360
....................       if(VelMotor>0 && Porcentaje<100){ 
01320:  MOVF   xC4,F
01322:  BZ    135C
01324:  MOVF   xC3,W
01326:  SUBLW  63
01328:  BNC   135C
....................          delay_us(retardo);       
0132A:  MOVFF  5BC,616
0132E:  MOVLB  6
01330:  INCF   x16,F
01332:  DECF   x16,F
01334:  BTFSC  FD8.2
01336:  BRA    1344
01338:  MOVLW  FF
0133A:  MOVWF  x17
0133C:  MOVLB  0
0133E:  RCALL  1286
01340:  MOVLB  6
01342:  BRA    1332
01344:  MOVFF  5BB,617
01348:  MOVLB  0
0134A:  RCALL  1286
....................          Motor_on; 
0134C:  BSF    F8B.2
0134E:  BCF    F94.2
....................          delay_us(100);       
01350:  MOVLW  A6
01352:  MOVWF  00
01354:  DECFSZ 00,F
01356:  BRA    1354
01358:  NOP   
0135A:  MOVLB  5
....................       } 
....................       Motor_off; 
0135C:  BCF    F8B.2
0135E:  BCF    F94.2
....................    } 
.................... } 
....................  
01360:  BCF    FF2.1
01362:  MOVLB  0
01364:  GOTO   0058
.................... void glcd_imagen(int8 x) 
.................... { 
....................    char i,j; 
....................    signed char k;  
....................       
....................    if(x==3){ 
*
0540A:  MOVLB  5
0540C:  MOVF   xCD,W
0540E:  SUBLW  03
05410:  BNZ   54B8
....................    for( i = 0 ; i < 64 ; i ++ ) 
05412:  CLRF   xCE
05414:  MOVF   xCE,W
05416:  SUBLW  3F
05418:  BNC   54B8
....................    {  for( j = 0 ; j < 16 ; j ++) 
0541A:  CLRF   xCF
0541C:  MOVF   xCF,W
0541E:  SUBLW  0F
05420:  BNC   54B4
....................       {  for(k=7;k>-1;k--) 
05422:  MOVLW  07
05424:  MOVWF  xD0
05426:  MOVF   xD0,W
05428:  XORLW  80
0542A:  SUBLW  7F
0542C:  BC    54B0
....................          {       
....................             if( bit_test(Bombillo[i][j] ,7-k ))  
0542E:  CLRF   xD2
05430:  MOVFF  5CE,5D1
05434:  CLRF   xD4
05436:  MOVLW  10
05438:  MOVWF  xD3
0543A:  MOVLB  0
0543C:  RCALL  53E8
0543E:  MOVFF  02,5D2
05442:  MOVFF  01,5D1
05446:  MOVLB  5
05448:  MOVF   xCF,W
0544A:  ADDWF  01,W
0544C:  MOVWF  01
0544E:  MOVLW  00
05450:  ADDWFC 02,W
05452:  MOVWF  03
05454:  MOVF   01,W
05456:  MOVFF  FF2,5D1
0545A:  BCF    FF2.7
0545C:  MOVFF  03,FF7
05460:  MOVLB  0
05462:  CALL   02B6
05466:  MOVLB  5
05468:  BTFSC  xD1.7
0546A:  BSF    FF2.7
0546C:  MOVWF  xD1
0546E:  MOVLW  07
05470:  BSF    FD8.0
05472:  SUBFWB xD0,W
05474:  MOVWF  xD2
05476:  MOVFF  5D1,00
0547A:  MOVF   xD2,W
0547C:  MOVWF  01
0547E:  BZ    5488
05480:  BCF    FD8.0
05482:  RRCF   00,F
05484:  DECFSZ 01,F
05486:  BRA    5480
05488:  BTFSS  00.0
0548A:  BRA    54AC
....................                glcd_pixel( j*8+k,i, ON ); 
0548C:  MOVF   xCF,W
0548E:  MULLW  08
05490:  MOVF   FF3,W
05492:  ADDWF  xD0,W
05494:  MOVWF  xD1
05496:  MOVFF  FE8,601
0549A:  MOVFF  5CE,602
0549E:  MOVLW  01
054A0:  MOVLB  6
054A2:  MOVWF  x03
054A4:  MOVLB  0
054A6:  CALL   1602
054AA:  MOVLB  5
....................          }   
054AC:  DECF   xD0,F
054AE:  BRA    5426
....................       } 
054B0:  INCF   xCF,F
054B2:  BRA    541C
....................    } 
054B4:  INCF   xCE,F
054B6:  BRA    5414
....................    } 
....................     
....................    if(x==4){ 
054B8:  MOVF   xCD,W
054BA:  SUBLW  04
054BC:  BNZ   5564
....................    for( i = 0 ; i < 64 ; i ++ ) 
054BE:  CLRF   xCE
054C0:  MOVF   xCE,W
054C2:  SUBLW  3F
054C4:  BNC   5564
....................    {  for( j = 0 ; j < 16 ; j ++) 
054C6:  CLRF   xCF
054C8:  MOVF   xCF,W
054CA:  SUBLW  0F
054CC:  BNC   5560
....................       {  for(k=7;k>-1;k--) 
054CE:  MOVLW  07
054D0:  MOVWF  xD0
054D2:  MOVF   xD0,W
054D4:  XORLW  80
054D6:  SUBLW  7F
054D8:  BC    555C
....................          {       
....................             if( bit_test(Tomai[i][j] ,7-k ))  
054DA:  CLRF   xD2
054DC:  MOVFF  5CE,5D1
054E0:  CLRF   xD4
054E2:  MOVLW  10
054E4:  MOVWF  xD3
054E6:  MOVLB  0
054E8:  RCALL  53E8
054EA:  MOVFF  02,5D2
054EE:  MOVFF  01,5D1
054F2:  MOVLB  5
054F4:  MOVF   xCF,W
054F6:  ADDWF  01,W
054F8:  MOVWF  01
054FA:  MOVLW  00
054FC:  ADDWFC 02,W
054FE:  MOVWF  03
05500:  MOVF   01,W
05502:  MOVFF  FF2,5D1
05506:  BCF    FF2.7
05508:  MOVFF  03,FF7
0550C:  MOVLB  0
0550E:  CALL   06D2
05512:  MOVLB  5
05514:  BTFSC  xD1.7
05516:  BSF    FF2.7
05518:  MOVWF  xD1
0551A:  MOVLW  07
0551C:  BSF    FD8.0
0551E:  SUBFWB xD0,W
05520:  MOVWF  xD2
05522:  MOVFF  5D1,00
05526:  MOVF   xD2,W
05528:  MOVWF  01
0552A:  BZ    5534
0552C:  BCF    FD8.0
0552E:  RRCF   00,F
05530:  DECFSZ 01,F
05532:  BRA    552C
05534:  BTFSS  00.0
05536:  BRA    5558
....................                glcd_pixel( j*8+k,i, ON ); 
05538:  MOVF   xCF,W
0553A:  MULLW  08
0553C:  MOVF   FF3,W
0553E:  ADDWF  xD0,W
05540:  MOVWF  xD1
05542:  MOVFF  FE8,601
05546:  MOVFF  5CE,602
0554A:  MOVLW  01
0554C:  MOVLB  6
0554E:  MOVWF  x03
05550:  MOVLB  0
05552:  CALL   1602
05556:  MOVLB  5
....................          }   
05558:  DECF   xD0,F
0555A:  BRA    54D2
....................       } 
0555C:  INCF   xCF,F
0555E:  BRA    54C8
....................    } 
05560:  INCF   xCE,F
05562:  BRA    54C0
....................    } 
....................     
....................    if(x==5){ 
05564:  MOVF   xCD,W
05566:  SUBLW  05
05568:  BNZ   5610
....................    for( i = 0 ; i < 64 ; i ++ ) 
0556A:  CLRF   xCE
0556C:  MOVF   xCE,W
0556E:  SUBLW  3F
05570:  BNC   5610
....................    {  for( j = 0 ; j < 16 ; j ++) 
05572:  CLRF   xCF
05574:  MOVF   xCF,W
05576:  SUBLW  0F
05578:  BNC   560C
....................       {  for(k=7;k>-1;k--) 
0557A:  MOVLW  07
0557C:  MOVWF  xD0
0557E:  MOVF   xD0,W
05580:  XORLW  80
05582:  SUBLW  7F
05584:  BC    5608
....................          {       
....................             if( bit_test(Ventilador[i][j] ,7-k ))  
05586:  CLRF   xD2
05588:  MOVFF  5CE,5D1
0558C:  CLRF   xD4
0558E:  MOVLW  10
05590:  MOVWF  xD3
05592:  MOVLB  0
05594:  RCALL  53E8
05596:  MOVFF  02,5D2
0559A:  MOVFF  01,5D1
0559E:  MOVLB  5
055A0:  MOVF   xCF,W
055A2:  ADDWF  01,W
055A4:  MOVWF  01
055A6:  MOVLW  00
055A8:  ADDWFC 02,W
055AA:  MOVWF  03
055AC:  MOVF   01,W
055AE:  MOVFF  FF2,5D1
055B2:  BCF    FF2.7
055B4:  MOVFF  03,FF7
055B8:  MOVLB  0
055BA:  CALL   0AEE
055BE:  MOVLB  5
055C0:  BTFSC  xD1.7
055C2:  BSF    FF2.7
055C4:  MOVWF  xD1
055C6:  MOVLW  07
055C8:  BSF    FD8.0
055CA:  SUBFWB xD0,W
055CC:  MOVWF  xD2
055CE:  MOVFF  5D1,00
055D2:  MOVF   xD2,W
055D4:  MOVWF  01
055D6:  BZ    55E0
055D8:  BCF    FD8.0
055DA:  RRCF   00,F
055DC:  DECFSZ 01,F
055DE:  BRA    55D8
055E0:  BTFSS  00.0
055E2:  BRA    5604
....................                glcd_pixel( j*8+k,i, ON ); 
055E4:  MOVF   xCF,W
055E6:  MULLW  08
055E8:  MOVF   FF3,W
055EA:  ADDWF  xD0,W
055EC:  MOVWF  xD1
055EE:  MOVFF  FE8,601
055F2:  MOVFF  5CE,602
055F6:  MOVLW  01
055F8:  MOVLB  6
055FA:  MOVWF  x03
055FC:  MOVLB  0
055FE:  CALL   1602
05602:  MOVLB  5
....................          }   
05604:  DECF   xD0,F
05606:  BRA    557E
....................       } 
05608:  INCF   xCF,F
0560A:  BRA    5574
....................    } 
0560C:  INCF   xCE,F
0560E:  BRA    556C
....................    } 
.................... } 
05610:  MOVLB  0
05612:  RETLW  00
....................  
....................  
.................... Float LeerFlujoInFlow(int media) 
.................... { 
....................     InFlow_adc=sensores(1); 
*
04192:  MOVLW  01
04194:  MOVLB  5
04196:  MOVWF  xDE
04198:  MOVLB  0
0419A:  CALL   2E8C
0419E:  MOVFF  02,4D4
041A2:  MOVFF  01,4D3
....................        
....................     if(negativo==10) 
041A6:  MOVLB  4
041A8:  MOVF   xC8,W
041AA:  SUBLW  0A
041AC:  BNZ   41F4
....................     { 
....................       x_uno=Inflow_adc+Diferencia; 
041AE:  MOVFF  4D4,603
041B2:  MOVFF  4D3,602
041B6:  MOVLB  0
041B8:  CALL   1878
041BC:  BCF    FD8.1
041BE:  MOVFF  03,605
041C2:  MOVFF  02,604
041C6:  MOVFF  01,603
041CA:  MOVFF  00,602
041CE:  MOVFF  510,609
041D2:  MOVFF  50F,608
041D6:  MOVFF  50E,607
041DA:  MOVFF  50D,606
041DE:  CALL   1A2C
041E2:  MOVFF  03,518
041E6:  MOVFF  02,517
041EA:  MOVFF  01,516
041EE:  MOVFF  00,515
041F2:  MOVLB  4
....................     } 
....................     if(negativo==20) 
041F4:  MOVF   xC8,W
041F6:  SUBLW  14
041F8:  BNZ   423E
....................     { 
....................       x_uno=Inflow_adc-Diferencia; 
041FA:  MOVFF  4D4,603
041FE:  MOVFF  4D3,602
04202:  MOVLB  0
04204:  CALL   1878
04208:  BSF    FD8.1
0420A:  MOVFF  03,605
0420E:  MOVFF  02,604
04212:  MOVFF  01,603
04216:  MOVFF  00,602
0421A:  MOVFF  510,609
0421E:  MOVFF  50F,608
04222:  MOVFF  50E,607
04226:  MOVFF  50D,606
0422A:  CALL   1A2C
0422E:  MOVFF  03,518
04232:  MOVFF  02,517
04236:  MOVFF  01,516
0423A:  MOVFF  00,515
....................     } 
....................     Velocidad=(pow(x_uno,3)*a)+(pow(x_uno,2)*b)+(x_uno*c)+(d); 
0423E:  MOVFF  518,5D5
04242:  MOVFF  517,5D4
04246:  MOVFF  516,5D3
0424A:  MOVFF  515,5D2
0424E:  MOVLB  5
04250:  CLRF   xD9
04252:  CLRF   xD8
04254:  MOVLW  40
04256:  MOVWF  xD7
04258:  MOVLW  80
0425A:  MOVWF  xD6
0425C:  MOVLB  0
0425E:  RCALL  3E86
04260:  MOVFF  00,5CE
04264:  MOVFF  01,5CF
04268:  MOVFF  02,5D0
0426C:  MOVFF  03,5D1
04270:  MOVFF  03,601
04274:  MOVFF  02,600
04278:  MOVFF  01,5FF
0427C:  MOVFF  00,5FE
04280:  MOVFF  534,605
04284:  MOVFF  533,604
04288:  MOVFF  532,603
0428C:  MOVFF  531,602
04290:  CALL   2F06
04294:  MOVFF  00,5CE
04298:  MOVFF  01,5CF
0429C:  MOVFF  02,5D0
042A0:  MOVFF  03,5D1
042A4:  MOVFF  518,5D5
042A8:  MOVFF  517,5D4
042AC:  MOVFF  516,5D3
042B0:  MOVFF  515,5D2
042B4:  MOVLB  5
042B6:  CLRF   xD9
042B8:  CLRF   xD8
042BA:  CLRF   xD7
042BC:  MOVLW  80
042BE:  MOVWF  xD6
042C0:  MOVLB  0
042C2:  RCALL  3E86
042C4:  MOVFF  00,5D2
042C8:  MOVFF  01,5D3
042CC:  MOVFF  02,5D4
042D0:  MOVFF  03,5D5
042D4:  MOVFF  03,601
042D8:  MOVFF  02,600
042DC:  MOVFF  01,5FF
042E0:  MOVFF  00,5FE
042E4:  MOVFF  538,605
042E8:  MOVFF  537,604
042EC:  MOVFF  536,603
042F0:  MOVFF  535,602
042F4:  CALL   2F06
042F8:  MOVFF  FEA,5D3
042FC:  MOVFF  FE9,5D2
04300:  BCF    FD8.1
04302:  MOVFF  5D1,605
04306:  MOVFF  5D0,604
0430A:  MOVFF  5CF,603
0430E:  MOVFF  5CE,602
04312:  MOVFF  03,609
04316:  MOVFF  02,608
0431A:  MOVFF  01,607
0431E:  MOVFF  00,606
04322:  CALL   1A2C
04326:  MOVFF  5D3,FEA
0432A:  MOVFF  5D2,FE9
0432E:  MOVFF  00,5CE
04332:  MOVFF  01,5CF
04336:  MOVFF  02,5D0
0433A:  MOVFF  03,5D1
0433E:  MOVFF  518,601
04342:  MOVFF  517,600
04346:  MOVFF  516,5FF
0434A:  MOVFF  515,5FE
0434E:  MOVFF  53C,605
04352:  MOVFF  53B,604
04356:  MOVFF  53A,603
0435A:  MOVFF  539,602
0435E:  CALL   2F06
04362:  MOVFF  FEA,5D5
04366:  MOVFF  FE9,5D4
0436A:  BCF    FD8.1
0436C:  MOVFF  5D1,605
04370:  MOVFF  5D0,604
04374:  MOVFF  5CF,603
04378:  MOVFF  5CE,602
0437C:  MOVFF  03,609
04380:  MOVFF  02,608
04384:  MOVFF  01,607
04388:  MOVFF  00,606
0438C:  CALL   1A2C
04390:  MOVFF  5D5,FEA
04394:  MOVFF  5D4,FE9
04398:  MOVFF  00,5CE
0439C:  MOVFF  01,5CF
043A0:  MOVFF  02,5D0
043A4:  MOVFF  03,5D1
043A8:  MOVFF  FEA,5D7
043AC:  MOVFF  FE9,5D6
043B0:  BCF    FD8.1
043B2:  MOVFF  03,605
043B6:  MOVFF  02,604
043BA:  MOVFF  01,603
043BE:  MOVFF  00,602
043C2:  MOVFF  540,609
043C6:  MOVFF  53F,608
043CA:  MOVFF  53E,607
043CE:  MOVFF  53D,606
043D2:  CALL   1A2C
043D6:  MOVFF  5D7,FEA
043DA:  MOVFF  5D6,FE9
043DE:  MOVFF  03,514
043E2:  MOVFF  02,513
043E6:  MOVFF  01,512
043EA:  MOVFF  00,511
....................     //Velocidad=Velocidad*correccion;//Ajuste de Temperatura 
....................      
....................     if(Velocidad<0.0) 
043EE:  MOVFF  514,601
043F2:  MOVFF  513,600
043F6:  MOVFF  512,5FF
043FA:  MOVFF  511,5FE
043FE:  MOVLB  6
04400:  CLRF   x05
04402:  CLRF   x04
04404:  CLRF   x03
04406:  CLRF   x02
04408:  MOVLB  0
0440A:  CALL   244E
0440E:  BNC   441A
....................      {Velocidad=0.0;} 
04410:  MOVLB  5
04412:  CLRF   x14
04414:  CLRF   x13
04416:  CLRF   x12
04418:  CLRF   x11
....................       
....................      if(l>=media) 
0441A:  MOVLB  5
0441C:  MOVF   xCD,W
0441E:  MOVLB  4
04420:  SUBWF  xCE,W
04422:  BNC   4426
....................        {l=0;} 
04424:  CLRF   xCE
....................       
....................      promedio[l]=Velocidad;l++; 
04426:  MOVF   xCE,W
04428:  MULLW  04
0442A:  MOVF   FF3,W
0442C:  CLRF   03
0442E:  ADDLW  41
04430:  MOVWF  FE9
04432:  MOVLW  05
04434:  ADDWFC 03,W
04436:  MOVWF  FEA
04438:  MOVFF  511,FEF
0443C:  MOVFF  512,FEC
04440:  MOVFF  513,FEC
04444:  MOVFF  514,FEC
04448:  INCF   xCE,F
....................      Flujo=0; 
0444A:  MOVLB  5
0444C:  CLRF   xA4
0444E:  CLRF   xA3
04450:  CLRF   xA2
04452:  CLRF   xA1
....................         for(h=0;h<=(media-1);h++) 
04454:  MOVLB  4
04456:  CLRF   xCF
04458:  MOVLW  01
0445A:  MOVLB  5
0445C:  SUBWF  xCD,W
0445E:  MOVLB  4
04460:  SUBWF  xCF,W
04462:  BZ    4466
04464:  BC    44D6
....................         { 
....................            Flujo+=promedio[h]; 
04466:  MOVF   xCF,W
04468:  MULLW  04
0446A:  MOVF   FF3,W
0446C:  CLRF   03
0446E:  ADDLW  41
04470:  MOVWF  FE9
04472:  MOVLW  05
04474:  ADDWFC 03,W
04476:  MOVWF  FEA
04478:  MOVFF  FEF,00
0447C:  MOVFF  FEC,01
04480:  MOVFF  FEC,02
04484:  MOVFF  FEC,03
04488:  MOVFF  FEA,5CF
0448C:  MOVFF  FE9,5CE
04490:  BCF    FD8.1
04492:  MOVFF  5A4,605
04496:  MOVFF  5A3,604
0449A:  MOVFF  5A2,603
0449E:  MOVFF  5A1,602
044A2:  MOVFF  03,609
044A6:  MOVFF  02,608
044AA:  MOVFF  01,607
044AE:  MOVFF  00,606
044B2:  MOVLB  0
044B4:  CALL   1A2C
044B8:  MOVFF  5CF,FEA
044BC:  MOVFF  5CE,FE9
044C0:  MOVFF  03,5A4
044C4:  MOVFF  02,5A3
044C8:  MOVFF  01,5A2
044CC:  MOVFF  00,5A1
....................         }  
044D0:  MOVLB  4
044D2:  INCF   xCF,F
044D4:  BRA    4458
....................            Flujo=(Flujo/media)*Ajuste1;  
044D6:  MOVLB  6
044D8:  CLRF   x03
044DA:  MOVFF  5CD,602
044DE:  MOVLB  0
044E0:  CALL   1878
044E4:  MOVFF  5A4,601
044E8:  MOVFF  5A3,600
044EC:  MOVFF  5A2,5FF
044F0:  MOVFF  5A1,5FE
044F4:  MOVFF  03,605
044F8:  MOVFF  02,604
044FC:  MOVFF  01,603
04500:  MOVFF  00,602
04504:  CALL   18AE
04508:  MOVFF  00,5CE
0450C:  MOVFF  01,5CF
04510:  MOVFF  02,5D0
04514:  MOVFF  03,5D1
04518:  MOVFF  03,601
0451C:  MOVFF  02,600
04520:  MOVFF  01,5FF
04524:  MOVFF  00,5FE
04528:  MOVFF  524,605
0452C:  MOVFF  523,604
04530:  MOVFF  522,603
04534:  MOVFF  521,602
04538:  CALL   2F06
0453C:  MOVFF  03,5A4
04540:  MOVFF  02,5A3
04544:  MOVFF  01,5A2
04548:  MOVFF  00,5A1
....................            return Flujo; 
0454C:  MOVFF  5A1,00
04550:  MOVFF  5A2,01
04554:  MOVFF  5A3,02
04558:  MOVFF  5A4,03
.................... } 
0455C:  GOTO   5F8C (RETURN)
....................  
.................... void main(){ 
*
0598E:  CLRF   FF8
05990:  BCF    FD0.7
05992:  BSF    07.7
05994:  CLRF   FEA
05996:  CLRF   FE9
05998:  MOVLB  4
0599A:  BCF    x2D.0
0599C:  BCF    x2D.1
0599E:  BCF    x2D.2
059A0:  BCF    x2D.3
059A2:  BCF    x2D.4
059A4:  BCF    x2D.5
059A6:  BCF    x2D.6
059A8:  BCF    x2D.7
059AA:  BCF    x2E.0
059AC:  BCF    x2E.1
059AE:  BCF    x2E.2
059B0:  BCF    x2E.3
059B2:  BCF    x2E.4
059B4:  BCF    x2E.5
059B6:  BCF    x2E.6
059B8:  BCF    x2E.7
059BA:  BCF    x2F.0
059BC:  MOVLW  C8
059BE:  MOVWF  xC5
059C0:  MOVLW  01
059C2:  MOVWF  xC6
059C4:  MOVWF  xC7
059C6:  MOVLW  0A
059C8:  MOVWF  xC8
059CA:  CLRF   xC9
059CC:  CLRF   xCA
059CE:  CLRF   xCB
059D0:  CLRF   xCC
059D2:  CLRF   xCD
059D4:  CLRF   xCE
059D6:  CLRF   xCF
059D8:  CLRF   xD0
059DA:  CLRF   xD1
059DC:  MOVWF  xD2
059DE:  CLRF   xD4
059E0:  CLRF   xD3
059E2:  CLRF   xD6
059E4:  CLRF   xD5
059E6:  CLRF   xD8
059E8:  CLRF   xD7
059EA:  CLRF   xDA
059EC:  CLRF   xD9
059EE:  CLRF   xDC
059F0:  CLRF   xDB
059F2:  CLRF   xDE
059F4:  CLRF   xDD
059F6:  CLRF   xE0
059F8:  CLRF   xDF
059FA:  MOVLB  5
059FC:  CLRF   x04
059FE:  CLRF   x03
05A00:  CLRF   x02
05A02:  CLRF   x01
05A04:  CLRF   x08
05A06:  CLRF   x07
05A08:  CLRF   x06
05A0A:  CLRF   x05
05A0C:  CLRF   x0C
05A0E:  CLRF   x0B
05A10:  CLRF   x0A
05A12:  CLRF   x09
05A14:  CLRF   x10
05A16:  CLRF   x0F
05A18:  CLRF   x0E
05A1A:  CLRF   x0D
05A1C:  CLRF   x14
05A1E:  CLRF   x13
05A20:  CLRF   x12
05A22:  CLRF   x11
05A24:  CLRF   x18
05A26:  CLRF   x17
05A28:  CLRF   x16
05A2A:  CLRF   x15
05A2C:  CLRF   x1C
05A2E:  CLRF   x1B
05A30:  CLRF   x1A
05A32:  CLRF   x19
05A34:  CLRF   x20
05A36:  CLRF   x1F
05A38:  CLRF   x1E
05A3A:  CLRF   x1D
05A3C:  CLRF   x24
05A3E:  CLRF   x23
05A40:  CLRF   x22
05A42:  CLRF   x21
05A44:  CLRF   x28
05A46:  CLRF   x27
05A48:  CLRF   x26
05A4A:  CLRF   x25
05A4C:  CLRF   x2C
05A4E:  CLRF   x2B
05A50:  CLRF   x2A
05A52:  CLRF   x29
05A54:  CLRF   x30
05A56:  CLRF   x2F
05A58:  CLRF   x2E
05A5A:  CLRF   x2D
05A5C:  MOVLW  29
05A5E:  MOVWF  x34
05A60:  MOVLW  B6
05A62:  MOVWF  x33
05A64:  MOVLW  20
05A66:  MOVWF  x32
05A68:  MOVLW  6E
05A6A:  MOVWF  x31
05A6C:  MOVLW  EE
05A6E:  MOVWF  x38
05A70:  MOVLW  7D
05A72:  MOVWF  x37
05A74:  MOVLW  EE
05A76:  MOVWF  x36
05A78:  MOVLW  77
05A7A:  MOVWF  x35
05A7C:  MOVLW  ED
05A7E:  MOVWF  x3C
05A80:  MOVLW  47
05A82:  MOVWF  x3B
05A84:  MOVLW  6D
05A86:  MOVWF  x3A
05A88:  MOVLW  7F
05A8A:  MOVWF  x39
05A8C:  MOVLW  1A
05A8E:  MOVWF  x40
05A90:  MOVLW  D1
05A92:  MOVWF  x3F
05A94:  MOVLW  9C
05A96:  MOVWF  x3E
05A98:  MOVLW  86
05A9A:  MOVWF  x3D
05A9C:  CLRF   xA4
05A9E:  CLRF   xA3
05AA0:  CLRF   xA2
05AA2:  CLRF   xA1
05AA4:  CLRF   xA8
05AA6:  CLRF   xA7
05AA8:  MOVLW  50
05AAA:  MOVWF  xA6
05AAC:  MOVLW  86
05AAE:  MOVWF  xA5
05AB0:  CLRF   xAC
05AB2:  CLRF   xAB
05AB4:  CLRF   xAA
05AB6:  CLRF   xA9
05AB8:  CLRF   xB0
05ABA:  CLRF   xAF
05ABC:  CLRF   xAE
05ABE:  CLRF   xAD
05AC0:  CLRF   xB4
05AC2:  CLRF   xB3
05AC4:  CLRF   xB2
05AC6:  CLRF   xB1
05AC8:  CLRF   xB8
05ACA:  CLRF   xB7
05ACC:  CLRF   xB6
05ACE:  MOVLW  80
05AD0:  MOVWF  xB5
05AD2:  CLRF   xBA
05AD4:  CLRF   xB9
05AD6:  CLRF   xBC
05AD8:  CLRF   xBB
05ADA:  CLRF   xBD
05ADC:  CLRF   xBE
05ADE:  CLRF   xBF
05AE0:  CLRF   xC0
05AE2:  MOVLB  4
05AE4:  BCF    x2F.1
05AE6:  BCF    x2F.2
05AE8:  MOVLB  5
05AEA:  CLRF   xC2
05AEC:  CLRF   xC1
05AEE:  CLRF   xC3
05AF0:  CLRF   xC4
05AF2:  CLRF   xC8
05AF4:  CLRF   xC7
05AF6:  CLRF   xC6
05AF8:  CLRF   xC5
05AFA:  CLRF   xCC
05AFC:  CLRF   xCB
05AFE:  CLRF   xCA
05B00:  CLRF   xC9
05B02:  MOVF   FC1,W
05B04:  ANDLW  C0
05B06:  IORLW  0F
05B08:  MOVWF  FC1
05B0A:  MOVLW  07
05B0C:  MOVWF  FB4
05B0E:  MOVLB  4
05B10:  CLRF   x2B
05B12:  CLRF   x2C
05B14:  MOVLW  4A
05B16:  MOVWF  x30
05B18:  MOVLW  50
05B1A:  MOVWF  x31
05B1C:  MOVLW  20
05B1E:  MOVWF  x32
05B20:  MOVLW  49
05B22:  MOVWF  x33
05B24:  MOVLW  6E
05B26:  MOVWF  x34
05B28:  MOVLW  67
05B2A:  MOVWF  x35
05B2C:  MOVLW  6C
05B2E:  MOVWF  x36
05B30:  MOVLW  6F
05B32:  MOVWF  x37
05B34:  MOVLW  62
05B36:  MOVWF  x38
05B38:  MOVLW  61
05B3A:  MOVWF  x39
05B3C:  MOVLW  6C
05B3E:  MOVWF  x3A
05B40:  CLRF   x3B
05B42:  MOVLW  43
05B44:  MOVWF  x3C
05B46:  MOVLW  61
05B48:  MOVWF  x3D
05B4A:  MOVLW  62
05B4C:  MOVWF  x3E
05B4E:  MOVLW  69
05B50:  MOVWF  x3F
05B52:  MOVLW  6E
05B54:  MOVWF  x40
05B56:  MOVLW  61
05B58:  MOVWF  x41
05B5A:  MOVLW  20
05B5C:  MOVWF  x42
05B5E:  MOVLW  45
05B60:  MOVWF  x43
05B62:  MOVLW  78
05B64:  MOVWF  x44
05B66:  MOVLW  74
05B68:  MOVWF  x45
05B6A:  MOVLW  72
05B6C:  MOVWF  x46
05B6E:  MOVLW  61
05B70:  MOVWF  x47
05B72:  MOVLW  63
05B74:  MOVWF  x48
05B76:  MOVLW  74
05B78:  MOVWF  x49
05B7A:  MOVLW  6F
05B7C:  MOVWF  x4A
05B7E:  MOVLW  72
05B80:  MOVWF  x4B
05B82:  MOVLW  61
05B84:  MOVWF  x4C
05B86:  CLRF   x4D
05B88:  MOVLW  3A
05B8A:  MOVWF  x4E
05B8C:  CLRF   x4F
05B8E:  MOVLW  53
05B90:  MOVWF  x50
05B92:  MOVLW  69
05B94:  MOVWF  x51
05B96:  MOVLW  6E
05B98:  MOVWF  x52
05B9A:  MOVLW  20
05B9C:  MOVWF  x53
05B9E:  MOVLW  44
05BA0:  MOVWF  x54
05BA2:  MOVLW  75
05BA4:  MOVWF  x55
05BA6:  MOVLW  63
05BA8:  MOVWF  x56
05BAA:  MOVLW  74
05BAC:  MOVWF  x57
05BAE:  MOVLW  6F
05BB0:  MOVWF  x58
05BB2:  MOVLW  73
05BB4:  MOVWF  x59
05BB6:  CLRF   x5A
05BB8:  MOVLW  54
05BBA:  MOVWF  x5B
05BBC:  MOVLW  69
05BBE:  MOVWF  x5C
05BC0:  MOVLW  65
05BC2:  MOVWF  x5D
05BC4:  MOVLW  6D
05BC6:  MOVWF  x5E
05BC8:  MOVLW  70
05BCA:  MOVWF  x5F
05BCC:  MOVLW  6F
05BCE:  MOVWF  x60
05BD0:  MOVLW  20
05BD2:  MOVWF  x61
05BD4:  MOVLW  64
05BD6:  MOVWF  x62
05BD8:  MOVLW  65
05BDA:  MOVWF  x63
05BDC:  MOVLW  20
05BDE:  MOVWF  x64
05BE0:  MOVLW  50
05BE2:  MOVWF  x65
05BE4:  MOVLW  75
05BE6:  MOVWF  x66
05BE8:  MOVLW  72
05BEA:  MOVWF  x67
05BEC:  MOVLW  67
05BEE:  MOVWF  x68
05BF0:  MOVLW  61
05BF2:  MOVWF  x69
05BF4:  CLRF   x6A
05BF6:  MOVLW  56
05BF8:  MOVWF  x6B
05BFA:  MOVLW  65
05BFC:  MOVWF  x6C
05BFE:  MOVLW  6C
05C00:  MOVWF  x6D
05C02:  MOVLW  3A
05C04:  MOVWF  x6E
05C06:  CLRF   x6F
05C08:  MOVLW  54
05C0A:  MOVWF  x70
05C0C:  MOVLW  65
05C0E:  MOVWF  x71
05C10:  MOVLW  6D
05C12:  MOVWF  x72
05C14:  MOVLW  70
05C16:  MOVWF  x73
05C18:  MOVLW  65
05C1A:  MOVWF  x74
05C1C:  MOVLW  72
05C1E:  MOVWF  x75
05C20:  MOVLW  61
05C22:  MOVWF  x76
05C24:  MOVLW  74
05C26:  MOVWF  x77
05C28:  MOVLW  75
05C2A:  MOVWF  x78
05C2C:  MOVLW  72
05C2E:  MOVWF  x79
05C30:  MOVLW  61
05C32:  MOVWF  x7A
05C34:  CLRF   x7B
05C36:  MOVLW  46
05C38:  MOVWF  x7C
05C3A:  MOVLW  61
05C3C:  MOVWF  x7D
05C3E:  MOVLW  62
05C40:  MOVWF  x7E
05C42:  MOVLW  72
05C44:  MOVWF  x7F
05C46:  MOVLW  69
05C48:  MOVWF  x80
05C4A:  MOVLW  63
05C4C:  MOVWF  x81
05C4E:  MOVLW  61
05C50:  MOVWF  x82
05C52:  MOVLW  3A
05C54:  MOVWF  x83
05C56:  MOVLW  32
05C58:  MOVWF  x84
05C5A:  MOVLW  30
05C5C:  MOVWF  x85
05C5E:  MOVLW  38
05C60:  MOVWF  x86
05C62:  MOVLW  2E
05C64:  MOVWF  x87
05C66:  MOVLW  30
05C68:  MOVWF  x88
05C6A:  CLRF   x89
05C6C:  MOVLW  41
05C6E:  MOVWF  x8A
05C70:  MOVLW  63
05C72:  MOVWF  x8B
05C74:  MOVLW  74
05C76:  MOVWF  x8C
05C78:  MOVLW  75
05C7A:  MOVWF  x8D
05C7C:  MOVLW  61
05C7E:  MOVWF  x8E
05C80:  MOVLW  6C
05C82:  MOVWF  x8F
05C84:  MOVLW  3A
05C86:  MOVWF  x90
05C88:  CLRF   x91
05C8A:  MOVLW  41
05C8C:  MOVWF  x92
05C8E:  MOVLW  6A
05C90:  MOVWF  x93
05C92:  MOVLW  75
05C94:  MOVWF  x94
05C96:  MOVLW  73
05C98:  MOVWF  x95
05C9A:  MOVLW  74
05C9C:  MOVWF  x96
05C9E:  MOVLW  65
05CA0:  MOVWF  x97
05CA2:  MOVLW  3A
05CA4:  MOVWF  x98
05CA6:  CLRF   x99
05CA8:  MOVLW  54
05CAA:  MOVWF  x9A
05CAC:  MOVLW  2E
05CAE:  MOVWF  x9B
05CB0:  MOVLW  20
05CB2:  MOVWF  x9C
05CB4:  MOVLW  46
05CB6:  MOVWF  x9D
05CB8:  MOVLW  69
05CBA:  MOVWF  x9E
05CBC:  MOVLW  6C
05CBE:  MOVWF  x9F
05CC0:  MOVLW  74
05CC2:  MOVWF  xA0
05CC4:  MOVLW  72
05CC6:  MOVWF  xA1
05CC8:  MOVLW  6F
05CCA:  MOVWF  xA2
05CCC:  MOVLW  3A
05CCE:  MOVWF  xA3
05CD0:  CLRF   xA4
05CD2:  MOVLW  46
05CD4:  MOVWF  xA5
05CD6:  MOVLW  61
05CD8:  MOVWF  xA6
05CDA:  MOVLW  62
05CDC:  MOVWF  xA7
05CDE:  MOVLW  72
05CE0:  MOVWF  xA8
05CE2:  MOVLW  69
05CE4:  MOVWF  xA9
05CE6:  MOVLW  63
05CE8:  MOVWF  xAA
05CEA:  MOVLW  61
05CEC:  MOVWF  xAB
05CEE:  MOVLW  3A
05CF0:  MOVWF  xAC
05CF2:  MOVLW  32
05CF4:  MOVWF  xAD
05CF6:  MOVLW  33
05CF8:  MOVWF  xAE
05CFA:  MOVLW  35
05CFC:  MOVWF  xAF
05CFE:  MOVLW  2E
05D00:  MOVWF  xB0
05D02:  MOVLW  30
05D04:  MOVWF  xB1
05D06:  CLRF   xB2
05D08:  MOVLW  21
05D0A:  MOVWF  xB3
05D0C:  MOVLW  46
05D0E:  MOVWF  xB4
05D10:  MOVLW  69
05D12:  MOVWF  xB5
05D14:  MOVLW  6C
05D16:  MOVWF  xB6
05D18:  MOVLW  74
05D1A:  MOVWF  xB7
05D1C:  MOVLW  72
05D1E:  MOVWF  xB8
05D20:  MOVLW  6F
05D22:  MOVWF  xB9
05D24:  MOVLW  20
05D26:  MOVWF  xBA
05D28:  MOVLW  53
05D2A:  MOVWF  xBB
05D2C:  MOVLW  61
05D2E:  MOVWF  xBC
05D30:  MOVLW  74
05D32:  MOVWF  xBD
05D34:  MOVLW  75
05D36:  MOVWF  xBE
05D38:  MOVLW  72
05D3A:  MOVWF  xBF
05D3C:  MOVLW  61
05D3E:  MOVWF  xC0
05D40:  MOVLW  64
05D42:  MOVWF  xC1
05D44:  MOVLW  6F
05D46:  MOVWF  xC2
05D48:  MOVLW  21
05D4A:  MOVWF  xC3
05D4C:  CLRF   xC4
05D4E:  CLRF   xE1
05D50:  CLRF   xE2
05D52:  CLRF   xE3
05D54:  CLRF   xE4
05D56:  MOVLW  09
05D58:  MOVWF  xE5
05D5A:  CLRF   xE6
05D5C:  CLRF   xE7
05D5E:  CLRF   xE8
05D60:  MOVWF  xE9
05D62:  CLRF   xEA
05D64:  CLRF   xEB
05D66:  CLRF   xEC
05D68:  CLRF   xED
05D6A:  CLRF   xEE
05D6C:  CLRF   xEF
05D6E:  CLRF   xF0
05D70:  CLRF   xF1
05D72:  CLRF   xF2
05D74:  CLRF   xF3
05D76:  CLRF   xF4
05D78:  CLRF   xF5
05D7A:  CLRF   xF6
05D7C:  CLRF   xF7
05D7E:  CLRF   xF8
05D80:  CLRF   xF9
05D82:  CLRF   xFA
05D84:  CLRF   xFB
05D86:  CLRF   xFC
05D88:  CLRF   xFD
05D8A:  CLRF   xFE
05D8C:  CLRF   xFF
05D8E:  MOVLB  5
05D90:  CLRF   x00
05D92:  CLRF   x41
05D94:  CLRF   x42
05D96:  CLRF   x43
05D98:  CLRF   x44
05D9A:  CLRF   x45
05D9C:  CLRF   x46
05D9E:  CLRF   x47
05DA0:  CLRF   x48
05DA2:  CLRF   x49
05DA4:  CLRF   x4A
05DA6:  CLRF   x4B
05DA8:  CLRF   x4C
05DAA:  CLRF   x4D
05DAC:  CLRF   x4E
05DAE:  CLRF   x4F
05DB0:  CLRF   x50
05DB2:  CLRF   x51
05DB4:  CLRF   x52
05DB6:  CLRF   x53
05DB8:  CLRF   x54
05DBA:  CLRF   x55
05DBC:  CLRF   x56
05DBE:  CLRF   x57
05DC0:  CLRF   x58
05DC2:  CLRF   x59
05DC4:  CLRF   x5A
05DC6:  CLRF   x5B
05DC8:  CLRF   x5C
05DCA:  CLRF   x5D
05DCC:  CLRF   x5E
05DCE:  CLRF   x5F
05DD0:  CLRF   x60
05DD2:  CLRF   x61
05DD4:  CLRF   x62
05DD6:  CLRF   x63
05DD8:  CLRF   x64
05DDA:  CLRF   x65
05DDC:  CLRF   x66
05DDE:  CLRF   x67
05DE0:  CLRF   x68
05DE2:  CLRF   x69
05DE4:  CLRF   x6A
05DE6:  CLRF   x6B
05DE8:  CLRF   x6C
05DEA:  CLRF   x6D
05DEC:  CLRF   x6E
05DEE:  CLRF   x6F
05DF0:  CLRF   x70
05DF2:  CLRF   x71
05DF4:  CLRF   x72
05DF6:  CLRF   x73
05DF8:  CLRF   x74
05DFA:  CLRF   x75
05DFC:  CLRF   x76
05DFE:  CLRF   x77
05E00:  CLRF   x78
05E02:  CLRF   x79
05E04:  CLRF   x7A
05E06:  CLRF   x7B
05E08:  CLRF   x7C
05E0A:  CLRF   x7D
05E0C:  CLRF   x7E
05E0E:  CLRF   x7F
05E10:  CLRF   x80
05E12:  CLRF   x81
05E14:  CLRF   x82
05E16:  CLRF   x83
05E18:  CLRF   x84
05E1A:  CLRF   x85
05E1C:  CLRF   x86
05E1E:  CLRF   x87
05E20:  CLRF   x88
05E22:  CLRF   x89
05E24:  CLRF   x8A
05E26:  CLRF   x8B
05E28:  CLRF   x8C
05E2A:  CLRF   x8D
05E2C:  CLRF   x8E
05E2E:  CLRF   x8F
05E30:  CLRF   x90
05E32:  CLRF   x91
05E34:  CLRF   x92
05E36:  CLRF   x93
05E38:  CLRF   x94
05E3A:  CLRF   x95
05E3C:  CLRF   x96
05E3E:  CLRF   x97
05E40:  CLRF   x98
05E42:  CLRF   x99
05E44:  CLRF   x9A
05E46:  CLRF   x9B
05E48:  CLRF   x9C
05E4A:  CLRF   x9D
05E4C:  CLRF   x9E
05E4E:  CLRF   x9F
05E50:  CLRF   xA0
....................    delay_ms(1000); 
05E52:  MOVLW  04
05E54:  MOVWF  xCD
05E56:  MOVLW  FA
05E58:  MOVWF  xE1
05E5A:  MOVLB  0
05E5C:  CALL   1368
05E60:  MOVLB  5
05E62:  DECFSZ xCD,F
05E64:  BRA    5E56
....................    Cruce=OFF; 
05E66:  MOVLB  4
05E68:  BCF    x2F.1
....................    VelocidadMotor(0); 
05E6A:  MOVLB  5
05E6C:  CLRF   xCD
05E6E:  MOVLB  0
05E70:  CALL   1390
....................    Tcruce2=83; 
05E74:  MOVLB  5
05E76:  CLRF   xCC
05E78:  CLRF   xCB
05E7A:  MOVLW  26
05E7C:  MOVWF  xCA
05E7E:  MOVLW  85
05E80:  MOVWF  xC9
....................    Tcruce=8300; 
05E82:  CLRF   xC8
05E84:  MOVLW  B0
05E86:  MOVWF  xC7
05E88:  MOVLW  01
05E8A:  MOVWF  xC6
05E8C:  MOVLW  8C
05E8E:  MOVWF  xC5
....................    Motor_off; 
05E90:  BCF    F8B.2
05E92:  BCF    F94.2
....................    //setup_timer_1(T1_INTERNAL|T1_DIV_BY_1); 
....................    //enable_interrupts(INT_TIMER1); 
....................    enable_interrupts(INT_EXT_L2H); 
05E94:  BSF    FF2.4
05E96:  BSF    FF1.6
....................    setup_adc_ports(AN0_TO_AN1); 
05E98:  MOVF   FC1,W
05E9A:  ANDLW  C0
05E9C:  IORLW  0D
05E9E:  MOVWF  FC1
....................    setup_adc(ADC_CLOCK_DIV_32 ); 
05EA0:  MOVF   FC0,W
05EA2:  ANDLW  C0
05EA4:  IORLW  02
05EA6:  MOVWF  FC0
05EA8:  BSF    FC0.7
05EAA:  BSF    FC2.0
....................    enable_interrupts(global);   
05EAC:  MOVLW  C0
05EAE:  IORWF  FF2,F
....................    VelocidadMotor(0); 
05EB0:  CLRF   xCD
05EB2:  MOVLB  0
05EB4:  CALL   1390
....................    Motor_off; 
05EB8:  BCF    F8B.2
05EBA:  BCF    F94.2
.................... //-------Inicio de Cabina-------------------------------------------------------------------------// 
....................    Display_on; 
05EBC:  BSF    F8A.1
05EBE:  BCF    F93.1
....................    glcd_init(ON);             //Inicializa la glcd 
05EC0:  MOVLW  01
05EC2:  MOVLB  5
05EC4:  MOVWF  xCD
05EC6:  MOVLB  0
05EC8:  CALL   155A
....................    glcd_fillScreen(OFF);      //Limpia la pantalla 
05ECC:  MOVLB  5
05ECE:  CLRF   xD5
05ED0:  MOVLB  0
05ED2:  CALL   1448
....................    glcd_text57(0, 0, JP, 2, ON);glcd_text57(5, 20, Cabina, 1, ON);glcd_text57(10, 40, Clase, 2, ON);              
05ED6:  MOVLB  5
05ED8:  CLRF   xE6
05EDA:  CLRF   xE7
05EDC:  MOVLW  04
05EDE:  MOVWF  xE9
05EE0:  MOVLW  30
05EE2:  MOVWF  xE8
05EE4:  MOVLW  02
05EE6:  MOVWF  xEA
05EE8:  MOVLW  01
05EEA:  MOVWF  xEB
05EEC:  MOVLB  0
05EEE:  CALL   16BE
05EF2:  MOVLW  05
05EF4:  MOVLB  5
05EF6:  MOVWF  xE6
05EF8:  MOVLW  14
05EFA:  MOVWF  xE7
05EFC:  MOVLW  04
05EFE:  MOVWF  xE9
05F00:  MOVLW  3C
05F02:  MOVWF  xE8
05F04:  MOVLW  01
05F06:  MOVWF  xEA
05F08:  MOVWF  xEB
05F0A:  MOVLB  0
05F0C:  CALL   16BE
05F10:  MOVLW  0A
05F12:  MOVLB  5
05F14:  MOVWF  xE6
05F16:  MOVLW  28
05F18:  MOVWF  xE7
05F1A:  MOVLW  04
05F1C:  MOVWF  xE9
05F1E:  MOVLW  50
05F20:  MOVWF  xE8
05F22:  MOVLW  02
05F24:  MOVWF  xEA
05F26:  MOVLW  01
05F28:  MOVWF  xEB
05F2A:  MOVLB  0
05F2C:  CALL   16BE
....................    glcd_update(); 
05F30:  CALL   14A2
....................    delay_ms(3000); 
05F34:  MOVLW  0C
05F36:  MOVLB  5
05F38:  MOVWF  xCD
05F3A:  MOVLW  FA
05F3C:  MOVWF  xE1
05F3E:  MOVLB  0
05F40:  CALL   1368
05F44:  MOVLB  5
05F46:  DECFSZ xCD,F
05F48:  BRA    5F3A
....................                         
....................    glcd_fillScreen(OFF);      //Limpia la pantalla 
05F4A:  CLRF   xD5
05F4C:  MOVLB  0
05F4E:  CALL   1448
....................    Menu=0; 
05F52:  MOVLB  4
05F54:  CLRF   xC5
....................    LuzBlanca_off;Alarma_off; 
05F56:  BCF    F8B.0
05F58:  BCF    F94.0
05F5A:  BCF    F8B.7
05F5C:  BCF    F94.7
.................... //-------Inicio de Cabina-------------------------------------------------------------------------// 
....................    VelocidadMotor(0); 
05F5E:  MOVLB  5
05F60:  CLRF   xCD
05F62:  MOVLB  0
05F64:  CALL   1390
....................    Motor_off; 
05F68:  BCF    F8B.2
05F6A:  BCF    F94.2
....................    LeeEEPROM(); // Lectura de variables almacenadas en la EEPROM  
05F6C:  GOTO   1CA4
....................    LimitaValores(); 
05F70:  GOTO   24F2
....................    //Menu=2; 
....................    while(true){  
....................    glcd_update(); 
05F74:  CALL   14A2
.................... //**Actualizacin de Lectura de Sensores**//    
....................    if(Lectura==1){ 
05F78:  MOVLB  4
05F7A:  BTFSS  x2E.7
05F7C:  BRA    5FC2
....................       Lectura=0; 
05F7E:  BCF    x2E.7
....................       InFlow=LeerFlujoInFlow(8); 
05F80:  MOVLW  08
05F82:  MOVLB  5
05F84:  MOVWF  xCD
05F86:  MOVLB  0
05F88:  GOTO   4192
05F8C:  MOVFF  03,504
05F90:  MOVFF  02,503
05F94:  MOVFF  01,502
05F98:  MOVFF  00,501
....................       Temperatura=leeTemperatura(5); 
05F9C:  MOVLW  05
05F9E:  MOVLB  5
05FA0:  MOVWF  xCD
05FA2:  MOVLB  0
05FA4:  GOTO   4560
05FA8:  MOVFF  03,601
05FAC:  MOVFF  02,600
05FB0:  MOVFF  01,5FF
05FB4:  MOVFF  00,5FE
05FB8:  CALL   2ECA
05FBC:  MOVFF  01,5C0
05FC0:  MOVLB  4
....................    } 
.................... //----------------------------------------// 
....................  
.................... //**Contador de Tiempo de Trabajo del filtro**// 
....................    if(minutos_trabajo>=3600){ // Tiempo de Trabajo 
05FC2:  MOVF   xDE,W
05FC4:  SUBLW  0D
05FC6:  BTFSC  FD8.0
05FC8:  BRA    6170
05FCA:  XORLW  FF
05FCC:  BNZ   5FD6
05FCE:  MOVF   xDD,W
05FD0:  SUBLW  0F
05FD2:  BTFSC  FD8.0
05FD4:  BRA    6170
....................       minutos_trabajo=0; //Minutos Trabajo realmente son segundos. 
05FD6:  CLRF   xDE
05FD8:  CLRF   xDD
....................       write_eeprom(33,make8(minutos_trabajo,0)); 
05FDA:  MOVFF  4DD,5CD
05FDE:  CLRF   FAA
05FE0:  MOVLW  21
05FE2:  MOVWF  FA9
05FE4:  MOVFF  5CD,FA8
05FE8:  BCF    FA6.6
05FEA:  BCF    FA6.7
05FEC:  BSF    FA6.2
05FEE:  MOVF   FF2,W
05FF0:  MOVWF  00
05FF2:  BCF    FF2.7
05FF4:  MOVLB  F
05FF6:  MOVLW  55
05FF8:  MOVWF  FA7
05FFA:  MOVLW  AA
05FFC:  MOVWF  FA7
05FFE:  BSF    FA6.1
06000:  BTFSC  FA6.1
06002:  BRA    6000
06004:  BCF    FA6.2
06006:  MOVF   00,W
06008:  IORWF  FF2,F
....................       delay_ms(20); 
0600A:  MOVLW  14
0600C:  MOVLB  5
0600E:  MOVWF  xE1
06010:  MOVLB  0
06012:  CALL   1368
....................       write_eeprom(34,make8(minutos_trabajo,1)); 
06016:  MOVFF  4DE,5CD
0601A:  CLRF   FAA
0601C:  MOVLW  22
0601E:  MOVWF  FA9
06020:  MOVFF  5CD,FA8
06024:  BCF    FA6.6
06026:  BCF    FA6.7
06028:  BSF    FA6.2
0602A:  MOVF   FF2,W
0602C:  MOVWF  00
0602E:  BCF    FF2.7
06030:  MOVLB  F
06032:  MOVLW  55
06034:  MOVWF  FA7
06036:  MOVLW  AA
06038:  MOVWF  FA7
0603A:  BSF    FA6.1
0603C:  BTFSC  FA6.1
0603E:  BRA    603C
06040:  BCF    FA6.2
06042:  MOVF   00,W
06044:  IORWF  FF2,F
....................       delay_ms(20); 
06046:  MOVLW  14
06048:  MOVLB  5
0604A:  MOVWF  xE1
0604C:  MOVLB  0
0604E:  CALL   1368
....................       Ttrabajo[0]++; 
06052:  MOVLB  4
06054:  INCF   xF5,F
....................       if(Ttrabajo[0]>9){ 
06056:  BTFSC  xF5.7
06058:  BRA    6064
0605A:  MOVF   xF5,W
0605C:  SUBLW  09
0605E:  BC    6064
....................          Ttrabajo[0]=0; 
06060:  CLRF   xF5
....................          Ttrabajo[1]++; 
06062:  INCF   xF6,F
....................       } 
....................       if(Ttrabajo[1]>9){ 
06064:  BTFSC  xF6.7
06066:  BRA    6072
06068:  MOVF   xF6,W
0606A:  SUBLW  09
0606C:  BC    6072
....................          Ttrabajo[1]=0; 
0606E:  CLRF   xF6
....................          Ttrabajo[2]++; 
06070:  INCF   xF7,F
....................       } 
....................       if(Ttrabajo[2]>9){ 
06072:  BTFSC  xF7.7
06074:  BRA    6080
06076:  MOVF   xF7,W
06078:  SUBLW  09
0607A:  BC    6080
....................          Ttrabajo[2]=0; 
0607C:  CLRF   xF7
....................          Ttrabajo[3]++; 
0607E:  INCF   xF8,F
....................       } 
....................       if(Ttrabajo[3]>9){ 
06080:  BTFSC  xF8.7
06082:  BRA    608C
06084:  MOVF   xF8,W
06086:  SUBLW  09
06088:  BC    608C
....................          Ttrabajo[3]=0; 
0608A:  CLRF   xF8
....................       } 
....................       write_eeprom(16,Ttrabajo[0]); 
0608C:  CLRF   FAA
0608E:  MOVLW  10
06090:  MOVWF  FA9
06092:  MOVFF  4F5,FA8
06096:  BCF    FA6.6
06098:  BCF    FA6.7
0609A:  BSF    FA6.2
0609C:  MOVF   FF2,W
0609E:  MOVWF  00
060A0:  BCF    FF2.7
060A2:  MOVLB  F
060A4:  MOVLW  55
060A6:  MOVWF  FA7
060A8:  MOVLW  AA
060AA:  MOVWF  FA7
060AC:  BSF    FA6.1
060AE:  BTFSC  FA6.1
060B0:  BRA    60AE
060B2:  BCF    FA6.2
060B4:  MOVF   00,W
060B6:  IORWF  FF2,F
....................       delay_ms(20); 
060B8:  MOVLW  14
060BA:  MOVLB  5
060BC:  MOVWF  xE1
060BE:  MOVLB  0
060C0:  CALL   1368
....................       write_eeprom(17,Ttrabajo[1]); 
060C4:  CLRF   FAA
060C6:  MOVLW  11
060C8:  MOVWF  FA9
060CA:  MOVFF  4F6,FA8
060CE:  BCF    FA6.6
060D0:  BCF    FA6.7
060D2:  BSF    FA6.2
060D4:  MOVF   FF2,W
060D6:  MOVWF  00
060D8:  BCF    FF2.7
060DA:  MOVLB  F
060DC:  MOVLW  55
060DE:  MOVWF  FA7
060E0:  MOVLW  AA
060E2:  MOVWF  FA7
060E4:  BSF    FA6.1
060E6:  BTFSC  FA6.1
060E8:  BRA    60E6
060EA:  BCF    FA6.2
060EC:  MOVF   00,W
060EE:  IORWF  FF2,F
....................       delay_ms(20); 
060F0:  MOVLW  14
060F2:  MOVLB  5
060F4:  MOVWF  xE1
060F6:  MOVLB  0
060F8:  CALL   1368
....................       write_eeprom(18,Ttrabajo[2]); 
060FC:  CLRF   FAA
060FE:  MOVLW  12
06100:  MOVWF  FA9
06102:  MOVFF  4F7,FA8
06106:  BCF    FA6.6
06108:  BCF    FA6.7
0610A:  BSF    FA6.2
0610C:  MOVF   FF2,W
0610E:  MOVWF  00
06110:  BCF    FF2.7
06112:  MOVLB  F
06114:  MOVLW  55
06116:  MOVWF  FA7
06118:  MOVLW  AA
0611A:  MOVWF  FA7
0611C:  BSF    FA6.1
0611E:  BTFSC  FA6.1
06120:  BRA    611E
06122:  BCF    FA6.2
06124:  MOVF   00,W
06126:  IORWF  FF2,F
....................       delay_ms(20); 
06128:  MOVLW  14
0612A:  MOVLB  5
0612C:  MOVWF  xE1
0612E:  MOVLB  0
06130:  CALL   1368
....................       write_eeprom(19,Ttrabajo[3]); 
06134:  CLRF   FAA
06136:  MOVLW  13
06138:  MOVWF  FA9
0613A:  MOVFF  4F8,FA8
0613E:  BCF    FA6.6
06140:  BCF    FA6.7
06142:  BSF    FA6.2
06144:  MOVF   FF2,W
06146:  MOVWF  00
06148:  BCF    FF2.7
0614A:  MOVLB  F
0614C:  MOVLW  55
0614E:  MOVWF  FA7
06150:  MOVLW  AA
06152:  MOVWF  FA7
06154:  BSF    FA6.1
06156:  BTFSC  FA6.1
06158:  BRA    6156
0615A:  BCF    FA6.2
0615C:  MOVF   00,W
0615E:  IORWF  FF2,F
....................       delay_ms(20); 
06160:  MOVLW  14
06162:  MOVLB  5
06164:  MOVWF  xE1
06166:  MOVLB  0
06168:  CALL   1368
....................    }else if(minutos_trabajo==900 || minutos_trabajo==1800 || minutos_trabajo==2700 ){ 
0616C:  BRA    620C
0616E:  MOVLB  4
06170:  MOVF   xDD,W
06172:  SUBLW  84
06174:  BNZ   617C
06176:  MOVF   xDE,W
06178:  SUBLW  03
0617A:  BZ    6194
0617C:  MOVF   xDD,W
0617E:  SUBLW  08
06180:  BNZ   6188
06182:  MOVF   xDE,W
06184:  SUBLW  07
06186:  BZ    6194
06188:  MOVF   xDD,W
0618A:  SUBLW  8C
0618C:  BNZ   620E
0618E:  MOVF   xDE,W
06190:  SUBLW  0A
06192:  BNZ   620E
....................       write_eeprom(33,make8(minutos_trabajo,0)); 
06194:  MOVFF  4DD,5CD
06198:  CLRF   FAA
0619A:  MOVLW  21
0619C:  MOVWF  FA9
0619E:  MOVFF  5CD,FA8
061A2:  BCF    FA6.6
061A4:  BCF    FA6.7
061A6:  BSF    FA6.2
061A8:  MOVF   FF2,W
061AA:  MOVWF  00
061AC:  BCF    FF2.7
061AE:  MOVLB  F
061B0:  MOVLW  55
061B2:  MOVWF  FA7
061B4:  MOVLW  AA
061B6:  MOVWF  FA7
061B8:  BSF    FA6.1
061BA:  BTFSC  FA6.1
061BC:  BRA    61BA
061BE:  BCF    FA6.2
061C0:  MOVF   00,W
061C2:  IORWF  FF2,F
....................       delay_ms(20); 
061C4:  MOVLW  14
061C6:  MOVLB  5
061C8:  MOVWF  xE1
061CA:  MOVLB  0
061CC:  CALL   1368
....................       write_eeprom(34,make8(minutos_trabajo,1)); 
061D0:  MOVFF  4DE,5CD
061D4:  CLRF   FAA
061D6:  MOVLW  22
061D8:  MOVWF  FA9
061DA:  MOVFF  5CD,FA8
061DE:  BCF    FA6.6
061E0:  BCF    FA6.7
061E2:  BSF    FA6.2
061E4:  MOVF   FF2,W
061E6:  MOVWF  00
061E8:  BCF    FF2.7
061EA:  MOVLB  F
061EC:  MOVLW  55
061EE:  MOVWF  FA7
061F0:  MOVLW  AA
061F2:  MOVWF  FA7
061F4:  BSF    FA6.1
061F6:  BTFSC  FA6.1
061F8:  BRA    61F6
061FA:  BCF    FA6.2
061FC:  MOVF   00,W
061FE:  IORWF  FF2,F
....................       delay_ms(20); 
06200:  MOVLW  14
06202:  MOVLB  5
06204:  MOVWF  xE1
06206:  MOVLB  0
06208:  CALL   1368
0620C:  MOVLB  4
....................    } 
.................... //----------------------------------------//       
....................     
....................    if(Menu!=2){// Si no esta en el menu de estados apaga la alarma 
0620E:  MOVF   xC5,W
06210:  SUBLW  02
06212:  BZ    621C
....................       Alarma_off; 
06214:  BCF    F8B.7
06216:  BCF    F94.7
....................       Alarma=10; 
06218:  MOVLW  0A
0621A:  MOVWF  xD2
....................    } 
....................     
.................... //_-------------------------------------------------------------------------------------------------------------------------------------------------------- 
....................    if(Menu==0){ //Menu de Contrasea. 
0621C:  MOVF   xC5,F
0621E:  BNZ   6256
....................       while(PidePassword(0,0,1,Password[0],Password[1],Password[2],Password[3])==0){ 
06220:  MOVLB  5
06222:  CLRF   xCE
06224:  CLRF   xCF
06226:  MOVLW  01
06228:  MOVWF  xD0
0622A:  MOVFF  4FD,5D1
0622E:  MOVFF  4FE,5D2
06232:  MOVFF  4FF,5D3
06236:  MOVFF  500,5D4
0623A:  MOVLB  0
0623C:  CALL   4C0C
06240:  MOVF   01,F
06242:  BNZ   6258
....................          VelocidadMotor(0); 
06244:  MOVLB  5
06246:  CLRF   xCD
06248:  MOVLB  0
0624A:  CALL   1390
....................          glcd_update(); 
0624E:  CALL   14A2
....................       }        
06252:  MOVLB  4
06254:  BRA    6220
06256:  MOVLB  0
....................    } 
.................... //_--------------------------------------------------------------------------------------------------------------------------------------------------------        
....................  
.................... //_-------------------------------------------------------------------------------------------------------------------------------------------------------- 
....................       if(Menu==1){//Menu de Purga. 
06258:  MOVLB  4
0625A:  DECFSZ xC5,W
0625C:  BRA    63C2
....................          Purga=ON; 
0625E:  BSF    x2F.2
....................          glcd_text57(15, 1, Tiempo, 1, ON); 
06260:  MOVLW  0F
06262:  MOVLB  5
06264:  MOVWF  xE6
06266:  MOVLW  01
06268:  MOVWF  xE7
0626A:  MOVLW  04
0626C:  MOVWF  xE9
0626E:  MOVLW  5B
06270:  MOVWF  xE8
06272:  MOVLW  01
06274:  MOVWF  xEA
06276:  MOVWF  xEB
06278:  MOVLB  0
0627A:  CALL   16BE
....................          tiempo_purga=1;LuzBlanca_off;//Alarma_off; 
0627E:  MOVLB  4
06280:  BSF    x2E.3
06282:  BCF    F8B.0
06284:  BCF    F94.0
....................          glcd_rect(9, 54, 120, 64, YES, OFF);          
06286:  MOVLW  09
06288:  MOVLB  5
0628A:  MOVWF  xE6
0628C:  MOVLW  36
0628E:  MOVWF  xE7
06290:  MOVLW  78
06292:  MOVWF  xE8
06294:  MOVLW  40
06296:  MOVWF  xE9
06298:  MOVLW  01
0629A:  MOVWF  xEA
0629C:  CLRF   xEB
0629E:  MOVLB  0
062A0:  CALL   49BC
....................          displayTiempo(Tpurga[3],20,20,0,2);displayTiempo(Tpurga[2],40,20,0,2);glcd_text57(60, 22, Dos_puntos, 2, ON); 
062A4:  MOVFF  4E4,5CD
062A8:  MOVLW  14
062AA:  MOVLB  5
062AC:  MOVWF  xCE
062AE:  MOVWF  xCF
062B0:  CLRF   xD0
062B2:  MOVLW  02
062B4:  MOVWF  xD1
062B6:  MOVLB  0
062B8:  CALL   530E
062BC:  MOVFF  4E3,5CD
062C0:  MOVLW  28
062C2:  MOVLB  5
062C4:  MOVWF  xCE
062C6:  MOVLW  14
062C8:  MOVWF  xCF
062CA:  CLRF   xD0
062CC:  MOVLW  02
062CE:  MOVWF  xD1
062D0:  MOVLB  0
062D2:  CALL   530E
062D6:  MOVLW  3C
062D8:  MOVLB  5
062DA:  MOVWF  xE6
062DC:  MOVLW  16
062DE:  MOVWF  xE7
062E0:  MOVLW  04
062E2:  MOVWF  xE9
062E4:  MOVLW  4E
062E6:  MOVWF  xE8
062E8:  MOVLW  02
062EA:  MOVWF  xEA
062EC:  MOVLW  01
062EE:  MOVWF  xEB
062F0:  MOVLB  0
062F2:  CALL   16BE
....................          displayTiempo(Tpurga[1],70,20,0,2);displayTiempo(Tpurga[0],90,20,0,2);         
062F6:  MOVFF  4E2,5CD
062FA:  MOVLW  46
062FC:  MOVLB  5
062FE:  MOVWF  xCE
06300:  MOVLW  14
06302:  MOVWF  xCF
06304:  CLRF   xD0
06306:  MOVLW  02
06308:  MOVWF  xD1
0630A:  MOVLB  0
0630C:  CALL   530E
06310:  MOVFF  4E1,5CD
06314:  MOVLW  5A
06316:  MOVLB  5
06318:  MOVWF  xCE
0631A:  MOVLW  14
0631C:  MOVWF  xCF
0631E:  CLRF   xD0
06320:  MOVLW  02
06322:  MOVWF  xD1
06324:  MOVLB  0
06326:  CALL   530E
....................           
....................          VelocidadMotor(VelMotor); 
0632A:  MOVFF  5C4,5CD
0632E:  CALL   1390
....................           
....................          if(RIGHT){ 
06332:  BSF    F96.1
06334:  BTFSC  F84.1
06336:  BRA    6366
....................             delay_ms(500); 
06338:  MOVLW  02
0633A:  MOVLB  5
0633C:  MOVWF  xCD
0633E:  MOVLW  FA
06340:  MOVWF  xE1
06342:  MOVLB  0
06344:  CALL   1368
06348:  MOVLB  5
0634A:  DECFSZ xCD,F
0634C:  BRA    633E
....................             if(RIGHT){ 
0634E:  BSF    F96.1
06350:  BTFSC  F84.1
06352:  BRA    6368
....................                tiempo_purga=0;Menu=2;glcd_fillScreen(OFF); 
06354:  MOVLB  4
06356:  BCF    x2E.3
06358:  MOVLW  02
0635A:  MOVWF  xC5
0635C:  MOVLB  5
0635E:  CLRF   xD5
06360:  MOVLB  0
06362:  CALL   1448
06366:  MOVLB  5
....................             } 
....................          } 
....................         
....................          if((Tpurga[0]>=Tpurgap[0])&&(Tpurga[1]>=Tpurgap[1])&&(Tpurga[2]>=Tpurgap[2])&&(Tpurga[3]>=Tpurgap[3])){ 
06368:  MOVLB  4
0636A:  MOVF   xE5,W
0636C:  XORLW  80
0636E:  MOVWF  00
06370:  MOVF   xE1,W
06372:  XORLW  80
06374:  SUBWF  00,W
06376:  BZ    637A
06378:  BC    63C2
0637A:  MOVF   xE6,W
0637C:  XORLW  80
0637E:  MOVWF  00
06380:  MOVF   xE2,W
06382:  XORLW  80
06384:  SUBWF  00,W
06386:  BZ    638A
06388:  BC    63C2
0638A:  MOVF   xE7,W
0638C:  XORLW  80
0638E:  MOVWF  00
06390:  MOVF   xE3,W
06392:  XORLW  80
06394:  SUBWF  00,W
06396:  BZ    639A
06398:  BC    63C2
0639A:  MOVF   xE8,W
0639C:  XORLW  80
0639E:  MOVWF  00
063A0:  MOVF   xE4,W
063A2:  XORLW  80
063A4:  SUBWF  00,W
063A6:  BZ    63AA
063A8:  BC    63C2
....................             tiempo_purga=0;Menu=2;glcd_fillScreen(OFF);flag_luz=!flag_luz;flag_blower=1;flag_toma=1; 
063AA:  BCF    x2E.3
063AC:  MOVLW  02
063AE:  MOVWF  xC5
063B0:  MOVLB  5
063B2:  CLRF   xD5
063B4:  MOVLB  0
063B6:  CALL   1448
063BA:  MOVLB  4
063BC:  BTG    x2E.0
063BE:  BSF    x2D.6
063C0:  BSF    x2D.7
....................          }       
....................       } 
.................... //_--------------------------------------------------------------------------------------------------------------------------------------------------------        
....................  
.................... //_-------------------------------------------------------------------------------------------------------------------------------------------------------- 
....................       if(Menu==2){ //Menu General. 
063C2:  MOVF   xC5,W
063C4:  SUBLW  02
063C6:  BTFSS  FD8.2
063C8:  GOTO   6DE4
....................          Purga=OFF; 
063CC:  BCF    x2F.2
....................          w=0; 
063CE:  BCF    x2E.2
....................          glcd_imagen(4); 
063D0:  MOVLW  04
063D2:  MOVLB  5
063D4:  MOVWF  xCD
063D6:  MOVLB  0
063D8:  CALL   540A
....................           
....................          if(VelMotor==1){ 
063DC:  MOVLB  5
063DE:  DECFSZ xC4,W
063E0:  BRA    6496
....................             glcd_rect(0, 29, 13, 39, YES, ON); 
063E2:  CLRF   xE6
063E4:  MOVLW  1D
063E6:  MOVWF  xE7
063E8:  MOVLW  0D
063EA:  MOVWF  xE8
063EC:  MOVLW  27
063EE:  MOVWF  xE9
063F0:  MOVLW  01
063F2:  MOVWF  xEA
063F4:  MOVWF  xEB
063F6:  MOVLB  0
063F8:  CALL   49BC
....................             glcd_rect(15, 26, 28, 39, NO, ON); 
063FC:  MOVLW  0F
063FE:  MOVLB  5
06400:  MOVWF  xE6
06402:  MOVLW  1A
06404:  MOVWF  xE7
06406:  MOVLW  1C
06408:  MOVWF  xE8
0640A:  MOVLW  27
0640C:  MOVWF  xE9
0640E:  CLRF   xEA
06410:  MOVLW  01
06412:  MOVWF  xEB
06414:  MOVLB  0
06416:  CALL   49BC
....................             glcd_rect(30, 23, 43, 39, NO, ON); 
0641A:  MOVLW  1E
0641C:  MOVLB  5
0641E:  MOVWF  xE6
06420:  MOVLW  17
06422:  MOVWF  xE7
06424:  MOVLW  2B
06426:  MOVWF  xE8
06428:  MOVLW  27
0642A:  MOVWF  xE9
0642C:  CLRF   xEA
0642E:  MOVLW  01
06430:  MOVWF  xEB
06432:  MOVLB  0
06434:  CALL   49BC
....................             glcd_rect(45, 20, 58, 39, NO, ON); 
06438:  MOVLW  2D
0643A:  MOVLB  5
0643C:  MOVWF  xE6
0643E:  MOVLW  14
06440:  MOVWF  xE7
06442:  MOVLW  3A
06444:  MOVWF  xE8
06446:  MOVLW  27
06448:  MOVWF  xE9
0644A:  CLRF   xEA
0644C:  MOVLW  01
0644E:  MOVWF  xEB
06450:  MOVLB  0
06452:  CALL   49BC
....................             glcd_rect(60, 17, 73, 39, NO, ON); 
06456:  MOVLW  3C
06458:  MOVLB  5
0645A:  MOVWF  xE6
0645C:  MOVLW  11
0645E:  MOVWF  xE7
06460:  MOVLW  49
06462:  MOVWF  xE8
06464:  MOVLW  27
06466:  MOVWF  xE9
06468:  CLRF   xEA
0646A:  MOVLW  01
0646C:  MOVWF  xEB
0646E:  MOVLB  0
06470:  CALL   49BC
....................             glcd_rect(75, 14, 88, 39, NO, ON); 
06474:  MOVLW  4B
06476:  MOVLB  5
06478:  MOVWF  xE6
0647A:  MOVLW  0E
0647C:  MOVWF  xE7
0647E:  MOVLW  58
06480:  MOVWF  xE8
06482:  MOVLW  27
06484:  MOVWF  xE9
06486:  CLRF   xEA
06488:  MOVLW  01
0648A:  MOVWF  xEB
0648C:  MOVLB  0
0648E:  CALL   49BC
....................          }else if(VelMotor==2){ 
06492:  BRA    6834
06494:  MOVLB  5
06496:  MOVF   xC4,W
06498:  SUBLW  02
0649A:  BNZ   6550
....................             glcd_rect(0, 29, 13, 39, YES, ON); 
0649C:  CLRF   xE6
0649E:  MOVLW  1D
064A0:  MOVWF  xE7
064A2:  MOVLW  0D
064A4:  MOVWF  xE8
064A6:  MOVLW  27
064A8:  MOVWF  xE9
064AA:  MOVLW  01
064AC:  MOVWF  xEA
064AE:  MOVWF  xEB
064B0:  MOVLB  0
064B2:  CALL   49BC
....................             glcd_rect(15, 26, 28, 39, YES, ON); 
064B6:  MOVLW  0F
064B8:  MOVLB  5
064BA:  MOVWF  xE6
064BC:  MOVLW  1A
064BE:  MOVWF  xE7
064C0:  MOVLW  1C
064C2:  MOVWF  xE8
064C4:  MOVLW  27
064C6:  MOVWF  xE9
064C8:  MOVLW  01
064CA:  MOVWF  xEA
064CC:  MOVWF  xEB
064CE:  MOVLB  0
064D0:  CALL   49BC
....................             glcd_rect(30, 23, 43, 39, NO, ON); 
064D4:  MOVLW  1E
064D6:  MOVLB  5
064D8:  MOVWF  xE6
064DA:  MOVLW  17
064DC:  MOVWF  xE7
064DE:  MOVLW  2B
064E0:  MOVWF  xE8
064E2:  MOVLW  27
064E4:  MOVWF  xE9
064E6:  CLRF   xEA
064E8:  MOVLW  01
064EA:  MOVWF  xEB
064EC:  MOVLB  0
064EE:  CALL   49BC
....................             glcd_rect(45, 20, 58, 39, NO, ON); 
064F2:  MOVLW  2D
064F4:  MOVLB  5
064F6:  MOVWF  xE6
064F8:  MOVLW  14
064FA:  MOVWF  xE7
064FC:  MOVLW  3A
064FE:  MOVWF  xE8
06500:  MOVLW  27
06502:  MOVWF  xE9
06504:  CLRF   xEA
06506:  MOVLW  01
06508:  MOVWF  xEB
0650A:  MOVLB  0
0650C:  CALL   49BC
....................             glcd_rect(60, 17, 73, 39, NO, ON); 
06510:  MOVLW  3C
06512:  MOVLB  5
06514:  MOVWF  xE6
06516:  MOVLW  11
06518:  MOVWF  xE7
0651A:  MOVLW  49
0651C:  MOVWF  xE8
0651E:  MOVLW  27
06520:  MOVWF  xE9
06522:  CLRF   xEA
06524:  MOVLW  01
06526:  MOVWF  xEB
06528:  MOVLB  0
0652A:  CALL   49BC
....................             glcd_rect(75, 14, 88, 39, NO, ON); 
0652E:  MOVLW  4B
06530:  MOVLB  5
06532:  MOVWF  xE6
06534:  MOVLW  0E
06536:  MOVWF  xE7
06538:  MOVLW  58
0653A:  MOVWF  xE8
0653C:  MOVLW  27
0653E:  MOVWF  xE9
06540:  CLRF   xEA
06542:  MOVLW  01
06544:  MOVWF  xEB
06546:  MOVLB  0
06548:  CALL   49BC
....................          }else if(VelMotor==3){ 
0654C:  BRA    6834
0654E:  MOVLB  5
06550:  MOVF   xC4,W
06552:  SUBLW  03
06554:  BNZ   660A
....................             glcd_rect(0, 29, 13, 39, YES, ON); 
06556:  CLRF   xE6
06558:  MOVLW  1D
0655A:  MOVWF  xE7
0655C:  MOVLW  0D
0655E:  MOVWF  xE8
06560:  MOVLW  27
06562:  MOVWF  xE9
06564:  MOVLW  01
06566:  MOVWF  xEA
06568:  MOVWF  xEB
0656A:  MOVLB  0
0656C:  CALL   49BC
....................             glcd_rect(15, 26, 28, 39, YES, ON); 
06570:  MOVLW  0F
06572:  MOVLB  5
06574:  MOVWF  xE6
06576:  MOVLW  1A
06578:  MOVWF  xE7
0657A:  MOVLW  1C
0657C:  MOVWF  xE8
0657E:  MOVLW  27
06580:  MOVWF  xE9
06582:  MOVLW  01
06584:  MOVWF  xEA
06586:  MOVWF  xEB
06588:  MOVLB  0
0658A:  CALL   49BC
....................             glcd_rect(30, 23, 43, 39, YES, ON); 
0658E:  MOVLW  1E
06590:  MOVLB  5
06592:  MOVWF  xE6
06594:  MOVLW  17
06596:  MOVWF  xE7
06598:  MOVLW  2B
0659A:  MOVWF  xE8
0659C:  MOVLW  27
0659E:  MOVWF  xE9
065A0:  MOVLW  01
065A2:  MOVWF  xEA
065A4:  MOVWF  xEB
065A6:  MOVLB  0
065A8:  CALL   49BC
....................             glcd_rect(45, 20, 58, 39, NO, ON); 
065AC:  MOVLW  2D
065AE:  MOVLB  5
065B0:  MOVWF  xE6
065B2:  MOVLW  14
065B4:  MOVWF  xE7
065B6:  MOVLW  3A
065B8:  MOVWF  xE8
065BA:  MOVLW  27
065BC:  MOVWF  xE9
065BE:  CLRF   xEA
065C0:  MOVLW  01
065C2:  MOVWF  xEB
065C4:  MOVLB  0
065C6:  CALL   49BC
....................             glcd_rect(60, 17, 73, 39, NO, ON); 
065CA:  MOVLW  3C
065CC:  MOVLB  5
065CE:  MOVWF  xE6
065D0:  MOVLW  11
065D2:  MOVWF  xE7
065D4:  MOVLW  49
065D6:  MOVWF  xE8
065D8:  MOVLW  27
065DA:  MOVWF  xE9
065DC:  CLRF   xEA
065DE:  MOVLW  01
065E0:  MOVWF  xEB
065E2:  MOVLB  0
065E4:  CALL   49BC
....................             glcd_rect(75, 14, 88, 39, NO, ON); 
065E8:  MOVLW  4B
065EA:  MOVLB  5
065EC:  MOVWF  xE6
065EE:  MOVLW  0E
065F0:  MOVWF  xE7
065F2:  MOVLW  58
065F4:  MOVWF  xE8
065F6:  MOVLW  27
065F8:  MOVWF  xE9
065FA:  CLRF   xEA
065FC:  MOVLW  01
065FE:  MOVWF  xEB
06600:  MOVLB  0
06602:  CALL   49BC
....................          }else if(VelMotor==4){ 
06606:  BRA    6834
06608:  MOVLB  5
0660A:  MOVF   xC4,W
0660C:  SUBLW  04
0660E:  BNZ   66C4
....................             glcd_rect(0, 29, 13, 39, YES, ON); 
06610:  CLRF   xE6
06612:  MOVLW  1D
06614:  MOVWF  xE7
06616:  MOVLW  0D
06618:  MOVWF  xE8
0661A:  MOVLW  27
0661C:  MOVWF  xE9
0661E:  MOVLW  01
06620:  MOVWF  xEA
06622:  MOVWF  xEB
06624:  MOVLB  0
06626:  CALL   49BC
....................             glcd_rect(15, 26, 28, 39, YES, ON); 
0662A:  MOVLW  0F
0662C:  MOVLB  5
0662E:  MOVWF  xE6
06630:  MOVLW  1A
06632:  MOVWF  xE7
06634:  MOVLW  1C
06636:  MOVWF  xE8
06638:  MOVLW  27
0663A:  MOVWF  xE9
0663C:  MOVLW  01
0663E:  MOVWF  xEA
06640:  MOVWF  xEB
06642:  MOVLB  0
06644:  CALL   49BC
....................             glcd_rect(30, 23, 43, 39, YES, ON); 
06648:  MOVLW  1E
0664A:  MOVLB  5
0664C:  MOVWF  xE6
0664E:  MOVLW  17
06650:  MOVWF  xE7
06652:  MOVLW  2B
06654:  MOVWF  xE8
06656:  MOVLW  27
06658:  MOVWF  xE9
0665A:  MOVLW  01
0665C:  MOVWF  xEA
0665E:  MOVWF  xEB
06660:  MOVLB  0
06662:  CALL   49BC
....................             glcd_rect(45, 20, 58, 39, YES, ON); 
06666:  MOVLW  2D
06668:  MOVLB  5
0666A:  MOVWF  xE6
0666C:  MOVLW  14
0666E:  MOVWF  xE7
06670:  MOVLW  3A
06672:  MOVWF  xE8
06674:  MOVLW  27
06676:  MOVWF  xE9
06678:  MOVLW  01
0667A:  MOVWF  xEA
0667C:  MOVWF  xEB
0667E:  MOVLB  0
06680:  CALL   49BC
....................             glcd_rect(60, 17, 73, 39, NO, ON); 
06684:  MOVLW  3C
06686:  MOVLB  5
06688:  MOVWF  xE6
0668A:  MOVLW  11
0668C:  MOVWF  xE7
0668E:  MOVLW  49
06690:  MOVWF  xE8
06692:  MOVLW  27
06694:  MOVWF  xE9
06696:  CLRF   xEA
06698:  MOVLW  01
0669A:  MOVWF  xEB
0669C:  MOVLB  0
0669E:  CALL   49BC
....................             glcd_rect(75, 14, 88, 39, NO, ON); 
066A2:  MOVLW  4B
066A4:  MOVLB  5
066A6:  MOVWF  xE6
066A8:  MOVLW  0E
066AA:  MOVWF  xE7
066AC:  MOVLW  58
066AE:  MOVWF  xE8
066B0:  MOVLW  27
066B2:  MOVWF  xE9
066B4:  CLRF   xEA
066B6:  MOVLW  01
066B8:  MOVWF  xEB
066BA:  MOVLB  0
066BC:  CALL   49BC
....................          }else if(VelMotor==5){ 
066C0:  BRA    6834
066C2:  MOVLB  5
066C4:  MOVF   xC4,W
066C6:  SUBLW  05
066C8:  BNZ   677E
....................             glcd_rect(0, 29, 13, 39, YES, ON); 
066CA:  CLRF   xE6
066CC:  MOVLW  1D
066CE:  MOVWF  xE7
066D0:  MOVLW  0D
066D2:  MOVWF  xE8
066D4:  MOVLW  27
066D6:  MOVWF  xE9
066D8:  MOVLW  01
066DA:  MOVWF  xEA
066DC:  MOVWF  xEB
066DE:  MOVLB  0
066E0:  CALL   49BC
....................             glcd_rect(15, 26, 28, 39, YES, ON); 
066E4:  MOVLW  0F
066E6:  MOVLB  5
066E8:  MOVWF  xE6
066EA:  MOVLW  1A
066EC:  MOVWF  xE7
066EE:  MOVLW  1C
066F0:  MOVWF  xE8
066F2:  MOVLW  27
066F4:  MOVWF  xE9
066F6:  MOVLW  01
066F8:  MOVWF  xEA
066FA:  MOVWF  xEB
066FC:  MOVLB  0
066FE:  CALL   49BC
....................             glcd_rect(30, 23, 43, 39, YES, ON); 
06702:  MOVLW  1E
06704:  MOVLB  5
06706:  MOVWF  xE6
06708:  MOVLW  17
0670A:  MOVWF  xE7
0670C:  MOVLW  2B
0670E:  MOVWF  xE8
06710:  MOVLW  27
06712:  MOVWF  xE9
06714:  MOVLW  01
06716:  MOVWF  xEA
06718:  MOVWF  xEB
0671A:  MOVLB  0
0671C:  CALL   49BC
....................             glcd_rect(45, 20, 58, 39, YES, ON); 
06720:  MOVLW  2D
06722:  MOVLB  5
06724:  MOVWF  xE6
06726:  MOVLW  14
06728:  MOVWF  xE7
0672A:  MOVLW  3A
0672C:  MOVWF  xE8
0672E:  MOVLW  27
06730:  MOVWF  xE9
06732:  MOVLW  01
06734:  MOVWF  xEA
06736:  MOVWF  xEB
06738:  MOVLB  0
0673A:  CALL   49BC
....................             glcd_rect(60, 17, 73, 39, YES, ON); 
0673E:  MOVLW  3C
06740:  MOVLB  5
06742:  MOVWF  xE6
06744:  MOVLW  11
06746:  MOVWF  xE7
06748:  MOVLW  49
0674A:  MOVWF  xE8
0674C:  MOVLW  27
0674E:  MOVWF  xE9
06750:  MOVLW  01
06752:  MOVWF  xEA
06754:  MOVWF  xEB
06756:  MOVLB  0
06758:  CALL   49BC
....................             glcd_rect(75, 14, 88, 39, NO, ON); 
0675C:  MOVLW  4B
0675E:  MOVLB  5
06760:  MOVWF  xE6
06762:  MOVLW  0E
06764:  MOVWF  xE7
06766:  MOVLW  58
06768:  MOVWF  xE8
0676A:  MOVLW  27
0676C:  MOVWF  xE9
0676E:  CLRF   xEA
06770:  MOVLW  01
06772:  MOVWF  xEB
06774:  MOVLB  0
06776:  CALL   49BC
....................          }else if(VelMotor==6){ 
0677A:  BRA    6834
0677C:  MOVLB  5
0677E:  MOVF   xC4,W
06780:  SUBLW  06
06782:  BNZ   6834
....................             glcd_rect(0, 29, 13, 39, YES, ON); 
06784:  CLRF   xE6
06786:  MOVLW  1D
06788:  MOVWF  xE7
0678A:  MOVLW  0D
0678C:  MOVWF  xE8
0678E:  MOVLW  27
06790:  MOVWF  xE9
06792:  MOVLW  01
06794:  MOVWF  xEA
06796:  MOVWF  xEB
06798:  MOVLB  0
0679A:  CALL   49BC
....................             glcd_rect(15, 26, 28, 39, YES, ON); 
0679E:  MOVLW  0F
067A0:  MOVLB  5
067A2:  MOVWF  xE6
067A4:  MOVLW  1A
067A6:  MOVWF  xE7
067A8:  MOVLW  1C
067AA:  MOVWF  xE8
067AC:  MOVLW  27
067AE:  MOVWF  xE9
067B0:  MOVLW  01
067B2:  MOVWF  xEA
067B4:  MOVWF  xEB
067B6:  MOVLB  0
067B8:  CALL   49BC
....................             glcd_rect(30, 23, 43, 39, YES, ON); 
067BC:  MOVLW  1E
067BE:  MOVLB  5
067C0:  MOVWF  xE6
067C2:  MOVLW  17
067C4:  MOVWF  xE7
067C6:  MOVLW  2B
067C8:  MOVWF  xE8
067CA:  MOVLW  27
067CC:  MOVWF  xE9
067CE:  MOVLW  01
067D0:  MOVWF  xEA
067D2:  MOVWF  xEB
067D4:  MOVLB  0
067D6:  CALL   49BC
....................             glcd_rect(45, 20, 58, 39, YES, ON); 
067DA:  MOVLW  2D
067DC:  MOVLB  5
067DE:  MOVWF  xE6
067E0:  MOVLW  14
067E2:  MOVWF  xE7
067E4:  MOVLW  3A
067E6:  MOVWF  xE8
067E8:  MOVLW  27
067EA:  MOVWF  xE9
067EC:  MOVLW  01
067EE:  MOVWF  xEA
067F0:  MOVWF  xEB
067F2:  MOVLB  0
067F4:  CALL   49BC
....................             glcd_rect(60, 17, 73, 39, YES, ON); 
067F8:  MOVLW  3C
067FA:  MOVLB  5
067FC:  MOVWF  xE6
067FE:  MOVLW  11
06800:  MOVWF  xE7
06802:  MOVLW  49
06804:  MOVWF  xE8
06806:  MOVLW  27
06808:  MOVWF  xE9
0680A:  MOVLW  01
0680C:  MOVWF  xEA
0680E:  MOVWF  xEB
06810:  MOVLB  0
06812:  CALL   49BC
....................             glcd_rect(75, 14, 88, 39, YES, ON); 
06816:  MOVLW  4B
06818:  MOVLB  5
0681A:  MOVWF  xE6
0681C:  MOVLW  0E
0681E:  MOVWF  xE7
06820:  MOVLW  58
06822:  MOVWF  xE8
06824:  MOVLW  27
06826:  MOVWF  xE9
06828:  MOVLW  01
0682A:  MOVWF  xEA
0682C:  MOVWF  xEB
0682E:  MOVLB  0
06830:  CALL   49BC
....................          } 
....................           
....................          if(imprimir==1){ 
06834:  MOVLB  4
06836:  BTFSS  x2D.5
06838:  BRA    69D8
....................             glcd_text57(2, 12, Inflowt, 1, ON); 
0683A:  MOVLW  02
0683C:  MOVLB  5
0683E:  MOVWF  xE6
06840:  MOVLW  0C
06842:  MOVWF  xE7
06844:  MOVLW  04
06846:  MOVWF  xE9
06848:  MOVLW  6B
0684A:  MOVWF  xE8
0684C:  MOVLW  01
0684E:  MOVWF  xEA
06850:  MOVWF  xEB
06852:  MOVLB  0
06854:  CALL   16BE
....................             displayTiempo(VelMotor,25,11,0,1);   
06858:  MOVFF  5C4,5CD
0685C:  MOVLW  19
0685E:  MOVLB  5
06860:  MOVWF  xCE
06862:  MOVLW  0B
06864:  MOVWF  xCF
06866:  CLRF   xD0
06868:  MOVLW  01
0686A:  MOVWF  xD1
0686C:  MOVLB  0
0686E:  CALL   530E
....................             glcd_rect(0, 10, 95, 63, NO, ON); 
06872:  MOVLB  5
06874:  CLRF   xE6
06876:  MOVLW  0A
06878:  MOVWF  xE7
0687A:  MOVLW  5F
0687C:  MOVWF  xE8
0687E:  MOVLW  3F
06880:  MOVWF  xE9
06882:  CLRF   xEA
06884:  MOVLW  01
06886:  MOVWF  xEB
06888:  MOVLB  0
0688A:  CALL   49BC
....................             glcd_rect(100, 10, 127, 63, NO, ON); 
0688E:  MOVLW  64
06890:  MOVLB  5
06892:  MOVWF  xE6
06894:  MOVLW  0A
06896:  MOVWF  xE7
06898:  MOVLW  7F
0689A:  MOVWF  xE8
0689C:  MOVLW  3F
0689E:  MOVWF  xE9
068A0:  CLRF   xEA
068A2:  MOVLW  01
068A4:  MOVWF  xEB
068A6:  MOVLB  0
068A8:  CALL   49BC
....................             glcd_text57(2, 51, Downflowt, 1, ON); 
068AC:  MOVLW  02
068AE:  MOVLB  5
068B0:  MOVWF  xE6
068B2:  MOVLW  33
068B4:  MOVWF  xE7
068B6:  MOVLW  04
068B8:  MOVWF  xE9
068BA:  MOVLW  70
068BC:  MOVWF  xE8
068BE:  MOVLW  01
068C0:  MOVWF  xEA
068C2:  MOVWF  xEB
068C4:  MOVLB  0
068C6:  CALL   16BE
....................             glcd_text57(2, 41, Vida_Filtro, 1, ON); 
068CA:  MOVLW  02
068CC:  MOVLB  5
068CE:  MOVWF  xE6
068D0:  MOVLW  29
068D2:  MOVWF  xE7
068D4:  MOVLW  04
068D6:  MOVWF  xE9
068D8:  MOVLW  9A
068DA:  MOVWF  xE8
068DC:  MOVLW  01
068DE:  MOVWF  xEA
068E0:  MOVWF  xEB
068E2:  MOVLB  0
068E4:  CALL   16BE
....................             displayTiempo(Ttrabajo[3],60,41,0,1);displayTiempo(Ttrabajo[2],67,41,0,1);displayTiempo(Ttrabajo[1],74,41,0,1);displayTiempo(Ttrabajo[0],82,41,0,1); 
068E8:  MOVFF  4F8,5CD
068EC:  MOVLW  3C
068EE:  MOVLB  5
068F0:  MOVWF  xCE
068F2:  MOVLW  29
068F4:  MOVWF  xCF
068F6:  CLRF   xD0
068F8:  MOVLW  01
068FA:  MOVWF  xD1
068FC:  MOVLB  0
068FE:  CALL   530E
06902:  MOVFF  4F7,5CD
06906:  MOVLW  43
06908:  MOVLB  5
0690A:  MOVWF  xCE
0690C:  MOVLW  29
0690E:  MOVWF  xCF
06910:  CLRF   xD0
06912:  MOVLW  01
06914:  MOVWF  xD1
06916:  MOVLB  0
06918:  CALL   530E
0691C:  MOVFF  4F6,5CD
06920:  MOVLW  4A
06922:  MOVLB  5
06924:  MOVWF  xCE
06926:  MOVLW  29
06928:  MOVWF  xCF
0692A:  CLRF   xD0
0692C:  MOVLW  01
0692E:  MOVWF  xD1
06930:  MOVLB  0
06932:  CALL   530E
06936:  MOVFF  4F5,5CD
0693A:  MOVLW  52
0693C:  MOVLB  5
0693E:  MOVWF  xCE
06940:  MOVLW  29
06942:  MOVWF  xCF
06944:  CLRF   xD0
06946:  MOVLW  01
06948:  MOVWF  xD1
0694A:  MOVLB  0
0694C:  CALL   530E
....................             strcpy(Menus.Letra,"JPCEGH90PPTOPA"); 
06950:  MOVLW  04
06952:  MOVWF  FEA
06954:  MOVLW  17
06956:  MOVWF  FE9
06958:  MOVFF  FF2,5CD
0695C:  BCF    FF2.7
0695E:  MOVLW  00
06960:  CALL   0F80
06964:  TBLRD*-
06966:  TBLRD*+
06968:  MOVF   FF5,W
0696A:  MOVWF  FEE
0696C:  IORLW  00
0696E:  BNZ   6966
06970:  MOVLB  5
06972:  BTFSC  xCD.7
06974:  BSF    FF2.7
....................             displayMenu(Menus.Letra,20,0,1,1); 
06976:  MOVLW  04
06978:  MOVWF  xD6
0697A:  MOVLW  17
0697C:  MOVWF  xD5
0697E:  MOVLW  14
06980:  MOVWF  xD7
06982:  CLRF   xD8
06984:  MOVLW  01
06986:  MOVWF  xD9
06988:  MOVWF  xDA
0698A:  MOVLB  0
0698C:  CALL   4B3C
....................             displayfloat(Temperatura,69,50,0,1); 
06990:  MOVLB  6
06992:  CLRF   x03
06994:  MOVFF  5C0,602
06998:  MOVLB  0
0699A:  CALL   1878
0699E:  MOVFF  00,5CD
069A2:  MOVFF  01,5CE
069A6:  MOVFF  02,5CF
069AA:  MOVFF  03,5D0
069AE:  MOVFF  03,5D4
069B2:  MOVFF  02,5D3
069B6:  MOVFF  01,5D2
069BA:  MOVFF  00,5D1
069BE:  MOVLW  45
069C0:  MOVLB  5
069C2:  MOVWF  xD5
069C4:  MOVLW  32
069C6:  MOVWF  xD6
069C8:  CLRF   xD7
069CA:  MOVLW  01
069CC:  MOVWF  xD8
069CE:  MOVLB  0
069D0:  CALL   5890
....................             imprimir=0; 
069D4:  MOVLB  4
069D6:  BCF    x2D.5
....................          } 
....................                    
....................          if(flag_blower==1){ 
069D8:  BTFSS  x2D.6
069DA:  BRA    6B80
....................             glcd_imagen(5);tiempo_trabajo=1; 
069DC:  MOVLW  05
069DE:  MOVLB  5
069E0:  MOVWF  xCD
069E2:  MOVLB  0
069E4:  CALL   540A
069E8:  MOVLB  4
069EA:  BSF    x2E.4
....................             if(guardatrabajo==1){ 
069EC:  BTFSS  x2E.6
069EE:  BRA    6B72
....................                VelocidadMotor(6); 
069F0:  MOVLW  06
069F2:  MOVLB  5
069F4:  MOVWF  xCD
069F6:  MOVLB  0
069F8:  CALL   1390
....................                guardatrabajo=0; 
069FC:  MOVLB  4
069FE:  BCF    x2E.6
....................                write_eeprom(33,make8(minutos_trabajo,0)); 
06A00:  MOVFF  4DD,5CD
06A04:  CLRF   FAA
06A06:  MOVLW  21
06A08:  MOVWF  FA9
06A0A:  MOVFF  5CD,FA8
06A0E:  BCF    FA6.6
06A10:  BCF    FA6.7
06A12:  BSF    FA6.2
06A14:  MOVF   FF2,W
06A16:  MOVWF  00
06A18:  BCF    FF2.7
06A1A:  MOVLB  F
06A1C:  MOVLW  55
06A1E:  MOVWF  FA7
06A20:  MOVLW  AA
06A22:  MOVWF  FA7
06A24:  BSF    FA6.1
06A26:  BTFSC  FA6.1
06A28:  BRA    6A26
06A2A:  BCF    FA6.2
06A2C:  MOVF   00,W
06A2E:  IORWF  FF2,F
....................                delay_ms(20); 
06A30:  MOVLW  14
06A32:  MOVLB  5
06A34:  MOVWF  xE1
06A36:  MOVLB  0
06A38:  CALL   1368
....................                write_eeprom(34,make8(minutos_trabajo,1)); 
06A3C:  MOVFF  4DE,5CD
06A40:  CLRF   FAA
06A42:  MOVLW  22
06A44:  MOVWF  FA9
06A46:  MOVFF  5CD,FA8
06A4A:  BCF    FA6.6
06A4C:  BCF    FA6.7
06A4E:  BSF    FA6.2
06A50:  MOVF   FF2,W
06A52:  MOVWF  00
06A54:  BCF    FF2.7
06A56:  MOVLB  F
06A58:  MOVLW  55
06A5A:  MOVWF  FA7
06A5C:  MOVLW  AA
06A5E:  MOVWF  FA7
06A60:  BSF    FA6.1
06A62:  BTFSC  FA6.1
06A64:  BRA    6A62
06A66:  BCF    FA6.2
06A68:  MOVF   00,W
06A6A:  IORWF  FF2,F
....................                delay_ms(20); 
06A6C:  MOVLW  14
06A6E:  MOVLB  5
06A70:  MOVWF  xE1
06A72:  MOVLB  0
06A74:  CALL   1368
....................                write_eeprom(16,Ttrabajo[0]); 
06A78:  CLRF   FAA
06A7A:  MOVLW  10
06A7C:  MOVWF  FA9
06A7E:  MOVFF  4F5,FA8
06A82:  BCF    FA6.6
06A84:  BCF    FA6.7
06A86:  BSF    FA6.2
06A88:  MOVF   FF2,W
06A8A:  MOVWF  00
06A8C:  BCF    FF2.7
06A8E:  MOVLB  F
06A90:  MOVLW  55
06A92:  MOVWF  FA7
06A94:  MOVLW  AA
06A96:  MOVWF  FA7
06A98:  BSF    FA6.1
06A9A:  BTFSC  FA6.1
06A9C:  BRA    6A9A
06A9E:  BCF    FA6.2
06AA0:  MOVF   00,W
06AA2:  IORWF  FF2,F
....................                delay_ms(20); 
06AA4:  MOVLW  14
06AA6:  MOVLB  5
06AA8:  MOVWF  xE1
06AAA:  MOVLB  0
06AAC:  CALL   1368
....................                write_eeprom(17,Ttrabajo[1]); 
06AB0:  CLRF   FAA
06AB2:  MOVLW  11
06AB4:  MOVWF  FA9
06AB6:  MOVFF  4F6,FA8
06ABA:  BCF    FA6.6
06ABC:  BCF    FA6.7
06ABE:  BSF    FA6.2
06AC0:  MOVF   FF2,W
06AC2:  MOVWF  00
06AC4:  BCF    FF2.7
06AC6:  MOVLB  F
06AC8:  MOVLW  55
06ACA:  MOVWF  FA7
06ACC:  MOVLW  AA
06ACE:  MOVWF  FA7
06AD0:  BSF    FA6.1
06AD2:  BTFSC  FA6.1
06AD4:  BRA    6AD2
06AD6:  BCF    FA6.2
06AD8:  MOVF   00,W
06ADA:  IORWF  FF2,F
....................                delay_ms(20); 
06ADC:  MOVLW  14
06ADE:  MOVLB  5
06AE0:  MOVWF  xE1
06AE2:  MOVLB  0
06AE4:  CALL   1368
....................                write_eeprom(18,Ttrabajo[2]); 
06AE8:  CLRF   FAA
06AEA:  MOVLW  12
06AEC:  MOVWF  FA9
06AEE:  MOVFF  4F7,FA8
06AF2:  BCF    FA6.6
06AF4:  BCF    FA6.7
06AF6:  BSF    FA6.2
06AF8:  MOVF   FF2,W
06AFA:  MOVWF  00
06AFC:  BCF    FF2.7
06AFE:  MOVLB  F
06B00:  MOVLW  55
06B02:  MOVWF  FA7
06B04:  MOVLW  AA
06B06:  MOVWF  FA7
06B08:  BSF    FA6.1
06B0A:  BTFSC  FA6.1
06B0C:  BRA    6B0A
06B0E:  BCF    FA6.2
06B10:  MOVF   00,W
06B12:  IORWF  FF2,F
....................                delay_ms(20); 
06B14:  MOVLW  14
06B16:  MOVLB  5
06B18:  MOVWF  xE1
06B1A:  MOVLB  0
06B1C:  CALL   1368
....................                write_eeprom(19,Ttrabajo[3]); 
06B20:  CLRF   FAA
06B22:  MOVLW  13
06B24:  MOVWF  FA9
06B26:  MOVFF  4F8,FA8
06B2A:  BCF    FA6.6
06B2C:  BCF    FA6.7
06B2E:  BSF    FA6.2
06B30:  MOVF   FF2,W
06B32:  MOVWF  00
06B34:  BCF    FF2.7
06B36:  MOVLB  F
06B38:  MOVLW  55
06B3A:  MOVWF  FA7
06B3C:  MOVLW  AA
06B3E:  MOVWF  FA7
06B40:  BSF    FA6.1
06B42:  BTFSC  FA6.1
06B44:  BRA    6B42
06B46:  BCF    FA6.2
06B48:  MOVF   00,W
06B4A:  IORWF  FF2,F
....................                delay_ms(20); 
06B4C:  MOVLW  14
06B4E:  MOVLB  5
06B50:  MOVWF  xE1
06B52:  MOVLB  0
06B54:  CALL   1368
....................                glcd_init(ON);             //Inicializa la glcd 
06B58:  MOVLW  01
06B5A:  MOVLB  5
06B5C:  MOVWF  xCD
06B5E:  MOVLB  0
06B60:  CALL   155A
....................                glcd_fillScreen(OFF);      //Limpia la pantalla 
06B64:  MOVLB  5
06B66:  CLRF   xD5
06B68:  MOVLB  0
06B6A:  CALL   1448
....................                glcd_update();   
06B6E:  CALL   14A2
....................             } 
....................             VelocidadMotor(VelMotor); 
06B72:  MOVFF  5C4,5CD
06B76:  MOVLB  0
06B78:  CALL   1390
....................          }else{ 
06B7C:  BRA    6D18
06B7E:  MOVLB  4
....................             Filtro_Downflow=0; 
06B80:  MOVLB  5
06B82:  CLRF   x0C
06B84:  CLRF   x0B
06B86:  CLRF   x0A
06B88:  CLRF   x09
....................             glcd_rect(102, 45, 126, 62, YES, OFF);tiempo_trabajo=0;VelocidadMotor(0); 
06B8A:  MOVLW  66
06B8C:  MOVWF  xE6
06B8E:  MOVLW  2D
06B90:  MOVWF  xE7
06B92:  MOVLW  7E
06B94:  MOVWF  xE8
06B96:  MOVLW  3E
06B98:  MOVWF  xE9
06B9A:  MOVLW  01
06B9C:  MOVWF  xEA
06B9E:  CLRF   xEB
06BA0:  MOVLB  0
06BA2:  CALL   49BC
06BA6:  MOVLB  4
06BA8:  BCF    x2E.4
06BAA:  MOVLB  5
06BAC:  CLRF   xCD
06BAE:  MOVLB  0
06BB0:  CALL   1390
....................             if(guardatrabajo==0){ 
06BB4:  MOVLB  4
06BB6:  BTFSC  x2E.6
06BB8:  BRA    6D1A
....................                guardatrabajo=1; 
06BBA:  BSF    x2E.6
....................                write_eeprom(33,make8(minutos_trabajo,0)); 
06BBC:  MOVFF  4DD,5CD
06BC0:  CLRF   FAA
06BC2:  MOVLW  21
06BC4:  MOVWF  FA9
06BC6:  MOVFF  5CD,FA8
06BCA:  BCF    FA6.6
06BCC:  BCF    FA6.7
06BCE:  BSF    FA6.2
06BD0:  MOVF   FF2,W
06BD2:  MOVWF  00
06BD4:  BCF    FF2.7
06BD6:  MOVLB  F
06BD8:  MOVLW  55
06BDA:  MOVWF  FA7
06BDC:  MOVLW  AA
06BDE:  MOVWF  FA7
06BE0:  BSF    FA6.1
06BE2:  BTFSC  FA6.1
06BE4:  BRA    6BE2
06BE6:  BCF    FA6.2
06BE8:  MOVF   00,W
06BEA:  IORWF  FF2,F
....................                delay_ms(20); 
06BEC:  MOVLW  14
06BEE:  MOVLB  5
06BF0:  MOVWF  xE1
06BF2:  MOVLB  0
06BF4:  CALL   1368
....................                write_eeprom(34,make8(minutos_trabajo,1)); 
06BF8:  MOVFF  4DE,5CD
06BFC:  CLRF   FAA
06BFE:  MOVLW  22
06C00:  MOVWF  FA9
06C02:  MOVFF  5CD,FA8
06C06:  BCF    FA6.6
06C08:  BCF    FA6.7
06C0A:  BSF    FA6.2
06C0C:  MOVF   FF2,W
06C0E:  MOVWF  00
06C10:  BCF    FF2.7
06C12:  MOVLB  F
06C14:  MOVLW  55
06C16:  MOVWF  FA7
06C18:  MOVLW  AA
06C1A:  MOVWF  FA7
06C1C:  BSF    FA6.1
06C1E:  BTFSC  FA6.1
06C20:  BRA    6C1E
06C22:  BCF    FA6.2
06C24:  MOVF   00,W
06C26:  IORWF  FF2,F
....................                delay_ms(20); 
06C28:  MOVLW  14
06C2A:  MOVLB  5
06C2C:  MOVWF  xE1
06C2E:  MOVLB  0
06C30:  CALL   1368
....................                write_eeprom(16,Ttrabajo[0]); 
06C34:  CLRF   FAA
06C36:  MOVLW  10
06C38:  MOVWF  FA9
06C3A:  MOVFF  4F5,FA8
06C3E:  BCF    FA6.6
06C40:  BCF    FA6.7
06C42:  BSF    FA6.2
06C44:  MOVF   FF2,W
06C46:  MOVWF  00
06C48:  BCF    FF2.7
06C4A:  MOVLB  F
06C4C:  MOVLW  55
06C4E:  MOVWF  FA7
06C50:  MOVLW  AA
06C52:  MOVWF  FA7
06C54:  BSF    FA6.1
06C56:  BTFSC  FA6.1
06C58:  BRA    6C56
06C5A:  BCF    FA6.2
06C5C:  MOVF   00,W
06C5E:  IORWF  FF2,F
....................                delay_ms(20); 
06C60:  MOVLW  14
06C62:  MOVLB  5
06C64:  MOVWF  xE1
06C66:  MOVLB  0
06C68:  CALL   1368
....................                write_eeprom(17,Ttrabajo[1]); 
06C6C:  CLRF   FAA
06C6E:  MOVLW  11
06C70:  MOVWF  FA9
06C72:  MOVFF  4F6,FA8
06C76:  BCF    FA6.6
06C78:  BCF    FA6.7
06C7A:  BSF    FA6.2
06C7C:  MOVF   FF2,W
06C7E:  MOVWF  00
06C80:  BCF    FF2.7
06C82:  MOVLB  F
06C84:  MOVLW  55
06C86:  MOVWF  FA7
06C88:  MOVLW  AA
06C8A:  MOVWF  FA7
06C8C:  BSF    FA6.1
06C8E:  BTFSC  FA6.1
06C90:  BRA    6C8E
06C92:  BCF    FA6.2
06C94:  MOVF   00,W
06C96:  IORWF  FF2,F
....................                delay_ms(20); 
06C98:  MOVLW  14
06C9A:  MOVLB  5
06C9C:  MOVWF  xE1
06C9E:  MOVLB  0
06CA0:  CALL   1368
....................                write_eeprom(18,Ttrabajo[2]); 
06CA4:  CLRF   FAA
06CA6:  MOVLW  12
06CA8:  MOVWF  FA9
06CAA:  MOVFF  4F7,FA8
06CAE:  BCF    FA6.6
06CB0:  BCF    FA6.7
06CB2:  BSF    FA6.2
06CB4:  MOVF   FF2,W
06CB6:  MOVWF  00
06CB8:  BCF    FF2.7
06CBA:  MOVLB  F
06CBC:  MOVLW  55
06CBE:  MOVWF  FA7
06CC0:  MOVLW  AA
06CC2:  MOVWF  FA7
06CC4:  BSF    FA6.1
06CC6:  BTFSC  FA6.1
06CC8:  BRA    6CC6
06CCA:  BCF    FA6.2
06CCC:  MOVF   00,W
06CCE:  IORWF  FF2,F
....................                delay_ms(20); 
06CD0:  MOVLW  14
06CD2:  MOVLB  5
06CD4:  MOVWF  xE1
06CD6:  MOVLB  0
06CD8:  CALL   1368
....................                write_eeprom(19,Ttrabajo[3]); 
06CDC:  CLRF   FAA
06CDE:  MOVLW  13
06CE0:  MOVWF  FA9
06CE2:  MOVFF  4F8,FA8
06CE6:  BCF    FA6.6
06CE8:  BCF    FA6.7
06CEA:  BSF    FA6.2
06CEC:  MOVF   FF2,W
06CEE:  MOVWF  00
06CF0:  BCF    FF2.7
06CF2:  MOVLB  F
06CF4:  MOVLW  55
06CF6:  MOVWF  FA7
06CF8:  MOVLW  AA
06CFA:  MOVWF  FA7
06CFC:  BSF    FA6.1
06CFE:  BTFSC  FA6.1
06D00:  BRA    6CFE
06D02:  BCF    FA6.2
06D04:  MOVF   00,W
06D06:  IORWF  FF2,F
....................                delay_ms(20); 
06D08:  MOVLW  14
06D0A:  MOVLB  5
06D0C:  MOVWF  xE1
06D0E:  MOVLB  0
06D10:  CALL   1368
....................                //glcd_init(ON);             //Inicializa la glcd 
....................                //glcd_fillScreen(OFF);      //Limpia la pantalla 
....................                glcd_update();   
06D14:  CALL   14A2
06D18:  MOVLB  4
....................             } 
....................          } 
....................           
....................          if(flag_luz==1){ 
06D1A:  BTFSS  x2E.0
06D1C:  BRA    6D32
....................             glcd_imagen(3);LuzBlanca_on; 
06D1E:  MOVLW  03
06D20:  MOVLB  5
06D22:  MOVWF  xCD
06D24:  MOVLB  0
06D26:  CALL   540A
06D2A:  BSF    F8B.0
06D2C:  BCF    F94.0
....................          }else{ 
06D2E:  BRA    6D54
06D30:  MOVLB  4
....................             glcd_rect(102, 14, 126, 28, YES, OFF);LuzBlanca_off; 
06D32:  MOVLW  66
06D34:  MOVLB  5
06D36:  MOVWF  xE6
06D38:  MOVLW  0E
06D3A:  MOVWF  xE7
06D3C:  MOVLW  7E
06D3E:  MOVWF  xE8
06D40:  MOVLW  1C
06D42:  MOVWF  xE9
06D44:  MOVLW  01
06D46:  MOVWF  xEA
06D48:  CLRF   xEB
06D4A:  MOVLB  0
06D4C:  CALL   49BC
06D50:  BCF    F8B.0
06D52:  BCF    F94.0
....................          } 
....................           
....................              
....................       if(RIGHT){//Si oprime boton de Blower. 
06D54:  BSF    F96.1
06D56:  BTFSC  F84.1
06D58:  BRA    6D76
....................          if(Flanco3 == 0){ 
06D5A:  MOVLB  4
06D5C:  BTFSC  x2D.3
06D5E:  BRA    6D72
....................             Flanco3 = 1;delay_ms(3);flag_blower=!flag_blower; 
06D60:  BSF    x2D.3
06D62:  MOVLW  03
06D64:  MOVLB  5
06D66:  MOVWF  xE1
06D68:  MOVLB  0
06D6A:  CALL   1368
06D6E:  MOVLB  4
06D70:  BTG    x2D.6
....................          } 
....................       }else{ 
06D72:  BRA    6D7A
06D74:  MOVLB  0
....................          Flanco3 = 0; 
06D76:  MOVLB  4
06D78:  BCF    x2D.3
....................       } 
....................              
....................       if(DOWN){//Si oprime boton de Luz Blanca. 
06D7A:  BSF    F96.0
06D7C:  BTFSC  F84.0
06D7E:  BRA    6D98
....................          if(Flanco5 == 0){ 
06D80:  BTFSC  x2D.4
06D82:  BRA    6D96
....................             Flanco5 = 1;delay_ms(3);flag_luz=!flag_luz; 
06D84:  BSF    x2D.4
06D86:  MOVLW  03
06D88:  MOVLB  5
06D8A:  MOVWF  xE1
06D8C:  MOVLB  0
06D8E:  CALL   1368
06D92:  MOVLB  4
06D94:  BTG    x2E.0
....................          } 
....................       }else{ 
06D96:  BRA    6D9A
....................          Flanco5 = 0; 
06D98:  BCF    x2D.4
....................       } 
....................        
....................       if(UP){//Si oprime boton de Toma. 
06D9A:  BSF    F92.5
06D9C:  BTFSC  F80.5
06D9E:  BRA    6DE4
....................          delay_ms(20); 
06DA0:  MOVLW  14
06DA2:  MOVLB  5
06DA4:  MOVWF  xE1
06DA6:  MOVLB  0
06DA8:  CALL   1368
....................          if(UP){//Si oprime boton de Toma. 
06DAC:  BSF    F92.5
06DAE:  BTFSC  F80.5
06DB0:  BRA    6DE2
....................             delay_ms(5);Menu=3;//glcd_fillScreen(OFF); 
06DB2:  MOVLW  05
06DB4:  MOVLB  5
06DB6:  MOVWF  xE1
06DB8:  MOVLB  0
06DBA:  CALL   1368
06DBE:  MOVLW  03
06DC0:  MOVLB  4
06DC2:  MOVWF  xC5
....................             glcd_init(ON);             //Inicializa la glcd 
06DC4:  MOVLW  01
06DC6:  MOVLB  5
06DC8:  MOVWF  xCD
06DCA:  MOVLB  0
06DCC:  CALL   155A
....................             glcd_fillScreen(OFF);      //Limpia la pantalla 
06DD0:  MOVLB  5
06DD2:  CLRF   xD5
06DD4:  MOVLB  0
06DD6:  CALL   1448
....................             glcd_update();   
06DDA:  CALL   14A2
....................             LuzBlanca_off; 
06DDE:  BCF    F8B.0
06DE0:  BCF    F94.0
06DE2:  MOVLB  4
....................          } 
....................       } 
....................              
....................     } 
.................... //_--------------------------------------------------------------------------------------------------------------------------------------------------------        
....................  
.................... //_-------------------------------------------------------------------------------------------------------------------------------------------------------- 
....................       if(Menu==3){ //Menu Principal. 
06DE4:  MOVF   xC5,W
06DE6:  SUBLW  03
06DE8:  BTFSS  FD8.2
06DEA:  BRA    70CE
....................              
....................       strcpy(Menus.Letra,"Menu"); 
06DEC:  MOVLW  04
06DEE:  MOVWF  FEA
06DF0:  MOVLW  17
06DF2:  MOVWF  FE9
06DF4:  MOVFF  FF2,5CD
06DF8:  BCF    FF2.7
06DFA:  MOVLW  00
06DFC:  MOVLB  0
06DFE:  CALL   0FAE
06E02:  TBLRD*-
06E04:  TBLRD*+
06E06:  MOVF   FF5,W
06E08:  MOVWF  FEE
06E0A:  IORLW  00
06E0C:  BNZ   6E04
06E0E:  MOVLB  5
06E10:  BTFSC  xCD.7
06E12:  BSF    FF2.7
....................       displayMenu(Menus.Letra,40,0,1,2); 
06E14:  MOVLW  04
06E16:  MOVWF  xD6
06E18:  MOVLW  17
06E1A:  MOVWF  xD5
06E1C:  MOVLW  28
06E1E:  MOVWF  xD7
06E20:  CLRF   xD8
06E22:  MOVLW  01
06E24:  MOVWF  xD9
06E26:  MOVLW  02
06E28:  MOVWF  xDA
06E2A:  MOVLB  0
06E2C:  CALL   4B3C
....................        
....................       if(Opcion==1){ 
06E30:  MOVLB  4
06E32:  DECFSZ xC7,W
06E34:  BRA    6E7C
....................          strcpy(Menus.Letra,"Ajustes"); 
06E36:  MOVLW  04
06E38:  MOVWF  FEA
06E3A:  MOVLW  17
06E3C:  MOVWF  FE9
06E3E:  MOVFF  FF2,5CD
06E42:  BCF    FF2.7
06E44:  MOVLW  00
06E46:  MOVLB  0
06E48:  CALL   0FD2
06E4C:  TBLRD*-
06E4E:  TBLRD*+
06E50:  MOVF   FF5,W
06E52:  MOVWF  FEE
06E54:  IORLW  00
06E56:  BNZ   6E4E
06E58:  MOVLB  5
06E5A:  BTFSC  xCD.7
06E5C:  BSF    FF2.7
....................          displayMenu(Menus.Letra,0,19,1,1); 
06E5E:  MOVLW  04
06E60:  MOVWF  xD6
06E62:  MOVLW  17
06E64:  MOVWF  xD5
06E66:  CLRF   xD7
06E68:  MOVLW  13
06E6A:  MOVWF  xD8
06E6C:  MOVLW  01
06E6E:  MOVWF  xD9
06E70:  MOVWF  xDA
06E72:  MOVLB  0
06E74:  CALL   4B3C
....................       }else{ 
06E78:  BRA    6EBE
06E7A:  MOVLB  4
....................          strcpy(Menus.Letra,"Ajustes"); 
06E7C:  MOVLW  04
06E7E:  MOVWF  FEA
06E80:  MOVLW  17
06E82:  MOVWF  FE9
06E84:  MOVFF  FF2,5CD
06E88:  BCF    FF2.7
06E8A:  MOVLW  00
06E8C:  MOVLB  0
06E8E:  CALL   0FD2
06E92:  TBLRD*-
06E94:  TBLRD*+
06E96:  MOVF   FF5,W
06E98:  MOVWF  FEE
06E9A:  IORLW  00
06E9C:  BNZ   6E94
06E9E:  MOVLB  5
06EA0:  BTFSC  xCD.7
06EA2:  BSF    FF2.7
....................          displayMenu(Menus.Letra,0,19,0,1); 
06EA4:  MOVLW  04
06EA6:  MOVWF  xD6
06EA8:  MOVLW  17
06EAA:  MOVWF  xD5
06EAC:  CLRF   xD7
06EAE:  MOVLW  13
06EB0:  MOVWF  xD8
06EB2:  CLRF   xD9
06EB4:  MOVLW  01
06EB6:  MOVWF  xDA
06EB8:  MOVLB  0
06EBA:  CALL   4B3C
....................       } 
....................           
....................       if(Opcion==2){ 
06EBE:  MOVLB  4
06EC0:  MOVF   xC7,W
06EC2:  SUBLW  02
06EC4:  BNZ   6F0C
....................          strcpy(Menus.Letra,"Cambio de Clave"); 
06EC6:  MOVLW  04
06EC8:  MOVWF  FEA
06ECA:  MOVLW  17
06ECC:  MOVWF  FE9
06ECE:  MOVFF  FF2,5CD
06ED2:  BCF    FF2.7
06ED4:  MOVLW  00
06ED6:  MOVLB  0
06ED8:  CALL   0FF8
06EDC:  TBLRD*-
06EDE:  TBLRD*+
06EE0:  MOVF   FF5,W
06EE2:  MOVWF  FEE
06EE4:  IORLW  00
06EE6:  BNZ   6EDE
06EE8:  MOVLB  5
06EEA:  BTFSC  xCD.7
06EEC:  BSF    FF2.7
....................          displayMenu(Menus.Letra,0,35,1,1); 
06EEE:  MOVLW  04
06EF0:  MOVWF  xD6
06EF2:  MOVLW  17
06EF4:  MOVWF  xD5
06EF6:  CLRF   xD7
06EF8:  MOVLW  23
06EFA:  MOVWF  xD8
06EFC:  MOVLW  01
06EFE:  MOVWF  xD9
06F00:  MOVWF  xDA
06F02:  MOVLB  0
06F04:  CALL   4B3C
....................       }else{ 
06F08:  BRA    6F4E
06F0A:  MOVLB  4
....................          strcpy(Menus.Letra,"Cambio de Clave"); 
06F0C:  MOVLW  04
06F0E:  MOVWF  FEA
06F10:  MOVLW  17
06F12:  MOVWF  FE9
06F14:  MOVFF  FF2,5CD
06F18:  BCF    FF2.7
06F1A:  MOVLW  00
06F1C:  MOVLB  0
06F1E:  CALL   0FF8
06F22:  TBLRD*-
06F24:  TBLRD*+
06F26:  MOVF   FF5,W
06F28:  MOVWF  FEE
06F2A:  IORLW  00
06F2C:  BNZ   6F24
06F2E:  MOVLB  5
06F30:  BTFSC  xCD.7
06F32:  BSF    FF2.7
....................          displayMenu(Menus.Letra,0,35,0,1); 
06F34:  MOVLW  04
06F36:  MOVWF  xD6
06F38:  MOVLW  17
06F3A:  MOVWF  xD5
06F3C:  CLRF   xD7
06F3E:  MOVLW  23
06F40:  MOVWF  xD8
06F42:  CLRF   xD9
06F44:  MOVLW  01
06F46:  MOVWF  xDA
06F48:  MOVLB  0
06F4A:  CALL   4B3C
....................       } 
....................           
....................       if(Opcion==3){ 
06F4E:  MOVLB  4
06F50:  MOVF   xC7,W
06F52:  SUBLW  03
06F54:  BNZ   6F9C
....................          strcpy(Menus.Letra,"Modo"); 
06F56:  MOVLW  04
06F58:  MOVWF  FEA
06F5A:  MOVLW  17
06F5C:  MOVWF  FE9
06F5E:  MOVFF  FF2,5CD
06F62:  BCF    FF2.7
06F64:  MOVLW  00
06F66:  MOVLB  0
06F68:  CALL   1026
06F6C:  TBLRD*-
06F6E:  TBLRD*+
06F70:  MOVF   FF5,W
06F72:  MOVWF  FEE
06F74:  IORLW  00
06F76:  BNZ   6F6E
06F78:  MOVLB  5
06F7A:  BTFSC  xCD.7
06F7C:  BSF    FF2.7
....................          displayMenu(Menus.Letra,0,51,1,1); 
06F7E:  MOVLW  04
06F80:  MOVWF  xD6
06F82:  MOVLW  17
06F84:  MOVWF  xD5
06F86:  CLRF   xD7
06F88:  MOVLW  33
06F8A:  MOVWF  xD8
06F8C:  MOVLW  01
06F8E:  MOVWF  xD9
06F90:  MOVWF  xDA
06F92:  MOVLB  0
06F94:  CALL   4B3C
....................       }else{ 
06F98:  BRA    6FDE
06F9A:  MOVLB  4
....................          strcpy(Menus.Letra,"Modo"); 
06F9C:  MOVLW  04
06F9E:  MOVWF  FEA
06FA0:  MOVLW  17
06FA2:  MOVWF  FE9
06FA4:  MOVFF  FF2,5CD
06FA8:  BCF    FF2.7
06FAA:  MOVLW  00
06FAC:  MOVLB  0
06FAE:  CALL   1026
06FB2:  TBLRD*-
06FB4:  TBLRD*+
06FB6:  MOVF   FF5,W
06FB8:  MOVWF  FEE
06FBA:  IORLW  00
06FBC:  BNZ   6FB4
06FBE:  MOVLB  5
06FC0:  BTFSC  xCD.7
06FC2:  BSF    FF2.7
....................          displayMenu(Menus.Letra,0,51,0,1); 
06FC4:  MOVLW  04
06FC6:  MOVWF  xD6
06FC8:  MOVLW  17
06FCA:  MOVWF  xD5
06FCC:  CLRF   xD7
06FCE:  MOVLW  33
06FD0:  MOVWF  xD8
06FD2:  CLRF   xD9
06FD4:  MOVLW  01
06FD6:  MOVWF  xDA
06FD8:  MOVLB  0
06FDA:  CALL   4B3C
....................       } 
....................       glcd_update();  
06FDE:  CALL   14A2
....................        
....................       if(w==0){ 
06FE2:  MOVLB  4
06FE4:  BTFSC  x2E.2
06FE6:  BRA    7002
....................          delay_ms(500);w=1; 
06FE8:  MOVLW  02
06FEA:  MOVLB  5
06FEC:  MOVWF  xCD
06FEE:  MOVLW  FA
06FF0:  MOVWF  xE1
06FF2:  MOVLB  0
06FF4:  CALL   1368
06FF8:  MOVLB  5
06FFA:  DECFSZ xCD,F
06FFC:  BRA    6FEE
06FFE:  MOVLB  4
07000:  BSF    x2E.2
....................       } 
....................           
....................       if(UP){//Si oprime hacia arriba         
07002:  BSF    F92.5
07004:  BTFSC  F80.5
07006:  BRA    7020
....................          if(Flanco == 0){ 
07008:  BTFSC  x2D.0
0700A:  BRA    701E
....................             Flanco = 1;delay_ms(30);Opcion--; 
0700C:  BSF    x2D.0
0700E:  MOVLW  1E
07010:  MOVLB  5
07012:  MOVWF  xE1
07014:  MOVLB  0
07016:  CALL   1368
0701A:  MOVLB  4
0701C:  DECF   xC7,F
....................          } 
....................       }else{ 
0701E:  BRA    7022
....................          Flanco = 0; 
07020:  BCF    x2D.0
....................       } 
....................              
....................       if(DOWN){//Si oprime hacia abajo 
07022:  BSF    F96.0
07024:  BTFSC  F84.0
07026:  BRA    7040
....................          if(Flanco2 == 0){ 
07028:  BTFSC  x2D.2
0702A:  BRA    703E
....................             Flanco2 = 1;delay_ms(30);Opcion++; 
0702C:  BSF    x2D.2
0702E:  MOVLW  1E
07030:  MOVLB  5
07032:  MOVWF  xE1
07034:  MOVLB  0
07036:  CALL   1368
0703A:  MOVLB  4
0703C:  INCF   xC7,F
....................          } 
....................       }else{ 
0703E:  BRA    7042
....................          Flanco2 = 0; 
07040:  BCF    x2D.2
....................       } 
....................              
....................       if(RIGHT){//Si oprime SET 
07042:  BSF    F96.1
07044:  BTFSC  F84.1
07046:  BRA    708C
....................          if(Flanco1 == 0){ 
07048:  BTFSC  x2D.1
0704A:  BRA    708A
....................             Flanco1 = 1;delay_ms(500);Menu=Opcion+3;Opcion=1;glcd_fillscreen(OFF);unidad=1; 
0704C:  BSF    x2D.1
0704E:  MOVLW  02
07050:  MOVLB  5
07052:  MOVWF  xCD
07054:  MOVLW  FA
07056:  MOVWF  xE1
07058:  MOVLB  0
0705A:  CALL   1368
0705E:  MOVLB  5
07060:  DECFSZ xCD,F
07062:  BRA    7054
07064:  MOVLW  03
07066:  MOVLB  4
07068:  ADDWF  xC7,W
0706A:  MOVWF  xC5
0706C:  MOVLW  01
0706E:  MOVWF  xC7
07070:  MOVLB  5
07072:  CLRF   xD5
07074:  MOVLB  0
07076:  CALL   1448
0707A:  MOVLW  01
0707C:  MOVLB  4
0707E:  MOVWF  xC6
....................             Contrasena[0]=0;Contrasena[1]=0;Contrasena[2]=0;Contrasena[3]=0;n=0; 
07080:  CLRF   xF9
07082:  CLRF   xFA
07084:  CLRF   xFB
07086:  CLRF   xFC
07088:  BCF    x2F.0
....................          } 
....................       }else{ 
0708A:  BRA    708E
....................          Flanco1 = 0; 
0708C:  BCF    x2D.1
....................       } 
....................              
....................       if(LEFT){//Si oprime boton de Toma. 
0708E:  BSF    F96.2
07090:  BTFSC  F84.2
07092:  BRA    70BC
....................          delay_ms(700);Menu=2;glcd_fillscreen(OFF); 
07094:  MOVLW  04
07096:  MOVLB  5
07098:  MOVWF  xCD
0709A:  MOVLW  AF
0709C:  MOVWF  xE1
0709E:  MOVLB  0
070A0:  CALL   1368
070A4:  MOVLB  5
070A6:  DECFSZ xCD,F
070A8:  BRA    709A
070AA:  MOVLW  02
070AC:  MOVLB  4
070AE:  MOVWF  xC5
070B0:  MOVLB  5
070B2:  CLRF   xD5
070B4:  MOVLB  0
070B6:  CALL   1448
070BA:  MOVLB  4
....................       } 
....................              
....................       if(Opcion>3) 
070BC:  MOVF   xC7,W
070BE:  SUBLW  03
070C0:  BC    70C6
....................          Opcion=1; 
070C2:  MOVLW  01
070C4:  MOVWF  xC7
....................       if(Opcion<1) 
070C6:  MOVF   xC7,F
070C8:  BNZ   70CE
....................          Opcion=3; 
070CA:  MOVLW  03
070CC:  MOVWF  xC7
....................     } 
.................... //_--------------------------------------------------------------------------------------------------------------------------------------------------------        
....................  
.................... //_-------------------------------------------------------------------------------------------------------------------------------------------------------- 
....................       if(Menu==4){ //Menu de Ajustes. 
070CE:  MOVF   xC5,W
070D0:  SUBLW  04
070D2:  BTFSS  FD8.2
070D4:  BRA    7264
....................        
....................       strcpy(Menus.Letra,"Ajustes"); 
070D6:  MOVLW  04
070D8:  MOVWF  FEA
070DA:  MOVLW  17
070DC:  MOVWF  FE9
070DE:  MOVFF  FF2,5CD
070E2:  BCF    FF2.7
070E4:  MOVLW  00
070E6:  MOVLB  0
070E8:  CALL   0FD2
070EC:  TBLRD*-
070EE:  TBLRD*+
070F0:  MOVF   FF5,W
070F2:  MOVWF  FEE
070F4:  IORLW  00
070F6:  BNZ   70EE
070F8:  MOVLB  5
070FA:  BTFSC  xCD.7
070FC:  BSF    FF2.7
....................       displayMenu(Menus.Letra,0,0,1,2); 
070FE:  MOVLW  04
07100:  MOVWF  xD6
07102:  MOVLW  17
07104:  MOVWF  xD5
07106:  CLRF   xD7
07108:  CLRF   xD8
0710A:  MOVLW  01
0710C:  MOVWF  xD9
0710E:  MOVLW  02
07110:  MOVWF  xDA
07112:  MOVLB  0
07114:  CALL   4B3C
....................        
....................       if(Opcion==1)    
07118:  MOVLB  4
0711A:  DECFSZ xC7,W
0711C:  BRA    7164
....................          {strcpy(Menus.Letra,"Tiempo Purga"); 
0711E:  MOVLW  04
07120:  MOVWF  FEA
07122:  MOVLW  17
07124:  MOVWF  FE9
07126:  MOVFF  FF2,5CD
0712A:  BCF    FF2.7
0712C:  MOVLW  00
0712E:  MOVLB  0
07130:  CALL   104A
07134:  TBLRD*-
07136:  TBLRD*+
07138:  MOVF   FF5,W
0713A:  MOVWF  FEE
0713C:  IORLW  00
0713E:  BNZ   7136
07140:  MOVLB  5
07142:  BTFSC  xCD.7
07144:  BSF    FF2.7
....................          displayMenu(Menus.Letra,0,20,1,1);} 
07146:  MOVLW  04
07148:  MOVWF  xD6
0714A:  MOVLW  17
0714C:  MOVWF  xD5
0714E:  CLRF   xD7
07150:  MOVLW  14
07152:  MOVWF  xD8
07154:  MOVLW  01
07156:  MOVWF  xD9
07158:  MOVWF  xDA
0715A:  MOVLB  0
0715C:  CALL   4B3C
....................       else 
07160:  BRA    71A6
07162:  MOVLB  4
....................          {strcpy(Menus.Letra,"Tiempo Purga"); 
07164:  MOVLW  04
07166:  MOVWF  FEA
07168:  MOVLW  17
0716A:  MOVWF  FE9
0716C:  MOVFF  FF2,5CD
07170:  BCF    FF2.7
07172:  MOVLW  00
07174:  MOVLB  0
07176:  CALL   104A
0717A:  TBLRD*-
0717C:  TBLRD*+
0717E:  MOVF   FF5,W
07180:  MOVWF  FEE
07182:  IORLW  00
07184:  BNZ   717C
07186:  MOVLB  5
07188:  BTFSC  xCD.7
0718A:  BSF    FF2.7
....................          displayMenu(Menus.Letra,0,20,0,1);}              
0718C:  MOVLW  04
0718E:  MOVWF  xD6
07190:  MOVLW  17
07192:  MOVWF  xD5
07194:  CLRF   xD7
07196:  MOVLW  14
07198:  MOVWF  xD8
0719A:  CLRF   xD9
0719C:  MOVLW  01
0719E:  MOVWF  xDA
071A0:  MOVLB  0
071A2:  CALL   4B3C
....................          
....................       if(UP)//Si oprime hacia arriba 
071A6:  BSF    F92.5
071A8:  BTFSC  F80.5
071AA:  BRA    71C6
....................       {  if(Flanco == 0)  
071AC:  MOVLB  4
071AE:  BTFSC  x2D.0
071B0:  BRA    71C4
....................             {Flanco = 1;delay_ms(30);Opcion--; 
071B2:  BSF    x2D.0
071B4:  MOVLW  1E
071B6:  MOVLB  5
071B8:  MOVWF  xE1
071BA:  MOVLB  0
071BC:  CALL   1368
071C0:  MOVLB  4
071C2:  DECF   xC7,F
....................             } 
....................       } 
....................          else 
071C4:  BRA    71CA
....................             {Flanco = 0;} 
071C6:  MOVLB  4
071C8:  BCF    x2D.0
....................              
....................       if(DOWN)//Si oprime hacia abajo 
071CA:  BSF    F96.0
071CC:  BTFSC  F84.0
071CE:  BRA    71E8
....................       {  if(Flanco2 == 0)  
071D0:  BTFSC  x2D.2
071D2:  BRA    71E6
....................             {Flanco2 = 1;delay_ms(30);Opcion++; 
071D4:  BSF    x2D.2
071D6:  MOVLW  1E
071D8:  MOVLB  5
071DA:  MOVWF  xE1
071DC:  MOVLB  0
071DE:  CALL   1368
071E2:  MOVLB  4
071E4:  INCF   xC7,F
....................             }      
....................       } 
....................          else 
071E6:  BRA    71EA
....................             {Flanco2 = 0;}   
071E8:  BCF    x2D.2
....................              
....................       if(RIGHT)//Si oprime SET 
071EA:  BSF    F96.1
071EC:  BTFSC  F84.1
071EE:  BRA    7222
....................       {  if(Flanco1 == 0)  
071F0:  BTFSC  x2D.1
071F2:  BRA    7220
....................             {Flanco1 = 1;delay_ms(500);Menu=Opcion+10;glcd_fillScreen(OFF); 
071F4:  BSF    x2D.1
071F6:  MOVLW  02
071F8:  MOVLB  5
071FA:  MOVWF  xCD
071FC:  MOVLW  FA
071FE:  MOVWF  xE1
07200:  MOVLB  0
07202:  CALL   1368
07206:  MOVLB  5
07208:  DECFSZ xCD,F
0720A:  BRA    71FC
0720C:  MOVLW  0A
0720E:  MOVLB  4
07210:  ADDWF  xC7,W
07212:  MOVWF  xC5
07214:  MOVLB  5
07216:  CLRF   xD5
07218:  MOVLB  0
0721A:  CALL   1448
0721E:  MOVLB  4
....................             } 
....................       } 
....................          else 
07220:  BRA    7224
....................             {Flanco1 = 0;}   
07222:  BCF    x2D.1
....................              
....................       if(LEFT)//Si oprime boton de Toma. 
07224:  BSF    F96.2
07226:  BTFSC  F84.2
07228:  BRA    7252
....................         {delay_ms(700);Menu=3;glcd_fillscreen(OFF);} 
0722A:  MOVLW  04
0722C:  MOVLB  5
0722E:  MOVWF  xCD
07230:  MOVLW  AF
07232:  MOVWF  xE1
07234:  MOVLB  0
07236:  CALL   1368
0723A:  MOVLB  5
0723C:  DECFSZ xCD,F
0723E:  BRA    7230
07240:  MOVLW  03
07242:  MOVLB  4
07244:  MOVWF  xC5
07246:  MOVLB  5
07248:  CLRF   xD5
0724A:  MOVLB  0
0724C:  CALL   1448
07250:  MOVLB  4
....................        
....................       if(Opcion>1) 
07252:  MOVF   xC7,W
07254:  SUBLW  01
07256:  BC    725C
....................       {Opcion=1;} 
07258:  MOVLW  01
0725A:  MOVWF  xC7
....................       if(Opcion<1) 
0725C:  MOVF   xC7,F
0725E:  BNZ   7264
....................       {Opcion=1;} 
07260:  MOVLW  01
07262:  MOVWF  xC7
....................      
....................     } 
.................... //_--------------------------------------------------------------------------------------------------------------------------------------------------------        
....................  
.................... //_-------------------------------------------------------------------------------------------------------------------------------------------------------- 
....................       if(Menu==6){ //Menu de Modo. 
07264:  MOVF   xC5,W
07266:  SUBLW  06
07268:  BTFSS  FD8.2
0726A:  BRA    7492
....................        
....................       strcpy(Menus.Letra,"Modo"); 
0726C:  MOVLW  04
0726E:  MOVWF  FEA
07270:  MOVLW  17
07272:  MOVWF  FE9
07274:  MOVFF  FF2,5CD
07278:  BCF    FF2.7
0727A:  MOVLW  00
0727C:  MOVLB  0
0727E:  CALL   1026
07282:  TBLRD*-
07284:  TBLRD*+
07286:  MOVF   FF5,W
07288:  MOVWF  FEE
0728A:  IORLW  00
0728C:  BNZ   7284
0728E:  MOVLB  5
07290:  BTFSC  xCD.7
07292:  BSF    FF2.7
....................       displayMenu(Menus.Letra,40,0,1,2); 
07294:  MOVLW  04
07296:  MOVWF  xD6
07298:  MOVLW  17
0729A:  MOVWF  xD5
0729C:  MOVLW  28
0729E:  MOVWF  xD7
072A0:  CLRF   xD8
072A2:  MOVLW  01
072A4:  MOVWF  xD9
072A6:  MOVLW  02
072A8:  MOVWF  xDA
072AA:  MOVLB  0
072AC:  CALL   4B3C
....................           
....................       if(Opcion==1)    
072B0:  MOVLB  4
072B2:  DECFSZ xC7,W
072B4:  BRA    72FC
....................          {strcpy(Menus.Letra,"Mantenimiento"); 
072B6:  MOVLW  04
072B8:  MOVWF  FEA
072BA:  MOVLW  17
072BC:  MOVWF  FE9
072BE:  MOVFF  FF2,5CD
072C2:  BCF    FF2.7
072C4:  MOVLW  00
072C6:  MOVLB  0
072C8:  CALL   1076
072CC:  TBLRD*-
072CE:  TBLRD*+
072D0:  MOVF   FF5,W
072D2:  MOVWF  FEE
072D4:  IORLW  00
072D6:  BNZ   72CE
072D8:  MOVLB  5
072DA:  BTFSC  xCD.7
072DC:  BSF    FF2.7
....................          displayMenu(Menus.Letra,0,19,1,1);} 
072DE:  MOVLW  04
072E0:  MOVWF  xD6
072E2:  MOVLW  17
072E4:  MOVWF  xD5
072E6:  CLRF   xD7
072E8:  MOVLW  13
072EA:  MOVWF  xD8
072EC:  MOVLW  01
072EE:  MOVWF  xD9
072F0:  MOVWF  xDA
072F2:  MOVLB  0
072F4:  CALL   4B3C
....................       else 
072F8:  BRA    733E
072FA:  MOVLB  4
....................          {strcpy(Menus.Letra,"Mantenimiento"); 
072FC:  MOVLW  04
072FE:  MOVWF  FEA
07300:  MOVLW  17
07302:  MOVWF  FE9
07304:  MOVFF  FF2,5CD
07308:  BCF    FF2.7
0730A:  MOVLW  00
0730C:  MOVLB  0
0730E:  CALL   1076
07312:  TBLRD*-
07314:  TBLRD*+
07316:  MOVF   FF5,W
07318:  MOVWF  FEE
0731A:  IORLW  00
0731C:  BNZ   7314
0731E:  MOVLB  5
07320:  BTFSC  xCD.7
07322:  BSF    FF2.7
....................          displayMenu(Menus.Letra,0,19,0,1);}    
07324:  MOVLW  04
07326:  MOVWF  xD6
07328:  MOVLW  17
0732A:  MOVWF  xD5
0732C:  CLRF   xD7
0732E:  MOVLW  13
07330:  MOVWF  xD8
07332:  CLRF   xD9
07334:  MOVLW  01
07336:  MOVWF  xDA
07338:  MOVLB  0
0733A:  CALL   4B3C
....................           
....................       if(Opcion==2)    
0733E:  MOVLB  4
07340:  MOVF   xC7,W
07342:  SUBLW  02
07344:  BNZ   738C
....................          {strcpy(Menus.Letra,"Servicio"); 
07346:  MOVLW  04
07348:  MOVWF  FEA
0734A:  MOVLW  17
0734C:  MOVWF  FE9
0734E:  MOVFF  FF2,5CD
07352:  BCF    FF2.7
07354:  MOVLW  00
07356:  MOVLB  0
07358:  CALL   10A2
0735C:  TBLRD*-
0735E:  TBLRD*+
07360:  MOVF   FF5,W
07362:  MOVWF  FEE
07364:  IORLW  00
07366:  BNZ   735E
07368:  MOVLB  5
0736A:  BTFSC  xCD.7
0736C:  BSF    FF2.7
....................          displayMenu(Menus.Letra,0,35,1,1);} 
0736E:  MOVLW  04
07370:  MOVWF  xD6
07372:  MOVLW  17
07374:  MOVWF  xD5
07376:  CLRF   xD7
07378:  MOVLW  23
0737A:  MOVWF  xD8
0737C:  MOVLW  01
0737E:  MOVWF  xD9
07380:  MOVWF  xDA
07382:  MOVLB  0
07384:  CALL   4B3C
....................       else 
07388:  BRA    73CE
0738A:  MOVLB  4
....................          {strcpy(Menus.Letra,"Servicio"); 
0738C:  MOVLW  04
0738E:  MOVWF  FEA
07390:  MOVLW  17
07392:  MOVWF  FE9
07394:  MOVFF  FF2,5CD
07398:  BCF    FF2.7
0739A:  MOVLW  00
0739C:  MOVLB  0
0739E:  CALL   10A2
073A2:  TBLRD*-
073A4:  TBLRD*+
073A6:  MOVF   FF5,W
073A8:  MOVWF  FEE
073AA:  IORLW  00
073AC:  BNZ   73A4
073AE:  MOVLB  5
073B0:  BTFSC  xCD.7
073B2:  BSF    FF2.7
....................          displayMenu(Menus.Letra,0,35,0,1);} 
073B4:  MOVLW  04
073B6:  MOVWF  xD6
073B8:  MOVLW  17
073BA:  MOVWF  xD5
073BC:  CLRF   xD7
073BE:  MOVLW  23
073C0:  MOVWF  xD8
073C2:  CLRF   xD9
073C4:  MOVLW  01
073C6:  MOVWF  xDA
073C8:  MOVLB  0
073CA:  CALL   4B3C
....................           
....................       if(UP)//Si oprime hacia arriba 
073CE:  BSF    F92.5
073D0:  BTFSC  F80.5
073D2:  BRA    73EE
....................       {  if(Flanco == 0)  
073D4:  MOVLB  4
073D6:  BTFSC  x2D.0
073D8:  BRA    73EC
....................             {Flanco = 1;delay_ms(30);Opcion--; 
073DA:  BSF    x2D.0
073DC:  MOVLW  1E
073DE:  MOVLB  5
073E0:  MOVWF  xE1
073E2:  MOVLB  0
073E4:  CALL   1368
073E8:  MOVLB  4
073EA:  DECF   xC7,F
....................             } 
....................       } 
....................          else 
073EC:  BRA    73F2
....................             {Flanco = 0;} 
073EE:  MOVLB  4
073F0:  BCF    x2D.0
....................              
....................       if(DOWN)//Si oprime hacia abajo 
073F2:  BSF    F96.0
073F4:  BTFSC  F84.0
073F6:  BRA    7410
....................       {  if(Flanco2 == 0)  
073F8:  BTFSC  x2D.2
073FA:  BRA    740E
....................             {Flanco2 = 1;delay_ms(30);Opcion++; 
073FC:  BSF    x2D.2
073FE:  MOVLW  1E
07400:  MOVLB  5
07402:  MOVWF  xE1
07404:  MOVLB  0
07406:  CALL   1368
0740A:  MOVLB  4
0740C:  INCF   xC7,F
....................             }      
....................       } 
....................          else 
0740E:  BRA    7412
....................             {Flanco2 = 0;}   
07410:  BCF    x2D.2
....................              
....................       if(RIGHT)//Si oprime SET 
07412:  BSF    F96.1
07414:  BTFSC  F84.1
07416:  BRA    7450
....................       {  if(Flanco1 == 0)  
07418:  BTFSC  x2D.1
0741A:  BRA    744E
....................             {Flanco1 = 1;delay_ms(500);Menu=Opcion+30;glcd_fillScreen(OFF);Opcion=1;unidad=1; 
0741C:  BSF    x2D.1
0741E:  MOVLW  02
07420:  MOVLB  5
07422:  MOVWF  xCD
07424:  MOVLW  FA
07426:  MOVWF  xE1
07428:  MOVLB  0
0742A:  CALL   1368
0742E:  MOVLB  5
07430:  DECFSZ xCD,F
07432:  BRA    7424
07434:  MOVLW  1E
07436:  MOVLB  4
07438:  ADDWF  xC7,W
0743A:  MOVWF  xC5
0743C:  MOVLB  5
0743E:  CLRF   xD5
07440:  MOVLB  0
07442:  CALL   1448
07446:  MOVLW  01
07448:  MOVLB  4
0744A:  MOVWF  xC7
0744C:  MOVWF  xC6
....................             } 
....................       } 
....................          else 
0744E:  BRA    7452
....................             {Flanco1 = 0;}   
07450:  BCF    x2D.1
....................              
....................       if(LEFT)//Si oprime boton de Toma. 
07452:  BSF    F96.2
07454:  BTFSC  F84.2
07456:  BRA    7480
....................         {delay_ms(700);Menu=3;glcd_fillscreen(OFF);} 
07458:  MOVLW  04
0745A:  MOVLB  5
0745C:  MOVWF  xCD
0745E:  MOVLW  AF
07460:  MOVWF  xE1
07462:  MOVLB  0
07464:  CALL   1368
07468:  MOVLB  5
0746A:  DECFSZ xCD,F
0746C:  BRA    745E
0746E:  MOVLW  03
07470:  MOVLB  4
07472:  MOVWF  xC5
07474:  MOVLB  5
07476:  CLRF   xD5
07478:  MOVLB  0
0747A:  CALL   1448
0747E:  MOVLB  4
....................       if(Opcion>2) 
07480:  MOVF   xC7,W
07482:  SUBLW  02
07484:  BC    748A
....................       {Opcion=1;} 
07486:  MOVLW  01
07488:  MOVWF  xC7
....................       if(Opcion<1) 
0748A:  MOVF   xC7,F
0748C:  BNZ   7492
....................       {Opcion=2;} 
0748E:  MOVLW  02
07490:  MOVWF  xC7
....................      
....................     } 
.................... //_--------------------------------------------------------------------------------------------------------------------------------------------------------        
....................  
.................... //_-------------------------------------------------------------------------------------------------------------------------------------------------------- 
....................       if(Menu==11){ //Menu de Purga. 
07492:  MOVF   xC5,W
07494:  SUBLW  0B
07496:  BTFSS  FD8.2
07498:  BRA    785C
....................        
....................       strcpy(Menus.Letra,"T. Purga"); 
0749A:  MOVLW  04
0749C:  MOVWF  FEA
0749E:  MOVLW  17
074A0:  MOVWF  FE9
074A2:  MOVFF  FF2,5CD
074A6:  BCF    FF2.7
074A8:  MOVLW  00
074AA:  MOVLB  0
074AC:  CALL   10CA
074B0:  TBLRD*-
074B2:  TBLRD*+
074B4:  MOVF   FF5,W
074B6:  MOVWF  FEE
074B8:  IORLW  00
074BA:  BNZ   74B2
074BC:  MOVLB  5
074BE:  BTFSC  xCD.7
074C0:  BSF    FF2.7
....................       displayMenu(Menus.Letra,10,0,1,2); 
074C2:  MOVLW  04
074C4:  MOVWF  xD6
074C6:  MOVLW  17
074C8:  MOVWF  xD5
074CA:  MOVLW  0A
074CC:  MOVWF  xD7
074CE:  CLRF   xD8
074D0:  MOVLW  01
074D2:  MOVWF  xD9
074D4:  MOVLW  02
074D6:  MOVWF  xDA
074D8:  MOVLB  0
074DA:  CALL   4B3C
....................        
....................       if(unidad==4) 
074DE:  MOVLB  4
074E0:  MOVF   xC6,W
074E2:  SUBLW  04
074E4:  BNZ   7504
....................       {displayTiempo(Tpurgap[3],20,40,1,2);} 
074E6:  MOVFF  4E8,5CD
074EA:  MOVLW  14
074EC:  MOVLB  5
074EE:  MOVWF  xCE
074F0:  MOVLW  28
074F2:  MOVWF  xCF
074F4:  MOVLW  01
074F6:  MOVWF  xD0
074F8:  MOVLW  02
074FA:  MOVWF  xD1
074FC:  MOVLB  0
074FE:  CALL   530E
....................       else 
07502:  BRA    751E
....................       {displayTiempo(Tpurgap[3],20,40,0,2);} 
07504:  MOVFF  4E8,5CD
07508:  MOVLW  14
0750A:  MOVLB  5
0750C:  MOVWF  xCE
0750E:  MOVLW  28
07510:  MOVWF  xCF
07512:  CLRF   xD0
07514:  MOVLW  02
07516:  MOVWF  xD1
07518:  MOVLB  0
0751A:  CALL   530E
....................        
....................       if(unidad==3) 
0751E:  MOVLB  4
07520:  MOVF   xC6,W
07522:  SUBLW  03
07524:  BNZ   7542
....................       {displayTiempo(Tpurgap[2],40,40,1,2);} 
07526:  MOVFF  4E7,5CD
0752A:  MOVLW  28
0752C:  MOVLB  5
0752E:  MOVWF  xCE
07530:  MOVWF  xCF
07532:  MOVLW  01
07534:  MOVWF  xD0
07536:  MOVLW  02
07538:  MOVWF  xD1
0753A:  MOVLB  0
0753C:  CALL   530E
....................       else 
07540:  BRA    755A
....................       {displayTiempo(Tpurgap[2],40,40,0,2);} 
07542:  MOVFF  4E7,5CD
07546:  MOVLW  28
07548:  MOVLB  5
0754A:  MOVWF  xCE
0754C:  MOVWF  xCF
0754E:  CLRF   xD0
07550:  MOVLW  02
07552:  MOVWF  xD1
07554:  MOVLB  0
07556:  CALL   530E
....................        
....................       if(unidad==2) 
0755A:  MOVLB  4
0755C:  MOVF   xC6,W
0755E:  SUBLW  02
07560:  BNZ   7580
....................       {displayTiempo(Tpurgap[1],70,40,1,2);} 
07562:  MOVFF  4E6,5CD
07566:  MOVLW  46
07568:  MOVLB  5
0756A:  MOVWF  xCE
0756C:  MOVLW  28
0756E:  MOVWF  xCF
07570:  MOVLW  01
07572:  MOVWF  xD0
07574:  MOVLW  02
07576:  MOVWF  xD1
07578:  MOVLB  0
0757A:  CALL   530E
....................       else 
0757E:  BRA    759A
....................       {displayTiempo(Tpurgap[1],70,40,0,2);} 
07580:  MOVFF  4E6,5CD
07584:  MOVLW  46
07586:  MOVLB  5
07588:  MOVWF  xCE
0758A:  MOVLW  28
0758C:  MOVWF  xCF
0758E:  CLRF   xD0
07590:  MOVLW  02
07592:  MOVWF  xD1
07594:  MOVLB  0
07596:  CALL   530E
....................        
....................       if(unidad==1) 
0759A:  MOVLB  4
0759C:  DECFSZ xC6,W
0759E:  BRA    75BE
....................       {displayTiempo(Tpurgap[0],90,40,1,2);} 
075A0:  MOVFF  4E5,5CD
075A4:  MOVLW  5A
075A6:  MOVLB  5
075A8:  MOVWF  xCE
075AA:  MOVLW  28
075AC:  MOVWF  xCF
075AE:  MOVLW  01
075B0:  MOVWF  xD0
075B2:  MOVLW  02
075B4:  MOVWF  xD1
075B6:  MOVLB  0
075B8:  CALL   530E
....................       else 
075BC:  BRA    75D8
....................       {displayTiempo(Tpurgap[0],90,40,0,2);} 
075BE:  MOVFF  4E5,5CD
075C2:  MOVLW  5A
075C4:  MOVLB  5
075C6:  MOVWF  xCE
075C8:  MOVLW  28
075CA:  MOVWF  xCF
075CC:  CLRF   xD0
075CE:  MOVLW  02
075D0:  MOVWF  xD1
075D2:  MOVLB  0
075D4:  CALL   530E
....................        
....................       glcd_text57(60, 42, Dos_puntos, 2, ON); 
075D8:  MOVLW  3C
075DA:  MOVLB  5
075DC:  MOVWF  xE6
075DE:  MOVLW  2A
075E0:  MOVWF  xE7
075E2:  MOVLW  04
075E4:  MOVWF  xE9
075E6:  MOVLW  4E
075E8:  MOVWF  xE8
075EA:  MOVLW  02
075EC:  MOVWF  xEA
075EE:  MOVLW  01
075F0:  MOVWF  xEB
075F2:  MOVLB  0
075F4:  CALL   16BE
....................           
....................          
....................       if(UP)//Si oprime hacia arriba 
075F8:  BSF    F92.5
075FA:  BTFSC  F80.5
075FC:  BRA    7628
....................       {  if(Flanco == 0)  
075FE:  MOVLB  4
07600:  BTFSC  x2D.0
07602:  BRA    7626
....................             {Flanco = 1;delay_ms(30);Tpurgap[unidad-1]++; 
07604:  BSF    x2D.0
07606:  MOVLW  1E
07608:  MOVLB  5
0760A:  MOVWF  xE1
0760C:  MOVLB  0
0760E:  CALL   1368
07612:  MOVLW  01
07614:  MOVLB  4
07616:  SUBWF  xC6,W
07618:  CLRF   03
0761A:  ADDLW  E5
0761C:  MOVWF  FE9
0761E:  MOVLW  04
07620:  ADDWFC 03,W
07622:  MOVWF  FEA
07624:  INCF   FEF,F
....................             } 
....................       } 
....................          else 
07626:  BRA    762C
....................             {Flanco = 0;} 
07628:  MOVLB  4
0762A:  BCF    x2D.0
....................              
....................       if(DOWN)//Si oprime hacia abajo 
0762C:  BSF    F96.0
0762E:  BTFSC  F84.0
07630:  BRA    765A
....................       {  if(Flanco2 == 0)  
07632:  BTFSC  x2D.2
07634:  BRA    7658
....................             {Flanco2 = 1;delay_ms(30);Tpurgap[unidad-1]--; 
07636:  BSF    x2D.2
07638:  MOVLW  1E
0763A:  MOVLB  5
0763C:  MOVWF  xE1
0763E:  MOVLB  0
07640:  CALL   1368
07644:  MOVLW  01
07646:  MOVLB  4
07648:  SUBWF  xC6,W
0764A:  CLRF   03
0764C:  ADDLW  E5
0764E:  MOVWF  FE9
07650:  MOVLW  04
07652:  ADDWFC 03,W
07654:  MOVWF  FEA
07656:  DECF   FEF,F
....................             }      
....................       } 
....................          else 
07658:  BRA    765C
....................             {Flanco2 = 0;}   
0765A:  BCF    x2D.2
....................              
....................       if(RIGHT)//Si oprime SET 
0765C:  BSF    F96.1
0765E:  BTFSC  F84.1
07660:  BRA    767A
....................       {  if(Flanco1 == 0)  
07662:  BTFSC  x2D.1
07664:  BRA    7678
....................             {Flanco1 = 1;delay_ms(30);unidad--; 
07666:  BSF    x2D.1
07668:  MOVLW  1E
0766A:  MOVLB  5
0766C:  MOVWF  xE1
0766E:  MOVLB  0
07670:  CALL   1368
07674:  MOVLB  4
07676:  DECF   xC6,F
....................             } 
....................       } 
....................          else 
07678:  BRA    767C
....................             {Flanco1 = 0;}   
0767A:  BCF    x2D.1
....................              
....................       if(LEFT)//Si oprime boton de Toma. 
0767C:  BSF    F96.2
0767E:  BTFSC  F84.2
07680:  BRA    7790
....................       { 
....................          delay_ms(700);Menu=4;glcd_fillscreen(OFF);Opcion=1;unidad=1; 
07682:  MOVLW  04
07684:  MOVLB  5
07686:  MOVWF  xCD
07688:  MOVLW  AF
0768A:  MOVWF  xE1
0768C:  MOVLB  0
0768E:  CALL   1368
07692:  MOVLB  5
07694:  DECFSZ xCD,F
07696:  BRA    7688
07698:  MOVLW  04
0769A:  MOVLB  4
0769C:  MOVWF  xC5
0769E:  MOVLB  5
076A0:  CLRF   xD5
076A2:  MOVLB  0
076A4:  CALL   1448
076A8:  MOVLW  01
076AA:  MOVLB  4
076AC:  MOVWF  xC7
076AE:  MOVWF  xC6
....................          write_eeprom(4,Tpurgap[0]); 
076B0:  CLRF   FAA
076B2:  MOVLW  04
076B4:  MOVWF  FA9
076B6:  MOVFF  4E5,FA8
076BA:  BCF    FA6.6
076BC:  BCF    FA6.7
076BE:  BSF    FA6.2
076C0:  MOVF   FF2,W
076C2:  MOVWF  00
076C4:  BCF    FF2.7
076C6:  MOVLB  F
076C8:  MOVLW  55
076CA:  MOVWF  FA7
076CC:  MOVLW  AA
076CE:  MOVWF  FA7
076D0:  BSF    FA6.1
076D2:  BTFSC  FA6.1
076D4:  BRA    76D2
076D6:  BCF    FA6.2
076D8:  MOVF   00,W
076DA:  IORWF  FF2,F
....................          delay_ms(20); 
076DC:  MOVLW  14
076DE:  MOVLB  5
076E0:  MOVWF  xE1
076E2:  MOVLB  0
076E4:  CALL   1368
....................          write_eeprom(5,Tpurgap[1]); 
076E8:  CLRF   FAA
076EA:  MOVLW  05
076EC:  MOVWF  FA9
076EE:  MOVFF  4E6,FA8
076F2:  BCF    FA6.6
076F4:  BCF    FA6.7
076F6:  BSF    FA6.2
076F8:  MOVF   FF2,W
076FA:  MOVWF  00
076FC:  BCF    FF2.7
076FE:  MOVLB  F
07700:  MOVLW  55
07702:  MOVWF  FA7
07704:  MOVLW  AA
07706:  MOVWF  FA7
07708:  BSF    FA6.1
0770A:  BTFSC  FA6.1
0770C:  BRA    770A
0770E:  BCF    FA6.2
07710:  MOVF   00,W
07712:  IORWF  FF2,F
....................          delay_ms(20); 
07714:  MOVLW  14
07716:  MOVLB  5
07718:  MOVWF  xE1
0771A:  MOVLB  0
0771C:  CALL   1368
....................          write_eeprom(6,Tpurgap[2]); 
07720:  CLRF   FAA
07722:  MOVLW  06
07724:  MOVWF  FA9
07726:  MOVFF  4E7,FA8
0772A:  BCF    FA6.6
0772C:  BCF    FA6.7
0772E:  BSF    FA6.2
07730:  MOVF   FF2,W
07732:  MOVWF  00
07734:  BCF    FF2.7
07736:  MOVLB  F
07738:  MOVLW  55
0773A:  MOVWF  FA7
0773C:  MOVLW  AA
0773E:  MOVWF  FA7
07740:  BSF    FA6.1
07742:  BTFSC  FA6.1
07744:  BRA    7742
07746:  BCF    FA6.2
07748:  MOVF   00,W
0774A:  IORWF  FF2,F
....................          delay_ms(20); 
0774C:  MOVLW  14
0774E:  MOVLB  5
07750:  MOVWF  xE1
07752:  MOVLB  0
07754:  CALL   1368
....................          write_eeprom(7,Tpurgap[3]); 
07758:  CLRF   FAA
0775A:  MOVLW  07
0775C:  MOVWF  FA9
0775E:  MOVFF  4E8,FA8
07762:  BCF    FA6.6
07764:  BCF    FA6.7
07766:  BSF    FA6.2
07768:  MOVF   FF2,W
0776A:  MOVWF  00
0776C:  BCF    FF2.7
0776E:  MOVLB  F
07770:  MOVLW  55
07772:  MOVWF  FA7
07774:  MOVLW  AA
07776:  MOVWF  FA7
07778:  BSF    FA6.1
0777A:  BTFSC  FA6.1
0777C:  BRA    777A
0777E:  BCF    FA6.2
07780:  MOVF   00,W
07782:  IORWF  FF2,F
....................          delay_ms(20); 
07784:  MOVLW  14
07786:  MOVLB  5
07788:  MOVWF  xE1
0778A:  MOVLB  0
0778C:  CALL   1368
....................       } 
....................        
....................       for(i=0;i<4;i++) 
07790:  MOVLB  5
07792:  CLRF   xBD
07794:  MOVF   xBD,W
07796:  SUBLW  03
07798:  BNC   77EC
....................       { 
....................          if(Tpurgap[i]>9) 
0779A:  CLRF   03
0779C:  MOVF   xBD,W
0779E:  ADDLW  E5
077A0:  MOVWF  FE9
077A2:  MOVLW  04
077A4:  ADDWFC 03,W
077A6:  MOVWF  FEA
077A8:  BTFSC  FEF.7
077AA:  BRA    77C2
077AC:  MOVF   FEF,W
077AE:  SUBLW  09
077B0:  BC    77C2
....................          {Tpurgap[i]=0;} 
077B2:  CLRF   03
077B4:  MOVF   xBD,W
077B6:  ADDLW  E5
077B8:  MOVWF  FE9
077BA:  MOVLW  04
077BC:  ADDWFC 03,W
077BE:  MOVWF  FEA
077C0:  CLRF   FEF
....................           
....................          if(Tpurgap[i]<0) 
077C2:  CLRF   03
077C4:  MOVF   xBD,W
077C6:  ADDLW  E5
077C8:  MOVWF  FE9
077CA:  MOVLW  04
077CC:  ADDWFC 03,W
077CE:  MOVWF  FEA
077D0:  BTFSC  FEF.7
077D2:  BRA    77D6
077D4:  BRA    77E8
....................          {Tpurgap[i]=9;} 
077D6:  CLRF   03
077D8:  MOVF   xBD,W
077DA:  ADDLW  E5
077DC:  MOVWF  FE9
077DE:  MOVLW  04
077E0:  ADDWFC 03,W
077E2:  MOVWF  FEA
077E4:  MOVLW  09
077E6:  MOVWF  FEF
....................       }       
077E8:  INCF   xBD,F
077EA:  BRA    7794
....................       for(i=1;i<4;i++) 
077EC:  MOVLW  01
077EE:  MOVWF  xBD
077F0:  MOVF   xBD,W
077F2:  SUBLW  03
077F4:  BNC   784A
....................       { 
....................          if(Tpurgap[i]>5) 
077F6:  CLRF   03
077F8:  MOVF   xBD,W
077FA:  ADDLW  E5
077FC:  MOVWF  FE9
077FE:  MOVLW  04
07800:  ADDWFC 03,W
07802:  MOVWF  FEA
07804:  BTFSC  FEF.7
07806:  BRA    781E
07808:  MOVF   FEF,W
0780A:  SUBLW  05
0780C:  BC    781E
....................          {Tpurgap[i]=0;} 
0780E:  CLRF   03
07810:  MOVF   xBD,W
07812:  ADDLW  E5
07814:  MOVWF  FE9
07816:  MOVLW  04
07818:  ADDWFC 03,W
0781A:  MOVWF  FEA
0781C:  CLRF   FEF
....................           
....................          if(Tpurgap[i]<0) 
0781E:  CLRF   03
07820:  MOVF   xBD,W
07822:  ADDLW  E5
07824:  MOVWF  FE9
07826:  MOVLW  04
07828:  ADDWFC 03,W
0782A:  MOVWF  FEA
0782C:  BTFSC  FEF.7
0782E:  BRA    7832
07830:  BRA    7844
....................          {Tpurgap[i]=5;} 
07832:  CLRF   03
07834:  MOVF   xBD,W
07836:  ADDLW  E5
07838:  MOVWF  FE9
0783A:  MOVLW  04
0783C:  ADDWFC 03,W
0783E:  MOVWF  FEA
07840:  MOVLW  05
07842:  MOVWF  FEF
....................         i++;  
07844:  INCF   xBD,F
....................       } 
07846:  INCF   xBD,F
07848:  BRA    77F0
....................       if(unidad<1) 
0784A:  MOVLB  4
0784C:  MOVF   xC6,F
0784E:  BNZ   7854
....................       {unidad=4;} 
07850:  MOVLW  04
07852:  MOVWF  xC6
....................       if(Opcion<1) 
07854:  MOVF   xC7,F
07856:  BNZ   785C
....................       {Opcion=4;} 
07858:  MOVLW  04
0785A:  MOVWF  xC7
....................      
....................     } 
.................... //_--------------------------------------------------------------------------------------------------------------------------------------------------------        
....................  
.................... //_-------------------------------------------------------------------------------------------------------------------------------------------------------- 
....................       if(Menu==5){ //Menu de Clave. 
0785C:  MOVF   xC5,W
0785E:  SUBLW  05
07860:  BNZ   78BC
....................  
....................       PidePassword(3,5,211,Password[0],Password[1],Password[2],Password[3]); 
07862:  MOVLW  03
07864:  MOVLB  5
07866:  MOVWF  xCE
07868:  MOVLW  05
0786A:  MOVWF  xCF
0786C:  MOVLW  D3
0786E:  MOVWF  xD0
07870:  MOVFF  4FD,5D1
07874:  MOVFF  4FE,5D2
07878:  MOVFF  4FF,5D3
0787C:  MOVFF  500,5D4
07880:  MOVLB  0
07882:  CALL   4C0C
....................              
....................       if(LEFT)//Si oprime boton de Toma. 
07886:  BSF    F96.2
07888:  BTFSC  F84.2
0788A:  BRA    78BE
....................       { 
....................          delay_ms(200); 
0788C:  MOVLW  C8
0788E:  MOVLB  5
07890:  MOVWF  xE1
07892:  MOVLB  0
07894:  CALL   1368
....................          if(unidad==1){ 
07898:  MOVLB  4
0789A:  DECFSZ xC6,W
0789C:  BRA    78BC
....................             Menu=3;glcd_fillscreen(OFF);Opcion=1;unidad=1;Contrasena[0]=0;Contrasena[1]=0;Contrasena[2]=0;Contrasena[3]=0; 
0789E:  MOVLW  03
078A0:  MOVWF  xC5
078A2:  MOVLB  5
078A4:  CLRF   xD5
078A6:  MOVLB  0
078A8:  CALL   1448
078AC:  MOVLW  01
078AE:  MOVLB  4
078B0:  MOVWF  xC7
078B2:  MOVWF  xC6
078B4:  CLRF   xF9
078B6:  CLRF   xFA
078B8:  CLRF   xFB
078BA:  CLRF   xFC
078BC:  MOVLB  0
....................          } 
....................       }  
....................     } 
.................... //_--------------------------------------------------------------------------------------------------------------------------------------------------------        
....................  
.................... //_-------------------------------------------------------------------------------------------------------------------------------------------------------- 
....................       if(Menu==211){ //Menu de Cambio Clave. 
078BE:  MOVLB  4
078C0:  MOVF   xC5,W
078C2:  SUBLW  D3
078C4:  BTFSS  FD8.2
078C6:  BRA    7D5E
....................        
....................       if(n==0) 
078C8:  BTFSC  x2F.0
078CA:  BRA    792A
....................       { 
....................          displayContrasena(Contrasena[0],20,30,1);displayContrasena(Contrasena[1],40,30,0); 
078CC:  MOVFF  4F9,5D7
078D0:  MOVLW  14
078D2:  MOVLB  5
078D4:  MOVWF  xD8
078D6:  MOVLW  1E
078D8:  MOVWF  xD9
078DA:  MOVLW  01
078DC:  MOVWF  xDA
078DE:  MOVLB  0
078E0:  CALL   4A80
078E4:  MOVFF  4FA,5D7
078E8:  MOVLW  28
078EA:  MOVLB  5
078EC:  MOVWF  xD8
078EE:  MOVLW  1E
078F0:  MOVWF  xD9
078F2:  CLRF   xDA
078F4:  MOVLB  0
078F6:  CALL   4A80
....................          displayContrasena(Contrasena[2],60,30,0);displayContrasena(Contrasena[0],80,30,0); 
078FA:  MOVFF  4FB,5D7
078FE:  MOVLW  3C
07900:  MOVLB  5
07902:  MOVWF  xD8
07904:  MOVLW  1E
07906:  MOVWF  xD9
07908:  CLRF   xDA
0790A:  MOVLB  0
0790C:  CALL   4A80
07910:  MOVFF  4F9,5D7
07914:  MOVLW  50
07916:  MOVLB  5
07918:  MOVWF  xD8
0791A:  MOVLW  1E
0791C:  MOVWF  xD9
0791E:  CLRF   xDA
07920:  MOVLB  0
07922:  CALL   4A80
....................          n=1; 
07926:  MOVLB  4
07928:  BSF    x2F.0
....................       } 
....................       strcpy(Menus.Letra,"Clave Nueva"); 
0792A:  MOVLW  04
0792C:  MOVWF  FEA
0792E:  MOVLW  17
07930:  MOVWF  FE9
07932:  MOVFF  FF2,5CD
07936:  BCF    FF2.7
07938:  MOVLW  00
0793A:  MOVLB  0
0793C:  CALL   10F2
07940:  TBLRD*-
07942:  TBLRD*+
07944:  MOVF   FF5,W
07946:  MOVWF  FEE
07948:  IORLW  00
0794A:  BNZ   7942
0794C:  MOVLB  5
0794E:  BTFSC  xCD.7
07950:  BSF    FF2.7
....................       displayMenu(Menus.Letra,0,0,1,2); 
07952:  MOVLW  04
07954:  MOVWF  xD6
07956:  MOVLW  17
07958:  MOVWF  xD5
0795A:  CLRF   xD7
0795C:  CLRF   xD8
0795E:  MOVLW  01
07960:  MOVWF  xD9
07962:  MOVLW  02
07964:  MOVWF  xDA
07966:  MOVLB  0
07968:  CALL   4B3C
....................          
....................        
....................       if(UP)//Si oprime hacia arriba 
0796C:  BSF    F92.5
0796E:  BTFSC  F80.5
07970:  BRA    7A4A
....................       {  if(Flanco == 0)  
07972:  MOVLB  4
07974:  BTFSC  x2D.0
07976:  BRA    7A48
....................             {Flanco = 1;delay_ms(30); 
07978:  BSF    x2D.0
0797A:  MOVLW  1E
0797C:  MOVLB  5
0797E:  MOVWF  xE1
07980:  MOVLB  0
07982:  CALL   1368
....................             for(i=1;i<=4;i++) 
07986:  MOVLW  01
07988:  MOVLB  5
0798A:  MOVWF  xBD
0798C:  MOVF   xBD,W
0798E:  SUBLW  04
07990:  BNC   7A46
....................                { 
....................                   if(unidad==i) 
07992:  MOVF   xBD,W
07994:  MOVLB  4
07996:  SUBWF  xC6,W
07998:  BNZ   7A0E
....................                   {Contrasena[i-1]++; 
0799A:  MOVLW  01
0799C:  MOVLB  5
0799E:  SUBWF  xBD,W
079A0:  CLRF   03
079A2:  ADDLW  F9
079A4:  MOVWF  FE9
079A6:  MOVLW  04
079A8:  ADDWFC 03,W
079AA:  MOVWF  FEA
079AC:  INCF   FEF,F
....................                   if(Contrasena[i-1]>9) 
079AE:  MOVLW  01
079B0:  SUBWF  xBD,W
079B2:  CLRF   03
079B4:  ADDLW  F9
079B6:  MOVWF  FE9
079B8:  MOVLW  04
079BA:  ADDWFC 03,W
079BC:  MOVWF  FEA
079BE:  BTFSC  FEF.7
079C0:  BRA    79DA
079C2:  MOVF   FEF,W
079C4:  SUBLW  09
079C6:  BC    79DA
....................                         {Contrasena[i-1]=0;} 
079C8:  MOVLW  01
079CA:  SUBWF  xBD,W
079CC:  CLRF   03
079CE:  ADDLW  F9
079D0:  MOVWF  FE9
079D2:  MOVLW  04
079D4:  ADDWFC 03,W
079D6:  MOVWF  FEA
079D8:  CLRF   FEF
....................                   displayContrasena(Contrasena[i-1],i*20,30,1);} 
079DA:  MOVLW  01
079DC:  SUBWF  xBD,W
079DE:  CLRF   03
079E0:  ADDLW  F9
079E2:  MOVWF  FE9
079E4:  MOVLW  04
079E6:  ADDWFC 03,W
079E8:  MOVWF  FEA
079EA:  MOVFF  FEF,5CD
079EE:  MOVF   xBD,W
079F0:  MULLW  14
079F2:  MOVFF  FF3,5CE
079F6:  MOVFF  5CD,5D7
079FA:  MOVFF  5CE,5D8
079FE:  MOVLW  1E
07A00:  MOVWF  xD9
07A02:  MOVLW  01
07A04:  MOVWF  xDA
07A06:  MOVLB  0
07A08:  CALL   4A80
....................                   else 
07A0C:  BRA    7A40
....................                   {displayContrasena(Contrasena[i-1],i*20,30,0);} 
07A0E:  MOVLW  01
07A10:  MOVLB  5
07A12:  SUBWF  xBD,W
07A14:  CLRF   03
07A16:  ADDLW  F9
07A18:  MOVWF  FE9
07A1A:  MOVLW  04
07A1C:  ADDWFC 03,W
07A1E:  MOVWF  FEA
07A20:  MOVFF  FEF,5CD
07A24:  MOVF   xBD,W
07A26:  MULLW  14
07A28:  MOVFF  FF3,5CE
07A2C:  MOVFF  5CD,5D7
07A30:  MOVFF  5CE,5D8
07A34:  MOVLW  1E
07A36:  MOVWF  xD9
07A38:  CLRF   xDA
07A3A:  MOVLB  0
07A3C:  CALL   4A80
....................                } 
07A40:  MOVLB  5
07A42:  INCF   xBD,F
07A44:  BRA    798C
07A46:  MOVLB  4
....................             } 
....................       } 
....................          else 
07A48:  BRA    7A4E
....................             {Flanco = 0;} 
07A4A:  MOVLB  4
07A4C:  BCF    x2D.0
....................              
....................       if(DOWN )//Si oprime hacia abajo 
07A4E:  BSF    F96.0
07A50:  BTFSC  F84.0
07A52:  BRA    7B28
....................       {  if(Flanco2 == 0)  
07A54:  BTFSC  x2D.2
07A56:  BRA    7B26
....................             {Flanco2 = 1;delay_ms(30); 
07A58:  BSF    x2D.2
07A5A:  MOVLW  1E
07A5C:  MOVLB  5
07A5E:  MOVWF  xE1
07A60:  MOVLB  0
07A62:  CALL   1368
....................                for(i=1;i<=4;i++) 
07A66:  MOVLW  01
07A68:  MOVLB  5
07A6A:  MOVWF  xBD
07A6C:  MOVF   xBD,W
07A6E:  SUBLW  04
07A70:  BNC   7B24
....................                { 
....................                   if(unidad==i) 
07A72:  MOVF   xBD,W
07A74:  MOVLB  4
07A76:  SUBWF  xC6,W
07A78:  BNZ   7AEC
....................                   {Contrasena[i-1]--;  
07A7A:  MOVLW  01
07A7C:  MOVLB  5
07A7E:  SUBWF  xBD,W
07A80:  CLRF   03
07A82:  ADDLW  F9
07A84:  MOVWF  FE9
07A86:  MOVLW  04
07A88:  ADDWFC 03,W
07A8A:  MOVWF  FEA
07A8C:  DECF   FEF,F
....................                      if(Contrasena[i-1]<0) 
07A8E:  MOVLW  01
07A90:  SUBWF  xBD,W
07A92:  CLRF   03
07A94:  ADDLW  F9
07A96:  MOVWF  FE9
07A98:  MOVLW  04
07A9A:  ADDWFC 03,W
07A9C:  MOVWF  FEA
07A9E:  BTFSC  FEF.7
07AA0:  BRA    7AA4
07AA2:  BRA    7AB8
....................                         {Contrasena[i-1]=9;} 
07AA4:  MOVLW  01
07AA6:  SUBWF  xBD,W
07AA8:  CLRF   03
07AAA:  ADDLW  F9
07AAC:  MOVWF  FE9
07AAE:  MOVLW  04
07AB0:  ADDWFC 03,W
07AB2:  MOVWF  FEA
07AB4:  MOVLW  09
07AB6:  MOVWF  FEF
....................                    displayContrasena(Contrasena[i-1],i*20,30,1);} 
07AB8:  MOVLW  01
07ABA:  SUBWF  xBD,W
07ABC:  CLRF   03
07ABE:  ADDLW  F9
07AC0:  MOVWF  FE9
07AC2:  MOVLW  04
07AC4:  ADDWFC 03,W
07AC6:  MOVWF  FEA
07AC8:  MOVFF  FEF,5CD
07ACC:  MOVF   xBD,W
07ACE:  MULLW  14
07AD0:  MOVFF  FF3,5CE
07AD4:  MOVFF  5CD,5D7
07AD8:  MOVFF  5CE,5D8
07ADC:  MOVLW  1E
07ADE:  MOVWF  xD9
07AE0:  MOVLW  01
07AE2:  MOVWF  xDA
07AE4:  MOVLB  0
07AE6:  CALL   4A80
....................                   else 
07AEA:  BRA    7B1E
....................                   {displayContrasena(Contrasena[i-1],i*20,30,0);} 
07AEC:  MOVLW  01
07AEE:  MOVLB  5
07AF0:  SUBWF  xBD,W
07AF2:  CLRF   03
07AF4:  ADDLW  F9
07AF6:  MOVWF  FE9
07AF8:  MOVLW  04
07AFA:  ADDWFC 03,W
07AFC:  MOVWF  FEA
07AFE:  MOVFF  FEF,5CD
07B02:  MOVF   xBD,W
07B04:  MULLW  14
07B06:  MOVFF  FF3,5CE
07B0A:  MOVFF  5CD,5D7
07B0E:  MOVFF  5CE,5D8
07B12:  MOVLW  1E
07B14:  MOVWF  xD9
07B16:  CLRF   xDA
07B18:  MOVLB  0
07B1A:  CALL   4A80
....................                }       
07B1E:  MOVLB  5
07B20:  INCF   xBD,F
07B22:  BRA    7A6C
07B24:  MOVLB  4
....................             }      
....................       } 
....................          else 
07B26:  BRA    7B2A
....................             {Flanco2 = 0;}   
07B28:  BCF    x2D.2
....................              
....................       if(RIGHT)//Si oprime SET 
07B2A:  BSF    F96.1
07B2C:  BTFSC  F84.1
07B2E:  BRA    7BCC
....................       {  if(Flanco1 == 0)  
07B30:  BTFSC  x2D.1
07B32:  BRA    7BCA
....................             {Flanco1 = 1;delay_ms(30);unidad++; 
07B34:  BSF    x2D.1
07B36:  MOVLW  1E
07B38:  MOVLB  5
07B3A:  MOVWF  xE1
07B3C:  MOVLB  0
07B3E:  CALL   1368
07B42:  MOVLB  4
07B44:  INCF   xC6,F
....................                for(i=1;i<=4;i++) 
07B46:  MOVLW  01
07B48:  MOVLB  5
07B4A:  MOVWF  xBD
07B4C:  MOVF   xBD,W
07B4E:  SUBLW  04
07B50:  BNC   7BC8
....................                { 
....................                   if(unidad==i) 
07B52:  MOVF   xBD,W
07B54:  MOVLB  4
07B56:  SUBWF  xC6,W
07B58:  BNZ   7B90
....................                   {displayContrasena(Contrasena[i-1],i*20,30,1);} 
07B5A:  MOVLW  01
07B5C:  MOVLB  5
07B5E:  SUBWF  xBD,W
07B60:  CLRF   03
07B62:  ADDLW  F9
07B64:  MOVWF  FE9
07B66:  MOVLW  04
07B68:  ADDWFC 03,W
07B6A:  MOVWF  FEA
07B6C:  MOVFF  FEF,5CD
07B70:  MOVF   xBD,W
07B72:  MULLW  14
07B74:  MOVFF  FF3,5CE
07B78:  MOVFF  5CD,5D7
07B7C:  MOVFF  5CE,5D8
07B80:  MOVLW  1E
07B82:  MOVWF  xD9
07B84:  MOVLW  01
07B86:  MOVWF  xDA
07B88:  MOVLB  0
07B8A:  CALL   4A80
....................                   else 
07B8E:  BRA    7BC2
....................                   {displayContrasena(Contrasena[i-1],i*20,30,0);} 
07B90:  MOVLW  01
07B92:  MOVLB  5
07B94:  SUBWF  xBD,W
07B96:  CLRF   03
07B98:  ADDLW  F9
07B9A:  MOVWF  FE9
07B9C:  MOVLW  04
07B9E:  ADDWFC 03,W
07BA0:  MOVWF  FEA
07BA2:  MOVFF  FEF,5CD
07BA6:  MOVF   xBD,W
07BA8:  MULLW  14
07BAA:  MOVFF  FF3,5CE
07BAE:  MOVFF  5CD,5D7
07BB2:  MOVFF  5CE,5D8
07BB6:  MOVLW  1E
07BB8:  MOVWF  xD9
07BBA:  CLRF   xDA
07BBC:  MOVLB  0
07BBE:  CALL   4A80
....................                } 
07BC2:  MOVLB  5
07BC4:  INCF   xBD,F
07BC6:  BRA    7B4C
07BC8:  MOVLB  4
....................             } 
....................       } 
....................          else 
07BCA:  BRA    7BCE
....................             {Flanco1 = 0;}   
07BCC:  BCF    x2D.1
....................              
....................       if(LEFT)//Si oprime boton de Toma. 
07BCE:  BSF    F96.2
07BD0:  BTFSC  F84.2
07BD2:  BRA    7C0E
....................       { 
....................          
....................          delay_ms(700); 
07BD4:  MOVLW  04
07BD6:  MOVLB  5
07BD8:  MOVWF  xCD
07BDA:  MOVLW  AF
07BDC:  MOVWF  xE1
07BDE:  MOVLB  0
07BE0:  CALL   1368
07BE4:  MOVLB  5
07BE6:  DECFSZ xCD,F
07BE8:  BRA    7BDA
....................          if(unidad==1){ 
07BEA:  MOVLB  4
07BEC:  DECFSZ xC6,W
07BEE:  BRA    7C0E
....................             Menu=3;glcd_fillscreen(OFF);Opcion=1;unidad=1;Contrasena[0]=0;Contrasena[1]=0;Contrasena[2]=0;Contrasena[3]=0; 
07BF0:  MOVLW  03
07BF2:  MOVWF  xC5
07BF4:  MOVLB  5
07BF6:  CLRF   xD5
07BF8:  MOVLB  0
07BFA:  CALL   1448
07BFE:  MOVLW  01
07C00:  MOVLB  4
07C02:  MOVWF  xC7
07C04:  MOVWF  xC6
07C06:  CLRF   xF9
07C08:  CLRF   xFA
07C0A:  CLRF   xFB
07C0C:  CLRF   xFC
....................          } 
....................       } 
....................        
....................       if(unidad>4) 
07C0E:  MOVF   xC6,W
07C10:  SUBLW  04
07C12:  BTFSC  FD8.0
07C14:  BRA    7D5E
....................       { 
....................          Opcion=1;glcd_fillscreen(OFF);unidad=1;n=0; 
07C16:  MOVLW  01
07C18:  MOVWF  xC7
07C1A:  MOVLB  5
07C1C:  CLRF   xD5
07C1E:  MOVLB  0
07C20:  CALL   1448
07C24:  MOVLW  01
07C26:  MOVLB  4
07C28:  MOVWF  xC6
07C2A:  BCF    x2F.0
....................          Password[0]=Contrasena[0];Password[1]=Contrasena[1];Password[2]=Contrasena[2];Password[3]=Contrasena[3]; 
07C2C:  MOVFF  4F9,4FD
07C30:  MOVFF  4FA,4FE
07C34:  MOVFF  4FB,4FF
07C38:  MOVFF  4FC,500
....................          write_eeprom(0,Password[0]); 
07C3C:  CLRF   FAA
07C3E:  CLRF   FA9
07C40:  MOVFF  4FD,FA8
07C44:  BCF    FA6.6
07C46:  BCF    FA6.7
07C48:  BSF    FA6.2
07C4A:  MOVF   FF2,W
07C4C:  MOVWF  00
07C4E:  BCF    FF2.7
07C50:  MOVLB  F
07C52:  MOVLW  55
07C54:  MOVWF  FA7
07C56:  MOVLW  AA
07C58:  MOVWF  FA7
07C5A:  BSF    FA6.1
07C5C:  BTFSC  FA6.1
07C5E:  BRA    7C5C
07C60:  BCF    FA6.2
07C62:  MOVF   00,W
07C64:  IORWF  FF2,F
....................          delay_ms(20); 
07C66:  MOVLW  14
07C68:  MOVLB  5
07C6A:  MOVWF  xE1
07C6C:  MOVLB  0
07C6E:  CALL   1368
....................          write_eeprom(1,Password[1]); 
07C72:  CLRF   FAA
07C74:  MOVLW  01
07C76:  MOVWF  FA9
07C78:  MOVFF  4FE,FA8
07C7C:  BCF    FA6.6
07C7E:  BCF    FA6.7
07C80:  BSF    FA6.2
07C82:  MOVF   FF2,W
07C84:  MOVWF  00
07C86:  BCF    FF2.7
07C88:  MOVLB  F
07C8A:  MOVLW  55
07C8C:  MOVWF  FA7
07C8E:  MOVLW  AA
07C90:  MOVWF  FA7
07C92:  BSF    FA6.1
07C94:  BTFSC  FA6.1
07C96:  BRA    7C94
07C98:  BCF    FA6.2
07C9A:  MOVF   00,W
07C9C:  IORWF  FF2,F
....................          delay_ms(20); 
07C9E:  MOVLW  14
07CA0:  MOVLB  5
07CA2:  MOVWF  xE1
07CA4:  MOVLB  0
07CA6:  CALL   1368
....................          write_eeprom(2,Password[2]); 
07CAA:  CLRF   FAA
07CAC:  MOVLW  02
07CAE:  MOVWF  FA9
07CB0:  MOVFF  4FF,FA8
07CB4:  BCF    FA6.6
07CB6:  BCF    FA6.7
07CB8:  BSF    FA6.2
07CBA:  MOVF   FF2,W
07CBC:  MOVWF  00
07CBE:  BCF    FF2.7
07CC0:  MOVLB  F
07CC2:  MOVLW  55
07CC4:  MOVWF  FA7
07CC6:  MOVLW  AA
07CC8:  MOVWF  FA7
07CCA:  BSF    FA6.1
07CCC:  BTFSC  FA6.1
07CCE:  BRA    7CCC
07CD0:  BCF    FA6.2
07CD2:  MOVF   00,W
07CD4:  IORWF  FF2,F
....................          delay_ms(20); 
07CD6:  MOVLW  14
07CD8:  MOVLB  5
07CDA:  MOVWF  xE1
07CDC:  MOVLB  0
07CDE:  CALL   1368
....................          write_eeprom(3,Password[3]); 
07CE2:  CLRF   FAA
07CE4:  MOVLW  03
07CE6:  MOVWF  FA9
07CE8:  MOVFF  500,FA8
07CEC:  BCF    FA6.6
07CEE:  BCF    FA6.7
07CF0:  BSF    FA6.2
07CF2:  MOVF   FF2,W
07CF4:  MOVWF  00
07CF6:  BCF    FF2.7
07CF8:  MOVLB  F
07CFA:  MOVLW  55
07CFC:  MOVWF  FA7
07CFE:  MOVLW  AA
07D00:  MOVWF  FA7
07D02:  BSF    FA6.1
07D04:  BTFSC  FA6.1
07D06:  BRA    7D04
07D08:  BCF    FA6.2
07D0A:  MOVF   00,W
07D0C:  IORWF  FF2,F
....................          delay_ms(20); 
07D0E:  MOVLW  14
07D10:  MOVLB  5
07D12:  MOVWF  xE1
07D14:  MOVLB  0
07D16:  CALL   1368
....................          glcd_imagen(1);glcd_update();Menu=211;delay_ms(1000);glcd_fillScreen(OFF);Menu=3; 
07D1A:  MOVLW  01
07D1C:  MOVLB  5
07D1E:  MOVWF  xCD
07D20:  MOVLB  0
07D22:  CALL   540A
07D26:  CALL   14A2
07D2A:  MOVLW  D3
07D2C:  MOVLB  4
07D2E:  MOVWF  xC5
07D30:  MOVLW  04
07D32:  MOVLB  5
07D34:  MOVWF  xCD
07D36:  MOVLW  FA
07D38:  MOVWF  xE1
07D3A:  MOVLB  0
07D3C:  CALL   1368
07D40:  MOVLB  5
07D42:  DECFSZ xCD,F
07D44:  BRA    7D36
07D46:  CLRF   xD5
07D48:  MOVLB  0
07D4A:  CALL   1448
07D4E:  MOVLW  03
07D50:  MOVLB  4
07D52:  MOVWF  xC5
....................          n=0; 
07D54:  BCF    x2F.0
....................          Contrasena[0]=0;Contrasena[1]=0;Contrasena[2]=0;Contrasena[3]=0; 
07D56:  CLRF   xF9
07D58:  CLRF   xFA
07D5A:  CLRF   xFB
07D5C:  CLRF   xFC
....................       } 
....................      
....................     } 
.................... //_--------------------------------------------------------------------------------------------------------------------------------------------------------        
....................  
.................... //_-------------------------------------------------------------------------------------------------------------------------------------------------------- 
....................       if(Menu==31){ //Menu de Mantenimiento. 
07D5E:  MOVF   xC5,W
07D60:  SUBLW  1F
07D62:  BTFSS  FD8.2
07D64:  BRA    80C0
....................        
....................          strcpy(Menus.Letra,"Manteniento"); 
07D66:  MOVLW  04
07D68:  MOVWF  FEA
07D6A:  MOVLW  17
07D6C:  MOVWF  FE9
07D6E:  MOVFF  FF2,5CD
07D72:  BCF    FF2.7
07D74:  MOVLW  00
07D76:  MOVLB  0
07D78:  CALL   111C
07D7C:  TBLRD*-
07D7E:  TBLRD*+
07D80:  MOVF   FF5,W
07D82:  MOVWF  FEE
07D84:  IORLW  00
07D86:  BNZ   7D7E
07D88:  MOVLB  5
07D8A:  BTFSC  xCD.7
07D8C:  BSF    FF2.7
....................          displayMenu(Menus.Letra,0,0,1,2); 
07D8E:  MOVLW  04
07D90:  MOVWF  xD6
07D92:  MOVLW  17
07D94:  MOVWF  xD5
07D96:  CLRF   xD7
07D98:  CLRF   xD8
07D9A:  MOVLW  01
07D9C:  MOVWF  xD9
07D9E:  MOVLW  02
07DA0:  MOVWF  xDA
07DA2:  MOVLB  0
07DA4:  CALL   4B3C
....................           
....................          strcpy(Menus.Letra,"Trabajo Filtro(h):"); 
07DA8:  MOVLW  04
07DAA:  MOVWF  FEA
07DAC:  MOVLW  17
07DAE:  MOVWF  FE9
07DB0:  MOVFF  FF2,5CD
07DB4:  BCF    FF2.7
07DB6:  MOVLW  00
07DB8:  CALL   1146
07DBC:  TBLRD*-
07DBE:  TBLRD*+
07DC0:  MOVF   FF5,W
07DC2:  MOVWF  FEE
07DC4:  IORLW  00
07DC6:  BNZ   7DBE
07DC8:  MOVLB  5
07DCA:  BTFSC  xCD.7
07DCC:  BSF    FF2.7
....................          displayMenu(Menus.Letra,10,20,1,1); 
07DCE:  MOVLW  04
07DD0:  MOVWF  xD6
07DD2:  MOVLW  17
07DD4:  MOVWF  xD5
07DD6:  MOVLW  0A
07DD8:  MOVWF  xD7
07DDA:  MOVLW  14
07DDC:  MOVWF  xD8
07DDE:  MOVLW  01
07DE0:  MOVWF  xD9
07DE2:  MOVWF  xDA
07DE4:  MOVLB  0
07DE6:  CALL   4B3C
....................          glcd_text57(0, 31, Vida_Filtro, 1, ON); 
07DEA:  MOVLB  5
07DEC:  CLRF   xE6
07DEE:  MOVLW  1F
07DF0:  MOVWF  xE7
07DF2:  MOVLW  04
07DF4:  MOVWF  xE9
07DF6:  MOVLW  9A
07DF8:  MOVWF  xE8
07DFA:  MOVLW  01
07DFC:  MOVWF  xEA
07DFE:  MOVWF  xEB
07E00:  MOVLB  0
07E02:  CALL   16BE
....................          displayTiempo(Ttrabajo[3],60,30,0,1);displayTiempo(Ttrabajo[2],67,30,0,1);displayTiempo(Ttrabajo[1],74,30,0,1);displayTiempo(Ttrabajo[0],82,30,0,1); 
07E06:  MOVFF  4F8,5CD
07E0A:  MOVLW  3C
07E0C:  MOVLB  5
07E0E:  MOVWF  xCE
07E10:  MOVLW  1E
07E12:  MOVWF  xCF
07E14:  CLRF   xD0
07E16:  MOVLW  01
07E18:  MOVWF  xD1
07E1A:  MOVLB  0
07E1C:  CALL   530E
07E20:  MOVFF  4F7,5CD
07E24:  MOVLW  43
07E26:  MOVLB  5
07E28:  MOVWF  xCE
07E2A:  MOVLW  1E
07E2C:  MOVWF  xCF
07E2E:  CLRF   xD0
07E30:  MOVLW  01
07E32:  MOVWF  xD1
07E34:  MOVLB  0
07E36:  CALL   530E
07E3A:  MOVFF  4F6,5CD
07E3E:  MOVLW  4A
07E40:  MOVLB  5
07E42:  MOVWF  xCE
07E44:  MOVLW  1E
07E46:  MOVWF  xCF
07E48:  CLRF   xD0
07E4A:  MOVLW  01
07E4C:  MOVWF  xD1
07E4E:  MOVLB  0
07E50:  CALL   530E
07E54:  MOVFF  4F5,5CD
07E58:  MOVLW  52
07E5A:  MOVLB  5
07E5C:  MOVWF  xCE
07E5E:  MOVLW  1E
07E60:  MOVWF  xCF
07E62:  CLRF   xD0
07E64:  MOVLW  01
07E66:  MOVWF  xD1
07E68:  MOVLB  0
07E6A:  CALL   530E
....................           
....................          LuzBlanca_on; 
07E6E:  BSF    F8B.0
07E70:  BCF    F94.0
....................           
....................             if(UP && RIGHT) // Reinicia Tiempo de Luz UV 
07E72:  BSF    F92.5
07E74:  BTFSC  F80.5
07E76:  BRA    7F88
07E78:  BSF    F96.1
07E7A:  BTFSC  F84.1
07E7C:  BRA    7F88
....................             { 
....................                   delay_ms(2000); 
07E7E:  MOVLW  08
07E80:  MOVLB  5
07E82:  MOVWF  xCD
07E84:  MOVLW  FA
07E86:  MOVWF  xE1
07E88:  MOVLB  0
07E8A:  CALL   1368
07E8E:  MOVLB  5
07E90:  DECFSZ xCD,F
07E92:  BRA    7E84
....................                   write_eeprom(12,0); 
07E94:  CLRF   FAA
07E96:  MOVLW  0C
07E98:  MOVWF  FA9
07E9A:  CLRF   FA8
07E9C:  BCF    FA6.6
07E9E:  BCF    FA6.7
07EA0:  BSF    FA6.2
07EA2:  MOVF   FF2,W
07EA4:  MOVWF  00
07EA6:  BCF    FF2.7
07EA8:  MOVLB  F
07EAA:  MOVLW  55
07EAC:  MOVWF  FA7
07EAE:  MOVLW  AA
07EB0:  MOVWF  FA7
07EB2:  BSF    FA6.1
07EB4:  BTFSC  FA6.1
07EB6:  BRA    7EB4
07EB8:  BCF    FA6.2
07EBA:  MOVF   00,W
07EBC:  IORWF  FF2,F
....................                   delay_ms(20); 
07EBE:  MOVLW  14
07EC0:  MOVLB  5
07EC2:  MOVWF  xE1
07EC4:  MOVLB  0
07EC6:  CALL   1368
....................                   write_eeprom(13,0); 
07ECA:  CLRF   FAA
07ECC:  MOVLW  0D
07ECE:  MOVWF  FA9
07ED0:  CLRF   FA8
07ED2:  BCF    FA6.6
07ED4:  BCF    FA6.7
07ED6:  BSF    FA6.2
07ED8:  MOVF   FF2,W
07EDA:  MOVWF  00
07EDC:  BCF    FF2.7
07EDE:  MOVLB  F
07EE0:  MOVLW  55
07EE2:  MOVWF  FA7
07EE4:  MOVLW  AA
07EE6:  MOVWF  FA7
07EE8:  BSF    FA6.1
07EEA:  BTFSC  FA6.1
07EEC:  BRA    7EEA
07EEE:  BCF    FA6.2
07EF0:  MOVF   00,W
07EF2:  IORWF  FF2,F
....................                   delay_ms(20); 
07EF4:  MOVLW  14
07EF6:  MOVLB  5
07EF8:  MOVWF  xE1
07EFA:  MOVLB  0
07EFC:  CALL   1368
....................                   write_eeprom(14,0); 
07F00:  CLRF   FAA
07F02:  MOVLW  0E
07F04:  MOVWF  FA9
07F06:  CLRF   FA8
07F08:  BCF    FA6.6
07F0A:  BCF    FA6.7
07F0C:  BSF    FA6.2
07F0E:  MOVF   FF2,W
07F10:  MOVWF  00
07F12:  BCF    FF2.7
07F14:  MOVLB  F
07F16:  MOVLW  55
07F18:  MOVWF  FA7
07F1A:  MOVLW  AA
07F1C:  MOVWF  FA7
07F1E:  BSF    FA6.1
07F20:  BTFSC  FA6.1
07F22:  BRA    7F20
07F24:  BCF    FA6.2
07F26:  MOVF   00,W
07F28:  IORWF  FF2,F
....................                   delay_ms(20); 
07F2A:  MOVLW  14
07F2C:  MOVLB  5
07F2E:  MOVWF  xE1
07F30:  MOVLB  0
07F32:  CALL   1368
....................                   write_eeprom(15,0); 
07F36:  CLRF   FAA
07F38:  MOVLW  0F
07F3A:  MOVWF  FA9
07F3C:  CLRF   FA8
07F3E:  BCF    FA6.6
07F40:  BCF    FA6.7
07F42:  BSF    FA6.2
07F44:  MOVF   FF2,W
07F46:  MOVWF  00
07F48:  BCF    FF2.7
07F4A:  MOVLB  F
07F4C:  MOVLW  55
07F4E:  MOVWF  FA7
07F50:  MOVLW  AA
07F52:  MOVWF  FA7
07F54:  BSF    FA6.1
07F56:  BTFSC  FA6.1
07F58:  BRA    7F56
07F5A:  BCF    FA6.2
07F5C:  MOVF   00,W
07F5E:  IORWF  FF2,F
....................                   delay_ms(20); 
07F60:  MOVLW  14
07F62:  MOVLB  5
07F64:  MOVWF  xE1
07F66:  MOVLB  0
07F68:  CALL   1368
....................                   Tuv[3]=0;Tuv[2]=0;Tuv[1]=0;Tuv[0]=0; 
07F6C:  MOVLB  4
07F6E:  CLRF   xF0
07F70:  CLRF   xEF
07F72:  CLRF   xEE
07F74:  CLRF   xED
....................                   Menu=3;glcd_fillscreen(OFF);LuzBlanca_off; 
07F76:  MOVLW  03
07F78:  MOVWF  xC5
07F7A:  MOVLB  5
07F7C:  CLRF   xD5
07F7E:  MOVLB  0
07F80:  CALL   1448
07F84:  BCF    F8B.0
07F86:  BCF    F94.0
....................                 
....................             } 
....................             if(DOWN && RIGHT) // Reinicia Tiempo de Trabajo 
07F88:  BSF    F96.0
07F8A:  BTFSC  F84.0
07F8C:  BRA    809E
07F8E:  BSF    F96.1
07F90:  BTFSC  F84.1
07F92:  BRA    809E
....................             { 
....................                   delay_ms(2000); 
07F94:  MOVLW  08
07F96:  MOVLB  5
07F98:  MOVWF  xCD
07F9A:  MOVLW  FA
07F9C:  MOVWF  xE1
07F9E:  MOVLB  0
07FA0:  CALL   1368
07FA4:  MOVLB  5
07FA6:  DECFSZ xCD,F
07FA8:  BRA    7F9A
....................                   write_eeprom(16,0); 
07FAA:  CLRF   FAA
07FAC:  MOVLW  10
07FAE:  MOVWF  FA9
07FB0:  CLRF   FA8
07FB2:  BCF    FA6.6
07FB4:  BCF    FA6.7
07FB6:  BSF    FA6.2
07FB8:  MOVF   FF2,W
07FBA:  MOVWF  00
07FBC:  BCF    FF2.7
07FBE:  MOVLB  F
07FC0:  MOVLW  55
07FC2:  MOVWF  FA7
07FC4:  MOVLW  AA
07FC6:  MOVWF  FA7
07FC8:  BSF    FA6.1
07FCA:  BTFSC  FA6.1
07FCC:  BRA    7FCA
07FCE:  BCF    FA6.2
07FD0:  MOVF   00,W
07FD2:  IORWF  FF2,F
....................                   delay_ms(20); 
07FD4:  MOVLW  14
07FD6:  MOVLB  5
07FD8:  MOVWF  xE1
07FDA:  MOVLB  0
07FDC:  CALL   1368
....................                   write_eeprom(17,0); 
07FE0:  CLRF   FAA
07FE2:  MOVLW  11
07FE4:  MOVWF  FA9
07FE6:  CLRF   FA8
07FE8:  BCF    FA6.6
07FEA:  BCF    FA6.7
07FEC:  BSF    FA6.2
07FEE:  MOVF   FF2,W
07FF0:  MOVWF  00
07FF2:  BCF    FF2.7
07FF4:  MOVLB  F
07FF6:  MOVLW  55
07FF8:  MOVWF  FA7
07FFA:  MOVLW  AA
07FFC:  MOVWF  FA7
07FFE:  BSF    FA6.1
08000:  BTFSC  FA6.1
08002:  BRA    8000
08004:  BCF    FA6.2
08006:  MOVF   00,W
08008:  IORWF  FF2,F
....................                   delay_ms(20); 
0800A:  MOVLW  14
0800C:  MOVLB  5
0800E:  MOVWF  xE1
08010:  MOVLB  0
08012:  CALL   1368
....................                   write_eeprom(18,0); 
08016:  CLRF   FAA
08018:  MOVLW  12
0801A:  MOVWF  FA9
0801C:  CLRF   FA8
0801E:  BCF    FA6.6
08020:  BCF    FA6.7
08022:  BSF    FA6.2
08024:  MOVF   FF2,W
08026:  MOVWF  00
08028:  BCF    FF2.7
0802A:  MOVLB  F
0802C:  MOVLW  55
0802E:  MOVWF  FA7
08030:  MOVLW  AA
08032:  MOVWF  FA7
08034:  BSF    FA6.1
08036:  BTFSC  FA6.1
08038:  BRA    8036
0803A:  BCF    FA6.2
0803C:  MOVF   00,W
0803E:  IORWF  FF2,F
....................                   delay_ms(20); 
08040:  MOVLW  14
08042:  MOVLB  5
08044:  MOVWF  xE1
08046:  MOVLB  0
08048:  CALL   1368
....................                   write_eeprom(19,0); 
0804C:  CLRF   FAA
0804E:  MOVLW  13
08050:  MOVWF  FA9
08052:  CLRF   FA8
08054:  BCF    FA6.6
08056:  BCF    FA6.7
08058:  BSF    FA6.2
0805A:  MOVF   FF2,W
0805C:  MOVWF  00
0805E:  BCF    FF2.7
08060:  MOVLB  F
08062:  MOVLW  55
08064:  MOVWF  FA7
08066:  MOVLW  AA
08068:  MOVWF  FA7
0806A:  BSF    FA6.1
0806C:  BTFSC  FA6.1
0806E:  BRA    806C
08070:  BCF    FA6.2
08072:  MOVF   00,W
08074:  IORWF  FF2,F
....................                   delay_ms(20); 
08076:  MOVLW  14
08078:  MOVLB  5
0807A:  MOVWF  xE1
0807C:  MOVLB  0
0807E:  CALL   1368
....................                   Ttrabajo[3]=0;Ttrabajo[2]=0;Ttrabajo[1]=0;Ttrabajo[0]=0; 
08082:  MOVLB  4
08084:  CLRF   xF8
08086:  CLRF   xF7
08088:  CLRF   xF6
0808A:  CLRF   xF5
....................                   Menu=3;glcd_fillscreen(OFF);LuzBlanca_off; 
0808C:  MOVLW  03
0808E:  MOVWF  xC5
08090:  MOVLB  5
08092:  CLRF   xD5
08094:  MOVLB  0
08096:  CALL   1448
0809A:  BCF    F8B.0
0809C:  BCF    F94.0
....................             } 
....................              
....................             if(LEFT) 
0809E:  BSF    F96.2
080A0:  BTFSC  F84.2
080A2:  BRA    80C2
....................             { 
....................                Menu=6;glcd_fillscreen(OFF);LuzBlanca_off;Opcion=1;unidad=1; 
080A4:  MOVLW  06
080A6:  MOVLB  4
080A8:  MOVWF  xC5
080AA:  MOVLB  5
080AC:  CLRF   xD5
080AE:  MOVLB  0
080B0:  CALL   1448
080B4:  BCF    F8B.0
080B6:  BCF    F94.0
080B8:  MOVLW  01
080BA:  MOVLB  4
080BC:  MOVWF  xC7
080BE:  MOVWF  xC6
080C0:  MOVLB  0
....................             } 
....................     } 
.................... //_--------------------------------------------------------------------------------------------------------------------------------------------------------        
....................  
.................... //_-------------------------------------------------------------------------------------------------------------------------------------------------------- 
....................       if(Menu==32){ //Menu de Servicio 
080C2:  MOVLB  4
080C4:  MOVF   xC5,W
080C6:  SUBLW  20
080C8:  BTFSS  FD8.2
080CA:  BRA    83E2
....................        
....................       strcpy(Menus.Letra,"Servicio"); 
080CC:  MOVLW  04
080CE:  MOVWF  FEA
080D0:  MOVLW  17
080D2:  MOVWF  FE9
080D4:  MOVFF  FF2,5CD
080D8:  BCF    FF2.7
080DA:  MOVLW  00
080DC:  MOVLB  0
080DE:  CALL   10A2
080E2:  TBLRD*-
080E4:  TBLRD*+
080E6:  MOVF   FF5,W
080E8:  MOVWF  FEE
080EA:  IORLW  00
080EC:  BNZ   80E4
080EE:  MOVLB  5
080F0:  BTFSC  xCD.7
080F2:  BSF    FF2.7
....................       displayMenu(Menus.Letra,10,0,1,2); 
080F4:  MOVLW  04
080F6:  MOVWF  xD6
080F8:  MOVLW  17
080FA:  MOVWF  xD5
080FC:  MOVLW  0A
080FE:  MOVWF  xD7
08100:  CLRF   xD8
08102:  MOVLW  01
08104:  MOVWF  xD9
08106:  MOVLW  02
08108:  MOVWF  xDA
0810A:  MOVLB  0
0810C:  CALL   4B3C
....................        
....................       if(Opcion==1)    
08110:  MOVLB  4
08112:  DECFSZ xC7,W
08114:  BRA    815C
....................          {strcpy(Menus.Letra,"Sensor de Flujo"); 
08116:  MOVLW  04
08118:  MOVWF  FEA
0811A:  MOVLW  17
0811C:  MOVWF  FE9
0811E:  MOVFF  FF2,5CD
08122:  BCF    FF2.7
08124:  MOVLW  00
08126:  MOVLB  0
08128:  CALL   1178
0812C:  TBLRD*-
0812E:  TBLRD*+
08130:  MOVF   FF5,W
08132:  MOVWF  FEE
08134:  IORLW  00
08136:  BNZ   812E
08138:  MOVLB  5
0813A:  BTFSC  xCD.7
0813C:  BSF    FF2.7
....................          displayMenu(Menus.Letra,0,18,1,1);} 
0813E:  MOVLW  04
08140:  MOVWF  xD6
08142:  MOVLW  17
08144:  MOVWF  xD5
08146:  CLRF   xD7
08148:  MOVLW  12
0814A:  MOVWF  xD8
0814C:  MOVLW  01
0814E:  MOVWF  xD9
08150:  MOVWF  xDA
08152:  MOVLB  0
08154:  CALL   4B3C
....................       else 
08158:  BRA    819E
0815A:  MOVLB  4
....................          {strcpy(Menus.Letra,"Sensor de Flujo"); 
0815C:  MOVLW  04
0815E:  MOVWF  FEA
08160:  MOVLW  17
08162:  MOVWF  FE9
08164:  MOVFF  FF2,5CD
08168:  BCF    FF2.7
0816A:  MOVLW  00
0816C:  MOVLB  0
0816E:  CALL   1178
08172:  TBLRD*-
08174:  TBLRD*+
08176:  MOVF   FF5,W
08178:  MOVWF  FEE
0817A:  IORLW  00
0817C:  BNZ   8174
0817E:  MOVLB  5
08180:  BTFSC  xCD.7
08182:  BSF    FF2.7
....................          displayMenu(Menus.Letra,0,18,0,1);}  
08184:  MOVLW  04
08186:  MOVWF  xD6
08188:  MOVLW  17
0818A:  MOVWF  xD5
0818C:  CLRF   xD7
0818E:  MOVLW  12
08190:  MOVWF  xD8
08192:  CLRF   xD9
08194:  MOVLW  01
08196:  MOVWF  xDA
08198:  MOVLB  0
0819A:  CALL   4B3C
....................           
....................       if(Opcion==2)    
0819E:  MOVLB  4
081A0:  MOVF   xC7,W
081A2:  SUBLW  02
081A4:  BNZ   81EC
....................          {strcpy(Menus.Letra,"Sensor de Presion"); 
081A6:  MOVLW  04
081A8:  MOVWF  FEA
081AA:  MOVLW  17
081AC:  MOVWF  FE9
081AE:  MOVFF  FF2,5CD
081B2:  BCF    FF2.7
081B4:  MOVLW  00
081B6:  MOVLB  0
081B8:  CALL   11A6
081BC:  TBLRD*-
081BE:  TBLRD*+
081C0:  MOVF   FF5,W
081C2:  MOVWF  FEE
081C4:  IORLW  00
081C6:  BNZ   81BE
081C8:  MOVLB  5
081CA:  BTFSC  xCD.7
081CC:  BSF    FF2.7
....................          displayMenu(Menus.Letra,0,29,1,1);} 
081CE:  MOVLW  04
081D0:  MOVWF  xD6
081D2:  MOVLW  17
081D4:  MOVWF  xD5
081D6:  CLRF   xD7
081D8:  MOVLW  1D
081DA:  MOVWF  xD8
081DC:  MOVLW  01
081DE:  MOVWF  xD9
081E0:  MOVWF  xDA
081E2:  MOVLB  0
081E4:  CALL   4B3C
....................       else 
081E8:  BRA    822E
081EA:  MOVLB  4
....................          {strcpy(Menus.Letra,"Sensor de Presion"); 
081EC:  MOVLW  04
081EE:  MOVWF  FEA
081F0:  MOVLW  17
081F2:  MOVWF  FE9
081F4:  MOVFF  FF2,5CD
081F8:  BCF    FF2.7
081FA:  MOVLW  00
081FC:  MOVLB  0
081FE:  CALL   11A6
08202:  TBLRD*-
08204:  TBLRD*+
08206:  MOVF   FF5,W
08208:  MOVWF  FEE
0820A:  IORLW  00
0820C:  BNZ   8204
0820E:  MOVLB  5
08210:  BTFSC  xCD.7
08212:  BSF    FF2.7
....................          displayMenu(Menus.Letra,0,29,0,1);}   
08214:  MOVLW  04
08216:  MOVWF  xD6
08218:  MOVLW  17
0821A:  MOVWF  xD5
0821C:  CLRF   xD7
0821E:  MOVLW  1D
08220:  MOVWF  xD8
08222:  CLRF   xD9
08224:  MOVLW  01
08226:  MOVWF  xDA
08228:  MOVLB  0
0822A:  CALL   4B3C
....................        
....................       if(Opcion==3)    
0822E:  MOVLB  4
08230:  MOVF   xC7,W
08232:  SUBLW  03
08234:  BNZ   827C
....................          {strcpy(Menus.Letra,"Velocidad Ventilador"); 
08236:  MOVLW  04
08238:  MOVWF  FEA
0823A:  MOVLW  17
0823C:  MOVWF  FE9
0823E:  MOVFF  FF2,5CD
08242:  BCF    FF2.7
08244:  MOVLW  00
08246:  MOVLB  0
08248:  CALL   11D6
0824C:  TBLRD*-
0824E:  TBLRD*+
08250:  MOVF   FF5,W
08252:  MOVWF  FEE
08254:  IORLW  00
08256:  BNZ   824E
08258:  MOVLB  5
0825A:  BTFSC  xCD.7
0825C:  BSF    FF2.7
....................          displayMenu(Menus.Letra,0,40,1,1);} 
0825E:  MOVLW  04
08260:  MOVWF  xD6
08262:  MOVLW  17
08264:  MOVWF  xD5
08266:  CLRF   xD7
08268:  MOVLW  28
0826A:  MOVWF  xD8
0826C:  MOVLW  01
0826E:  MOVWF  xD9
08270:  MOVWF  xDA
08272:  MOVLB  0
08274:  CALL   4B3C
....................       else 
08278:  BRA    82BE
0827A:  MOVLB  4
....................          {strcpy(Menus.Letra,"Velocidad Ventilador"); 
0827C:  MOVLW  04
0827E:  MOVWF  FEA
08280:  MOVLW  17
08282:  MOVWF  FE9
08284:  MOVFF  FF2,5CD
08288:  BCF    FF2.7
0828A:  MOVLW  00
0828C:  MOVLB  0
0828E:  CALL   11D6
08292:  TBLRD*-
08294:  TBLRD*+
08296:  MOVF   FF5,W
08298:  MOVWF  FEE
0829A:  IORLW  00
0829C:  BNZ   8294
0829E:  MOVLB  5
082A0:  BTFSC  xCD.7
082A2:  BSF    FF2.7
....................          displayMenu(Menus.Letra,0,40,0,1);}  
082A4:  MOVLW  04
082A6:  MOVWF  xD6
082A8:  MOVLW  17
082AA:  MOVWF  xD5
082AC:  CLRF   xD7
082AE:  MOVLW  28
082B0:  MOVWF  xD8
082B2:  CLRF   xD9
082B4:  MOVLW  01
082B6:  MOVWF  xDA
082B8:  MOVLB  0
082BA:  CALL   4B3C
....................        
....................          
....................       if(UP)//Si oprime hacia arriba 
082BE:  BSF    F92.5
082C0:  BTFSC  F80.5
082C2:  BRA    82DE
....................       {  if(Flanco == 0)  
082C4:  MOVLB  4
082C6:  BTFSC  x2D.0
082C8:  BRA    82DC
....................             {Flanco = 1;delay_ms(30);Opcion--; 
082CA:  BSF    x2D.0
082CC:  MOVLW  1E
082CE:  MOVLB  5
082D0:  MOVWF  xE1
082D2:  MOVLB  0
082D4:  CALL   1368
082D8:  MOVLB  4
082DA:  DECF   xC7,F
....................             } 
....................       } 
....................          else 
082DC:  BRA    82E2
....................             {Flanco = 0;} 
082DE:  MOVLB  4
082E0:  BCF    x2D.0
....................              
....................       if(DOWN)//Si oprime hacia abajo 
082E2:  BSF    F96.0
082E4:  BTFSC  F84.0
082E6:  BRA    8300
....................       {  if(Flanco2 == 0)  
082E8:  BTFSC  x2D.2
082EA:  BRA    82FE
....................             {Flanco2 = 1;delay_ms(30);Opcion++; 
082EC:  BSF    x2D.2
082EE:  MOVLW  1E
082F0:  MOVLB  5
082F2:  MOVWF  xE1
082F4:  MOVLB  0
082F6:  CALL   1368
082FA:  MOVLB  4
082FC:  INCF   xC7,F
....................             }      
....................       } 
....................          else 
082FE:  BRA    8302
....................             {Flanco2 = 0;}   
08300:  BCF    x2D.2
....................              
....................       if(RIGHT)//Si oprime SET 
08302:  BSF    F96.1
08304:  BTFSC  F84.1
08306:  BRA    8398
....................       {   
....................          delay_ms(20); 
08308:  MOVLW  14
0830A:  MOVLB  5
0830C:  MOVWF  xE1
0830E:  MOVLB  0
08310:  CALL   1368
....................          if(RIGHT){ 
08314:  BSF    F96.1
08316:  BTFSC  F84.1
08318:  BRA    839A
....................             delay_ms(100); 
0831A:  MOVLW  64
0831C:  MOVLB  5
0831E:  MOVWF  xE1
08320:  MOVLB  0
08322:  CALL   1368
....................             glcd_fillScreen(OFF); 
08326:  MOVLB  5
08328:  CLRF   xD5
0832A:  MOVLB  0
0832C:  CALL   1448
....................             while(!PidePassword(6,32,Opcion+40,4,4,4,4)){ 
08330:  MOVLW  28
08332:  MOVLB  4
08334:  ADDWF  xC7,W
08336:  MOVLB  5
08338:  MOVWF  xCD
0833A:  MOVLW  06
0833C:  MOVWF  xCE
0833E:  MOVLW  20
08340:  MOVWF  xCF
08342:  MOVFF  5CD,5D0
08346:  MOVLW  04
08348:  MOVWF  xD1
0834A:  MOVWF  xD2
0834C:  MOVWF  xD3
0834E:  MOVWF  xD4
08350:  MOVLB  0
08352:  CALL   4C0C
08356:  MOVF   01,F
08358:  BNZ   8386
....................                PidePassword(6,32,Opcion+40,4,4,4,4);glcd_update(); 
0835A:  MOVLW  28
0835C:  MOVLB  4
0835E:  ADDWF  xC7,W
08360:  MOVLB  5
08362:  MOVWF  xCD
08364:  MOVLW  06
08366:  MOVWF  xCE
08368:  MOVLW  20
0836A:  MOVWF  xCF
0836C:  MOVFF  5CD,5D0
08370:  MOVLW  04
08372:  MOVWF  xD1
08374:  MOVWF  xD2
08376:  MOVWF  xD3
08378:  MOVWF  xD4
0837A:  MOVLB  0
0837C:  CALL   4C0C
08380:  CALL   14A2
....................             }             
08384:  BRA    8330
....................             glcd_fillScreen(OFF);Opcion=1;unidad=1; 
08386:  MOVLB  5
08388:  CLRF   xD5
0838A:  MOVLB  0
0838C:  CALL   1448
08390:  MOVLW  01
08392:  MOVLB  4
08394:  MOVWF  xC7
08396:  MOVWF  xC6
08398:  MOVLB  0
....................          } 
....................       } 
....................              
....................       if(LEFT)//Si oprime boton de Toma. 
0839A:  BSF    F96.2
0839C:  BTFSC  F84.2
0839E:  BRA    83CE
....................         {delay_ms(700);Menu=6;glcd_fillscreen(OFF);Opcion=1;unidad=1;} 
083A0:  MOVLW  04
083A2:  MOVLB  5
083A4:  MOVWF  xCD
083A6:  MOVLW  AF
083A8:  MOVWF  xE1
083AA:  MOVLB  0
083AC:  CALL   1368
083B0:  MOVLB  5
083B2:  DECFSZ xCD,F
083B4:  BRA    83A6
083B6:  MOVLW  06
083B8:  MOVLB  4
083BA:  MOVWF  xC5
083BC:  MOVLB  5
083BE:  CLRF   xD5
083C0:  MOVLB  0
083C2:  CALL   1448
083C6:  MOVLW  01
083C8:  MOVLB  4
083CA:  MOVWF  xC7
083CC:  MOVWF  xC6
....................          
....................       if(Opcion>3) 
083CE:  MOVLB  4
083D0:  MOVF   xC7,W
083D2:  SUBLW  03
083D4:  BC    83DA
....................       {Opcion=1;} 
083D6:  MOVLW  01
083D8:  MOVWF  xC7
....................       if(Opcion<1) 
083DA:  MOVF   xC7,F
083DC:  BNZ   83E2
....................       {Opcion=3;} 
083DE:  MOVLW  03
083E0:  MOVWF  xC7
....................     } 
.................... //_--------------------------------------------------------------------------------------------------------------------------------------------------------        
....................  
.................... //_-------------------------------------------------------------------------------------------------------------------------------------------------------- 
....................       if(Menu==41){ //Menu de Sensor de Flujo. 
083E2:  MOVF   xC5,W
083E4:  SUBLW  29
083E6:  BTFSS  FD8.2
083E8:  BRA    89B0
....................        
....................       if(Ajuste1>10.0) 
083EA:  MOVLB  6
083EC:  CLRF   x01
083EE:  CLRF   x00
083F0:  MOVLW  20
083F2:  MOVLB  5
083F4:  MOVWF  xFF
083F6:  MOVLW  82
083F8:  MOVWF  xFE
083FA:  MOVFF  524,605
083FE:  MOVFF  523,604
08402:  MOVFF  522,603
08406:  MOVFF  521,602
0840A:  MOVLB  0
0840C:  CALL   244E
08410:  BNC   841E
....................          Ajuste1=0.0; 
08412:  MOVLB  5
08414:  CLRF   x24
08416:  CLRF   x23
08418:  CLRF   x22
0841A:  CLRF   x21
0841C:  MOVLB  0
....................        
....................       strcpy(Menus.Letra,"Sensor de Flujo"); 
0841E:  MOVLW  04
08420:  MOVWF  FEA
08422:  MOVLW  17
08424:  MOVWF  FE9
08426:  MOVFF  FF2,5CD
0842A:  BCF    FF2.7
0842C:  MOVLW  00
0842E:  CALL   1178
08432:  TBLRD*-
08434:  TBLRD*+
08436:  MOVF   FF5,W
08438:  MOVWF  FEE
0843A:  IORLW  00
0843C:  BNZ   8434
0843E:  MOVLB  5
08440:  BTFSC  xCD.7
08442:  BSF    FF2.7
....................       displayMenu(Menus.Letra,10,0,1,1); 
08444:  MOVLW  04
08446:  MOVWF  xD6
08448:  MOVLW  17
0844A:  MOVWF  xD5
0844C:  MOVLW  0A
0844E:  MOVWF  xD7
08450:  CLRF   xD8
08452:  MOVLW  01
08454:  MOVWF  xD9
08456:  MOVWF  xDA
08458:  MOVLB  0
0845A:  CALL   4B3C
....................        
....................       glcd_text57(0, 12, ZF, 1, ON); 
0845E:  MOVLB  5
08460:  CLRF   xE6
08462:  MOVLW  0C
08464:  MOVWF  xE7
08466:  MOVLW  04
08468:  MOVWF  xE9
0846A:  MOVLW  7C
0846C:  MOVWF  xE8
0846E:  MOVLW  01
08470:  MOVWF  xEA
08472:  MOVWF  xEB
08474:  MOVLB  0
08476:  CALL   16BE
....................        
....................       glcd_text57(0, 20, ZA, 1, ON); 
0847A:  MOVLB  5
0847C:  CLRF   xE6
0847E:  MOVLW  14
08480:  MOVWF  xE7
08482:  MOVLW  04
08484:  MOVWF  xE9
08486:  MOVLW  8A
08488:  MOVWF  xE8
0848A:  MOVLW  01
0848C:  MOVWF  xEA
0848E:  MOVWF  xEB
08490:  MOVLB  0
08492:  CALL   16BE
....................        
....................       glcd_text57(0, 30, AJ, 1, ON);            
08496:  MOVLB  5
08498:  CLRF   xE6
0849A:  MOVLW  1E
0849C:  MOVWF  xE7
0849E:  MOVLW  04
084A0:  MOVWF  xE9
084A2:  MOVLW  92
084A4:  MOVWF  xE8
084A6:  MOVLW  01
084A8:  MOVWF  xEA
084AA:  MOVWF  xEB
084AC:  MOVLB  0
084AE:  CALL   16BE
....................        
....................       displayfloat(zero_actual,44,20,0,1); 
084B2:  MOVFF  5AC,5D4
084B6:  MOVFF  5AB,5D3
084BA:  MOVFF  5AA,5D2
084BE:  MOVFF  5A9,5D1
084C2:  MOVLW  2C
084C4:  MOVLB  5
084C6:  MOVWF  xD5
084C8:  MOVLW  14
084CA:  MOVWF  xD6
084CC:  CLRF   xD7
084CE:  MOVLW  01
084D0:  MOVWF  xD8
084D2:  MOVLB  0
084D4:  CALL   5890
....................       displayfloat(Ajuste1,44,30,0,1); 
084D8:  MOVFF  524,5D4
084DC:  MOVFF  523,5D3
084E0:  MOVFF  522,5D2
084E4:  MOVFF  521,5D1
084E8:  MOVLW  2C
084EA:  MOVLB  5
084EC:  MOVWF  xD5
084EE:  MOVLW  1E
084F0:  MOVWF  xD6
084F2:  CLRF   xD7
084F4:  MOVLW  01
084F6:  MOVWF  xD8
084F8:  MOVLB  0
084FA:  CALL   5890
....................       displayfloat(Inflow_adc,0,40,0,1); 
084FE:  MOVFF  4D4,603
08502:  MOVFF  4D3,602
08506:  CALL   1878
0850A:  MOVFF  00,5CD
0850E:  MOVFF  01,5CE
08512:  MOVFF  02,5CF
08516:  MOVFF  03,5D0
0851A:  MOVFF  03,5D4
0851E:  MOVFF  02,5D3
08522:  MOVFF  01,5D2
08526:  MOVFF  00,5D1
0852A:  MOVLB  5
0852C:  CLRF   xD5
0852E:  MOVLW  28
08530:  MOVWF  xD6
08532:  CLRF   xD7
08534:  MOVLW  01
08536:  MOVWF  xD8
08538:  MOVLB  0
0853A:  CALL   5890
.................... //      displayfloat(Diferencia,0,50,0,1); 
....................        
....................       if(UP)//Si oprime hacia arriba 
0853E:  BSF    F92.5
08540:  BTFSC  F80.5
08542:  BRA    858A
....................       {   
....................          delay_ms(30);Ajuste1+=0.01; 
08544:  MOVLW  1E
08546:  MOVLB  5
08548:  MOVWF  xE1
0854A:  MOVLB  0
0854C:  CALL   1368
08550:  BCF    FD8.1
08552:  MOVFF  524,605
08556:  MOVFF  523,604
0855A:  MOVFF  522,603
0855E:  MOVFF  521,602
08562:  MOVLW  0A
08564:  MOVLB  6
08566:  MOVWF  x09
08568:  MOVLW  D7
0856A:  MOVWF  x08
0856C:  MOVLW  23
0856E:  MOVWF  x07
08570:  MOVLW  78
08572:  MOVWF  x06
08574:  MOVLB  0
08576:  CALL   1A2C
0857A:  MOVFF  03,524
0857E:  MOVFF  02,523
08582:  MOVFF  01,522
08586:  MOVFF  00,521
....................       } 
....................              
....................       if(DOWN)//Si oprime hacia abajo 
0858A:  BSF    F96.0
0858C:  BTFSC  F84.0
0858E:  BRA    85D6
....................       {    
....................          delay_ms(30);Ajuste1-=0.01; 
08590:  MOVLW  1E
08592:  MOVLB  5
08594:  MOVWF  xE1
08596:  MOVLB  0
08598:  CALL   1368
0859C:  BSF    FD8.1
0859E:  MOVFF  524,605
085A2:  MOVFF  523,604
085A6:  MOVFF  522,603
085AA:  MOVFF  521,602
085AE:  MOVLW  0A
085B0:  MOVLB  6
085B2:  MOVWF  x09
085B4:  MOVLW  D7
085B6:  MOVWF  x08
085B8:  MOVLW  23
085BA:  MOVWF  x07
085BC:  MOVLW  78
085BE:  MOVWF  x06
085C0:  MOVLB  0
085C2:  CALL   1A2C
085C6:  MOVFF  03,524
085CA:  MOVFF  02,523
085CE:  MOVFF  01,522
085D2:  MOVFF  00,521
....................       } 
....................              
....................       if(RIGHT)//Si oprime SET 
085D6:  BSF    F96.1
085D8:  BTFSC  F84.1
085DA:  BRA    884A
....................       {   
....................          zero_actual=Inflow_adc; 
085DC:  MOVFF  4D4,603
085E0:  MOVFF  4D3,602
085E4:  CALL   1878
085E8:  MOVFF  03,5AC
085EC:  MOVFF  02,5AB
085F0:  MOVFF  01,5AA
085F4:  MOVFF  00,5A9
....................          Diferencia=zero_fabrica-Inflow_adc; 
085F8:  MOVFF  4D4,603
085FC:  MOVFF  4D3,602
08600:  CALL   1878
08604:  BSF    FD8.1
08606:  MOVFF  5A8,605
0860A:  MOVFF  5A7,604
0860E:  MOVFF  5A6,603
08612:  MOVFF  5A5,602
08616:  MOVFF  03,609
0861A:  MOVFF  02,608
0861E:  MOVFF  01,607
08622:  MOVFF  00,606
08626:  CALL   1A2C
0862A:  MOVFF  03,510
0862E:  MOVFF  02,50F
08632:  MOVFF  01,50E
08636:  MOVFF  00,50D
....................              
....................          if(Diferencia>=0) 
0863A:  MOVLB  6
0863C:  CLRF   x01
0863E:  CLRF   x00
08640:  MOVLB  5
08642:  CLRF   xFF
08644:  CLRF   xFE
08646:  MOVFF  510,605
0864A:  MOVFF  50F,604
0864E:  MOVFF  50E,603
08652:  MOVFF  50D,602
08656:  MOVLB  0
08658:  CALL   244E
0865C:  BC    8660
0865E:  BNZ   869E
....................          { 
....................             negativo=10;write_eeprom(50,negativo);delay_ms(20); 
08660:  MOVLW  0A
08662:  MOVLB  4
08664:  MOVWF  xC8
08666:  CLRF   FAA
08668:  MOVLW  32
0866A:  MOVWF  FA9
0866C:  MOVFF  4C8,FA8
08670:  BCF    FA6.6
08672:  BCF    FA6.7
08674:  BSF    FA6.2
08676:  MOVF   FF2,W
08678:  MOVWF  00
0867A:  BCF    FF2.7
0867C:  MOVLB  F
0867E:  MOVLW  55
08680:  MOVWF  FA7
08682:  MOVLW  AA
08684:  MOVWF  FA7
08686:  BSF    FA6.1
08688:  BTFSC  FA6.1
0868A:  BRA    8688
0868C:  BCF    FA6.2
0868E:  MOVF   00,W
08690:  IORWF  FF2,F
08692:  MOVLW  14
08694:  MOVLB  5
08696:  MOVWF  xE1
08698:  MOVLB  0
0869A:  CALL   1368
....................          } 
....................          if(Diferencia<0) 
0869E:  MOVFF  510,601
086A2:  MOVFF  50F,600
086A6:  MOVFF  50E,5FF
086AA:  MOVFF  50D,5FE
086AE:  MOVLB  6
086B0:  CLRF   x05
086B2:  CLRF   x04
086B4:  CLRF   x03
086B6:  CLRF   x02
086B8:  MOVLB  0
086BA:  CALL   244E
086BE:  BNC   86FE
....................          { 
....................             negativo=20;write_eeprom(50,negativo);delay_ms(20); 
086C0:  MOVLW  14
086C2:  MOVLB  4
086C4:  MOVWF  xC8
086C6:  CLRF   FAA
086C8:  MOVLW  32
086CA:  MOVWF  FA9
086CC:  MOVFF  4C8,FA8
086D0:  BCF    FA6.6
086D2:  BCF    FA6.7
086D4:  BSF    FA6.2
086D6:  MOVF   FF2,W
086D8:  MOVWF  00
086DA:  BCF    FF2.7
086DC:  MOVLB  F
086DE:  MOVLW  55
086E0:  MOVWF  FA7
086E2:  MOVLW  AA
086E4:  MOVWF  FA7
086E6:  BSF    FA6.1
086E8:  BTFSC  FA6.1
086EA:  BRA    86E8
086EC:  BCF    FA6.2
086EE:  MOVF   00,W
086F0:  IORWF  FF2,F
086F2:  MOVLW  14
086F4:  MOVLB  5
086F6:  MOVWF  xE1
086F8:  MOVLB  0
086FA:  CALL   1368
....................          } 
....................          Diferencia=abs(Diferencia); 
086FE:  MOVFF  50D,00
08702:  MOVFF  50E,01
08706:  MOVFF  50F,02
0870A:  MOVFF  510,03
0870E:  BCF    01.7
08710:  MOVFF  510,510
08714:  MOVFF  50F,50F
08718:  MOVFF  01,50E
0871C:  MOVFF  50D,50D
....................          Temporal1=(int16)Diferencia; 
08720:  MOVFF  510,601
08724:  MOVFF  50F,600
08728:  MOVFF  50E,5FF
0872C:  MOVFF  50D,5FE
08730:  CALL   2ECA
08734:  MOVFF  02,4D8
08738:  MOVFF  01,4D7
....................          write_eeprom(60,make8(Temporal1,0)); 
0873C:  MOVFF  4D7,5CD
08740:  CLRF   FAA
08742:  MOVLW  3C
08744:  MOVWF  FA9
08746:  MOVFF  5CD,FA8
0874A:  BCF    FA6.6
0874C:  BCF    FA6.7
0874E:  BSF    FA6.2
08750:  MOVF   FF2,W
08752:  MOVWF  00
08754:  BCF    FF2.7
08756:  MOVLB  F
08758:  MOVLW  55
0875A:  MOVWF  FA7
0875C:  MOVLW  AA
0875E:  MOVWF  FA7
08760:  BSF    FA6.1
08762:  BTFSC  FA6.1
08764:  BRA    8762
08766:  BCF    FA6.2
08768:  MOVF   00,W
0876A:  IORWF  FF2,F
....................          delay_ms(20); 
0876C:  MOVLW  14
0876E:  MOVLB  5
08770:  MOVWF  xE1
08772:  MOVLB  0
08774:  CALL   1368
....................          write_eeprom(61,make8(Temporal1,1));//Guardar valor de Setpoint en eeprom 
08778:  MOVFF  4D8,5CD
0877C:  CLRF   FAA
0877E:  MOVLW  3D
08780:  MOVWF  FA9
08782:  MOVFF  5CD,FA8
08786:  BCF    FA6.6
08788:  BCF    FA6.7
0878A:  BSF    FA6.2
0878C:  MOVF   FF2,W
0878E:  MOVWF  00
08790:  BCF    FF2.7
08792:  MOVLB  F
08794:  MOVLW  55
08796:  MOVWF  FA7
08798:  MOVLW  AA
0879A:  MOVWF  FA7
0879C:  BSF    FA6.1
0879E:  BTFSC  FA6.1
087A0:  BRA    879E
087A2:  BCF    FA6.2
087A4:  MOVF   00,W
087A6:  IORWF  FF2,F
....................          delay_ms(20); 
087A8:  MOVLW  14
087AA:  MOVLB  5
087AC:  MOVWF  xE1
087AE:  MOVLB  0
087B0:  CALL   1368
....................  
....................          Temporal1=(int16)zero_actual; 
087B4:  MOVFF  5AC,601
087B8:  MOVFF  5AB,600
087BC:  MOVFF  5AA,5FF
087C0:  MOVFF  5A9,5FE
087C4:  CALL   2ECA
087C8:  MOVFF  02,4D8
087CC:  MOVFF  01,4D7
....................          write_eeprom(29,make8(Temporal1,0)); 
087D0:  MOVFF  4D7,5CD
087D4:  CLRF   FAA
087D6:  MOVLW  1D
087D8:  MOVWF  FA9
087DA:  MOVFF  5CD,FA8
087DE:  BCF    FA6.6
087E0:  BCF    FA6.7
087E2:  BSF    FA6.2
087E4:  MOVF   FF2,W
087E6:  MOVWF  00
087E8:  BCF    FF2.7
087EA:  MOVLB  F
087EC:  MOVLW  55
087EE:  MOVWF  FA7
087F0:  MOVLW  AA
087F2:  MOVWF  FA7
087F4:  BSF    FA6.1
087F6:  BTFSC  FA6.1
087F8:  BRA    87F6
087FA:  BCF    FA6.2
087FC:  MOVF   00,W
087FE:  IORWF  FF2,F
....................          delay_ms(20); 
08800:  MOVLW  14
08802:  MOVLB  5
08804:  MOVWF  xE1
08806:  MOVLB  0
08808:  CALL   1368
....................          write_eeprom(30,make8(Temporal1,1));//Guardar valor de Setpoint en eeprom 
0880C:  MOVFF  4D8,5CD
08810:  CLRF   FAA
08812:  MOVLW  1E
08814:  MOVWF  FA9
08816:  MOVFF  5CD,FA8
0881A:  BCF    FA6.6
0881C:  BCF    FA6.7
0881E:  BSF    FA6.2
08820:  MOVF   FF2,W
08822:  MOVWF  00
08824:  BCF    FF2.7
08826:  MOVLB  F
08828:  MOVLW  55
0882A:  MOVWF  FA7
0882C:  MOVLW  AA
0882E:  MOVWF  FA7
08830:  BSF    FA6.1
08832:  BTFSC  FA6.1
08834:  BRA    8832
08836:  BCF    FA6.2
08838:  MOVF   00,W
0883A:  IORWF  FF2,F
....................          delay_ms(20); 
0883C:  MOVLW  14
0883E:  MOVLB  5
08840:  MOVWF  xE1
08842:  MOVLB  0
08844:  CALL   1368
....................       } 
....................          else 
08848:  BRA    8850
....................             {Flanco1 = 0;}   
0884A:  MOVLB  4
0884C:  BCF    x2D.1
0884E:  MOVLB  0
....................              
....................       if(LEFT)//Si oprime boton de Toma. 
08850:  BSF    F96.2
08852:  BTFSC  F84.2
08854:  BRA    89AE
....................       { 
....................          delay_ms(700);Menu=32;glcd_fillscreen(OFF);Opcion=1;unidad=1; 
08856:  MOVLW  04
08858:  MOVLB  5
0885A:  MOVWF  xCD
0885C:  MOVLW  AF
0885E:  MOVWF  xE1
08860:  MOVLB  0
08862:  CALL   1368
08866:  MOVLB  5
08868:  DECFSZ xCD,F
0886A:  BRA    885C
0886C:  MOVLW  20
0886E:  MOVLB  4
08870:  MOVWF  xC5
08872:  MOVLB  5
08874:  CLRF   xD5
08876:  MOVLB  0
08878:  CALL   1448
0887C:  MOVLW  01
0887E:  MOVLB  4
08880:  MOVWF  xC7
08882:  MOVWF  xC6
....................          Temporal=Ajuste1; 
08884:  MOVFF  524,52C
08888:  MOVFF  523,52B
0888C:  MOVFF  522,52A
08890:  MOVFF  521,529
....................          Entero=(int)Ajuste1; 
08894:  MOVFF  524,601
08898:  MOVFF  523,600
0889C:  MOVFF  522,5FF
088A0:  MOVFF  521,5FE
088A4:  MOVLB  0
088A6:  CALL   2ECA
088AA:  MOVFF  01,4D0
....................          Temporal=Temporal-Entero; 
088AE:  MOVLB  6
088B0:  CLRF   x03
088B2:  MOVFF  4D0,602
088B6:  MOVLB  0
088B8:  CALL   1878
088BC:  BSF    FD8.1
088BE:  MOVFF  52C,605
088C2:  MOVFF  52B,604
088C6:  MOVFF  52A,603
088CA:  MOVFF  529,602
088CE:  MOVFF  03,609
088D2:  MOVFF  02,608
088D6:  MOVFF  01,607
088DA:  MOVFF  00,606
088DE:  CALL   1A2C
088E2:  MOVFF  03,52C
088E6:  MOVFF  02,52B
088EA:  MOVFF  01,52A
088EE:  MOVFF  00,529
....................          Temporal2=Temporal*10.0; 
088F2:  MOVFF  52C,601
088F6:  MOVFF  52B,600
088FA:  MOVFF  52A,5FF
088FE:  MOVFF  529,5FE
08902:  MOVLB  6
08904:  CLRF   x05
08906:  CLRF   x04
08908:  MOVLW  20
0890A:  MOVWF  x03
0890C:  MOVLW  82
0890E:  MOVWF  x02
08910:  MOVLB  0
08912:  CALL   2F06
08916:  MOVFF  03,530
0891A:  MOVFF  02,52F
0891E:  MOVFF  01,52E
08922:  MOVFF  00,52D
....................          Decimal1=(int8)Temporal2; 
08926:  MOVFF  530,601
0892A:  MOVFF  52F,600
0892E:  MOVFF  52E,5FF
08932:  MOVFF  52D,5FE
08936:  CALL   2ECA
0893A:  MOVFF  01,4D1
....................          write_eeprom(25,Entero); 
0893E:  CLRF   FAA
08940:  MOVLW  19
08942:  MOVWF  FA9
08944:  MOVFF  4D0,FA8
08948:  BCF    FA6.6
0894A:  BCF    FA6.7
0894C:  BSF    FA6.2
0894E:  MOVF   FF2,W
08950:  MOVWF  00
08952:  BCF    FF2.7
08954:  MOVLB  F
08956:  MOVLW  55
08958:  MOVWF  FA7
0895A:  MOVLW  AA
0895C:  MOVWF  FA7
0895E:  BSF    FA6.1
08960:  BTFSC  FA6.1
08962:  BRA    8960
08964:  BCF    FA6.2
08966:  MOVF   00,W
08968:  IORWF  FF2,F
....................          delay_ms(20); 
0896A:  MOVLW  14
0896C:  MOVLB  5
0896E:  MOVWF  xE1
08970:  MOVLB  0
08972:  CALL   1368
....................          write_eeprom(26,Decimal1); 
08976:  CLRF   FAA
08978:  MOVLW  1A
0897A:  MOVWF  FA9
0897C:  MOVFF  4D1,FA8
08980:  BCF    FA6.6
08982:  BCF    FA6.7
08984:  BSF    FA6.2
08986:  MOVF   FF2,W
08988:  MOVWF  00
0898A:  BCF    FF2.7
0898C:  MOVLB  F
0898E:  MOVLW  55
08990:  MOVWF  FA7
08992:  MOVLW  AA
08994:  MOVWF  FA7
08996:  BSF    FA6.1
08998:  BTFSC  FA6.1
0899A:  BRA    8998
0899C:  BCF    FA6.2
0899E:  MOVF   00,W
089A0:  IORWF  FF2,F
....................          delay_ms(20); 
089A2:  MOVLW  14
089A4:  MOVLB  5
089A6:  MOVWF  xE1
089A8:  MOVLB  0
089AA:  CALL   1368
089AE:  MOVLB  4
....................       } 
....................     } 
.................... //_--------------------------------------------------------------------------------------------------------------------------------------------------------        
....................  
.................... //_-------------------------------------------------------------------------------------------------------------------------------------------------------- 
....................       if(Menu==42){ //Menu de Sensor de Presin. 
089B0:  MOVF   xC5,W
089B2:  SUBLW  2A
089B4:  BTFSS  FD8.2
089B6:  BRA    8DE6
....................        
....................       if(Ajuste2>10.0) 
089B8:  MOVLB  6
089BA:  CLRF   x01
089BC:  CLRF   x00
089BE:  MOVLW  20
089C0:  MOVLB  5
089C2:  MOVWF  xFF
089C4:  MOVLW  82
089C6:  MOVWF  xFE
089C8:  MOVFF  528,605
089CC:  MOVFF  527,604
089D0:  MOVFF  526,603
089D4:  MOVFF  525,602
089D8:  MOVLB  0
089DA:  CALL   244E
089DE:  BNC   89EC
....................          Ajuste2=0.0; 
089E0:  MOVLB  5
089E2:  CLRF   x28
089E4:  CLRF   x27
089E6:  CLRF   x26
089E8:  CLRF   x25
089EA:  MOVLB  0
....................        
....................       strcpy(Menus.Letra,"Sensor de Presion"); 
089EC:  MOVLW  04
089EE:  MOVWF  FEA
089F0:  MOVLW  17
089F2:  MOVWF  FE9
089F4:  MOVFF  FF2,5CD
089F8:  BCF    FF2.7
089FA:  MOVLW  00
089FC:  CALL   11A6
08A00:  TBLRD*-
08A02:  TBLRD*+
08A04:  MOVF   FF5,W
08A06:  MOVWF  FEE
08A08:  IORLW  00
08A0A:  BNZ   8A02
08A0C:  MOVLB  5
08A0E:  BTFSC  xCD.7
08A10:  BSF    FF2.7
....................       displayMenu(Menus.Letra,10,0,1,1); 
08A12:  MOVLW  04
08A14:  MOVWF  xD6
08A16:  MOVLW  17
08A18:  MOVWF  xD5
08A1A:  MOVLW  0A
08A1C:  MOVWF  xD7
08A1E:  CLRF   xD8
08A20:  MOVLW  01
08A22:  MOVWF  xD9
08A24:  MOVWF  xDA
08A26:  MOVLB  0
08A28:  CALL   4B3C
....................        
....................       glcd_text57(0, 12, ZFP, 1, ON); 
08A2C:  MOVLB  5
08A2E:  CLRF   xE6
08A30:  MOVLW  0C
08A32:  MOVWF  xE7
08A34:  MOVLW  04
08A36:  MOVWF  xE9
08A38:  MOVLW  A5
08A3A:  MOVWF  xE8
08A3C:  MOVLW  01
08A3E:  MOVWF  xEA
08A40:  MOVWF  xEB
08A42:  MOVLB  0
08A44:  CALL   16BE
....................        
....................       glcd_text57(0, 20, ZA, 1, ON); 
08A48:  MOVLB  5
08A4A:  CLRF   xE6
08A4C:  MOVLW  14
08A4E:  MOVWF  xE7
08A50:  MOVLW  04
08A52:  MOVWF  xE9
08A54:  MOVLW  8A
08A56:  MOVWF  xE8
08A58:  MOVLW  01
08A5A:  MOVWF  xEA
08A5C:  MOVWF  xEB
08A5E:  MOVLB  0
08A60:  CALL   16BE
....................        
....................       glcd_text57(0, 30, AJ, 1, ON);            
08A64:  MOVLB  5
08A66:  CLRF   xE6
08A68:  MOVLW  1E
08A6A:  MOVWF  xE7
08A6C:  MOVLW  04
08A6E:  MOVWF  xE9
08A70:  MOVLW  92
08A72:  MOVWF  xE8
08A74:  MOVLW  01
08A76:  MOVWF  xEA
08A78:  MOVWF  xEB
08A7A:  MOVLB  0
08A7C:  CALL   16BE
....................        
....................       displayfloat(G,44,20,0,1); 
08A80:  MOVFF  5B8,5D4
08A84:  MOVFF  5B7,5D3
08A88:  MOVFF  5B6,5D2
08A8C:  MOVFF  5B5,5D1
08A90:  MOVLW  2C
08A92:  MOVLB  5
08A94:  MOVWF  xD5
08A96:  MOVLW  14
08A98:  MOVWF  xD6
08A9A:  CLRF   xD7
08A9C:  MOVLW  01
08A9E:  MOVWF  xD8
08AA0:  MOVLB  0
08AA2:  CALL   5890
....................       displayfloat(Ajuste2,44,30,0,1); 
08AA6:  MOVFF  528,5D4
08AAA:  MOVFF  527,5D3
08AAE:  MOVFF  526,5D2
08AB2:  MOVFF  525,5D1
08AB6:  MOVLW  2C
08AB8:  MOVLB  5
08ABA:  MOVWF  xD5
08ABC:  MOVLW  1E
08ABE:  MOVWF  xD6
08AC0:  CLRF   xD7
08AC2:  MOVLW  01
08AC4:  MOVWF  xD8
08AC6:  MOVLB  0
08AC8:  CALL   5890
....................       displayfloat(Filtro_DownFlow_adc,0,40,0,1); 
08ACC:  MOVFF  4D6,603
08AD0:  MOVFF  4D5,602
08AD4:  CALL   1878
08AD8:  MOVFF  00,5CD
08ADC:  MOVFF  01,5CE
08AE0:  MOVFF  02,5CF
08AE4:  MOVFF  03,5D0
08AE8:  MOVFF  03,5D4
08AEC:  MOVFF  02,5D3
08AF0:  MOVFF  01,5D2
08AF4:  MOVFF  00,5D1
08AF8:  MOVLB  5
08AFA:  CLRF   xD5
08AFC:  MOVLW  28
08AFE:  MOVWF  xD6
08B00:  CLRF   xD7
08B02:  MOVLW  01
08B04:  MOVWF  xD8
08B06:  MOVLB  0
08B08:  CALL   5890
....................       displayfloat(Filtro_DownFlow,0,50,0,1); 
08B0C:  MOVFF  50C,5D4
08B10:  MOVFF  50B,5D3
08B14:  MOVFF  50A,5D2
08B18:  MOVFF  509,5D1
08B1C:  MOVLB  5
08B1E:  CLRF   xD5
08B20:  MOVLW  32
08B22:  MOVWF  xD6
08B24:  CLRF   xD7
08B26:  MOVLW  01
08B28:  MOVWF  xD8
08B2A:  MOVLB  0
08B2C:  CALL   5890
....................        
....................       if(UP)//Si oprime hacia arriba 
08B30:  BSF    F92.5
08B32:  BTFSC  F80.5
08B34:  BRA    8B7C
....................       {   
....................          delay_ms(30);Ajuste2+=0.01; 
08B36:  MOVLW  1E
08B38:  MOVLB  5
08B3A:  MOVWF  xE1
08B3C:  MOVLB  0
08B3E:  CALL   1368
08B42:  BCF    FD8.1
08B44:  MOVFF  528,605
08B48:  MOVFF  527,604
08B4C:  MOVFF  526,603
08B50:  MOVFF  525,602
08B54:  MOVLW  0A
08B56:  MOVLB  6
08B58:  MOVWF  x09
08B5A:  MOVLW  D7
08B5C:  MOVWF  x08
08B5E:  MOVLW  23
08B60:  MOVWF  x07
08B62:  MOVLW  78
08B64:  MOVWF  x06
08B66:  MOVLB  0
08B68:  CALL   1A2C
08B6C:  MOVFF  03,528
08B70:  MOVFF  02,527
08B74:  MOVFF  01,526
08B78:  MOVFF  00,525
....................       } 
....................              
....................       if(DOWN)//Si oprime hacia abajo 
08B7C:  BSF    F96.0
08B7E:  BTFSC  F84.0
08B80:  BRA    8BC8
....................       {   
....................          delay_ms(30);Ajuste2-=0.01; 
08B82:  MOVLW  1E
08B84:  MOVLB  5
08B86:  MOVWF  xE1
08B88:  MOVLB  0
08B8A:  CALL   1368
08B8E:  BSF    FD8.1
08B90:  MOVFF  528,605
08B94:  MOVFF  527,604
08B98:  MOVFF  526,603
08B9C:  MOVFF  525,602
08BA0:  MOVLW  0A
08BA2:  MOVLB  6
08BA4:  MOVWF  x09
08BA6:  MOVLW  D7
08BA8:  MOVWF  x08
08BAA:  MOVLW  23
08BAC:  MOVWF  x07
08BAE:  MOVLW  78
08BB0:  MOVWF  x06
08BB2:  MOVLB  0
08BB4:  CALL   1A2C
08BB8:  MOVFF  03,528
08BBC:  MOVFF  02,527
08BC0:  MOVFF  01,526
08BC4:  MOVFF  00,525
....................       } 
....................              
....................       if(RIGHT)//Si oprime SET 
08BC8:  BSF    F96.1
08BCA:  BTFSC  F84.1
08BCC:  BRA    8C80
....................       {            
....................          G=Filtro_Downflow_adc; 
08BCE:  MOVFF  4D6,603
08BD2:  MOVFF  4D5,602
08BD6:  CALL   1878
08BDA:  MOVFF  03,5B8
08BDE:  MOVFF  02,5B7
08BE2:  MOVFF  01,5B6
08BE6:  MOVFF  00,5B5
....................          G16=(int16)G; 
08BEA:  MOVFF  5B8,601
08BEE:  MOVFF  5B7,600
08BF2:  MOVFF  5B6,5FF
08BF6:  MOVFF  5B5,5FE
08BFA:  CALL   2ECA
08BFE:  MOVFF  02,4E0
08C02:  MOVFF  01,4DF
....................          G_l=G16; G_h=(G16>>8); 
08C06:  MOVFF  4DF,4C9
08C0A:  MOVFF  4E0,4CA
....................              
....................          write_eeprom(62,G_l); 
08C0E:  CLRF   FAA
08C10:  MOVLW  3E
08C12:  MOVWF  FA9
08C14:  MOVFF  4C9,FA8
08C18:  BCF    FA6.6
08C1A:  BCF    FA6.7
08C1C:  BSF    FA6.2
08C1E:  MOVF   FF2,W
08C20:  MOVWF  00
08C22:  BCF    FF2.7
08C24:  MOVLB  F
08C26:  MOVLW  55
08C28:  MOVWF  FA7
08C2A:  MOVLW  AA
08C2C:  MOVWF  FA7
08C2E:  BSF    FA6.1
08C30:  BTFSC  FA6.1
08C32:  BRA    8C30
08C34:  BCF    FA6.2
08C36:  MOVF   00,W
08C38:  IORWF  FF2,F
....................          delay_ms(20); 
08C3A:  MOVLW  14
08C3C:  MOVLB  5
08C3E:  MOVWF  xE1
08C40:  MOVLB  0
08C42:  CALL   1368
....................          write_eeprom(63,G_h);//Guardar valor de Setpoint en eeprom 
08C46:  CLRF   FAA
08C48:  MOVLW  3F
08C4A:  MOVWF  FA9
08C4C:  MOVFF  4CA,FA8
08C50:  BCF    FA6.6
08C52:  BCF    FA6.7
08C54:  BSF    FA6.2
08C56:  MOVF   FF2,W
08C58:  MOVWF  00
08C5A:  BCF    FF2.7
08C5C:  MOVLB  F
08C5E:  MOVLW  55
08C60:  MOVWF  FA7
08C62:  MOVLW  AA
08C64:  MOVWF  FA7
08C66:  BSF    FA6.1
08C68:  BTFSC  FA6.1
08C6A:  BRA    8C68
08C6C:  BCF    FA6.2
08C6E:  MOVF   00,W
08C70:  IORWF  FF2,F
....................          delay_ms(20); 
08C72:  MOVLW  14
08C74:  MOVLB  5
08C76:  MOVWF  xE1
08C78:  MOVLB  0
08C7A:  CALL   1368
....................       } 
....................          else 
08C7E:  BRA    8C86
....................             {Flanco1 = 0;}   
08C80:  MOVLB  4
08C82:  BCF    x2D.1
08C84:  MOVLB  0
....................              
....................       if(LEFT)//Si oprime boton de Toma. 
08C86:  BSF    F96.2
08C88:  BTFSC  F84.2
08C8A:  BRA    8DE4
....................       {                   
....................          delay_ms(700);Menu=32;glcd_fillscreen(OFF);Opcion=1;unidad=1; 
08C8C:  MOVLW  04
08C8E:  MOVLB  5
08C90:  MOVWF  xCD
08C92:  MOVLW  AF
08C94:  MOVWF  xE1
08C96:  MOVLB  0
08C98:  CALL   1368
08C9C:  MOVLB  5
08C9E:  DECFSZ xCD,F
08CA0:  BRA    8C92
08CA2:  MOVLW  20
08CA4:  MOVLB  4
08CA6:  MOVWF  xC5
08CA8:  MOVLB  5
08CAA:  CLRF   xD5
08CAC:  MOVLB  0
08CAE:  CALL   1448
08CB2:  MOVLW  01
08CB4:  MOVLB  4
08CB6:  MOVWF  xC7
08CB8:  MOVWF  xC6
....................          Temporal=Ajuste2; 
08CBA:  MOVFF  528,52C
08CBE:  MOVFF  527,52B
08CC2:  MOVFF  526,52A
08CC6:  MOVFF  525,529
....................          Entero=(int)Ajuste2; 
08CCA:  MOVFF  528,601
08CCE:  MOVFF  527,600
08CD2:  MOVFF  526,5FF
08CD6:  MOVFF  525,5FE
08CDA:  MOVLB  0
08CDC:  CALL   2ECA
08CE0:  MOVFF  01,4D0
....................          Temporal=Temporal-Entero; 
08CE4:  MOVLB  6
08CE6:  CLRF   x03
08CE8:  MOVFF  4D0,602
08CEC:  MOVLB  0
08CEE:  CALL   1878
08CF2:  BSF    FD8.1
08CF4:  MOVFF  52C,605
08CF8:  MOVFF  52B,604
08CFC:  MOVFF  52A,603
08D00:  MOVFF  529,602
08D04:  MOVFF  03,609
08D08:  MOVFF  02,608
08D0C:  MOVFF  01,607
08D10:  MOVFF  00,606
08D14:  CALL   1A2C
08D18:  MOVFF  03,52C
08D1C:  MOVFF  02,52B
08D20:  MOVFF  01,52A
08D24:  MOVFF  00,529
....................          Temporal2=Temporal*10.0; 
08D28:  MOVFF  52C,601
08D2C:  MOVFF  52B,600
08D30:  MOVFF  52A,5FF
08D34:  MOVFF  529,5FE
08D38:  MOVLB  6
08D3A:  CLRF   x05
08D3C:  CLRF   x04
08D3E:  MOVLW  20
08D40:  MOVWF  x03
08D42:  MOVLW  82
08D44:  MOVWF  x02
08D46:  MOVLB  0
08D48:  CALL   2F06
08D4C:  MOVFF  03,530
08D50:  MOVFF  02,52F
08D54:  MOVFF  01,52E
08D58:  MOVFF  00,52D
....................          Decimal1=(int8)Temporal2; 
08D5C:  MOVFF  530,601
08D60:  MOVFF  52F,600
08D64:  MOVFF  52E,5FF
08D68:  MOVFF  52D,5FE
08D6C:  CALL   2ECA
08D70:  MOVFF  01,4D1
....................          write_eeprom(27,Entero); 
08D74:  CLRF   FAA
08D76:  MOVLW  1B
08D78:  MOVWF  FA9
08D7A:  MOVFF  4D0,FA8
08D7E:  BCF    FA6.6
08D80:  BCF    FA6.7
08D82:  BSF    FA6.2
08D84:  MOVF   FF2,W
08D86:  MOVWF  00
08D88:  BCF    FF2.7
08D8A:  MOVLB  F
08D8C:  MOVLW  55
08D8E:  MOVWF  FA7
08D90:  MOVLW  AA
08D92:  MOVWF  FA7
08D94:  BSF    FA6.1
08D96:  BTFSC  FA6.1
08D98:  BRA    8D96
08D9A:  BCF    FA6.2
08D9C:  MOVF   00,W
08D9E:  IORWF  FF2,F
....................          delay_ms(20); 
08DA0:  MOVLW  14
08DA2:  MOVLB  5
08DA4:  MOVWF  xE1
08DA6:  MOVLB  0
08DA8:  CALL   1368
....................          write_eeprom(28,Decimal1); 
08DAC:  CLRF   FAA
08DAE:  MOVLW  1C
08DB0:  MOVWF  FA9
08DB2:  MOVFF  4D1,FA8
08DB6:  BCF    FA6.6
08DB8:  BCF    FA6.7
08DBA:  BSF    FA6.2
08DBC:  MOVF   FF2,W
08DBE:  MOVWF  00
08DC0:  BCF    FF2.7
08DC2:  MOVLB  F
08DC4:  MOVLW  55
08DC6:  MOVWF  FA7
08DC8:  MOVLW  AA
08DCA:  MOVWF  FA7
08DCC:  BSF    FA6.1
08DCE:  BTFSC  FA6.1
08DD0:  BRA    8DCE
08DD2:  BCF    FA6.2
08DD4:  MOVF   00,W
08DD6:  IORWF  FF2,F
....................          delay_ms(20); 
08DD8:  MOVLW  14
08DDA:  MOVLB  5
08DDC:  MOVWF  xE1
08DDE:  MOVLB  0
08DE0:  CALL   1368
08DE4:  MOVLB  4
....................       } 
....................     } 
.................... //_--------------------------------------------------------------------------------------------------------------------------------------------------------        
....................  
.................... //_-------------------------------------------------------------------------------------------------------------------------------------------------------- 
....................       if(Menu==43){ //Menu de Velocidad de Motor 
08DE6:  MOVF   xC5,W
08DE8:  SUBLW  2B
08DEA:  BTFSS  FD8.2
08DEC:  BRA    8FB8
....................        
....................       if(VelMotor>6)VelMotor=6; 
08DEE:  MOVLB  5
08DF0:  MOVF   xC4,W
08DF2:  SUBLW  06
08DF4:  BC    8DFA
08DF6:  MOVLW  06
08DF8:  MOVWF  xC4
....................        
....................       strcpy(Menus.Letra,"Seleccion Vel"); 
08DFA:  MOVLW  04
08DFC:  MOVWF  FEA
08DFE:  MOVLW  17
08E00:  MOVWF  FE9
08E02:  MOVFF  FF2,5CD
08E06:  BCF    FF2.7
08E08:  MOVLW  00
08E0A:  MOVLB  0
08E0C:  CALL   120A
08E10:  TBLRD*-
08E12:  TBLRD*+
08E14:  MOVF   FF5,W
08E16:  MOVWF  FEE
08E18:  IORLW  00
08E1A:  BNZ   8E12
08E1C:  MOVLB  5
08E1E:  BTFSC  xCD.7
08E20:  BSF    FF2.7
....................       displayMenu(Menus.Letra,10,0,1,1); 
08E22:  MOVLW  04
08E24:  MOVWF  xD6
08E26:  MOVLW  17
08E28:  MOVWF  xD5
08E2A:  MOVLW  0A
08E2C:  MOVWF  xD7
08E2E:  CLRF   xD8
08E30:  MOVLW  01
08E32:  MOVWF  xD9
08E34:  MOVWF  xDA
08E36:  MOVLB  0
08E38:  CALL   4B3C
....................        
....................       displayTiempo(VelMotor,50,40,1,2); 
08E3C:  MOVFF  5C4,5CD
08E40:  MOVLW  32
08E42:  MOVLB  5
08E44:  MOVWF  xCE
08E46:  MOVLW  28
08E48:  MOVWF  xCF
08E4A:  MOVLW  01
08E4C:  MOVWF  xD0
08E4E:  MOVLW  02
08E50:  MOVWF  xD1
08E52:  MOVLB  0
08E54:  CALL   530E
....................        
....................       if(UP && VelMotor<6)//Si oprime hacia arriba 
08E58:  BSF    F92.5
08E5A:  BTFSC  F80.5
08E5C:  BRA    8E7C
08E5E:  MOVLB  5
08E60:  MOVF   xC4,W
08E62:  SUBLW  05
08E64:  BTFSC  FD8.0
08E66:  BRA    8E6C
08E68:  MOVLB  0
08E6A:  BRA    8E7C
....................       {   
....................          delay_ms(200);VelMotor++; 
08E6C:  MOVLW  C8
08E6E:  MOVWF  xE1
08E70:  MOVLB  0
08E72:  CALL   1368
08E76:  MOVLB  5
08E78:  INCF   xC4,F
08E7A:  MOVLB  0
....................       } 
....................              
....................       if(DOWN && VelMotor>0)//Si oprime hacia abajo 
08E7C:  BSF    F96.0
08E7E:  BTFSC  F84.0
08E80:  BRA    8E9E
08E82:  MOVLB  5
08E84:  MOVF   xC4,F
08E86:  BTFSS  FD8.2
08E88:  BRA    8E8E
08E8A:  MOVLB  0
08E8C:  BRA    8E9E
....................       {   
....................          delay_ms(200);VelMotor--; 
08E8E:  MOVLW  C8
08E90:  MOVWF  xE1
08E92:  MOVLB  0
08E94:  CALL   1368
08E98:  MOVLB  5
08E9A:  DECF   xC4,F
08E9C:  MOVLB  0
....................       } 
....................              
....................       if(RIGHT)//Si oprime SET 
08E9E:  BSF    F96.1
08EA0:  BTFSC  F84.1
08EA2:  BRA    8EAC
....................       {            
....................          VelocidadMotor(VelMotor); 
08EA4:  MOVFF  5C4,5CD
08EA8:  CALL   1390
....................       }  
....................              
....................       if(LEFT)//Si oprime boton de Toma. 
08EAC:  BSF    F96.2
08EAE:  BTFSC  F84.2
08EB0:  BRA    8FBA
....................       {                   
....................          delay_ms(100);glcd_fillscreen(OFF);Opcion=1;unidad=1; 
08EB2:  MOVLW  64
08EB4:  MOVLB  5
08EB6:  MOVWF  xE1
08EB8:  MOVLB  0
08EBA:  CALL   1368
08EBE:  MOVLB  5
08EC0:  CLRF   xD5
08EC2:  MOVLB  0
08EC4:  CALL   1448
08EC8:  MOVLW  01
08ECA:  MOVLB  4
08ECC:  MOVWF  xC7
08ECE:  MOVWF  xC6
....................          write_eeprom(32,VelMotor);//Guardar valor de Setpoint en eeprom 
08ED0:  CLRF   FAA
08ED2:  MOVLW  20
08ED4:  MOVWF  FA9
08ED6:  MOVFF  5C4,FA8
08EDA:  BCF    FA6.6
08EDC:  BCF    FA6.7
08EDE:  BSF    FA6.2
08EE0:  MOVF   FF2,W
08EE2:  MOVWF  00
08EE4:  BCF    FF2.7
08EE6:  MOVLB  F
08EE8:  MOVLW  55
08EEA:  MOVWF  FA7
08EEC:  MOVLW  AA
08EEE:  MOVWF  FA7
08EF0:  BSF    FA6.1
08EF2:  BTFSC  FA6.1
08EF4:  BRA    8EF2
08EF6:  BCF    FA6.2
08EF8:  MOVF   00,W
08EFA:  IORWF  FF2,F
....................          delay_ms(20); 
08EFC:  MOVLW  14
08EFE:  MOVLB  5
08F00:  MOVWF  xE1
08F02:  MOVLB  0
08F04:  CALL   1368
....................          glcd_fillScreen(OFF); 
08F08:  MOVLB  5
08F0A:  CLRF   xD5
08F0C:  MOVLB  0
08F0E:  CALL   1448
....................          strcpy(Menus.Letra,"Velocidad"); 
08F12:  MOVLW  04
08F14:  MOVWF  FEA
08F16:  MOVLW  17
08F18:  MOVWF  FE9
08F1A:  MOVFF  FF2,5CD
08F1E:  BCF    FF2.7
08F20:  MOVLW  00
08F22:  CALL   1236
08F26:  TBLRD*-
08F28:  TBLRD*+
08F2A:  MOVF   FF5,W
08F2C:  MOVWF  FEE
08F2E:  IORLW  00
08F30:  BNZ   8F28
08F32:  MOVLB  5
08F34:  BTFSC  xCD.7
08F36:  BSF    FF2.7
....................          displayMenu(Menus.Letra,0,0,0,2); 
08F38:  MOVLW  04
08F3A:  MOVWF  xD6
08F3C:  MOVLW  17
08F3E:  MOVWF  xD5
08F40:  CLRF   xD7
08F42:  CLRF   xD8
08F44:  CLRF   xD9
08F46:  MOVLW  02
08F48:  MOVWF  xDA
08F4A:  MOVLB  0
08F4C:  CALL   4B3C
....................          strcpy(Menus.Letra,"Guardada"); 
08F50:  MOVLW  04
08F52:  MOVWF  FEA
08F54:  MOVLW  17
08F56:  MOVWF  FE9
08F58:  MOVFF  FF2,5CD
08F5C:  BCF    FF2.7
08F5E:  MOVLW  00
08F60:  CALL   125E
08F64:  TBLRD*-
08F66:  TBLRD*+
08F68:  MOVF   FF5,W
08F6A:  MOVWF  FEE
08F6C:  IORLW  00
08F6E:  BNZ   8F66
08F70:  MOVLB  5
08F72:  BTFSC  xCD.7
08F74:  BSF    FF2.7
....................          displayMenu(Menus.Letra,0,30,0,2); 
08F76:  MOVLW  04
08F78:  MOVWF  xD6
08F7A:  MOVLW  17
08F7C:  MOVWF  xD5
08F7E:  CLRF   xD7
08F80:  MOVLW  1E
08F82:  MOVWF  xD8
08F84:  CLRF   xD9
08F86:  MOVLW  02
08F88:  MOVWF  xDA
08F8A:  MOVLB  0
08F8C:  CALL   4B3C
....................          glcd_update(); 
08F90:  CALL   14A2
....................          delay_ms(1000); 
08F94:  MOVLW  04
08F96:  MOVLB  5
08F98:  MOVWF  xCD
08F9A:  MOVLW  FA
08F9C:  MOVWF  xE1
08F9E:  MOVLB  0
08FA0:  CALL   1368
08FA4:  MOVLB  5
08FA6:  DECFSZ xCD,F
08FA8:  BRA    8F9A
....................          glcd_fillScreen(OFF); 
08FAA:  CLRF   xD5
08FAC:  MOVLB  0
08FAE:  CALL   1448
....................          Menu=32; 
08FB2:  MOVLW  20
08FB4:  MOVLB  4
08FB6:  MOVWF  xC5
08FB8:  MOVLB  0
....................       } 
....................     } 
.................... //_--------------------------------------------------------------------------------------------------------------------------------------------------------        
....................  
....................    if(tiemporeset>=60) 
08FBA:  MOVLB  4
08FBC:  MOVF   xCB,W
08FBE:  SUBLW  3B
08FC0:  BC    8FD8
....................    { 
....................       if(Menu!=200){ 
08FC2:  MOVF   xC5,W
08FC4:  SUBLW  C8
08FC6:  BZ    8FD8
....................          glcd_init(ON); 
08FC8:  MOVLW  01
08FCA:  MOVLB  5
08FCC:  MOVWF  xCD
08FCE:  MOVLB  0
08FD0:  CALL   155A
....................          tiemporeset=0; 
08FD4:  MOVLB  4
08FD6:  CLRF   xCB
....................       } 
....................    }  
.................... } 
08FD8:  MOVLB  0
08FDA:  GOTO   5F74
....................  
.................... } 
....................  
08FDE:  SLEEP 

Configuration Fuses:
   Word  1: 0200   HS NOIESO NOFCMEN
   Word  2: 1E1F   BROWNOUT NOWDT BORV20 NOPUT WDT32768
   Word  3: 0000   NOPBADEN NOLPT1OSC NOMCLR
   Word  4: 00B0   NOSTVREN NODEBUG NOLVP NOXINST BBSIZ4K
   Word  5: C03F   NOPROTECT NOCPD NOCPB
   Word  6: E03F   NOWRT NOWRTD NOWRTC NOWRTB
   Word  7: 403F   NOEBTR NOEBTRB
