CCS PCH C Compiler, Version 4.104, 5967               04-ago.-20 11:07

               Filename: D:\Laboratorio\Cabina Extractora de Gases y  Humos\2020\Cabina Extractora Sin Ductos GLCD TOPA Bioweb #004588293 OP2020184\Firmware\Maestro_v2.lst

               ROM used: 40366 bytes (62%)
                         Largest free fragment is 25166
               RAM used: 1495 (45%) at main() level
                         1562 (47%) worst case
               Stack:    8 worst case (6 in main + 2 for interrupts)

*
00000:  GOTO   5A94
*
00008:  MOVWF  04
0000A:  MOVFF  FD8,05
0000E:  MOVFF  FE0,06
00012:  MOVLB  0
00014:  MOVFF  FE9,0C
00018:  MOVFF  FEA,07
0001C:  MOVFF  FE1,08
00020:  MOVFF  FE2,09
00024:  MOVFF  FD9,0A
00028:  MOVFF  FDA,0B
0002C:  MOVFF  FF3,12
00030:  MOVFF  FF4,13
00034:  MOVFF  FFA,14
00038:  MOVFF  00,0E
0003C:  MOVFF  01,0F
00040:  MOVFF  02,10
00044:  MOVFF  03,11
00048:  BTFSS  FF2.4
0004A:  GOTO   0054
0004E:  BTFSC  FF2.1
00050:  GOTO   1398
00054:  MOVFF  0E,00
00058:  MOVFF  0F,01
0005C:  MOVFF  10,02
00060:  MOVFF  11,03
00064:  MOVFF  0C,FE9
00068:  MOVFF  07,FEA
0006C:  BSF    07.7
0006E:  MOVFF  08,FE1
00072:  MOVFF  09,FE2
00076:  MOVFF  0A,FD9
0007A:  MOVFF  0B,FDA
0007E:  MOVFF  12,FF3
00082:  MOVFF  13,FF4
00086:  MOVFF  14,FFA
0008A:  MOVF   04,W
0008C:  MOVFF  06,FE0
00090:  MOVFF  05,FD8
00094:  RETFIE 0
.................... //Programa para Cabina de Bioseguridad 
....................  
.................... #include <18F4680.h> 
.................... //////// Standard Header file for the PIC18F4680 device //////////////// 
.................... #device PIC18F4680 
.................... #list 
....................  
.................... #device adc=10 
.................... #fuses HS,NOWDT,NOPROTECT,NOLVP,NODEBUG,NOSTVREN,NOPUT,NOCPD,NOWRT,NOIESO,NOFCMEN,NOPBADEN,NOWRTC,NOWRTB,NOEBTR,NOEBTRB,NOCPB,NOXINST,NOLPT1OSC,NOMCLR 
.................... #use delay(clock=20000000) 
*
01378:  MOVLW  03
0137A:  MOVLB  6
0137C:  SUBWF  x19,F
0137E:  BNC   1394
01380:  MOVLW  06
01382:  MOVWF  FEA
01384:  MOVLW  19
01386:  MOVWF  FE9
01388:  MOVF   FEF,W
0138A:  BZ    1394
0138C:  BRA    1390
0138E:  BRA    1390
01390:  DECFSZ FEF,F
01392:  BRA    138E
01394:  MOVLB  0
01396:  RETLW  00
*
01496:  MOVLW  05
01498:  MOVWF  FEA
0149A:  MOVLW  E7
0149C:  MOVWF  FE9
0149E:  MOVF   FEF,W
014A0:  BZ    14BC
014A2:  MOVLW  06
014A4:  MOVWF  01
014A6:  CLRF   00
014A8:  DECFSZ 00,F
014AA:  BRA    14A8
014AC:  DECFSZ 01,F
014AE:  BRA    14A6
014B0:  MOVLW  7B
014B2:  MOVWF  00
014B4:  DECFSZ 00,F
014B6:  BRA    14B4
014B8:  DECFSZ FEF,F
014BA:  BRA    14A2
014BC:  RETLW  00
.................... #include <MATH.h> 
.................... //////////////////////////////////////////////////////////////////////////// 
.................... ////        (C) Copyright 1996,2008 Custom Computer Services            //// 
.................... //// This source code may only be used by licensed users of the CCS C   //// 
.................... //// compiler.  This source code may only be distributed to other       //// 
.................... //// licensed users of the CCS C compiler.  No other use, reproduction  //// 
.................... //// or distribution is permitted without written permission.           //// 
.................... //// Derivative programs created using this software in object code     //// 
.................... //// form are not restricted in any way.                                //// 
.................... //////////////////////////////////////////////////////////////////////////// 
.................... ////                                                                    //// 
.................... //// History:                                                           //// 
.................... ////  * 9/20/2001 :  Improvments are made to sin/cos code.              //// 
.................... ////                 The code now is small, much faster,                //// 
.................... ////                 and more accurate.                                 //// 
.................... ////  * 2/21/2007 :  Compiler handles & operator differently and does 
.................... ////                 not return generic (int8 *) so type cast is done   //// 
.................... ////                                                                    //// 
.................... //////////////////////////////////////////////////////////////////////////// 
....................  
.................... #ifndef MATH_H 
.................... #define MATH_H 
....................  
.................... #ifdef PI 
.................... #undef  PI 
.................... #endif 
.................... #define PI     3.1415926535897932 
....................  
....................  
.................... #define SQRT2  1.4142135623730950 
....................  
.................... //float const ps[4] = {5.9304945, 21.125224, 8.9403076, 0.29730279}; 
.................... //float const qs[4] = {1.0000000, 15.035723, 17.764134, 2.4934718}; 
....................  
.................... ///////////////////////////// Round Functions ////////////////////////////// 
....................  
.................... float32 CEIL_FLOOR(float32 x, unsigned int8 n) 
.................... { 
....................    float32 y, res; 
....................    unsigned int16 l; 
....................    int1 s; 
....................  
....................    s = 0; 
*
02E40:  MOVLB  6
02E42:  BCF    x03.0
....................    y = x; 
02E44:  MOVFF  5F7,5FC
02E48:  MOVFF  5F6,5FB
02E4C:  MOVFF  5F5,5FA
02E50:  MOVFF  5F4,5F9
....................  
....................    if (x < 0) 
02E54:  MOVFF  5F7,607
02E58:  MOVFF  5F6,606
02E5C:  MOVFF  5F5,605
02E60:  MOVFF  5F4,604
02E64:  CLRF   x0B
02E66:  CLRF   x0A
02E68:  CLRF   x09
02E6A:  CLRF   x08
02E6C:  MOVLB  0
02E6E:  CALL   22C6
02E72:  BNC   2E80
....................    { 
....................       s = 1; 
02E74:  MOVLB  6
02E76:  BSF    x03.0
....................       y = -y; 
02E78:  MOVLB  5
02E7A:  MOVF   xFA,W
02E7C:  XORLW  80
02E7E:  MOVWF  xFA
....................    } 
....................  
....................    if (y <= 32768.0) 
02E80:  MOVFF  5FC,607
02E84:  MOVFF  5FB,606
02E88:  MOVFF  5FA,605
02E8C:  MOVFF  5F9,604
02E90:  MOVLB  6
02E92:  CLRF   x0B
02E94:  CLRF   x0A
02E96:  CLRF   x09
02E98:  MOVLW  8E
02E9A:  MOVWF  x08
02E9C:  MOVLB  0
02E9E:  CALL   22C6
02EA2:  BC    2EA6
02EA4:  BNZ   2ED6
....................   res = (float32)(unsigned int16)y; 
02EA6:  MOVFF  5FC,607
02EAA:  MOVFF  5FB,606
02EAE:  MOVFF  5FA,605
02EB2:  MOVFF  5F9,604
02EB6:  RCALL  2D0E
02EB8:  MOVFF  02,609
02EBC:  MOVFF  01,608
02EC0:  CALL   1730
02EC4:  MOVFF  03,600
02EC8:  MOVFF  02,5FF
02ECC:  MOVFF  01,5FE
02ED0:  MOVFF  00,5FD
....................  
....................  else if (y < 10000000.0) 
02ED4:  BRA    3074
02ED6:  MOVFF  5FC,607
02EDA:  MOVFF  5FB,606
02EDE:  MOVFF  5FA,605
02EE2:  MOVFF  5F9,604
02EE6:  MOVLW  80
02EE8:  MOVLB  6
02EEA:  MOVWF  x0B
02EEC:  MOVLW  96
02EEE:  MOVWF  x0A
02EF0:  MOVLW  18
02EF2:  MOVWF  x09
02EF4:  MOVLW  96
02EF6:  MOVWF  x08
02EF8:  MOVLB  0
02EFA:  CALL   22C6
02EFE:  BTFSS  FD8.0
02F00:  BRA    3064
....................    { 
....................   l = (unsigned int16)(y/32768.0); 
02F02:  MOVFF  5FC,607
02F06:  MOVFF  5FB,606
02F0A:  MOVFF  5FA,605
02F0E:  MOVFF  5F9,604
02F12:  MOVLB  6
02F14:  CLRF   x0B
02F16:  CLRF   x0A
02F18:  CLRF   x09
02F1A:  MOVLW  8E
02F1C:  MOVWF  x08
02F1E:  MOVLB  0
02F20:  CALL   1766
02F24:  MOVFF  03,607
02F28:  MOVFF  02,606
02F2C:  MOVFF  01,605
02F30:  MOVFF  00,604
02F34:  RCALL  2D0E
02F36:  MOVFF  02,602
02F3A:  MOVFF  01,601
....................       y = 32768.0*(y/32768.0 - (float32)l); 
02F3E:  MOVFF  5FC,607
02F42:  MOVFF  5FB,606
02F46:  MOVFF  5FA,605
02F4A:  MOVFF  5F9,604
02F4E:  MOVLB  6
02F50:  CLRF   x0B
02F52:  CLRF   x0A
02F54:  CLRF   x09
02F56:  MOVLW  8E
02F58:  MOVWF  x08
02F5A:  MOVLB  0
02F5C:  CALL   1766
02F60:  MOVFF  00,604
02F64:  MOVFF  01,605
02F68:  MOVFF  02,606
02F6C:  MOVFF  03,607
02F70:  MOVFF  602,609
02F74:  MOVFF  601,608
02F78:  CALL   1730
02F7C:  BSF    FD8.1
02F7E:  MOVFF  607,60B
02F82:  MOVFF  606,60A
02F86:  MOVFF  605,609
02F8A:  MOVFF  604,608
02F8E:  MOVFF  03,60F
02F92:  MOVFF  02,60E
02F96:  MOVFF  01,60D
02F9A:  MOVFF  00,60C
02F9E:  CALL   18C4
02FA2:  MOVLB  6
02FA4:  CLRF   x07
02FA6:  CLRF   x06
02FA8:  CLRF   x05
02FAA:  MOVLW  8E
02FAC:  MOVWF  x04
02FAE:  MOVFF  03,60B
02FB2:  MOVFF  02,60A
02FB6:  MOVFF  01,609
02FBA:  MOVFF  00,608
02FBE:  MOVLB  0
02FC0:  RCALL  2D4A
02FC2:  MOVFF  03,5FC
02FC6:  MOVFF  02,5FB
02FCA:  MOVFF  01,5FA
02FCE:  MOVFF  00,5F9
....................   res = 32768.0*(float32)l; 
02FD2:  MOVFF  602,609
02FD6:  MOVFF  601,608
02FDA:  CALL   1730
02FDE:  MOVLB  6
02FE0:  CLRF   x07
02FE2:  CLRF   x06
02FE4:  CLRF   x05
02FE6:  MOVLW  8E
02FE8:  MOVWF  x04
02FEA:  MOVFF  03,60B
02FEE:  MOVFF  02,60A
02FF2:  MOVFF  01,609
02FF6:  MOVFF  00,608
02FFA:  MOVLB  0
02FFC:  RCALL  2D4A
02FFE:  MOVFF  03,600
03002:  MOVFF  02,5FF
03006:  MOVFF  01,5FE
0300A:  MOVFF  00,5FD
....................   res += (float32)(unsigned int16)y; 
0300E:  MOVFF  5FC,607
03012:  MOVFF  5FB,606
03016:  MOVFF  5FA,605
0301A:  MOVFF  5F9,604
0301E:  RCALL  2D0E
03020:  MOVFF  02,609
03024:  MOVFF  01,608
03028:  CALL   1730
0302C:  BCF    FD8.1
0302E:  MOVFF  600,60B
03032:  MOVFF  5FF,60A
03036:  MOVFF  5FE,609
0303A:  MOVFF  5FD,608
0303E:  MOVFF  03,60F
03042:  MOVFF  02,60E
03046:  MOVFF  01,60D
0304A:  MOVFF  00,60C
0304E:  CALL   18C4
03052:  MOVFF  03,600
03056:  MOVFF  02,5FF
0305A:  MOVFF  01,5FE
0305E:  MOVFF  00,5FD
....................  } 
....................  
....................  else 
03062:  BRA    3074
....................   res = y; 
03064:  MOVFF  5FC,600
03068:  MOVFF  5FB,5FF
0306C:  MOVFF  5FA,5FE
03070:  MOVFF  5F9,5FD
....................  
....................  y = y - (float32)(unsigned int16)y; 
03074:  MOVFF  5FC,607
03078:  MOVFF  5FB,606
0307C:  MOVFF  5FA,605
03080:  MOVFF  5F9,604
03084:  RCALL  2D0E
03086:  MOVFF  02,609
0308A:  MOVFF  01,608
0308E:  CALL   1730
03092:  BSF    FD8.1
03094:  MOVFF  5FC,60B
03098:  MOVFF  5FB,60A
0309C:  MOVFF  5FA,609
030A0:  MOVFF  5F9,608
030A4:  MOVFF  03,60F
030A8:  MOVFF  02,60E
030AC:  MOVFF  01,60D
030B0:  MOVFF  00,60C
030B4:  CALL   18C4
030B8:  MOVFF  03,5FC
030BC:  MOVFF  02,5FB
030C0:  MOVFF  01,5FA
030C4:  MOVFF  00,5F9
....................  
....................  if (s) 
030C8:  MOVLB  6
030CA:  BTFSS  x03.0
030CC:  BRA    30D8
....................   res = -res; 
030CE:  MOVLB  5
030D0:  MOVF   xFE,W
030D2:  XORLW  80
030D4:  MOVWF  xFE
030D6:  MOVLB  6
....................  
....................  if (y != 0) 
030D8:  MOVFF  5FC,607
030DC:  MOVFF  5FB,606
030E0:  MOVFF  5FA,605
030E4:  MOVFF  5F9,604
030E8:  CLRF   x0B
030EA:  CLRF   x0A
030EC:  CLRF   x09
030EE:  CLRF   x08
030F0:  MOVLB  0
030F2:  CALL   22C6
030F6:  BZ    3184
....................  { 
....................   if (s == 1 && n == 0) 
030F8:  MOVLB  6
030FA:  BTFSS  x03.0
030FC:  BRA    3140
030FE:  MOVLB  5
03100:  MOVF   xF8,F
03102:  BTFSC  FD8.2
03104:  BRA    310A
03106:  MOVLB  6
03108:  BRA    3140
....................    res -= 1.0; 
0310A:  BSF    FD8.1
0310C:  MOVFF  600,60B
03110:  MOVFF  5FF,60A
03114:  MOVFF  5FE,609
03118:  MOVFF  5FD,608
0311C:  MOVLB  6
0311E:  CLRF   x0F
03120:  CLRF   x0E
03122:  CLRF   x0D
03124:  MOVLW  7F
03126:  MOVWF  x0C
03128:  MOVLB  0
0312A:  CALL   18C4
0312E:  MOVFF  03,600
03132:  MOVFF  02,5FF
03136:  MOVFF  01,5FE
0313A:  MOVFF  00,5FD
0313E:  MOVLB  6
....................  
....................   if (s == 0 && n == 1) 
03140:  BTFSC  x03.0
03142:  BRA    3186
03144:  MOVLB  5
03146:  DECFSZ xF8,W
03148:  BRA    314C
0314A:  BRA    3150
0314C:  MOVLB  6
0314E:  BRA    3186
....................    res += 1.0; 
03150:  BCF    FD8.1
03152:  MOVFF  600,60B
03156:  MOVFF  5FF,60A
0315A:  MOVFF  5FE,609
0315E:  MOVFF  5FD,608
03162:  MOVLB  6
03164:  CLRF   x0F
03166:  CLRF   x0E
03168:  CLRF   x0D
0316A:  MOVLW  7F
0316C:  MOVWF  x0C
0316E:  MOVLB  0
03170:  CALL   18C4
03174:  MOVFF  03,600
03178:  MOVFF  02,5FF
0317C:  MOVFF  01,5FE
03180:  MOVFF  00,5FD
03184:  MOVLB  6
....................  } 
....................  if (x == 0) 
03186:  MOVFF  5F7,607
0318A:  MOVFF  5F6,606
0318E:  MOVFF  5F5,605
03192:  MOVFF  5F4,604
03196:  CLRF   x0B
03198:  CLRF   x0A
0319A:  CLRF   x09
0319C:  CLRF   x08
0319E:  MOVLB  0
031A0:  CALL   22C6
031A4:  BNZ   31B4
....................     res = 0; 
031A6:  MOVLB  6
031A8:  CLRF   x00
031AA:  MOVLB  5
031AC:  CLRF   xFF
031AE:  CLRF   xFE
031B0:  CLRF   xFD
031B2:  MOVLB  0
....................  
....................  return (res); 
031B4:  MOVFF  5FD,00
031B8:  MOVFF  5FE,01
031BC:  MOVFF  5FF,02
031C0:  MOVFF  600,03
.................... } 
031C4:  RETLW  00
....................  
.................... // Overloaded Functions to take care for new Data types in PCD 
.................... // Overloaded function CEIL_FLOOR() for data type - Float48 
.................... #if defined(__PCD__) 
.................... float48 CEIL_FLOOR(float48 x, unsigned int8 n) 
.................... { 
....................    float48 y, res; 
....................    unsigned int16 l; 
....................    int1 s; 
....................  
....................    s = 0; 
....................    y = x; 
....................  
....................    if (x < 0) 
....................    { 
....................       s = 1; 
....................       y = -y; 
....................    } 
....................  
....................    if (y <= 32768.0) 
....................   res = (float48)(unsigned int16)y; 
....................  
....................  else if (y < 10000000.0) 
....................    { 
....................   l = (unsigned int16)(y/32768.0); 
....................       y = 32768.0*(y/32768.0 - (float48)l); 
....................   res = 32768.0*(float32)l; 
....................   res += (float48)(unsigned int16)y; 
....................  } 
....................  
....................  else 
....................   res = y; 
....................  
....................  y = y - (float48)(unsigned int16)y; 
....................  
....................  if (s) 
....................   res = -res; 
....................  
....................  if (y != 0) 
....................  { 
....................   if (s == 1 && n == 0) 
....................    res -= 1.0; 
....................  
....................   if (s == 0 && n == 1) 
....................    res += 1.0; 
....................  } 
....................  if (x == 0) 
....................     res = 0; 
....................  
....................  return (res); 
.................... } 
....................  
....................  
.................... // Overloaded function CEIL_FLOOR() for data type - Float64 
.................... float64 CEIL_FLOOR(float64 x, unsigned int8 n) 
.................... { 
....................    float64 y, res; 
....................    unsigned int16 l; 
....................    int1 s; 
....................  
....................    s = 0; 
....................    y = x; 
....................  
....................    if (x < 0) 
....................    { 
....................       s = 1; 
....................       y = -y; 
....................    } 
....................  
....................    if (y <= 32768.0) 
....................   res = (float64)(unsigned int16)y; 
....................  
....................  else if (y < 10000000.0) 
....................    { 
....................   l = (unsigned int16)(y/32768.0); 
....................       y = 32768.0*(y/32768.0 - (float64)l); 
....................   res = 32768.0*(float64)l; 
....................   res += (float64)(unsigned int16)y; 
....................  } 
....................  
....................  else 
....................   res = y; 
....................  
....................  y = y - (float64)(unsigned int16)y; 
....................  
....................  if (s) 
....................   res = -res; 
....................  
....................  if (y != 0) 
....................  { 
....................   if (s == 1 && n == 0) 
....................    res -= 1.0; 
....................  
....................   if (s == 0 && n == 1) 
....................    res += 1.0; 
....................  } 
....................  if (x == 0) 
....................     res = 0; 
....................  
....................  return (res); 
.................... } 
.................... #endif 
....................  
.................... //////////////////////////////////////////////////////////////////////////// 
.................... //   float floor(float x) 
.................... //////////////////////////////////////////////////////////////////////////// 
.................... // Description : rounds down the number x. 
.................... // Date : N/A 
.................... // 
.................... float32 floor(float32 x) 
.................... { 
....................    return CEIL_FLOOR(x, 0); 
*
031E4:  MOVFF  5F3,5F7
031E8:  MOVFF  5F2,5F6
031EC:  MOVFF  5F1,5F5
031F0:  MOVFF  5F0,5F4
031F4:  MOVLB  5
031F6:  CLRF   xF8
031F8:  MOVLB  0
031FA:  RCALL  2E40
.................... } 
031FC:  GOTO   3308 (RETURN)
.................... // Following 2 functions are overloaded functions of floor() for PCD 
.................... // Overloaded function floor() for data type - Float48 
.................... #if defined(__PCD__) 
.................... float48 floor(float48 x) 
.................... { 
....................    return CEIL_FLOOR(x, 0); 
.................... } 
....................  
.................... // Overloaded function floor() for data type - Float64 
.................... float64 floor(float64 x) 
.................... { 
....................    return CEIL_FLOOR(x, 0); 
.................... } 
.................... #endif 
....................  
....................  
.................... //////////////////////////////////////////////////////////////////////////// 
.................... //   float ceil(float x) 
.................... //////////////////////////////////////////////////////////////////////////// 
.................... // Description : rounds up the number x. 
.................... // Date : N/A 
.................... // 
.................... float32 ceil(float32 x) 
.................... { 
....................    return CEIL_FLOOR(x, 1); 
*
031C6:  MOVFF  5F3,5F7
031CA:  MOVFF  5F2,5F6
031CE:  MOVFF  5F1,5F5
031D2:  MOVFF  5F0,5F4
031D6:  MOVLW  01
031D8:  MOVLB  5
031DA:  MOVWF  xF8
031DC:  MOVLB  0
031DE:  RCALL  2E40
.................... } 
031E0:  GOTO   32C0 (RETURN)
.................... // Following 2 functions are overloaded functions of ceil() for PCD 
.................... // Overloaded function ceil() for data type - Float48 
.................... #if defined(__PCD__) 
.................... float48 ceil(float48 x) 
.................... { 
....................    return CEIL_FLOOR(x, 1); 
.................... } 
....................  
.................... // Overloaded function ceil() for data type - Float64 
.................... float64 ceil(float64 x) 
.................... { 
....................    return CEIL_FLOOR(x, 1); 
.................... } 
.................... #endif 
....................  
....................  //////////////////////////////////////////////////////////////////////////// 
.................... //   float fabs(float x) 
.................... //////////////////////////////////////////////////////////////////////////// 
.................... // Description : Computes the absolute value of floating point number x 
.................... // Returns : returns the absolute value of x 
.................... // Date : N/A 
.................... // 
.................... #define fabs abs 
....................  
.................... //////////////////////////////////////////////////////////////////////////// 
.................... //   float fmod(float x) 
.................... //////////////////////////////////////////////////////////////////////////// 
.................... // Description : Computes the floating point remainder of x/y 
.................... // Returns : returns the value of x= i*y, for some integer i such that, if y 
.................... // is non zero, the result has the same isgn of x na dmagnitude less than the 
.................... // magnitude of y. If y is zero then a domain error occurs. 
.................... // Date : N/A 
.................... // 
....................  
.................... float fmod(float32 x,float32 y) 
.................... { 
....................    float32 i; 
....................    if (y!=0.0) 
*
03200:  MOVFF  5E7,607
03204:  MOVFF  5E6,606
03208:  MOVFF  5E5,605
0320C:  MOVFF  5E4,604
03210:  MOVLB  6
03212:  CLRF   x0B
03214:  CLRF   x0A
03216:  CLRF   x09
03218:  CLRF   x08
0321A:  MOVLB  0
0321C:  CALL   22C6
03220:  BTFSC  FD8.2
03222:  BRA    3364
....................    { 
....................       i=(x/y < 0.0)? ceil(x/y): floor(x/y); 
03224:  MOVFF  5E3,607
03228:  MOVFF  5E2,606
0322C:  MOVFF  5E1,605
03230:  MOVFF  5E0,604
03234:  MOVFF  5E7,60B
03238:  MOVFF  5E6,60A
0323C:  MOVFF  5E5,609
03240:  MOVFF  5E4,608
03244:  CALL   1766
03248:  MOVFF  00,5EC
0324C:  MOVFF  01,5ED
03250:  MOVFF  02,5EE
03254:  MOVFF  03,5EF
03258:  MOVFF  03,607
0325C:  MOVFF  02,606
03260:  MOVFF  01,605
03264:  MOVFF  00,604
03268:  MOVLB  6
0326A:  CLRF   x0B
0326C:  CLRF   x0A
0326E:  CLRF   x09
03270:  CLRF   x08
03272:  MOVLB  0
03274:  CALL   22C6
03278:  BNC   32C2
0327A:  MOVFF  5E3,607
0327E:  MOVFF  5E2,606
03282:  MOVFF  5E1,605
03286:  MOVFF  5E0,604
0328A:  MOVFF  5E7,60B
0328E:  MOVFF  5E6,60A
03292:  MOVFF  5E5,609
03296:  MOVFF  5E4,608
0329A:  CALL   1766
0329E:  MOVFF  00,5EC
032A2:  MOVFF  01,5ED
032A6:  MOVFF  02,5EE
032AA:  MOVFF  03,5EF
032AE:  MOVFF  03,5F3
032B2:  MOVFF  02,5F2
032B6:  MOVFF  01,5F1
032BA:  MOVFF  00,5F0
032BE:  BRA    31C6
032C0:  BRA    3308
032C2:  MOVFF  5E3,607
032C6:  MOVFF  5E2,606
032CA:  MOVFF  5E1,605
032CE:  MOVFF  5E0,604
032D2:  MOVFF  5E7,60B
032D6:  MOVFF  5E6,60A
032DA:  MOVFF  5E5,609
032DE:  MOVFF  5E4,608
032E2:  CALL   1766
032E6:  MOVFF  00,5EC
032EA:  MOVFF  01,5ED
032EE:  MOVFF  02,5EE
032F2:  MOVFF  03,5EF
032F6:  MOVFF  03,5F3
032FA:  MOVFF  02,5F2
032FE:  MOVFF  01,5F1
03302:  MOVFF  00,5F0
03306:  BRA    31E4
03308:  MOVFF  03,5EB
0330C:  MOVFF  02,5EA
03310:  MOVFF  01,5E9
03314:  MOVFF  00,5E8
....................       return(x-(i*y)); 
03318:  MOVFF  5EB,607
0331C:  MOVFF  5EA,606
03320:  MOVFF  5E9,605
03324:  MOVFF  5E8,604
03328:  MOVFF  5E7,60B
0332C:  MOVFF  5E6,60A
03330:  MOVFF  5E5,609
03334:  MOVFF  5E4,608
03338:  RCALL  2D4A
0333A:  BSF    FD8.1
0333C:  MOVFF  5E3,60B
03340:  MOVFF  5E2,60A
03344:  MOVFF  5E1,609
03348:  MOVFF  5E0,608
0334C:  MOVFF  03,60F
03350:  MOVFF  02,60E
03354:  MOVFF  01,60D
03358:  MOVFF  00,60C
0335C:  CALL   18C4
03360:  BRA    3364
....................    } 
....................    else 
03362:  BRA    3364
....................    { 
....................    #ifdef _ERRNO 
....................    { 
....................       errno=EDOM; 
....................    } 
....................    #endif 
....................    } 
.................... } 
03364:  RETLW  00
.................... //Overloaded function for fmod() for PCD 
.................... // Overloaded function fmod() for data type - Float48 
.................... #if defined(__PCD__) 
.................... float48 fmod(float48 x,float48 y) 
.................... { 
....................    float48 i; 
....................    if (y!=0.0) 
....................    { 
....................       i=(x/y < 0.0)? ceil(x/y): floor(x/y); 
....................       return(x-(i*y)); 
....................    } 
....................    else 
....................    { 
....................    #ifdef _ERRNO 
....................    { 
....................       errno=EDOM; 
....................    } 
....................    #endif 
....................    } 
.................... } 
.................... // Overloaded function fmod() for data type - Float64 
.................... float64 fmod(float64 x,float64 y) 
.................... { 
....................    float64 i; 
....................    if (y!=0.0) 
....................    { 
....................       i=(x/y < 0.0)? ceil(x/y): floor(x/y); 
....................       return(x-(i*y)); 
....................    } 
....................    else 
....................    { 
....................    #ifdef _ERRNO 
....................    { 
....................       errno=EDOM; 
....................    } 
....................    #endif 
....................    } 
.................... } 
.................... #endif 
.................... //////////////////// Exponential and logarithmic functions //////////////////// 
.................... //////////////////////////////////////////////////////////////////////////// 
.................... //   float exp(float x) 
.................... //////////////////////////////////////////////////////////////////////////// 
.................... // Description : returns the value (e^x) 
.................... // Date : N/A 
.................... // 
.................... #define LN2 0.6931471805599453 
....................  
.................... float const pe[6] = {0.000207455774, 0.00127100575, 0.00965065093, 
....................                      0.0554965651,  0.240227138,  0.693147172}; 
....................  
....................  
.................... float32 exp(float32 x) 
.................... { 
....................    float32 y, res, r; 
....................    #if defined(__PCD__) 
....................    int8 data1; 
....................    #endif 
....................    signed int8 n; 
....................    int1 s; 
....................    #ifdef _ERRNO 
....................    if(x > 88.722838) 
....................    { 
....................       errno=ERANGE; 
....................       return(0); 
....................    } 
....................    #endif 
....................    n = (signed int16)(x/LN2); 
*
03894:  MOVFF  5E7,607
03898:  MOVFF  5E6,606
0389C:  MOVFF  5E5,605
038A0:  MOVFF  5E4,604
038A4:  MOVLW  18
038A6:  MOVLB  6
038A8:  MOVWF  x0B
038AA:  MOVLW  72
038AC:  MOVWF  x0A
038AE:  MOVLW  31
038B0:  MOVWF  x09
038B2:  MOVLW  7E
038B4:  MOVWF  x08
038B6:  MOVLB  0
038B8:  CALL   1766
038BC:  MOVFF  03,607
038C0:  MOVFF  02,606
038C4:  MOVFF  01,605
038C8:  MOVFF  00,604
038CC:  CALL   2D0E
038D0:  MOVFF  01,5F4
....................    s = 0; 
038D4:  MOVLB  5
038D6:  BCF    xF5.0
....................    y = x; 
038D8:  MOVFF  5E7,5EB
038DC:  MOVFF  5E6,5EA
038E0:  MOVFF  5E5,5E9
038E4:  MOVFF  5E4,5E8
....................  
....................    if (x < 0) 
038E8:  MOVFF  5E7,607
038EC:  MOVFF  5E6,606
038F0:  MOVFF  5E5,605
038F4:  MOVFF  5E4,604
038F8:  MOVLB  6
038FA:  CLRF   x0B
038FC:  CLRF   x0A
038FE:  CLRF   x09
03900:  CLRF   x08
03902:  MOVLB  0
03904:  CALL   22C6
03908:  BNC   3916
....................    { 
....................       s = 1; 
0390A:  MOVLB  5
0390C:  BSF    xF5.0
....................       n = -n; 
0390E:  NEGF   xF4
....................       y = -y; 
03910:  MOVF   xE9,W
03912:  XORLW  80
03914:  MOVWF  xE9
....................    } 
....................  
....................    res = 0.0; 
03916:  MOVLB  5
03918:  CLRF   xEF
0391A:  CLRF   xEE
0391C:  CLRF   xED
0391E:  CLRF   xEC
.................... #if !defined(__PCD__) 
....................    *((unsigned int8 *)(&res)) = n + 0x7F; 
03920:  MOVLW  05
03922:  MOVWF  xF7
03924:  MOVLW  EC
03926:  MOVWF  FE9
03928:  MOVFF  5F7,FEA
0392C:  MOVLW  7F
0392E:  ADDWF  xF4,W
03930:  MOVWF  FEF
.................... #endif 
....................  
.................... #if defined(__PCD__)  // Takes care of IEEE format for PCD 
....................    data1 = n+0x7F; 
....................    if(bit_test(data1,0)) 
....................    bit_set(*(((unsigned int8 *)(&res)+2)),7); 
....................    rotate_right(&data1,1); 
....................    bit_clear(data1,7); 
....................    *(((unsigned int8 *)(&res)+3)) = data1; 
.................... #endif 
....................  
....................    y = y/LN2 - (float32)n; 
03932:  MOVFF  5EB,607
03936:  MOVFF  5EA,606
0393A:  MOVFF  5E9,605
0393E:  MOVFF  5E8,604
03942:  MOVLW  18
03944:  MOVLB  6
03946:  MOVWF  x0B
03948:  MOVLW  72
0394A:  MOVWF  x0A
0394C:  MOVLW  31
0394E:  MOVWF  x09
03950:  MOVLW  7E
03952:  MOVWF  x08
03954:  MOVLB  0
03956:  CALL   1766
0395A:  MOVFF  00,5F6
0395E:  MOVFF  01,5F7
03962:  MOVFF  02,5F8
03966:  MOVFF  03,5F9
0396A:  MOVLB  5
0396C:  CLRF   xFB
0396E:  MOVFF  5F4,5FA
03972:  BTFSC  xFA.7
03974:  DECF   xFB,F
03976:  MOVLB  0
03978:  RCALL  3366
0397A:  BSF    FD8.1
0397C:  MOVFF  5F9,60B
03980:  MOVFF  5F8,60A
03984:  MOVFF  5F7,609
03988:  MOVFF  5F6,608
0398C:  MOVFF  03,60F
03990:  MOVFF  02,60E
03994:  MOVFF  01,60D
03998:  MOVFF  00,60C
0399C:  CALL   18C4
039A0:  MOVFF  03,5EB
039A4:  MOVFF  02,5EA
039A8:  MOVFF  01,5E9
039AC:  MOVFF  00,5E8
....................  
....................    r = pe[0]*y + pe[1]; 
039B0:  MOVLW  7C
039B2:  MOVLB  6
039B4:  MOVWF  x07
039B6:  MOVLW  88
039B8:  MOVWF  x06
039BA:  MOVLW  59
039BC:  MOVWF  x05
039BE:  MOVLW  72
039C0:  MOVWF  x04
039C2:  MOVFF  5EB,60B
039C6:  MOVFF  5EA,60A
039CA:  MOVFF  5E9,609
039CE:  MOVFF  5E8,608
039D2:  MOVLB  0
039D4:  CALL   2D4A
039D8:  MOVFF  00,5F6
039DC:  MOVFF  01,5F7
039E0:  MOVFF  02,5F8
039E4:  MOVFF  03,5F9
039E8:  BCF    FD8.1
039EA:  MOVFF  03,60B
039EE:  MOVFF  02,60A
039F2:  MOVFF  01,609
039F6:  MOVFF  00,608
039FA:  MOVLW  E0
039FC:  MOVLB  6
039FE:  MOVWF  x0F
03A00:  MOVLW  97
03A02:  MOVWF  x0E
03A04:  MOVLW  26
03A06:  MOVWF  x0D
03A08:  MOVLW  75
03A0A:  MOVWF  x0C
03A0C:  MOVLB  0
03A0E:  CALL   18C4
03A12:  MOVFF  03,5F3
03A16:  MOVFF  02,5F2
03A1A:  MOVFF  01,5F1
03A1E:  MOVFF  00,5F0
....................    r = r*y + pe[2]; 
03A22:  MOVFF  5F3,607
03A26:  MOVFF  5F2,606
03A2A:  MOVFF  5F1,605
03A2E:  MOVFF  5F0,604
03A32:  MOVFF  5EB,60B
03A36:  MOVFF  5EA,60A
03A3A:  MOVFF  5E9,609
03A3E:  MOVFF  5E8,608
03A42:  CALL   2D4A
03A46:  MOVFF  00,5F6
03A4A:  MOVFF  01,5F7
03A4E:  MOVFF  02,5F8
03A52:  MOVFF  03,5F9
03A56:  BCF    FD8.1
03A58:  MOVFF  03,60B
03A5C:  MOVFF  02,60A
03A60:  MOVFF  01,609
03A64:  MOVFF  00,608
03A68:  MOVLW  C4
03A6A:  MOVLB  6
03A6C:  MOVWF  x0F
03A6E:  MOVLW  1D
03A70:  MOVWF  x0E
03A72:  MOVLW  1E
03A74:  MOVWF  x0D
03A76:  MOVLW  78
03A78:  MOVWF  x0C
03A7A:  MOVLB  0
03A7C:  CALL   18C4
03A80:  MOVFF  03,5F3
03A84:  MOVFF  02,5F2
03A88:  MOVFF  01,5F1
03A8C:  MOVFF  00,5F0
....................    r = r*y + pe[3]; 
03A90:  MOVFF  5F3,607
03A94:  MOVFF  5F2,606
03A98:  MOVFF  5F1,605
03A9C:  MOVFF  5F0,604
03AA0:  MOVFF  5EB,60B
03AA4:  MOVFF  5EA,60A
03AA8:  MOVFF  5E9,609
03AAC:  MOVFF  5E8,608
03AB0:  CALL   2D4A
03AB4:  MOVFF  00,5F6
03AB8:  MOVFF  01,5F7
03ABC:  MOVFF  02,5F8
03AC0:  MOVFF  03,5F9
03AC4:  BCF    FD8.1
03AC6:  MOVFF  03,60B
03ACA:  MOVFF  02,60A
03ACE:  MOVFF  01,609
03AD2:  MOVFF  00,608
03AD6:  MOVLW  5E
03AD8:  MOVLB  6
03ADA:  MOVWF  x0F
03ADC:  MOVLW  50
03ADE:  MOVWF  x0E
03AE0:  MOVLW  63
03AE2:  MOVWF  x0D
03AE4:  MOVLW  7A
03AE6:  MOVWF  x0C
03AE8:  MOVLB  0
03AEA:  CALL   18C4
03AEE:  MOVFF  03,5F3
03AF2:  MOVFF  02,5F2
03AF6:  MOVFF  01,5F1
03AFA:  MOVFF  00,5F0
....................    r = r*y + pe[4]; 
03AFE:  MOVFF  5F3,607
03B02:  MOVFF  5F2,606
03B06:  MOVFF  5F1,605
03B0A:  MOVFF  5F0,604
03B0E:  MOVFF  5EB,60B
03B12:  MOVFF  5EA,60A
03B16:  MOVFF  5E9,609
03B1A:  MOVFF  5E8,608
03B1E:  CALL   2D4A
03B22:  MOVFF  00,5F6
03B26:  MOVFF  01,5F7
03B2A:  MOVFF  02,5F8
03B2E:  MOVFF  03,5F9
03B32:  BCF    FD8.1
03B34:  MOVFF  03,60B
03B38:  MOVFF  02,60A
03B3C:  MOVFF  01,609
03B40:  MOVFF  00,608
03B44:  MOVLW  1A
03B46:  MOVLB  6
03B48:  MOVWF  x0F
03B4A:  MOVLW  FE
03B4C:  MOVWF  x0E
03B4E:  MOVLW  75
03B50:  MOVWF  x0D
03B52:  MOVLW  7C
03B54:  MOVWF  x0C
03B56:  MOVLB  0
03B58:  CALL   18C4
03B5C:  MOVFF  03,5F3
03B60:  MOVFF  02,5F2
03B64:  MOVFF  01,5F1
03B68:  MOVFF  00,5F0
....................    r = r*y + pe[5]; 
03B6C:  MOVFF  5F3,607
03B70:  MOVFF  5F2,606
03B74:  MOVFF  5F1,605
03B78:  MOVFF  5F0,604
03B7C:  MOVFF  5EB,60B
03B80:  MOVFF  5EA,60A
03B84:  MOVFF  5E9,609
03B88:  MOVFF  5E8,608
03B8C:  CALL   2D4A
03B90:  MOVFF  00,5F6
03B94:  MOVFF  01,5F7
03B98:  MOVFF  02,5F8
03B9C:  MOVFF  03,5F9
03BA0:  BCF    FD8.1
03BA2:  MOVFF  03,60B
03BA6:  MOVFF  02,60A
03BAA:  MOVFF  01,609
03BAE:  MOVFF  00,608
03BB2:  MOVLW  18
03BB4:  MOVLB  6
03BB6:  MOVWF  x0F
03BB8:  MOVLW  72
03BBA:  MOVWF  x0E
03BBC:  MOVLW  31
03BBE:  MOVWF  x0D
03BC0:  MOVLW  7E
03BC2:  MOVWF  x0C
03BC4:  MOVLB  0
03BC6:  CALL   18C4
03BCA:  MOVFF  03,5F3
03BCE:  MOVFF  02,5F2
03BD2:  MOVFF  01,5F1
03BD6:  MOVFF  00,5F0
....................  
....................    res = res*(1.0 + y*r); 
03BDA:  MOVFF  5EB,607
03BDE:  MOVFF  5EA,606
03BE2:  MOVFF  5E9,605
03BE6:  MOVFF  5E8,604
03BEA:  MOVFF  5F3,60B
03BEE:  MOVFF  5F2,60A
03BF2:  MOVFF  5F1,609
03BF6:  MOVFF  5F0,608
03BFA:  CALL   2D4A
03BFE:  BCF    FD8.1
03C00:  MOVLB  6
03C02:  CLRF   x0B
03C04:  CLRF   x0A
03C06:  CLRF   x09
03C08:  MOVLW  7F
03C0A:  MOVWF  x08
03C0C:  MOVFF  03,60F
03C10:  MOVFF  02,60E
03C14:  MOVFF  01,60D
03C18:  MOVFF  00,60C
03C1C:  MOVLB  0
03C1E:  CALL   18C4
03C22:  MOVFF  5EF,607
03C26:  MOVFF  5EE,606
03C2A:  MOVFF  5ED,605
03C2E:  MOVFF  5EC,604
03C32:  MOVFF  03,60B
03C36:  MOVFF  02,60A
03C3A:  MOVFF  01,609
03C3E:  MOVFF  00,608
03C42:  CALL   2D4A
03C46:  MOVFF  03,5EF
03C4A:  MOVFF  02,5EE
03C4E:  MOVFF  01,5ED
03C52:  MOVFF  00,5EC
....................  
....................    if (s) 
03C56:  MOVLB  5
03C58:  BTFSS  xF5.0
03C5A:  BRA    3C90
....................       res = 1.0/res; 
03C5C:  MOVLB  6
03C5E:  CLRF   x07
03C60:  CLRF   x06
03C62:  CLRF   x05
03C64:  MOVLW  7F
03C66:  MOVWF  x04
03C68:  MOVFF  5EF,60B
03C6C:  MOVFF  5EE,60A
03C70:  MOVFF  5ED,609
03C74:  MOVFF  5EC,608
03C78:  MOVLB  0
03C7A:  CALL   1766
03C7E:  MOVFF  03,5EF
03C82:  MOVFF  02,5EE
03C86:  MOVFF  01,5ED
03C8A:  MOVFF  00,5EC
03C8E:  MOVLB  5
....................    return(res); 
03C90:  MOVFF  5EC,00
03C94:  MOVFF  5ED,01
03C98:  MOVFF  5EE,02
03C9C:  MOVFF  5EF,03
.................... } 
03CA0:  MOVLB  0
03CA2:  RETLW  00
....................  
....................  
.................... //Overloaded function for exp() for PCD 
.................... // Overloaded function exp() for data type - Float48 
.................... #if defined(__PCD__) 
.................... float48 exp(float48 x) 
.................... { 
....................    float48 y, res, r; 
....................    int8 data1; 
....................    signed int8 n; 
....................    int1 s; 
....................    #ifdef _ERRNO 
....................    if(x > 88.722838) 
....................    { 
....................       errno=ERANGE; 
....................       return(0); 
....................    } 
....................    #endif 
....................    n = (signed int16)(x/LN2); 
....................    s = 0; 
....................    y = x; 
....................  
....................    if (x < 0) 
....................    { 
....................       s = 1; 
....................       n = -n; 
....................       y = -y; 
....................    } 
....................  
....................    res = 0.0; 
....................  
....................    data1 = n+0x7F; 
....................    if(bit_test(data1,0)) 
....................    bit_set(*(((unsigned int8 *)(&res)+4)),7); 
....................    rotate_right(&data1,1); 
....................    bit_clear(data1,7); 
....................    *(((unsigned int8 *)(&res)+5)) = data1; 
....................  
....................    y = y/LN2 - (float48)n; 
....................  
....................    r = pe[0]*y + pe[1]; 
....................    r = r*y + pe[2]; 
....................    r = r*y + pe[3]; 
....................    r = r*y + pe[4]; 
....................    r = r*y + pe[5]; 
....................  
....................    res = res*(1.0 + y*r); 
....................  
....................    if (s) 
....................       res = 1.0/res; 
....................    return(res); 
.................... } 
....................  
.................... // Overloaded function exp() for data type - Float64 
.................... float64 exp(float64 x) 
.................... { 
....................    float64 y, res, r; 
....................    unsigned int16 data1, data2; 
....................    unsigned int16 *p; 
....................    signed int16 n; 
....................    int1 s; 
....................    #ifdef _ERRNO 
....................    if(x > 709.7827128) 
....................    { 
....................       errno=ERANGE; 
....................       return(0); 
....................    } 
....................    #endif 
....................    n = (signed int16)(x/LN2); 
....................    s = 0; 
....................    y = x; 
....................  
....................    if (x < 0) 
....................    { 
....................       s = 1; 
....................       n = -n; 
....................       y = -y; 
....................    } 
....................  
....................    res = 0.0; 
....................  
.................... #if !defined(__PCD__) 
....................    *((unsigned int16 *)(&res)) = n + 0x7F; 
.................... #endif 
....................    p= (((unsigned int16 *)(&res))+3); 
....................    data1 = *p; 
....................    data2 = *p;    
....................    data1 = n + 0x3FF; 
....................    data1 = data1 <<4; 
....................    if(bit_test(data2,15)) 
....................    bit_set(data1,15); 
....................    data2 = data2 & 0x000F; 
....................    data1 ^= data2; 
....................  
....................    *(((unsigned int16 *)(&res)+3)) = data1; 
....................  
....................  
....................    y = y/LN2 - (float64)n; 
....................  
....................    r = pe[0]*y + pe[1]; 
....................    r = r*y + pe[2]; 
....................    r = r*y + pe[3]; 
....................    r = r*y + pe[4]; 
....................    r = r*y + pe[5]; 
....................  
....................    res = res*(1.0 + y*r); 
....................  
....................    if (s) 
....................       res = 1.0/res; 
....................    return(res); 
.................... } 
....................  
.................... #ENDIF 
....................  
....................  
.................... /************************************************************/ 
....................  
.................... float32 const pl[4] = {0.45145214, -9.0558803, 26.940971, -19.860189}; 
.................... float32 const ql[4] = {1.0000000,  -8.1354259, 16.780517, -9.9300943}; 
....................  
.................... //////////////////////////////////////////////////////////////////////////// 
.................... //   float log(float x) 
.................... //////////////////////////////////////////////////////////////////////////// 
.................... // Description : returns the the natural log of x 
.................... // Date : N/A 
.................... // 
.................... float32 log(float32 x) 
.................... { 
....................    float32 y, res, r, y2; 
....................    #if defined(__PCD__) 
....................    unsigned int8  data1,data2; 
....................    #endif 
....................    signed int8 n; 
....................    #ifdef _ERRNO 
....................    if(x <0) 
....................    { 
....................       errno=EDOM; 
....................    } 
....................    if(x ==0) 
....................    { 
....................       errno=ERANGE; 
....................       return(0); 
....................    } 
....................    #endif 
....................    y = x; 
*
033B6:  MOVFF  5E7,5EB
033BA:  MOVFF  5E6,5EA
033BE:  MOVFF  5E5,5E9
033C2:  MOVFF  5E4,5E8
....................  
....................    if (y != 1.0) 
033C6:  MOVFF  5EB,607
033CA:  MOVFF  5EA,606
033CE:  MOVFF  5E9,605
033D2:  MOVFF  5E8,604
033D6:  MOVLB  6
033D8:  CLRF   x0B
033DA:  CLRF   x0A
033DC:  CLRF   x09
033DE:  MOVLW  7F
033E0:  MOVWF  x08
033E2:  MOVLB  0
033E4:  CALL   22C6
033E8:  BTFSC  FD8.2
033EA:  BRA    3876
....................    { 
.................... #if !defined(__PCD__) 
....................     *((unsigned int8 *)(&y)) = 0x7E;  
033EC:  MOVLW  05
033EE:  MOVLB  5
033F0:  MOVWF  xFA
033F2:  MOVLW  E8
033F4:  MOVWF  FE9
033F6:  MOVFF  5FA,FEA
033FA:  MOVLW  7E
033FC:  MOVWF  FEF
.................... #endif 
....................  
.................... #if defined(__PCD__) // Takes care of IEEE format 
....................    data2 = *(((unsigned int8 *)(&y))+3); 
....................    *(((unsigned int8 *)(&y))+3) = 0x3F; 
....................    data1 = *(((unsigned int8 *)(&y))+2); 
....................    bit_clear(data1,7); 
....................    *(((unsigned int8 *)(&y))+2) = data1; 
....................    if(bit_test(data2,7)) 
....................    bit_set(*(((unsigned int8 *)(&y))+3),7); 
.................... #endif 
....................  
....................       y = (y - 1.0)/(y + 1.0); 
033FE:  BSF    FD8.1
03400:  MOVFF  5EB,60B
03404:  MOVFF  5EA,60A
03408:  MOVFF  5E9,609
0340C:  MOVFF  5E8,608
03410:  MOVLB  6
03412:  CLRF   x0F
03414:  CLRF   x0E
03416:  CLRF   x0D
03418:  MOVLW  7F
0341A:  MOVWF  x0C
0341C:  MOVLB  0
0341E:  CALL   18C4
03422:  MOVFF  00,5F9
03426:  MOVFF  01,5FA
0342A:  MOVFF  02,5FB
0342E:  MOVFF  03,5FC
03432:  BCF    FD8.1
03434:  MOVFF  5EB,60B
03438:  MOVFF  5EA,60A
0343C:  MOVFF  5E9,609
03440:  MOVFF  5E8,608
03444:  MOVLB  6
03446:  CLRF   x0F
03448:  CLRF   x0E
0344A:  CLRF   x0D
0344C:  MOVLW  7F
0344E:  MOVWF  x0C
03450:  MOVLB  0
03452:  CALL   18C4
03456:  MOVFF  5FC,607
0345A:  MOVFF  5FB,606
0345E:  MOVFF  5FA,605
03462:  MOVFF  5F9,604
03466:  MOVFF  03,60B
0346A:  MOVFF  02,60A
0346E:  MOVFF  01,609
03472:  MOVFF  00,608
03476:  CALL   1766
0347A:  MOVFF  03,5EB
0347E:  MOVFF  02,5EA
03482:  MOVFF  01,5E9
03486:  MOVFF  00,5E8
....................  
....................       y2=y*y; 
0348A:  MOVFF  5EB,607
0348E:  MOVFF  5EA,606
03492:  MOVFF  5E9,605
03496:  MOVFF  5E8,604
0349A:  MOVFF  5EB,60B
0349E:  MOVFF  5EA,60A
034A2:  MOVFF  5E9,609
034A6:  MOVFF  5E8,608
034AA:  RCALL  2D4A
034AC:  MOVFF  03,5F7
034B0:  MOVFF  02,5F6
034B4:  MOVFF  01,5F5
034B8:  MOVFF  00,5F4
....................  
....................       res = pl[0]*y2 + pl[1]; 
034BC:  MOVLW  BC
034BE:  MOVLB  6
034C0:  MOVWF  x07
034C2:  MOVLW  24
034C4:  MOVWF  x06
034C6:  MOVLW  67
034C8:  MOVWF  x05
034CA:  MOVLW  7D
034CC:  MOVWF  x04
034CE:  MOVFF  5F7,60B
034D2:  MOVFF  5F6,60A
034D6:  MOVFF  5F5,609
034DA:  MOVFF  5F4,608
034DE:  MOVLB  0
034E0:  RCALL  2D4A
034E2:  MOVFF  00,5F9
034E6:  MOVFF  01,5FA
034EA:  MOVFF  02,5FB
034EE:  MOVFF  03,5FC
034F2:  BCF    FD8.1
034F4:  MOVFF  03,60B
034F8:  MOVFF  02,60A
034FC:  MOVFF  01,609
03500:  MOVFF  00,608
03504:  MOVLW  E3
03506:  MOVLB  6
03508:  MOVWF  x0F
0350A:  MOVLW  E4
0350C:  MOVWF  x0E
0350E:  MOVLW  90
03510:  MOVWF  x0D
03512:  MOVLW  82
03514:  MOVWF  x0C
03516:  MOVLB  0
03518:  CALL   18C4
0351C:  MOVFF  03,5EF
03520:  MOVFF  02,5EE
03524:  MOVFF  01,5ED
03528:  MOVFF  00,5EC
....................       res = res*y2 + pl[2]; 
0352C:  MOVFF  5EF,607
03530:  MOVFF  5EE,606
03534:  MOVFF  5ED,605
03538:  MOVFF  5EC,604
0353C:  MOVFF  5F7,60B
03540:  MOVFF  5F6,60A
03544:  MOVFF  5F5,609
03548:  MOVFF  5F4,608
0354C:  CALL   2D4A
03550:  MOVFF  00,5F9
03554:  MOVFF  01,5FA
03558:  MOVFF  02,5FB
0355C:  MOVFF  03,5FC
03560:  BCF    FD8.1
03562:  MOVFF  03,60B
03566:  MOVFF  02,60A
0356A:  MOVFF  01,609
0356E:  MOVFF  00,608
03572:  MOVLW  1C
03574:  MOVLB  6
03576:  MOVWF  x0F
03578:  MOVLW  87
0357A:  MOVWF  x0E
0357C:  MOVLW  57
0357E:  MOVWF  x0D
03580:  MOVLW  83
03582:  MOVWF  x0C
03584:  MOVLB  0
03586:  CALL   18C4
0358A:  MOVFF  03,5EF
0358E:  MOVFF  02,5EE
03592:  MOVFF  01,5ED
03596:  MOVFF  00,5EC
....................       res = res*y2 + pl[3]; 
0359A:  MOVFF  5EF,607
0359E:  MOVFF  5EE,606
035A2:  MOVFF  5ED,605
035A6:  MOVFF  5EC,604
035AA:  MOVFF  5F7,60B
035AE:  MOVFF  5F6,60A
035B2:  MOVFF  5F5,609
035B6:  MOVFF  5F4,608
035BA:  CALL   2D4A
035BE:  MOVFF  00,5F9
035C2:  MOVFF  01,5FA
035C6:  MOVFF  02,5FB
035CA:  MOVFF  03,5FC
035CE:  BCF    FD8.1
035D0:  MOVFF  03,60B
035D4:  MOVFF  02,60A
035D8:  MOVFF  01,609
035DC:  MOVFF  00,608
035E0:  MOVLW  AB
035E2:  MOVLB  6
035E4:  MOVWF  x0F
035E6:  MOVLW  E1
035E8:  MOVWF  x0E
035EA:  MOVLW  9E
035EC:  MOVWF  x0D
035EE:  MOVLW  83
035F0:  MOVWF  x0C
035F2:  MOVLB  0
035F4:  CALL   18C4
035F8:  MOVFF  03,5EF
035FC:  MOVFF  02,5EE
03600:  MOVFF  01,5ED
03604:  MOVFF  00,5EC
....................  
....................       r = ql[0]*y2 + ql[1]; 
03608:  MOVLB  6
0360A:  CLRF   x07
0360C:  CLRF   x06
0360E:  CLRF   x05
03610:  MOVLW  7F
03612:  MOVWF  x04
03614:  MOVFF  5F7,60B
03618:  MOVFF  5F6,60A
0361C:  MOVFF  5F5,609
03620:  MOVFF  5F4,608
03624:  MOVLB  0
03626:  CALL   2D4A
0362A:  MOVFF  00,5F9
0362E:  MOVFF  01,5FA
03632:  MOVFF  02,5FB
03636:  MOVFF  03,5FC
0363A:  BCF    FD8.1
0363C:  MOVFF  03,60B
03640:  MOVFF  02,60A
03644:  MOVFF  01,609
03648:  MOVFF  00,608
0364C:  MOVLW  B4
0364E:  MOVLB  6
03650:  MOVWF  x0F
03652:  MOVLW  2A
03654:  MOVWF  x0E
03656:  MOVLW  82
03658:  MOVWF  x0D
0365A:  MOVWF  x0C
0365C:  MOVLB  0
0365E:  CALL   18C4
03662:  MOVFF  03,5F3
03666:  MOVFF  02,5F2
0366A:  MOVFF  01,5F1
0366E:  MOVFF  00,5F0
....................       r = r*y2 + ql[2]; 
03672:  MOVFF  5F3,607
03676:  MOVFF  5F2,606
0367A:  MOVFF  5F1,605
0367E:  MOVFF  5F0,604
03682:  MOVFF  5F7,60B
03686:  MOVFF  5F6,60A
0368A:  MOVFF  5F5,609
0368E:  MOVFF  5F4,608
03692:  CALL   2D4A
03696:  MOVFF  00,5F9
0369A:  MOVFF  01,5FA
0369E:  MOVFF  02,5FB
036A2:  MOVFF  03,5FC
036A6:  BCF    FD8.1
036A8:  MOVFF  03,60B
036AC:  MOVFF  02,60A
036B0:  MOVFF  01,609
036B4:  MOVFF  00,608
036B8:  MOVLW  80
036BA:  MOVLB  6
036BC:  MOVWF  x0F
036BE:  MOVLW  3E
036C0:  MOVWF  x0E
036C2:  MOVLW  06
036C4:  MOVWF  x0D
036C6:  MOVLW  83
036C8:  MOVWF  x0C
036CA:  MOVLB  0
036CC:  CALL   18C4
036D0:  MOVFF  03,5F3
036D4:  MOVFF  02,5F2
036D8:  MOVFF  01,5F1
036DC:  MOVFF  00,5F0
....................       r = r*y2 + ql[3]; 
036E0:  MOVFF  5F3,607
036E4:  MOVFF  5F2,606
036E8:  MOVFF  5F1,605
036EC:  MOVFF  5F0,604
036F0:  MOVFF  5F7,60B
036F4:  MOVFF  5F6,60A
036F8:  MOVFF  5F5,609
036FC:  MOVFF  5F4,608
03700:  CALL   2D4A
03704:  MOVFF  00,5F9
03708:  MOVFF  01,5FA
0370C:  MOVFF  02,5FB
03710:  MOVFF  03,5FC
03714:  BCF    FD8.1
03716:  MOVFF  03,60B
0371A:  MOVFF  02,60A
0371E:  MOVFF  01,609
03722:  MOVFF  00,608
03726:  MOVLW  AB
03728:  MOVLB  6
0372A:  MOVWF  x0F
0372C:  MOVLW  E1
0372E:  MOVWF  x0E
03730:  MOVLW  9E
03732:  MOVWF  x0D
03734:  MOVLW  82
03736:  MOVWF  x0C
03738:  MOVLB  0
0373A:  CALL   18C4
0373E:  MOVFF  03,5F3
03742:  MOVFF  02,5F2
03746:  MOVFF  01,5F1
0374A:  MOVFF  00,5F0
....................  
....................       res = y*res/r; 
0374E:  MOVFF  5EB,607
03752:  MOVFF  5EA,606
03756:  MOVFF  5E9,605
0375A:  MOVFF  5E8,604
0375E:  MOVFF  5EF,60B
03762:  MOVFF  5EE,60A
03766:  MOVFF  5ED,609
0376A:  MOVFF  5EC,608
0376E:  CALL   2D4A
03772:  MOVFF  00,5F9
03776:  MOVFF  01,5FA
0377A:  MOVFF  02,5FB
0377E:  MOVFF  03,5FC
03782:  MOVFF  03,607
03786:  MOVFF  02,606
0378A:  MOVFF  01,605
0378E:  MOVFF  00,604
03792:  MOVFF  5F3,60B
03796:  MOVFF  5F2,60A
0379A:  MOVFF  5F1,609
0379E:  MOVFF  5F0,608
037A2:  CALL   1766
037A6:  MOVFF  03,5EF
037AA:  MOVFF  02,5EE
037AE:  MOVFF  01,5ED
037B2:  MOVFF  00,5EC
.................... #if !defined(__PCD__) 
....................       n = *((unsigned int8 *)(&x)) - 0x7E; 
037B6:  MOVLW  05
037B8:  MOVLB  5
037BA:  MOVWF  xFA
037BC:  MOVLW  E4
037BE:  MOVWF  FE9
037C0:  MOVFF  5FA,FEA
037C4:  MOVLW  7E
037C6:  SUBWF  FEF,W
037C8:  MOVWF  xF8
.................... #endif 
.................... #if defined(__PCD__)  
....................     data1 = *(((unsigned int8 *)(&x)+3)); 
....................     rotate_left(&data1,1); 
....................     data2 = *(((unsigned int8 *)(&x)+2)); 
....................     if(bit_test (data2,7)) 
....................       bit_set(data1,0); 
....................     n = data1 - 0x7E; 
.................... #endif 
....................  
....................       if (n<0)  
037CA:  BTFSC  xF8.7
037CC:  BRA    37D0
037CE:  BRA    37F8
....................          r = -(float32)-n; 
037D0:  MOVLW  00
037D2:  BSF    FD8.0
037D4:  SUBFWB xF8,W
037D6:  CLRF   xFB
037D8:  MOVWF  xFA
037DA:  BTFSC  xFA.7
037DC:  DECF   xFB,F
037DE:  MOVLB  0
037E0:  RCALL  3366
037E2:  MOVFF  00,5F0
037E6:  MOVF   01,W
037E8:  XORLW  80
037EA:  MOVLB  5
037EC:  MOVWF  xF1
037EE:  MOVFF  02,5F2
037F2:  MOVFF  03,5F3
....................       else 
037F6:  BRA    3816
....................          r = (float32)n; 
037F8:  CLRF   xFB
037FA:  MOVFF  5F8,5FA
037FE:  BTFSC  xFA.7
03800:  DECF   xFB,F
03802:  MOVLB  0
03804:  RCALL  3366
03806:  MOVFF  03,5F3
0380A:  MOVFF  02,5F2
0380E:  MOVFF  01,5F1
03812:  MOVFF  00,5F0
....................  
....................       res += r*LN2; 
03816:  MOVFF  5F3,607
0381A:  MOVFF  5F2,606
0381E:  MOVFF  5F1,605
03822:  MOVFF  5F0,604
03826:  MOVLW  18
03828:  MOVLB  6
0382A:  MOVWF  x0B
0382C:  MOVLW  72
0382E:  MOVWF  x0A
03830:  MOVLW  31
03832:  MOVWF  x09
03834:  MOVLW  7E
03836:  MOVWF  x08
03838:  MOVLB  0
0383A:  CALL   2D4A
0383E:  BCF    FD8.1
03840:  MOVFF  5EF,60B
03844:  MOVFF  5EE,60A
03848:  MOVFF  5ED,609
0384C:  MOVFF  5EC,608
03850:  MOVFF  03,60F
03854:  MOVFF  02,60E
03858:  MOVFF  01,60D
0385C:  MOVFF  00,60C
03860:  CALL   18C4
03864:  MOVFF  03,5EF
03868:  MOVFF  02,5EE
0386C:  MOVFF  01,5ED
03870:  MOVFF  00,5EC
....................    } 
....................  
....................    else 
03874:  BRA    3882
....................       res = 0.0; 
03876:  MOVLB  5
03878:  CLRF   xEF
0387A:  CLRF   xEE
0387C:  CLRF   xED
0387E:  CLRF   xEC
03880:  MOVLB  0
....................  
....................    return(res); 
03882:  MOVFF  5EC,00
03886:  MOVFF  5ED,01
0388A:  MOVFF  5EE,02
0388E:  MOVFF  5EF,03
.................... } 
03892:  RETLW  00
....................  
.................... //Overloaded function for log() for PCD 
.................... // Overloaded function log() for data type - Float48 
.................... #if defined(__PCD__) 
.................... float48 log(float48 x) 
.................... { 
....................    float48 y, res, r, y2; 
....................    unsigned int8  data1,data2; 
....................    signed int8 n; 
....................    #ifdef _ERRNO 
....................    if(x <0) 
....................    { 
....................       errno=EDOM; 
....................    } 
....................    if(x ==0) 
....................    { 
....................       errno=ERANGE; 
....................       return(0); 
....................    } 
....................    #endif 
....................    y = x; 
....................  
....................    if (y != 1.0) 
....................    { 
....................     
....................    #if !defined(__PCD__) 
....................        *((unsigned int8 *)(&y)) = 0x7E;  
....................    #endif 
....................       data2 = *(((unsigned int8 *)(&y))+5); 
....................       *(((unsigned int8 *)(&y))+5) = 0x3F; 
....................       data1 = *(((unsigned int8 *)(&y))+4); 
....................       bit_clear(data1,7); 
....................       *(((unsigned int8 *)(&y))+4) = data1; 
....................    
....................       if(bit_test(data2,7)) 
....................          bit_set(*(((unsigned int8 *)(&y))+4),7); 
....................       y = (y - 1.0)/(y + 1.0); 
....................  
....................       y2=y*y; 
....................  
....................       res = pl[0]*y2 + pl[1]; 
....................       res = res*y2 + pl[2]; 
....................       res = res*y2 + pl[3]; 
....................  
....................       r = ql[0]*y2 + ql[1]; 
....................       r = r*y2 + ql[2]; 
....................       r = r*y2 + ql[3]; 
....................  
....................       res = y*res/r; 
....................  
....................     data1 = *(((unsigned int8 *)(&x)+5)); 
....................     rotate_left(&data1,1); 
....................     data2 = *(((unsigned int8 *)(&x)+4)); 
....................     if(bit_test (data2,7)) 
....................        bit_set(data1,0); 
....................       
....................     n = data1 - 0x7E; 
....................  
....................       if (n<0) 
....................          r = -(float48)-n; 
....................       else 
....................          r = (float48)n; 
....................  
....................       res += r*LN2; 
....................    } 
....................  
....................    else 
....................       res = 0.0; 
....................  
....................    return(res); 
.................... } 
....................  
.................... // Overloaded function log() for data type - Float48 
.................... #if defined(__PCD__) 
.................... float32 const pl_64[4] = {0.45145214, -9.0558803, 26.940971, -19.860189}; 
.................... float32 const ql_64[4] = {1.0000000,  -8.1354259, 16.780517, -9.9300943}; 
.................... #endif 
.................... float64 log(float64 x) 
.................... { 
....................    float64 y, res, r, y2; 
....................    unsigned int16  data1,data2; 
....................    unsigned int16 *p; 
....................    signed int16 n; 
....................    #ifdef _ERRNO 
....................    if(x <0) 
....................    { 
....................       errno=EDOM; 
....................    } 
....................    if(x ==0) 
....................    { 
....................       errno=ERANGE; 
....................       return(0); 
....................    } 
....................    #endif 
....................    y = x; 
....................  
....................    if (y != 1.0) 
....................    { 
....................    #if !defined(__PCD__) 
....................        *((unsigned int8 *)(&y)) = 0x7E;  
....................    #endif 
....................       p= (((unsigned int16 *)(&y))+3); 
....................       data1 = *p; 
....................       data2 = *p; 
....................       data1 = 0x3FE; 
....................       data1 = data1 <<4; 
....................       if(bit_test (data2,15)) 
....................       bit_set(data1,15); 
....................       data2 = data2 & 0x000F; 
....................       data1 ^=data2; 
....................  
....................       *p = data1; 
....................  
....................       y = (y - 1.0)/(y + 1.0); 
....................  
....................       y2=y*y; 
....................  
....................       res = pl_64[0]*y2 + pl_64[1]; 
....................       res = res*y2 + pl_64[2]; 
....................       res = res*y2 + pl_64[3]; 
....................  
....................       r = ql_64[0]*y2 + ql_64[1]; 
....................       r = r*y2 + ql_64[2]; 
....................       r = r*y2 + ql_64[3]; 
....................  
....................       res = y*res/r; 
....................   
....................       p= (((unsigned int16 *)(&x))+3); 
....................       data1 = *p; 
....................       bit_clear(data1,15); 
....................       data1 = data1 >>4;     
....................       n = data1 - 0x3FE; 
....................  
....................  
....................       if (n<0) 
....................          r = -(float64)-n; 
....................       else 
....................          r = (float64)n; 
....................  
....................       res += r*LN2; 
....................    } 
....................  
....................    else 
....................       res = 0.0; 
....................  
....................    return(res); 
.................... } 
.................... #endif 
....................  
....................  
.................... #define LN10 2.3025850929940456 
....................  
.................... //////////////////////////////////////////////////////////////////////////// 
.................... //   float log10(float x) 
.................... //////////////////////////////////////////////////////////////////////////// 
.................... // Description : returns the the log base 10 of x 
.................... // Date : N/A 
.................... // 
.................... float32 log10(float32 x) 
.................... { 
....................    float32 r; 
....................  
....................    r = log(x); 
....................    r = r/LN10; 
....................    return(r); 
.................... } 
....................  
.................... //Overloaded functions for log10() for PCD 
.................... // Overloaded function log10() for data type - Float48 
.................... #if defined(__PCD__) 
.................... float48 log10(float48 x) 
.................... { 
....................    float48 r; 
....................  
....................    r = log(x); 
....................    r = r/LN10; 
....................    return(r); 
.................... } 
....................  
.................... // Overloaded function log10() for data type - Float64 
.................... float64 log10(float64 x) 
.................... { 
....................    float64 r; 
....................  
....................    r = log(x); 
....................    r = r/LN10; 
....................    return(r); 
.................... } 
.................... #endif 
.................... //////////////////////////////////////////////////////////////////////////// 
.................... //   float modf(float x) 
.................... //////////////////////////////////////////////////////////////////////////// 
.................... // Description :breaks the argument value int integral and fractional parts, 
.................... // ach of which have the same sign as the argument.  It stores the integral part 
.................... // as a float in the object pointed to by the iptr 
.................... // Returns : returns the signed fractional part of value. 
.................... // Date : N/A 
.................... // 
....................  
.................... float32 modf(float32 value,float32 *iptr) 
.................... { 
....................    *iptr=(value < 0.0)? ceil(value): floor(value); 
....................    return(value - *iptr); 
.................... } 
.................... //Overloaded functions for modf() for PCD 
.................... // Overloaded function modf() for data type - Float48 
.................... #if defined(__PCD__) 
.................... float48 modf(float48 value,float48 *iptr) 
.................... { 
....................    *iptr=(value < 0.0)? ceil(value): floor(value); 
....................    return(value - *iptr); 
.................... } 
.................... // Overloaded function modf() for data type - Float64 
.................... float64 modf(float64 value,float64 *iptr) 
.................... { 
....................    *iptr=(value < 0.0)? ceil(value): floor(value); 
....................    return(value - *iptr); 
.................... } 
.................... #endif 
....................  
.................... //////////////////////////////////////////////////////////////////////////// 
.................... //   float pwr(float x,float y) 
.................... //////////////////////////////////////////////////////////////////////////// 
.................... // Description : returns the value (x^y) 
.................... // Date : N/A 
.................... // Note : 0 is returned when the function will generate an imaginary number 
.................... // 
.................... float32 pwr(float32 x,float32 y) 
.................... { 
....................    if(0 > x && fmod(y, 1) == 0) { 
....................       if(fmod(y, 2) == 0) { 
....................          return (exp(log(-x) * y)); 
....................       } else { 
....................          return (-exp(log(-x) * y)); 
....................       } 
....................    } else if(0 > x && fmod(y, 1) != 0) { 
....................       return 0; 
....................    } else { 
....................       if(x != 0 || 0 >= y) { 
....................          return (exp(log(x) * y)); 
....................       } 
....................    } 
.................... } 
.................... //Overloaded functions for pwr() for PCD 
.................... // Overloaded function pwr() for data type - Float48 
.................... #if defined(__PCD__) 
.................... float48 pwr(float48 x,float48 y) 
.................... { 
....................    if(0 > x && fmod(y, 1) == 0) { 
....................       if(fmod(y, 2) == 0) { 
....................          return (exp(log(-x) * y)); 
....................       } else { 
....................          return (-exp(log(-x) * y)); 
....................       } 
....................    } else if(0 > x && fmod(y, 1) != 0) { 
....................       return 0; 
....................    } else { 
....................       if(x != 0 || 0 >= y) { 
....................          return (exp(log(x) * y)); 
....................       } 
....................    } 
.................... } 
.................... // Overloaded function pwr() for data type - Float64 
.................... float64 pwr(float64 x,float64 y) 
.................... { 
....................    if(0 > x && fmod(y, 1) == 0) { 
....................       if(fmod(y, 2) == 0) { 
....................          return (exp(log(-x) * y)); 
....................       } else { 
....................          return (-exp(log(-x) * y)); 
....................       } 
....................    } else if(0 > x && fmod(y, 1) != 0) { 
....................       return 0; 
....................    } else { 
....................       if(x != 0 || 0 >= y) { 
....................          return (exp(log(x) * y)); 
....................       } 
....................    } 
.................... } 
.................... #endif 
....................  
.................... //////////////////// Power functions //////////////////// 
....................  
.................... //////////////////////////////////////////////////////////////////////////// 
.................... //   float pow(float x,float y) 
.................... //////////////////////////////////////////////////////////////////////////// 
.................... // Description : returns the value (x^y) 
.................... // Date : N/A 
.................... // Note : 0 is returned when the function will generate an imaginary number 
.................... // 
.................... float32 pow(float32 x,float32 y) 
.................... { 
....................    if(0 > x && fmod(y, 1) == 0) { 
*
03CA4:  MOVFF  5DB,607
03CA8:  MOVFF  5DA,606
03CAC:  MOVFF  5D9,605
03CB0:  MOVFF  5D8,604
03CB4:  MOVLB  6
03CB6:  CLRF   x0B
03CB8:  CLRF   x0A
03CBA:  CLRF   x09
03CBC:  CLRF   x08
03CBE:  MOVLB  0
03CC0:  CALL   22C6
03CC4:  BTFSS  FD8.0
03CC6:  BRA    3E7A
03CC8:  MOVFF  5DF,5E3
03CCC:  MOVFF  5DE,5E2
03CD0:  MOVFF  5DD,5E1
03CD4:  MOVFF  5DC,5E0
03CD8:  MOVLB  5
03CDA:  CLRF   xE7
03CDC:  CLRF   xE6
03CDE:  CLRF   xE5
03CE0:  MOVLW  7F
03CE2:  MOVWF  xE4
03CE4:  MOVLB  0
03CE6:  CALL   3200
03CEA:  MOVFF  00,5E0
03CEE:  MOVFF  01,5E1
03CF2:  MOVFF  02,5E2
03CF6:  MOVFF  03,5E3
03CFA:  MOVFF  03,607
03CFE:  MOVFF  02,606
03D02:  MOVFF  01,605
03D06:  MOVFF  00,604
03D0A:  MOVLB  6
03D0C:  CLRF   x0B
03D0E:  CLRF   x0A
03D10:  CLRF   x09
03D12:  CLRF   x08
03D14:  MOVLB  0
03D16:  CALL   22C6
03D1A:  BTFSS  FD8.2
03D1C:  BRA    3E7A
....................       if(fmod(y, 2) == 0) { 
03D1E:  MOVFF  5DF,5E3
03D22:  MOVFF  5DE,5E2
03D26:  MOVFF  5DD,5E1
03D2A:  MOVFF  5DC,5E0
03D2E:  MOVLB  5
03D30:  CLRF   xE7
03D32:  CLRF   xE6
03D34:  CLRF   xE5
03D36:  MOVLW  80
03D38:  MOVWF  xE4
03D3A:  MOVLB  0
03D3C:  CALL   3200
03D40:  MOVFF  00,5E0
03D44:  MOVFF  01,5E1
03D48:  MOVFF  02,5E2
03D4C:  MOVFF  03,5E3
03D50:  MOVFF  03,607
03D54:  MOVFF  02,606
03D58:  MOVFF  01,605
03D5C:  MOVFF  00,604
03D60:  MOVLB  6
03D62:  CLRF   x0B
03D64:  CLRF   x0A
03D66:  CLRF   x09
03D68:  CLRF   x08
03D6A:  MOVLB  0
03D6C:  CALL   22C6
03D70:  BNZ   3DF4
....................          return (exp(log(-x) * y)); 
03D72:  MOVFF  5D8,5E0
03D76:  MOVLB  5
03D78:  MOVF   xD9,W
03D7A:  XORLW  80
03D7C:  MOVWF  xE1
03D7E:  MOVFF  5DA,5E2
03D82:  MOVFF  5DB,5E3
03D86:  MOVFF  5DB,5E7
03D8A:  MOVFF  5DA,5E6
03D8E:  MOVWF  xE5
03D90:  MOVFF  5D8,5E4
03D94:  MOVLB  0
03D96:  CALL   33B6
03D9A:  MOVFF  00,5E0
03D9E:  MOVFF  01,5E1
03DA2:  MOVFF  02,5E2
03DA6:  MOVFF  03,5E3
03DAA:  MOVFF  03,607
03DAE:  MOVFF  02,606
03DB2:  MOVFF  01,605
03DB6:  MOVFF  00,604
03DBA:  MOVFF  5DF,60B
03DBE:  MOVFF  5DE,60A
03DC2:  MOVFF  5DD,609
03DC6:  MOVFF  5DC,608
03DCA:  CALL   2D4A
03DCE:  MOVFF  00,5E0
03DD2:  MOVFF  01,5E1
03DD6:  MOVFF  02,5E2
03DDA:  MOVFF  03,5E3
03DDE:  MOVFF  03,5E7
03DE2:  MOVFF  02,5E6
03DE6:  MOVFF  01,5E5
03DEA:  MOVFF  00,5E4
03DEE:  RCALL  3894
03DF0:  BRA    3FAE
....................       } else { 
03DF2:  BRA    3E78
....................          return (-exp(log(-x) * y)); 
03DF4:  MOVFF  5D8,5E0
03DF8:  MOVLB  5
03DFA:  MOVF   xD9,W
03DFC:  XORLW  80
03DFE:  MOVWF  xE1
03E00:  MOVFF  5DA,5E2
03E04:  MOVFF  5DB,5E3
03E08:  MOVFF  5DB,5E7
03E0C:  MOVFF  5DA,5E6
03E10:  MOVWF  xE5
03E12:  MOVFF  5D8,5E4
03E16:  MOVLB  0
03E18:  CALL   33B6
03E1C:  MOVFF  00,5E0
03E20:  MOVFF  01,5E1
03E24:  MOVFF  02,5E2
03E28:  MOVFF  03,5E3
03E2C:  MOVFF  03,607
03E30:  MOVFF  02,606
03E34:  MOVFF  01,605
03E38:  MOVFF  00,604
03E3C:  MOVFF  5DF,60B
03E40:  MOVFF  5DE,60A
03E44:  MOVFF  5DD,609
03E48:  MOVFF  5DC,608
03E4C:  CALL   2D4A
03E50:  MOVFF  00,5E0
03E54:  MOVFF  01,5E1
03E58:  MOVFF  02,5E2
03E5C:  MOVFF  03,5E3
03E60:  MOVFF  03,5E7
03E64:  MOVFF  02,5E6
03E68:  MOVFF  01,5E5
03E6C:  MOVFF  00,5E4
03E70:  RCALL  3894
03E72:  MOVLW  80
03E74:  XORWF  01,F
03E76:  BRA    3FAE
....................       } 
....................    } else if(0 > x && fmod(y, 1) != 0) { 
03E78:  BRA    3FAE
03E7A:  MOVFF  5DB,607
03E7E:  MOVFF  5DA,606
03E82:  MOVFF  5D9,605
03E86:  MOVFF  5D8,604
03E8A:  MOVLB  6
03E8C:  CLRF   x0B
03E8E:  CLRF   x0A
03E90:  CLRF   x09
03E92:  CLRF   x08
03E94:  MOVLB  0
03E96:  CALL   22C6
03E9A:  BNC   3EFC
03E9C:  MOVFF  5DF,5E3
03EA0:  MOVFF  5DE,5E2
03EA4:  MOVFF  5DD,5E1
03EA8:  MOVFF  5DC,5E0
03EAC:  MOVLB  5
03EAE:  CLRF   xE7
03EB0:  CLRF   xE6
03EB2:  CLRF   xE5
03EB4:  MOVLW  7F
03EB6:  MOVWF  xE4
03EB8:  MOVLB  0
03EBA:  CALL   3200
03EBE:  MOVFF  00,5E0
03EC2:  MOVFF  01,5E1
03EC6:  MOVFF  02,5E2
03ECA:  MOVFF  03,5E3
03ECE:  MOVFF  03,607
03ED2:  MOVFF  02,606
03ED6:  MOVFF  01,605
03EDA:  MOVFF  00,604
03EDE:  MOVLB  6
03EE0:  CLRF   x0B
03EE2:  CLRF   x0A
03EE4:  CLRF   x09
03EE6:  CLRF   x08
03EE8:  MOVLB  0
03EEA:  CALL   22C6
03EEE:  BZ    3EFC
....................       return 0; 
03EF0:  CLRF   00
03EF2:  CLRF   01
03EF4:  CLRF   02
03EF6:  CLRF   03
03EF8:  BRA    3FAE
....................    } else { 
03EFA:  BRA    3FAE
....................       if(x != 0 || 0 >= y) { 
03EFC:  MOVFF  5DB,607
03F00:  MOVFF  5DA,606
03F04:  MOVFF  5D9,605
03F08:  MOVFF  5D8,604
03F0C:  MOVLB  6
03F0E:  CLRF   x0B
03F10:  CLRF   x0A
03F12:  CLRF   x09
03F14:  CLRF   x08
03F16:  MOVLB  0
03F18:  CALL   22C6
03F1C:  BNZ   3F42
03F1E:  MOVFF  5DF,607
03F22:  MOVFF  5DE,606
03F26:  MOVFF  5DD,605
03F2A:  MOVFF  5DC,604
03F2E:  MOVLB  6
03F30:  CLRF   x0B
03F32:  CLRF   x0A
03F34:  CLRF   x09
03F36:  CLRF   x08
03F38:  MOVLB  0
03F3A:  CALL   22C6
03F3E:  BC    3F42
03F40:  BNZ   3FAE
....................          return (exp(log(x) * y)); 
03F42:  MOVFF  5DB,5E7
03F46:  MOVFF  5DA,5E6
03F4A:  MOVFF  5D9,5E5
03F4E:  MOVFF  5D8,5E4
03F52:  CALL   33B6
03F56:  MOVFF  00,5E0
03F5A:  MOVFF  01,5E1
03F5E:  MOVFF  02,5E2
03F62:  MOVFF  03,5E3
03F66:  MOVFF  03,607
03F6A:  MOVFF  02,606
03F6E:  MOVFF  01,605
03F72:  MOVFF  00,604
03F76:  MOVFF  5DF,60B
03F7A:  MOVFF  5DE,60A
03F7E:  MOVFF  5DD,609
03F82:  MOVFF  5DC,608
03F86:  CALL   2D4A
03F8A:  MOVFF  00,5E0
03F8E:  MOVFF  01,5E1
03F92:  MOVFF  02,5E2
03F96:  MOVFF  03,5E3
03F9A:  MOVFF  03,5E7
03F9E:  MOVFF  02,5E6
03FA2:  MOVFF  01,5E5
03FA6:  MOVFF  00,5E4
03FAA:  RCALL  3894
03FAC:  BRA    3FAE
....................       } 
....................    } 
.................... } 
03FAE:  RETLW  00
.................... //Overloaded functions for pow() for PCD 
.................... // Overloaded function for pow() data type - Float48 
.................... #if defined(__PCD__) 
.................... float48 pow(float48 x,float48 y) 
.................... { 
....................    if(0 > x && fmod(y, 1) == 0) { 
....................       if(fmod(y, 2) == 0) { 
....................          return (exp(log(-x) * y)); 
....................       } else { 
....................          return (-exp(log(-x) * y)); 
....................       } 
....................    } else if(0 > x && fmod(y, 1) != 0) { 
....................       return 0; 
....................    } else { 
....................       if(x != 0 || 0 >= y) { 
....................          return (exp(log(x) * y)); 
....................       } 
....................    } 
.................... } 
....................  
.................... // Overloaded function pow() for data type - Float64 
.................... float64 pow(float64 x,float64 y) 
.................... { 
....................    if(0 > x && fmod(y, 1) == 0) { 
....................       if(fmod(y, 2) == 0) { 
....................          return (exp(log(-x) * y)); 
....................       } else { 
....................          return (-exp(log(-x) * y)); 
....................       } 
....................    } else if(0 > x && fmod(y, 1) != 0) { 
....................       return 0; 
....................    } else { 
....................       if(x != 0 || 0 >= y) { 
....................          return (exp(log(x) * y)); 
....................       } 
....................    } 
.................... } 
.................... #endif 
....................  
.................... //////////////////////////////////////////////////////////////////////////// 
.................... //   float sqrt(float x) 
.................... //////////////////////////////////////////////////////////////////////////// 
.................... // Description : returns the square root of x 
.................... // Date : N/A 
.................... // 
.................... float32 sqrt(float32 x) 
.................... { 
....................    float32 y, res; 
....................    #if defined(__PCD__) 
....................    unsigned int16 data1,data2; 
....................    #endif 
....................    BYTE *p; 
....................  
....................    #ifdef _ERRNO 
....................    if(x < 0) 
....................    { 
....................       errno=EDOM; 
....................    } 
....................    #endif 
....................  
....................    if( x<=0.0) 
....................       return(0.0); 
....................  
....................    y=x; 
....................     
....................    #if !defined(__PCD__) 
....................     p=&y; 
....................    (*p)=(BYTE)((((unsigned int16)(*p)) + 127) >> 1); 
....................    #endif 
....................     
....................    #if defined(__PCD__) 
....................     p = (((unsigned int8 *)(&y))+3); 
....................     data1 = *(((unsigned int8 *)(&y))+3); 
....................     data2 = *(((unsigned int8 *)(&y))+2); 
....................     rotate_left(&data1,1);     
....................     if(bit_test(data2,7))     
....................     bit_set(data1,0);     
....................     data1 = ((data1+127) >>1); 
....................     bit_clear(data2,7); 
....................     if(bit_test(data1,0)) 
....................     bit_set(data2,7); 
....................     data1 = data1 >>1; 
....................     *(((unsigned int8 *)(&y))+3) = data1; 
....................     *(((unsigned int8 *)(&y))+2) = data2; 
....................      
....................   #endif 
....................  
....................    do { 
....................       res=y; 
....................       y+=(x/y); 
....................  
....................       #if !defined(__PCD__) 
....................      (*p)--; 
....................    #endif 
....................     
....................    #if defined(__PCD__) 
....................     data1 = *(((unsigned int8 *)(&y))+3); 
....................     data2 = *(((unsigned int8 *)(&y))+2); 
....................     rotate_left(&data1,1); 
....................     if(bit_test(data2,7)) 
....................     bit_set(data1,0);     
....................     data1--; 
....................     bit_clear(data2,7); 
....................     if(bit_test(data1,0)) 
....................     bit_set(data2,7); 
....................     data1 = data1 >>1; 
....................     *(((unsigned int8 *)(&y))+3) = data1; 
....................     *(((unsigned int8 *)(&y))+2) = data2; 
....................      
....................   #endif 
....................    } while(res != y); 
....................  
....................    return(res); 
.................... } 
.................... //Overloaded functions for sqrt() for PCD 
.................... // Overloaded function sqrt() for data type - Float48 
.................... #if defined(__PCD__) 
.................... float48 sqrt(float48 x) 
.................... { 
....................    float48 y, res; 
....................    unsigned int16 data1,data2; 
....................    BYTE *p; 
....................  
....................    #ifdef _ERRNO 
....................    if(x < 0) 
....................    { 
....................       errno=EDOM; 
....................    } 
....................    #endif 
....................  
....................    if( x<=0.0) 
....................       return(0.0); 
....................  
....................    y=x; 
....................     
....................    #if !defined(__PCD__) 
....................     p=&y; 
....................    (*p)=(BYTE)((((unsigned int16)(*p)) + 127) >> 1); 
....................    #endif 
....................     
....................    #if defined(__PCD__) 
....................     p = (((unsigned int8 *)(&y))+5); 
....................     data1 = *(((unsigned int8 *)(&y))+5); 
....................     data2 = *(((unsigned int8 *)(&y))+4); 
....................     rotate_left(&data1,1); 
....................     if(bit_test(data2,7)) 
....................     bit_set(data1,0);     
....................     data1 = ((data1+127) >>1); 
....................     bit_clear(data2,7); 
....................     if(bit_test(data1,0)) 
....................     bit_set(data2,7); 
....................     data1 = data1 >>1; 
....................     *(((unsigned int8 *)(&y))+5) = data1; 
....................     *(((unsigned int8 *)(&y))+4) = data2; 
....................      
....................   #endif 
....................  
....................    do { 
....................       res=y; 
....................       y+=(x/y); 
....................  
....................       #if !defined(__PCD__) 
....................      (*p)--; 
....................    #endif 
....................     
....................     data1 = *(((unsigned int8 *)(&y))+5); 
....................     data2 = *(((unsigned int8 *)(&y))+4); 
....................     rotate_left(&data1,1); 
....................     if(bit_test(data2,7)) 
....................     bit_set(data1,0);     
....................     data1--; 
....................     bit_clear(data2,7); 
....................     if(bit_test(data1,0)) 
....................     bit_set(data2,7); 
....................     data1 = data1 >>1; 
....................     *(((unsigned int8 *)(&y))+5) = data1; 
....................     *(((unsigned int8 *)(&y))+4) = data2; 
....................      
....................    } while(res != y); 
....................  
....................    return(res); 
.................... } 
....................  
.................... // Overloaded function sqrt() for data type - Float64 
.................... float64 sqrt(float64 x) 
.................... { 
....................    float64 y, res; 
....................    unsigned int16 *p; 
....................    unsigned int16 temp1,temp2; 
....................  
....................    #ifdef _ERRNO 
....................    if(x < 0) 
....................    { 
....................       errno=EDOM; 
....................    } 
....................    #endif 
....................  
....................    if( x<=0.0) 
....................       return(0.0); 
....................  
....................    y=x; 
....................    p= (((unsigned int16 *)(&y))+3); 
....................    temp1 = *p; 
....................    temp2 = *p; 
....................    bit_clear(temp1,15); 
....................    temp1 = (temp1>>4)+1023; 
....................    temp1 = temp1 >> 1; 
....................    temp1 = (temp1<<4) & 0xFFF0; 
....................    if(bit_test(temp2,15)) 
....................    bit_set(temp1,15); 
....................    temp2 = temp2 & 0x000F; 
....................    temp1 ^= temp2; 
....................     
....................    (*p) = temp1; 
....................     
....................    do { 
....................       res=y; 
....................       y+=(x/y); 
....................      temp1 = *p; 
....................      temp2 = *p; 
....................      bit_clear(temp1,15); 
....................      temp1 = (temp1>>4); 
....................      temp1--; 
....................      temp1 = (temp1<<4) & 0xFFF0; 
....................      if(bit_test(temp2,15)) 
....................      bit_set(temp1,15); 
....................      temp2 = temp2 & 0x000F; 
....................      temp1 ^= temp2; 
....................      (*p) = temp1; 
....................  
....................    } while(res != y); 
....................  
....................    return(res); 
.................... } 
.................... #endif 
....................  
.................... ////////////////////////////// Trig Functions ////////////////////////////// 
.................... #ifdef PI_DIV_BY_TWO 
.................... #undef PI_DIV_BY_TWO 
.................... #endif 
.................... #define PI_DIV_BY_TWO   1.5707963267948966 
.................... #ifdef TWOBYPI 
.................... #undef TWOBYPI 
.................... #define TWOBYPI          0.6366197723675813 
.................... #endif 
.................... //////////////////////////////////////////////////////////////////////////// 
.................... //   float cos(float x) 
.................... //////////////////////////////////////////////////////////////////////////// 
.................... // Description : returns the cosine value of the angle x, which is in radian 
.................... // Date : 9/20/2001 
.................... // 
.................... float32 cos(float32 x) 
.................... { 
....................    float32 y, t, t2 = 1.0; 
....................    unsigned int8 quad, i; 
....................    float32 frac; 
....................    float32 p[6] = {                    //by the series definition for cosine 
....................       -0.5,                            // sum ( ( (-1)^n * x^2n )/(2n)! ) 
....................        0.04166666666667, 
....................       -0.00138888888889, 
....................        0.00002480158730, 
....................       -0.00000027557319, 
....................        0.00000000208767, 
....................       //-0.00000000001147, 
....................       // 0.00000000000005 
....................    }; 
....................  
....................    if (x < 0) x = -x;                  // absolute value of input 
....................  
....................    quad = (unsigned int8)(x / PI_DIV_BY_TWO);    // quadrant 
....................    frac = (x / PI_DIV_BY_TWO) - quad;  // fractional part of input 
....................    quad = quad % 4;                    // quadrant (0 to 3) 
....................  
....................    if (quad == 0 || quad == 2) 
....................       t = frac * PI_DIV_BY_TWO; 
....................    else if (quad == 1) 
....................       t = (1-frac) * PI_DIV_BY_TWO; 
....................    else // should be 3 
....................       t = (frac-1) * PI_DIV_BY_TWO; 
....................  
....................    y = 1.0; 
....................    t = t * t; 
....................    for (i = 0; i <= 5; i++) 
....................    { 
....................       t2 = t2 * t; 
....................       y = y + p[i] * t2; 
....................    } 
....................  
....................    if (quad == 2 || quad == 1) 
....................       y = -y;  // correct sign 
....................  
....................    return (y); 
.................... } 
....................  
....................  
.................... //Overloaded functions for cos() for PCD 
.................... // Overloaded function cos() for data type - Float48 
.................... #if defined(__PCD__) 
.................... float48 cos(float48 x) 
.................... { 
....................    float48 y, t, t2 = 1.0; 
....................    unsigned int8 quad, i; 
....................    float48 frac; 
....................    float48 p[6] = {                    //by the series definition for cosine 
....................       -0.5,                            // sum ( ( (-1)^n * x^2n )/(2n)! ) 
....................        0.04166666666667, 
....................       -0.00138888888889, 
....................        0.00002480158730, 
....................       -0.00000027557319, 
....................        0.00000000208767, 
....................       //-0.00000000001147, 
....................       // 0.00000000000005 
....................    }; 
....................  
....................    if (x < 0) x = -x;                  // absolute value of input 
....................  
....................    quad = (unsigned int8)(x / PI_DIV_BY_TWO);    // quadrant 
....................    frac = (x / PI_DIV_BY_TWO) - quad;  // fractional part of input 
....................    quad = quad % 4;                    // quadrant (0 to 3) 
....................  
....................    if (quad == 0 || quad == 2) 
....................       t = frac * PI_DIV_BY_TWO; 
....................    else if (quad == 1) 
....................       t = (1-frac) * PI_DIV_BY_TWO; 
....................    else // should be 3 
....................       t = (frac-1) * PI_DIV_BY_TWO; 
....................  
....................    y = 0.999999999781; 
....................    t = t * t; 
....................    for (i = 0; i <= 5; i++) 
....................    { 
....................       t2 = t2 * t; 
....................       y = y + p[i] * t2; 
....................    } 
....................  
....................    if (quad == 2 || quad == 1) 
....................       y = -y;  // correct sign 
....................  
....................    return (y); 
.................... } 
....................  
.................... // Overloaded function cos() for data type - Float48 
.................... float64 cos(float64 x) 
.................... { 
....................    float64 y, t, t2 = 1.0; 
....................    unsigned int8 quad, i; 
....................    float64 frac; 
....................    float64 p[6] = {                    //by the series definition for cosine 
....................       -0.5,                            // sum ( ( (-1)^n * x^2n )/(2n)! ) 
....................        0.04166666666667, 
....................       -0.00138888888889, 
....................        0.00002480158730, 
....................       -0.00000027557319, 
....................        0.00000000208767, 
....................       //-0.00000000001147, 
....................       // 0.00000000000005 
....................    }; 
....................  
....................    if (x < 0) x = -x;                  // absolute value of input 
....................  
....................    quad = (unsigned int8)(x / PI_DIV_BY_TWO);    // quadrant 
....................    frac = (x / PI_DIV_BY_TWO) - quad;  // fractional part of input 
....................    quad = quad % 4;                    // quadrant (0 to 3) 
....................  
....................    if (quad == 0 || quad == 2) 
....................       t = frac * PI_DIV_BY_TWO; 
....................    else if (quad == 1) 
....................       t = (1-frac) * PI_DIV_BY_TWO; 
....................    else // should be 3 
....................       t = (frac-1) * PI_DIV_BY_TWO; 
....................  
....................    y = 0.999999999781; 
....................    t = t * t; 
....................    for (i = 0; i <= 5; i++) 
....................    { 
....................       t2 = t2 * t; 
....................       y = y + p[i] * t2; 
....................    } 
....................  
....................    if (quad == 2 || quad == 1) 
....................       y = -y;  // correct sign 
....................  
....................    return (y); 
.................... } 
....................  
.................... #endif 
....................  
.................... //////////////////////////////////////////////////////////////////////////// 
.................... //   float sin(float x) 
.................... //////////////////////////////////////////////////////////////////////////// 
.................... // Description : returns the sine value of the angle x, which is in radian 
.................... // Date : 9/20/2001 
.................... // 
.................... float32 sin(float32 x) 
.................... { 
....................    return cos(x - PI_DIV_BY_TWO); 
.................... } 
....................  
.................... //Overloaded functions for sin() for PCD 
.................... // Overloaded function sin() for data type - Float48 
.................... #if defined(__PCD__) 
.................... float48 sin(float48 x) 
.................... { 
....................    return cos(x - PI_DIV_BY_TWO); 
.................... } 
....................  
.................... // Overloaded function sin() for data type - Float48 
.................... float64 sin(float64 x) 
.................... { 
....................    return cos(x - PI_DIV_BY_TWO); 
.................... } 
.................... #endif 
....................  
.................... //////////////////////////////////////////////////////////////////////////// 
.................... //   float tan(float x) 
.................... //////////////////////////////////////////////////////////////////////////// 
.................... // Description : returns the tangent value of the angle x, which is in radian 
.................... // Date : 9/20/2001 
.................... // 
.................... float32 tan(float32 x) 
.................... { 
....................    float32 c, s; 
....................  
....................    c = cos(x); 
....................    if (c == 0.0) 
....................       return (1.0e+36); 
....................  
....................    s = sin(x); 
....................    return(s/c); 
.................... } 
.................... //Overloaded functions for tan() for PCD 
.................... // Overloaded function tan() for data type - Float48 
.................... #if defined(__PCD__) 
.................... float48 tan(float48 x) 
.................... { 
....................    float48 c, s; 
....................  
....................    c = cos(x); 
....................    if (c == 0.0) 
....................       return (1.0e+36); 
....................  
....................    s = sin(x); 
....................    return(s/c); 
.................... } 
....................  
.................... // Overloaded function tan() for data type - Float48 
.................... float64 tan(float64 x) 
.................... { 
....................    float64 c, s; 
....................  
....................    c = cos(x); 
....................    if (c == 0.0) 
....................       return (1.0e+36); 
....................  
....................    s = sin(x); 
....................    return(s/c); 
.................... } 
.................... #endif 
....................  
.................... float32 const pas[3] = {0.49559947, -4.6145309, 5.6036290}; 
.................... float32 const qas[3] = {1.0000000,  -5.5484666, 5.6036290}; 
....................  
.................... float32 ASIN_COS(float32 x, unsigned int8 n) 
.................... { 
....................    float32 y, res, r, y2; 
....................    int1 s; 
....................    #ifdef _ERRNO 
....................    if(x <-1 || x > 1) 
....................    { 
....................       errno=EDOM; 
....................    } 
....................    #endif 
....................    s = 0; 
....................    y = x; 
....................  
....................    if (x < 0) 
....................    { 
....................       s = 1; 
....................       y = -y; 
....................    } 
....................  
....................    if (y > 0.5) 
....................    { 
....................       y = sqrt((1.0 - y)/2.0); 
....................       n += 2; 
....................    } 
....................  
....................    y2=y*y; 
....................  
....................    res = pas[0]*y2 + pas[1]; 
....................    res = res*y2 + pas[2]; 
....................  
....................    r = qas[0]*y2 + qas[1]; 
....................    r = r*y2 + qas[2]; 
....................  
....................    res = y*res/r; 
....................  
....................    if (n & 2)     // |x| > 0.5 
....................       res = PI_DIV_BY_TWO - 2.0*res; 
....................    if (s) 
....................       res = -res; 
....................    if (n & 1)           // take arccos 
....................       res = PI_DIV_BY_TWO - res; 
....................  
....................    return(res); 
.................... } 
....................  
.................... //Overloaded functions for ASIN_COS() for PCD 
.................... // Overloaded function ASIN_COS() for data type - Float48 
.................... #if defined(__PCD__) 
.................... float48 ASIN_COS(float48 x, unsigned int8 n) 
.................... { 
....................    float48 y, res, r, y2; 
....................    int1 s; 
....................    #ifdef _ERRNO 
....................    if(x <-1 || x > 1) 
....................    { 
....................       errno=EDOM; 
....................    } 
....................    #endif 
....................    s = 0; 
....................    y = x; 
....................  
....................    if (x < 0) 
....................    { 
....................       s = 1; 
....................       y = -y; 
....................    } 
....................  
....................    if (y > 0.5) 
....................    { 
....................       y = sqrt((1.0 - y)/2.0); 
....................       n += 2; 
....................    } 
....................  
....................    y2=y*y; 
....................  
....................    res = pas[0]*y2 + pas[1]; 
....................    res = res*y2 + pas[2]; 
....................  
....................    r = qas[0]*y2 + qas[1]; 
....................    r = r*y2 + qas[2]; 
....................  
....................    res = y*res/r; 
....................  
....................    if (n & 2)     // |x| > 0.5 
....................       res = PI_DIV_BY_TWO - 2.0*res; 
....................    if (s) 
....................       res = -res; 
....................    if (n & 1)           // take arccos 
....................       res = PI_DIV_BY_TWO - res; 
....................  
....................    return(res); 
.................... } 
....................  
.................... // Overloaded function ASIN_COS() for data type - Float64 
.................... float64 ASIN_COS(float64 x, unsigned int8 n) 
.................... { 
....................    float64 y, res, r, y2; 
....................    int1 s; 
....................    #ifdef _ERRNO 
....................    if(x <-1 || x > 1) 
....................    { 
....................       errno=EDOM; 
....................    } 
....................    #endif 
....................    s = 0; 
....................    y = x; 
....................  
....................    if (x < 0) 
....................    { 
....................       s = 1; 
....................       y = -y; 
....................    } 
....................  
....................    if (y > 0.5) 
....................    { 
....................       y = sqrt((1.0 - y)/2.0); 
....................       n += 2; 
....................    } 
....................  
....................    y2=y*y; 
....................  
....................    res = pas[0]*y2 + pas[1]; 
....................    res = res*y2 + pas[2]; 
....................  
....................    r = qas[0]*y2 + qas[1]; 
....................    r = r*y2 + qas[2]; 
....................  
....................    res = y*res/r; 
....................  
....................    if (n & 2)     // |x| > 0.5 
....................       res = PI_DIV_BY_TWO - 2.0*res; 
....................    if (s) 
....................       res = -res; 
....................    if (n & 1)           // take arccos 
....................       res = PI_DIV_BY_TWO - res; 
....................  
....................    return(res); 
.................... } 
.................... #endif 
....................  
.................... //////////////////////////////////////////////////////////////////////////// 
.................... //   float asin(float x) 
.................... //////////////////////////////////////////////////////////////////////////// 
.................... // Description : returns the arcsine value of the value x. 
.................... // Date : N/A 
.................... // 
.................... float32 asin(float32 x) 
.................... { 
....................    float32 r; 
....................  
....................    r = ASIN_COS(x, 0); 
....................    return(r); 
.................... } 
.................... //Overloaded functions for asin() for PCD 
.................... // Overloaded function asin() for data type - Float48 
.................... #if defined(__PCD__) 
.................... float48 asin(float48 x) 
.................... { 
....................    float48 r; 
....................  
....................    r = ASIN_COS(x, 0); 
....................    return(r); 
.................... } 
....................  
.................... // Overloaded function asin() for data type - Float64 
.................... float64 asin(float64 x) 
.................... { 
....................    float64 r; 
....................  
....................    r = ASIN_COS(x, 0); 
....................    return(r); 
.................... } 
.................... #endif 
....................  
.................... //////////////////////////////////////////////////////////////////////////// 
.................... //   float acos(float x) 
.................... //////////////////////////////////////////////////////////////////////////// 
.................... // Description : returns the arccosine value of the value x. 
.................... // Date : N/A 
.................... // 
.................... float32 acos(float32 x) 
.................... { 
....................    float32 r; 
....................  
....................    r = ASIN_COS(x, 1); 
....................    return(r); 
.................... } 
.................... //Overloaded functions for acos() for PCD 
.................... // Overloaded function acos() for data type - Float48 
.................... #if defined(__PCD__) 
.................... float48 acos(float48 x) 
.................... { 
....................    float48 r; 
....................  
....................    r = ASIN_COS(x, 1); 
....................    return(r); 
.................... } 
....................  
.................... // Overloaded function acos() for data type - Float64 
.................... float64 acos(float64 x) 
.................... { 
....................    float64 r; 
....................  
....................    r = ASIN_COS(x, 1); 
....................    return(r); 
.................... } 
.................... #endif 
....................  
.................... float32 const pat[4] = {0.17630401, 5.6710795, 22.376096, 19.818457}; 
.................... float32 const qat[4] = {1.0000000,  11.368190, 28.982246, 19.818457}; 
....................  
.................... //////////////////////////////////////////////////////////////////////////// 
.................... //   float atan(float x) 
.................... //////////////////////////////////////////////////////////////////////////// 
.................... // Description : returns the arctangent value of the value x. 
.................... // Date : N/A 
.................... // 
.................... float32 atan(float32 x) 
.................... { 
....................    float32 y, res, r; 
....................    int1 s, flag; 
....................  
....................    s = 0; 
....................    flag = 0; 
....................    y = x; 
....................  
....................    if (x < 0) 
....................    { 
....................       s = 1; 
....................       y = -y; 
....................    } 
....................  
....................    if (y > 1.0) 
....................    { 
....................       y = 1.0/y; 
....................       flag = 1; 
....................    } 
....................  
....................    res = pat[0]*y*y + pat[1]; 
....................    res = res*y*y + pat[2]; 
....................    res = res*y*y + pat[3]; 
....................  
....................    r = qat[0]*y*y + qat[1]; 
....................    r = r*y*y + qat[2]; 
....................    r = r*y*y + qat[3]; 
....................  
....................    res = y*res/r; 
....................  
....................  
....................    if (flag)                              // for |x| > 1 
....................       res = PI_DIV_BY_TWO - res; 
....................    if (s) 
....................       res = -res; 
....................  
....................    return(res); 
.................... } 
.................... //Overloaded functions for atan() for PCD 
.................... // Overloaded function atan() for data type - Float48 
.................... #if defined(__PCD__) 
.................... float48 atan(float48 x) 
.................... { 
....................    float48 y, res, r; 
....................    int1 s, flag; 
....................  
....................    s = 0; 
....................    flag = 0; 
....................    y = x; 
....................  
....................    if (x < 0) 
....................    { 
....................       s = 1; 
....................       y = -y; 
....................    } 
....................  
....................    if (y > 1.0) 
....................    { 
....................       y = 1.0/y; 
....................       flag = 1; 
....................    } 
....................  
....................    res = pat[0]*y*y + pat[1]; 
....................    res = res*y*y + pat[2]; 
....................    res = res*y*y + pat[3]; 
....................  
....................    r = qat[0]*y*y + qat[1]; 
....................    r = r*y*y + qat[2]; 
....................    r = r*y*y + qat[3]; 
....................  
....................    res = y*res/r; 
....................  
....................  
....................    if (flag)                              // for |x| > 1 
....................       res = PI_DIV_BY_TWO - res; 
....................    if (s) 
....................       res = -res; 
....................  
....................    return(res); 
.................... } 
....................  
.................... // Overloaded function atan() for data type - Float64 
.................... float64 atan(float64 x) 
.................... { 
....................    float64 y, res, r; 
....................    int1 s, flag; 
....................  
....................    s = 0; 
....................    flag = 0; 
....................    y = x; 
....................  
....................    if (x < 0) 
....................    { 
....................       s = 1; 
....................       y = -y; 
....................    } 
....................  
....................    if (y > 1.0) 
....................    { 
....................       y = 1.0/y; 
....................       flag = 1; 
....................    } 
....................  
....................    res = pat[0]*y*y + pat[1]; 
....................    res = res*y*y + pat[2]; 
....................    res = res*y*y + pat[3]; 
....................  
....................    r = qat[0]*y*y + qat[1]; 
....................    r = r*y*y + qat[2]; 
....................    r = r*y*y + qat[3]; 
....................  
....................    res = y*res/r; 
....................  
....................  
....................    if (flag)                              // for |x| > 1 
....................       res = PI_DIV_BY_TWO - res; 
....................    if (s) 
....................       res = -res; 
....................  
....................    return(res); 
.................... } 
.................... #endif 
....................  
.................... ///////////////////////////////////////////////////////////////////////////// 
.................... //   float atan2(float y, float x) 
.................... ///////////////////////////////////////////////////////////////////////////// 
.................... // Description :computes the principal value of arc tangent of y/x, using the 
.................... // signs of both the arguments to determine the quadrant of the return value 
.................... // Returns : returns the arc tangent of y/x. 
.................... // Date : N/A 
.................... // 
....................  
.................... float32 atan2(float32 y,float32 x) 
.................... { 
....................    float32 z; 
....................    int1 sign; 
....................    unsigned int8 quad; 
....................    sign=0; 
....................    quad=0; //quadrant 
....................    quad=((y<=0.0)?((x<=0.0)?3:4):((x<0.0)?2:1)); 
....................    if(y<0.0) 
....................    { 
....................       sign=1; 
....................       y=-y; 
....................    } 
....................    if(x<0.0) 
....................    { 
....................       x=-x; 
....................    } 
....................    if (x==0.0) 
....................    { 
....................       if(y==0.0) 
....................       { 
....................       #ifdef _ERRNO 
....................       { 
....................          errno=EDOM; 
....................       } 
....................       #endif 
....................       } 
....................       else 
....................       { 
....................          if(sign) 
....................          { 
....................          return (-(PI_DIV_BY_TWO)); 
....................          } 
....................          else 
....................          { 
....................          return (PI_DIV_BY_TWO); 
....................          } 
....................       } 
....................    } 
....................    else 
....................    { 
....................       z=y/x; 
....................       switch(quad) 
....................       { 
....................          case 1: 
....................          { 
....................             return atan(z); 
....................             break; 
....................          } 
....................          case 2: 
....................          { 
.................... //            return (atan(z)+PI_DIV_BY_TWO);  //2L3122 
....................             return (PI-atan(z)); 
....................             break; 
....................          } 
....................          case 3: 
....................          { 
....................             return (atan(z)-PI); 
....................             break; 
....................          } 
....................          case 4: 
....................          { 
....................             return (-atan(z)); 
....................             break; 
....................          } 
....................       } 
....................    } 
.................... } 
....................  
.................... //Overloaded functions for atan2() for PCD 
.................... // Overloaded function atan2() for data type - Float48 
.................... #if defined(__PCD__) 
.................... float48 atan2(float48 y,float48 x) 
.................... { 
....................    float48 z; 
....................    int1 sign; 
....................    unsigned int8 quad; 
....................    sign=0; 
....................    quad=0; //quadrant 
....................    quad=((y<=0.0)?((x<=0.0)?3:4):((x<0.0)?2:1)); 
....................    if(y<0.0) 
....................    { 
....................       sign=1; 
....................       y=-y; 
....................    } 
....................    if(x<0.0) 
....................    { 
....................       x=-x; 
....................    } 
....................    if (x==0.0) 
....................    { 
....................       if(y==0.0) 
....................       { 
....................       #ifdef _ERRNO 
....................       { 
....................          errno=EDOM; 
....................       } 
....................       #endif 
....................       } 
....................       else 
....................       { 
....................          if(sign) 
....................          { 
....................          return (-(PI_DIV_BY_TWO)); 
....................          } 
....................          else 
....................          { 
....................          return (PI_DIV_BY_TWO); 
....................          } 
....................       } 
....................    } 
....................    else 
....................    { 
....................       z=y/x; 
....................       switch(quad) 
....................       { 
....................          case 1: 
....................          { 
....................             return atan(z); 
....................             break; 
....................          } 
....................          case 2: 
....................          { 
.................... //            return (atan(z)+PI_DIV_BY_TWO);  //2L3122 
....................             return (PI-atan(z)); 
....................             break; 
....................          } 
....................          case 3: 
....................          { 
....................             return (atan(z)-PI); 
....................             break; 
....................          } 
....................          case 4: 
....................          { 
....................             return (-atan(z)); 
....................             break; 
....................          } 
....................       } 
....................    } 
.................... } 
....................  
.................... // Overloaded function atan2() for data type - Float64 
.................... float64 atan2(float64 y,float64 x) 
.................... { 
....................    float64 z; 
....................    int1 sign; 
....................    unsigned int8 quad; 
....................    sign=0; 
....................    quad=0; //quadrant 
....................    quad=((y<=0.0)?((x<=0.0)?3:4):((x<0.0)?2:1)); 
....................    if(y<0.0) 
....................    { 
....................       sign=1; 
....................       y=-y; 
....................    } 
....................    if(x<0.0) 
....................    { 
....................       x=-x; 
....................    } 
....................    if (x==0.0) 
....................    { 
....................       if(y==0.0) 
....................       { 
....................       #ifdef _ERRNO 
....................       { 
....................          errno=EDOM; 
....................       } 
....................       #endif 
....................       } 
....................       else 
....................       { 
....................          if(sign) 
....................          { 
....................          return (-(PI_DIV_BY_TWO)); 
....................          } 
....................          else 
....................          { 
....................          return (PI_DIV_BY_TWO); 
....................          } 
....................       } 
....................    } 
....................    else 
....................    { 
....................       z=y/x; 
....................       switch(quad) 
....................       { 
....................          case 1: 
....................          { 
....................             return atan(z); 
....................             break; 
....................          } 
....................          case 2: 
....................          { 
.................... //            return (atan(z)+PI_DIV_BY_TWO);  //2L3122 
....................             return (PI-atan(z)); 
....................             break; 
....................          } 
....................          case 3: 
....................          { 
....................             return (atan(z)-PI); 
....................             break; 
....................          } 
....................          case 4: 
....................          { 
....................             return (-atan(z)); 
....................             break; 
....................          } 
....................       } 
....................    } 
.................... } 
.................... #endif 
....................  
.................... //////////////////// Hyperbolic functions //////////////////// 
....................  
.................... //////////////////////////////////////////////////////////////////////////// 
.................... //   float cosh(float x) 
.................... //////////////////////////////////////////////////////////////////////////// 
.................... // Description : Computes the hyperbolic cosine value of x 
.................... // Returns : returns the hyperbolic cosine value of x 
.................... // Date : N/A 
.................... // 
....................  
.................... float32 cosh(float32 x) 
.................... { 
....................    return ((exp(x)+exp(-x))/2); 
.................... } 
.................... //Overloaded functions for cosh() for PCD 
.................... // Overloaded function cosh() for data type - Float48 
.................... #if defined(__PCD__) 
.................... float48 cosh(float48 x) 
.................... { 
....................    return ((exp(x)+exp(-x))/2); 
.................... } 
....................  
.................... // Overloaded function cosh() for data type - Float64 
.................... float64 cosh(float64 x) 
.................... { 
....................    return ((exp(x)+exp(-x))/2); 
.................... } 
.................... #endif 
....................  
.................... //////////////////////////////////////////////////////////////////////////// 
.................... //   float sinh(float x) 
.................... //////////////////////////////////////////////////////////////////////////// 
.................... // Description : Computes the hyperbolic sine value of x 
.................... // Returns : returns the hyperbolic sine value of x 
.................... // Date : N/A 
.................... // 
....................  
.................... float32 sinh(float32 x) 
.................... { 
....................  
....................    return ((exp(x) - exp(-x))/2); 
.................... } 
.................... //Overloaded functions for sinh() for PCD 
.................... // Overloaded function sinh() for data type - Float48 
.................... #if defined(__PCD__) 
.................... float48 sinh(float48 x) 
.................... { 
....................  
....................    return ((exp(x) - exp(-x))/2); 
.................... } 
....................  
.................... // Overloaded function sinh() for data type - Float48 
.................... float64 sinh(float64 x) 
.................... { 
....................  
....................    return ((exp(x) - exp(-x))/2); 
.................... } 
.................... #endif 
....................  
.................... //////////////////////////////////////////////////////////////////////////// 
.................... //   float tanh(float x) 
.................... //////////////////////////////////////////////////////////////////////////// 
.................... // Description : Computes the hyperbolic tangent value of x 
.................... // Returns : returns the hyperbolic tangent value of x 
.................... // Date : N/A 
.................... // 
....................  
.................... float32 tanh(float32 x) 
.................... { 
....................    return(sinh(x)/cosh(x)); 
.................... } 
.................... //Overloaded functions for tanh() for PCD 
.................... // Overloaded function tanh() for data type - Float48 
.................... #if defined(__PCD__) 
.................... float48 tanh(float48 x) 
.................... { 
....................    return(sinh(x)/cosh(x)); 
.................... } 
....................  
.................... // Overloaded function tanh() for data type - Float64 
.................... float64 tanh(float64 x) 
.................... { 
....................    return(sinh(x)/cosh(x)); 
.................... } 
.................... #endif 
....................  
.................... //////////////////////////////////////////////////////////////////////////// 
.................... //   float frexp(float x, signed int *exp) 
.................... //////////////////////////////////////////////////////////////////////////// 
.................... // Description : breaks a floating point number into a normalized fraction and an integral 
.................... // power of 2. It stores the integer in the signed int object pointed to by exp. 
.................... // Returns : returns the value x, such that x is a double with magnitude in the interval 
.................... // [1/2,1) or zero, and value equals x times 2 raised to the power *exp.If value is zero, 
.................... // both parts of the result are zero. 
.................... // Date : N/A 
.................... // 
....................  
.................... #define LOG2 .30102999566398119521 
.................... float32 frexp(float32 x, signed int8 *exp) 
.................... { 
....................    float32 res; 
....................    int1 sign = 0; 
....................    if(x == 0.0) 
....................    { 
....................       *exp=0; 
....................       return (0.0); 
....................    } 
....................    if(x < 0.0) 
....................    { 
....................      x=-x; 
....................      sign=1; 
....................    } 
....................    if (x > 1.0) 
....................    { 
....................       *exp=(ceil(log10(x)/LOG2)); 
....................       res=x/(pow(2, *exp)); 
....................       if (res == 1) 
....................       { 
....................          *exp=*exp+1; 
....................           res=.5; 
....................       } 
....................    } 
....................    else 
....................    { 
....................       if(x < 0.5) 
....................       { 
....................          *exp=-1; 
....................          res=x*2; 
....................       } 
....................       else 
....................       { 
....................          *exp=0; 
....................           res=x; 
....................       } 
....................    } 
....................    if(sign) 
....................    { 
....................       res=-res; 
....................    } 
....................    return res; 
.................... } 
....................  
.................... //Overloaded functions for frexp() for PCD 
.................... // Overloaded function frexp() for data type - Float48 
.................... #if defined(__PCD__) 
.................... float48 frexp(float48 x, signed int8 *exp) 
.................... { 
....................    float48 res; 
....................    int1 sign = 0; 
....................    if(x == 0.0) 
....................    { 
....................       *exp=0; 
....................       return (0.0); 
....................    } 
....................    if(x < 0.0) 
....................    { 
....................      x=-x; 
....................      sign=1; 
....................    } 
....................    if (x > 1.0) 
....................    { 
....................       *exp=(ceil(log10(x)/LOG2)); 
....................       res=x/(pow(2, *exp)); 
....................       if (res == 1) 
....................       { 
....................          *exp=*exp+1; 
....................           res=.5; 
....................       } 
....................    } 
....................    else 
....................    { 
....................       if(x < 0.5) 
....................       { 
....................          *exp=-1; 
....................          res=x*2; 
....................       } 
....................       else 
....................       { 
....................          *exp=0; 
....................           res=x; 
....................       } 
....................    } 
....................    if(sign) 
....................    { 
....................       res=-res; 
....................    } 
....................    return res; 
.................... } 
....................  
.................... // Overloaded function frexp() for data type - Float64 
.................... float64 frexp(float64 x, signed int8 *exp) 
.................... { 
....................    float64 res; 
....................    int1 sign = 0; 
....................    if(x == 0.0) 
....................    { 
....................       *exp=0; 
....................       return (0.0); 
....................    } 
....................    if(x < 0.0) 
....................    { 
....................      x=-x; 
....................      sign=1; 
....................    } 
....................    if (x > 1.0) 
....................    { 
....................       *exp=(ceil(log10(x)/LOG2)); 
....................       res=x/(pow(2, *exp)); 
....................       if (res == 1) 
....................       { 
....................          *exp=*exp+1; 
....................           res=.5; 
....................       } 
....................    } 
....................    else 
....................    { 
....................       if(x < 0.5) 
....................       { 
....................          *exp=-1; 
....................          res=x*2; 
....................       } 
....................       else 
....................       { 
....................          *exp=0; 
....................           res=x; 
....................       } 
....................    } 
....................    if(sign) 
....................    { 
....................       res=-res; 
....................    } 
....................    return res; 
.................... } 
.................... #endif 
....................  
.................... ////////////////////////////////////////////////////////////////////////////// 
.................... //   float ldexp(float x, signed int *exp) 
.................... ////////////////////////////////////////////////////////////////////////////// 
.................... // Description : multiplies a floating point number by an integral power of 2. 
.................... // Returns : returns the value of x times 2 raised to the power exp. 
.................... // Date : N/A 
.................... // 
....................  
.................... float32 ldexp(float32 value, signed int8 exp) 
.................... { 
....................    return (value * pow(2,exp)); 
.................... } 
.................... //Overloaded functions for ldexp() for PCD 
.................... // Overloaded function ldexp() for data type - Float48 
....................  
.................... #if defined(__PCD__) 
.................... float48 ldexp(float48 value, signed int8 exp) 
.................... { 
....................    return (value * pow(2,exp)); 
.................... } 
.................... // Overloaded function ldexp() for data type - Float64 
.................... float64 ldexp(float64 value, signed int8 exp) 
.................... { 
....................    return (value * pow(2,exp)); 
.................... } 
.................... #endif 
....................  
.................... #endif 
....................  
.................... #include "HDM64GS12.c" 
.................... ///////////////////////////////////////////////////////////////////////// 
.................... ////                           HDM64GS12.c                           //// 
.................... ////                                                                 //// 
.................... //// This file contains drivers for using a Hantronix HDM64GS12 with //// 
.................... //// a KS0108 display controller. The HDM64GS12 is 128 by 64 pixels. //// 
.................... //// The driver treats the upper left pixel as (0,0).                //// 
.................... ////                                                                 //// 
.................... //// Use #define FAST_GLCD if the target chip has at least 1k of RAM //// 
.................... //// to decrease the time it takes to update the display.            //// 
.................... //// glcd_update() must then be called to update the display after   //// 
.................... //// changing the pixel information.                                 //// 
.................... //// See ex_glcd.c for suggested usage.                              //// 
.................... //// See KS0108.c for controlling a single 64 by 64 display          //// 
.................... ///////////////////////////////////////////////////////////////////////// 
.................... ////                                                                 //// 
.................... //// LCD Pin connections:                                            //// 
.................... //// (These can be changed as needed in the following defines).      //// 
.................... ////  * 1: VSS is connected to GND                                   //// 
.................... ////  * 2: VDD is connected to +5V                                   //// 
.................... ////  * 3: V0  - LCD operating voltage (Constrast adjustment)        //// 
.................... ////  * 4: D/I - Data or Instruction is connected to B2              //// 
.................... ////  * 5: R/W - Read or Write is connected to B4                    //// 
.................... ////  * 6: Enable is connected to B5                                 //// 
.................... ////  *7-14: Data Bus 0 to 7 is connected to port d                  //// 
.................... ////  *15: Chip Select 1 is connected to B0                          //// 
.................... ////  *16: Chip Select 2 is connected to B1                          //// 
.................... ////  *17: Reset is connected to C0                                  //// 
.................... ////  *18: Negative voltage is also connected to the 20k Ohm POT     //// 
.................... ////  *19: Positive voltage for LED backlight is connected to +5V    //// 
.................... ////  *20: Negavtive voltage for LED backlight is connected to GND   //// 
.................... ////                                                                 //// 
.................... ///////////////////////////////////////////////////////////////////////// 
.................... ////                                                                 //// 
.................... ////  glcd_init(mode)                                                //// 
.................... ////     * Must be called before any other function.                 //// 
.................... ////       - mode can be ON or OFF to turn the LCD on or off         //// 
.................... ////                                                                 //// 
.................... ////  glcd_pixel(x,y,color)                                          //// 
.................... ////     * Sets the pixel to the given color.                        //// 
.................... ////       - color can be ON or OFF                                  //// 
.................... ////                                                                 //// 
.................... ////  glcd_fillScreen(color)                                         //// 
.................... ////     * Fills the entire LCD with the given color.                //// 
.................... ////       - color can be ON or OFF                                  //// 
.................... ////                                                                 //// 
.................... ////  glcd_update()                                                  //// 
.................... ////     * Write the display data stored in RAM to the LCD           //// 
.................... ////     * Only available if FAST_GLCD is defined                    //// 
.................... ////                                                                 //// 
.................... ///////////////////////////////////////////////////////////////////////// 
.................... ////        (C) Copyright 1996, 2004 Custom Computer Services        //// 
.................... //// This source code may only be used by licensed users of the CCS  //// 
.................... //// C compiler.  This source code may only be distributed to other  //// 
.................... //// licensed users of the CCS C compiler.  No other use,            //// 
.................... //// reproduction or distribution is permitted without written       //// 
.................... //// permission.  Derivative programs created using this software    //// 
.................... //// in object code form are not restricted in any way.              //// 
.................... ///////////////////////////////////////////////////////////////////////// 
....................  
....................  
....................  
.................... #ifndef HDM64GS12 
.................... #define HDM64GS12 
....................  
.................... #ifndef FAST_GLCD 
.................... #define FAST_GLCD 
....................  
.................... #ifndef GLCD_WIDTH 
.................... #define GLCD_WIDTH   128 
.................... #endif 
....................  
.................... #ifndef GLCD_CS1 
.................... #define GLCD_CS1     PIN_B2   // Chip Selection 1 
.................... #endif 
....................  
.................... #ifndef GLCD_CS2 
.................... #define GLCD_CS2     PIN_B3   // Chip Selection 2 
.................... #endif 
....................  
.................... #ifndef GLCD_DI 
.................... #define GLCD_DI      PIN_B5   // Data or Instruction input 
.................... #endif 
....................  
.................... #ifndef GLCD_RW 
.................... #define GLCD_RW      PIN_B6   // Read/Write 
.................... #endif 
....................  
.................... #ifndef GLCD_E 
.................... #define GLCD_E       PIN_B7   // Enable 
.................... #endif 
....................  
.................... #ifndef GLCD_RST 
.................... #define GLCD_RST     PIN_B4   // Reset 
.................... #endif 
....................  
.................... #define GLCD_LEFT    0 
.................... #define GLCD_RIGHT   1 
....................  
.................... #ifndef ON 
.................... #define ON           1 
.................... #endif 
....................  
.................... #ifndef OFF 
.................... #define OFF          0 
.................... #endif 
....................  
.................... ///////////////////////////////////////////////////////////////////////// 
.................... // Function Prototypes 
.................... ///////////////////////////////////////////////////////////////////////// 
.................... void glcd_init(int1 mode); 
.................... void glcd_pixel(int8 x, int8 y, int1 color); 
.................... void glcd_fillScreen(int1 color); 
.................... void glcd_writeByte(int1 side, BYTE data); 
.................... BYTE glcd_readByte(int1 side); 
.................... void glcd_update(); 
.................... ///////////////////////////////////////////////////////////////////////// 
....................  
.................... #ifdef FAST_GLCD 
.................... struct 
.................... { 
....................    int8 left[512]; 
....................    int8 right[512]; 
.................... } displayData; 
.................... #endif 
....................  
....................  
.................... // Purpose:       Initialize the LCD. 
.................... //                Call before using any other LCD function. 
.................... // Inputs:        OFF - Turns the LCD off 
.................... //                ON  - Turns the LCD on 
.................... void glcd_init(int1 mode) 
.................... { 
....................    // Initialze some pins 
....................    output_high(GLCD_RST); 
*
01688:  BCF    F93.4
0168A:  BSF    F8A.4
....................    output_low(GLCD_E); 
0168C:  BCF    F93.7
0168E:  BCF    F8A.7
....................    output_low(GLCD_CS1); 
01690:  BCF    F93.2
01692:  BCF    F8A.2
....................    output_low(GLCD_CS2); 
01694:  BCF    F93.3
01696:  BCF    F8A.3
....................  
....................    output_low(GLCD_DI);                 // Set for instruction 
01698:  BCF    F93.5
0169A:  BCF    F8A.5
....................    glcd_writeByte(GLCD_LEFT,  0xC0);    // Specify first RAM line at the top 
0169C:  MOVLB  5
0169E:  CLRF   xE2
016A0:  MOVLW  C0
016A2:  MOVWF  xE3
016A4:  MOVLB  0
016A6:  RCALL  1540
....................    glcd_writeByte(GLCD_RIGHT, 0xC0);    //   of the screen 
016A8:  MOVLW  01
016AA:  MOVLB  5
016AC:  MOVWF  xE2
016AE:  MOVLW  C0
016B0:  MOVWF  xE3
016B2:  MOVLB  0
016B4:  RCALL  1540
....................    glcd_writeByte(GLCD_LEFT,  0x40);    // Set the column address to 0 
016B6:  MOVLB  5
016B8:  CLRF   xE2
016BA:  MOVLW  40
016BC:  MOVWF  xE3
016BE:  MOVLB  0
016C0:  RCALL  1540
....................    glcd_writeByte(GLCD_RIGHT, 0x40); 
016C2:  MOVLW  01
016C4:  MOVLB  5
016C6:  MOVWF  xE2
016C8:  MOVLW  40
016CA:  MOVWF  xE3
016CC:  MOVLB  0
016CE:  RCALL  1540
....................    glcd_writeByte(GLCD_LEFT,  0xB8);    // Set the page address to 0 
016D0:  MOVLB  5
016D2:  CLRF   xE2
016D4:  MOVLW  B8
016D6:  MOVWF  xE3
016D8:  MOVLB  0
016DA:  RCALL  1540
....................    glcd_writeByte(GLCD_RIGHT, 0xB8); 
016DC:  MOVLW  01
016DE:  MOVLB  5
016E0:  MOVWF  xE2
016E2:  MOVLW  B8
016E4:  MOVWF  xE3
016E6:  MOVLB  0
016E8:  RCALL  1540
....................  
....................    if(mode == ON) 
016EA:  MOVLB  5
016EC:  DECFSZ xD3,W
016EE:  BRA    170C
....................    { 
....................       glcd_writeByte(GLCD_LEFT,  0x3F); // Turn the display on 
016F0:  CLRF   xE2
016F2:  MOVLW  3F
016F4:  MOVWF  xE3
016F6:  MOVLB  0
016F8:  RCALL  1540
....................       glcd_writeByte(GLCD_RIGHT, 0x3F); 
016FA:  MOVLW  01
016FC:  MOVLB  5
016FE:  MOVWF  xE2
01700:  MOVLW  3F
01702:  MOVWF  xE3
01704:  MOVLB  0
01706:  RCALL  1540
....................    } 
....................    else 
01708:  BRA    1724
0170A:  MOVLB  5
....................    { 
....................       glcd_writeByte(GLCD_LEFT,  0x3E); // Turn the display off 
0170C:  CLRF   xE2
0170E:  MOVLW  3E
01710:  MOVWF  xE3
01712:  MOVLB  0
01714:  RCALL  1540
....................       glcd_writeByte(GLCD_RIGHT, 0x3E); 
01716:  MOVLW  01
01718:  MOVLB  5
0171A:  MOVWF  xE2
0171C:  MOVLW  3E
0171E:  MOVWF  xE3
01720:  MOVLB  0
01722:  RCALL  1540
....................    } 
....................  
....................    glcd_fillScreen(OFF);                // Clear the display 
01724:  MOVLB  5
01726:  CLRF   xDB
01728:  MOVLB  0
0172A:  RCALL  1576
....................  
....................    #ifdef FAST_GLCD 
....................    glcd_update(); 
0172C:  RCALL  15D0
....................    #endif 
.................... } 
0172E:  RETLW  00
....................  
....................  
.................... // Purpose:    Update the LCD with data from the display arrays 
.................... #ifdef FAST_GLCD 
.................... void glcd_update() 
.................... { 
....................    int8 i, j; 
....................    int8 *p1, *p2; 
....................  
....................    p1 = displayData.left; 
*
015D0:  MOVLB  5
015D2:  CLRF   xDE
015D4:  MOVLW  16
015D6:  MOVWF  xDD
....................    p2 = displayData.right; 
015D8:  MOVLW  02
015DA:  MOVWF  xE0
015DC:  MOVLW  16
015DE:  MOVWF  xDF
....................  
....................    // Loop through the vertical pages 
....................    for(i = 0; i < 8; ++i) 
015E0:  CLRF   xDB
015E2:  MOVF   xDB,W
015E4:  SUBLW  07
015E6:  BNC   1684
....................    { 
....................       output_low(GLCD_DI);                      // Set for instruction 
015E8:  BCF    F93.5
015EA:  BCF    F8A.5
....................       glcd_writeByte(GLCD_LEFT, 0x40);          // Set horizontal address to 0 
015EC:  CLRF   xE2
015EE:  MOVLW  40
015F0:  MOVWF  xE3
015F2:  MOVLB  0
015F4:  RCALL  1540
....................       glcd_writeByte(GLCD_RIGHT, 0x40); 
015F6:  MOVLW  01
015F8:  MOVLB  5
015FA:  MOVWF  xE2
015FC:  MOVLW  40
015FE:  MOVWF  xE3
01600:  MOVLB  0
01602:  RCALL  1540
....................       glcd_writeByte(GLCD_LEFT, i | 0xB8);      // Set page address 
01604:  MOVLB  5
01606:  MOVF   xDB,W
01608:  IORLW  B8
0160A:  MOVWF  xE1
0160C:  CLRF   xE2
0160E:  MOVWF  xE3
01610:  MOVLB  0
01612:  RCALL  1540
....................       glcd_writeByte(GLCD_RIGHT, i | 0xB8); 
01614:  MOVLB  5
01616:  MOVF   xDB,W
01618:  IORLW  B8
0161A:  MOVWF  xE1
0161C:  MOVLW  01
0161E:  MOVWF  xE2
01620:  MOVFF  5E1,5E3
01624:  MOVLB  0
01626:  RCALL  1540
....................       output_high(GLCD_DI);                     // Set for data 
01628:  BCF    F93.5
0162A:  BSF    F8A.5
....................  
....................       // Loop through the horizontal sections 
....................       for(j = 0; j < 64; ++j) 
0162C:  MOVLB  5
0162E:  CLRF   xDC
01630:  MOVF   xDC,W
01632:  SUBLW  3F
01634:  BNC   1680
....................       { 
....................          glcd_writeByte(GLCD_LEFT, *p1++);      // Turn pixels on or off 
01636:  MOVFF  5DE,03
0163A:  MOVF   xDD,W
0163C:  INCF   xDD,F
0163E:  BTFSC  FD8.2
01640:  INCF   xDE,F
01642:  MOVWF  FE9
01644:  MOVFF  03,FEA
01648:  MOVFF  FEF,5E1
0164C:  CLRF   xE2
0164E:  MOVFF  5E1,5E3
01652:  MOVLB  0
01654:  RCALL  1540
....................          glcd_writeByte(GLCD_RIGHT, *p2++);     // Turn pixels on or off 
01656:  MOVLB  5
01658:  MOVFF  5E0,03
0165C:  MOVF   xDF,W
0165E:  INCF   xDF,F
01660:  BTFSC  FD8.2
01662:  INCF   xE0,F
01664:  MOVWF  FE9
01666:  MOVFF  03,FEA
0166A:  MOVFF  FEF,5E1
0166E:  MOVLW  01
01670:  MOVWF  xE2
01672:  MOVFF  5E1,5E3
01676:  MOVLB  0
01678:  RCALL  1540
....................       } 
0167A:  MOVLB  5
0167C:  INCF   xDC,F
0167E:  BRA    1630
....................    } 
01680:  INCF   xDB,F
01682:  BRA    15E2
.................... } 
01684:  MOVLB  0
01686:  RETLW  00
.................... #endif 
....................  
....................  
.................... // Purpose:    Turn a pixel on a graphic LCD on or off 
.................... // Inputs:     1) x - the x coordinate of the pixel 
.................... //             2) y - the y coordinate of the pixel 
.................... //             3) color - ON or OFF 
.................... void glcd_pixel(int8 x, int8 y, int1 color) 
.................... #ifdef FAST_GLCD 
.................... { 
....................    int8* p; 
....................    int16 temp; 
....................    temp =  y/8; 
*
0467A:  MOVLB  6
0467C:  CLRF   x0D
0467E:  RRCF   x08,W
04680:  MOVWF  x0C
04682:  RRCF   x0C,F
04684:  RRCF   x0C,F
04686:  MOVLW  1F
04688:  ANDWF  x0C,F
....................    temp *= 64; 
0468A:  RLCF   x0C,F
0468C:  RLCF   x0D,F
0468E:  RLCF   x0C,F
04690:  RLCF   x0D,F
04692:  RLCF   x0C,F
04694:  RLCF   x0D,F
04696:  RLCF   x0C,F
04698:  RLCF   x0D,F
0469A:  RLCF   x0C,F
0469C:  RLCF   x0D,F
0469E:  RLCF   x0C,F
046A0:  RLCF   x0D,F
046A2:  MOVLW  C0
046A4:  ANDWF  x0C,F
....................    temp += x; 
046A6:  MOVF   x07,W
046A8:  ADDWF  x0C,F
046AA:  MOVLW  00
046AC:  ADDWFC x0D,F
....................  
....................    if(x > 63) 
046AE:  MOVF   x07,W
046B0:  SUBLW  3F
046B2:  BC    46CE
....................    { 
....................       p = displayData.right + temp - 64; 
046B4:  MOVLW  16
046B6:  ADDWF  x0C,W
046B8:  MOVWF  x0E
046BA:  MOVLW  02
046BC:  ADDWFC x0D,W
046BE:  MOVWF  x0F
046C0:  MOVLW  40
046C2:  SUBWF  x0E,W
046C4:  MOVWF  x0A
046C6:  MOVLW  00
046C8:  SUBWFB x0F,W
046CA:  MOVWF  x0B
....................    } 
....................    else 
046CC:  BRA    46DA
....................    { 
....................       p = displayData.left + temp; 
046CE:  MOVLW  16
046D0:  ADDWF  x0C,W
046D2:  MOVWF  x0A
046D4:  MOVLW  00
046D6:  ADDWFC x0D,W
046D8:  MOVWF  x0B
....................    } 
....................  
....................    if(color) 
046DA:  MOVF   x09,F
046DC:  BZ    4708
....................    { 
....................       bit_set(*p, y%8); 
046DE:  MOVFF  60B,03
046E2:  MOVFF  60A,FE9
046E6:  MOVFF  60B,FEA
046EA:  MOVF   x08,W
046EC:  ANDLW  07
046EE:  MOVWF  x0E
046F0:  MOVLW  01
046F2:  MOVWF  00
046F4:  MOVF   x0E,W
046F6:  MOVWF  01
046F8:  BZ    4702
046FA:  BCF    FD8.0
046FC:  RLCF   00,F
046FE:  DECFSZ 01,F
04700:  BRA    46FA
04702:  MOVF   00,W
04704:  IORWF  FEF,F
....................    } 
....................    else 
04706:  BRA    4732
....................    { 
....................       bit_clear(*p, y%8); 
04708:  MOVFF  60B,03
0470C:  MOVFF  60A,FE9
04710:  MOVFF  60B,FEA
04714:  MOVF   x08,W
04716:  ANDLW  07
04718:  MOVWF  x0E
0471A:  MOVLW  01
0471C:  MOVWF  00
0471E:  MOVF   x0E,W
04720:  MOVWF  01
04722:  BZ    472C
04724:  BCF    FD8.0
04726:  RLCF   00,F
04728:  DECFSZ 01,F
0472A:  BRA    4724
0472C:  MOVF   00,W
0472E:  XORLW  FF
04730:  ANDWF  FEF,F
....................    } 
.................... } 
04732:  MOVLB  0
04734:  RETLW  00
.................... #else 
.................... { 
....................    BYTE data; 
....................    int1 side = GLCD_LEFT;  // Stores which chip to use on the LCD 
....................  
....................    if(x > 63)              // Check for first or second display area 
....................    { 
....................       x -= 64; 
....................       side = GLCD_RIGHT; 
....................    } 
....................  
....................    output_low(GLCD_DI);                         // Set for instruction 
....................    bit_clear(x,7);                              // Clear the MSB. Part of an instruction code 
....................    bit_set(x,6);                                // Set bit 6. Also part of an instruction code 
....................    glcd_writeByte(side, x);                     // Set the horizontal address 
....................    glcd_writeByte(side, (y/8 & 0xBF) | 0xB8);   // Set the vertical page address 
....................    output_high(GLCD_DI);                        // Set for data 
....................    glcd_readByte(side);                         // Need two reads to get data 
....................    data = glcd_readByte(side);                  //  at new address 
....................  
....................    if(color == ON) 
....................       bit_set(data, y%8);        // Turn the pixel on 
....................    else                          // or 
....................       bit_clear(data, y%8);      // turn the pixel off 
....................  
....................    output_low(GLCD_DI);          // Set for instruction 
....................    glcd_writeByte(side, x);      // Set the horizontal address 
....................    output_high(GLCD_DI);         // Set for data 
....................    glcd_writeByte(side, data);   // Write the pixel data 
.................... } 
.................... #endif 
....................  
....................  
.................... // Purpose:    Fill the LCD screen with the passed in color 
.................... // Inputs:     ON  - turn all the pixels on 
.................... //             OFF - turn all the pixels off 
.................... void glcd_fillScreen(int1 color) 
.................... #ifdef FAST_GLCD 
.................... { 
....................    int8  data; 
....................    int8  *p1, *p2; 
....................    int16 i; 
....................  
....................    p1 = displayData.left; 
*
01576:  MOVLB  5
01578:  CLRF   xDE
0157A:  MOVLW  16
0157C:  MOVWF  xDD
....................    p2 = displayData.right; 
0157E:  MOVLW  02
01580:  MOVWF  xE0
01582:  MOVLW  16
01584:  MOVWF  xDF
....................    data = 0xFF * color; 
01586:  MOVF   xDB,W
01588:  MULLW  FF
0158A:  MOVFF  FF3,5DC
....................  
....................    for(i=0; i<512; ++i) 
0158E:  CLRF   xE2
01590:  CLRF   xE1
01592:  MOVF   xE2,W
01594:  SUBLW  01
01596:  BNC   15CC
....................    { 
....................       *p1++ = data; 
01598:  MOVFF  5DE,03
0159C:  MOVF   xDD,W
0159E:  INCF   xDD,F
015A0:  BTFSC  FD8.2
015A2:  INCF   xDE,F
015A4:  MOVWF  FE9
015A6:  MOVFF  03,FEA
015AA:  MOVFF  5DC,FEF
....................       *p2++ = data; 
015AE:  MOVFF  5E0,03
015B2:  MOVF   xDF,W
015B4:  INCF   xDF,F
015B6:  BTFSC  FD8.2
015B8:  INCF   xE0,F
015BA:  MOVWF  FE9
015BC:  MOVFF  03,FEA
015C0:  MOVFF  5DC,FEF
....................    } 
015C4:  INCF   xE1,F
015C6:  BTFSC  FD8.2
015C8:  INCF   xE2,F
015CA:  BRA    1592
.................... } 
015CC:  MOVLB  0
015CE:  RETLW  00
.................... #else 
.................... { 
....................    int8 i, j; 
....................  
....................    // Loop through the vertical pages 
....................    for(i = 0; i < 8; ++i) 
....................    { 
....................       output_low(GLCD_DI);                      // Set for instruction 
....................       glcd_writeByte(GLCD_LEFT, 0b01000000);    // Set horizontal address to 0 
....................       glcd_writeByte(GLCD_RIGHT, 0b01000000); 
....................       glcd_writeByte(GLCD_LEFT, i | 0b10111000);// Set page address 
....................       glcd_writeByte(GLCD_RIGHT, i | 0b10111000); 
....................       output_high(GLCD_DI);                     // Set for data 
....................  
....................       // Loop through the horizontal sections 
....................       for(j = 0; j < 64; ++j) 
....................       { 
....................          glcd_writeByte(GLCD_LEFT, 0xFF*color);  // Turn pixels on or off 
....................          glcd_writeByte(GLCD_RIGHT, 0xFF*color); // Turn pixels on or off 
....................       } 
....................    } 
.................... } 
.................... #endif 
....................  
....................  
.................... // Purpose:    Write a byte of data to the specified chip 
.................... // Inputs:     1) chipSelect - which chip to write the data to 
.................... //             2) data - the byte of data to write 
.................... void glcd_writeByte(int1 side, BYTE data) 
.................... { 
....................    if(side)                   // Choose which side to write to 
*
01540:  MOVLB  5
01542:  MOVF   xE2,F
01544:  BZ    154C
....................       output_high(GLCD_CS2); 
01546:  BCF    F93.3
01548:  BSF    F8A.3
....................    else 
0154A:  BRA    1550
....................       output_high(GLCD_CS1); 
0154C:  BCF    F93.2
0154E:  BSF    F8A.2
....................  
....................    output_low(GLCD_RW);       // Set for writing 
01550:  BCF    F93.6
01552:  BCF    F8A.6
....................    output_d(data);            // Put the data on the port 
01554:  CLRF   F95
01556:  MOVFF  5E3,F8C
....................    delay_cycles(1); 
0155A:  NOP   
....................    output_high(GLCD_E);       // Pulse the enable pin 
0155C:  BCF    F93.7
0155E:  BSF    F8A.7
....................    delay_cycles(5); 
01560:  BRA    1562
01562:  BRA    1564
01564:  NOP   
....................    output_low(GLCD_E); 
01566:  BCF    F93.7
01568:  BCF    F8A.7
....................  
....................    output_low(GLCD_CS1);      // Reset the chip select lines 
0156A:  BCF    F93.2
0156C:  BCF    F8A.2
....................    output_low(GLCD_CS2); 
0156E:  BCF    F93.3
01570:  BCF    F8A.3
.................... } 
01572:  MOVLB  0
01574:  RETLW  00
....................  
....................  
.................... // Purpose:    Reads a byte of data from the specified chip 
.................... // Ouputs:     A byte of data read from the chip 
.................... BYTE glcd_readByte(int1 side) 
.................... { 
....................    BYTE data;                 // Stores the data read from the LCD 
....................  
....................    set_tris_d(0xFF);          // Set port d to input 
....................    output_high(GLCD_RW);      // Set for reading 
....................  
....................    if(side)                   // Choose which side to write to 
....................       output_high(GLCD_CS2); 
....................    else 
....................       output_high(GLCD_CS1); 
....................  
....................    delay_cycles(1); 
....................    output_high(GLCD_E);       // Pulse the enable pin 
....................    delay_cycles(4); 
....................    data = input_d();          // Get the data from the display's output register 
....................    output_low(GLCD_E); 
....................  
....................    output_low(GLCD_CS1);      // Reset the chip select lines 
....................    output_low(GLCD_CS2); 
....................    return data;               // Return the read data 
.................... } 
....................  
.................... #endif 
....................  
.................... #include "GRAPHICS.c" 
.................... ///////////////////////////////////////////////////////////////////////// 
.................... ////                          graphics.c                             //// 
.................... ////                                                                 //// 
.................... ////   This file contains functions to draw lines, rectangles, bars, //// 
.................... ////   circles and text to a display. A function which draws a       //// 
.................... ////   single pixel must be defined before calling the functions in  //// 
.................... ////   this file. Call it glcd_pixel(x, y, color) where x is the     //// 
.................... ////   horizontal coordinate, y is the vertical coordinate, and      //// 
.................... ////   color is 1 bit to turn the pixel on or off.                   //// 
.................... ////                                                                 //// 
.................... ////   * Note: (0, 0) is treated as the upper left corner            //// 
.................... ////                                                                 //// 
.................... ///////////////////////////////////////////////////////////////////////// 
.................... ////                                                                 //// 
.................... ////  glcd_line(x1, y1, x2, y2, color)                               //// 
.................... ////     * Draws a line from the first point to the second point     //// 
.................... ////       with the given color                                      //// 
.................... ////       - color can be ON or OFF                                  //// 
.................... ////                                                                 //// 
.................... ////  glcd_rect(x1, y1, x2, y2, fill, color)                         //// 
.................... ////     * Draws a rectangle with one corner at point (x1,y1) and    //// 
.................... ////       the other corner at point (x2,y2)                         //// 
.................... ////       - fill can be YES or NO                                   //// 
.................... ////       - color can be ON or OFF                                  //// 
.................... ////                                                                 //// 
.................... ////  glcd_bar(x1, y1, x2, y2, width, color)                         //// 
.................... ////     * Draws a bar (wide line) from the first point to the       //// 
.................... ////       second point                                              //// 
.................... ////       - width is the number of pixels wide                      //// 
.................... ////       - color is ON or OFF                                      //// 
.................... ////                                                                 //// 
.................... ////  glcd_circle(x, y, radius, fill, color)                         //// 
.................... ////     * Draws a circle with center at (x,y)                       //// 
.................... ////       - fill can be YES or NO                                   //// 
.................... ////       - color can be ON or OFF                                  //// 
.................... ////                                                                 //// 
.................... ////  glcd_text57(x, y, textptr, size, color)                        //// 
.................... ////     * Write the null terminated text pointed to by textptr with //// 
.................... ////       the upper left coordinate of the first character at (x,y) //// 
.................... ////       Characters are 5 pixels wide and 7 pixels tall            //// 
.................... ////       - size is an integer that scales the size of the text     //// 
.................... ////       - color is ON or OFF                                      //// 
.................... ////     * Note - This function wraps characters to the next line    //// 
.................... ////              use #define GLCD_WIDTH to specify a display width  //// 
.................... ////                                                                 //// 
.................... ///////////////////////////////////////////////////////////////////////// 
.................... ////        (C) Copyright 1996, 2004 Custom Computer Services        //// 
.................... //// This source code may only be used by licensed users of the CCS  //// 
.................... //// C compiler.  This source code may only be distributed to other  //// 
.................... //// licensed users of the CCS C compiler.  No other use,            //// 
.................... //// reproduction or distribution is permitted without written       //// 
.................... //// permission.  Derivative programs created using this software    //// 
.................... //// in object code form are not restricted in any way.              //// 
.................... ///////////////////////////////////////////////////////////////////////// 
....................  
....................  
.................... ///////////////////////////////////////////////////////////////////////// 
.................... #ifndef GRAPHICS_DRAWING_FUNCTIONS 
.................... #define GRAPHICS_DRAWING_FUNCTIONS 
.................... ///////////////////////////////////////////////////////////////////////// 
....................  
....................  
.................... ///////////////////////////////////////////////////////////////////////// 
.................... #ifndef ON 
.................... #define ON  1 
.................... #endif 
....................  
.................... #ifndef OFF 
.................... #define OFF 0 
.................... #endif 
....................  
.................... #ifndef YES 
.................... #define YES 1 
.................... #endif 
....................  
.................... #ifndef NO 
.................... #define NO  0 
.................... #endif 
.................... ///////////////////////////////////////////////////////////////////////// 
....................  
....................  
.................... ///////////////////////////////////////////////////////////////////////// 
.................... //// Defines a 5x7 font 
.................... ///////////////////////////////////////////////////////////////////////// 
.................... const int8 FONT[51][5] ={0x00, 0x00, 0x00, 0x00, 0x00, // SPACE 
....................                          0x00, 0x00, 0x5F, 0x00, 0x00, // ! 
....................                          0x00, 0x03, 0x00, 0x03, 0x00, // " 
....................                          0x14, 0x3E, 0x14, 0x3E, 0x14, // # 
....................                          0x24, 0x2A, 0x7F, 0x2A, 0x12, // $ 
....................                          0x43, 0x33, 0x08, 0x66, 0x61, // % 
....................                          0x36, 0x49, 0x55, 0x22, 0x50, // & 
....................                          0x00, 0x05, 0x03, 0x00, 0x00, // ' 
....................                          0x00, 0x1C, 0x22, 0x41, 0x00, // ( 
....................                          0x00, 0x41, 0x22, 0x1C, 0x00, // ) 
....................                          0x14, 0x08, 0x3E, 0x08, 0x14, // * 
....................                          0x08, 0x08, 0x3E, 0x08, 0x08, // + 
....................                          0x00, 0x50, 0x30, 0x00, 0x00, // , 
....................                          0x08, 0x08, 0x08, 0x08, 0x08, // - 
....................                          0x00, 0x60, 0x60, 0x00, 0x00, // . 
....................                          0x20, 0x10, 0x08, 0x04, 0x02, // / 
....................                          0x3E, 0x51, 0x49, 0x45, 0x3E, // 0 
....................                          0x00, 0x04, 0x02, 0x7F, 0x00, // 1 
....................                          0x42, 0x61, 0x51, 0x49, 0x46, // 2 
....................                          0x22, 0x41, 0x49, 0x49, 0x36, // 3 
....................                          0x18, 0x14, 0x12, 0x7F, 0x10, // 4 
....................                          0x27, 0x45, 0x45, 0x45, 0x39, // 5 
....................                          0x3E, 0x49, 0x49, 0x49, 0x32, // 6 
....................                          0x01, 0x01, 0x71, 0x09, 0x07, // 7 
....................                          0x36, 0x49, 0x49, 0x49, 0x36, // 8 
....................                          0x26, 0x49, 0x49, 0x49, 0x3E, // 9 
....................                          0x00, 0x36, 0x36, 0x00, 0x00, // : 
....................                          0x00, 0x56, 0x36, 0x00, 0x00, // ; 
....................                          0x08, 0x14, 0x22, 0x41, 0x00, // < 
....................                          0x14, 0x14, 0x14, 0x14, 0x14, // = 
....................                          0x00, 0x41, 0x22, 0x14, 0x08, // > 
....................                          0x02, 0x01, 0x51, 0x09, 0x06, // ? 
....................                          0x3E, 0x41, 0x59, 0x55, 0x5E, // @ 
....................                          0x7E, 0x09, 0x09, 0x09, 0x7E, // A 
....................                          0x7F, 0x49, 0x49, 0x49, 0x36, // B 
....................                          0x3E, 0x41, 0x41, 0x41, 0x22, // C 
....................                          0x7F, 0x41, 0x41, 0x41, 0x3E, // D 
....................                          0x7F, 0x49, 0x49, 0x49, 0x41, // E 
....................                          0x7F, 0x09, 0x09, 0x09, 0x01, // F 
....................                          0x3E, 0x41, 0x41, 0x49, 0x3A, // G 
....................                          0x7F, 0x08, 0x08, 0x08, 0x7F, // H 
....................                          0x00, 0x41, 0x7F, 0x41, 0x00, // I 
....................                          0x30, 0x40, 0x40, 0x40, 0x3F, // J 
....................                          0x7F, 0x08, 0x14, 0x22, 0x41, // K 
....................                          0x7F, 0x40, 0x40, 0x40, 0x40, // L 
....................                          0x7F, 0x02, 0x0C, 0x02, 0x7F, // M 
....................                          0x7F, 0x02, 0x04, 0x08, 0x7F, // N 
....................                          0x3E, 0x41, 0x41, 0x41, 0x3E, // O 
....................                          0x7F, 0x09, 0x09, 0x09, 0x06, // P 
....................                          0x1E, 0x21, 0x21, 0x21, 0x5E, // Q 
....................                          0x7F, 0x09, 0x09, 0x09, 0x76};// R 
....................  
.................... const int8 FONT2[44][5]={0x26, 0x49, 0x49, 0x49, 0x32, // S 
....................                          0x01, 0x01, 0x7F, 0x01, 0x01, // T 
....................                          0x3F, 0x40, 0x40, 0x40, 0x3F, // U 
....................                          0x1F, 0x20, 0x40, 0x20, 0x1F, // V 
....................                          0x7F, 0x20, 0x10, 0x20, 0x7F, // W 
....................                          0x41, 0x22, 0x1C, 0x22, 0x41, // X 
....................                          0x07, 0x08, 0x70, 0x08, 0x07, // Y 
....................                          0x61, 0x51, 0x49, 0x45, 0x43, // Z 
....................                          0x00, 0x7F, 0x41, 0x00, 0x00, // [ 
....................                          0x02, 0x04, 0x08, 0x10, 0x20, // \ 
....................                          0x00, 0x00, 0x41, 0x7F, 0x00, // ] 
....................                          0x04, 0x02, 0x01, 0x02, 0x04, // ^ 
....................                          0x40, 0x40, 0x40, 0x40, 0x40, // _ 
....................                          0x00, 0x01, 0x02, 0x04, 0x00, // ` 
....................                          0x20, 0x54, 0x54, 0x54, 0x78, // a 
....................                          0x7F, 0x44, 0x44, 0x44, 0x38, // b 
....................                          0x38, 0x44, 0x44, 0x44, 0x44, // c 
....................                          0x38, 0x44, 0x44, 0x44, 0x7F, // d 
....................                          0x38, 0x54, 0x54, 0x54, 0x18, // e 
....................                          0x04, 0x04, 0x7E, 0x05, 0x05, // f 
....................                          0x08, 0x54, 0x54, 0x54, 0x3C, // g 
....................                          0x7F, 0x08, 0x04, 0x04, 0x78, // h 
....................                          0x00, 0x44, 0x7D, 0x40, 0x00, // i 
....................                          0x20, 0x40, 0x44, 0x3D, 0x00, // j 
....................                          0x7F, 0x10, 0x28, 0x44, 0x00, // k 
....................                          0x00, 0x41, 0x7F, 0x40, 0x00, // l 
....................                          0x7C, 0x04, 0x78, 0x04, 0x78, // m 
....................                          0x7C, 0x08, 0x04, 0x04, 0x78, // n 
....................                          0x38, 0x44, 0x44, 0x44, 0x38, // o 
....................                          0x7C, 0x14, 0x14, 0x14, 0x08, // p 
....................                          0x08, 0x14, 0x14, 0x14, 0x7C, // q 
....................                          0x00, 0x7C, 0x08, 0x04, 0x04, // r 
....................                          0x48, 0x54, 0x54, 0x54, 0x20, // s 
....................                          0x04, 0x04, 0x3F, 0x44, 0x44, // t 
....................                          0x3C, 0x40, 0x40, 0x20, 0x7C, // u 
....................                          0x1C, 0x20, 0x40, 0x20, 0x1C, // v 
....................                          0x3C, 0x40, 0x30, 0x40, 0x3C, // w 
....................                          0x44, 0x28, 0x10, 0x28, 0x44, // x 
....................                          0x0C, 0x50, 0x50, 0x50, 0x3C, // y 
....................                          0x44, 0x64, 0x54, 0x4C, 0x44, // z 
....................                          0x00, 0x08, 0x36, 0x41, 0x41, // { 
....................                          0x00, 0x00, 0x7F, 0x00, 0x00, // | 
....................                          0x41, 0x41, 0x36, 0x08, 0x00, // } 
....................                          0x02, 0x01, 0x02, 0x04, 0x02};// ~ 
.................... ///////////////////////////////////////////////////////////////////////// 
....................  
....................  
.................... ///////////////////////////////////////////////////////////////////////// 
.................... // Purpose:       Draw a line on a graphic LCD using Bresenham's 
.................... //                line drawing algorithm 
.................... // Inputs:        (x1, y1) - the start coordinate 
.................... //                (x2, y2) - the end coordinate 
.................... //                color - ON or OFF 
.................... // Dependencies:  glcd_pixel() 
.................... ///////////////////////////////////////////////////////////////////////// 
.................... #ifdef LARGE_LCD 
.................... void glcd_line(int16 x1, int16 y1, int16 x2, int16 y2, int1 color) 
.................... #else 
.................... void glcd_line(int8 x1, int8 y1, int8 x2, int8 y2, int1 color) 
.................... #endif 
.................... { 
*
04736:  MOVLW  01
04738:  MOVLB  6
0473A:  MOVWF  x00
0473C:  MOVWF  x01
0473E:  CLRF   x06
....................    int16        dy, dx; 
....................    signed int8  addx=1, addy=1; 
....................    signed int16 P, diff; 
....................  
....................    #ifdef LARGE_LCD 
....................    int16 i=0; 
....................    dx = abs((signed int16)(x2 - x1)); 
....................    dy = abs((signed int16)(y2 - y1)); 
....................    #else 
....................    int8 i=0; 
....................    dx = abs((signed int8)(x2 - x1)); 
04740:  MOVLB  5
04742:  MOVF   xF7,W
04744:  SUBWF  xF9,W
04746:  MOVLB  6
04748:  MOVWF  x07
0474A:  MOVF   x07,W
0474C:  BTFSS  x07.7
0474E:  BRA    4756
04750:  MOVLW  00
04752:  BSF    FD8.0
04754:  SUBFWB x07,W
04756:  CLRF   03
04758:  MOVLB  5
0475A:  MOVWF  xFE
0475C:  MOVFF  03,5FF
....................    dy = abs((signed int8)(y2 - y1)); 
04760:  MOVF   xF8,W
04762:  SUBWF  xFA,W
04764:  MOVLB  6
04766:  MOVWF  x07
04768:  MOVF   x07,W
0476A:  BTFSS  x07.7
0476C:  BRA    4774
0476E:  MOVLW  00
04770:  BSF    FD8.0
04772:  SUBFWB x07,W
04774:  CLRF   03
04776:  MOVLB  5
04778:  MOVWF  xFC
0477A:  MOVFF  03,5FD
....................    #endif 
....................  
....................    if(x1 > x2) 
0477E:  MOVF   xF7,W
04780:  SUBWF  xF9,W
04782:  BC    478C
....................       addx = -1; 
04784:  MOVLW  FF
04786:  MOVLB  6
04788:  MOVWF  x00
0478A:  MOVLB  5
....................    if(y1 > y2) 
0478C:  MOVF   xF8,W
0478E:  SUBWF  xFA,W
04790:  BC    479A
....................       addy = -1; 
04792:  MOVLW  FF
04794:  MOVLB  6
04796:  MOVWF  x01
04798:  MOVLB  5
....................  
....................    if(dx >= dy) 
0479A:  MOVF   xFD,W
0479C:  SUBWF  xFF,W
0479E:  BNC   483C
047A0:  BNZ   47A8
047A2:  MOVF   xFC,W
047A4:  SUBWF  xFE,W
047A6:  BNC   483C
....................    { 
....................       dy *= 2; 
047A8:  BCF    FD8.0
047AA:  RLCF   xFC,F
047AC:  RLCF   xFD,F
....................       P = dy - dx; 
047AE:  MOVF   xFE,W
047B0:  SUBWF  xFC,W
047B2:  MOVWF  00
047B4:  MOVF   xFF,W
047B6:  SUBWFB xFD,W
047B8:  MOVFF  00,602
047BC:  MOVLB  6
047BE:  MOVWF  x03
....................       diff = P - dx; 
047C0:  MOVLB  5
047C2:  MOVF   xFE,W
047C4:  MOVLB  6
047C6:  SUBWF  x02,W
047C8:  MOVWF  x04
047CA:  MOVLB  5
047CC:  MOVF   xFF,W
047CE:  MOVLB  6
047D0:  SUBWFB x03,W
047D2:  MOVWF  x05
....................  
....................       for(; i<=dx; ++i) 
047D4:  MOVLB  5
047D6:  MOVF   xFF,F
047D8:  BNZ   47E4
047DA:  MOVLB  6
047DC:  MOVF   x06,W
047DE:  MOVLB  5
047E0:  SUBWF  xFE,W
047E2:  BNC   483A
....................       { 
....................          glcd_pixel(x1, y1, color); 
047E4:  MOVFF  5F7,607
047E8:  MOVFF  5F8,608
047EC:  MOVFF  5FB,609
047F0:  MOVLB  0
047F2:  RCALL  467A
....................  
....................          if(P < 0) 
047F4:  MOVLB  6
047F6:  BTFSC  x03.7
047F8:  BRA    47FC
047FA:  BRA    4818
....................          { 
....................             P  += dy; 
047FC:  MOVLB  5
047FE:  MOVF   xFC,W
04800:  MOVLB  6
04802:  ADDWF  x02,F
04804:  MOVLB  5
04806:  MOVF   xFD,W
04808:  MOVLB  6
0480A:  ADDWFC x03,F
....................             x1 += addx; 
0480C:  MOVF   x00,W
0480E:  MOVLB  5
04810:  ADDWF  xF7,W
04812:  MOVWF  xF7
....................          } 
....................          else 
04814:  BRA    4832
04816:  MOVLB  6
....................          { 
....................             P  += diff; 
04818:  MOVF   x04,W
0481A:  ADDWF  x02,F
0481C:  MOVF   x05,W
0481E:  ADDWFC x03,F
....................             x1 += addx; 
04820:  MOVF   x00,W
04822:  MOVLB  5
04824:  ADDWF  xF7,W
04826:  MOVWF  xF7
....................             y1 += addy; 
04828:  MOVLB  6
0482A:  MOVF   x01,W
0482C:  MOVLB  5
0482E:  ADDWF  xF8,W
04830:  MOVWF  xF8
....................          } 
....................       } 
04832:  MOVLB  6
04834:  INCF   x06,F
04836:  BRA    47D4
04838:  MOVLB  5
....................    } 
....................    else 
0483A:  BRA    48CE
....................    { 
....................       dx *= 2; 
0483C:  BCF    FD8.0
0483E:  RLCF   xFE,F
04840:  RLCF   xFF,F
....................       P = dx - dy; 
04842:  MOVF   xFC,W
04844:  SUBWF  xFE,W
04846:  MOVWF  00
04848:  MOVF   xFD,W
0484A:  SUBWFB xFF,W
0484C:  MOVFF  00,602
04850:  MOVLB  6
04852:  MOVWF  x03
....................       diff = P - dy; 
04854:  MOVLB  5
04856:  MOVF   xFC,W
04858:  MOVLB  6
0485A:  SUBWF  x02,W
0485C:  MOVWF  x04
0485E:  MOVLB  5
04860:  MOVF   xFD,W
04862:  MOVLB  6
04864:  SUBWFB x03,W
04866:  MOVWF  x05
....................  
....................       for(; i<=dy; ++i) 
04868:  MOVLB  5
0486A:  MOVF   xFD,F
0486C:  BNZ   4878
0486E:  MOVLB  6
04870:  MOVF   x06,W
04872:  MOVLB  5
04874:  SUBWF  xFC,W
04876:  BNC   48CE
....................       { 
....................          glcd_pixel(x1, y1, color); 
04878:  MOVFF  5F7,607
0487C:  MOVFF  5F8,608
04880:  MOVFF  5FB,609
04884:  MOVLB  0
04886:  RCALL  467A
....................  
....................          if(P < 0) 
04888:  MOVLB  6
0488A:  BTFSC  x03.7
0488C:  BRA    4890
0488E:  BRA    48AC
....................          { 
....................             P  += dx; 
04890:  MOVLB  5
04892:  MOVF   xFE,W
04894:  MOVLB  6
04896:  ADDWF  x02,F
04898:  MOVLB  5
0489A:  MOVF   xFF,W
0489C:  MOVLB  6
0489E:  ADDWFC x03,F
....................             y1 += addy; 
048A0:  MOVF   x01,W
048A2:  MOVLB  5
048A4:  ADDWF  xF8,W
048A6:  MOVWF  xF8
....................          } 
....................          else 
048A8:  BRA    48C6
048AA:  MOVLB  6
....................          { 
....................             P  += diff; 
048AC:  MOVF   x04,W
048AE:  ADDWF  x02,F
048B0:  MOVF   x05,W
048B2:  ADDWFC x03,F
....................             x1 += addx; 
048B4:  MOVF   x00,W
048B6:  MOVLB  5
048B8:  ADDWF  xF7,W
048BA:  MOVWF  xF7
....................             y1 += addy; 
048BC:  MOVLB  6
048BE:  MOVF   x01,W
048C0:  MOVLB  5
048C2:  ADDWF  xF8,W
048C4:  MOVWF  xF8
....................          } 
....................       } 
048C6:  MOVLB  6
048C8:  INCF   x06,F
048CA:  BRA    4868
048CC:  MOVLB  5
....................    } 
.................... } 
048CE:  MOVLB  0
048D0:  RETLW  00
....................  
....................  
.................... ///////////////////////////////////////////////////////////////////////// 
.................... // Purpose:       Draw a rectangle on a graphic LCD 
.................... // Inputs:        (x1, y1) - the start coordinate 
.................... //                (x2, y2) - the end coordinate 
.................... //                fill  - YES or NO 
.................... //                color - ON or OFF 
.................... // Dependencies:  glcd_pixel(), glcd_line() 
.................... ///////////////////////////////////////////////////////////////////////// 
.................... #ifdef LARGE_LCD 
.................... void glcd_rect(int16 x1, int16 y1, int16 x2, int16 y2, int1 fill, int1 color) 
.................... #else 
.................... void glcd_rect(int8 x1, int8 y1, int8 x2, int8 y2, int1 fill, int1 color) 
.................... #endif 
.................... { 
....................    if(fill) 
048D2:  MOVLB  5
048D4:  MOVF   xF0,F
048D6:  BZ    4934
....................    { 
....................       #ifdef LARGE_LCD 
....................       int16 i, xmin, xmax, ymin, ymax; 
....................       #else 
....................       int8  i, xmin, xmax, ymin, ymax; 
....................       #endif 
....................  
....................       if(x1 < x2)                            //  Find x min and max 
048D8:  MOVF   xEE,W
048DA:  SUBWF  xEC,W
048DC:  BC    48E8
....................       { 
....................          xmin = x1; 
048DE:  MOVFF  5EC,5F3
....................          xmax = x2; 
048E2:  MOVFF  5EE,5F4
....................       } 
....................       else 
048E6:  BRA    48F0
....................       { 
....................          xmin = x2; 
048E8:  MOVFF  5EE,5F3
....................          xmax = x1; 
048EC:  MOVFF  5EC,5F4
....................       } 
....................  
....................       if(y1 < y2)                            // Find the y min and max 
048F0:  MOVF   xEF,W
048F2:  SUBWF  xED,W
048F4:  BC    4900
....................       { 
....................          ymin = y1; 
048F6:  MOVFF  5ED,5F5
....................          ymax = y2; 
048FA:  MOVFF  5EF,5F6
....................       } 
....................       else 
048FE:  BRA    4908
....................       { 
....................          ymin = y2; 
04900:  MOVFF  5EF,5F5
....................          ymax = y1; 
04904:  MOVFF  5ED,5F6
....................       } 
....................  
....................       for(; xmin <= xmax; ++xmin) 
04908:  MOVF   xF3,W
0490A:  SUBWF  xF4,W
0490C:  BNC   4932
....................       { 
....................          for(i=ymin; i<=ymax; ++i) 
0490E:  MOVFF  5F5,5F2
04912:  MOVF   xF2,W
04914:  SUBWF  xF6,W
04916:  BNC   492E
....................          { 
....................             glcd_pixel(xmin, i, color); 
04918:  MOVFF  5F3,607
0491C:  MOVFF  5F2,608
04920:  MOVFF  5F1,609
04924:  MOVLB  0
04926:  RCALL  467A
....................          } 
04928:  MOVLB  5
0492A:  INCF   xF2,F
0492C:  BRA    4912
....................       } 
0492E:  INCF   xF3,F
04930:  BRA    4908
....................    } 
....................    else 
04932:  BRA    4990
....................    { 
....................       glcd_line(x1, y1, x2, y1, color);      // Draw the 4 sides 
04934:  MOVFF  5EC,5F7
04938:  MOVFF  5ED,5F8
0493C:  MOVFF  5EE,5F9
04940:  MOVFF  5ED,5FA
04944:  MOVFF  5F1,5FB
04948:  MOVLB  0
0494A:  RCALL  4736
....................       glcd_line(x1, y2, x2, y2, color); 
0494C:  MOVFF  5EC,5F7
04950:  MOVFF  5EF,5F8
04954:  MOVFF  5EE,5F9
04958:  MOVFF  5EF,5FA
0495C:  MOVFF  5F1,5FB
04960:  RCALL  4736
....................       glcd_line(x1, y1, x1, y2, color); 
04962:  MOVFF  5EC,5F7
04966:  MOVFF  5ED,5F8
0496A:  MOVFF  5EC,5F9
0496E:  MOVFF  5EF,5FA
04972:  MOVFF  5F1,5FB
04976:  RCALL  4736
....................       glcd_line(x2, y1, x2, y2, color); 
04978:  MOVFF  5EE,5F7
0497C:  MOVFF  5ED,5F8
04980:  MOVFF  5EE,5F9
04984:  MOVFF  5EF,5FA
04988:  MOVFF  5F1,5FB
0498C:  RCALL  4736
0498E:  MOVLB  5
....................    } 
.................... } 
04990:  MOVLB  0
04992:  RETLW  00
....................  
.................... ///////////////////////////////////////////////////////////////////////// 
.................... // Purpose:       Draw a bar (wide line) on a graphic LCD 
.................... // Inputs:        (x1, y1) - the start coordinate 
.................... //                (x2, y2) - the end coordinate 
.................... //                width  - The number of pixels wide 
.................... //                color - ON or OFF 
.................... ///////////////////////////////////////////////////////////////////////// 
.................... #ifdef LARGE_LCD 
.................... void glcd_bar(int16 x1, int16 y1, int16 x2, int16 y2, int8 width, int1 color) 
.................... #else 
.................... void glcd_bar(int8 x1, int8 y1, int8 x2, int8 y2, int8 width, int1 color) 
.................... #endif 
.................... { 
....................    int8         half_width; 
....................    signed int16 dy, dx; 
....................    signed int8  addx=1, addy=1, j; 
....................    signed int16 P, diff, c1, c2; 
....................  
....................    #ifdef LARGE_LCD 
....................    int16 i=0; 
....................    dx = abs((signed int16)(x2 - x1)); 
....................    dy = abs((signed int16)(y2 - y1)); 
....................    #else 
....................    int8 i=0; 
....................    dx = abs((signed int8)(x2 - x1)); 
....................    dy = abs((signed int8)(y2 - y1)); 
....................    #endif 
....................  
....................    half_width = width/2; 
....................    c1 = -(dx*x1 + dy*y1); 
....................    c2 = -(dx*x2 + dy*y2); 
....................  
....................    if(x1 > x2) 
....................    { 
....................       signed int16 temp; 
....................       temp = c1; 
....................       c1 = c2; 
....................       c2 = temp; 
....................       addx = -1; 
....................    } 
....................    if(y1 > y2) 
....................    { 
....................       signed int16 temp; 
....................       temp = c1; 
....................       c1 = c2; 
....................       c2 = temp; 
....................       addy = -1; 
....................    } 
....................  
....................    if(dx >= dy) 
....................    { 
....................       P = 2*dy - dx; 
....................       diff = P - dx; 
....................  
....................       for(i=0; i<=dx; ++i) 
....................       { 
....................          for(j=-half_width; j<half_width+width%2; ++j) 
....................          { 
....................             #ifdef LARGE_LCD 
....................             int16 temp; 
....................             #else 
....................             int8 temp; 
....................             #endif 
....................  
....................             temp = dx*x1+dy*(y1+j);    // Use more RAM to increase speed 
....................             if(temp+c1 >= 0 && temp+c2 <=0) 
....................                glcd_pixel(x1, y1+j, color); 
....................          } 
....................          if(P < 0) 
....................          { 
....................             P  += 2*dy; 
....................             x1 += addx; 
....................          } 
....................          else 
....................          { 
....................             P  += diff; 
....................             x1 += addx; 
....................             y1 += addy; 
....................          } 
....................       } 
....................    } 
....................    else 
....................    { 
....................       P = 2*dx - dy; 
....................       diff = P - dy; 
....................  
....................       for(i=0; i<=dy; ++i) 
....................       { 
....................          if(P < 0) 
....................          { 
....................             P  += 2*dx; 
....................             y1 += addy; 
....................          } 
....................          else 
....................          { 
....................             P  += diff; 
....................             x1 += addx; 
....................             y1 += addy; 
....................          } 
....................          for(j=-half_width; j<half_width+width%2; ++j) 
....................          { 
....................             #ifdef LARGE_LCD 
....................             int16 temp; 
....................             #else 
....................             int8 temp; 
....................             #endif 
....................  
....................             temp = dx*x1+dy*(y1+j);    // Use more RAM to increase speed 
....................             if(temp+c1 >= 0 && temp+c2 <=0) 
....................                glcd_pixel(x1+j, y1, color); 
....................          } 
....................       } 
....................    } 
.................... } 
....................  
....................  
.................... ///////////////////////////////////////////////////////////////////////// 
.................... // Purpose:       Draw a circle on a graphic LCD 
.................... // Inputs:        (x,y) - the center of the circle 
.................... //                radius - the radius of the circle 
.................... //                fill - YES or NO 
.................... //                color - ON or OFF 
.................... ///////////////////////////////////////////////////////////////////////// 
.................... #ifdef LARGE_LCD 
.................... void glcd_circle(int16 x, int16 y, int16 radius, int1 fill, int1 color) 
.................... #else 
.................... void glcd_circle(int8 x, int8 y, int8 radius, int1 fill, int1 color) 
.................... #endif 
.................... { 
....................    #ifdef LARGE_LCD 
....................    signed int16 a, b, P; 
....................    #else 
....................    signed int8  a, b, P; 
....................    #endif 
....................  
....................    a = 0; 
....................    b = radius; 
....................    P = 1 - radius; 
....................  
....................    do 
....................    { 
....................       if(fill) 
....................       { 
....................          glcd_line(x-a, y+b, x+a, y+b, color); 
....................          glcd_line(x-a, y-b, x+a, y-b, color); 
....................          glcd_line(x-b, y+a, x+b, y+a, color); 
....................          glcd_line(x-b, y-a, x+b, y-a, color); 
....................       } 
....................       else 
....................       { 
....................          glcd_pixel(a+x, b+y, color); 
....................          glcd_pixel(b+x, a+y, color); 
....................          glcd_pixel(x-a, b+y, color); 
....................          glcd_pixel(x-b, a+y, color); 
....................          glcd_pixel(b+x, y-a, color); 
....................          glcd_pixel(a+x, y-b, color); 
....................          glcd_pixel(x-a, y-b, color); 
....................          glcd_pixel(x-b, y-a, color); 
....................       } 
....................  
....................       if(P < 0) 
....................          P += 3 + 2 * a++; 
....................       else 
....................          P += 5 + 2 * (a++ - b--); 
....................     } while(a <= b); 
.................... } 
....................  
....................  
.................... ///////////////////////////////////////////////////////////////////////// 
.................... // Purpose:       Write text on a graphic LCD 
.................... // Inputs:        (x,y) - The upper left coordinate of the first letter 
.................... //                textptr - A pointer to an array of text to display 
.................... //                size - The size of the text: 1 = 5x7, 2 = 10x14, ... 
.................... //                color - ON or OFF 
.................... ///////////////////////////////////////////////////////////////////////// 
.................... #ifdef LARGE_LCD 
.................... void glcd_text57(int16 x, int16 y, char* textptr, int8 size, int1 color) 
.................... #else 
.................... void glcd_text57(int8 x, int8 y, char* textptr, int8 size, int1 color) 
.................... #endif 
.................... { 
....................    int8 j, k, l, m;                       // Loop counters 
....................    int8 pixelData[5];                     // Stores character data 
....................  
....................    for(; *textptr != '\0'; ++textptr, ++x)// Loop through the passed string 
04994:  MOVFF  5EF,03
04998:  MOVLB  5
0499A:  MOVFF  5EE,FE9
0499E:  MOVFF  5EF,FEA
049A2:  MOVF   FEF,F
049A4:  BTFSC  FD8.2
049A6:  BRA    4B4A
....................    { 
....................       if(*textptr < 'S') // Checks if the letter is in the first font array 
049A8:  MOVFF  5EF,03
049AC:  MOVFF  5EE,FE9
049B0:  MOVFF  5EF,FEA
049B4:  MOVF   FEF,W
049B6:  SUBLW  52
049B8:  BNC   4A08
....................          memcpy(pixelData, FONT[*textptr - ' '], 5); 
049BA:  MOVFF  5EF,03
049BE:  MOVFF  5EE,FE9
049C2:  MOVFF  5EF,FEA
049C6:  MOVLW  20
049C8:  SUBWF  FEF,W
049CA:  MULLW  05
049CC:  MOVF   FF3,W
049CE:  CLRF   03
049D0:  MOVWF  xFB
049D2:  MOVLW  05
049D4:  MOVWF  FEA
049D6:  MOVLW  F6
049D8:  MOVWF  FE9
049DA:  CLRF   xFF
049DC:  MOVFF  5FB,5FE
049E0:  MOVFF  FF2,5FC
049E4:  BCF    FF2.7
049E6:  MOVLW  05
049E8:  MOVWF  01
049EA:  CLRF   FF7
049EC:  MOVF   xFB,W
049EE:  MOVLB  0
049F0:  CALL   0096
049F4:  TBLRD*-
049F6:  TBLRD*+
049F8:  MOVFF  FF5,FEE
049FC:  DECFSZ 01,F
049FE:  BRA    49F6
04A00:  MOVLB  5
04A02:  BTFSC  xFC.7
04A04:  BSF    FF2.7
....................       else if(*textptr <= '~') // Check if the letter is in the second font array 
04A06:  BRA    4A72
04A08:  MOVFF  5EF,03
04A0C:  MOVFF  5EE,FE9
04A10:  MOVFF  5EF,FEA
04A14:  MOVF   FEF,W
04A16:  SUBLW  7E
04A18:  BNC   4A68
....................          memcpy(pixelData, FONT2[*textptr - 'S'], 5); 
04A1A:  MOVFF  5EF,03
04A1E:  MOVFF  5EE,FE9
04A22:  MOVFF  5EF,FEA
04A26:  MOVLW  53
04A28:  SUBWF  FEF,W
04A2A:  MULLW  05
04A2C:  MOVF   FF3,W
04A2E:  CLRF   03
04A30:  MOVWF  xFB
04A32:  MOVLW  05
04A34:  MOVWF  FEA
04A36:  MOVLW  F6
04A38:  MOVWF  FE9
04A3A:  CLRF   xFF
04A3C:  MOVFF  5FB,5FE
04A40:  MOVFF  FF2,5FC
04A44:  BCF    FF2.7
04A46:  MOVLW  05
04A48:  MOVWF  01
04A4A:  CLRF   FF7
04A4C:  MOVF   xFB,W
04A4E:  MOVLB  0
04A50:  CALL   01B0
04A54:  TBLRD*-
04A56:  TBLRD*+
04A58:  MOVFF  FF5,FEE
04A5C:  DECFSZ 01,F
04A5E:  BRA    4A56
04A60:  MOVLB  5
04A62:  BTFSC  xFC.7
04A64:  BSF    FF2.7
....................       else 
04A66:  BRA    4A72
....................          memcpy(pixelData, FONT[0], 5);   // Default to space 
04A68:  CLRF   xF6
04A6A:  CLRF   xF7
04A6C:  CLRF   xF8
04A6E:  CLRF   xF9
04A70:  CLRF   xFA
....................  
....................       // Handles newline and carriage returns 
....................       switch(*textptr) 
....................       { 
04A72:  MOVFF  5EF,03
04A76:  MOVF   xEE,W
04A78:  MOVWF  FE9
04A7A:  MOVFF  03,FEA
04A7E:  MOVF   FEF,W
04A80:  XORLW  0A
04A82:  MOVLB  0
04A84:  BZ    4A8C
04A86:  XORLW  07
04A88:  BZ    4A9C
04A8A:  BRA    4AA2
....................          case '\n': 
....................             y += 7*size + 1; 
04A8C:  MOVLB  5
04A8E:  MOVF   xF0,W
04A90:  MULLW  07
04A92:  MOVF   FF3,W
04A94:  ADDLW  01
04A96:  ADDWF  xED,F
....................             continue; 
04A98:  BRA    4B3C
04A9A:  MOVLB  0
....................          case '\r': 
....................             x = 0; 
04A9C:  MOVLB  5
04A9E:  CLRF   xEC
....................             continue; 
04AA0:  BRA    4B3C
....................       } 
....................  
....................       if(x+5*size >= GLCD_WIDTH)          // Performs character wrapping 
04AA2:  MOVLB  5
04AA4:  MOVF   xF0,W
04AA6:  MULLW  05
04AA8:  MOVF   FF3,W
04AAA:  ADDWF  xEC,W
04AAC:  SUBLW  7F
04AAE:  BC    4ABC
....................       { 
....................          x = 0;                           // Set x at far left position 
04AB0:  CLRF   xEC
....................          y += 7*size + 1;                 // Set y at next position down 
04AB2:  MOVF   xF0,W
04AB4:  MULLW  07
04AB6:  MOVF   FF3,W
04AB8:  ADDLW  01
04ABA:  ADDWF  xED,F
....................       } 
....................       for(j=0; j<5; ++j, x+=size)         // Loop through character byte data 
04ABC:  CLRF   xF2
04ABE:  MOVF   xF2,W
04AC0:  SUBLW  04
04AC2:  BNC   4B3C
....................       { 
....................          for(k=0; k < 7; ++k)             // Loop through the vertical pixels 
04AC4:  CLRF   xF3
04AC6:  MOVF   xF3,W
04AC8:  SUBLW  06
04ACA:  BNC   4B34
....................          { 
....................             if(bit_test(pixelData[j], k)) // Check if the pixel should be set 
04ACC:  CLRF   03
04ACE:  MOVF   xF2,W
04AD0:  ADDLW  F6
04AD2:  MOVWF  FE9
04AD4:  MOVLW  05
04AD6:  ADDWFC 03,W
04AD8:  MOVWF  FEA
04ADA:  MOVFF  FEF,5FB
04ADE:  MOVFF  5FB,00
04AE2:  MOVF   xF3,W
04AE4:  MOVWF  01
04AE6:  BZ    4AF0
04AE8:  BCF    FD8.0
04AEA:  RRCF   00,F
04AEC:  DECFSZ 01,F
04AEE:  BRA    4AE8
04AF0:  BTFSS  00.0
04AF2:  BRA    4B30
....................             { 
....................                for(l=0; l < size; ++l)    // These two loops change the 
04AF4:  CLRF   xF4
04AF6:  MOVF   xF0,W
04AF8:  SUBWF  xF4,W
04AFA:  BC    4B30
....................                {                          // character's size 
....................                   for(m=0; m < size; ++m) 
04AFC:  CLRF   xF5
04AFE:  MOVF   xF0,W
04B00:  SUBWF  xF5,W
04B02:  BC    4B2C
....................                   { 
....................                      glcd_pixel(x+m, y+k*size+l, color); // Draws the pixel 
04B04:  MOVF   xF5,W
04B06:  ADDWF  xEC,W
04B08:  MOVWF  xFB
04B0A:  MOVF   xF3,W
04B0C:  MULWF  xF0
04B0E:  MOVF   FF3,W
04B10:  ADDWF  xED,W
04B12:  ADDWF  xF4,W
04B14:  MOVWF  xFC
04B16:  MOVFF  5FB,607
04B1A:  MOVFF  FE8,608
04B1E:  MOVFF  5F1,609
04B22:  MOVLB  0
04B24:  RCALL  467A
....................                   } 
04B26:  MOVLB  5
04B28:  INCF   xF5,F
04B2A:  BRA    4AFE
....................                } 
04B2C:  INCF   xF4,F
04B2E:  BRA    4AF6
....................             } 
....................          } 
04B30:  INCF   xF3,F
04B32:  BRA    4AC6
....................       } 
04B34:  INCF   xF2,F
04B36:  MOVF   xF0,W
04B38:  ADDWF  xEC,F
04B3A:  BRA    4ABE
....................    } 
04B3C:  INCF   xEE,F
04B3E:  BTFSC  FD8.2
04B40:  INCF   xEF,F
04B42:  INCF   xEC,F
04B44:  MOVLB  0
04B46:  BRA    4994
04B48:  MOVLB  5
.................... } 
04B4A:  MOVLB  0
04B4C:  RETLW  00
....................  
.................... #endif 
....................  
.................... #include "imagen.h" 
.................... const int8 Bombillo [64][16] = { 
.................... 0x00, 0x00, 0x00, 0x00, 0x00, 0x00, 0x00, 0x00, 0x00, 0x00, 0x00, 0x00, 0x00, 0x00, 0x00, 0x00, 
.................... 0x00, 0x00, 0x00, 0x00, 0x00, 0x00, 0x00, 0x00, 0x00, 0x00, 0x00, 0x00, 0x00, 0x00, 0x00, 0x00, 
.................... 0x00, 0x00, 0x00, 0x00, 0x00, 0x00, 0x00, 0x00, 0x00, 0x00, 0x00, 0x00, 0x00, 0x00, 0x00, 0x00, 
.................... 0x00, 0x00, 0x00, 0x00, 0x00, 0x00, 0x00, 0x00, 0x00, 0x00, 0x00, 0x00, 0x00, 0x00, 0x00, 0x00, 
.................... 0x00, 0x00, 0x00, 0x00, 0x00, 0x00, 0x00, 0x00, 0x00, 0x00, 0x00, 0x00, 0x00, 0x00, 0x00, 0x00, 
.................... 0x00, 0x00, 0x00, 0x00, 0x00, 0x00, 0x00, 0x00, 0x00, 0x00, 0x00, 0x00, 0x00, 0x00, 0x00, 0x00, 
.................... 0x00, 0x00, 0x00, 0x00, 0x00, 0x00, 0x00, 0x00, 0x00, 0x00, 0x00, 0x00, 0x00, 0x00, 0x00, 0x00, 
.................... 0x00, 0x00, 0x00, 0x00, 0x00, 0x00, 0x00, 0x00, 0x00, 0x00, 0x00, 0x00, 0x00, 0x00, 0x00, 0x00, 
.................... 0x00, 0x00, 0x00, 0x00, 0x00, 0x00, 0x00, 0x00, 0x00, 0x00, 0x00, 0x00, 0x00, 0x00, 0x00, 0x00, 
.................... 0x00, 0x00, 0x00, 0x00, 0x00, 0x00, 0x00, 0x00, 0x00, 0x00, 0x00, 0x00, 0x00, 0x00, 0x00, 0x00, 
.................... 0x00, 0x00, 0x00, 0x00, 0x00, 0x00, 0x00, 0x00, 0x00, 0x00, 0x00, 0x00, 0x00, 0x00, 0x00, 0x00, 
.................... 0x00, 0x00, 0x00, 0x00, 0x00, 0x00, 0x00, 0x00, 0x00, 0x00, 0x00, 0x00, 0x00, 0x00, 0x00, 0x00, 
.................... 0x00, 0x00, 0x00, 0x00, 0x00, 0x00, 0x00, 0x00, 0x00, 0x00, 0x00, 0x00, 0x00, 0x00, 0x00, 0x00, 
.................... 0x00, 0x00, 0x00, 0x00, 0x00, 0x00, 0x00, 0x00, 0x00, 0x00, 0x00, 0x00, 0x00, 0x00, 0x00, 0x00, 
.................... 0x00, 0x00, 0x00, 0x00, 0x00, 0x00, 0x00, 0x00, 0x00, 0x00, 0x00, 0x00, 0x00, 0x00, 0x00, 0x00, 
.................... 0x00, 0x00, 0x00, 0x00, 0x00, 0x00, 0x00, 0x00, 0x00, 0x00, 0x00, 0x00, 0x00, 0x08, 0x00, 0x80, 
.................... 0x00, 0x00, 0x00, 0x00, 0x00, 0x00, 0x00, 0x00, 0x00, 0x00, 0x00, 0x00, 0x00, 0x04, 0x01, 0x00, 
.................... 0x00, 0x00, 0x00, 0x00, 0x00, 0x00, 0x00, 0x00, 0x00, 0x00, 0x00, 0x00, 0x00, 0x02, 0x02, 0x00, 
.................... 0x00, 0x00, 0x00, 0x00, 0x00, 0x00, 0x00, 0x00, 0x00, 0x00, 0x00, 0x00, 0x00, 0x00, 0x78, 0x00, 
.................... 0x00, 0x00, 0x00, 0x00, 0x00, 0x00, 0x00, 0x00, 0x00, 0x00, 0x00, 0x00, 0x00, 0x00, 0x84, 0x00, 
.................... 0x00, 0x00, 0x00, 0x00, 0x00, 0x00, 0x00, 0x00, 0x00, 0x00, 0x00, 0x00, 0x00, 0x01, 0x02, 0x00, 
.................... 0x00, 0x00, 0x00, 0x00, 0x00, 0x00, 0x00, 0x00, 0x00, 0x00, 0x00, 0x00, 0x00, 0xF9, 0x02, 0xF8, 
.................... 0x00, 0x00, 0x00, 0x00, 0x00, 0x00, 0x00, 0x00, 0x00, 0x00, 0x00, 0x00, 0x00, 0x01, 0x02, 0x00, 
.................... 0x00, 0x00, 0x00, 0x00, 0x00, 0x00, 0x00, 0x00, 0x00, 0x00, 0x00, 0x00, 0x00, 0x01, 0x02, 0x00, 
.................... 0x00, 0x00, 0x00, 0x00, 0x00, 0x00, 0x00, 0x00, 0x00, 0x00, 0x00, 0x00, 0x00, 0x04, 0x84, 0x80, 
.................... 0x00, 0x00, 0x00, 0x00, 0x00, 0x00, 0x00, 0x00, 0x00, 0x00, 0x00, 0x00, 0x00, 0x08, 0x78, 0x40, 
.................... 0x00, 0x00, 0x00, 0x00, 0x00, 0x00, 0x00, 0x00, 0x00, 0x00, 0x00, 0x00, 0x00, 0x10, 0x48, 0x20, 
.................... 0x00, 0x00, 0x00, 0x00, 0x00, 0x00, 0x00, 0x00, 0x00, 0x00, 0x00, 0x00, 0x00, 0x20, 0x48, 0x10, 
.................... 0x00, 0x00, 0x00, 0x00, 0x00, 0x00, 0x00, 0x00, 0x00, 0x00, 0x00, 0x00, 0x00, 0x00, 0x78, 0x00, 
.................... 0x00, 0x00, 0x00, 0x00, 0x00, 0x00, 0x00, 0x00, 0x00, 0x00, 0x00, 0x00, 0x00, 0x00, 0x00, 0x00, 
.................... 0x00, 0x00, 0x00, 0x00, 0x00, 0x00, 0x00, 0x00, 0x00, 0x00, 0x00, 0x00, 0x00, 0x00, 0x00, 0x00, 
.................... 0x00, 0x00, 0x00, 0x00, 0x00, 0x00, 0x00, 0x00, 0x00, 0x00, 0x00, 0x00, 0x00, 0x00, 0x00, 0x00, 
.................... 0x00, 0x00, 0x00, 0x00, 0x00, 0x00, 0x00, 0x00, 0x00, 0x00, 0x00, 0x00, 0x00, 0x00, 0x00, 0x00, 
.................... 0x00, 0x00, 0x00, 0x00, 0x00, 0x00, 0x00, 0x00, 0x00, 0x00, 0x00, 0x00, 0x00, 0x00, 0x00, 0x00, 
.................... 0x00, 0x00, 0x00, 0x00, 0x00, 0x00, 0x00, 0x00, 0x00, 0x00, 0x00, 0x00, 0x00, 0x00, 0x00, 0x00, 
.................... 0x00, 0x00, 0x00, 0x00, 0x00, 0x00, 0x00, 0x00, 0x00, 0x00, 0x00, 0x00, 0x00, 0x00, 0x00, 0x00, 
.................... 0x00, 0x00, 0x00, 0x00, 0x00, 0x00, 0x00, 0x00, 0x00, 0x00, 0x00, 0x00, 0x00, 0x00, 0x00, 0x00, 
.................... 0x00, 0x00, 0x00, 0x00, 0x00, 0x00, 0x00, 0x00, 0x00, 0x00, 0x00, 0x00, 0x00, 0x00, 0x00, 0x00, 
.................... 0x00, 0x00, 0x00, 0x00, 0x00, 0x00, 0x00, 0x00, 0x00, 0x00, 0x00, 0x00, 0x00, 0x00, 0x00, 0x00, 
.................... 0x00, 0x00, 0x00, 0x00, 0x00, 0x00, 0x00, 0x00, 0x00, 0x00, 0x00, 0x00, 0x00, 0x00, 0x00, 0x00, 
.................... 0x00, 0x00, 0x00, 0x00, 0x00, 0x00, 0x00, 0x00, 0x00, 0x00, 0x00, 0x00, 0x00, 0x00, 0x00, 0x00, 
.................... 0x00, 0x00, 0x00, 0x00, 0x00, 0x00, 0x00, 0x00, 0x00, 0x00, 0x00, 0x00, 0x00, 0x00, 0x00, 0x00, 
.................... 0x00, 0x00, 0x00, 0x00, 0x00, 0x00, 0x00, 0x00, 0x00, 0x00, 0x00, 0x00, 0x00, 0x00, 0x00, 0x00, 
.................... 0x00, 0x00, 0x00, 0x00, 0x00, 0x00, 0x00, 0x00, 0x00, 0x00, 0x00, 0x00, 0x00, 0x00, 0x00, 0x00, 
.................... 0x00, 0x00, 0x00, 0x00, 0x00, 0x00, 0x00, 0x00, 0x00, 0x00, 0x00, 0x00, 0x00, 0x00, 0x00, 0x00, 
.................... 0x00, 0x00, 0x00, 0x00, 0x00, 0x00, 0x00, 0x00, 0x00, 0x00, 0x00, 0x00, 0x00, 0x00, 0x00, 0x00, 
.................... 0x00, 0x00, 0x00, 0x00, 0x00, 0x00, 0x00, 0x00, 0x00, 0x00, 0x00, 0x00, 0x00, 0x00, 0x00, 0x00, 
.................... 0x00, 0x00, 0x00, 0x00, 0x00, 0x00, 0x00, 0x00, 0x00, 0x00, 0x00, 0x00, 0x00, 0x00, 0x00, 0x00, 
.................... 0x00, 0x00, 0x00, 0x00, 0x00, 0x00, 0x00, 0x00, 0x00, 0x00, 0x00, 0x00, 0x00, 0x00, 0x00, 0x00, 
.................... 0x00, 0x00, 0x00, 0x00, 0x00, 0x00, 0x00, 0x00, 0x00, 0x00, 0x00, 0x00, 0x00, 0x00, 0x00, 0x00, 
.................... 0x00, 0x00, 0x00, 0x00, 0x00, 0x00, 0x00, 0x00, 0x00, 0x00, 0x00, 0x00, 0x00, 0x00, 0x00, 0x00, 
.................... 0x00, 0x00, 0x00, 0x00, 0x00, 0x00, 0x00, 0x00, 0x00, 0x00, 0x00, 0x00, 0x00, 0x00, 0x00, 0x00, 
.................... 0x00, 0x00, 0x00, 0x00, 0x00, 0x00, 0x00, 0x00, 0x00, 0x00, 0x00, 0x00, 0x00, 0x00, 0x00, 0x00, 
.................... 0x00, 0x00, 0x00, 0x00, 0x00, 0x00, 0x00, 0x00, 0x00, 0x00, 0x00, 0x00, 0x00, 0x00, 0x00, 0x00, 
.................... 0x00, 0x00, 0x00, 0x00, 0x00, 0x00, 0x00, 0x00, 0x00, 0x00, 0x00, 0x00, 0x00, 0x00, 0x00, 0x00, 
.................... 0x00, 0x00, 0x00, 0x00, 0x00, 0x00, 0x00, 0x00, 0x00, 0x00, 0x00, 0x00, 0x00, 0x00, 0x00, 0x00, 
.................... 0x00, 0x00, 0x00, 0x00, 0x00, 0x00, 0x00, 0x00, 0x00, 0x00, 0x00, 0x00, 0x00, 0x00, 0x00, 0x00, 
.................... 0x00, 0x00, 0x00, 0x00, 0x00, 0x00, 0x00, 0x00, 0x00, 0x00, 0x00, 0x00, 0x00, 0x00, 0x00, 0x00, 
.................... 0x00, 0x00, 0x00, 0x00, 0x00, 0x00, 0x00, 0x00, 0x00, 0x00, 0x00, 0x00, 0x00, 0x00, 0x00, 0x00, 
.................... 0x00, 0x00, 0x00, 0x00, 0x00, 0x00, 0x00, 0x00, 0x00, 0x00, 0x00, 0x00, 0x00, 0x00, 0x00, 0x00, 
.................... 0x00, 0x00, 0x00, 0x00, 0x00, 0x00, 0x00, 0x00, 0x00, 0x00, 0x00, 0x00, 0x00, 0x00, 0x00, 0x00, 
.................... 0x00, 0x00, 0x00, 0x00, 0x00, 0x00, 0x00, 0x00, 0x00, 0x00, 0x00, 0x00, 0x00, 0x00, 0x00, 0x00, 
.................... 0x00, 0x00, 0x00, 0x00, 0x00, 0x00, 0x00, 0x00, 0x00, 0x00, 0x00, 0x00, 0x00, 0x00, 0x00, 0x00, 
.................... 0x00, 0x00, 0x00, 0x00, 0x00, 0x00, 0x00, 0x00, 0x00, 0x00, 0x00, 0x00, 0x00, 0x00, 0x00, 0x00 
.................... }; 
....................  
.................... const int8 Tomai [64][16] = { 
.................... 0x00, 0x00, 0x00, 0x00, 0x00, 0x00, 0x00, 0x00, 0x00, 0x00, 0x00, 0x00, 0x00, 0x00, 0x00, 0x00, 
.................... 0x00, 0x00, 0x00, 0x00, 0x00, 0x00, 0x00, 0x00, 0x00, 0x00, 0x00, 0x00, 0x00, 0x00, 0x00, 0x00, 
.................... 0x00, 0x00, 0x00, 0x00, 0x00, 0x00, 0x00, 0x00, 0x00, 0x00, 0x00, 0x00, 0x00, 0x00, 0x00, 0x00, 
.................... 0x00, 0x00, 0x00, 0x00, 0x00, 0x00, 0x00, 0x00, 0x00, 0x00, 0x00, 0x00, 0x00, 0x00, 0x00, 0x00, 
.................... 0x00, 0x00, 0x00, 0x00, 0x00, 0x00, 0x00, 0x00, 0x00, 0x00, 0x00, 0x00, 0x00, 0x00, 0x00, 0x00, 
.................... 0x00, 0x00, 0x00, 0x00, 0x00, 0x00, 0x00, 0x00, 0x00, 0x00, 0x00, 0x00, 0x00, 0x00, 0x00, 0x00, 
.................... 0x00, 0x00, 0x00, 0x00, 0x00, 0x00, 0x00, 0x00, 0x00, 0x00, 0x00, 0x00, 0x00, 0x00, 0x00, 0x00, 
.................... 0x00, 0x00, 0x00, 0x00, 0x00, 0x00, 0x00, 0x00, 0x00, 0x00, 0x00, 0x00, 0x00, 0x00, 0x00, 0x00, 
.................... 0x00, 0x00, 0x00, 0x00, 0x00, 0x00, 0x00, 0x00, 0x00, 0x00, 0x00, 0x00, 0x00, 0x00, 0x00, 0x00, 
.................... 0x00, 0x00, 0x00, 0x00, 0x00, 0x00, 0x00, 0x00, 0x00, 0x00, 0x00, 0x00, 0x00, 0x00, 0x00, 0x00, 
.................... 0x00, 0x00, 0x00, 0x00, 0x00, 0x00, 0x00, 0x00, 0x00, 0x00, 0x00, 0x00, 0x00, 0x00, 0x00, 0x00, 
.................... 0x00, 0x00, 0x00, 0x00, 0x00, 0x00, 0x00, 0x00, 0x00, 0x00, 0x00, 0x00, 0x00, 0x00, 0x00, 0x00, 
.................... 0x00, 0x00, 0x00, 0x00, 0x00, 0x00, 0x00, 0x00, 0x00, 0x00, 0x00, 0x00, 0x00, 0x00, 0x00, 0x00, 
.................... 0x00, 0x00, 0x00, 0x00, 0x00, 0x00, 0x00, 0x00, 0x00, 0x00, 0x00, 0x00, 0x00, 0x00, 0x00, 0x00, 
.................... 0x00, 0x00, 0x00, 0x00, 0x00, 0x00, 0x00, 0x00, 0x00, 0x00, 0x00, 0x00, 0x00, 0x00, 0x00, 0x00, 
.................... 0x00, 0x00, 0x00, 0x00, 0x00, 0x00, 0x00, 0x00, 0x00, 0x00, 0x00, 0x00, 0x00, 0x00, 0x00, 0x00, 
.................... 0x00, 0x00, 0x00, 0x00, 0x00, 0x00, 0x00, 0x00, 0x00, 0x00, 0x00, 0x00, 0x00, 0x00, 0x00, 0x00, 
.................... 0x00, 0x00, 0x00, 0x00, 0x00, 0x00, 0x00, 0x00, 0x00, 0x00, 0x00, 0x00, 0x00, 0x00, 0x00, 0x00, 
.................... 0x00, 0x00, 0x00, 0x00, 0x00, 0x00, 0x00, 0x00, 0x00, 0x00, 0x00, 0x00, 0x00, 0x00, 0x00, 0x00, 
.................... 0x00, 0x00, 0x00, 0x00, 0x00, 0x00, 0x00, 0x00, 0x00, 0x00, 0x00, 0x00, 0x00, 0x00, 0x00, 0x00, 
.................... 0x00, 0x00, 0x00, 0x00, 0x00, 0x00, 0x00, 0x00, 0x00, 0x00, 0x00, 0x00, 0x00, 0x00, 0x00, 0x00, 
.................... 0x00, 0x00, 0x00, 0x00, 0x00, 0x00, 0x00, 0x00, 0x00, 0x00, 0x00, 0x00, 0x00, 0x00, 0x00, 0x00, 
.................... 0x00, 0x00, 0x00, 0x00, 0x00, 0x00, 0x00, 0x00, 0x00, 0x00, 0x00, 0x00, 0x00, 0x00, 0x00, 0x00, 
.................... 0x00, 0x00, 0x00, 0x00, 0x00, 0x00, 0x00, 0x00, 0x00, 0x00, 0x00, 0x00, 0x00, 0x00, 0x00, 0x00, 
.................... 0x00, 0x00, 0x00, 0x00, 0x00, 0x00, 0x00, 0x00, 0x00, 0x00, 0x00, 0x00, 0x00, 0x00, 0x00, 0x00, 
.................... 0x00, 0x00, 0x00, 0x00, 0x00, 0x00, 0x00, 0x00, 0x00, 0x00, 0x00, 0x00, 0x00, 0x00, 0x00, 0x00, 
.................... 0x00, 0x00, 0x00, 0x00, 0x00, 0x00, 0x00, 0x00, 0x00, 0x00, 0x00, 0x00, 0x00, 0x00, 0x00, 0x00, 
.................... 0x00, 0x00, 0x00, 0x00, 0x00, 0x00, 0x00, 0x00, 0x00, 0x00, 0x00, 0x00, 0x00, 0x00, 0x00, 0x00, 
.................... 0x00, 0x00, 0x00, 0x00, 0x00, 0x00, 0x00, 0x00, 0x00, 0x00, 0x00, 0x00, 0x00, 0x00, 0x00, 0x00, 
.................... 0x00, 0x00, 0x00, 0x00, 0x00, 0x00, 0x00, 0x00, 0x00, 0x00, 0x00, 0x00, 0x00, 0x00, 0x00, 0x00, 
.................... 0x00, 0x00, 0x00, 0x00, 0x00, 0x00, 0x00, 0x00, 0x00, 0x00, 0x00, 0x00, 0x00, 0x7F, 0xFF, 0xF8, 
.................... 0x00, 0x00, 0x00, 0x00, 0x00, 0x00, 0x00, 0x00, 0x00, 0x00, 0x00, 0x00, 0x00, 0x40, 0x00, 0x08, 
.................... 0x00, 0x00, 0x00, 0x00, 0x00, 0x00, 0x00, 0x00, 0x00, 0x00, 0x00, 0x00, 0x00, 0x47, 0x03, 0x88, 
.................... 0x00, 0x00, 0x00, 0x00, 0x00, 0x00, 0x00, 0x00, 0x00, 0x00, 0x00, 0x00, 0x00, 0x45, 0x02, 0x88, 
.................... 0x00, 0x00, 0x00, 0x00, 0x00, 0x00, 0x00, 0x00, 0x00, 0x00, 0x00, 0x00, 0x00, 0x45, 0x02, 0x88, 
.................... 0x00, 0x00, 0x00, 0x00, 0x00, 0x00, 0x00, 0x00, 0x00, 0x00, 0x00, 0x00, 0x00, 0x45, 0x02, 0x88, 
.................... 0x00, 0x00, 0x00, 0x00, 0x00, 0x00, 0x00, 0x00, 0x00, 0x00, 0x00, 0x00, 0x00, 0x45, 0x02, 0x88, 
.................... 0x00, 0x00, 0x00, 0x00, 0x00, 0x00, 0x00, 0x00, 0x00, 0x00, 0x00, 0x00, 0x00, 0x47, 0x03, 0x88, 
.................... 0x00, 0x00, 0x00, 0x00, 0x00, 0x00, 0x00, 0x00, 0x00, 0x00, 0x00, 0x00, 0x00, 0x40, 0x00, 0x08, 
.................... 0x00, 0x00, 0x00, 0x00, 0x00, 0x00, 0x00, 0x00, 0x00, 0x00, 0x00, 0x00, 0x00, 0x40, 0xFC, 0x08, 
.................... 0x00, 0x00, 0x00, 0x00, 0x00, 0x00, 0x00, 0x00, 0x00, 0x00, 0x00, 0x00, 0x00, 0x40, 0x84, 0x08, 
.................... 0x00, 0x00, 0x00, 0x00, 0x00, 0x00, 0x00, 0x00, 0x00, 0x00, 0x00, 0x00, 0x00, 0x40, 0x84, 0x08, 
.................... 0x00, 0x00, 0x00, 0x00, 0x00, 0x00, 0x00, 0x00, 0x00, 0x00, 0x00, 0x00, 0x00, 0x40, 0xFC, 0x08, 
.................... 0x00, 0x00, 0x00, 0x00, 0x00, 0x00, 0x00, 0x00, 0x00, 0x00, 0x00, 0x00, 0x00, 0x40, 0x00, 0x08, 
.................... 0x00, 0x00, 0x00, 0x00, 0x00, 0x00, 0x00, 0x00, 0x00, 0x00, 0x00, 0x00, 0x00, 0x7F, 0xFF, 0xF8, 
.................... 0x00, 0x00, 0x00, 0x00, 0x00, 0x00, 0x00, 0x00, 0x00, 0x00, 0x00, 0x00, 0x00, 0x00, 0x00, 0x00, 
.................... 0x00, 0x00, 0x00, 0x00, 0x00, 0x00, 0x00, 0x00, 0x00, 0x00, 0x00, 0x00, 0x00, 0x00, 0x00, 0x00, 
.................... 0x00, 0x00, 0x00, 0x00, 0x00, 0x00, 0x00, 0x00, 0x00, 0x00, 0x00, 0x00, 0x00, 0x00, 0x00, 0x00, 
.................... 0x00, 0x00, 0x00, 0x00, 0x00, 0x00, 0x00, 0x00, 0x00, 0x00, 0x00, 0x00, 0x00, 0x00, 0x00, 0x00, 
.................... 0x00, 0x00, 0x00, 0x00, 0x00, 0x00, 0x00, 0x00, 0x00, 0x00, 0x00, 0x00, 0x00, 0x00, 0x00, 0x00, 
.................... 0x00, 0x00, 0x00, 0x00, 0x00, 0x00, 0x00, 0x00, 0x00, 0x00, 0x00, 0x00, 0x00, 0x00, 0x00, 0x00, 
.................... 0x00, 0x00, 0x00, 0x00, 0x00, 0x00, 0x00, 0x00, 0x00, 0x00, 0x00, 0x00, 0x00, 0x00, 0x00, 0x00, 
.................... 0x00, 0x00, 0x00, 0x00, 0x00, 0x00, 0x00, 0x00, 0x00, 0x00, 0x00, 0x00, 0x00, 0x00, 0x00, 0x00, 
.................... 0x00, 0x00, 0x00, 0x00, 0x00, 0x00, 0x00, 0x00, 0x00, 0x00, 0x00, 0x00, 0x00, 0x00, 0x00, 0x00, 
.................... 0x00, 0x00, 0x00, 0x00, 0x00, 0x00, 0x00, 0x00, 0x00, 0x00, 0x00, 0x00, 0x00, 0x00, 0x00, 0x00, 
.................... 0x00, 0x00, 0x00, 0x00, 0x00, 0x00, 0x00, 0x00, 0x00, 0x00, 0x00, 0x00, 0x00, 0x00, 0x00, 0x00, 
.................... 0x00, 0x00, 0x00, 0x00, 0x00, 0x00, 0x00, 0x00, 0x00, 0x00, 0x00, 0x00, 0x00, 0x00, 0x00, 0x00, 
.................... 0x00, 0x00, 0x00, 0x00, 0x00, 0x00, 0x00, 0x00, 0x00, 0x00, 0x00, 0x00, 0x00, 0x00, 0x00, 0x00, 
.................... 0x00, 0x00, 0x00, 0x00, 0x00, 0x00, 0x00, 0x00, 0x00, 0x00, 0x00, 0x00, 0x00, 0x00, 0x00, 0x00, 
.................... 0x00, 0x00, 0x00, 0x00, 0x00, 0x00, 0x00, 0x00, 0x00, 0x00, 0x00, 0x00, 0x00, 0x00, 0x00, 0x00, 
.................... 0x00, 0x00, 0x00, 0x00, 0x00, 0x00, 0x00, 0x00, 0x00, 0x00, 0x00, 0x00, 0x00, 0x00, 0x00, 0x00, 
.................... 0x00, 0x00, 0x00, 0x00, 0x00, 0x00, 0x00, 0x00, 0x00, 0x00, 0x00, 0x00, 0x00, 0x00, 0x00, 0x00, 
.................... 0x00, 0x00, 0x00, 0x00, 0x00, 0x00, 0x00, 0x00, 0x00, 0x00, 0x00, 0x00, 0x00, 0x00, 0x00, 0x00, 
.................... 0x00, 0x00, 0x00, 0x00, 0x00, 0x00, 0x00, 0x00, 0x00, 0x00, 0x00, 0x00, 0x00, 0x00, 0x00, 0x00 
.................... }; 
....................  
.................... const int8 Ventilador [64][16] = { 
.................... 0x00, 0x00, 0x00, 0x00, 0x00, 0x00, 0x00, 0x00, 0x00, 0x00, 0x00, 0x00, 0x00, 0x00, 0x00, 0x00, 
.................... 0x00, 0x00, 0x00, 0x00, 0x00, 0x00, 0x00, 0x00, 0x00, 0x00, 0x00, 0x00, 0x00, 0x00, 0x00, 0x00, 
.................... 0x00, 0x00, 0x00, 0x00, 0x00, 0x00, 0x00, 0x00, 0x00, 0x00, 0x00, 0x00, 0x00, 0x00, 0x00, 0x00, 
.................... 0x00, 0x00, 0x00, 0x00, 0x00, 0x00, 0x00, 0x00, 0x00, 0x00, 0x00, 0x00, 0x00, 0x00, 0x00, 0x00, 
.................... 0x00, 0x00, 0x00, 0x00, 0x00, 0x00, 0x00, 0x00, 0x00, 0x00, 0x00, 0x00, 0x00, 0x00, 0x00, 0x00, 
.................... 0x00, 0x00, 0x00, 0x00, 0x00, 0x00, 0x00, 0x00, 0x00, 0x00, 0x00, 0x00, 0x00, 0x00, 0x00, 0x00, 
.................... 0x00, 0x00, 0x00, 0x00, 0x00, 0x00, 0x00, 0x00, 0x00, 0x00, 0x00, 0x00, 0x00, 0x00, 0x00, 0x00, 
.................... 0x00, 0x00, 0x00, 0x00, 0x00, 0x00, 0x00, 0x00, 0x00, 0x00, 0x00, 0x00, 0x00, 0x00, 0x00, 0x00, 
.................... 0x00, 0x00, 0x00, 0x00, 0x00, 0x00, 0x00, 0x00, 0x00, 0x00, 0x00, 0x00, 0x00, 0x00, 0x00, 0x00, 
.................... 0x00, 0x00, 0x00, 0x00, 0x00, 0x00, 0x00, 0x00, 0x00, 0x00, 0x00, 0x00, 0x00, 0x00, 0x00, 0x00, 
.................... 0x00, 0x00, 0x00, 0x00, 0x00, 0x00, 0x00, 0x00, 0x00, 0x00, 0x00, 0x00, 0x00, 0x00, 0x00, 0x00, 
.................... 0x00, 0x00, 0x00, 0x00, 0x00, 0x00, 0x00, 0x00, 0x00, 0x00, 0x00, 0x00, 0x00, 0x00, 0x00, 0x00, 
.................... 0x00, 0x00, 0x00, 0x00, 0x00, 0x00, 0x00, 0x00, 0x00, 0x00, 0x00, 0x00, 0x00, 0x00, 0x00, 0x00, 
.................... 0x00, 0x00, 0x00, 0x00, 0x00, 0x00, 0x00, 0x00, 0x00, 0x00, 0x00, 0x00, 0x00, 0x00, 0x00, 0x00, 
.................... 0x00, 0x00, 0x00, 0x00, 0x00, 0x00, 0x00, 0x00, 0x00, 0x00, 0x00, 0x00, 0x00, 0x00, 0x00, 0x00, 
.................... 0x00, 0x00, 0x00, 0x00, 0x00, 0x00, 0x00, 0x00, 0x00, 0x00, 0x00, 0x00, 0x00, 0x00, 0x00, 0x00, 
.................... 0x00, 0x00, 0x00, 0x00, 0x00, 0x00, 0x00, 0x00, 0x00, 0x00, 0x00, 0x00, 0x00, 0x00, 0x00, 0x00, 
.................... 0x00, 0x00, 0x00, 0x00, 0x00, 0x00, 0x00, 0x00, 0x00, 0x00, 0x00, 0x00, 0x00, 0x00, 0x00, 0x00, 
.................... 0x00, 0x00, 0x00, 0x00, 0x00, 0x00, 0x00, 0x00, 0x00, 0x00, 0x00, 0x00, 0x00, 0x00, 0x00, 0x00, 
.................... 0x00, 0x00, 0x00, 0x00, 0x00, 0x00, 0x00, 0x00, 0x00, 0x00, 0x00, 0x00, 0x00, 0x00, 0x00, 0x00, 
.................... 0x00, 0x00, 0x00, 0x00, 0x00, 0x00, 0x00, 0x00, 0x00, 0x00, 0x00, 0x00, 0x00, 0x00, 0x00, 0x00, 
.................... 0x00, 0x00, 0x00, 0x00, 0x00, 0x00, 0x00, 0x00, 0x00, 0x00, 0x00, 0x00, 0x00, 0x00, 0x00, 0x00, 
.................... 0x00, 0x00, 0x00, 0x00, 0x00, 0x00, 0x00, 0x00, 0x00, 0x00, 0x00, 0x00, 0x00, 0x00, 0x00, 0x00, 
.................... 0x00, 0x00, 0x00, 0x00, 0x00, 0x00, 0x00, 0x00, 0x00, 0x00, 0x00, 0x00, 0x00, 0x00, 0x00, 0x00, 
.................... 0x00, 0x00, 0x00, 0x00, 0x00, 0x00, 0x00, 0x00, 0x00, 0x00, 0x00, 0x00, 0x00, 0x00, 0x00, 0x00, 
.................... 0x00, 0x00, 0x00, 0x00, 0x00, 0x00, 0x00, 0x00, 0x00, 0x00, 0x00, 0x00, 0x00, 0x00, 0x00, 0x00, 
.................... 0x00, 0x00, 0x00, 0x00, 0x00, 0x00, 0x00, 0x00, 0x00, 0x00, 0x00, 0x00, 0x00, 0x00, 0x00, 0x00, 
.................... 0x00, 0x00, 0x00, 0x00, 0x00, 0x00, 0x00, 0x00, 0x00, 0x00, 0x00, 0x00, 0x00, 0x00, 0x00, 0x00, 
.................... 0x00, 0x00, 0x00, 0x00, 0x00, 0x00, 0x00, 0x00, 0x00, 0x00, 0x00, 0x00, 0x00, 0x00, 0x00, 0x00, 
.................... 0x00, 0x00, 0x00, 0x00, 0x00, 0x00, 0x00, 0x00, 0x00, 0x00, 0x00, 0x00, 0x00, 0x00, 0x00, 0x00, 
.................... 0x00, 0x00, 0x00, 0x00, 0x00, 0x00, 0x00, 0x00, 0x00, 0x00, 0x00, 0x00, 0x00, 0x00, 0x00, 0x00, 
.................... 0x00, 0x00, 0x00, 0x00, 0x00, 0x00, 0x00, 0x00, 0x00, 0x00, 0x00, 0x00, 0x00, 0x00, 0x00, 0x00, 
.................... 0x00, 0x00, 0x00, 0x00, 0x00, 0x00, 0x00, 0x00, 0x00, 0x00, 0x00, 0x00, 0x00, 0x00, 0x00, 0x00, 
.................... 0x00, 0x00, 0x00, 0x00, 0x00, 0x00, 0x00, 0x00, 0x00, 0x00, 0x00, 0x00, 0x00, 0x00, 0x00, 0x00, 
.................... 0x00, 0x00, 0x00, 0x00, 0x00, 0x00, 0x00, 0x00, 0x00, 0x00, 0x00, 0x00, 0x00, 0x00, 0x00, 0x00, 
.................... 0x00, 0x00, 0x00, 0x00, 0x00, 0x00, 0x00, 0x00, 0x00, 0x00, 0x00, 0x00, 0x00, 0x00, 0x00, 0x00, 
.................... 0x00, 0x00, 0x00, 0x00, 0x00, 0x00, 0x00, 0x00, 0x00, 0x00, 0x00, 0x00, 0x00, 0x00, 0x00, 0x00, 
.................... 0x00, 0x00, 0x00, 0x00, 0x00, 0x00, 0x00, 0x00, 0x00, 0x00, 0x00, 0x00, 0x00, 0x00, 0x00, 0x00, 
.................... 0x00, 0x00, 0x00, 0x00, 0x00, 0x00, 0x00, 0x00, 0x00, 0x00, 0x00, 0x00, 0x00, 0x00, 0x00, 0x00, 
.................... 0x00, 0x00, 0x00, 0x00, 0x00, 0x00, 0x00, 0x00, 0x00, 0x00, 0x00, 0x00, 0x00, 0x00, 0x00, 0x00, 
.................... 0x00, 0x00, 0x00, 0x00, 0x00, 0x00, 0x00, 0x00, 0x00, 0x00, 0x00, 0x00, 0x00, 0x00, 0x00, 0x00, 
.................... 0x00, 0x00, 0x00, 0x00, 0x00, 0x00, 0x00, 0x00, 0x00, 0x00, 0x00, 0x00, 0x00, 0x00, 0x00, 0x00, 
.................... 0x00, 0x00, 0x00, 0x00, 0x00, 0x00, 0x00, 0x00, 0x00, 0x00, 0x00, 0x00, 0x00, 0x00, 0x00, 0x00, 
.................... 0x00, 0x00, 0x00, 0x00, 0x00, 0x00, 0x00, 0x00, 0x00, 0x00, 0x00, 0x00, 0x00, 0x00, 0x00, 0x00, 
.................... 0x00, 0x00, 0x00, 0x00, 0x00, 0x00, 0x00, 0x00, 0x00, 0x00, 0x00, 0x00, 0x00, 0x00, 0x00, 0x00, 
.................... 0x00, 0x00, 0x00, 0x00, 0x00, 0x00, 0x00, 0x00, 0x00, 0x00, 0x00, 0x00, 0x00, 0x00, 0x00, 0x00, 
.................... 0x00, 0x00, 0x00, 0x00, 0x00, 0x00, 0x00, 0x00, 0x00, 0x00, 0x00, 0x00, 0x00, 0x00, 0x60, 0x00, 
.................... 0x00, 0x00, 0x00, 0x00, 0x00, 0x00, 0x00, 0x00, 0x00, 0x00, 0x00, 0x00, 0x00, 0x00, 0xF0, 0x00, 
.................... 0x00, 0x00, 0x00, 0x00, 0x00, 0x00, 0x00, 0x00, 0x00, 0x00, 0x00, 0x00, 0x00, 0x01, 0xF8, 0x00, 
.................... 0x00, 0x00, 0x00, 0x00, 0x00, 0x00, 0x00, 0x00, 0x00, 0x00, 0x00, 0x00, 0x00, 0x01, 0xF8, 0x00, 
.................... 0x00, 0x00, 0x00, 0x00, 0x00, 0x00, 0x00, 0x00, 0x00, 0x00, 0x00, 0x00, 0x00, 0x01, 0xF8, 0x00, 
.................... 0x00, 0x00, 0x00, 0x00, 0x00, 0x00, 0x00, 0x00, 0x00, 0x00, 0x00, 0x00, 0x00, 0x00, 0xF0, 0x00, 
.................... 0x00, 0x00, 0x00, 0x00, 0x00, 0x00, 0x00, 0x00, 0x00, 0x00, 0x00, 0x00, 0x00, 0x38, 0x71, 0xC0, 
.................... 0x00, 0x00, 0x00, 0x00, 0x00, 0x00, 0x00, 0x00, 0x00, 0x00, 0x00, 0x00, 0x00, 0x7C, 0x93, 0xE0, 
.................... 0x00, 0x00, 0x00, 0x00, 0x00, 0x00, 0x00, 0x00, 0x00, 0x00, 0x00, 0x00, 0x00, 0xFF, 0x0F, 0xF0, 
.................... 0x00, 0x00, 0x00, 0x00, 0x00, 0x00, 0x00, 0x00, 0x00, 0x00, 0x00, 0x00, 0x00, 0xFF, 0x0F, 0xF0, 
.................... 0x00, 0x00, 0x00, 0x00, 0x00, 0x00, 0x00, 0x00, 0x00, 0x00, 0x00, 0x00, 0x00, 0x7D, 0x93, 0xE0, 
.................... 0x00, 0x00, 0x00, 0x00, 0x00, 0x00, 0x00, 0x00, 0x00, 0x00, 0x00, 0x00, 0x00, 0x38, 0x61, 0xC0, 
.................... 0x00, 0x00, 0x00, 0x00, 0x00, 0x00, 0x00, 0x00, 0x00, 0x00, 0x00, 0x00, 0x00, 0x00, 0xF0, 0x00, 
.................... 0x00, 0x00, 0x00, 0x00, 0x00, 0x00, 0x00, 0x00, 0x00, 0x00, 0x00, 0x00, 0x00, 0x01, 0xF8, 0x00, 
.................... 0x00, 0x00, 0x00, 0x00, 0x00, 0x00, 0x00, 0x00, 0x00, 0x00, 0x00, 0x00, 0x00, 0x01, 0xF8, 0x00, 
.................... 0x00, 0x00, 0x00, 0x00, 0x00, 0x00, 0x00, 0x00, 0x00, 0x00, 0x00, 0x00, 0x00, 0x01, 0xF8, 0x00, 
.................... 0x00, 0x00, 0x00, 0x00, 0x00, 0x00, 0x00, 0x00, 0x00, 0x00, 0x00, 0x00, 0x00, 0x00, 0xF0, 0x00, 
.................... 0x00, 0x00, 0x00, 0x00, 0x00, 0x00, 0x00, 0x00, 0x00, 0x00, 0x00, 0x00, 0x00, 0x00, 0x60, 0x00 
.................... }; 
....................  
.................... #include "FuncionesDisplay.h" 
....................  
.................... typedef struct{ 
....................    char Letra[20]; 
.................... }MENUU; 
....................  
.................... MENUU Menus; 
....................   
.................... void displayContrasena(int digito, int x, int y, int sombreado) 
.................... { 
....................    char voltage[9]; 
....................    sprintf(voltage, "%i", digito); 
04B4E:  MOVLW  05
04B50:  MOVLB  4
04B52:  MOVWF  x2B
04B54:  MOVLW  E1
04B56:  MOVWF  x2A
04B58:  MOVFF  5DD,5EA
04B5C:  MOVLW  1F
04B5E:  MOVLB  5
04B60:  MOVWF  xEB
04B62:  MOVLB  0
04B64:  RCALL  459C
....................     
....................    if(sombreado==1) 
04B66:  MOVLB  5
04B68:  DECFSZ xE0,W
04B6A:  BRA    4BBA
....................       {glcd_rect(x, y, x+18, y+24, YES, ON);glcd_text57(x+2, y+1, voltage, 2, OFF);} 
04B6C:  MOVLW  12
04B6E:  ADDWF  xDE,W
04B70:  MOVWF  xEA
04B72:  MOVLW  18
04B74:  ADDWF  xDF,W
04B76:  MOVWF  xEB
04B78:  MOVFF  5DE,5EC
04B7C:  MOVFF  5DF,5ED
04B80:  MOVFF  5EA,5EE
04B84:  MOVWF  xEF
04B86:  MOVLW  01
04B88:  MOVWF  xF0
04B8A:  MOVWF  xF1
04B8C:  MOVLB  0
04B8E:  RCALL  48D2
04B90:  MOVLW  02
04B92:  MOVLB  5
04B94:  ADDWF  xDE,W
04B96:  MOVWF  xEA
04B98:  MOVLW  01
04B9A:  ADDWF  xDF,W
04B9C:  MOVWF  xEB
04B9E:  MOVFF  5EA,5EC
04BA2:  MOVWF  xED
04BA4:  MOVLW  05
04BA6:  MOVWF  xEF
04BA8:  MOVLW  E1
04BAA:  MOVWF  xEE
04BAC:  MOVLW  02
04BAE:  MOVWF  xF0
04BB0:  CLRF   xF1
04BB2:  MOVLB  0
04BB4:  RCALL  4994
....................    else    
04BB6:  BRA    4C04
04BB8:  MOVLB  5
....................       {glcd_rect(x, y, x+18, y+24, NO, OFF);glcd_text57(x+2, y+1, voltage, 2, ON);} 
04BBA:  MOVLW  12
04BBC:  ADDWF  xDE,W
04BBE:  MOVWF  xEA
04BC0:  MOVLW  18
04BC2:  ADDWF  xDF,W
04BC4:  MOVWF  xEB
04BC6:  MOVFF  5DE,5EC
04BCA:  MOVFF  5DF,5ED
04BCE:  MOVFF  5EA,5EE
04BD2:  MOVWF  xEF
04BD4:  CLRF   xF0
04BD6:  CLRF   xF1
04BD8:  MOVLB  0
04BDA:  RCALL  48D2
04BDC:  MOVLW  02
04BDE:  MOVLB  5
04BE0:  ADDWF  xDE,W
04BE2:  MOVWF  xEA
04BE4:  MOVLW  01
04BE6:  ADDWF  xDF,W
04BE8:  MOVWF  xEB
04BEA:  MOVFF  5EA,5EC
04BEE:  MOVWF  xED
04BF0:  MOVLW  05
04BF2:  MOVWF  xEF
04BF4:  MOVLW  E1
04BF6:  MOVWF  xEE
04BF8:  MOVLW  02
04BFA:  MOVWF  xF0
04BFC:  MOVLW  01
04BFE:  MOVWF  xF1
04C00:  MOVLB  0
04C02:  RCALL  4994
....................  
.................... } 
04C04:  RETLW  00
....................  
.................... void displayTiempo(int digito, int x, int y, int sombreado, int tamano) 
.................... { 
....................    char voltage[9]; 
....................    sprintf(voltage, "%i", digito); 
*
053E8:  MOVLW  05
053EA:  MOVLB  4
053EC:  MOVWF  x2B
053EE:  MOVLW  D8
053F0:  MOVWF  x2A
053F2:  MOVFF  5D3,5EA
053F6:  MOVLW  1F
053F8:  MOVLB  5
053FA:  MOVWF  xEB
053FC:  MOVLB  0
053FE:  CALL   459C
....................     
....................    if(sombreado==1) 
05402:  MOVLB  5
05404:  DECFSZ xD6,W
05406:  BRA    5460
....................       {glcd_rect(x, y, x+(tamano*6), y+(tamano*8), YES, ON);glcd_text57(x+2, y+1, voltage, tamano, OFF);} 
05408:  MOVF   xD7,W
0540A:  MULLW  06
0540C:  MOVF   FF3,W
0540E:  ADDWF  xD4,W
05410:  MOVWF  xE1
05412:  MOVF   xD7,W
05414:  MULLW  08
05416:  MOVF   FF3,W
05418:  ADDWF  xD5,W
0541A:  MOVWF  xE2
0541C:  MOVFF  5D4,5EC
05420:  MOVFF  5D5,5ED
05424:  MOVFF  5E1,5EE
05428:  MOVWF  xEF
0542A:  MOVLW  01
0542C:  MOVWF  xF0
0542E:  MOVWF  xF1
05430:  MOVLB  0
05432:  CALL   48D2
05436:  MOVLW  02
05438:  MOVLB  5
0543A:  ADDWF  xD4,W
0543C:  MOVWF  xE1
0543E:  MOVLW  01
05440:  ADDWF  xD5,W
05442:  MOVWF  xE2
05444:  MOVFF  5E1,5EC
05448:  MOVWF  xED
0544A:  MOVLW  05
0544C:  MOVWF  xEF
0544E:  MOVLW  D8
05450:  MOVWF  xEE
05452:  MOVFF  5D7,5F0
05456:  CLRF   xF1
05458:  MOVLB  0
0545A:  CALL   4994
0545E:  MOVLB  5
....................    if(sombreado==0) 
05460:  MOVF   xD6,F
05462:  BNZ   54BE
....................       {glcd_rect(x, y, x+(tamano*6), y+(tamano*8), YES, OFF);glcd_text57(x+2, y+1, voltage, tamano, ON);} 
05464:  MOVF   xD7,W
05466:  MULLW  06
05468:  MOVF   FF3,W
0546A:  ADDWF  xD4,W
0546C:  MOVWF  xE1
0546E:  MOVF   xD7,W
05470:  MULLW  08
05472:  MOVF   FF3,W
05474:  ADDWF  xD5,W
05476:  MOVWF  xE2
05478:  MOVFF  5D4,5EC
0547C:  MOVFF  5D5,5ED
05480:  MOVFF  5E1,5EE
05484:  MOVWF  xEF
05486:  MOVLW  01
05488:  MOVWF  xF0
0548A:  CLRF   xF1
0548C:  MOVLB  0
0548E:  CALL   48D2
05492:  MOVLW  02
05494:  MOVLB  5
05496:  ADDWF  xD4,W
05498:  MOVWF  xE1
0549A:  MOVLW  01
0549C:  ADDWF  xD5,W
0549E:  MOVWF  xE2
054A0:  MOVFF  5E1,5EC
054A4:  MOVWF  xED
054A6:  MOVLW  05
054A8:  MOVWF  xEF
054AA:  MOVLW  D8
054AC:  MOVWF  xEE
054AE:  MOVFF  5D7,5F0
054B2:  MOVLW  01
054B4:  MOVWF  xF1
054B6:  MOVLB  0
054B8:  CALL   4994
054BC:  MOVLB  5
....................  
.................... } 
054BE:  MOVLB  0
054C0:  RETLW  00
....................  
.................... void displayMenu(char palabra[100], int x, int y, int sombreado, int tamano) 
.................... { 
....................    strcpy(Menus.Letra,palabra); 
*
04C06:  MOVLB  5
04C08:  MOVFF  5DB,01
04C0C:  MOVFF  5DC,03
04C10:  MOVFF  5DB,5E1
04C14:  MOVFF  5DC,5E2
04C18:  MOVLW  04
04C1A:  MOVWF  FEA
04C1C:  MOVLW  16
04C1E:  MOVWF  FE9
04C20:  MOVFF  5DC,FE2
04C24:  MOVFF  5DB,FE1
04C28:  MOVF   FE7,F
04C2A:  MOVFF  FE6,FEE
04C2E:  BNZ   4C28
....................    if(sombreado==1) 
04C30:  DECFSZ xDF,W
04C32:  BRA    4C7E
....................       {glcd_rect(0, y, 127, y+(tamano*8), YES, ON);glcd_text57(x+1, y+1, Menus.Letra, tamano, OFF);} 
04C34:  MOVF   xE0,W
04C36:  MULLW  08
04C38:  MOVF   FF3,W
04C3A:  ADDWF  xDE,W
04C3C:  MOVWF  xE1
04C3E:  CLRF   xEC
04C40:  MOVFF  5DE,5ED
04C44:  MOVLW  7F
04C46:  MOVWF  xEE
04C48:  MOVFF  5E1,5EF
04C4C:  MOVLW  01
04C4E:  MOVWF  xF0
04C50:  MOVWF  xF1
04C52:  MOVLB  0
04C54:  RCALL  48D2
04C56:  MOVLW  01
04C58:  MOVLB  5
04C5A:  ADDWF  xDD,W
04C5C:  MOVWF  xE1
04C5E:  MOVLW  01
04C60:  ADDWF  xDE,W
04C62:  MOVWF  xE2
04C64:  MOVFF  5E1,5EC
04C68:  MOVWF  xED
04C6A:  MOVLW  04
04C6C:  MOVWF  xEF
04C6E:  MOVLW  16
04C70:  MOVWF  xEE
04C72:  MOVFF  5E0,5F0
04C76:  CLRF   xF1
04C78:  MOVLB  0
04C7A:  RCALL  4994
04C7C:  MOVLB  5
....................    if(sombreado==0) 
04C7E:  MOVF   xDF,F
04C80:  BNZ   4CCE
....................       {glcd_rect(0, y, 127, y+(tamano*8), YES, OFF);glcd_text57(x+1, y+1, Menus.Letra, tamano, ON);} 
04C82:  MOVF   xE0,W
04C84:  MULLW  08
04C86:  MOVF   FF3,W
04C88:  ADDWF  xDE,W
04C8A:  MOVWF  xE1
04C8C:  CLRF   xEC
04C8E:  MOVFF  5DE,5ED
04C92:  MOVLW  7F
04C94:  MOVWF  xEE
04C96:  MOVFF  5E1,5EF
04C9A:  MOVLW  01
04C9C:  MOVWF  xF0
04C9E:  CLRF   xF1
04CA0:  MOVLB  0
04CA2:  RCALL  48D2
04CA4:  MOVLW  01
04CA6:  MOVLB  5
04CA8:  ADDWF  xDD,W
04CAA:  MOVWF  xE1
04CAC:  MOVLW  01
04CAE:  ADDWF  xDE,W
04CB0:  MOVWF  xE2
04CB2:  MOVFF  5E1,5EC
04CB6:  MOVWF  xED
04CB8:  MOVLW  04
04CBA:  MOVWF  xEF
04CBC:  MOVLW  16
04CBE:  MOVWF  xEE
04CC0:  MOVFF  5E0,5F0
04CC4:  MOVLW  01
04CC6:  MOVWF  xF1
04CC8:  MOVLB  0
04CCA:  RCALL  4994
04CCC:  MOVLB  5
....................  
.................... } 
04CCE:  MOVLB  0
04CD0:  RETLW  00
....................  
.................... void displayfloat(float adc,int x,int y,int sombreado, int tamano) { 
....................    char voltage[9];     
....................       sprintf(voltage, "%2.0fC",adc); // Converts adc to text 
*
05996:  MOVLW  05
05998:  MOVLB  4
0599A:  MOVWF  x2B
0599C:  MOVLW  DF
0599E:  MOVWF  x2A
059A0:  MOVLW  01
059A2:  MOVWF  FE9
059A4:  MOVFF  5DA,5EB
059A8:  MOVFF  5D9,5EA
059AC:  MOVFF  5D8,5E9
059B0:  MOVFF  5D7,5E8
059B4:  MOVLB  5
059B6:  CLRF   xEC
059B8:  MOVLB  0
059BA:  BRA    57DE
059BC:  MOVLW  B0
059BE:  MOVLB  5
059C0:  MOVWF  xF5
059C2:  MOVLB  0
059C4:  CALL   457A
059C8:  MOVLW  43
059CA:  MOVLB  5
059CC:  MOVWF  xF5
059CE:  MOVLB  0
059D0:  CALL   457A
....................        
....................    if(sombreado==1) 
059D4:  MOVLB  5
059D6:  DECFSZ xDD,W
059D8:  BRA    5A32
....................       {glcd_rect(x, y, x+(tamano*20), y+(tamano*8), YES, ON);glcd_text57(x+2, y+1, voltage, tamano, OFF);} 
059DA:  MOVF   xDE,W
059DC:  MULLW  14
059DE:  MOVF   FF3,W
059E0:  ADDWF  xDB,W
059E2:  MOVWF  xE8
059E4:  MOVF   xDE,W
059E6:  MULLW  08
059E8:  MOVF   FF3,W
059EA:  ADDWF  xDC,W
059EC:  MOVWF  xE9
059EE:  MOVFF  5DB,5EC
059F2:  MOVFF  5DC,5ED
059F6:  MOVFF  5E8,5EE
059FA:  MOVWF  xEF
059FC:  MOVLW  01
059FE:  MOVWF  xF0
05A00:  MOVWF  xF1
05A02:  MOVLB  0
05A04:  CALL   48D2
05A08:  MOVLW  02
05A0A:  MOVLB  5
05A0C:  ADDWF  xDB,W
05A0E:  MOVWF  xE8
05A10:  MOVLW  01
05A12:  ADDWF  xDC,W
05A14:  MOVWF  xE9
05A16:  MOVFF  5E8,5EC
05A1A:  MOVWF  xED
05A1C:  MOVLW  05
05A1E:  MOVWF  xEF
05A20:  MOVLW  DF
05A22:  MOVWF  xEE
05A24:  MOVFF  5DE,5F0
05A28:  CLRF   xF1
05A2A:  MOVLB  0
05A2C:  CALL   4994
05A30:  MOVLB  5
....................    if(sombreado==0) 
05A32:  MOVF   xDD,F
05A34:  BNZ   5A90
....................       {glcd_rect(x, y, x+(tamano*20), y+(tamano*8), YES, OFF);glcd_text57(x+2, y+1, voltage, tamano, ON);} 
05A36:  MOVF   xDE,W
05A38:  MULLW  14
05A3A:  MOVF   FF3,W
05A3C:  ADDWF  xDB,W
05A3E:  MOVWF  xE8
05A40:  MOVF   xDE,W
05A42:  MULLW  08
05A44:  MOVF   FF3,W
05A46:  ADDWF  xDC,W
05A48:  MOVWF  xE9
05A4A:  MOVFF  5DB,5EC
05A4E:  MOVFF  5DC,5ED
05A52:  MOVFF  5E8,5EE
05A56:  MOVWF  xEF
05A58:  MOVLW  01
05A5A:  MOVWF  xF0
05A5C:  CLRF   xF1
05A5E:  MOVLB  0
05A60:  CALL   48D2
05A64:  MOVLW  02
05A66:  MOVLB  5
05A68:  ADDWF  xDB,W
05A6A:  MOVWF  xE8
05A6C:  MOVLW  01
05A6E:  ADDWF  xDC,W
05A70:  MOVWF  xE9
05A72:  MOVFF  5E8,5EC
05A76:  MOVWF  xED
05A78:  MOVLW  05
05A7A:  MOVWF  xEF
05A7C:  MOVLW  DF
05A7E:  MOVWF  xEE
05A80:  MOVFF  5DE,5F0
05A84:  MOVLW  01
05A86:  MOVWF  xF1
05A88:  MOVLB  0
05A8A:  CALL   4994
05A8E:  MOVLB  5
....................        
.................... } 
05A90:  MOVLB  0
05A92:  RETLW  00
....................  
.................... // Funcion para conversor analogo-digital 
.................... unsigned int16 sensores(int x){ 
.................... unsigned int16 y;set_adc_channel(x);delay_ms(1);y=read_adc();return (y); 
*
02CD0:  MOVLB  5
02CD2:  RLCF   xE4,W
02CD4:  MOVWF  00
02CD6:  RLCF   00,F
02CD8:  MOVLW  FC
02CDA:  ANDWF  00,F
02CDC:  MOVFF  00,01
02CE0:  MOVF   FC2,W
02CE2:  ANDLW  C3
02CE4:  IORWF  00,W
02CE6:  MOVWF  FC2
02CE8:  MOVLW  01
02CEA:  MOVWF  xE7
02CEC:  MOVLB  0
02CEE:  CALL   1496
02CF2:  BSF    FC2.1
02CF4:  BTFSC  FC2.1
02CF6:  BRA    2CF4
02CF8:  MOVFF  FC4,5E6
02CFC:  MOVLB  5
02CFE:  MOVFF  FC3,5E5
02D02:  MOVFF  5E5,01
02D06:  MOVFF  5E6,02
.................... } 
02D0A:  MOVLB  0
02D0C:  RETLW  00
....................  
....................  
.................... #define   UP               !input(PIN_A5) 
.................... #define   DOWN             !input(PIN_E0) 
.................... #define   RIGHT            !input(PIN_E1) 
.................... #define   LEFT             !input(PIN_E2) 
.................... #define   VIDRIOUP         input(PIN_A3) 
.................... #define   VIDRIODN         input(PIN_A4) 
....................  
.................... #define   Alarma_on           output_bit(PIN_C7,1) 
.................... #define   Alarma_off          output_bit(PIN_C7,0) 
.................... #define   LuzBlanca_on        output_bit(PIN_C0,1) 
.................... #define   LuzBlanca_off       output_bit(PIN_C0,0) 
.................... #define   Aux_on              output_bit(PIN_C1,1) 
.................... #define   Aux_off             output_bit(PIN_C1,0) 
.................... #define   Motor_on            output_bit(PIN_C2,1) 
.................... #define   Motor_off           output_bit(PIN_C2,0) 
.................... #define   Display_on          output_bit(PIN_B1,1) 
.................... #define   Display_off         output_bit(PIN_B1,0) 
....................  
.................... short Flanco=0,Flanco1=0,Flanco2=0,Flanco3=0,Flanco4=0,Flanco5=0,imprimir=0,flag_blower=0,flag_toma=0,flag_luz=0,flag_alarma=0,w=0,flag_uv=0; 
.................... short tiempo_purga=0,tiempo_trabajo=0,flag_latencia=0,tiempo_postpurga=0; 
.................... short guardatrabajo=0,Lectura=0,n=0; 
.................... char  JP[] = "JP Inglobal", Cabina[] = "Cabina Extractora",Dos_puntos[]=":",UV[]="UV"; 
.................... char  Clase[] = "Sin Ductos", Tiempo[] = "Tiempo de Purga"; 
.................... char  Inflowt[] = "Vel:",Downflowt[] = "Temperatura", ZF[] = "Fabrica:208.0", ZA[] = "Actual:",AJ[]="Ajuste:"; 
.................... char  Vida_Filtro[] = "T. Filtro:",ZFP[] = "Fabrica:235.0", Perdida[]="!Filtro Saturado!"; 
.................... int8 Menu=200, unidad=1, Opcion=1,negativo=10,G_l=0,G_h=0,tiemporeset=0; 
.................... int8 q=0,r=0,l=0,h=0,Entero=0,Decimal1=0,Alarma=10; 
....................  
.................... unsigned int16 Inflow_adc=0,Filtro_Downflow_adc=0,Temporal1=0; 
....................  
.................... int16 t_latencia=0,minutos_uv=0,minutos_trabajo=0,G16=0; 
.................... signed int  Tpurga[4]={0,0,0,0};       // Tiempo de Purga transcurrido 
.................... signed int  Tpurgap[4]={9,0,0,0};      // Tiempo de Purga programado 
.................... signed int  Tppurga[4]={0,0,0,0};      // Tiempo de Post-Purga transcurrido 
.................... signed int  Tppurgap[4]={9,0,0,0};     // Tiempo de Post-Purga programado 
.................... signed int  Tuv[4]={0,0,0,0};          // Tiempo de UV transcurrido(en Horas) 
.................... signed int  Tempouvp[4]={0,0,0,0};        // Tiempo de UV transcurrido 
.................... signed int  Ttrabajo[4]={0,0,0,0};        // Tiempo de trabajo transcurrido (en Horas) 
.................... signed int  Contrasena[4]={0,0,0,0};      // Contrasena de 4 digitos 
.................... signed int  Password[4]={0,0,0,0};        // Contrasena Almacenada de 4 digitos 
.................... float Inflow=0.0,Downflow=0.0,Filtro_Downflow=0.0,Diferencia=0.0; 
.................... float Velocidad=0.0,x_uno=0.0,x_cuadrado=0.0,x_cubo=0.0,Ajuste1=0.0,Ajuste2=0.0; 
.................... float Temporal=0.0,Temporal2=0.0; 
.................... float a=0.00000957915546738639,b=-0.00727819571978831,c= 1.85375754678451,d= -156.816806902063; 
.................... //float t=378.463968402560,f=-18275.0402762787;//Sensor 2 Posible bueno 
....................  
.................... float promedio[8]={0.0,0.0,0.0,0.0,0.0,0.0,0.0,0.0}; 
.................... float promedio2[8]={0.0,0.0,0.0,0.0,0.0,0.0,0.0,0.0}; 
.................... float PromPresion[8]={0.0,0.0,0.0,0.0,0.0,0.0,0.0,0.0}; 
.................... float Flujo=0.0,zero_fabrica=208.0,zero_actual=0.0; 
.................... float V1=0.0,Presion=0.0,G=2.0; 
....................  
.................... int16 pulsos=0,retardo=0; 
.................... int8 i=0,l2=0,h2=0,Temperatura=0; 
.................... short Cruce=OFF,Purga=OFF; 
.................... int16 tiempocruce=0; 
.................... int8 Porcentaje=0,VelMotor=0; 
.................... float Tcruce=0.0,Tcruce2=0; 
....................  
.................... #include "Funciones.h" 
.................... float leeTemperatura(int8 media){ 
*
0437E:  MOVLB  5
04380:  CLRF   xD7
04382:  CLRF   xD6
04384:  CLRF   xD5
04386:  CLRF   xD4
04388:  CLRF   xDB
0438A:  CLRF   xDA
0438C:  CLRF   xD9
0438E:  CLRF   xD8
04390:  CLRF   xDF
04392:  CLRF   xDE
04394:  CLRF   xDD
04396:  CLRF   xDC
04398:  CLRF   xE3
0439A:  CLRF   xE2
0439C:  CLRF   xE1
0439E:  CLRF   xE0
....................    float ADC=0,V=0,T=0,Tempera=0; 
....................    ADC=sensores(0); 
043A0:  CLRF   xE4
043A2:  MOVLB  0
043A4:  CALL   2CD0
043A8:  MOVFF  02,609
043AC:  MOVFF  01,608
043B0:  CALL   1730
043B4:  MOVFF  03,5D7
043B8:  MOVFF  02,5D6
043BC:  MOVFF  01,5D5
043C0:  MOVFF  00,5D4
....................    V=5*ADC/1023; 
043C4:  MOVLB  6
043C6:  CLRF   x07
043C8:  CLRF   x06
043CA:  MOVLW  20
043CC:  MOVWF  x05
043CE:  MOVLW  81
043D0:  MOVWF  x04
043D2:  MOVFF  5D7,60B
043D6:  MOVFF  5D6,60A
043DA:  MOVFF  5D5,609
043DE:  MOVFF  5D4,608
043E2:  MOVLB  0
043E4:  CALL   2D4A
043E8:  MOVFF  00,5E4
043EC:  MOVFF  01,5E5
043F0:  MOVFF  02,5E6
043F4:  MOVFF  03,5E7
043F8:  MOVFF  03,607
043FC:  MOVFF  02,606
04400:  MOVFF  01,605
04404:  MOVFF  00,604
04408:  MOVLB  6
0440A:  CLRF   x0B
0440C:  MOVLW  C0
0440E:  MOVWF  x0A
04410:  MOVLW  7F
04412:  MOVWF  x09
04414:  MOVLW  88
04416:  MOVWF  x08
04418:  MOVLB  0
0441A:  CALL   1766
0441E:  MOVFF  03,5DB
04422:  MOVFF  02,5DA
04426:  MOVFF  01,5D9
0442A:  MOVFF  00,5D8
....................    T=V/0.01; 
0442E:  MOVFF  5DB,607
04432:  MOVFF  5DA,606
04436:  MOVFF  5D9,605
0443A:  MOVFF  5D8,604
0443E:  MOVLW  0A
04440:  MOVLB  6
04442:  MOVWF  x0B
04444:  MOVLW  D7
04446:  MOVWF  x0A
04448:  MOVLW  23
0444A:  MOVWF  x09
0444C:  MOVLW  78
0444E:  MOVWF  x08
04450:  MOVLB  0
04452:  CALL   1766
04456:  MOVFF  03,5DF
0445A:  MOVFF  02,5DE
0445E:  MOVFF  01,5DD
04462:  MOVFF  00,5DC
....................    if(l2>media) 
04466:  MOVLB  5
04468:  MOVF   xC4,W
0446A:  SUBWF  xD3,W
0446C:  BC    4470
....................       l2=0; 
0446E:  CLRF   xC4
....................        
....................    promedio2[l2]=T;l2++; 
04470:  MOVF   xC4,W
04472:  MULLW  04
04474:  MOVF   FF3,W
04476:  CLRF   03
04478:  ADDLW  67
0447A:  MOVWF  FE9
0447C:  MOVLW  05
0447E:  ADDWFC 03,W
04480:  MOVWF  FEA
04482:  MOVFF  5DC,FEF
04486:  MOVFF  5DD,FEC
0448A:  MOVFF  5DE,FEC
0448E:  MOVFF  5DF,FEC
04492:  INCF   xC4,F
....................    Tempera=0; 
04494:  CLRF   xE3
04496:  CLRF   xE2
04498:  CLRF   xE1
0449A:  CLRF   xE0
....................       
....................      for(h2=0;h2<=(media-1);h2++){ 
0449C:  CLRF   xC5
0449E:  MOVLW  01
044A0:  SUBWF  xD3,W
044A2:  SUBWF  xC5,W
044A4:  BZ    44A8
044A6:  BC    4518
....................         Tempera+=promedio2[h2]; 
044A8:  MOVF   xC5,W
044AA:  MULLW  04
044AC:  MOVF   FF3,W
044AE:  CLRF   03
044B0:  ADDLW  67
044B2:  MOVWF  FE9
044B4:  MOVLW  05
044B6:  ADDWFC 03,W
044B8:  MOVWF  FEA
044BA:  MOVFF  FEF,00
044BE:  MOVFF  FEC,01
044C2:  MOVFF  FEC,02
044C6:  MOVFF  FEC,03
044CA:  MOVFF  FEA,5E5
044CE:  MOVFF  FE9,5E4
044D2:  BCF    FD8.1
044D4:  MOVFF  5E3,60B
044D8:  MOVFF  5E2,60A
044DC:  MOVFF  5E1,609
044E0:  MOVFF  5E0,608
044E4:  MOVFF  03,60F
044E8:  MOVFF  02,60E
044EC:  MOVFF  01,60D
044F0:  MOVFF  00,60C
044F4:  MOVLB  0
044F6:  CALL   18C4
044FA:  MOVFF  5E5,FEA
044FE:  MOVFF  5E4,FE9
04502:  MOVFF  03,5E3
04506:  MOVFF  02,5E2
0450A:  MOVFF  01,5E1
0450E:  MOVFF  00,5E0
....................      }       
04512:  MOVLB  5
04514:  INCF   xC5,F
04516:  BRA    449E
....................    return Tempera/media; 
04518:  MOVLB  6
0451A:  CLRF   x09
0451C:  MOVFF  5D3,608
04520:  MOVLB  0
04522:  CALL   1730
04526:  MOVFF  5E3,607
0452A:  MOVFF  5E2,606
0452E:  MOVFF  5E1,605
04532:  MOVFF  5E0,604
04536:  MOVFF  03,60B
0453A:  MOVFF  02,60A
0453E:  MOVFF  01,609
04542:  MOVFF  00,608
04546:  CALL   1766
.................... } 
0454A:  GOTO   6042 (RETURN)
....................  
.................... void LeeEEPROM(void){ 
....................    Password[0]=read_eeprom(0); 
*
01B3C:  MOVFF  FF2,5D3
01B40:  BCF    FF2.7
01B42:  CLRF   FAA
01B44:  CLRF   FA9
01B46:  BCF    FA6.6
01B48:  BCF    FA6.7
01B4A:  BSF    FA6.0
01B4C:  MOVF   FA8,W
01B4E:  MOVLB  5
01B50:  BTFSC  xD3.7
01B52:  BSF    FF2.7
01B54:  MOVWF  x03
....................    delay_ms(10); 
01B56:  MOVLW  0A
01B58:  MOVWF  xE7
01B5A:  MOVLB  0
01B5C:  RCALL  1496
....................    Password[1]=read_eeprom(1); 
01B5E:  MOVFF  FF2,5D3
01B62:  BCF    FF2.7
01B64:  CLRF   FAA
01B66:  MOVLW  01
01B68:  MOVWF  FA9
01B6A:  BCF    FA6.6
01B6C:  BCF    FA6.7
01B6E:  BSF    FA6.0
01B70:  MOVF   FA8,W
01B72:  MOVLB  5
01B74:  BTFSC  xD3.7
01B76:  BSF    FF2.7
01B78:  MOVWF  x04
....................    delay_ms(10); 
01B7A:  MOVLW  0A
01B7C:  MOVWF  xE7
01B7E:  MOVLB  0
01B80:  RCALL  1496
....................    Password[2]=read_eeprom(2); 
01B82:  MOVFF  FF2,5D3
01B86:  BCF    FF2.7
01B88:  CLRF   FAA
01B8A:  MOVLW  02
01B8C:  MOVWF  FA9
01B8E:  BCF    FA6.6
01B90:  BCF    FA6.7
01B92:  BSF    FA6.0
01B94:  MOVF   FA8,W
01B96:  MOVLB  5
01B98:  BTFSC  xD3.7
01B9A:  BSF    FF2.7
01B9C:  MOVWF  x05
....................    delay_ms(10); 
01B9E:  MOVLW  0A
01BA0:  MOVWF  xE7
01BA2:  MOVLB  0
01BA4:  RCALL  1496
....................    Password[3]=read_eeprom(3); 
01BA6:  MOVFF  FF2,5D3
01BAA:  BCF    FF2.7
01BAC:  CLRF   FAA
01BAE:  MOVLW  03
01BB0:  MOVWF  FA9
01BB2:  BCF    FA6.6
01BB4:  BCF    FA6.7
01BB6:  BSF    FA6.0
01BB8:  MOVF   FA8,W
01BBA:  MOVLB  5
01BBC:  BTFSC  xD3.7
01BBE:  BSF    FF2.7
01BC0:  MOVWF  x06
....................    delay_ms(10); 
01BC2:  MOVLW  0A
01BC4:  MOVWF  xE7
01BC6:  MOVLB  0
01BC8:  RCALL  1496
....................    Tpurgap[0]=read_eeprom(4); 
01BCA:  MOVFF  FF2,5D3
01BCE:  BCF    FF2.7
01BD0:  CLRF   FAA
01BD2:  MOVLW  04
01BD4:  MOVWF  FA9
01BD6:  BCF    FA6.6
01BD8:  BCF    FA6.7
01BDA:  BSF    FA6.0
01BDC:  MOVF   FA8,W
01BDE:  MOVLB  5
01BE0:  BTFSC  xD3.7
01BE2:  BSF    FF2.7
01BE4:  MOVLB  4
01BE6:  MOVWF  xE7
....................    delay_ms(10); 
01BE8:  MOVLW  0A
01BEA:  MOVLB  5
01BEC:  MOVWF  xE7
01BEE:  MOVLB  0
01BF0:  RCALL  1496
....................    Tpurgap[1]=read_eeprom(5); 
01BF2:  MOVFF  FF2,5D3
01BF6:  BCF    FF2.7
01BF8:  CLRF   FAA
01BFA:  MOVLW  05
01BFC:  MOVWF  FA9
01BFE:  BCF    FA6.6
01C00:  BCF    FA6.7
01C02:  BSF    FA6.0
01C04:  MOVF   FA8,W
01C06:  MOVLB  5
01C08:  BTFSC  xD3.7
01C0A:  BSF    FF2.7
01C0C:  MOVLB  4
01C0E:  MOVWF  xE8
....................    delay_ms(10); 
01C10:  MOVLW  0A
01C12:  MOVLB  5
01C14:  MOVWF  xE7
01C16:  MOVLB  0
01C18:  RCALL  1496
....................    Tpurgap[2]=read_eeprom(6); 
01C1A:  MOVFF  FF2,5D3
01C1E:  BCF    FF2.7
01C20:  CLRF   FAA
01C22:  MOVLW  06
01C24:  MOVWF  FA9
01C26:  BCF    FA6.6
01C28:  BCF    FA6.7
01C2A:  BSF    FA6.0
01C2C:  MOVF   FA8,W
01C2E:  MOVLB  5
01C30:  BTFSC  xD3.7
01C32:  BSF    FF2.7
01C34:  MOVLB  4
01C36:  MOVWF  xE9
....................    delay_ms(10); 
01C38:  MOVLW  0A
01C3A:  MOVLB  5
01C3C:  MOVWF  xE7
01C3E:  MOVLB  0
01C40:  RCALL  1496
....................    Tpurgap[3]=read_eeprom(7); 
01C42:  MOVFF  FF2,5D3
01C46:  BCF    FF2.7
01C48:  CLRF   FAA
01C4A:  MOVLW  07
01C4C:  MOVWF  FA9
01C4E:  BCF    FA6.6
01C50:  BCF    FA6.7
01C52:  BSF    FA6.0
01C54:  MOVF   FA8,W
01C56:  MOVLB  5
01C58:  BTFSC  xD3.7
01C5A:  BSF    FF2.7
01C5C:  MOVLB  4
01C5E:  MOVWF  xEA
....................    delay_ms(10); 
01C60:  MOVLW  0A
01C62:  MOVLB  5
01C64:  MOVWF  xE7
01C66:  MOVLB  0
01C68:  RCALL  1496
....................    Tppurgap[0]=read_eeprom(8); 
01C6A:  MOVFF  FF2,5D3
01C6E:  BCF    FF2.7
01C70:  CLRF   FAA
01C72:  MOVLW  08
01C74:  MOVWF  FA9
01C76:  BCF    FA6.6
01C78:  BCF    FA6.7
01C7A:  BSF    FA6.0
01C7C:  MOVF   FA8,W
01C7E:  MOVLB  5
01C80:  BTFSC  xD3.7
01C82:  BSF    FF2.7
01C84:  MOVLB  4
01C86:  MOVWF  xEF
....................    delay_ms(10); 
01C88:  MOVLW  0A
01C8A:  MOVLB  5
01C8C:  MOVWF  xE7
01C8E:  MOVLB  0
01C90:  RCALL  1496
....................    Tppurgap[1]=read_eeprom(9); 
01C92:  MOVFF  FF2,5D3
01C96:  BCF    FF2.7
01C98:  CLRF   FAA
01C9A:  MOVLW  09
01C9C:  MOVWF  FA9
01C9E:  BCF    FA6.6
01CA0:  BCF    FA6.7
01CA2:  BSF    FA6.0
01CA4:  MOVF   FA8,W
01CA6:  MOVLB  5
01CA8:  BTFSC  xD3.7
01CAA:  BSF    FF2.7
01CAC:  MOVLB  4
01CAE:  MOVWF  xF0
....................    delay_ms(10); 
01CB0:  MOVLW  0A
01CB2:  MOVLB  5
01CB4:  MOVWF  xE7
01CB6:  MOVLB  0
01CB8:  CALL   1496
....................    Tppurgap[2]=read_eeprom(10); 
01CBC:  MOVFF  FF2,5D3
01CC0:  BCF    FF2.7
01CC2:  CLRF   FAA
01CC4:  MOVLW  0A
01CC6:  MOVWF  FA9
01CC8:  BCF    FA6.6
01CCA:  BCF    FA6.7
01CCC:  BSF    FA6.0
01CCE:  MOVF   FA8,W
01CD0:  MOVLB  5
01CD2:  BTFSC  xD3.7
01CD4:  BSF    FF2.7
01CD6:  MOVLB  4
01CD8:  MOVWF  xF1
....................    delay_ms(10); 
01CDA:  MOVLW  0A
01CDC:  MOVLB  5
01CDE:  MOVWF  xE7
01CE0:  MOVLB  0
01CE2:  CALL   1496
....................    Tppurgap[3]=read_eeprom(11); 
01CE6:  MOVFF  FF2,5D3
01CEA:  BCF    FF2.7
01CEC:  CLRF   FAA
01CEE:  MOVLW  0B
01CF0:  MOVWF  FA9
01CF2:  BCF    FA6.6
01CF4:  BCF    FA6.7
01CF6:  BSF    FA6.0
01CF8:  MOVF   FA8,W
01CFA:  MOVLB  5
01CFC:  BTFSC  xD3.7
01CFE:  BSF    FF2.7
01D00:  MOVLB  4
01D02:  MOVWF  xF2
....................    delay_ms(10); 
01D04:  MOVLW  0A
01D06:  MOVLB  5
01D08:  MOVWF  xE7
01D0A:  MOVLB  0
01D0C:  CALL   1496
....................    Tuv[0]=read_eeprom(12); 
01D10:  MOVFF  FF2,5D3
01D14:  BCF    FF2.7
01D16:  CLRF   FAA
01D18:  MOVLW  0C
01D1A:  MOVWF  FA9
01D1C:  BCF    FA6.6
01D1E:  BCF    FA6.7
01D20:  BSF    FA6.0
01D22:  MOVF   FA8,W
01D24:  MOVLB  5
01D26:  BTFSC  xD3.7
01D28:  BSF    FF2.7
01D2A:  MOVLB  4
01D2C:  MOVWF  xF3
....................    delay_ms(10); 
01D2E:  MOVLW  0A
01D30:  MOVLB  5
01D32:  MOVWF  xE7
01D34:  MOVLB  0
01D36:  CALL   1496
....................    Tuv[1]=read_eeprom(13); 
01D3A:  MOVFF  FF2,5D3
01D3E:  BCF    FF2.7
01D40:  CLRF   FAA
01D42:  MOVLW  0D
01D44:  MOVWF  FA9
01D46:  BCF    FA6.6
01D48:  BCF    FA6.7
01D4A:  BSF    FA6.0
01D4C:  MOVF   FA8,W
01D4E:  MOVLB  5
01D50:  BTFSC  xD3.7
01D52:  BSF    FF2.7
01D54:  MOVLB  4
01D56:  MOVWF  xF4
....................    delay_ms(10); 
01D58:  MOVLW  0A
01D5A:  MOVLB  5
01D5C:  MOVWF  xE7
01D5E:  MOVLB  0
01D60:  CALL   1496
....................    Tuv[2]=read_eeprom(14); 
01D64:  MOVFF  FF2,5D3
01D68:  BCF    FF2.7
01D6A:  CLRF   FAA
01D6C:  MOVLW  0E
01D6E:  MOVWF  FA9
01D70:  BCF    FA6.6
01D72:  BCF    FA6.7
01D74:  BSF    FA6.0
01D76:  MOVF   FA8,W
01D78:  MOVLB  5
01D7A:  BTFSC  xD3.7
01D7C:  BSF    FF2.7
01D7E:  MOVLB  4
01D80:  MOVWF  xF5
....................    delay_ms(10); 
01D82:  MOVLW  0A
01D84:  MOVLB  5
01D86:  MOVWF  xE7
01D88:  MOVLB  0
01D8A:  CALL   1496
....................    Tuv[3]=read_eeprom(15); 
01D8E:  MOVFF  FF2,5D3
01D92:  BCF    FF2.7
01D94:  CLRF   FAA
01D96:  MOVLW  0F
01D98:  MOVWF  FA9
01D9A:  BCF    FA6.6
01D9C:  BCF    FA6.7
01D9E:  BSF    FA6.0
01DA0:  MOVF   FA8,W
01DA2:  MOVLB  5
01DA4:  BTFSC  xD3.7
01DA6:  BSF    FF2.7
01DA8:  MOVLB  4
01DAA:  MOVWF  xF6
....................    delay_ms(10); 
01DAC:  MOVLW  0A
01DAE:  MOVLB  5
01DB0:  MOVWF  xE7
01DB2:  MOVLB  0
01DB4:  CALL   1496
....................    Ttrabajo[0]=read_eeprom(16); 
01DB8:  MOVFF  FF2,5D3
01DBC:  BCF    FF2.7
01DBE:  CLRF   FAA
01DC0:  MOVLW  10
01DC2:  MOVWF  FA9
01DC4:  BCF    FA6.6
01DC6:  BCF    FA6.7
01DC8:  BSF    FA6.0
01DCA:  MOVF   FA8,W
01DCC:  MOVLB  5
01DCE:  BTFSC  xD3.7
01DD0:  BSF    FF2.7
01DD2:  MOVLB  4
01DD4:  MOVWF  xFB
....................    delay_ms(10); 
01DD6:  MOVLW  0A
01DD8:  MOVLB  5
01DDA:  MOVWF  xE7
01DDC:  MOVLB  0
01DDE:  CALL   1496
....................    Ttrabajo[1]=read_eeprom(17); 
01DE2:  MOVFF  FF2,5D3
01DE6:  BCF    FF2.7
01DE8:  CLRF   FAA
01DEA:  MOVLW  11
01DEC:  MOVWF  FA9
01DEE:  BCF    FA6.6
01DF0:  BCF    FA6.7
01DF2:  BSF    FA6.0
01DF4:  MOVF   FA8,W
01DF6:  MOVLB  5
01DF8:  BTFSC  xD3.7
01DFA:  BSF    FF2.7
01DFC:  MOVLB  4
01DFE:  MOVWF  xFC
....................    delay_ms(10); 
01E00:  MOVLW  0A
01E02:  MOVLB  5
01E04:  MOVWF  xE7
01E06:  MOVLB  0
01E08:  CALL   1496
....................    Ttrabajo[2]=read_eeprom(18); 
01E0C:  MOVFF  FF2,5D3
01E10:  BCF    FF2.7
01E12:  CLRF   FAA
01E14:  MOVLW  12
01E16:  MOVWF  FA9
01E18:  BCF    FA6.6
01E1A:  BCF    FA6.7
01E1C:  BSF    FA6.0
01E1E:  MOVF   FA8,W
01E20:  MOVLB  5
01E22:  BTFSC  xD3.7
01E24:  BSF    FF2.7
01E26:  MOVLB  4
01E28:  MOVWF  xFD
....................    delay_ms(10); 
01E2A:  MOVLW  0A
01E2C:  MOVLB  5
01E2E:  MOVWF  xE7
01E30:  MOVLB  0
01E32:  CALL   1496
....................    Ttrabajo[3]=read_eeprom(19); 
01E36:  MOVFF  FF2,5D3
01E3A:  BCF    FF2.7
01E3C:  CLRF   FAA
01E3E:  MOVLW  13
01E40:  MOVWF  FA9
01E42:  BCF    FA6.6
01E44:  BCF    FA6.7
01E46:  BSF    FA6.0
01E48:  MOVF   FA8,W
01E4A:  MOVLB  5
01E4C:  BTFSC  xD3.7
01E4E:  BSF    FF2.7
01E50:  MOVLB  4
01E52:  MOVWF  xFE
....................    delay_ms(10); 
01E54:  MOVLW  0A
01E56:  MOVLB  5
01E58:  MOVWF  xE7
01E5A:  MOVLB  0
01E5C:  CALL   1496
....................    //flag_alarma=read_eeprom(20); 
....................    //delay_ms(10); 
....................    Tempouvp[0]=read_eeprom(21); 
01E60:  MOVFF  FF2,5D3
01E64:  BCF    FF2.7
01E66:  CLRF   FAA
01E68:  MOVLW  15
01E6A:  MOVWF  FA9
01E6C:  BCF    FA6.6
01E6E:  BCF    FA6.7
01E70:  BSF    FA6.0
01E72:  MOVF   FA8,W
01E74:  MOVLB  5
01E76:  BTFSC  xD3.7
01E78:  BSF    FF2.7
01E7A:  MOVLB  4
01E7C:  MOVWF  xF7
....................    delay_ms(10); 
01E7E:  MOVLW  0A
01E80:  MOVLB  5
01E82:  MOVWF  xE7
01E84:  MOVLB  0
01E86:  CALL   1496
....................    Tempouvp[1]=read_eeprom(22); 
01E8A:  MOVFF  FF2,5D3
01E8E:  BCF    FF2.7
01E90:  CLRF   FAA
01E92:  MOVLW  16
01E94:  MOVWF  FA9
01E96:  BCF    FA6.6
01E98:  BCF    FA6.7
01E9A:  BSF    FA6.0
01E9C:  MOVF   FA8,W
01E9E:  MOVLB  5
01EA0:  BTFSC  xD3.7
01EA2:  BSF    FF2.7
01EA4:  MOVLB  4
01EA6:  MOVWF  xF8
....................    delay_ms(10); 
01EA8:  MOVLW  0A
01EAA:  MOVLB  5
01EAC:  MOVWF  xE7
01EAE:  MOVLB  0
01EB0:  CALL   1496
....................    Tempouvp[2]=read_eeprom(23); 
01EB4:  MOVFF  FF2,5D3
01EB8:  BCF    FF2.7
01EBA:  CLRF   FAA
01EBC:  MOVLW  17
01EBE:  MOVWF  FA9
01EC0:  BCF    FA6.6
01EC2:  BCF    FA6.7
01EC4:  BSF    FA6.0
01EC6:  MOVF   FA8,W
01EC8:  MOVLB  5
01ECA:  BTFSC  xD3.7
01ECC:  BSF    FF2.7
01ECE:  MOVLB  4
01ED0:  MOVWF  xF9
....................    delay_ms(10); 
01ED2:  MOVLW  0A
01ED4:  MOVLB  5
01ED6:  MOVWF  xE7
01ED8:  MOVLB  0
01EDA:  CALL   1496
....................    Tempouvp[3]=read_eeprom(24); 
01EDE:  MOVFF  FF2,5D3
01EE2:  BCF    FF2.7
01EE4:  CLRF   FAA
01EE6:  MOVLW  18
01EE8:  MOVWF  FA9
01EEA:  BCF    FA6.6
01EEC:  BCF    FA6.7
01EEE:  BSF    FA6.0
01EF0:  MOVF   FA8,W
01EF2:  MOVLB  5
01EF4:  BTFSC  xD3.7
01EF6:  BSF    FF2.7
01EF8:  MOVLB  4
01EFA:  MOVWF  xFA
....................     
....................    delay_ms(10); 
01EFC:  MOVLW  0A
01EFE:  MOVLB  5
01F00:  MOVWF  xE7
01F02:  MOVLB  0
01F04:  CALL   1496
....................    Entero=read_eeprom(25);//Decimal1=read_eeprom(26); 
01F08:  MOVFF  FF2,5D3
01F0C:  BCF    FF2.7
01F0E:  CLRF   FAA
01F10:  MOVLW  19
01F12:  MOVWF  FA9
01F14:  BCF    FA6.6
01F16:  BCF    FA6.7
01F18:  BSF    FA6.0
01F1A:  MOVF   FA8,W
01F1C:  MOVLB  5
01F1E:  BTFSC  xD3.7
01F20:  BSF    FF2.7
01F22:  MOVLB  4
01F24:  MOVWF  xD2
....................    delay_ms(10); 
01F26:  MOVLW  0A
01F28:  MOVLB  5
01F2A:  MOVWF  xE7
01F2C:  MOVLB  0
01F2E:  CALL   1496
....................    Temporal=read_eeprom(26); 
01F32:  MOVFF  FF2,5D3
01F36:  BCF    FF2.7
01F38:  CLRF   FAA
01F3A:  MOVLW  1A
01F3C:  MOVWF  FA9
01F3E:  BCF    FA6.6
01F40:  BCF    FA6.7
01F42:  BSF    FA6.0
01F44:  MOVF   FA8,W
01F46:  MOVLB  5
01F48:  BTFSC  xD3.7
01F4A:  BSF    FF2.7
01F4C:  MOVLB  6
01F4E:  CLRF   x09
01F50:  MOVWF  x08
01F52:  MOVLB  0
01F54:  CALL   1730
01F58:  MOVFF  03,532
01F5C:  MOVFF  02,531
01F60:  MOVFF  01,530
01F64:  MOVFF  00,52F
....................    delay_ms(10); 
01F68:  MOVLW  0A
01F6A:  MOVLB  5
01F6C:  MOVWF  xE7
01F6E:  MOVLB  0
01F70:  CALL   1496
....................    Temporal=Temporal/10.0; 
01F74:  MOVFF  532,607
01F78:  MOVFF  531,606
01F7C:  MOVFF  530,605
01F80:  MOVFF  52F,604
01F84:  MOVLB  6
01F86:  CLRF   x0B
01F88:  CLRF   x0A
01F8A:  MOVLW  20
01F8C:  MOVWF  x09
01F8E:  MOVLW  82
01F90:  MOVWF  x08
01F92:  MOVLB  0
01F94:  CALL   1766
01F98:  MOVFF  03,532
01F9C:  MOVFF  02,531
01FA0:  MOVFF  01,530
01FA4:  MOVFF  00,52F
....................    Ajuste1=Entero+Temporal; 
01FA8:  MOVLB  6
01FAA:  CLRF   x09
01FAC:  MOVFF  4D2,608
01FB0:  MOVLB  0
01FB2:  CALL   1730
01FB6:  BCF    FD8.1
01FB8:  MOVFF  03,60B
01FBC:  MOVFF  02,60A
01FC0:  MOVFF  01,609
01FC4:  MOVFF  00,608
01FC8:  MOVFF  532,60F
01FCC:  MOVFF  531,60E
01FD0:  MOVFF  530,60D
01FD4:  MOVFF  52F,60C
01FD8:  RCALL  18C4
01FDA:  MOVFF  03,52A
01FDE:  MOVFF  02,529
01FE2:  MOVFF  01,528
01FE6:  MOVFF  00,527
....................     
....................     
....................    Entero=read_eeprom(27);//Decimal1=read_eeprom(26); 
01FEA:  MOVFF  FF2,5D3
01FEE:  BCF    FF2.7
01FF0:  CLRF   FAA
01FF2:  MOVLW  1B
01FF4:  MOVWF  FA9
01FF6:  BCF    FA6.6
01FF8:  BCF    FA6.7
01FFA:  BSF    FA6.0
01FFC:  MOVF   FA8,W
01FFE:  MOVLB  5
02000:  BTFSC  xD3.7
02002:  BSF    FF2.7
02004:  MOVLB  4
02006:  MOVWF  xD2
....................    delay_ms(10); 
02008:  MOVLW  0A
0200A:  MOVLB  5
0200C:  MOVWF  xE7
0200E:  MOVLB  0
02010:  CALL   1496
....................    Temporal=read_eeprom(28); 
02014:  MOVFF  FF2,5D3
02018:  BCF    FF2.7
0201A:  CLRF   FAA
0201C:  MOVLW  1C
0201E:  MOVWF  FA9
02020:  BCF    FA6.6
02022:  BCF    FA6.7
02024:  BSF    FA6.0
02026:  MOVF   FA8,W
02028:  MOVLB  5
0202A:  BTFSC  xD3.7
0202C:  BSF    FF2.7
0202E:  MOVLB  6
02030:  CLRF   x09
02032:  MOVWF  x08
02034:  MOVLB  0
02036:  CALL   1730
0203A:  MOVFF  03,532
0203E:  MOVFF  02,531
02042:  MOVFF  01,530
02046:  MOVFF  00,52F
....................    delay_ms(10); 
0204A:  MOVLW  0A
0204C:  MOVLB  5
0204E:  MOVWF  xE7
02050:  MOVLB  0
02052:  CALL   1496
....................    Temporal=Temporal/10.0; 
02056:  MOVFF  532,607
0205A:  MOVFF  531,606
0205E:  MOVFF  530,605
02062:  MOVFF  52F,604
02066:  MOVLB  6
02068:  CLRF   x0B
0206A:  CLRF   x0A
0206C:  MOVLW  20
0206E:  MOVWF  x09
02070:  MOVLW  82
02072:  MOVWF  x08
02074:  MOVLB  0
02076:  CALL   1766
0207A:  MOVFF  03,532
0207E:  MOVFF  02,531
02082:  MOVFF  01,530
02086:  MOVFF  00,52F
....................    Ajuste2=Entero+Temporal; 
0208A:  MOVLB  6
0208C:  CLRF   x09
0208E:  MOVFF  4D2,608
02092:  MOVLB  0
02094:  CALL   1730
02098:  BCF    FD8.1
0209A:  MOVFF  03,60B
0209E:  MOVFF  02,60A
020A2:  MOVFF  01,609
020A6:  MOVFF  00,608
020AA:  MOVFF  532,60F
020AE:  MOVFF  531,60E
020B2:  MOVFF  530,60D
020B6:  MOVFF  52F,60C
020BA:  RCALL  18C4
020BC:  MOVFF  03,52E
020C0:  MOVFF  02,52D
020C4:  MOVFF  01,52C
020C8:  MOVFF  00,52B
....................     
....................    zero_actual=make16(read_eeprom(30),read_eeprom(29)); 
020CC:  MOVFF  FF2,5D3
020D0:  BCF    FF2.7
020D2:  CLRF   FAA
020D4:  MOVLW  1E
020D6:  MOVWF  FA9
020D8:  BCF    FA6.6
020DA:  BCF    FA6.7
020DC:  BSF    FA6.0
020DE:  MOVF   FA8,W
020E0:  MOVLB  5
020E2:  BTFSC  xD3.7
020E4:  BSF    FF2.7
020E6:  MOVWF  xD4
020E8:  MOVFF  FF2,5D5
020EC:  BCF    FF2.7
020EE:  CLRF   FAA
020F0:  MOVLW  1D
020F2:  MOVWF  FA9
020F4:  BCF    FA6.6
020F6:  BCF    FA6.7
020F8:  BSF    FA6.0
020FA:  MOVF   FA8,W
020FC:  BTFSC  xD5.7
020FE:  BSF    FF2.7
02100:  MOVWF  xD6
02102:  MOVFF  5D4,03
02106:  MOVF   xD6,W
02108:  MOVLB  6
0210A:  MOVWF  x08
0210C:  MOVFF  03,609
02110:  MOVLB  0
02112:  CALL   1730
02116:  MOVFF  03,5B2
0211A:  MOVFF  02,5B1
0211E:  MOVFF  01,5B0
02122:  MOVFF  00,5AF
....................    delay_ms(10); 
02126:  MOVLW  0A
02128:  MOVLB  5
0212A:  MOVWF  xE7
0212C:  MOVLB  0
0212E:  CALL   1496
....................    minutos_trabajo=make16(read_eeprom(34),read_eeprom(33)); 
02132:  MOVFF  FF2,5D3
02136:  BCF    FF2.7
02138:  CLRF   FAA
0213A:  MOVLW  22
0213C:  MOVWF  FA9
0213E:  BCF    FA6.6
02140:  BCF    FA6.7
02142:  BSF    FA6.0
02144:  MOVF   FA8,W
02146:  MOVLB  5
02148:  BTFSC  xD3.7
0214A:  BSF    FF2.7
0214C:  MOVWF  xD4
0214E:  MOVFF  FF2,5D5
02152:  BCF    FF2.7
02154:  CLRF   FAA
02156:  MOVLW  21
02158:  MOVWF  FA9
0215A:  BCF    FA6.6
0215C:  BCF    FA6.7
0215E:  BSF    FA6.0
02160:  MOVF   FA8,W
02162:  BTFSC  xD5.7
02164:  BSF    FF2.7
02166:  MOVWF  xD6
02168:  MOVFF  5D4,4E0
0216C:  MOVFF  5D6,4DF
....................    delay_ms(10); 
02170:  MOVLW  0A
02172:  MOVWF  xE7
02174:  MOVLB  0
02176:  CALL   1496
....................    minutos_uv=read_eeprom(31); 
0217A:  MOVFF  FF2,5D3
0217E:  BCF    FF2.7
02180:  CLRF   FAA
02182:  MOVLW  1F
02184:  MOVWF  FA9
02186:  BCF    FA6.6
02188:  BCF    FA6.7
0218A:  BSF    FA6.0
0218C:  MOVF   FA8,W
0218E:  MOVLB  5
02190:  BTFSC  xD3.7
02192:  BSF    FF2.7
02194:  MOVLB  4
02196:  CLRF   xDE
02198:  MOVWF  xDD
....................    delay_ms(10); 
0219A:  MOVLW  0A
0219C:  MOVLB  5
0219E:  MOVWF  xE7
021A0:  MOVLB  0
021A2:  CALL   1496
....................    VelMotor=read_eeprom(32); 
021A6:  MOVFF  FF2,5D3
021AA:  BCF    FF2.7
021AC:  CLRF   FAA
021AE:  MOVLW  20
021B0:  MOVWF  FA9
021B2:  BCF    FA6.6
021B4:  BCF    FA6.7
021B6:  BSF    FA6.0
021B8:  MOVF   FA8,W
021BA:  MOVLB  5
021BC:  BTFSC  xD3.7
021BE:  BSF    FF2.7
021C0:  MOVWF  xCA
....................    delay_ms(10); 
021C2:  MOVLW  0A
021C4:  MOVWF  xE7
021C6:  MOVLB  0
021C8:  CALL   1496
....................     
....................    Diferencia=make16(read_eeprom(61),read_eeprom(60)); 
021CC:  MOVFF  FF2,5D3
021D0:  BCF    FF2.7
021D2:  CLRF   FAA
021D4:  MOVLW  3D
021D6:  MOVWF  FA9
021D8:  BCF    FA6.6
021DA:  BCF    FA6.7
021DC:  BSF    FA6.0
021DE:  MOVF   FA8,W
021E0:  MOVLB  5
021E2:  BTFSC  xD3.7
021E4:  BSF    FF2.7
021E6:  MOVWF  xD4
021E8:  MOVFF  FF2,5D5
021EC:  BCF    FF2.7
021EE:  CLRF   FAA
021F0:  MOVLW  3C
021F2:  MOVWF  FA9
021F4:  BCF    FA6.6
021F6:  BCF    FA6.7
021F8:  BSF    FA6.0
021FA:  MOVF   FA8,W
021FC:  BTFSC  xD5.7
021FE:  BSF    FF2.7
02200:  MOVWF  xD6
02202:  MOVFF  5D4,03
02206:  MOVF   xD6,W
02208:  MOVLB  6
0220A:  MOVWF  x08
0220C:  MOVFF  03,609
02210:  MOVLB  0
02212:  CALL   1730
02216:  MOVFF  03,516
0221A:  MOVFF  02,515
0221E:  MOVFF  01,514
02222:  MOVFF  00,513
....................    delay_ms(10); 
02226:  MOVLW  0A
02228:  MOVLB  5
0222A:  MOVWF  xE7
0222C:  MOVLB  0
0222E:  CALL   1496
....................    G=make16(read_eeprom(63),read_eeprom(62)); 
02232:  MOVFF  FF2,5D3
02236:  BCF    FF2.7
02238:  CLRF   FAA
0223A:  MOVLW  3F
0223C:  MOVWF  FA9
0223E:  BCF    FA6.6
02240:  BCF    FA6.7
02242:  BSF    FA6.0
02244:  MOVF   FA8,W
02246:  MOVLB  5
02248:  BTFSC  xD3.7
0224A:  BSF    FF2.7
0224C:  MOVWF  xD4
0224E:  MOVFF  FF2,5D5
02252:  BCF    FF2.7
02254:  CLRF   FAA
02256:  MOVLW  3E
02258:  MOVWF  FA9
0225A:  BCF    FA6.6
0225C:  BCF    FA6.7
0225E:  BSF    FA6.0
02260:  MOVF   FA8,W
02262:  BTFSC  xD5.7
02264:  BSF    FF2.7
02266:  MOVWF  xD6
02268:  MOVFF  5D4,03
0226C:  MOVF   xD6,W
0226E:  MOVLB  6
02270:  MOVWF  x08
02272:  MOVFF  03,609
02276:  MOVLB  0
02278:  CALL   1730
0227C:  MOVFF  03,5BE
02280:  MOVFF  02,5BD
02284:  MOVFF  01,5BC
02288:  MOVFF  00,5BB
....................    delay_ms(10); 
0228C:  MOVLW  0A
0228E:  MOVLB  5
02290:  MOVWF  xE7
02292:  MOVLB  0
02294:  CALL   1496
....................    negativo=read_eeprom(50); 
02298:  MOVFF  FF2,5D3
0229C:  BCF    FF2.7
0229E:  CLRF   FAA
022A0:  MOVLW  32
022A2:  MOVWF  FA9
022A4:  BCF    FA6.6
022A6:  BCF    FA6.7
022A8:  BSF    FA6.0
022AA:  MOVF   FA8,W
022AC:  MOVLB  5
022AE:  BTFSC  xD3.7
022B0:  BSF    FF2.7
022B2:  MOVLB  4
022B4:  MOVWF  xCA
....................    delay_ms(10); 
022B6:  MOVLW  0A
022B8:  MOVLB  5
022BA:  MOVWF  xE7
022BC:  MOVLB  0
022BE:  CALL   1496
....................  
.................... } 
022C2:  GOTO   600A (RETURN)
....................  
.................... void LimitaValores(void){ 
....................    if(Password[0]>9 || Password[0]<0){ 
*
02340:  MOVLB  5
02342:  BTFSC  x03.7
02344:  BRA    234C
02346:  MOVF   x03,W
02348:  SUBLW  09
0234A:  BNC   2352
0234C:  BTFSC  x03.7
0234E:  BRA    2352
02350:  BRA    237E
....................       Password[0]=0;write_eeprom(0,0); 
02352:  CLRF   x03
02354:  CLRF   FAA
02356:  CLRF   FA9
02358:  CLRF   FA8
0235A:  BCF    FA6.6
0235C:  BCF    FA6.7
0235E:  BSF    FA6.2
02360:  MOVF   FF2,W
02362:  MOVWF  00
02364:  BCF    FF2.7
02366:  MOVLB  F
02368:  MOVLW  55
0236A:  MOVWF  FA7
0236C:  MOVLW  AA
0236E:  MOVWF  FA7
02370:  BSF    FA6.1
02372:  BTFSC  FA6.1
02374:  BRA    2372
02376:  BCF    FA6.2
02378:  MOVF   00,W
0237A:  IORWF  FF2,F
0237C:  MOVLB  5
....................    } 
....................    if(Password[1]>9 || Password[1]<0){ 
0237E:  BTFSC  x04.7
02380:  BRA    2388
02382:  MOVF   x04,W
02384:  SUBLW  09
02386:  BNC   238E
02388:  BTFSC  x04.7
0238A:  BRA    238E
0238C:  BRA    23BC
....................       Password[1]=0;write_eeprom(1,0); 
0238E:  CLRF   x04
02390:  CLRF   FAA
02392:  MOVLW  01
02394:  MOVWF  FA9
02396:  CLRF   FA8
02398:  BCF    FA6.6
0239A:  BCF    FA6.7
0239C:  BSF    FA6.2
0239E:  MOVF   FF2,W
023A0:  MOVWF  00
023A2:  BCF    FF2.7
023A4:  MOVLB  F
023A6:  MOVLW  55
023A8:  MOVWF  FA7
023AA:  MOVLW  AA
023AC:  MOVWF  FA7
023AE:  BSF    FA6.1
023B0:  BTFSC  FA6.1
023B2:  BRA    23B0
023B4:  BCF    FA6.2
023B6:  MOVF   00,W
023B8:  IORWF  FF2,F
023BA:  MOVLB  5
....................    } 
....................    if(Password[2]>9 || Password[2]<0){ 
023BC:  BTFSC  x05.7
023BE:  BRA    23C6
023C0:  MOVF   x05,W
023C2:  SUBLW  09
023C4:  BNC   23CC
023C6:  BTFSC  x05.7
023C8:  BRA    23CC
023CA:  BRA    23FA
....................       Password[2]=0;write_eeprom(2,0); 
023CC:  CLRF   x05
023CE:  CLRF   FAA
023D0:  MOVLW  02
023D2:  MOVWF  FA9
023D4:  CLRF   FA8
023D6:  BCF    FA6.6
023D8:  BCF    FA6.7
023DA:  BSF    FA6.2
023DC:  MOVF   FF2,W
023DE:  MOVWF  00
023E0:  BCF    FF2.7
023E2:  MOVLB  F
023E4:  MOVLW  55
023E6:  MOVWF  FA7
023E8:  MOVLW  AA
023EA:  MOVWF  FA7
023EC:  BSF    FA6.1
023EE:  BTFSC  FA6.1
023F0:  BRA    23EE
023F2:  BCF    FA6.2
023F4:  MOVF   00,W
023F6:  IORWF  FF2,F
023F8:  MOVLB  5
....................    } 
....................    if(Password[3]>9 || Password[3]<0){ 
023FA:  BTFSC  x06.7
023FC:  BRA    2404
023FE:  MOVF   x06,W
02400:  SUBLW  09
02402:  BNC   240A
02404:  BTFSC  x06.7
02406:  BRA    240A
02408:  BRA    2436
....................       Password[3]=0;write_eeprom(3,0); 
0240A:  CLRF   x06
0240C:  CLRF   FAA
0240E:  MOVLW  03
02410:  MOVWF  FA9
02412:  CLRF   FA8
02414:  BCF    FA6.6
02416:  BCF    FA6.7
02418:  BSF    FA6.2
0241A:  MOVF   FF2,W
0241C:  MOVWF  00
0241E:  BCF    FF2.7
02420:  MOVLB  F
02422:  MOVLW  55
02424:  MOVWF  FA7
02426:  MOVLW  AA
02428:  MOVWF  FA7
0242A:  BSF    FA6.1
0242C:  BTFSC  FA6.1
0242E:  BRA    242C
02430:  BCF    FA6.2
02432:  MOVF   00,W
02434:  IORWF  FF2,F
....................    } 
....................    if(Tpurgap[0]>9 || Tpurgap[0]<0){ 
02436:  MOVLB  4
02438:  BTFSC  xE7.7
0243A:  BRA    2442
0243C:  MOVF   xE7,W
0243E:  SUBLW  09
02440:  BNC   2448
02442:  BTFSC  xE7.7
02444:  BRA    2448
02446:  BRA    2476
....................       Tpurgap[0]=0;write_eeprom(4,0); 
02448:  CLRF   xE7
0244A:  CLRF   FAA
0244C:  MOVLW  04
0244E:  MOVWF  FA9
02450:  CLRF   FA8
02452:  BCF    FA6.6
02454:  BCF    FA6.7
02456:  BSF    FA6.2
02458:  MOVF   FF2,W
0245A:  MOVWF  00
0245C:  BCF    FF2.7
0245E:  MOVLB  F
02460:  MOVLW  55
02462:  MOVWF  FA7
02464:  MOVLW  AA
02466:  MOVWF  FA7
02468:  BSF    FA6.1
0246A:  BTFSC  FA6.1
0246C:  BRA    246A
0246E:  BCF    FA6.2
02470:  MOVF   00,W
02472:  IORWF  FF2,F
02474:  MOVLB  4
....................    } 
....................    if(Tpurgap[1]>9 || Tpurgap[1]<0){ 
02476:  BTFSC  xE8.7
02478:  BRA    2480
0247A:  MOVF   xE8,W
0247C:  SUBLW  09
0247E:  BNC   2486
02480:  BTFSC  xE8.7
02482:  BRA    2486
02484:  BRA    24B4
....................       Tpurgap[1]=0;write_eeprom(5,0); 
02486:  CLRF   xE8
02488:  CLRF   FAA
0248A:  MOVLW  05
0248C:  MOVWF  FA9
0248E:  CLRF   FA8
02490:  BCF    FA6.6
02492:  BCF    FA6.7
02494:  BSF    FA6.2
02496:  MOVF   FF2,W
02498:  MOVWF  00
0249A:  BCF    FF2.7
0249C:  MOVLB  F
0249E:  MOVLW  55
024A0:  MOVWF  FA7
024A2:  MOVLW  AA
024A4:  MOVWF  FA7
024A6:  BSF    FA6.1
024A8:  BTFSC  FA6.1
024AA:  BRA    24A8
024AC:  BCF    FA6.2
024AE:  MOVF   00,W
024B0:  IORWF  FF2,F
024B2:  MOVLB  4
....................    } 
....................    if(Tpurgap[2]>9 || Tpurgap[2]<0){ 
024B4:  BTFSC  xE9.7
024B6:  BRA    24BE
024B8:  MOVF   xE9,W
024BA:  SUBLW  09
024BC:  BNC   24C4
024BE:  BTFSC  xE9.7
024C0:  BRA    24C4
024C2:  BRA    24F6
....................       Tpurgap[2]=2;write_eeprom(6,2); 
024C4:  MOVLW  02
024C6:  MOVWF  xE9
024C8:  CLRF   FAA
024CA:  MOVLW  06
024CC:  MOVWF  FA9
024CE:  MOVLW  02
024D0:  MOVWF  FA8
024D2:  BCF    FA6.6
024D4:  BCF    FA6.7
024D6:  BSF    FA6.2
024D8:  MOVF   FF2,W
024DA:  MOVWF  00
024DC:  BCF    FF2.7
024DE:  MOVLB  F
024E0:  MOVLW  55
024E2:  MOVWF  FA7
024E4:  MOVLW  AA
024E6:  MOVWF  FA7
024E8:  BSF    FA6.1
024EA:  BTFSC  FA6.1
024EC:  BRA    24EA
024EE:  BCF    FA6.2
024F0:  MOVF   00,W
024F2:  IORWF  FF2,F
024F4:  MOVLB  4
....................    } 
....................    if(Tpurgap[3]>9 || Tpurgap[3]<0){ 
024F6:  BTFSC  xEA.7
024F8:  BRA    2500
024FA:  MOVF   xEA,W
024FC:  SUBLW  09
024FE:  BNC   2506
02500:  BTFSC  xEA.7
02502:  BRA    2506
02504:  BRA    2534
....................       Tpurgap[3]=0;write_eeprom(7,0); 
02506:  CLRF   xEA
02508:  CLRF   FAA
0250A:  MOVLW  07
0250C:  MOVWF  FA9
0250E:  CLRF   FA8
02510:  BCF    FA6.6
02512:  BCF    FA6.7
02514:  BSF    FA6.2
02516:  MOVF   FF2,W
02518:  MOVWF  00
0251A:  BCF    FF2.7
0251C:  MOVLB  F
0251E:  MOVLW  55
02520:  MOVWF  FA7
02522:  MOVLW  AA
02524:  MOVWF  FA7
02526:  BSF    FA6.1
02528:  BTFSC  FA6.1
0252A:  BRA    2528
0252C:  BCF    FA6.2
0252E:  MOVF   00,W
02530:  IORWF  FF2,F
02532:  MOVLB  4
....................    } 
....................    if(Tppurgap[0]>9 || Tppurgap[0]<0){ 
02534:  BTFSC  xEF.7
02536:  BRA    253E
02538:  MOVF   xEF,W
0253A:  SUBLW  09
0253C:  BNC   2544
0253E:  BTFSC  xEF.7
02540:  BRA    2544
02542:  BRA    2572
....................       Tppurgap[0]=0;write_eeprom(8,0); 
02544:  CLRF   xEF
02546:  CLRF   FAA
02548:  MOVLW  08
0254A:  MOVWF  FA9
0254C:  CLRF   FA8
0254E:  BCF    FA6.6
02550:  BCF    FA6.7
02552:  BSF    FA6.2
02554:  MOVF   FF2,W
02556:  MOVWF  00
02558:  BCF    FF2.7
0255A:  MOVLB  F
0255C:  MOVLW  55
0255E:  MOVWF  FA7
02560:  MOVLW  AA
02562:  MOVWF  FA7
02564:  BSF    FA6.1
02566:  BTFSC  FA6.1
02568:  BRA    2566
0256A:  BCF    FA6.2
0256C:  MOVF   00,W
0256E:  IORWF  FF2,F
02570:  MOVLB  4
....................    } 
....................    if(Tppurgap[1]>9 || Tppurgap[1]<0){ 
02572:  BTFSC  xF0.7
02574:  BRA    257C
02576:  MOVF   xF0,W
02578:  SUBLW  09
0257A:  BNC   2582
0257C:  BTFSC  xF0.7
0257E:  BRA    2582
02580:  BRA    25B0
....................       Tppurgap[1]=0;write_eeprom(9,0); 
02582:  CLRF   xF0
02584:  CLRF   FAA
02586:  MOVLW  09
02588:  MOVWF  FA9
0258A:  CLRF   FA8
0258C:  BCF    FA6.6
0258E:  BCF    FA6.7
02590:  BSF    FA6.2
02592:  MOVF   FF2,W
02594:  MOVWF  00
02596:  BCF    FF2.7
02598:  MOVLB  F
0259A:  MOVLW  55
0259C:  MOVWF  FA7
0259E:  MOVLW  AA
025A0:  MOVWF  FA7
025A2:  BSF    FA6.1
025A4:  BTFSC  FA6.1
025A6:  BRA    25A4
025A8:  BCF    FA6.2
025AA:  MOVF   00,W
025AC:  IORWF  FF2,F
025AE:  MOVLB  4
....................    } 
....................    if(Tppurgap[2]>9 || Tppurgap[2]<0){ 
025B0:  BTFSC  xF1.7
025B2:  BRA    25BA
025B4:  MOVF   xF1,W
025B6:  SUBLW  09
025B8:  BNC   25C0
025BA:  BTFSC  xF1.7
025BC:  BRA    25C0
025BE:  BRA    25F2
....................       Tppurgap[2]=2;write_eeprom(10,2); 
025C0:  MOVLW  02
025C2:  MOVWF  xF1
025C4:  CLRF   FAA
025C6:  MOVLW  0A
025C8:  MOVWF  FA9
025CA:  MOVLW  02
025CC:  MOVWF  FA8
025CE:  BCF    FA6.6
025D0:  BCF    FA6.7
025D2:  BSF    FA6.2
025D4:  MOVF   FF2,W
025D6:  MOVWF  00
025D8:  BCF    FF2.7
025DA:  MOVLB  F
025DC:  MOVLW  55
025DE:  MOVWF  FA7
025E0:  MOVLW  AA
025E2:  MOVWF  FA7
025E4:  BSF    FA6.1
025E6:  BTFSC  FA6.1
025E8:  BRA    25E6
025EA:  BCF    FA6.2
025EC:  MOVF   00,W
025EE:  IORWF  FF2,F
025F0:  MOVLB  4
....................    } 
....................    if(Tppurgap[3]>9 || Tppurgap[3]<0){ 
025F2:  BTFSC  xF2.7
025F4:  BRA    25FC
025F6:  MOVF   xF2,W
025F8:  SUBLW  09
025FA:  BNC   2602
025FC:  BTFSC  xF2.7
025FE:  BRA    2602
02600:  BRA    2630
....................       Tppurgap[3]=0;write_eeprom(11,0); 
02602:  CLRF   xF2
02604:  CLRF   FAA
02606:  MOVLW  0B
02608:  MOVWF  FA9
0260A:  CLRF   FA8
0260C:  BCF    FA6.6
0260E:  BCF    FA6.7
02610:  BSF    FA6.2
02612:  MOVF   FF2,W
02614:  MOVWF  00
02616:  BCF    FF2.7
02618:  MOVLB  F
0261A:  MOVLW  55
0261C:  MOVWF  FA7
0261E:  MOVLW  AA
02620:  MOVWF  FA7
02622:  BSF    FA6.1
02624:  BTFSC  FA6.1
02626:  BRA    2624
02628:  BCF    FA6.2
0262A:  MOVF   00,W
0262C:  IORWF  FF2,F
0262E:  MOVLB  4
....................    } 
....................    if(Tuv[0]>9 || Tuv[0]<0){ 
02630:  BTFSC  xF3.7
02632:  BRA    263A
02634:  MOVF   xF3,W
02636:  SUBLW  09
02638:  BNC   2640
0263A:  BTFSC  xF3.7
0263C:  BRA    2640
0263E:  BRA    266E
....................       Tuv[0]=0;write_eeprom(12,0); 
02640:  CLRF   xF3
02642:  CLRF   FAA
02644:  MOVLW  0C
02646:  MOVWF  FA9
02648:  CLRF   FA8
0264A:  BCF    FA6.6
0264C:  BCF    FA6.7
0264E:  BSF    FA6.2
02650:  MOVF   FF2,W
02652:  MOVWF  00
02654:  BCF    FF2.7
02656:  MOVLB  F
02658:  MOVLW  55
0265A:  MOVWF  FA7
0265C:  MOVLW  AA
0265E:  MOVWF  FA7
02660:  BSF    FA6.1
02662:  BTFSC  FA6.1
02664:  BRA    2662
02666:  BCF    FA6.2
02668:  MOVF   00,W
0266A:  IORWF  FF2,F
0266C:  MOVLB  4
....................    } 
....................    if(Tuv[1]>9 || Tuv[1]<0){ 
0266E:  BTFSC  xF4.7
02670:  BRA    2678
02672:  MOVF   xF4,W
02674:  SUBLW  09
02676:  BNC   267E
02678:  BTFSC  xF4.7
0267A:  BRA    267E
0267C:  BRA    26AC
....................       Tuv[1]=0;write_eeprom(13,0); 
0267E:  CLRF   xF4
02680:  CLRF   FAA
02682:  MOVLW  0D
02684:  MOVWF  FA9
02686:  CLRF   FA8
02688:  BCF    FA6.6
0268A:  BCF    FA6.7
0268C:  BSF    FA6.2
0268E:  MOVF   FF2,W
02690:  MOVWF  00
02692:  BCF    FF2.7
02694:  MOVLB  F
02696:  MOVLW  55
02698:  MOVWF  FA7
0269A:  MOVLW  AA
0269C:  MOVWF  FA7
0269E:  BSF    FA6.1
026A0:  BTFSC  FA6.1
026A2:  BRA    26A0
026A4:  BCF    FA6.2
026A6:  MOVF   00,W
026A8:  IORWF  FF2,F
026AA:  MOVLB  4
....................    } 
....................    if(Tuv[2]>9 || Tuv[2]<0){ 
026AC:  BTFSC  xF5.7
026AE:  BRA    26B6
026B0:  MOVF   xF5,W
026B2:  SUBLW  09
026B4:  BNC   26BC
026B6:  BTFSC  xF5.7
026B8:  BRA    26BC
026BA:  BRA    26EA
....................       Tuv[2]=0;write_eeprom(14,0); 
026BC:  CLRF   xF5
026BE:  CLRF   FAA
026C0:  MOVLW  0E
026C2:  MOVWF  FA9
026C4:  CLRF   FA8
026C6:  BCF    FA6.6
026C8:  BCF    FA6.7
026CA:  BSF    FA6.2
026CC:  MOVF   FF2,W
026CE:  MOVWF  00
026D0:  BCF    FF2.7
026D2:  MOVLB  F
026D4:  MOVLW  55
026D6:  MOVWF  FA7
026D8:  MOVLW  AA
026DA:  MOVWF  FA7
026DC:  BSF    FA6.1
026DE:  BTFSC  FA6.1
026E0:  BRA    26DE
026E2:  BCF    FA6.2
026E4:  MOVF   00,W
026E6:  IORWF  FF2,F
026E8:  MOVLB  4
....................    } 
....................    if(Tuv[3]>9 || Tuv[3]<0){ 
026EA:  BTFSC  xF6.7
026EC:  BRA    26F4
026EE:  MOVF   xF6,W
026F0:  SUBLW  09
026F2:  BNC   26FA
026F4:  BTFSC  xF6.7
026F6:  BRA    26FA
026F8:  BRA    2728
....................       Tuv[3]=0;write_eeprom(15,0); 
026FA:  CLRF   xF6
026FC:  CLRF   FAA
026FE:  MOVLW  0F
02700:  MOVWF  FA9
02702:  CLRF   FA8
02704:  BCF    FA6.6
02706:  BCF    FA6.7
02708:  BSF    FA6.2
0270A:  MOVF   FF2,W
0270C:  MOVWF  00
0270E:  BCF    FF2.7
02710:  MOVLB  F
02712:  MOVLW  55
02714:  MOVWF  FA7
02716:  MOVLW  AA
02718:  MOVWF  FA7
0271A:  BSF    FA6.1
0271C:  BTFSC  FA6.1
0271E:  BRA    271C
02720:  BCF    FA6.2
02722:  MOVF   00,W
02724:  IORWF  FF2,F
02726:  MOVLB  4
....................    } 
....................    if(Ttrabajo[0]>9 || Ttrabajo[0]<0){ 
02728:  BTFSC  xFB.7
0272A:  BRA    2732
0272C:  MOVF   xFB,W
0272E:  SUBLW  09
02730:  BNC   2738
02732:  BTFSC  xFB.7
02734:  BRA    2738
02736:  BRA    2766
....................       Ttrabajo[0]=0;write_eeprom(16,0); 
02738:  CLRF   xFB
0273A:  CLRF   FAA
0273C:  MOVLW  10
0273E:  MOVWF  FA9
02740:  CLRF   FA8
02742:  BCF    FA6.6
02744:  BCF    FA6.7
02746:  BSF    FA6.2
02748:  MOVF   FF2,W
0274A:  MOVWF  00
0274C:  BCF    FF2.7
0274E:  MOVLB  F
02750:  MOVLW  55
02752:  MOVWF  FA7
02754:  MOVLW  AA
02756:  MOVWF  FA7
02758:  BSF    FA6.1
0275A:  BTFSC  FA6.1
0275C:  BRA    275A
0275E:  BCF    FA6.2
02760:  MOVF   00,W
02762:  IORWF  FF2,F
02764:  MOVLB  4
....................    } 
....................    if(Ttrabajo[1]>9 || Ttrabajo[1]<0){ 
02766:  BTFSC  xFC.7
02768:  BRA    2770
0276A:  MOVF   xFC,W
0276C:  SUBLW  09
0276E:  BNC   2776
02770:  BTFSC  xFC.7
02772:  BRA    2776
02774:  BRA    27A4
....................       Ttrabajo[1]=0;write_eeprom(17,0); 
02776:  CLRF   xFC
02778:  CLRF   FAA
0277A:  MOVLW  11
0277C:  MOVWF  FA9
0277E:  CLRF   FA8
02780:  BCF    FA6.6
02782:  BCF    FA6.7
02784:  BSF    FA6.2
02786:  MOVF   FF2,W
02788:  MOVWF  00
0278A:  BCF    FF2.7
0278C:  MOVLB  F
0278E:  MOVLW  55
02790:  MOVWF  FA7
02792:  MOVLW  AA
02794:  MOVWF  FA7
02796:  BSF    FA6.1
02798:  BTFSC  FA6.1
0279A:  BRA    2798
0279C:  BCF    FA6.2
0279E:  MOVF   00,W
027A0:  IORWF  FF2,F
027A2:  MOVLB  4
....................    } 
....................    if(Ttrabajo[2]>9 || Ttrabajo[2]<0){ 
027A4:  BTFSC  xFD.7
027A6:  BRA    27AE
027A8:  MOVF   xFD,W
027AA:  SUBLW  09
027AC:  BNC   27B4
027AE:  BTFSC  xFD.7
027B0:  BRA    27B4
027B2:  BRA    27E2
....................       Ttrabajo[2]=0;write_eeprom(18,0); 
027B4:  CLRF   xFD
027B6:  CLRF   FAA
027B8:  MOVLW  12
027BA:  MOVWF  FA9
027BC:  CLRF   FA8
027BE:  BCF    FA6.6
027C0:  BCF    FA6.7
027C2:  BSF    FA6.2
027C4:  MOVF   FF2,W
027C6:  MOVWF  00
027C8:  BCF    FF2.7
027CA:  MOVLB  F
027CC:  MOVLW  55
027CE:  MOVWF  FA7
027D0:  MOVLW  AA
027D2:  MOVWF  FA7
027D4:  BSF    FA6.1
027D6:  BTFSC  FA6.1
027D8:  BRA    27D6
027DA:  BCF    FA6.2
027DC:  MOVF   00,W
027DE:  IORWF  FF2,F
027E0:  MOVLB  4
....................    } 
....................    if(Ttrabajo[3]>9 || Ttrabajo[3]<0){ 
027E2:  BTFSC  xFE.7
027E4:  BRA    27EC
027E6:  MOVF   xFE,W
027E8:  SUBLW  09
027EA:  BNC   27F2
027EC:  BTFSC  xFE.7
027EE:  BRA    27F2
027F0:  BRA    2820
....................       Ttrabajo[3]=0;write_eeprom(19,0); 
027F2:  CLRF   xFE
027F4:  CLRF   FAA
027F6:  MOVLW  13
027F8:  MOVWF  FA9
027FA:  CLRF   FA8
027FC:  BCF    FA6.6
027FE:  BCF    FA6.7
02800:  BSF    FA6.2
02802:  MOVF   FF2,W
02804:  MOVWF  00
02806:  BCF    FF2.7
02808:  MOVLB  F
0280A:  MOVLW  55
0280C:  MOVWF  FA7
0280E:  MOVLW  AA
02810:  MOVWF  FA7
02812:  BSF    FA6.1
02814:  BTFSC  FA6.1
02816:  BRA    2814
02818:  BCF    FA6.2
0281A:  MOVF   00,W
0281C:  IORWF  FF2,F
0281E:  MOVLB  4
....................    } 
....................    if(Tempouvp[0]>9 || Tempouvp[0]<0){ 
02820:  BTFSC  xF7.7
02822:  BRA    282A
02824:  MOVF   xF7,W
02826:  SUBLW  09
02828:  BNC   2830
0282A:  BTFSC  xF7.7
0282C:  BRA    2830
0282E:  BRA    285E
....................       Tempouvp[0]=0;write_eeprom(21,0); 
02830:  CLRF   xF7
02832:  CLRF   FAA
02834:  MOVLW  15
02836:  MOVWF  FA9
02838:  CLRF   FA8
0283A:  BCF    FA6.6
0283C:  BCF    FA6.7
0283E:  BSF    FA6.2
02840:  MOVF   FF2,W
02842:  MOVWF  00
02844:  BCF    FF2.7
02846:  MOVLB  F
02848:  MOVLW  55
0284A:  MOVWF  FA7
0284C:  MOVLW  AA
0284E:  MOVWF  FA7
02850:  BSF    FA6.1
02852:  BTFSC  FA6.1
02854:  BRA    2852
02856:  BCF    FA6.2
02858:  MOVF   00,W
0285A:  IORWF  FF2,F
0285C:  MOVLB  4
....................    } 
....................    if(Tempouvp[1]>9 || Tempouvp[1]<0){ 
0285E:  BTFSC  xF8.7
02860:  BRA    2868
02862:  MOVF   xF8,W
02864:  SUBLW  09
02866:  BNC   286E
02868:  BTFSC  xF8.7
0286A:  BRA    286E
0286C:  BRA    289C
....................       Tempouvp[1]=0;write_eeprom(22,0); 
0286E:  CLRF   xF8
02870:  CLRF   FAA
02872:  MOVLW  16
02874:  MOVWF  FA9
02876:  CLRF   FA8
02878:  BCF    FA6.6
0287A:  BCF    FA6.7
0287C:  BSF    FA6.2
0287E:  MOVF   FF2,W
02880:  MOVWF  00
02882:  BCF    FF2.7
02884:  MOVLB  F
02886:  MOVLW  55
02888:  MOVWF  FA7
0288A:  MOVLW  AA
0288C:  MOVWF  FA7
0288E:  BSF    FA6.1
02890:  BTFSC  FA6.1
02892:  BRA    2890
02894:  BCF    FA6.2
02896:  MOVF   00,W
02898:  IORWF  FF2,F
0289A:  MOVLB  4
....................    } 
....................    if(Tempouvp[2]>9 || Tempouvp[2]<0){ 
0289C:  BTFSC  xF9.7
0289E:  BRA    28A6
028A0:  MOVF   xF9,W
028A2:  SUBLW  09
028A4:  BNC   28AC
028A6:  BTFSC  xF9.7
028A8:  BRA    28AC
028AA:  BRA    28DA
....................       Tempouvp[2]=0;write_eeprom(23,0); 
028AC:  CLRF   xF9
028AE:  CLRF   FAA
028B0:  MOVLW  17
028B2:  MOVWF  FA9
028B4:  CLRF   FA8
028B6:  BCF    FA6.6
028B8:  BCF    FA6.7
028BA:  BSF    FA6.2
028BC:  MOVF   FF2,W
028BE:  MOVWF  00
028C0:  BCF    FF2.7
028C2:  MOVLB  F
028C4:  MOVLW  55
028C6:  MOVWF  FA7
028C8:  MOVLW  AA
028CA:  MOVWF  FA7
028CC:  BSF    FA6.1
028CE:  BTFSC  FA6.1
028D0:  BRA    28CE
028D2:  BCF    FA6.2
028D4:  MOVF   00,W
028D6:  IORWF  FF2,F
028D8:  MOVLB  4
....................    } 
....................    if(Tempouvp[3]>9 || Tempouvp[3]<0){ 
028DA:  BTFSC  xFA.7
028DC:  BRA    28E4
028DE:  MOVF   xFA,W
028E0:  SUBLW  09
028E2:  BNC   28EA
028E4:  BTFSC  xFA.7
028E6:  BRA    28EA
028E8:  BRA    291A
....................       Tempouvp[3]=1;write_eeprom(24,1); 
028EA:  MOVLW  01
028EC:  MOVWF  xFA
028EE:  CLRF   FAA
028F0:  MOVLW  18
028F2:  MOVWF  FA9
028F4:  MOVLW  01
028F6:  MOVWF  FA8
028F8:  BCF    FA6.6
028FA:  BCF    FA6.7
028FC:  BSF    FA6.2
028FE:  MOVF   FF2,W
02900:  MOVWF  00
02902:  BCF    FF2.7
02904:  MOVLB  F
02906:  MOVLW  55
02908:  MOVWF  FA7
0290A:  MOVLW  AA
0290C:  MOVWF  FA7
0290E:  BSF    FA6.1
02910:  BTFSC  FA6.1
02912:  BRA    2910
02914:  BCF    FA6.2
02916:  MOVF   00,W
02918:  IORWF  FF2,F
....................    } 
....................    if(Ajuste1>25.0){ 
0291A:  MOVLB  6
0291C:  CLRF   x07
0291E:  CLRF   x06
02920:  MOVLW  48
02922:  MOVWF  x05
02924:  MOVLW  83
02926:  MOVWF  x04
02928:  MOVFF  52A,60B
0292C:  MOVFF  529,60A
02930:  MOVFF  528,609
02934:  MOVFF  527,608
02938:  MOVLB  0
0293A:  RCALL  22C6
0293C:  BNC   29A2
....................       Ajuste1=1.5;write_eeprom(25,1);write_eeprom(26,5); 
0293E:  MOVLB  5
02940:  CLRF   x2A
02942:  CLRF   x29
02944:  MOVLW  40
02946:  MOVWF  x28
02948:  MOVLW  7F
0294A:  MOVWF  x27
0294C:  CLRF   FAA
0294E:  MOVLW  19
02950:  MOVWF  FA9
02952:  MOVLW  01
02954:  MOVWF  FA8
02956:  BCF    FA6.6
02958:  BCF    FA6.7
0295A:  BSF    FA6.2
0295C:  MOVF   FF2,W
0295E:  MOVWF  00
02960:  BCF    FF2.7
02962:  MOVLB  F
02964:  MOVLW  55
02966:  MOVWF  FA7
02968:  MOVLW  AA
0296A:  MOVWF  FA7
0296C:  BSF    FA6.1
0296E:  BTFSC  FA6.1
02970:  BRA    296E
02972:  BCF    FA6.2
02974:  MOVF   00,W
02976:  IORWF  FF2,F
02978:  CLRF   FAA
0297A:  MOVLW  1A
0297C:  MOVWF  FA9
0297E:  MOVLW  05
02980:  MOVWF  FA8
02982:  BCF    FA6.6
02984:  BCF    FA6.7
02986:  BSF    FA6.2
02988:  MOVF   FF2,W
0298A:  MOVWF  00
0298C:  BCF    FF2.7
0298E:  MOVLW  55
02990:  MOVWF  FA7
02992:  MOVLW  AA
02994:  MOVWF  FA7
02996:  BSF    FA6.1
02998:  BTFSC  FA6.1
0299A:  BRA    2998
0299C:  BCF    FA6.2
0299E:  MOVF   00,W
029A0:  IORWF  FF2,F
....................    } 
....................    if(Ajuste2>25.0){ 
029A2:  MOVLB  6
029A4:  CLRF   x07
029A6:  CLRF   x06
029A8:  MOVLW  48
029AA:  MOVWF  x05
029AC:  MOVLW  83
029AE:  MOVWF  x04
029B0:  MOVFF  52E,60B
029B4:  MOVFF  52D,60A
029B8:  MOVFF  52C,609
029BC:  MOVFF  52B,608
029C0:  MOVLB  0
029C2:  RCALL  22C6
029C4:  BNC   2A26
....................       Ajuste2=1.0;write_eeprom(27,1);write_eeprom(28,0); 
029C6:  MOVLB  5
029C8:  CLRF   x2E
029CA:  CLRF   x2D
029CC:  CLRF   x2C
029CE:  MOVLW  7F
029D0:  MOVWF  x2B
029D2:  CLRF   FAA
029D4:  MOVLW  1B
029D6:  MOVWF  FA9
029D8:  MOVLW  01
029DA:  MOVWF  FA8
029DC:  BCF    FA6.6
029DE:  BCF    FA6.7
029E0:  BSF    FA6.2
029E2:  MOVF   FF2,W
029E4:  MOVWF  00
029E6:  BCF    FF2.7
029E8:  MOVLB  F
029EA:  MOVLW  55
029EC:  MOVWF  FA7
029EE:  MOVLW  AA
029F0:  MOVWF  FA7
029F2:  BSF    FA6.1
029F4:  BTFSC  FA6.1
029F6:  BRA    29F4
029F8:  BCF    FA6.2
029FA:  MOVF   00,W
029FC:  IORWF  FF2,F
029FE:  CLRF   FAA
02A00:  MOVLW  1C
02A02:  MOVWF  FA9
02A04:  CLRF   FA8
02A06:  BCF    FA6.6
02A08:  BCF    FA6.7
02A0A:  BSF    FA6.2
02A0C:  MOVF   FF2,W
02A0E:  MOVWF  00
02A10:  BCF    FF2.7
02A12:  MOVLW  55
02A14:  MOVWF  FA7
02A16:  MOVLW  AA
02A18:  MOVWF  FA7
02A1A:  BSF    FA6.1
02A1C:  BTFSC  FA6.1
02A1E:  BRA    2A1C
02A20:  BCF    FA6.2
02A22:  MOVF   00,W
02A24:  IORWF  FF2,F
....................    } 
....................    if(zero_actual>300){ 
02A26:  MOVLB  6
02A28:  CLRF   x07
02A2A:  CLRF   x06
02A2C:  MOVLW  16
02A2E:  MOVWF  x05
02A30:  MOVLW  87
02A32:  MOVWF  x04
02A34:  MOVFF  5B2,60B
02A38:  MOVFF  5B1,60A
02A3C:  MOVFF  5B0,609
02A40:  MOVFF  5AF,608
02A44:  MOVLB  0
02A46:  RCALL  22C6
02A48:  BNC   2AAC
....................       zero_actual=203;write_eeprom(29,203);write_eeprom(30,0); 
02A4A:  MOVLB  5
02A4C:  CLRF   xB2
02A4E:  CLRF   xB1
02A50:  MOVLW  4B
02A52:  MOVWF  xB0
02A54:  MOVLW  86
02A56:  MOVWF  xAF
02A58:  CLRF   FAA
02A5A:  MOVLW  1D
02A5C:  MOVWF  FA9
02A5E:  MOVLW  CB
02A60:  MOVWF  FA8
02A62:  BCF    FA6.6
02A64:  BCF    FA6.7
02A66:  BSF    FA6.2
02A68:  MOVF   FF2,W
02A6A:  MOVWF  00
02A6C:  BCF    FF2.7
02A6E:  MOVLB  F
02A70:  MOVLW  55
02A72:  MOVWF  FA7
02A74:  MOVLW  AA
02A76:  MOVWF  FA7
02A78:  BSF    FA6.1
02A7A:  BTFSC  FA6.1
02A7C:  BRA    2A7A
02A7E:  BCF    FA6.2
02A80:  MOVF   00,W
02A82:  IORWF  FF2,F
02A84:  CLRF   FAA
02A86:  MOVLW  1E
02A88:  MOVWF  FA9
02A8A:  CLRF   FA8
02A8C:  BCF    FA6.6
02A8E:  BCF    FA6.7
02A90:  BSF    FA6.2
02A92:  MOVF   FF2,W
02A94:  MOVWF  00
02A96:  BCF    FF2.7
02A98:  MOVLW  55
02A9A:  MOVWF  FA7
02A9C:  MOVLW  AA
02A9E:  MOVWF  FA7
02AA0:  BSF    FA6.1
02AA2:  BTFSC  FA6.1
02AA4:  BRA    2AA2
02AA6:  BCF    FA6.2
02AA8:  MOVF   00,W
02AAA:  IORWF  FF2,F
....................    } 
....................    if(minutos_uv>60){ 
02AAC:  MOVLB  4
02AAE:  MOVF   xDE,F
02AB0:  BNZ   2AB8
02AB2:  MOVF   xDD,W
02AB4:  SUBLW  3C
02AB6:  BC    2AE6
....................       minutos_uv=0;write_eeprom(31,0); 
02AB8:  CLRF   xDE
02ABA:  CLRF   xDD
02ABC:  CLRF   FAA
02ABE:  MOVLW  1F
02AC0:  MOVWF  FA9
02AC2:  CLRF   FA8
02AC4:  BCF    FA6.6
02AC6:  BCF    FA6.7
02AC8:  BSF    FA6.2
02ACA:  MOVF   FF2,W
02ACC:  MOVWF  00
02ACE:  BCF    FF2.7
02AD0:  MOVLB  F
02AD2:  MOVLW  55
02AD4:  MOVWF  FA7
02AD6:  MOVLW  AA
02AD8:  MOVWF  FA7
02ADA:  BSF    FA6.1
02ADC:  BTFSC  FA6.1
02ADE:  BRA    2ADC
02AE0:  BCF    FA6.2
02AE2:  MOVF   00,W
02AE4:  IORWF  FF2,F
....................    } 
....................    if(VelMotor>6){ 
02AE6:  MOVLB  5
02AE8:  MOVF   xCA,W
02AEA:  SUBLW  06
02AEC:  BC    2B1E
....................       VelMotor=2;write_eeprom(32,2); 
02AEE:  MOVLW  02
02AF0:  MOVWF  xCA
02AF2:  CLRF   FAA
02AF4:  MOVLW  20
02AF6:  MOVWF  FA9
02AF8:  MOVLW  02
02AFA:  MOVWF  FA8
02AFC:  BCF    FA6.6
02AFE:  BCF    FA6.7
02B00:  BSF    FA6.2
02B02:  MOVF   FF2,W
02B04:  MOVWF  00
02B06:  BCF    FF2.7
02B08:  MOVLB  F
02B0A:  MOVLW  55
02B0C:  MOVWF  FA7
02B0E:  MOVLW  AA
02B10:  MOVWF  FA7
02B12:  BSF    FA6.1
02B14:  BTFSC  FA6.1
02B16:  BRA    2B14
02B18:  BCF    FA6.2
02B1A:  MOVF   00,W
02B1C:  IORWF  FF2,F
....................    }    
....................    if(minutos_trabajo>3600){ 
02B1E:  MOVLB  4
02B20:  MOVF   xE0,W
02B22:  SUBLW  0D
02B24:  BC    2B86
02B26:  XORLW  FF
02B28:  BNZ   2B30
02B2A:  MOVF   xDF,W
02B2C:  SUBLW  10
02B2E:  BC    2B86
....................       minutos_trabajo=0;write_eeprom(33,0);write_eeprom(34,0); 
02B30:  CLRF   xE0
02B32:  CLRF   xDF
02B34:  CLRF   FAA
02B36:  MOVLW  21
02B38:  MOVWF  FA9
02B3A:  CLRF   FA8
02B3C:  BCF    FA6.6
02B3E:  BCF    FA6.7
02B40:  BSF    FA6.2
02B42:  MOVF   FF2,W
02B44:  MOVWF  00
02B46:  BCF    FF2.7
02B48:  MOVLB  F
02B4A:  MOVLW  55
02B4C:  MOVWF  FA7
02B4E:  MOVLW  AA
02B50:  MOVWF  FA7
02B52:  BSF    FA6.1
02B54:  BTFSC  FA6.1
02B56:  BRA    2B54
02B58:  BCF    FA6.2
02B5A:  MOVF   00,W
02B5C:  IORWF  FF2,F
02B5E:  CLRF   FAA
02B60:  MOVLW  22
02B62:  MOVWF  FA9
02B64:  CLRF   FA8
02B66:  BCF    FA6.6
02B68:  BCF    FA6.7
02B6A:  BSF    FA6.2
02B6C:  MOVF   FF2,W
02B6E:  MOVWF  00
02B70:  BCF    FF2.7
02B72:  MOVLW  55
02B74:  MOVWF  FA7
02B76:  MOVLW  AA
02B78:  MOVWF  FA7
02B7A:  BSF    FA6.1
02B7C:  BTFSC  FA6.1
02B7E:  BRA    2B7C
02B80:  BCF    FA6.2
02B82:  MOVF   00,W
02B84:  IORWF  FF2,F
....................    } 
....................    //if(Relacion>2.0){ 
....................       //Relacion=0.57;write_eeprom(35,0);write_eeprom(36,57); 
....................    //} 
....................    if(Diferencia>200){ 
02B86:  MOVLB  6
02B88:  CLRF   x07
02B8A:  CLRF   x06
02B8C:  MOVLW  48
02B8E:  MOVWF  x05
02B90:  MOVLW  86
02B92:  MOVWF  x04
02B94:  MOVFF  516,60B
02B98:  MOVFF  515,60A
02B9C:  MOVFF  514,609
02BA0:  MOVFF  513,608
02BA4:  MOVLB  0
02BA6:  CALL   22C6
02BAA:  BNC   2C08
....................       Diferencia=0;write_eeprom(60,0);write_eeprom(61,0); 
02BAC:  MOVLB  5
02BAE:  CLRF   x16
02BB0:  CLRF   x15
02BB2:  CLRF   x14
02BB4:  CLRF   x13
02BB6:  CLRF   FAA
02BB8:  MOVLW  3C
02BBA:  MOVWF  FA9
02BBC:  CLRF   FA8
02BBE:  BCF    FA6.6
02BC0:  BCF    FA6.7
02BC2:  BSF    FA6.2
02BC4:  MOVF   FF2,W
02BC6:  MOVWF  00
02BC8:  BCF    FF2.7
02BCA:  MOVLB  F
02BCC:  MOVLW  55
02BCE:  MOVWF  FA7
02BD0:  MOVLW  AA
02BD2:  MOVWF  FA7
02BD4:  BSF    FA6.1
02BD6:  BTFSC  FA6.1
02BD8:  BRA    2BD6
02BDA:  BCF    FA6.2
02BDC:  MOVF   00,W
02BDE:  IORWF  FF2,F
02BE0:  CLRF   FAA
02BE2:  MOVLW  3D
02BE4:  MOVWF  FA9
02BE6:  CLRF   FA8
02BE8:  BCF    FA6.6
02BEA:  BCF    FA6.7
02BEC:  BSF    FA6.2
02BEE:  MOVF   FF2,W
02BF0:  MOVWF  00
02BF2:  BCF    FF2.7
02BF4:  MOVLW  55
02BF6:  MOVWF  FA7
02BF8:  MOVLW  AA
02BFA:  MOVWF  FA7
02BFC:  BSF    FA6.1
02BFE:  BTFSC  FA6.1
02C00:  BRA    2BFE
02C02:  BCF    FA6.2
02C04:  MOVF   00,W
02C06:  IORWF  FF2,F
....................    } 
....................    if(G>900){ 
02C08:  MOVLB  6
02C0A:  CLRF   x07
02C0C:  CLRF   x06
02C0E:  MOVLW  61
02C10:  MOVWF  x05
02C12:  MOVLW  88
02C14:  MOVWF  x04
02C16:  MOVFF  5BE,60B
02C1A:  MOVFF  5BD,60A
02C1E:  MOVFF  5BC,609
02C22:  MOVFF  5BB,608
02C26:  MOVLB  0
02C28:  CALL   22C6
02C2C:  BNC   2C90
....................       G=240;write_eeprom(62,240);write_eeprom(63,0); 
02C2E:  MOVLB  5
02C30:  CLRF   xBE
02C32:  CLRF   xBD
02C34:  MOVLW  70
02C36:  MOVWF  xBC
02C38:  MOVLW  86
02C3A:  MOVWF  xBB
02C3C:  CLRF   FAA
02C3E:  MOVLW  3E
02C40:  MOVWF  FA9
02C42:  MOVLW  F0
02C44:  MOVWF  FA8
02C46:  BCF    FA6.6
02C48:  BCF    FA6.7
02C4A:  BSF    FA6.2
02C4C:  MOVF   FF2,W
02C4E:  MOVWF  00
02C50:  BCF    FF2.7
02C52:  MOVLB  F
02C54:  MOVLW  55
02C56:  MOVWF  FA7
02C58:  MOVLW  AA
02C5A:  MOVWF  FA7
02C5C:  BSF    FA6.1
02C5E:  BTFSC  FA6.1
02C60:  BRA    2C5E
02C62:  BCF    FA6.2
02C64:  MOVF   00,W
02C66:  IORWF  FF2,F
02C68:  CLRF   FAA
02C6A:  MOVLW  3F
02C6C:  MOVWF  FA9
02C6E:  CLRF   FA8
02C70:  BCF    FA6.6
02C72:  BCF    FA6.7
02C74:  BSF    FA6.2
02C76:  MOVF   FF2,W
02C78:  MOVWF  00
02C7A:  BCF    FF2.7
02C7C:  MOVLW  55
02C7E:  MOVWF  FA7
02C80:  MOVLW  AA
02C82:  MOVWF  FA7
02C84:  BSF    FA6.1
02C86:  BTFSC  FA6.1
02C88:  BRA    2C86
02C8A:  BCF    FA6.2
02C8C:  MOVF   00,W
02C8E:  IORWF  FF2,F
....................    } 
....................    if(negativo>20){ 
02C90:  MOVLB  4
02C92:  MOVF   xCA,W
02C94:  SUBLW  14
02C96:  BC    2CCA
....................       negativo=10;write_eeprom(50,10); 
02C98:  MOVLW  0A
02C9A:  MOVWF  xCA
02C9C:  CLRF   FAA
02C9E:  MOVLW  32
02CA0:  MOVWF  FA9
02CA2:  MOVLW  0A
02CA4:  MOVWF  FA8
02CA6:  BCF    FA6.6
02CA8:  BCF    FA6.7
02CAA:  BSF    FA6.2
02CAC:  MOVF   FF2,W
02CAE:  MOVWF  00
02CB0:  BCF    FF2.7
02CB2:  MOVLB  F
02CB4:  MOVLW  55
02CB6:  MOVWF  FA7
02CB8:  MOVLW  AA
02CBA:  MOVWF  FA7
02CBC:  BSF    FA6.1
02CBE:  BTFSC  FA6.1
02CC0:  BRA    2CBE
02CC2:  BCF    FA6.2
02CC4:  MOVF   00,W
02CC6:  IORWF  FF2,F
02CC8:  MOVLB  4
....................    } 
.................... } 
02CCA:  MOVLB  0
02CCC:  GOTO   600E (RETURN)
....................  
.................... void VelocidadMotor(int8 Vel){ 
....................    if(Vel==6){ 
*
014BE:  MOVLB  5
014C0:  MOVF   xD3,W
014C2:  SUBLW  06
014C4:  BNZ   14CE
....................       Porcentaje=0; 
014C6:  CLRF   xC9
....................       Motor_on; 
014C8:  BSF    F8B.2
014CA:  BCF    F94.2
....................    }else if(Vel==5){ 
014CC:  BRA    153C
014CE:  MOVF   xD3,W
014D0:  SUBLW  05
014D2:  BNZ   14E2
....................       Porcentaje=15; 
014D4:  MOVLW  0F
014D6:  MOVWF  xC9
....................       retardo=2000; 
014D8:  MOVLW  07
014DA:  MOVWF  xC2
014DC:  MOVLW  D0
014DE:  MOVWF  xC1
....................    }else if(Vel==4){ 
014E0:  BRA    153C
014E2:  MOVF   xD3,W
014E4:  SUBLW  04
014E6:  BNZ   14F6
....................       Porcentaje=25; 
014E8:  MOVLW  19
014EA:  MOVWF  xC9
....................       retardo=3000; 
014EC:  MOVLW  0B
014EE:  MOVWF  xC2
014F0:  MOVLW  B8
014F2:  MOVWF  xC1
....................    }else if(Vel==3){ 
014F4:  BRA    153C
014F6:  MOVF   xD3,W
014F8:  SUBLW  03
014FA:  BNZ   150A
....................       Porcentaje=35; 
014FC:  MOVLW  23
014FE:  MOVWF  xC9
....................       retardo=3600; 
01500:  MOVLW  0E
01502:  MOVWF  xC2
01504:  MOVLW  10
01506:  MOVWF  xC1
....................    }else if(Vel==2){ 
01508:  BRA    153C
0150A:  MOVF   xD3,W
0150C:  SUBLW  02
0150E:  BNZ   151E
....................       Porcentaje=45; 
01510:  MOVLW  2D
01512:  MOVWF  xC9
....................       retardo=4300; 
01514:  MOVLW  10
01516:  MOVWF  xC2
01518:  MOVLW  CC
0151A:  MOVWF  xC1
....................    }else if(Vel==1){ 
0151C:  BRA    153C
0151E:  DECFSZ xD3,W
01520:  BRA    1530
....................       Porcentaje=50; 
01522:  MOVLW  32
01524:  MOVWF  xC9
....................       retardo=5000; 
01526:  MOVLW  13
01528:  MOVWF  xC2
0152A:  MOVLW  88
0152C:  MOVWF  xC1
....................    }else if(Vel==0){ 
0152E:  BRA    153C
01530:  MOVF   xD3,F
01532:  BNZ   153C
....................       Porcentaje=100; 
01534:  MOVLW  64
01536:  MOVWF  xC9
....................       Motor_off; 
01538:  BCF    F8B.2
0153A:  BCF    F94.2
....................    } 
.................... } 
0153C:  MOVLB  0
0153E:  RETLW  00
....................  
.................... short PidePassword(int8 MenuAnt, int8 MenuActual, int8 MenuPost, int8 clave0,int8 clave1, int8 clave2,int8 clave3){ 
....................       if(n==0) 
*
04CD2:  MOVLB  4
04CD4:  BTFSC  x2E.3
04CD6:  BRA    4D6E
....................       { 
....................          displayContrasena(Contrasena[0],20,30,1);displayContrasena(Contrasena[1],40,30,0); 
04CD8:  MOVFF  4FF,5DD
04CDC:  MOVLW  14
04CDE:  MOVLB  5
04CE0:  MOVWF  xDE
04CE2:  MOVLW  1E
04CE4:  MOVWF  xDF
04CE6:  MOVLW  01
04CE8:  MOVWF  xE0
04CEA:  MOVLB  0
04CEC:  RCALL  4B4E
04CEE:  MOVFF  500,5DD
04CF2:  MOVLW  28
04CF4:  MOVLB  5
04CF6:  MOVWF  xDE
04CF8:  MOVLW  1E
04CFA:  MOVWF  xDF
04CFC:  CLRF   xE0
04CFE:  MOVLB  0
04D00:  RCALL  4B4E
....................          displayContrasena(Contrasena[2],60,30,0);displayContrasena(Contrasena[0],80,30,0); 
04D02:  MOVFF  501,5DD
04D06:  MOVLW  3C
04D08:  MOVLB  5
04D0A:  MOVWF  xDE
04D0C:  MOVLW  1E
04D0E:  MOVWF  xDF
04D10:  CLRF   xE0
04D12:  MOVLB  0
04D14:  RCALL  4B4E
04D16:  MOVFF  4FF,5DD
04D1A:  MOVLW  50
04D1C:  MOVLB  5
04D1E:  MOVWF  xDE
04D20:  MOVLW  1E
04D22:  MOVWF  xDF
04D24:  CLRF   xE0
04D26:  MOVLB  0
04D28:  RCALL  4B4E
....................          strcpy(Menus.Letra,"Clave"); 
04D2A:  MOVLW  04
04D2C:  MOVWF  FEA
04D2E:  MOVLW  16
04D30:  MOVWF  FE9
04D32:  MOVFF  FF2,5DB
04D36:  BCF    FF2.7
04D38:  MOVLW  00
04D3A:  CALL   0EEE
04D3E:  TBLRD*-
04D40:  TBLRD*+
04D42:  MOVF   FF5,W
04D44:  MOVWF  FEE
04D46:  IORLW  00
04D48:  BNZ   4D40
04D4A:  MOVLB  5
04D4C:  BTFSC  xDB.7
04D4E:  BSF    FF2.7
....................          displayMenu(Menus.Letra,20,0,1,3); 
04D50:  MOVLW  04
04D52:  MOVWF  xDC
04D54:  MOVLW  16
04D56:  MOVWF  xDB
04D58:  MOVLW  14
04D5A:  MOVWF  xDD
04D5C:  CLRF   xDE
04D5E:  MOVLW  01
04D60:  MOVWF  xDF
04D62:  MOVLW  03
04D64:  MOVWF  xE0
04D66:  MOVLB  0
04D68:  RCALL  4C06
....................          n=1; 
04D6A:  MOVLB  4
04D6C:  BSF    x2E.3
....................       } 
....................        
....................       if(UP){ 
04D6E:  BSF    F92.5
04D70:  BTFSC  F80.5
04D72:  BRA    4E4E
....................          flag_latencia=0;t_latencia=0; 
04D74:  BCF    x2D.7
04D76:  CLRF   xDC
04D78:  CLRF   xDB
....................          if(Flanco == 0){ 
04D7A:  BTFSC  x2C.0
04D7C:  BRA    4E4C
....................             Flanco = 1;delay_ms(5); 
04D7E:  BSF    x2C.0
04D80:  MOVLW  05
04D82:  MOVLB  5
04D84:  MOVWF  xE7
04D86:  MOVLB  0
04D88:  CALL   1496
....................             for(i=1;i<=4;i++){ 
04D8C:  MOVLW  01
04D8E:  MOVLB  5
04D90:  MOVWF  xC3
04D92:  MOVF   xC3,W
04D94:  SUBLW  04
04D96:  BNC   4E4A
....................                if(unidad==i){ 
04D98:  MOVF   xC3,W
04D9A:  MOVLB  4
04D9C:  SUBWF  xC8,W
04D9E:  BNZ   4E14
....................                   Contrasena[i-1]++; 
04DA0:  MOVLW  01
04DA2:  MOVLB  5
04DA4:  SUBWF  xC3,W
04DA6:  CLRF   03
04DA8:  ADDLW  FF
04DAA:  MOVWF  FE9
04DAC:  MOVLW  04
04DAE:  ADDWFC 03,W
04DB0:  MOVWF  FEA
04DB2:  INCF   FEF,F
....................                   if(Contrasena[i-1]>9){ 
04DB4:  MOVLW  01
04DB6:  SUBWF  xC3,W
04DB8:  CLRF   03
04DBA:  ADDLW  FF
04DBC:  MOVWF  FE9
04DBE:  MOVLW  04
04DC0:  ADDWFC 03,W
04DC2:  MOVWF  FEA
04DC4:  BTFSC  FEF.7
04DC6:  BRA    4DE0
04DC8:  MOVF   FEF,W
04DCA:  SUBLW  09
04DCC:  BC    4DE0
....................                      Contrasena[i-1]=0; 
04DCE:  MOVLW  01
04DD0:  SUBWF  xC3,W
04DD2:  CLRF   03
04DD4:  ADDLW  FF
04DD6:  MOVWF  FE9
04DD8:  MOVLW  04
04DDA:  ADDWFC 03,W
04DDC:  MOVWF  FEA
04DDE:  CLRF   FEF
....................                   } 
....................                   displayContrasena(Contrasena[i-1],i*20,30,1); 
04DE0:  MOVLW  01
04DE2:  SUBWF  xC3,W
04DE4:  CLRF   03
04DE6:  ADDLW  FF
04DE8:  MOVWF  FE9
04DEA:  MOVLW  04
04DEC:  ADDWFC 03,W
04DEE:  MOVWF  FEA
04DF0:  MOVFF  FEF,5DB
04DF4:  MOVF   xC3,W
04DF6:  MULLW  14
04DF8:  MOVFF  FF3,5DC
04DFC:  MOVFF  5DB,5DD
04E00:  MOVFF  5DC,5DE
04E04:  MOVLW  1E
04E06:  MOVWF  xDF
04E08:  MOVLW  01
04E0A:  MOVWF  xE0
04E0C:  MOVLB  0
04E0E:  RCALL  4B4E
....................                }else{ 
04E10:  BRA    4E44
04E12:  MOVLB  4
....................                   displayContrasena(Contrasena[i-1],i*20,30,0); 
04E14:  MOVLW  01
04E16:  MOVLB  5
04E18:  SUBWF  xC3,W
04E1A:  CLRF   03
04E1C:  ADDLW  FF
04E1E:  MOVWF  FE9
04E20:  MOVLW  04
04E22:  ADDWFC 03,W
04E24:  MOVWF  FEA
04E26:  MOVFF  FEF,5DB
04E2A:  MOVF   xC3,W
04E2C:  MULLW  14
04E2E:  MOVFF  FF3,5DC
04E32:  MOVFF  5DB,5DD
04E36:  MOVFF  5DC,5DE
04E3A:  MOVLW  1E
04E3C:  MOVWF  xDF
04E3E:  CLRF   xE0
04E40:  MOVLB  0
04E42:  RCALL  4B4E
....................                } 
....................             } 
04E44:  MOVLB  5
04E46:  INCF   xC3,F
04E48:  BRA    4D92
04E4A:  MOVLB  4
....................          } 
....................       }else{ 
04E4C:  BRA    4E50
....................          Flanco = 0; 
04E4E:  BCF    x2C.0
....................       } 
....................              
....................       if(DOWN){ 
04E50:  BSF    F96.0
04E52:  BTFSC  F84.0
04E54:  BRA    4F2E
....................          flag_latencia=0;t_latencia=0; 
04E56:  BCF    x2D.7
04E58:  CLRF   xDC
04E5A:  CLRF   xDB
....................          if(Flanco2 == 0){ 
04E5C:  BTFSC  x2C.2
04E5E:  BRA    4F2C
....................             Flanco2 = 1;delay_ms(5); 
04E60:  BSF    x2C.2
04E62:  MOVLW  05
04E64:  MOVLB  5
04E66:  MOVWF  xE7
04E68:  MOVLB  0
04E6A:  CALL   1496
....................             for(i=1;i<=4;i++){ 
04E6E:  MOVLW  01
04E70:  MOVLB  5
04E72:  MOVWF  xC3
04E74:  MOVF   xC3,W
04E76:  SUBLW  04
04E78:  BNC   4F2A
....................                if(unidad==i){ 
04E7A:  MOVF   xC3,W
04E7C:  MOVLB  4
04E7E:  SUBWF  xC8,W
04E80:  BNZ   4EF4
....................                   Contrasena[i-1]--; 
04E82:  MOVLW  01
04E84:  MOVLB  5
04E86:  SUBWF  xC3,W
04E88:  CLRF   03
04E8A:  ADDLW  FF
04E8C:  MOVWF  FE9
04E8E:  MOVLW  04
04E90:  ADDWFC 03,W
04E92:  MOVWF  FEA
04E94:  DECF   FEF,F
....................                   if(Contrasena[i-1]<0){ 
04E96:  MOVLW  01
04E98:  SUBWF  xC3,W
04E9A:  CLRF   03
04E9C:  ADDLW  FF
04E9E:  MOVWF  FE9
04EA0:  MOVLW  04
04EA2:  ADDWFC 03,W
04EA4:  MOVWF  FEA
04EA6:  BTFSC  FEF.7
04EA8:  BRA    4EAC
04EAA:  BRA    4EC0
....................                      Contrasena[i-1]=9; 
04EAC:  MOVLW  01
04EAE:  SUBWF  xC3,W
04EB0:  CLRF   03
04EB2:  ADDLW  FF
04EB4:  MOVWF  FE9
04EB6:  MOVLW  04
04EB8:  ADDWFC 03,W
04EBA:  MOVWF  FEA
04EBC:  MOVLW  09
04EBE:  MOVWF  FEF
....................                   } 
....................                   displayContrasena(Contrasena[i-1],i*20,30,1); 
04EC0:  MOVLW  01
04EC2:  SUBWF  xC3,W
04EC4:  CLRF   03
04EC6:  ADDLW  FF
04EC8:  MOVWF  FE9
04ECA:  MOVLW  04
04ECC:  ADDWFC 03,W
04ECE:  MOVWF  FEA
04ED0:  MOVFF  FEF,5DB
04ED4:  MOVF   xC3,W
04ED6:  MULLW  14
04ED8:  MOVFF  FF3,5DC
04EDC:  MOVFF  5DB,5DD
04EE0:  MOVFF  5DC,5DE
04EE4:  MOVLW  1E
04EE6:  MOVWF  xDF
04EE8:  MOVLW  01
04EEA:  MOVWF  xE0
04EEC:  MOVLB  0
04EEE:  RCALL  4B4E
....................                }else{ 
04EF0:  BRA    4F24
04EF2:  MOVLB  4
....................                   displayContrasena(Contrasena[i-1],i*20,30,0); 
04EF4:  MOVLW  01
04EF6:  MOVLB  5
04EF8:  SUBWF  xC3,W
04EFA:  CLRF   03
04EFC:  ADDLW  FF
04EFE:  MOVWF  FE9
04F00:  MOVLW  04
04F02:  ADDWFC 03,W
04F04:  MOVWF  FEA
04F06:  MOVFF  FEF,5DB
04F0A:  MOVF   xC3,W
04F0C:  MULLW  14
04F0E:  MOVFF  FF3,5DC
04F12:  MOVFF  5DB,5DD
04F16:  MOVFF  5DC,5DE
04F1A:  MOVLW  1E
04F1C:  MOVWF  xDF
04F1E:  CLRF   xE0
04F20:  MOVLB  0
04F22:  RCALL  4B4E
....................                } 
....................             }       
04F24:  MOVLB  5
04F26:  INCF   xC3,F
04F28:  BRA    4E74
04F2A:  MOVLB  4
....................          }      
....................       }else{ 
04F2C:  BRA    4F30
....................          Flanco2 = 0; 
04F2E:  BCF    x2C.2
....................       } 
....................              
....................       if(RIGHT){ 
04F30:  BSF    F96.1
04F32:  BTFSC  F84.1
04F34:  BRA    4FD6
....................          flag_latencia=0;t_latencia=0; 
04F36:  BCF    x2D.7
04F38:  CLRF   xDC
04F3A:  CLRF   xDB
....................          if(Flanco1 == 0){ 
04F3C:  BTFSC  x2C.1
04F3E:  BRA    4FD4
....................             Flanco1 = 1;delay_ms(5);unidad++; 
04F40:  BSF    x2C.1
04F42:  MOVLW  05
04F44:  MOVLB  5
04F46:  MOVWF  xE7
04F48:  MOVLB  0
04F4A:  CALL   1496
04F4E:  MOVLB  4
04F50:  INCF   xC8,F
....................             for(i=1;i<=4;i++){ 
04F52:  MOVLW  01
04F54:  MOVLB  5
04F56:  MOVWF  xC3
04F58:  MOVF   xC3,W
04F5A:  SUBLW  04
04F5C:  BNC   4FD2
....................                if(unidad==i){ 
04F5E:  MOVF   xC3,W
04F60:  MOVLB  4
04F62:  SUBWF  xC8,W
04F64:  BNZ   4F9C
....................                   displayContrasena(Contrasena[i-1],i*20,30,1); 
04F66:  MOVLW  01
04F68:  MOVLB  5
04F6A:  SUBWF  xC3,W
04F6C:  CLRF   03
04F6E:  ADDLW  FF
04F70:  MOVWF  FE9
04F72:  MOVLW  04
04F74:  ADDWFC 03,W
04F76:  MOVWF  FEA
04F78:  MOVFF  FEF,5DB
04F7C:  MOVF   xC3,W
04F7E:  MULLW  14
04F80:  MOVFF  FF3,5DC
04F84:  MOVFF  5DB,5DD
04F88:  MOVFF  5DC,5DE
04F8C:  MOVLW  1E
04F8E:  MOVWF  xDF
04F90:  MOVLW  01
04F92:  MOVWF  xE0
04F94:  MOVLB  0
04F96:  RCALL  4B4E
....................                }else{ 
04F98:  BRA    4FCC
04F9A:  MOVLB  4
....................                   displayContrasena(Contrasena[i-1],i*20,30,0); 
04F9C:  MOVLW  01
04F9E:  MOVLB  5
04FA0:  SUBWF  xC3,W
04FA2:  CLRF   03
04FA4:  ADDLW  FF
04FA6:  MOVWF  FE9
04FA8:  MOVLW  04
04FAA:  ADDWFC 03,W
04FAC:  MOVWF  FEA
04FAE:  MOVFF  FEF,5DB
04FB2:  MOVF   xC3,W
04FB4:  MULLW  14
04FB6:  MOVFF  FF3,5DC
04FBA:  MOVFF  5DB,5DD
04FBE:  MOVFF  5DC,5DE
04FC2:  MOVLW  1E
04FC4:  MOVWF  xDF
04FC6:  CLRF   xE0
04FC8:  MOVLB  0
04FCA:  RCALL  4B4E
....................                } 
....................             } 
04FCC:  MOVLB  5
04FCE:  INCF   xC3,F
04FD0:  BRA    4F58
04FD2:  MOVLB  4
....................          } 
....................       }else{ 
04FD4:  BRA    4FD8
....................          Flanco1 = 0; 
04FD6:  BCF    x2C.1
....................       } 
....................        
....................       if(LEFT){ 
04FD8:  BSF    F96.2
04FDA:  BTFSC  F84.2
04FDC:  BRA    5026
....................          delay_ms(100); 
04FDE:  MOVLW  64
04FE0:  MOVLB  5
04FE2:  MOVWF  xE7
04FE4:  MOVLB  0
04FE6:  CALL   1496
....................          if(LEFT){ 
04FEA:  BSF    F96.2
04FEC:  BTFSC  F84.2
04FEE:  BRA    5024
....................             Menu=MenuAnt;glcd_fillScreen(OFF);n=0;Opcion=1;unidad=1; 
04FF0:  MOVFF  5D4,4C7
04FF4:  MOVLB  5
04FF6:  CLRF   xDB
04FF8:  MOVLB  0
04FFA:  CALL   1576
04FFE:  MOVLB  4
05000:  BCF    x2E.3
05002:  MOVLW  01
05004:  MOVWF  xC9
05006:  MOVWF  xC8
....................             Contrasena[0]=0;Contrasena[1]=0;Contrasena[2]=0;Contrasena[3]=0; 
05008:  CLRF   xFF
0500A:  MOVLB  5
0500C:  CLRF   x00
0500E:  CLRF   x01
05010:  CLRF   x02
....................             glcd_fillScreen(OFF);glcd_update(); 
05012:  CLRF   xDB
05014:  MOVLB  0
05016:  CALL   1576
0501A:  CALL   15D0
....................             return 1; 
0501E:  MOVLW  01
05020:  MOVWF  01
05022:  BRA    53E2
05024:  MOVLB  4
....................          } 
....................       } 
....................      
....................       if(unidad>4){ 
05026:  MOVF   xC8,W
05028:  SUBLW  04
0502A:  BTFSC  FD8.0
0502C:  BRA    53E4
....................          glcd_fillScreen(OFF);unidad=1;flag_latencia=0;t_latencia=0; 
0502E:  MOVLB  5
05030:  CLRF   xDB
05032:  MOVLB  0
05034:  CALL   1576
05038:  MOVLW  01
0503A:  MOVLB  4
0503C:  MOVWF  xC8
0503E:  BCF    x2D.7
05040:  CLRF   xDC
05042:  CLRF   xDB
....................           
....................          if(Contrasena[0]==3&&Contrasena[1]==8&&Contrasena[2]==9&&Contrasena[3]==2 && MenuActual==0){ // Si Ingresa clave para reset general del sistema. 
05044:  MOVF   xFF,W
05046:  SUBLW  03
05048:  BTFSS  FD8.2
0504A:  BRA    5154
0504C:  MOVLB  5
0504E:  MOVF   x00,W
05050:  SUBLW  08
05052:  BTFSC  FD8.2
05054:  BRA    505A
05056:  MOVLB  4
05058:  BRA    5154
0505A:  MOVF   x01,W
0505C:  SUBLW  09
0505E:  BTFSC  FD8.2
05060:  BRA    5066
05062:  MOVLB  4
05064:  BRA    5154
05066:  MOVF   x02,W
05068:  SUBLW  02
0506A:  BTFSC  FD8.2
0506C:  BRA    5072
0506E:  MOVLB  4
05070:  BRA    5154
05072:  MOVF   xD5,F
05074:  BTFSC  FD8.2
05076:  BRA    507C
05078:  MOVLB  4
0507A:  BRA    5154
....................             write_eeprom(0,0);delay_ms(20);write_eeprom(1,0);delay_ms(20);// Reestablece a contrasea de Fabrica y reinicia Programa. 
0507C:  CLRF   FAA
0507E:  CLRF   FA9
05080:  CLRF   FA8
05082:  BCF    FA6.6
05084:  BCF    FA6.7
05086:  BSF    FA6.2
05088:  MOVF   FF2,W
0508A:  MOVWF  00
0508C:  BCF    FF2.7
0508E:  MOVLB  F
05090:  MOVLW  55
05092:  MOVWF  FA7
05094:  MOVLW  AA
05096:  MOVWF  FA7
05098:  BSF    FA6.1
0509A:  BTFSC  FA6.1
0509C:  BRA    509A
0509E:  BCF    FA6.2
050A0:  MOVF   00,W
050A2:  IORWF  FF2,F
050A4:  MOVLW  14
050A6:  MOVLB  5
050A8:  MOVWF  xE7
050AA:  MOVLB  0
050AC:  CALL   1496
050B0:  CLRF   FAA
050B2:  MOVLW  01
050B4:  MOVWF  FA9
050B6:  CLRF   FA8
050B8:  BCF    FA6.6
050BA:  BCF    FA6.7
050BC:  BSF    FA6.2
050BE:  MOVF   FF2,W
050C0:  MOVWF  00
050C2:  BCF    FF2.7
050C4:  MOVLB  F
050C6:  MOVLW  55
050C8:  MOVWF  FA7
050CA:  MOVLW  AA
050CC:  MOVWF  FA7
050CE:  BSF    FA6.1
050D0:  BTFSC  FA6.1
050D2:  BRA    50D0
050D4:  BCF    FA6.2
050D6:  MOVF   00,W
050D8:  IORWF  FF2,F
050DA:  MOVLW  14
050DC:  MOVLB  5
050DE:  MOVWF  xE7
050E0:  MOVLB  0
050E2:  CALL   1496
....................             write_eeprom(2,0);delay_ms(20);write_eeprom(3,0);delay_ms(20); 
050E6:  CLRF   FAA
050E8:  MOVLW  02
050EA:  MOVWF  FA9
050EC:  CLRF   FA8
050EE:  BCF    FA6.6
050F0:  BCF    FA6.7
050F2:  BSF    FA6.2
050F4:  MOVF   FF2,W
050F6:  MOVWF  00
050F8:  BCF    FF2.7
050FA:  MOVLB  F
050FC:  MOVLW  55
050FE:  MOVWF  FA7
05100:  MOVLW  AA
05102:  MOVWF  FA7
05104:  BSF    FA6.1
05106:  BTFSC  FA6.1
05108:  BRA    5106
0510A:  BCF    FA6.2
0510C:  MOVF   00,W
0510E:  IORWF  FF2,F
05110:  MOVLW  14
05112:  MOVLB  5
05114:  MOVWF  xE7
05116:  MOVLB  0
05118:  CALL   1496
0511C:  CLRF   FAA
0511E:  MOVLW  03
05120:  MOVWF  FA9
05122:  CLRF   FA8
05124:  BCF    FA6.6
05126:  BCF    FA6.7
05128:  BSF    FA6.2
0512A:  MOVF   FF2,W
0512C:  MOVWF  00
0512E:  BCF    FF2.7
05130:  MOVLB  F
05132:  MOVLW  55
05134:  MOVWF  FA7
05136:  MOVLW  AA
05138:  MOVWF  FA7
0513A:  BSF    FA6.1
0513C:  BTFSC  FA6.1
0513E:  BRA    513C
05140:  BCF    FA6.2
05142:  MOVF   00,W
05144:  IORWF  FF2,F
05146:  MOVLW  14
05148:  MOVLB  5
0514A:  MOVWF  xE7
0514C:  MOVLB  0
0514E:  CALL   1496
....................             reset_cpu(); 
05152:  RESET
....................          } 
....................        
....................          if((Contrasena[0]==clave0)&&(Contrasena[1]==clave1)&&(Contrasena[2]==clave2)&&(Contrasena[3]==clave3)){ 
05154:  MOVLB  5
05156:  MOVF   xD7,W
05158:  MOVLB  4
0515A:  SUBWF  xFF,W
0515C:  BTFSS  FD8.2
0515E:  BRA    5256
05160:  MOVLB  5
05162:  MOVF   xD8,W
05164:  SUBWF  x00,W
05166:  BTFSC  FD8.2
05168:  BRA    516E
0516A:  MOVLB  4
0516C:  BRA    5256
0516E:  MOVF   xD9,W
05170:  SUBWF  x01,W
05172:  BTFSC  FD8.2
05174:  BRA    517A
05176:  MOVLB  4
05178:  BRA    5256
0517A:  MOVF   xDA,W
0517C:  SUBWF  x02,W
0517E:  BTFSC  FD8.2
05180:  BRA    5186
05182:  MOVLB  4
05184:  BRA    5256
....................             glcd_fillScreen(OFF); 
05186:  CLRF   xDB
05188:  MOVLB  0
0518A:  CALL   1576
....................             strcpy(Menus.Letra,"Clave"); 
0518E:  MOVLW  04
05190:  MOVWF  FEA
05192:  MOVLW  16
05194:  MOVWF  FE9
05196:  MOVFF  FF2,5DB
0519A:  BCF    FF2.7
0519C:  MOVLW  00
0519E:  CALL   0EEE
051A2:  TBLRD*-
051A4:  TBLRD*+
051A6:  MOVF   FF5,W
051A8:  MOVWF  FEE
051AA:  IORLW  00
051AC:  BNZ   51A4
051AE:  MOVLB  5
051B0:  BTFSC  xDB.7
051B2:  BSF    FF2.7
....................             displayMenu(Menus.Letra,30,0,0,2); 
051B4:  MOVLW  04
051B6:  MOVWF  xDC
051B8:  MOVLW  16
051BA:  MOVWF  xDB
051BC:  MOVLW  1E
051BE:  MOVWF  xDD
051C0:  CLRF   xDE
051C2:  CLRF   xDF
051C4:  MOVLW  02
051C6:  MOVWF  xE0
051C8:  MOVLB  0
051CA:  RCALL  4C06
....................             strcpy(Menus.Letra,"Correcta"); 
051CC:  MOVLW  04
051CE:  MOVWF  FEA
051D0:  MOVLW  16
051D2:  MOVWF  FE9
051D4:  MOVFF  FF2,5DB
051D8:  BCF    FF2.7
051DA:  MOVLW  00
051DC:  CALL   0F0E
051E0:  TBLRD*-
051E2:  TBLRD*+
051E4:  MOVF   FF5,W
051E6:  MOVWF  FEE
051E8:  IORLW  00
051EA:  BNZ   51E2
051EC:  MOVLB  5
051EE:  BTFSC  xDB.7
051F0:  BSF    FF2.7
....................             displayMenu(Menus.Letra,15,30,0,2); 
051F2:  MOVLW  04
051F4:  MOVWF  xDC
051F6:  MOVLW  16
051F8:  MOVWF  xDB
051FA:  MOVLW  0F
051FC:  MOVWF  xDD
051FE:  MOVLW  1E
05200:  MOVWF  xDE
05202:  CLRF   xDF
05204:  MOVLW  02
05206:  MOVWF  xE0
05208:  MOVLB  0
0520A:  RCALL  4C06
....................             Menu=MenuPost;glcd_update();delay_ms(1000);glcd_fillScreen(OFF); 
0520C:  MOVFF  5D6,4C7
05210:  CALL   15D0
05214:  MOVLW  04
05216:  MOVLB  5
05218:  MOVWF  xDB
0521A:  MOVLW  FA
0521C:  MOVWF  xE7
0521E:  MOVLB  0
05220:  CALL   1496
05224:  MOVLB  5
05226:  DECFSZ xDB,F
05228:  BRA    521A
0522A:  CLRF   xDB
0522C:  MOVLB  0
0522E:  CALL   1576
....................             Contrasena[0]=0;Contrasena[1]=0;Contrasena[2]=0;Contrasena[3]=0; 
05232:  MOVLB  4
05234:  CLRF   xFF
05236:  MOVLB  5
05238:  CLRF   x00
0523A:  CLRF   x01
0523C:  CLRF   x02
....................             if(MenuActual==0)tiempo_purga=1;n=0; 
0523E:  MOVF   xD5,F
05240:  BNZ   5246
05242:  MOVLB  4
05244:  BSF    x2D.5
05246:  MOVLB  4
05248:  BCF    x2E.3
....................             return 1; 
0524A:  MOVLW  01
0524C:  MOVWF  01
0524E:  MOVLB  0
05250:  BRA    53E2
....................          }else{ 
05252:  BRA    53E2
05254:  MOVLB  4
....................             glcd_fillScreen(OFF); 
05256:  MOVLB  5
05258:  CLRF   xDB
0525A:  MOVLB  0
0525C:  CALL   1576
....................             strcpy(Menus.Letra,"Clave"); 
05260:  MOVLW  04
05262:  MOVWF  FEA
05264:  MOVLW  16
05266:  MOVWF  FE9
05268:  MOVFF  FF2,5DB
0526C:  BCF    FF2.7
0526E:  MOVLW  00
05270:  CALL   0EEE
05274:  TBLRD*-
05276:  TBLRD*+
05278:  MOVF   FF5,W
0527A:  MOVWF  FEE
0527C:  IORLW  00
0527E:  BNZ   5276
05280:  MOVLB  5
05282:  BTFSC  xDB.7
05284:  BSF    FF2.7
....................             displayMenu(Menus.Letra,30,0,0,2); 
05286:  MOVLW  04
05288:  MOVWF  xDC
0528A:  MOVLW  16
0528C:  MOVWF  xDB
0528E:  MOVLW  1E
05290:  MOVWF  xDD
05292:  CLRF   xDE
05294:  CLRF   xDF
05296:  MOVLW  02
05298:  MOVWF  xE0
0529A:  MOVLB  0
0529C:  RCALL  4C06
....................             strcpy(Menus.Letra,"Incorrecta"); 
0529E:  MOVLW  04
052A0:  MOVWF  FEA
052A2:  MOVLW  16
052A4:  MOVWF  FE9
052A6:  MOVFF  FF2,5DB
052AA:  BCF    FF2.7
052AC:  MOVLW  00
052AE:  CALL   0F32
052B2:  TBLRD*-
052B4:  TBLRD*+
052B6:  MOVF   FF5,W
052B8:  MOVWF  FEE
052BA:  IORLW  00
052BC:  BNZ   52B4
052BE:  MOVLB  5
052C0:  BTFSC  xDB.7
052C2:  BSF    FF2.7
....................             displayMenu(Menus.Letra,0,30,0,2); 
052C4:  MOVLW  04
052C6:  MOVWF  xDC
052C8:  MOVLW  16
052CA:  MOVWF  xDB
052CC:  CLRF   xDD
052CE:  MOVLW  1E
052D0:  MOVWF  xDE
052D2:  CLRF   xDF
052D4:  MOVLW  02
052D6:  MOVWF  xE0
052D8:  MOVLB  0
052DA:  RCALL  4C06
....................             unidad=1;glcd_update();delay_ms(1000);Contrasena[0]=0;Contrasena[1]=0;Contrasena[2]=0;Contrasena[3]=0;glcd_fillScreen(OFF); 
052DC:  MOVLW  01
052DE:  MOVLB  4
052E0:  MOVWF  xC8
052E2:  MOVLB  0
052E4:  CALL   15D0
052E8:  MOVLW  04
052EA:  MOVLB  5
052EC:  MOVWF  xDB
052EE:  MOVLW  FA
052F0:  MOVWF  xE7
052F2:  MOVLB  0
052F4:  CALL   1496
052F8:  MOVLB  5
052FA:  DECFSZ xDB,F
052FC:  BRA    52EE
052FE:  MOVLB  4
05300:  CLRF   xFF
05302:  MOVLB  5
05304:  CLRF   x00
05306:  CLRF   x01
05308:  CLRF   x02
0530A:  CLRF   xDB
0530C:  MOVLB  0
0530E:  CALL   1576
....................             glcd_rect(0, 0, 127, 25, YES, ON);strcpy(Menus.Letra,"Clave");glcd_text57(25, 1, Menus.Letra, 3, OFF);displayContrasena(Contrasena[0],20,30,1); 
05312:  MOVLB  5
05314:  CLRF   xEC
05316:  CLRF   xED
05318:  MOVLW  7F
0531A:  MOVWF  xEE
0531C:  MOVLW  19
0531E:  MOVWF  xEF
05320:  MOVLW  01
05322:  MOVWF  xF0
05324:  MOVWF  xF1
05326:  MOVLB  0
05328:  CALL   48D2
0532C:  MOVLW  04
0532E:  MOVWF  FEA
05330:  MOVLW  16
05332:  MOVWF  FE9
05334:  MOVFF  FF2,5DB
05338:  BCF    FF2.7
0533A:  MOVLW  00
0533C:  CALL   0EEE
05340:  TBLRD*-
05342:  TBLRD*+
05344:  MOVF   FF5,W
05346:  MOVWF  FEE
05348:  IORLW  00
0534A:  BNZ   5342
0534C:  MOVLB  5
0534E:  BTFSC  xDB.7
05350:  BSF    FF2.7
05352:  MOVLW  19
05354:  MOVWF  xEC
05356:  MOVLW  01
05358:  MOVWF  xED
0535A:  MOVLW  04
0535C:  MOVWF  xEF
0535E:  MOVLW  16
05360:  MOVWF  xEE
05362:  MOVLW  03
05364:  MOVWF  xF0
05366:  CLRF   xF1
05368:  MOVLB  0
0536A:  CALL   4994
0536E:  MOVFF  4FF,5DD
05372:  MOVLW  14
05374:  MOVLB  5
05376:  MOVWF  xDE
05378:  MOVLW  1E
0537A:  MOVWF  xDF
0537C:  MOVLW  01
0537E:  MOVWF  xE0
05380:  MOVLB  0
05382:  CALL   4B4E
....................             displayContrasena(Contrasena[1],40,30,0);displayContrasena(Contrasena[2],60,30,0);displayContrasena(Contrasena[0],80,30,0); 
05386:  MOVFF  500,5DD
0538A:  MOVLW  28
0538C:  MOVLB  5
0538E:  MOVWF  xDE
05390:  MOVLW  1E
05392:  MOVWF  xDF
05394:  CLRF   xE0
05396:  MOVLB  0
05398:  CALL   4B4E
0539C:  MOVFF  501,5DD
053A0:  MOVLW  3C
053A2:  MOVLB  5
053A4:  MOVWF  xDE
053A6:  MOVLW  1E
053A8:  MOVWF  xDF
053AA:  CLRF   xE0
053AC:  MOVLB  0
053AE:  CALL   4B4E
053B2:  MOVFF  4FF,5DD
053B6:  MOVLW  50
053B8:  MOVLB  5
053BA:  MOVWF  xDE
053BC:  MOVLW  1E
053BE:  MOVWF  xDF
053C0:  CLRF   xE0
053C2:  MOVLB  0
053C4:  CALL   4B4E
....................             Menu=MenuAnt;glcd_fillScreen(OFF);n=0; 
053C8:  MOVFF  5D4,4C7
053CC:  MOVLB  5
053CE:  CLRF   xDB
053D0:  MOVLB  0
053D2:  CALL   1576
053D6:  MOVLB  4
053D8:  BCF    x2E.3
....................             return 0; 
053DA:  MOVLW  00
053DC:  MOVWF  01
053DE:  MOVLB  0
053E0:  BRA    53E2
053E2:  MOVLB  4
....................          } 
....................       } 
.................... } 
053E4:  MOVLB  0
053E6:  RETLW  00
....................  
....................  
.................... #int_EXT            // Interrupcin de encoder para control. 
.................... void ext0() {       // 6 pulsos por vuelta. 
....................    pulsos++; 
*
01398:  MOVLB  5
0139A:  INCF   xBF,F
0139C:  BTFSC  FD8.2
0139E:  INCF   xC0,F
....................    if(pulsos>=120){ 
013A0:  MOVF   xC0,F
013A2:  BNZ   13AA
013A4:  MOVF   xBF,W
013A6:  SUBLW  77
013A8:  BC    143E
....................       pulsos=0; 
013AA:  CLRF   xC0
013AC:  CLRF   xBF
....................       imprimir=1;Lectura=1;tiemporeset++; 
013AE:  MOVLB  4
013B0:  BSF    x2C.6
013B2:  BSF    x2E.2
013B4:  INCF   xCD,F
....................     
....................       if(flag_blower==1) 
013B6:  BTFSS  x2C.7
013B8:  BRA    13C0
....................          minutos_trabajo++;  
013BA:  INCF   xDF,F
013BC:  BTFSC  FD8.2
013BE:  INCF   xE0,F
....................    
....................       if(tiempo_purga==1 || Purga){                   
013C0:  BTFSC  x2D.5
013C2:  BRA    13C8
013C4:  BTFSS  x2E.5
013C6:  BRA    1400
....................          Tpurga[0]++; 
013C8:  INCF   xE3,F
....................          if(Tpurga[0]>9){ 
013CA:  BTFSC  xE3.7
013CC:  BRA    13D8
013CE:  MOVF   xE3,W
013D0:  SUBLW  09
013D2:  BC    13D8
....................             Tpurga[0]=0; 
013D4:  CLRF   xE3
....................             Tpurga[1]++; 
013D6:  INCF   xE4,F
....................          } 
....................          if(Tpurga[1]>5){ 
013D8:  BTFSC  xE4.7
013DA:  BRA    13E6
013DC:  MOVF   xE4,W
013DE:  SUBLW  05
013E0:  BC    13E6
....................             Tpurga[1]=0; 
013E2:  CLRF   xE4
....................             Tpurga[2]++; 
013E4:  INCF   xE5,F
....................          } 
....................          if(Tpurga[2]>9){ 
013E6:  BTFSC  xE5.7
013E8:  BRA    13F4
013EA:  MOVF   xE5,W
013EC:  SUBLW  09
013EE:  BC    13F4
....................             Tpurga[2]=0; 
013F0:  CLRF   xE5
....................             Tpurga[3]++; 
013F2:  INCF   xE6,F
....................          } 
....................          if(Tpurga[3]>5){ 
013F4:  BTFSC  xE6.7
013F6:  BRA    1400
013F8:  MOVF   xE6,W
013FA:  SUBLW  05
013FC:  BC    1400
....................             Tpurga[3]=0; 
013FE:  CLRF   xE6
....................          } 
....................       } 
....................        
....................       if(tiempo_postpurga){ 
01400:  BTFSS  x2E.0
01402:  BRA    143C
....................          Tppurga[0]++; 
01404:  INCF   xEB,F
....................          if(Tppurga[0]>9){ 
01406:  BTFSC  xEB.7
01408:  BRA    1414
0140A:  MOVF   xEB,W
0140C:  SUBLW  09
0140E:  BC    1414
....................             Tppurga[0]=0; 
01410:  CLRF   xEB
....................             Tppurga[1]++; 
01412:  INCF   xEC,F
....................          } 
....................          if(Tppurga[1]>5){   
01414:  BTFSC  xEC.7
01416:  BRA    1422
01418:  MOVF   xEC,W
0141A:  SUBLW  05
0141C:  BC    1422
....................             Tppurga[1]=0; 
0141E:  CLRF   xEC
....................             Tppurga[2]++; 
01420:  INCF   xED,F
....................          } 
....................          if(Tppurga[2]>9){ 
01422:  BTFSC  xED.7
01424:  BRA    1430
01426:  MOVF   xED,W
01428:  SUBLW  09
0142A:  BC    1430
....................             Tppurga[2]=0; 
0142C:  CLRF   xED
....................             Tppurga[3]++; 
0142E:  INCF   xEE,F
....................          } 
....................          if(Tppurga[3]>5){ 
01430:  BTFSC  xEE.7
01432:  BRA    143C
01434:  MOVF   xEE,W
01436:  SUBLW  05
01438:  BC    143C
....................             Tppurga[3]=0; 
0143A:  CLRF   xEE
0143C:  MOVLB  5
....................          } 
....................       } 
....................    } 
....................    tiempocruce=0; 
0143E:  CLRF   xC8
01440:  CLRF   xC7
....................    Cruce=ON; 
01442:  MOVLB  4
01444:  BSF    x2E.4
....................    if(VelMotor<6){ 
01446:  MOVLB  5
01448:  MOVF   xCA,W
0144A:  SUBLW  05
0144C:  BNC   148E
....................       if(VelMotor>0 && Porcentaje<100){ 
0144E:  MOVF   xCA,F
01450:  BZ    148A
01452:  MOVF   xC9,W
01454:  SUBLW  63
01456:  BNC   148A
....................          delay_us(retardo);       
01458:  MOVFF  5C2,618
0145C:  MOVLB  6
0145E:  INCF   x18,F
01460:  DECF   x18,F
01462:  BTFSC  FD8.2
01464:  BRA    1472
01466:  MOVLW  FF
01468:  MOVWF  x19
0146A:  MOVLB  0
0146C:  RCALL  1378
0146E:  MOVLB  6
01470:  BRA    1460
01472:  MOVFF  5C1,619
01476:  MOVLB  0
01478:  RCALL  1378
....................          Motor_on; 
0147A:  BSF    F8B.2
0147C:  BCF    F94.2
....................          delay_us(100);       
0147E:  MOVLW  A6
01480:  MOVWF  00
01482:  DECFSZ 00,F
01484:  BRA    1482
01486:  NOP   
01488:  MOVLB  5
....................       } 
....................       Motor_off; 
0148A:  BCF    F8B.2
0148C:  BCF    F94.2
....................    } 
.................... } 
....................  
0148E:  BCF    FF2.1
01490:  MOVLB  0
01492:  GOTO   0054
.................... void glcd_imagen(int8 x) 
.................... { 
....................    char i,j; 
....................    signed char k;  
....................       
....................    if(x==3){ 
*
054E4:  MOVLB  5
054E6:  MOVF   xD3,W
054E8:  SUBLW  03
054EA:  BNZ   5592
....................    for( i = 0 ; i < 64 ; i ++ ) 
054EC:  CLRF   xD4
054EE:  MOVF   xD4,W
054F0:  SUBLW  3F
054F2:  BNC   5592
....................    {  for( j = 0 ; j < 16 ; j ++) 
054F4:  CLRF   xD5
054F6:  MOVF   xD5,W
054F8:  SUBLW  0F
054FA:  BNC   558E
....................       {  for(k=7;k>-1;k--) 
054FC:  MOVLW  07
054FE:  MOVWF  xD6
05500:  MOVF   xD6,W
05502:  XORLW  80
05504:  SUBLW  7F
05506:  BC    558A
....................          {       
....................             if( bit_test(Bombillo[i][j] ,7-k ))  
05508:  CLRF   xD8
0550A:  MOVFF  5D4,5D7
0550E:  CLRF   xDA
05510:  MOVLW  10
05512:  MOVWF  xD9
05514:  MOVLB  0
05516:  RCALL  54C2
05518:  MOVFF  02,5D8
0551C:  MOVFF  01,5D7
05520:  MOVLB  5
05522:  MOVF   xD5,W
05524:  ADDWF  01,W
05526:  MOVWF  01
05528:  MOVLW  00
0552A:  ADDWFC 02,W
0552C:  MOVWF  03
0552E:  MOVF   01,W
05530:  MOVFF  FF2,5D7
05534:  BCF    FF2.7
05536:  MOVFF  03,FF7
0553A:  MOVLB  0
0553C:  CALL   02A6
05540:  MOVLB  5
05542:  BTFSC  xD7.7
05544:  BSF    FF2.7
05546:  MOVWF  xD7
05548:  MOVLW  07
0554A:  BSF    FD8.0
0554C:  SUBFWB xD6,W
0554E:  MOVWF  xD8
05550:  MOVFF  5D7,00
05554:  MOVF   xD8,W
05556:  MOVWF  01
05558:  BZ    5562
0555A:  BCF    FD8.0
0555C:  RRCF   00,F
0555E:  DECFSZ 01,F
05560:  BRA    555A
05562:  BTFSS  00.0
05564:  BRA    5586
....................                glcd_pixel( j*8+k,i, ON ); 
05566:  MOVF   xD5,W
05568:  MULLW  08
0556A:  MOVF   FF3,W
0556C:  ADDWF  xD6,W
0556E:  MOVWF  xD7
05570:  MOVFF  FE8,607
05574:  MOVFF  5D4,608
05578:  MOVLW  01
0557A:  MOVLB  6
0557C:  MOVWF  x09
0557E:  MOVLB  0
05580:  CALL   467A
05584:  MOVLB  5
....................          }   
05586:  DECF   xD6,F
05588:  BRA    5500
....................       } 
0558A:  INCF   xD5,F
0558C:  BRA    54F6
....................    } 
0558E:  INCF   xD4,F
05590:  BRA    54EE
....................    } 
....................     
....................    if(x==4){ 
05592:  MOVF   xD3,W
05594:  SUBLW  04
05596:  BNZ   563E
....................    for( i = 0 ; i < 64 ; i ++ ) 
05598:  CLRF   xD4
0559A:  MOVF   xD4,W
0559C:  SUBLW  3F
0559E:  BNC   563E
....................    {  for( j = 0 ; j < 16 ; j ++) 
055A0:  CLRF   xD5
055A2:  MOVF   xD5,W
055A4:  SUBLW  0F
055A6:  BNC   563A
....................       {  for(k=7;k>-1;k--) 
055A8:  MOVLW  07
055AA:  MOVWF  xD6
055AC:  MOVF   xD6,W
055AE:  XORLW  80
055B0:  SUBLW  7F
055B2:  BC    5636
....................          {       
....................             if( bit_test(Tomai[i][j] ,7-k ))  
055B4:  CLRF   xD8
055B6:  MOVFF  5D4,5D7
055BA:  CLRF   xDA
055BC:  MOVLW  10
055BE:  MOVWF  xD9
055C0:  MOVLB  0
055C2:  RCALL  54C2
055C4:  MOVFF  02,5D8
055C8:  MOVFF  01,5D7
055CC:  MOVLB  5
055CE:  MOVF   xD5,W
055D0:  ADDWF  01,W
055D2:  MOVWF  01
055D4:  MOVLW  00
055D6:  ADDWFC 02,W
055D8:  MOVWF  03
055DA:  MOVF   01,W
055DC:  MOVFF  FF2,5D7
055E0:  BCF    FF2.7
055E2:  MOVFF  03,FF7
055E6:  MOVLB  0
055E8:  CALL   06BE
055EC:  MOVLB  5
055EE:  BTFSC  xD7.7
055F0:  BSF    FF2.7
055F2:  MOVWF  xD7
055F4:  MOVLW  07
055F6:  BSF    FD8.0
055F8:  SUBFWB xD6,W
055FA:  MOVWF  xD8
055FC:  MOVFF  5D7,00
05600:  MOVF   xD8,W
05602:  MOVWF  01
05604:  BZ    560E
05606:  BCF    FD8.0
05608:  RRCF   00,F
0560A:  DECFSZ 01,F
0560C:  BRA    5606
0560E:  BTFSS  00.0
05610:  BRA    5632
....................                glcd_pixel( j*8+k,i, ON ); 
05612:  MOVF   xD5,W
05614:  MULLW  08
05616:  MOVF   FF3,W
05618:  ADDWF  xD6,W
0561A:  MOVWF  xD7
0561C:  MOVFF  FE8,607
05620:  MOVFF  5D4,608
05624:  MOVLW  01
05626:  MOVLB  6
05628:  MOVWF  x09
0562A:  MOVLB  0
0562C:  CALL   467A
05630:  MOVLB  5
....................          }   
05632:  DECF   xD6,F
05634:  BRA    55AC
....................       } 
05636:  INCF   xD5,F
05638:  BRA    55A2
....................    } 
0563A:  INCF   xD4,F
0563C:  BRA    559A
....................    } 
....................     
....................    if(x==5){ 
0563E:  MOVF   xD3,W
05640:  SUBLW  05
05642:  BNZ   56EA
....................    for( i = 0 ; i < 64 ; i ++ ) 
05644:  CLRF   xD4
05646:  MOVF   xD4,W
05648:  SUBLW  3F
0564A:  BNC   56EA
....................    {  for( j = 0 ; j < 16 ; j ++) 
0564C:  CLRF   xD5
0564E:  MOVF   xD5,W
05650:  SUBLW  0F
05652:  BNC   56E6
....................       {  for(k=7;k>-1;k--) 
05654:  MOVLW  07
05656:  MOVWF  xD6
05658:  MOVF   xD6,W
0565A:  XORLW  80
0565C:  SUBLW  7F
0565E:  BC    56E2
....................          {       
....................             if( bit_test(Ventilador[i][j] ,7-k ))  
05660:  CLRF   xD8
05662:  MOVFF  5D4,5D7
05666:  CLRF   xDA
05668:  MOVLW  10
0566A:  MOVWF  xD9
0566C:  MOVLB  0
0566E:  RCALL  54C2
05670:  MOVFF  02,5D8
05674:  MOVFF  01,5D7
05678:  MOVLB  5
0567A:  MOVF   xD5,W
0567C:  ADDWF  01,W
0567E:  MOVWF  01
05680:  MOVLW  00
05682:  ADDWFC 02,W
05684:  MOVWF  03
05686:  MOVF   01,W
05688:  MOVFF  FF2,5D7
0568C:  BCF    FF2.7
0568E:  MOVFF  03,FF7
05692:  MOVLB  0
05694:  CALL   0AD6
05698:  MOVLB  5
0569A:  BTFSC  xD7.7
0569C:  BSF    FF2.7
0569E:  MOVWF  xD7
056A0:  MOVLW  07
056A2:  BSF    FD8.0
056A4:  SUBFWB xD6,W
056A6:  MOVWF  xD8
056A8:  MOVFF  5D7,00
056AC:  MOVF   xD8,W
056AE:  MOVWF  01
056B0:  BZ    56BA
056B2:  BCF    FD8.0
056B4:  RRCF   00,F
056B6:  DECFSZ 01,F
056B8:  BRA    56B2
056BA:  BTFSS  00.0
056BC:  BRA    56DE
....................                glcd_pixel( j*8+k,i, ON ); 
056BE:  MOVF   xD5,W
056C0:  MULLW  08
056C2:  MOVF   FF3,W
056C4:  ADDWF  xD6,W
056C6:  MOVWF  xD7
056C8:  MOVFF  FE8,607
056CC:  MOVFF  5D4,608
056D0:  MOVLW  01
056D2:  MOVLB  6
056D4:  MOVWF  x09
056D6:  MOVLB  0
056D8:  CALL   467A
056DC:  MOVLB  5
....................          }   
056DE:  DECF   xD6,F
056E0:  BRA    5658
....................       } 
056E2:  INCF   xD5,F
056E4:  BRA    564E
....................    } 
056E6:  INCF   xD4,F
056E8:  BRA    5646
....................    } 
.................... } 
056EA:  MOVLB  0
056EC:  RETLW  00
....................  
....................  
.................... Float LeerFlujoInFlow(int media) 
.................... { 
....................     InFlow_adc=sensores(1); 
*
03FB0:  MOVLW  01
03FB2:  MOVLB  5
03FB4:  MOVWF  xE4
03FB6:  MOVLB  0
03FB8:  CALL   2CD0
03FBC:  MOVFF  02,4D6
03FC0:  MOVFF  01,4D5
....................        
....................     if(negativo==10) 
03FC4:  MOVLB  4
03FC6:  MOVF   xCA,W
03FC8:  SUBLW  0A
03FCA:  BNZ   4012
....................     { 
....................       x_uno=Inflow_adc+Diferencia; 
03FCC:  MOVFF  4D6,609
03FD0:  MOVFF  4D5,608
03FD4:  MOVLB  0
03FD6:  CALL   1730
03FDA:  BCF    FD8.1
03FDC:  MOVFF  03,60B
03FE0:  MOVFF  02,60A
03FE4:  MOVFF  01,609
03FE8:  MOVFF  00,608
03FEC:  MOVFF  516,60F
03FF0:  MOVFF  515,60E
03FF4:  MOVFF  514,60D
03FF8:  MOVFF  513,60C
03FFC:  CALL   18C4
04000:  MOVFF  03,51E
04004:  MOVFF  02,51D
04008:  MOVFF  01,51C
0400C:  MOVFF  00,51B
04010:  MOVLB  4
....................     } 
....................     if(negativo==20) 
04012:  MOVF   xCA,W
04014:  SUBLW  14
04016:  BNZ   405C
....................     { 
....................       x_uno=Inflow_adc-Diferencia; 
04018:  MOVFF  4D6,609
0401C:  MOVFF  4D5,608
04020:  MOVLB  0
04022:  CALL   1730
04026:  BSF    FD8.1
04028:  MOVFF  03,60B
0402C:  MOVFF  02,60A
04030:  MOVFF  01,609
04034:  MOVFF  00,608
04038:  MOVFF  516,60F
0403C:  MOVFF  515,60E
04040:  MOVFF  514,60D
04044:  MOVFF  513,60C
04048:  CALL   18C4
0404C:  MOVFF  03,51E
04050:  MOVFF  02,51D
04054:  MOVFF  01,51C
04058:  MOVFF  00,51B
....................     } 
....................     Velocidad=(pow(x_uno,3)*a)+(pow(x_uno,2)*b)+(x_uno*c)+(d); 
0405C:  MOVFF  51E,5DB
04060:  MOVFF  51D,5DA
04064:  MOVFF  51C,5D9
04068:  MOVFF  51B,5D8
0406C:  MOVLB  5
0406E:  CLRF   xDF
04070:  CLRF   xDE
04072:  MOVLW  40
04074:  MOVWF  xDD
04076:  MOVLW  80
04078:  MOVWF  xDC
0407A:  MOVLB  0
0407C:  RCALL  3CA4
0407E:  MOVFF  00,5D4
04082:  MOVFF  01,5D5
04086:  MOVFF  02,5D6
0408A:  MOVFF  03,5D7
0408E:  MOVFF  03,607
04092:  MOVFF  02,606
04096:  MOVFF  01,605
0409A:  MOVFF  00,604
0409E:  MOVFF  53A,60B
040A2:  MOVFF  539,60A
040A6:  MOVFF  538,609
040AA:  MOVFF  537,608
040AE:  CALL   2D4A
040B2:  MOVFF  00,5D4
040B6:  MOVFF  01,5D5
040BA:  MOVFF  02,5D6
040BE:  MOVFF  03,5D7
040C2:  MOVFF  51E,5DB
040C6:  MOVFF  51D,5DA
040CA:  MOVFF  51C,5D9
040CE:  MOVFF  51B,5D8
040D2:  MOVLB  5
040D4:  CLRF   xDF
040D6:  CLRF   xDE
040D8:  CLRF   xDD
040DA:  MOVLW  80
040DC:  MOVWF  xDC
040DE:  MOVLB  0
040E0:  RCALL  3CA4
040E2:  MOVFF  00,5D8
040E6:  MOVFF  01,5D9
040EA:  MOVFF  02,5DA
040EE:  MOVFF  03,5DB
040F2:  MOVFF  03,607
040F6:  MOVFF  02,606
040FA:  MOVFF  01,605
040FE:  MOVFF  00,604
04102:  MOVFF  53E,60B
04106:  MOVFF  53D,60A
0410A:  MOVFF  53C,609
0410E:  MOVFF  53B,608
04112:  CALL   2D4A
04116:  MOVFF  FEA,5D9
0411A:  MOVFF  FE9,5D8
0411E:  BCF    FD8.1
04120:  MOVFF  5D7,60B
04124:  MOVFF  5D6,60A
04128:  MOVFF  5D5,609
0412C:  MOVFF  5D4,608
04130:  MOVFF  03,60F
04134:  MOVFF  02,60E
04138:  MOVFF  01,60D
0413C:  MOVFF  00,60C
04140:  CALL   18C4
04144:  MOVFF  5D9,FEA
04148:  MOVFF  5D8,FE9
0414C:  MOVFF  00,5D4
04150:  MOVFF  01,5D5
04154:  MOVFF  02,5D6
04158:  MOVFF  03,5D7
0415C:  MOVFF  51E,607
04160:  MOVFF  51D,606
04164:  MOVFF  51C,605
04168:  MOVFF  51B,604
0416C:  MOVFF  542,60B
04170:  MOVFF  541,60A
04174:  MOVFF  540,609
04178:  MOVFF  53F,608
0417C:  CALL   2D4A
04180:  MOVFF  FEA,5DB
04184:  MOVFF  FE9,5DA
04188:  BCF    FD8.1
0418A:  MOVFF  5D7,60B
0418E:  MOVFF  5D6,60A
04192:  MOVFF  5D5,609
04196:  MOVFF  5D4,608
0419A:  MOVFF  03,60F
0419E:  MOVFF  02,60E
041A2:  MOVFF  01,60D
041A6:  MOVFF  00,60C
041AA:  CALL   18C4
041AE:  MOVFF  5DB,FEA
041B2:  MOVFF  5DA,FE9
041B6:  MOVFF  00,5D4
041BA:  MOVFF  01,5D5
041BE:  MOVFF  02,5D6
041C2:  MOVFF  03,5D7
041C6:  MOVFF  FEA,5DD
041CA:  MOVFF  FE9,5DC
041CE:  BCF    FD8.1
041D0:  MOVFF  03,60B
041D4:  MOVFF  02,60A
041D8:  MOVFF  01,609
041DC:  MOVFF  00,608
041E0:  MOVFF  546,60F
041E4:  MOVFF  545,60E
041E8:  MOVFF  544,60D
041EC:  MOVFF  543,60C
041F0:  CALL   18C4
041F4:  MOVFF  5DD,FEA
041F8:  MOVFF  5DC,FE9
041FC:  MOVFF  03,51A
04200:  MOVFF  02,519
04204:  MOVFF  01,518
04208:  MOVFF  00,517
....................     //Velocidad=Velocidad*correccion;//Ajuste de Temperatura 
....................      
....................     if(Velocidad<0.0) 
0420C:  MOVFF  51A,607
04210:  MOVFF  519,606
04214:  MOVFF  518,605
04218:  MOVFF  517,604
0421C:  MOVLB  6
0421E:  CLRF   x0B
04220:  CLRF   x0A
04222:  CLRF   x09
04224:  CLRF   x08
04226:  MOVLB  0
04228:  CALL   22C6
0422C:  BNC   4238
....................      {Velocidad=0.0;} 
0422E:  MOVLB  5
04230:  CLRF   x1A
04232:  CLRF   x19
04234:  CLRF   x18
04236:  CLRF   x17
....................       
....................      if(l>=media) 
04238:  MOVLB  5
0423A:  MOVF   xD3,W
0423C:  MOVLB  4
0423E:  SUBWF  xD0,W
04240:  BNC   4244
....................        {l=0;} 
04242:  CLRF   xD0
....................       
....................      promedio[l]=Velocidad;l++; 
04244:  MOVF   xD0,W
04246:  MULLW  04
04248:  MOVF   FF3,W
0424A:  CLRF   03
0424C:  ADDLW  47
0424E:  MOVWF  FE9
04250:  MOVLW  05
04252:  ADDWFC 03,W
04254:  MOVWF  FEA
04256:  MOVFF  517,FEF
0425A:  MOVFF  518,FEC
0425E:  MOVFF  519,FEC
04262:  MOVFF  51A,FEC
04266:  INCF   xD0,F
....................      Flujo=0; 
04268:  MOVLB  5
0426A:  CLRF   xAA
0426C:  CLRF   xA9
0426E:  CLRF   xA8
04270:  CLRF   xA7
....................         for(h=0;h<=(media-1);h++) 
04272:  MOVLB  4
04274:  CLRF   xD1
04276:  MOVLW  01
04278:  MOVLB  5
0427A:  SUBWF  xD3,W
0427C:  MOVLB  4
0427E:  SUBWF  xD1,W
04280:  BZ    4284
04282:  BC    42F4
....................         { 
....................            Flujo+=promedio[h]; 
04284:  MOVF   xD1,W
04286:  MULLW  04
04288:  MOVF   FF3,W
0428A:  CLRF   03
0428C:  ADDLW  47
0428E:  MOVWF  FE9
04290:  MOVLW  05
04292:  ADDWFC 03,W
04294:  MOVWF  FEA
04296:  MOVFF  FEF,00
0429A:  MOVFF  FEC,01
0429E:  MOVFF  FEC,02
042A2:  MOVFF  FEC,03
042A6:  MOVFF  FEA,5D5
042AA:  MOVFF  FE9,5D4
042AE:  BCF    FD8.1
042B0:  MOVFF  5AA,60B
042B4:  MOVFF  5A9,60A
042B8:  MOVFF  5A8,609
042BC:  MOVFF  5A7,608
042C0:  MOVFF  03,60F
042C4:  MOVFF  02,60E
042C8:  MOVFF  01,60D
042CC:  MOVFF  00,60C
042D0:  MOVLB  0
042D2:  CALL   18C4
042D6:  MOVFF  5D5,FEA
042DA:  MOVFF  5D4,FE9
042DE:  MOVFF  03,5AA
042E2:  MOVFF  02,5A9
042E6:  MOVFF  01,5A8
042EA:  MOVFF  00,5A7
....................         }  
042EE:  MOVLB  4
042F0:  INCF   xD1,F
042F2:  BRA    4276
....................            Flujo=(Flujo/media)*Ajuste1;  
042F4:  MOVLB  6
042F6:  CLRF   x09
042F8:  MOVFF  5D3,608
042FC:  MOVLB  0
042FE:  CALL   1730
04302:  MOVFF  5AA,607
04306:  MOVFF  5A9,606
0430A:  MOVFF  5A8,605
0430E:  MOVFF  5A7,604
04312:  MOVFF  03,60B
04316:  MOVFF  02,60A
0431A:  MOVFF  01,609
0431E:  MOVFF  00,608
04322:  CALL   1766
04326:  MOVFF  00,5D4
0432A:  MOVFF  01,5D5
0432E:  MOVFF  02,5D6
04332:  MOVFF  03,5D7
04336:  MOVFF  03,607
0433A:  MOVFF  02,606
0433E:  MOVFF  01,605
04342:  MOVFF  00,604
04346:  MOVFF  52A,60B
0434A:  MOVFF  529,60A
0434E:  MOVFF  528,609
04352:  MOVFF  527,608
04356:  CALL   2D4A
0435A:  MOVFF  03,5AA
0435E:  MOVFF  02,5A9
04362:  MOVFF  01,5A8
04366:  MOVFF  00,5A7
....................            return Flujo; 
0436A:  MOVFF  5A7,00
0436E:  MOVFF  5A8,01
04372:  MOVFF  5A9,02
04376:  MOVFF  5AA,03
.................... } 
0437A:  GOTO   6026 (RETURN)
....................  
.................... void main(){ 
*
05A94:  CLRF   FF8
05A96:  BCF    FD0.7
05A98:  BSF    07.7
05A9A:  CLRF   FEA
05A9C:  CLRF   FE9
05A9E:  MOVLB  4
05AA0:  BCF    x2C.0
05AA2:  BCF    x2C.1
05AA4:  BCF    x2C.2
05AA6:  BCF    x2C.3
05AA8:  BCF    x2C.4
05AAA:  BCF    x2C.5
05AAC:  BCF    x2C.6
05AAE:  BCF    x2C.7
05AB0:  BCF    x2D.0
05AB2:  BCF    x2D.1
05AB4:  BCF    x2D.2
05AB6:  BCF    x2D.3
05AB8:  BCF    x2D.4
05ABA:  BCF    x2D.5
05ABC:  BCF    x2D.6
05ABE:  BCF    x2D.7
05AC0:  BCF    x2E.0
05AC2:  BCF    x2E.1
05AC4:  BCF    x2E.2
05AC6:  BCF    x2E.3
05AC8:  MOVLW  C8
05ACA:  MOVWF  xC7
05ACC:  MOVLW  01
05ACE:  MOVWF  xC8
05AD0:  MOVWF  xC9
05AD2:  MOVLW  0A
05AD4:  MOVWF  xCA
05AD6:  CLRF   xCB
05AD8:  CLRF   xCC
05ADA:  CLRF   xCD
05ADC:  CLRF   xCE
05ADE:  CLRF   xCF
05AE0:  CLRF   xD0
05AE2:  CLRF   xD1
05AE4:  CLRF   xD2
05AE6:  CLRF   xD3
05AE8:  MOVWF  xD4
05AEA:  CLRF   xD6
05AEC:  CLRF   xD5
05AEE:  CLRF   xD8
05AF0:  CLRF   xD7
05AF2:  CLRF   xDA
05AF4:  CLRF   xD9
05AF6:  CLRF   xDC
05AF8:  CLRF   xDB
05AFA:  CLRF   xDE
05AFC:  CLRF   xDD
05AFE:  CLRF   xE0
05B00:  CLRF   xDF
05B02:  CLRF   xE2
05B04:  CLRF   xE1
05B06:  MOVLB  5
05B08:  CLRF   x0A
05B0A:  CLRF   x09
05B0C:  CLRF   x08
05B0E:  CLRF   x07
05B10:  CLRF   x0E
05B12:  CLRF   x0D
05B14:  CLRF   x0C
05B16:  CLRF   x0B
05B18:  CLRF   x12
05B1A:  CLRF   x11
05B1C:  CLRF   x10
05B1E:  CLRF   x0F
05B20:  CLRF   x16
05B22:  CLRF   x15
05B24:  CLRF   x14
05B26:  CLRF   x13
05B28:  CLRF   x1A
05B2A:  CLRF   x19
05B2C:  CLRF   x18
05B2E:  CLRF   x17
05B30:  CLRF   x1E
05B32:  CLRF   x1D
05B34:  CLRF   x1C
05B36:  CLRF   x1B
05B38:  CLRF   x22
05B3A:  CLRF   x21
05B3C:  CLRF   x20
05B3E:  CLRF   x1F
05B40:  CLRF   x26
05B42:  CLRF   x25
05B44:  CLRF   x24
05B46:  CLRF   x23
05B48:  CLRF   x2A
05B4A:  CLRF   x29
05B4C:  CLRF   x28
05B4E:  CLRF   x27
05B50:  CLRF   x2E
05B52:  CLRF   x2D
05B54:  CLRF   x2C
05B56:  CLRF   x2B
05B58:  CLRF   x32
05B5A:  CLRF   x31
05B5C:  CLRF   x30
05B5E:  CLRF   x2F
05B60:  CLRF   x36
05B62:  CLRF   x35
05B64:  CLRF   x34
05B66:  CLRF   x33
05B68:  MOVLW  29
05B6A:  MOVWF  x3A
05B6C:  MOVLW  B6
05B6E:  MOVWF  x39
05B70:  MOVLW  20
05B72:  MOVWF  x38
05B74:  MOVLW  6E
05B76:  MOVWF  x37
05B78:  MOVLW  EE
05B7A:  MOVWF  x3E
05B7C:  MOVLW  7D
05B7E:  MOVWF  x3D
05B80:  MOVLW  EE
05B82:  MOVWF  x3C
05B84:  MOVLW  77
05B86:  MOVWF  x3B
05B88:  MOVLW  ED
05B8A:  MOVWF  x42
05B8C:  MOVLW  47
05B8E:  MOVWF  x41
05B90:  MOVLW  6D
05B92:  MOVWF  x40
05B94:  MOVLW  7F
05B96:  MOVWF  x3F
05B98:  MOVLW  1A
05B9A:  MOVWF  x46
05B9C:  MOVLW  D1
05B9E:  MOVWF  x45
05BA0:  MOVLW  9C
05BA2:  MOVWF  x44
05BA4:  MOVLW  86
05BA6:  MOVWF  x43
05BA8:  CLRF   xAA
05BAA:  CLRF   xA9
05BAC:  CLRF   xA8
05BAE:  CLRF   xA7
05BB0:  CLRF   xAE
05BB2:  CLRF   xAD
05BB4:  MOVLW  50
05BB6:  MOVWF  xAC
05BB8:  MOVLW  86
05BBA:  MOVWF  xAB
05BBC:  CLRF   xB2
05BBE:  CLRF   xB1
05BC0:  CLRF   xB0
05BC2:  CLRF   xAF
05BC4:  CLRF   xB6
05BC6:  CLRF   xB5
05BC8:  CLRF   xB4
05BCA:  CLRF   xB3
05BCC:  CLRF   xBA
05BCE:  CLRF   xB9
05BD0:  CLRF   xB8
05BD2:  CLRF   xB7
05BD4:  CLRF   xBE
05BD6:  CLRF   xBD
05BD8:  CLRF   xBC
05BDA:  MOVLW  80
05BDC:  MOVWF  xBB
05BDE:  CLRF   xC0
05BE0:  CLRF   xBF
05BE2:  CLRF   xC2
05BE4:  CLRF   xC1
05BE6:  CLRF   xC3
05BE8:  CLRF   xC4
05BEA:  CLRF   xC5
05BEC:  CLRF   xC6
05BEE:  MOVLB  4
05BF0:  BCF    x2E.4
05BF2:  BCF    x2E.5
05BF4:  MOVLB  5
05BF6:  CLRF   xC8
05BF8:  CLRF   xC7
05BFA:  CLRF   xC9
05BFC:  CLRF   xCA
05BFE:  CLRF   xCE
05C00:  CLRF   xCD
05C02:  CLRF   xCC
05C04:  CLRF   xCB
05C06:  CLRF   xD2
05C08:  CLRF   xD1
05C0A:  CLRF   xD0
05C0C:  CLRF   xCF
05C0E:  MOVF   FC1,W
05C10:  ANDLW  C0
05C12:  IORLW  0F
05C14:  MOVWF  FC1
05C16:  MOVLW  07
05C18:  MOVWF  FB4
05C1A:  MOVLB  4
05C1C:  CLRF   x2A
05C1E:  CLRF   x2B
05C20:  MOVLW  4A
05C22:  MOVWF  x2F
05C24:  MOVLW  50
05C26:  MOVWF  x30
05C28:  MOVLW  20
05C2A:  MOVWF  x31
05C2C:  MOVLW  49
05C2E:  MOVWF  x32
05C30:  MOVLW  6E
05C32:  MOVWF  x33
05C34:  MOVLW  67
05C36:  MOVWF  x34
05C38:  MOVLW  6C
05C3A:  MOVWF  x35
05C3C:  MOVLW  6F
05C3E:  MOVWF  x36
05C40:  MOVLW  62
05C42:  MOVWF  x37
05C44:  MOVLW  61
05C46:  MOVWF  x38
05C48:  MOVLW  6C
05C4A:  MOVWF  x39
05C4C:  CLRF   x3A
05C4E:  MOVLW  43
05C50:  MOVWF  x3B
05C52:  MOVLW  61
05C54:  MOVWF  x3C
05C56:  MOVLW  62
05C58:  MOVWF  x3D
05C5A:  MOVLW  69
05C5C:  MOVWF  x3E
05C5E:  MOVLW  6E
05C60:  MOVWF  x3F
05C62:  MOVLW  61
05C64:  MOVWF  x40
05C66:  MOVLW  20
05C68:  MOVWF  x41
05C6A:  MOVLW  45
05C6C:  MOVWF  x42
05C6E:  MOVLW  78
05C70:  MOVWF  x43
05C72:  MOVLW  74
05C74:  MOVWF  x44
05C76:  MOVLW  72
05C78:  MOVWF  x45
05C7A:  MOVLW  61
05C7C:  MOVWF  x46
05C7E:  MOVLW  63
05C80:  MOVWF  x47
05C82:  MOVLW  74
05C84:  MOVWF  x48
05C86:  MOVLW  6F
05C88:  MOVWF  x49
05C8A:  MOVLW  72
05C8C:  MOVWF  x4A
05C8E:  MOVLW  61
05C90:  MOVWF  x4B
05C92:  CLRF   x4C
05C94:  MOVLW  3A
05C96:  MOVWF  x4D
05C98:  CLRF   x4E
05C9A:  MOVLW  55
05C9C:  MOVWF  x4F
05C9E:  MOVLW  56
05CA0:  MOVWF  x50
05CA2:  CLRF   x51
05CA4:  MOVLW  53
05CA6:  MOVWF  x52
05CA8:  MOVLW  69
05CAA:  MOVWF  x53
05CAC:  MOVLW  6E
05CAE:  MOVWF  x54
05CB0:  MOVLW  20
05CB2:  MOVWF  x55
05CB4:  MOVLW  44
05CB6:  MOVWF  x56
05CB8:  MOVLW  75
05CBA:  MOVWF  x57
05CBC:  MOVLW  63
05CBE:  MOVWF  x58
05CC0:  MOVLW  74
05CC2:  MOVWF  x59
05CC4:  MOVLW  6F
05CC6:  MOVWF  x5A
05CC8:  MOVLW  73
05CCA:  MOVWF  x5B
05CCC:  CLRF   x5C
05CCE:  MOVLW  54
05CD0:  MOVWF  x5D
05CD2:  MOVLW  69
05CD4:  MOVWF  x5E
05CD6:  MOVLW  65
05CD8:  MOVWF  x5F
05CDA:  MOVLW  6D
05CDC:  MOVWF  x60
05CDE:  MOVLW  70
05CE0:  MOVWF  x61
05CE2:  MOVLW  6F
05CE4:  MOVWF  x62
05CE6:  MOVLW  20
05CE8:  MOVWF  x63
05CEA:  MOVLW  64
05CEC:  MOVWF  x64
05CEE:  MOVLW  65
05CF0:  MOVWF  x65
05CF2:  MOVLW  20
05CF4:  MOVWF  x66
05CF6:  MOVLW  50
05CF8:  MOVWF  x67
05CFA:  MOVLW  75
05CFC:  MOVWF  x68
05CFE:  MOVLW  72
05D00:  MOVWF  x69
05D02:  MOVLW  67
05D04:  MOVWF  x6A
05D06:  MOVLW  61
05D08:  MOVWF  x6B
05D0A:  CLRF   x6C
05D0C:  MOVLW  56
05D0E:  MOVWF  x6D
05D10:  MOVLW  65
05D12:  MOVWF  x6E
05D14:  MOVLW  6C
05D16:  MOVWF  x6F
05D18:  MOVLW  3A
05D1A:  MOVWF  x70
05D1C:  CLRF   x71
05D1E:  MOVLW  54
05D20:  MOVWF  x72
05D22:  MOVLW  65
05D24:  MOVWF  x73
05D26:  MOVLW  6D
05D28:  MOVWF  x74
05D2A:  MOVLW  70
05D2C:  MOVWF  x75
05D2E:  MOVLW  65
05D30:  MOVWF  x76
05D32:  MOVLW  72
05D34:  MOVWF  x77
05D36:  MOVLW  61
05D38:  MOVWF  x78
05D3A:  MOVLW  74
05D3C:  MOVWF  x79
05D3E:  MOVLW  75
05D40:  MOVWF  x7A
05D42:  MOVLW  72
05D44:  MOVWF  x7B
05D46:  MOVLW  61
05D48:  MOVWF  x7C
05D4A:  CLRF   x7D
05D4C:  MOVLW  46
05D4E:  MOVWF  x7E
05D50:  MOVLW  61
05D52:  MOVWF  x7F
05D54:  MOVLW  62
05D56:  MOVWF  x80
05D58:  MOVLW  72
05D5A:  MOVWF  x81
05D5C:  MOVLW  69
05D5E:  MOVWF  x82
05D60:  MOVLW  63
05D62:  MOVWF  x83
05D64:  MOVLW  61
05D66:  MOVWF  x84
05D68:  MOVLW  3A
05D6A:  MOVWF  x85
05D6C:  MOVLW  32
05D6E:  MOVWF  x86
05D70:  MOVLW  30
05D72:  MOVWF  x87
05D74:  MOVLW  38
05D76:  MOVWF  x88
05D78:  MOVLW  2E
05D7A:  MOVWF  x89
05D7C:  MOVLW  30
05D7E:  MOVWF  x8A
05D80:  CLRF   x8B
05D82:  MOVLW  41
05D84:  MOVWF  x8C
05D86:  MOVLW  63
05D88:  MOVWF  x8D
05D8A:  MOVLW  74
05D8C:  MOVWF  x8E
05D8E:  MOVLW  75
05D90:  MOVWF  x8F
05D92:  MOVLW  61
05D94:  MOVWF  x90
05D96:  MOVLW  6C
05D98:  MOVWF  x91
05D9A:  MOVLW  3A
05D9C:  MOVWF  x92
05D9E:  CLRF   x93
05DA0:  MOVLW  41
05DA2:  MOVWF  x94
05DA4:  MOVLW  6A
05DA6:  MOVWF  x95
05DA8:  MOVLW  75
05DAA:  MOVWF  x96
05DAC:  MOVLW  73
05DAE:  MOVWF  x97
05DB0:  MOVLW  74
05DB2:  MOVWF  x98
05DB4:  MOVLW  65
05DB6:  MOVWF  x99
05DB8:  MOVLW  3A
05DBA:  MOVWF  x9A
05DBC:  CLRF   x9B
05DBE:  MOVLW  54
05DC0:  MOVWF  x9C
05DC2:  MOVLW  2E
05DC4:  MOVWF  x9D
05DC6:  MOVLW  20
05DC8:  MOVWF  x9E
05DCA:  MOVLW  46
05DCC:  MOVWF  x9F
05DCE:  MOVLW  69
05DD0:  MOVWF  xA0
05DD2:  MOVLW  6C
05DD4:  MOVWF  xA1
05DD6:  MOVLW  74
05DD8:  MOVWF  xA2
05DDA:  MOVLW  72
05DDC:  MOVWF  xA3
05DDE:  MOVLW  6F
05DE0:  MOVWF  xA4
05DE2:  MOVLW  3A
05DE4:  MOVWF  xA5
05DE6:  CLRF   xA6
05DE8:  MOVLW  46
05DEA:  MOVWF  xA7
05DEC:  MOVLW  61
05DEE:  MOVWF  xA8
05DF0:  MOVLW  62
05DF2:  MOVWF  xA9
05DF4:  MOVLW  72
05DF6:  MOVWF  xAA
05DF8:  MOVLW  69
05DFA:  MOVWF  xAB
05DFC:  MOVLW  63
05DFE:  MOVWF  xAC
05E00:  MOVLW  61
05E02:  MOVWF  xAD
05E04:  MOVLW  3A
05E06:  MOVWF  xAE
05E08:  MOVLW  32
05E0A:  MOVWF  xAF
05E0C:  MOVLW  33
05E0E:  MOVWF  xB0
05E10:  MOVLW  35
05E12:  MOVWF  xB1
05E14:  MOVLW  2E
05E16:  MOVWF  xB2
05E18:  MOVLW  30
05E1A:  MOVWF  xB3
05E1C:  CLRF   xB4
05E1E:  MOVLW  21
05E20:  MOVWF  xB5
05E22:  MOVLW  46
05E24:  MOVWF  xB6
05E26:  MOVLW  69
05E28:  MOVWF  xB7
05E2A:  MOVLW  6C
05E2C:  MOVWF  xB8
05E2E:  MOVLW  74
05E30:  MOVWF  xB9
05E32:  MOVLW  72
05E34:  MOVWF  xBA
05E36:  MOVLW  6F
05E38:  MOVWF  xBB
05E3A:  MOVLW  20
05E3C:  MOVWF  xBC
05E3E:  MOVLW  53
05E40:  MOVWF  xBD
05E42:  MOVLW  61
05E44:  MOVWF  xBE
05E46:  MOVLW  74
05E48:  MOVWF  xBF
05E4A:  MOVLW  75
05E4C:  MOVWF  xC0
05E4E:  MOVLW  72
05E50:  MOVWF  xC1
05E52:  MOVLW  61
05E54:  MOVWF  xC2
05E56:  MOVLW  64
05E58:  MOVWF  xC3
05E5A:  MOVLW  6F
05E5C:  MOVWF  xC4
05E5E:  MOVLW  21
05E60:  MOVWF  xC5
05E62:  CLRF   xC6
05E64:  CLRF   xE3
05E66:  CLRF   xE4
05E68:  CLRF   xE5
05E6A:  CLRF   xE6
05E6C:  MOVLW  09
05E6E:  MOVWF  xE7
05E70:  CLRF   xE8
05E72:  CLRF   xE9
05E74:  CLRF   xEA
05E76:  CLRF   xEB
05E78:  CLRF   xEC
05E7A:  CLRF   xED
05E7C:  CLRF   xEE
05E7E:  MOVWF  xEF
05E80:  CLRF   xF0
05E82:  CLRF   xF1
05E84:  CLRF   xF2
05E86:  CLRF   xF3
05E88:  CLRF   xF4
05E8A:  CLRF   xF5
05E8C:  CLRF   xF6
05E8E:  CLRF   xF7
05E90:  CLRF   xF8
05E92:  CLRF   xF9
05E94:  CLRF   xFA
05E96:  CLRF   xFB
05E98:  CLRF   xFC
05E9A:  CLRF   xFD
05E9C:  CLRF   xFE
05E9E:  CLRF   xFF
05EA0:  MOVLB  5
05EA2:  CLRF   x00
05EA4:  CLRF   x01
05EA6:  CLRF   x02
05EA8:  CLRF   x03
05EAA:  CLRF   x04
05EAC:  CLRF   x05
05EAE:  CLRF   x06
05EB0:  CLRF   x47
05EB2:  CLRF   x48
05EB4:  CLRF   x49
05EB6:  CLRF   x4A
05EB8:  CLRF   x4B
05EBA:  CLRF   x4C
05EBC:  CLRF   x4D
05EBE:  CLRF   x4E
05EC0:  CLRF   x4F
05EC2:  CLRF   x50
05EC4:  CLRF   x51
05EC6:  CLRF   x52
05EC8:  CLRF   x53
05ECA:  CLRF   x54
05ECC:  CLRF   x55
05ECE:  CLRF   x56
05ED0:  CLRF   x57
05ED2:  CLRF   x58
05ED4:  CLRF   x59
05ED6:  CLRF   x5A
05ED8:  CLRF   x5B
05EDA:  CLRF   x5C
05EDC:  CLRF   x5D
05EDE:  CLRF   x5E
05EE0:  CLRF   x5F
05EE2:  CLRF   x60
05EE4:  CLRF   x61
05EE6:  CLRF   x62
05EE8:  CLRF   x63
05EEA:  CLRF   x64
05EEC:  CLRF   x65
05EEE:  CLRF   x66
05EF0:  CLRF   x67
05EF2:  CLRF   x68
05EF4:  CLRF   x69
05EF6:  CLRF   x6A
05EF8:  CLRF   x6B
05EFA:  CLRF   x6C
05EFC:  CLRF   x6D
05EFE:  CLRF   x6E
05F00:  CLRF   x6F
05F02:  CLRF   x70
05F04:  CLRF   x71
05F06:  CLRF   x72
05F08:  CLRF   x73
05F0A:  CLRF   x74
05F0C:  CLRF   x75
05F0E:  CLRF   x76
05F10:  CLRF   x77
05F12:  CLRF   x78
05F14:  CLRF   x79
05F16:  CLRF   x7A
05F18:  CLRF   x7B
05F1A:  CLRF   x7C
05F1C:  CLRF   x7D
05F1E:  CLRF   x7E
05F20:  CLRF   x7F
05F22:  CLRF   x80
05F24:  CLRF   x81
05F26:  CLRF   x82
05F28:  CLRF   x83
05F2A:  CLRF   x84
05F2C:  CLRF   x85
05F2E:  CLRF   x86
05F30:  CLRF   x87
05F32:  CLRF   x88
05F34:  CLRF   x89
05F36:  CLRF   x8A
05F38:  CLRF   x8B
05F3A:  CLRF   x8C
05F3C:  CLRF   x8D
05F3E:  CLRF   x8E
05F40:  CLRF   x8F
05F42:  CLRF   x90
05F44:  CLRF   x91
05F46:  CLRF   x92
05F48:  CLRF   x93
05F4A:  CLRF   x94
05F4C:  CLRF   x95
05F4E:  CLRF   x96
05F50:  CLRF   x97
05F52:  CLRF   x98
05F54:  CLRF   x99
05F56:  CLRF   x9A
05F58:  CLRF   x9B
05F5A:  CLRF   x9C
05F5C:  CLRF   x9D
05F5E:  CLRF   x9E
05F60:  CLRF   x9F
05F62:  CLRF   xA0
05F64:  CLRF   xA1
05F66:  CLRF   xA2
05F68:  CLRF   xA3
05F6A:  CLRF   xA4
05F6C:  CLRF   xA5
05F6E:  CLRF   xA6
....................    delay_ms(1000); 
05F70:  MOVLW  04
05F72:  MOVWF  xD3
05F74:  MOVLW  FA
05F76:  MOVWF  xE7
05F78:  MOVLB  0
05F7A:  CALL   1496
05F7E:  MOVLB  5
05F80:  DECFSZ xD3,F
05F82:  BRA    5F74
....................    Cruce=OFF; 
05F84:  MOVLB  4
05F86:  BCF    x2E.4
....................    VelocidadMotor(0); 
05F88:  MOVLB  5
05F8A:  CLRF   xD3
05F8C:  MOVLB  0
05F8E:  CALL   14BE
....................    Tcruce2=83; 
05F92:  MOVLB  5
05F94:  CLRF   xD2
05F96:  CLRF   xD1
05F98:  MOVLW  26
05F9A:  MOVWF  xD0
05F9C:  MOVLW  85
05F9E:  MOVWF  xCF
....................    Tcruce=8300; 
05FA0:  CLRF   xCE
05FA2:  MOVLW  B0
05FA4:  MOVWF  xCD
05FA6:  MOVLW  01
05FA8:  MOVWF  xCC
05FAA:  MOVLW  8C
05FAC:  MOVWF  xCB
....................    Motor_off; 
05FAE:  BCF    F8B.2
05FB0:  BCF    F94.2
....................    //setup_timer_1(T1_INTERNAL|T1_DIV_BY_1); 
....................    //enable_interrupts(INT_TIMER1); 
....................    enable_interrupts(INT_EXT_L2H); 
05FB2:  BSF    FF2.4
05FB4:  BSF    FF1.6
....................    setup_adc_ports(AN0_TO_AN1); 
05FB6:  MOVF   FC1,W
05FB8:  ANDLW  C0
05FBA:  IORLW  0D
05FBC:  MOVWF  FC1
....................    setup_adc(ADC_CLOCK_DIV_32 ); 
05FBE:  MOVF   FC0,W
05FC0:  ANDLW  C0
05FC2:  IORLW  02
05FC4:  MOVWF  FC0
05FC6:  BSF    FC0.7
05FC8:  BSF    FC2.0
....................    enable_interrupts(global);   
05FCA:  MOVLW  C0
05FCC:  IORWF  FF2,F
....................    VelocidadMotor(0); 
05FCE:  CLRF   xD3
05FD0:  MOVLB  0
05FD2:  CALL   14BE
....................    Motor_off; 
05FD6:  BCF    F8B.2
05FD8:  BCF    F94.2
.................... //-------Inicio de Cabina-------------------------------------------------------------------------// 
....................    //Display_on; 
....................    //glcd_init(ON);             //Inicializa la glcd 
....................    //glcd_fillScreen(OFF);      //Limpia la pantalla 
....................    //glcd_text57(0, 0, JP, 2, ON);glcd_text57(5, 20, Cabina, 1, ON);glcd_text57(10, 40, Clase, 2, ON);              
....................    //glcd_update(); 
....................    //delay_ms(3000); 
....................                         
....................    //glcd_filScreen(OFF);      //Limpia la pantalla 
....................    glcd_init(ON); 
05FDA:  MOVLW  01
05FDC:  MOVLB  5
05FDE:  MOVWF  xD3
05FE0:  MOVLB  0
05FE2:  CALL   1688
....................    Menu=200; 
05FE6:  MOVLW  C8
05FE8:  MOVLB  4
05FEA:  MOVWF  xC7
....................    LuzBlanca_off;Alarma_off;Aux_off; 
05FEC:  BCF    F8B.0
05FEE:  BCF    F94.0
05FF0:  BCF    F8B.7
05FF2:  BCF    F94.7
05FF4:  BCF    F8B.1
05FF6:  BCF    F94.1
.................... //-------Inicio de Cabina-------------------------------------------------------------------------// 
....................    VelocidadMotor(0); 
05FF8:  MOVLB  5
05FFA:  CLRF   xD3
05FFC:  MOVLB  0
05FFE:  CALL   14BE
....................    Motor_off; 
06002:  BCF    F8B.2
06004:  BCF    F94.2
....................    LeeEEPROM(); // Lectura de variables almacenadas en la EEPROM  
06006:  GOTO   1B3C
....................    LimitaValores(); 
0600A:  GOTO   2340
....................    //Menu=2; 
....................    while(true){  
....................    glcd_update(); 
0600E:  CALL   15D0
.................... //**Actualizacin de Lectura de Sensores**//    
....................    if(Lectura==1){ 
06012:  MOVLB  4
06014:  BTFSS  x2E.2
06016:  BRA    605C
....................       Lectura=0; 
06018:  BCF    x2E.2
....................       InFlow=LeerFlujoInFlow(8); 
0601A:  MOVLW  08
0601C:  MOVLB  5
0601E:  MOVWF  xD3
06020:  MOVLB  0
06022:  GOTO   3FB0
06026:  MOVFF  03,50A
0602A:  MOVFF  02,509
0602E:  MOVFF  01,508
06032:  MOVFF  00,507
....................       Temperatura=leeTemperatura(5); 
06036:  MOVLW  05
06038:  MOVLB  5
0603A:  MOVWF  xD3
0603C:  MOVLB  0
0603E:  GOTO   437E
06042:  MOVFF  03,607
06046:  MOVFF  02,606
0604A:  MOVFF  01,605
0604E:  MOVFF  00,604
06052:  CALL   2D0E
06056:  MOVFF  01,5C6
0605A:  MOVLB  4
....................    } 
.................... //----------------------------------------// 
....................  
.................... //**Contador de Tiempo de Trabajo del filtro**// 
....................    if(minutos_trabajo>=3600){ // Tiempo de Trabajo 
0605C:  MOVF   xE0,W
0605E:  SUBLW  0D
06060:  BTFSC  FD8.0
06062:  BRA    620A
06064:  XORLW  FF
06066:  BNZ   6070
06068:  MOVF   xDF,W
0606A:  SUBLW  0F
0606C:  BTFSC  FD8.0
0606E:  BRA    620A
....................       minutos_trabajo=0; //Minutos Trabajo realmente son segundos. 
06070:  CLRF   xE0
06072:  CLRF   xDF
....................       write_eeprom(33,make8(minutos_trabajo,0)); 
06074:  MOVFF  4DF,5D3
06078:  CLRF   FAA
0607A:  MOVLW  21
0607C:  MOVWF  FA9
0607E:  MOVFF  5D3,FA8
06082:  BCF    FA6.6
06084:  BCF    FA6.7
06086:  BSF    FA6.2
06088:  MOVF   FF2,W
0608A:  MOVWF  00
0608C:  BCF    FF2.7
0608E:  MOVLB  F
06090:  MOVLW  55
06092:  MOVWF  FA7
06094:  MOVLW  AA
06096:  MOVWF  FA7
06098:  BSF    FA6.1
0609A:  BTFSC  FA6.1
0609C:  BRA    609A
0609E:  BCF    FA6.2
060A0:  MOVF   00,W
060A2:  IORWF  FF2,F
....................       delay_ms(20); 
060A4:  MOVLW  14
060A6:  MOVLB  5
060A8:  MOVWF  xE7
060AA:  MOVLB  0
060AC:  CALL   1496
....................       write_eeprom(34,make8(minutos_trabajo,1)); 
060B0:  MOVFF  4E0,5D3
060B4:  CLRF   FAA
060B6:  MOVLW  22
060B8:  MOVWF  FA9
060BA:  MOVFF  5D3,FA8
060BE:  BCF    FA6.6
060C0:  BCF    FA6.7
060C2:  BSF    FA6.2
060C4:  MOVF   FF2,W
060C6:  MOVWF  00
060C8:  BCF    FF2.7
060CA:  MOVLB  F
060CC:  MOVLW  55
060CE:  MOVWF  FA7
060D0:  MOVLW  AA
060D2:  MOVWF  FA7
060D4:  BSF    FA6.1
060D6:  BTFSC  FA6.1
060D8:  BRA    60D6
060DA:  BCF    FA6.2
060DC:  MOVF   00,W
060DE:  IORWF  FF2,F
....................       delay_ms(20); 
060E0:  MOVLW  14
060E2:  MOVLB  5
060E4:  MOVWF  xE7
060E6:  MOVLB  0
060E8:  CALL   1496
....................       Ttrabajo[0]++; 
060EC:  MOVLB  4
060EE:  INCF   xFB,F
....................       if(Ttrabajo[0]>9){ 
060F0:  BTFSC  xFB.7
060F2:  BRA    60FE
060F4:  MOVF   xFB,W
060F6:  SUBLW  09
060F8:  BC    60FE
....................          Ttrabajo[0]=0; 
060FA:  CLRF   xFB
....................          Ttrabajo[1]++; 
060FC:  INCF   xFC,F
....................       } 
....................       if(Ttrabajo[1]>9){ 
060FE:  BTFSC  xFC.7
06100:  BRA    610C
06102:  MOVF   xFC,W
06104:  SUBLW  09
06106:  BC    610C
....................          Ttrabajo[1]=0; 
06108:  CLRF   xFC
....................          Ttrabajo[2]++; 
0610A:  INCF   xFD,F
....................       } 
....................       if(Ttrabajo[2]>9){ 
0610C:  BTFSC  xFD.7
0610E:  BRA    611A
06110:  MOVF   xFD,W
06112:  SUBLW  09
06114:  BC    611A
....................          Ttrabajo[2]=0; 
06116:  CLRF   xFD
....................          Ttrabajo[3]++; 
06118:  INCF   xFE,F
....................       } 
....................       if(Ttrabajo[3]>9){ 
0611A:  BTFSC  xFE.7
0611C:  BRA    6126
0611E:  MOVF   xFE,W
06120:  SUBLW  09
06122:  BC    6126
....................          Ttrabajo[3]=0; 
06124:  CLRF   xFE
....................       } 
....................       write_eeprom(16,Ttrabajo[0]); 
06126:  CLRF   FAA
06128:  MOVLW  10
0612A:  MOVWF  FA9
0612C:  MOVFF  4FB,FA8
06130:  BCF    FA6.6
06132:  BCF    FA6.7
06134:  BSF    FA6.2
06136:  MOVF   FF2,W
06138:  MOVWF  00
0613A:  BCF    FF2.7
0613C:  MOVLB  F
0613E:  MOVLW  55
06140:  MOVWF  FA7
06142:  MOVLW  AA
06144:  MOVWF  FA7
06146:  BSF    FA6.1
06148:  BTFSC  FA6.1
0614A:  BRA    6148
0614C:  BCF    FA6.2
0614E:  MOVF   00,W
06150:  IORWF  FF2,F
....................       delay_ms(20); 
06152:  MOVLW  14
06154:  MOVLB  5
06156:  MOVWF  xE7
06158:  MOVLB  0
0615A:  CALL   1496
....................       write_eeprom(17,Ttrabajo[1]); 
0615E:  CLRF   FAA
06160:  MOVLW  11
06162:  MOVWF  FA9
06164:  MOVFF  4FC,FA8
06168:  BCF    FA6.6
0616A:  BCF    FA6.7
0616C:  BSF    FA6.2
0616E:  MOVF   FF2,W
06170:  MOVWF  00
06172:  BCF    FF2.7
06174:  MOVLB  F
06176:  MOVLW  55
06178:  MOVWF  FA7
0617A:  MOVLW  AA
0617C:  MOVWF  FA7
0617E:  BSF    FA6.1
06180:  BTFSC  FA6.1
06182:  BRA    6180
06184:  BCF    FA6.2
06186:  MOVF   00,W
06188:  IORWF  FF2,F
....................       delay_ms(20); 
0618A:  MOVLW  14
0618C:  MOVLB  5
0618E:  MOVWF  xE7
06190:  MOVLB  0
06192:  CALL   1496
....................       write_eeprom(18,Ttrabajo[2]); 
06196:  CLRF   FAA
06198:  MOVLW  12
0619A:  MOVWF  FA9
0619C:  MOVFF  4FD,FA8
061A0:  BCF    FA6.6
061A2:  BCF    FA6.7
061A4:  BSF    FA6.2
061A6:  MOVF   FF2,W
061A8:  MOVWF  00
061AA:  BCF    FF2.7
061AC:  MOVLB  F
061AE:  MOVLW  55
061B0:  MOVWF  FA7
061B2:  MOVLW  AA
061B4:  MOVWF  FA7
061B6:  BSF    FA6.1
061B8:  BTFSC  FA6.1
061BA:  BRA    61B8
061BC:  BCF    FA6.2
061BE:  MOVF   00,W
061C0:  IORWF  FF2,F
....................       delay_ms(20); 
061C2:  MOVLW  14
061C4:  MOVLB  5
061C6:  MOVWF  xE7
061C8:  MOVLB  0
061CA:  CALL   1496
....................       write_eeprom(19,Ttrabajo[3]); 
061CE:  CLRF   FAA
061D0:  MOVLW  13
061D2:  MOVWF  FA9
061D4:  MOVFF  4FE,FA8
061D8:  BCF    FA6.6
061DA:  BCF    FA6.7
061DC:  BSF    FA6.2
061DE:  MOVF   FF2,W
061E0:  MOVWF  00
061E2:  BCF    FF2.7
061E4:  MOVLB  F
061E6:  MOVLW  55
061E8:  MOVWF  FA7
061EA:  MOVLW  AA
061EC:  MOVWF  FA7
061EE:  BSF    FA6.1
061F0:  BTFSC  FA6.1
061F2:  BRA    61F0
061F4:  BCF    FA6.2
061F6:  MOVF   00,W
061F8:  IORWF  FF2,F
....................       delay_ms(20); 
061FA:  MOVLW  14
061FC:  MOVLB  5
061FE:  MOVWF  xE7
06200:  MOVLB  0
06202:  CALL   1496
....................    }else if(minutos_trabajo==900 || minutos_trabajo==1800 || minutos_trabajo==2700 ){ 
06206:  BRA    62A6
06208:  MOVLB  4
0620A:  MOVF   xDF,W
0620C:  SUBLW  84
0620E:  BNZ   6216
06210:  MOVF   xE0,W
06212:  SUBLW  03
06214:  BZ    622E
06216:  MOVF   xDF,W
06218:  SUBLW  08
0621A:  BNZ   6222
0621C:  MOVF   xE0,W
0621E:  SUBLW  07
06220:  BZ    622E
06222:  MOVF   xDF,W
06224:  SUBLW  8C
06226:  BNZ   62A8
06228:  MOVF   xE0,W
0622A:  SUBLW  0A
0622C:  BNZ   62A8
....................       write_eeprom(33,make8(minutos_trabajo,0)); 
0622E:  MOVFF  4DF,5D3
06232:  CLRF   FAA
06234:  MOVLW  21
06236:  MOVWF  FA9
06238:  MOVFF  5D3,FA8
0623C:  BCF    FA6.6
0623E:  BCF    FA6.7
06240:  BSF    FA6.2
06242:  MOVF   FF2,W
06244:  MOVWF  00
06246:  BCF    FF2.7
06248:  MOVLB  F
0624A:  MOVLW  55
0624C:  MOVWF  FA7
0624E:  MOVLW  AA
06250:  MOVWF  FA7
06252:  BSF    FA6.1
06254:  BTFSC  FA6.1
06256:  BRA    6254
06258:  BCF    FA6.2
0625A:  MOVF   00,W
0625C:  IORWF  FF2,F
....................       delay_ms(20); 
0625E:  MOVLW  14
06260:  MOVLB  5
06262:  MOVWF  xE7
06264:  MOVLB  0
06266:  CALL   1496
....................       write_eeprom(34,make8(minutos_trabajo,1)); 
0626A:  MOVFF  4E0,5D3
0626E:  CLRF   FAA
06270:  MOVLW  22
06272:  MOVWF  FA9
06274:  MOVFF  5D3,FA8
06278:  BCF    FA6.6
0627A:  BCF    FA6.7
0627C:  BSF    FA6.2
0627E:  MOVF   FF2,W
06280:  MOVWF  00
06282:  BCF    FF2.7
06284:  MOVLB  F
06286:  MOVLW  55
06288:  MOVWF  FA7
0628A:  MOVLW  AA
0628C:  MOVWF  FA7
0628E:  BSF    FA6.1
06290:  BTFSC  FA6.1
06292:  BRA    6290
06294:  BCF    FA6.2
06296:  MOVF   00,W
06298:  IORWF  FF2,F
....................       delay_ms(20); 
0629A:  MOVLW  14
0629C:  MOVLB  5
0629E:  MOVWF  xE7
062A0:  MOVLB  0
062A2:  CALL   1496
062A6:  MOVLB  4
....................    } 
.................... //----------------------------------------//       
....................     
....................    if(Menu!=2){// Si no esta en el menu de estados apaga la alarma 
062A8:  MOVF   xC7,W
062AA:  SUBLW  02
062AC:  BZ    62B6
....................       Alarma_off; 
062AE:  BCF    F8B.7
062B0:  BCF    F94.7
....................       Alarma=10; 
062B2:  MOVLW  0A
062B4:  MOVWF  xD4
....................    } 
....................     
.................... //_-------------------------------------------------------------------------------------------------------------------------------------------------------- 
....................    if(Menu==0){ //Menu de Contrasea. 
062B6:  MOVF   xC7,F
062B8:  BNZ   62F0
....................       while(PidePassword(0,0,1,Password[0],Password[1],Password[2],Password[3])==0){ 
062BA:  MOVLB  5
062BC:  CLRF   xD4
062BE:  CLRF   xD5
062C0:  MOVLW  01
062C2:  MOVWF  xD6
062C4:  MOVFF  503,5D7
062C8:  MOVFF  504,5D8
062CC:  MOVFF  505,5D9
062D0:  MOVFF  506,5DA
062D4:  MOVLB  0
062D6:  CALL   4CD2
062DA:  MOVF   01,F
062DC:  BNZ   62F2
....................          VelocidadMotor(0); 
062DE:  MOVLB  5
062E0:  CLRF   xD3
062E2:  MOVLB  0
062E4:  CALL   14BE
....................          glcd_update(); 
062E8:  CALL   15D0
....................       }        
062EC:  MOVLB  4
062EE:  BRA    62BA
062F0:  MOVLB  0
....................    } 
.................... //_--------------------------------------------------------------------------------------------------------------------------------------------------------        
....................  
.................... //_-------------------------------------------------------------------------------------------------------------------------------------------------------- 
....................       if(Menu==1){//Menu de Purga. 
062F2:  MOVLB  4
062F4:  DECFSZ xC7,W
062F6:  BRA    6460
....................          Purga=ON; 
062F8:  BSF    x2E.5
....................          glcd_text57(15, 1, Tiempo, 1, ON); 
062FA:  MOVLW  0F
062FC:  MOVLB  5
062FE:  MOVWF  xEC
06300:  MOVLW  01
06302:  MOVWF  xED
06304:  MOVLW  04
06306:  MOVWF  xEF
06308:  MOVLW  5D
0630A:  MOVWF  xEE
0630C:  MOVLW  01
0630E:  MOVWF  xF0
06310:  MOVWF  xF1
06312:  MOVLB  0
06314:  CALL   4994
....................          tiempo_purga=1;LuzBlanca_off;//Alarma_off; 
06318:  MOVLB  4
0631A:  BSF    x2D.5
0631C:  BCF    F8B.0
0631E:  BCF    F94.0
....................          glcd_rect(9, 54, 120, 64, YES, OFF);          
06320:  MOVLW  09
06322:  MOVLB  5
06324:  MOVWF  xEC
06326:  MOVLW  36
06328:  MOVWF  xED
0632A:  MOVLW  78
0632C:  MOVWF  xEE
0632E:  MOVLW  40
06330:  MOVWF  xEF
06332:  MOVLW  01
06334:  MOVWF  xF0
06336:  CLRF   xF1
06338:  MOVLB  0
0633A:  CALL   48D2
....................          displayTiempo(Tpurga[3],20,20,0,2);displayTiempo(Tpurga[2],40,20,0,2);glcd_text57(60, 22, Dos_puntos, 2, ON); 
0633E:  MOVFF  4E6,5D3
06342:  MOVLW  14
06344:  MOVLB  5
06346:  MOVWF  xD4
06348:  MOVWF  xD5
0634A:  CLRF   xD6
0634C:  MOVLW  02
0634E:  MOVWF  xD7
06350:  MOVLB  0
06352:  CALL   53E8
06356:  MOVFF  4E5,5D3
0635A:  MOVLW  28
0635C:  MOVLB  5
0635E:  MOVWF  xD4
06360:  MOVLW  14
06362:  MOVWF  xD5
06364:  CLRF   xD6
06366:  MOVLW  02
06368:  MOVWF  xD7
0636A:  MOVLB  0
0636C:  CALL   53E8
06370:  MOVLW  3C
06372:  MOVLB  5
06374:  MOVWF  xEC
06376:  MOVLW  16
06378:  MOVWF  xED
0637A:  MOVLW  04
0637C:  MOVWF  xEF
0637E:  MOVLW  4D
06380:  MOVWF  xEE
06382:  MOVLW  02
06384:  MOVWF  xF0
06386:  MOVLW  01
06388:  MOVWF  xF1
0638A:  MOVLB  0
0638C:  CALL   4994
....................          displayTiempo(Tpurga[1],70,20,0,2);displayTiempo(Tpurga[0],90,20,0,2);         
06390:  MOVFF  4E4,5D3
06394:  MOVLW  46
06396:  MOVLB  5
06398:  MOVWF  xD4
0639A:  MOVLW  14
0639C:  MOVWF  xD5
0639E:  CLRF   xD6
063A0:  MOVLW  02
063A2:  MOVWF  xD7
063A4:  MOVLB  0
063A6:  CALL   53E8
063AA:  MOVFF  4E3,5D3
063AE:  MOVLW  5A
063B0:  MOVLB  5
063B2:  MOVWF  xD4
063B4:  MOVLW  14
063B6:  MOVWF  xD5
063B8:  CLRF   xD6
063BA:  MOVLW  02
063BC:  MOVWF  xD7
063BE:  MOVLB  0
063C0:  CALL   53E8
....................           
....................          VelocidadMotor(VelMotor); 
063C4:  MOVFF  5CA,5D3
063C8:  CALL   14BE
....................           
....................          if(RIGHT){ 
063CC:  BSF    F96.1
063CE:  BTFSC  F84.1
063D0:  BRA    6406
....................             delay_ms(500); 
063D2:  MOVLW  02
063D4:  MOVLB  5
063D6:  MOVWF  xD3
063D8:  MOVLW  FA
063DA:  MOVWF  xE7
063DC:  MOVLB  0
063DE:  CALL   1496
063E2:  MOVLB  5
063E4:  DECFSZ xD3,F
063E6:  BRA    63D8
....................             if(RIGHT){ 
063E8:  BSF    F96.1
063EA:  BTFSC  F84.1
063EC:  BRA    6406
....................                tiempo_purga=0;Menu=2;glcd_fillScreen(OFF);Flanco3=1; 
063EE:  MOVLB  4
063F0:  BCF    x2D.5
063F2:  MOVLW  02
063F4:  MOVWF  xC7
063F6:  MOVLB  5
063F8:  CLRF   xDB
063FA:  MOVLB  0
063FC:  CALL   1576
06400:  MOVLB  4
06402:  BSF    x2C.3
06404:  MOVLB  5
....................             } 
....................          } 
....................         
....................          if((Tpurga[0]>=Tpurgap[0])&&(Tpurga[1]>=Tpurgap[1])&&(Tpurga[2]>=Tpurgap[2])&&(Tpurga[3]>=Tpurgap[3])){ 
06406:  MOVLB  4
06408:  MOVF   xE7,W
0640A:  XORLW  80
0640C:  MOVWF  00
0640E:  MOVF   xE3,W
06410:  XORLW  80
06412:  SUBWF  00,W
06414:  BZ    6418
06416:  BC    6460
06418:  MOVF   xE8,W
0641A:  XORLW  80
0641C:  MOVWF  00
0641E:  MOVF   xE4,W
06420:  XORLW  80
06422:  SUBWF  00,W
06424:  BZ    6428
06426:  BC    6460
06428:  MOVF   xE9,W
0642A:  XORLW  80
0642C:  MOVWF  00
0642E:  MOVF   xE5,W
06430:  XORLW  80
06432:  SUBWF  00,W
06434:  BZ    6438
06436:  BC    6460
06438:  MOVF   xEA,W
0643A:  XORLW  80
0643C:  MOVWF  00
0643E:  MOVF   xE6,W
06440:  XORLW  80
06442:  SUBWF  00,W
06444:  BZ    6448
06446:  BC    6460
....................             tiempo_purga=0;Menu=2;glcd_fillScreen(OFF);flag_luz=!flag_luz;flag_blower=1;flag_toma=1; 
06448:  BCF    x2D.5
0644A:  MOVLW  02
0644C:  MOVWF  xC7
0644E:  MOVLB  5
06450:  CLRF   xDB
06452:  MOVLB  0
06454:  CALL   1576
06458:  MOVLB  4
0645A:  BTG    x2D.1
0645C:  BSF    x2C.7
0645E:  BSF    x2D.0
....................          }       
....................       } 
.................... //_--------------------------------------------------------------------------------------------------------------------------------------------------------        
....................  
.................... //_-------------------------------------------------------------------------------------------------------------------------------------------------------- 
....................       if(Menu==2){ //Menu General. 
06460:  MOVF   xC7,W
06462:  SUBLW  02
06464:  BTFSS  FD8.2
06466:  GOTO   6EB0
....................          Purga=OFF; 
0646A:  BCF    x2E.5
....................          w=0; 
0646C:  BCF    x2D.3
....................          glcd_imagen(4); 
0646E:  MOVLW  04
06470:  MOVLB  5
06472:  MOVWF  xD3
06474:  MOVLB  0
06476:  CALL   54E4
....................           
....................          if(VelMotor==1){ 
0647A:  MOVLB  5
0647C:  DECFSZ xCA,W
0647E:  BRA    6534
....................             glcd_rect(0, 29, 13, 39, YES, ON); 
06480:  CLRF   xEC
06482:  MOVLW  1D
06484:  MOVWF  xED
06486:  MOVLW  0D
06488:  MOVWF  xEE
0648A:  MOVLW  27
0648C:  MOVWF  xEF
0648E:  MOVLW  01
06490:  MOVWF  xF0
06492:  MOVWF  xF1
06494:  MOVLB  0
06496:  CALL   48D2
....................             glcd_rect(15, 26, 28, 39, NO, ON); 
0649A:  MOVLW  0F
0649C:  MOVLB  5
0649E:  MOVWF  xEC
064A0:  MOVLW  1A
064A2:  MOVWF  xED
064A4:  MOVLW  1C
064A6:  MOVWF  xEE
064A8:  MOVLW  27
064AA:  MOVWF  xEF
064AC:  CLRF   xF0
064AE:  MOVLW  01
064B0:  MOVWF  xF1
064B2:  MOVLB  0
064B4:  CALL   48D2
....................             glcd_rect(30, 23, 43, 39, NO, ON); 
064B8:  MOVLW  1E
064BA:  MOVLB  5
064BC:  MOVWF  xEC
064BE:  MOVLW  17
064C0:  MOVWF  xED
064C2:  MOVLW  2B
064C4:  MOVWF  xEE
064C6:  MOVLW  27
064C8:  MOVWF  xEF
064CA:  CLRF   xF0
064CC:  MOVLW  01
064CE:  MOVWF  xF1
064D0:  MOVLB  0
064D2:  CALL   48D2
....................             glcd_rect(45, 20, 58, 39, NO, ON); 
064D6:  MOVLW  2D
064D8:  MOVLB  5
064DA:  MOVWF  xEC
064DC:  MOVLW  14
064DE:  MOVWF  xED
064E0:  MOVLW  3A
064E2:  MOVWF  xEE
064E4:  MOVLW  27
064E6:  MOVWF  xEF
064E8:  CLRF   xF0
064EA:  MOVLW  01
064EC:  MOVWF  xF1
064EE:  MOVLB  0
064F0:  CALL   48D2
....................             glcd_rect(60, 17, 73, 39, NO, ON); 
064F4:  MOVLW  3C
064F6:  MOVLB  5
064F8:  MOVWF  xEC
064FA:  MOVLW  11
064FC:  MOVWF  xED
064FE:  MOVLW  49
06500:  MOVWF  xEE
06502:  MOVLW  27
06504:  MOVWF  xEF
06506:  CLRF   xF0
06508:  MOVLW  01
0650A:  MOVWF  xF1
0650C:  MOVLB  0
0650E:  CALL   48D2
....................             glcd_rect(75, 14, 88, 39, NO, ON); 
06512:  MOVLW  4B
06514:  MOVLB  5
06516:  MOVWF  xEC
06518:  MOVLW  0E
0651A:  MOVWF  xED
0651C:  MOVLW  58
0651E:  MOVWF  xEE
06520:  MOVLW  27
06522:  MOVWF  xEF
06524:  CLRF   xF0
06526:  MOVLW  01
06528:  MOVWF  xF1
0652A:  MOVLB  0
0652C:  CALL   48D2
....................          }else if(VelMotor==2){ 
06530:  BRA    68D2
06532:  MOVLB  5
06534:  MOVF   xCA,W
06536:  SUBLW  02
06538:  BNZ   65EE
....................             glcd_rect(0, 29, 13, 39, YES, ON); 
0653A:  CLRF   xEC
0653C:  MOVLW  1D
0653E:  MOVWF  xED
06540:  MOVLW  0D
06542:  MOVWF  xEE
06544:  MOVLW  27
06546:  MOVWF  xEF
06548:  MOVLW  01
0654A:  MOVWF  xF0
0654C:  MOVWF  xF1
0654E:  MOVLB  0
06550:  CALL   48D2
....................             glcd_rect(15, 26, 28, 39, YES, ON); 
06554:  MOVLW  0F
06556:  MOVLB  5
06558:  MOVWF  xEC
0655A:  MOVLW  1A
0655C:  MOVWF  xED
0655E:  MOVLW  1C
06560:  MOVWF  xEE
06562:  MOVLW  27
06564:  MOVWF  xEF
06566:  MOVLW  01
06568:  MOVWF  xF0
0656A:  MOVWF  xF1
0656C:  MOVLB  0
0656E:  CALL   48D2
....................             glcd_rect(30, 23, 43, 39, NO, ON); 
06572:  MOVLW  1E
06574:  MOVLB  5
06576:  MOVWF  xEC
06578:  MOVLW  17
0657A:  MOVWF  xED
0657C:  MOVLW  2B
0657E:  MOVWF  xEE
06580:  MOVLW  27
06582:  MOVWF  xEF
06584:  CLRF   xF0
06586:  MOVLW  01
06588:  MOVWF  xF1
0658A:  MOVLB  0
0658C:  CALL   48D2
....................             glcd_rect(45, 20, 58, 39, NO, ON); 
06590:  MOVLW  2D
06592:  MOVLB  5
06594:  MOVWF  xEC
06596:  MOVLW  14
06598:  MOVWF  xED
0659A:  MOVLW  3A
0659C:  MOVWF  xEE
0659E:  MOVLW  27
065A0:  MOVWF  xEF
065A2:  CLRF   xF0
065A4:  MOVLW  01
065A6:  MOVWF  xF1
065A8:  MOVLB  0
065AA:  CALL   48D2
....................             glcd_rect(60, 17, 73, 39, NO, ON); 
065AE:  MOVLW  3C
065B0:  MOVLB  5
065B2:  MOVWF  xEC
065B4:  MOVLW  11
065B6:  MOVWF  xED
065B8:  MOVLW  49
065BA:  MOVWF  xEE
065BC:  MOVLW  27
065BE:  MOVWF  xEF
065C0:  CLRF   xF0
065C2:  MOVLW  01
065C4:  MOVWF  xF1
065C6:  MOVLB  0
065C8:  CALL   48D2
....................             glcd_rect(75, 14, 88, 39, NO, ON); 
065CC:  MOVLW  4B
065CE:  MOVLB  5
065D0:  MOVWF  xEC
065D2:  MOVLW  0E
065D4:  MOVWF  xED
065D6:  MOVLW  58
065D8:  MOVWF  xEE
065DA:  MOVLW  27
065DC:  MOVWF  xEF
065DE:  CLRF   xF0
065E0:  MOVLW  01
065E2:  MOVWF  xF1
065E4:  MOVLB  0
065E6:  CALL   48D2
....................          }else if(VelMotor==3){ 
065EA:  BRA    68D2
065EC:  MOVLB  5
065EE:  MOVF   xCA,W
065F0:  SUBLW  03
065F2:  BNZ   66A8
....................             glcd_rect(0, 29, 13, 39, YES, ON); 
065F4:  CLRF   xEC
065F6:  MOVLW  1D
065F8:  MOVWF  xED
065FA:  MOVLW  0D
065FC:  MOVWF  xEE
065FE:  MOVLW  27
06600:  MOVWF  xEF
06602:  MOVLW  01
06604:  MOVWF  xF0
06606:  MOVWF  xF1
06608:  MOVLB  0
0660A:  CALL   48D2
....................             glcd_rect(15, 26, 28, 39, YES, ON); 
0660E:  MOVLW  0F
06610:  MOVLB  5
06612:  MOVWF  xEC
06614:  MOVLW  1A
06616:  MOVWF  xED
06618:  MOVLW  1C
0661A:  MOVWF  xEE
0661C:  MOVLW  27
0661E:  MOVWF  xEF
06620:  MOVLW  01
06622:  MOVWF  xF0
06624:  MOVWF  xF1
06626:  MOVLB  0
06628:  CALL   48D2
....................             glcd_rect(30, 23, 43, 39, YES, ON); 
0662C:  MOVLW  1E
0662E:  MOVLB  5
06630:  MOVWF  xEC
06632:  MOVLW  17
06634:  MOVWF  xED
06636:  MOVLW  2B
06638:  MOVWF  xEE
0663A:  MOVLW  27
0663C:  MOVWF  xEF
0663E:  MOVLW  01
06640:  MOVWF  xF0
06642:  MOVWF  xF1
06644:  MOVLB  0
06646:  CALL   48D2
....................             glcd_rect(45, 20, 58, 39, NO, ON); 
0664A:  MOVLW  2D
0664C:  MOVLB  5
0664E:  MOVWF  xEC
06650:  MOVLW  14
06652:  MOVWF  xED
06654:  MOVLW  3A
06656:  MOVWF  xEE
06658:  MOVLW  27
0665A:  MOVWF  xEF
0665C:  CLRF   xF0
0665E:  MOVLW  01
06660:  MOVWF  xF1
06662:  MOVLB  0
06664:  CALL   48D2
....................             glcd_rect(60, 17, 73, 39, NO, ON); 
06668:  MOVLW  3C
0666A:  MOVLB  5
0666C:  MOVWF  xEC
0666E:  MOVLW  11
06670:  MOVWF  xED
06672:  MOVLW  49
06674:  MOVWF  xEE
06676:  MOVLW  27
06678:  MOVWF  xEF
0667A:  CLRF   xF0
0667C:  MOVLW  01
0667E:  MOVWF  xF1
06680:  MOVLB  0
06682:  CALL   48D2
....................             glcd_rect(75, 14, 88, 39, NO, ON); 
06686:  MOVLW  4B
06688:  MOVLB  5
0668A:  MOVWF  xEC
0668C:  MOVLW  0E
0668E:  MOVWF  xED
06690:  MOVLW  58
06692:  MOVWF  xEE
06694:  MOVLW  27
06696:  MOVWF  xEF
06698:  CLRF   xF0
0669A:  MOVLW  01
0669C:  MOVWF  xF1
0669E:  MOVLB  0
066A0:  CALL   48D2
....................          }else if(VelMotor==4){ 
066A4:  BRA    68D2
066A6:  MOVLB  5
066A8:  MOVF   xCA,W
066AA:  SUBLW  04
066AC:  BNZ   6762
....................             glcd_rect(0, 29, 13, 39, YES, ON); 
066AE:  CLRF   xEC
066B0:  MOVLW  1D
066B2:  MOVWF  xED
066B4:  MOVLW  0D
066B6:  MOVWF  xEE
066B8:  MOVLW  27
066BA:  MOVWF  xEF
066BC:  MOVLW  01
066BE:  MOVWF  xF0
066C0:  MOVWF  xF1
066C2:  MOVLB  0
066C4:  CALL   48D2
....................             glcd_rect(15, 26, 28, 39, YES, ON); 
066C8:  MOVLW  0F
066CA:  MOVLB  5
066CC:  MOVWF  xEC
066CE:  MOVLW  1A
066D0:  MOVWF  xED
066D2:  MOVLW  1C
066D4:  MOVWF  xEE
066D6:  MOVLW  27
066D8:  MOVWF  xEF
066DA:  MOVLW  01
066DC:  MOVWF  xF0
066DE:  MOVWF  xF1
066E0:  MOVLB  0
066E2:  CALL   48D2
....................             glcd_rect(30, 23, 43, 39, YES, ON); 
066E6:  MOVLW  1E
066E8:  MOVLB  5
066EA:  MOVWF  xEC
066EC:  MOVLW  17
066EE:  MOVWF  xED
066F0:  MOVLW  2B
066F2:  MOVWF  xEE
066F4:  MOVLW  27
066F6:  MOVWF  xEF
066F8:  MOVLW  01
066FA:  MOVWF  xF0
066FC:  MOVWF  xF1
066FE:  MOVLB  0
06700:  CALL   48D2
....................             glcd_rect(45, 20, 58, 39, YES, ON); 
06704:  MOVLW  2D
06706:  MOVLB  5
06708:  MOVWF  xEC
0670A:  MOVLW  14
0670C:  MOVWF  xED
0670E:  MOVLW  3A
06710:  MOVWF  xEE
06712:  MOVLW  27
06714:  MOVWF  xEF
06716:  MOVLW  01
06718:  MOVWF  xF0
0671A:  MOVWF  xF1
0671C:  MOVLB  0
0671E:  CALL   48D2
....................             glcd_rect(60, 17, 73, 39, NO, ON); 
06722:  MOVLW  3C
06724:  MOVLB  5
06726:  MOVWF  xEC
06728:  MOVLW  11
0672A:  MOVWF  xED
0672C:  MOVLW  49
0672E:  MOVWF  xEE
06730:  MOVLW  27
06732:  MOVWF  xEF
06734:  CLRF   xF0
06736:  MOVLW  01
06738:  MOVWF  xF1
0673A:  MOVLB  0
0673C:  CALL   48D2
....................             glcd_rect(75, 14, 88, 39, NO, ON); 
06740:  MOVLW  4B
06742:  MOVLB  5
06744:  MOVWF  xEC
06746:  MOVLW  0E
06748:  MOVWF  xED
0674A:  MOVLW  58
0674C:  MOVWF  xEE
0674E:  MOVLW  27
06750:  MOVWF  xEF
06752:  CLRF   xF0
06754:  MOVLW  01
06756:  MOVWF  xF1
06758:  MOVLB  0
0675A:  CALL   48D2
....................          }else if(VelMotor==5){ 
0675E:  BRA    68D2
06760:  MOVLB  5
06762:  MOVF   xCA,W
06764:  SUBLW  05
06766:  BNZ   681C
....................             glcd_rect(0, 29, 13, 39, YES, ON); 
06768:  CLRF   xEC
0676A:  MOVLW  1D
0676C:  MOVWF  xED
0676E:  MOVLW  0D
06770:  MOVWF  xEE
06772:  MOVLW  27
06774:  MOVWF  xEF
06776:  MOVLW  01
06778:  MOVWF  xF0
0677A:  MOVWF  xF1
0677C:  MOVLB  0
0677E:  CALL   48D2
....................             glcd_rect(15, 26, 28, 39, YES, ON); 
06782:  MOVLW  0F
06784:  MOVLB  5
06786:  MOVWF  xEC
06788:  MOVLW  1A
0678A:  MOVWF  xED
0678C:  MOVLW  1C
0678E:  MOVWF  xEE
06790:  MOVLW  27
06792:  MOVWF  xEF
06794:  MOVLW  01
06796:  MOVWF  xF0
06798:  MOVWF  xF1
0679A:  MOVLB  0
0679C:  CALL   48D2
....................             glcd_rect(30, 23, 43, 39, YES, ON); 
067A0:  MOVLW  1E
067A2:  MOVLB  5
067A4:  MOVWF  xEC
067A6:  MOVLW  17
067A8:  MOVWF  xED
067AA:  MOVLW  2B
067AC:  MOVWF  xEE
067AE:  MOVLW  27
067B0:  MOVWF  xEF
067B2:  MOVLW  01
067B4:  MOVWF  xF0
067B6:  MOVWF  xF1
067B8:  MOVLB  0
067BA:  CALL   48D2
....................             glcd_rect(45, 20, 58, 39, YES, ON); 
067BE:  MOVLW  2D
067C0:  MOVLB  5
067C2:  MOVWF  xEC
067C4:  MOVLW  14
067C6:  MOVWF  xED
067C8:  MOVLW  3A
067CA:  MOVWF  xEE
067CC:  MOVLW  27
067CE:  MOVWF  xEF
067D0:  MOVLW  01
067D2:  MOVWF  xF0
067D4:  MOVWF  xF1
067D6:  MOVLB  0
067D8:  CALL   48D2
....................             glcd_rect(60, 17, 73, 39, YES, ON); 
067DC:  MOVLW  3C
067DE:  MOVLB  5
067E0:  MOVWF  xEC
067E2:  MOVLW  11
067E4:  MOVWF  xED
067E6:  MOVLW  49
067E8:  MOVWF  xEE
067EA:  MOVLW  27
067EC:  MOVWF  xEF
067EE:  MOVLW  01
067F0:  MOVWF  xF0
067F2:  MOVWF  xF1
067F4:  MOVLB  0
067F6:  CALL   48D2
....................             glcd_rect(75, 14, 88, 39, NO, ON); 
067FA:  MOVLW  4B
067FC:  MOVLB  5
067FE:  MOVWF  xEC
06800:  MOVLW  0E
06802:  MOVWF  xED
06804:  MOVLW  58
06806:  MOVWF  xEE
06808:  MOVLW  27
0680A:  MOVWF  xEF
0680C:  CLRF   xF0
0680E:  MOVLW  01
06810:  MOVWF  xF1
06812:  MOVLB  0
06814:  CALL   48D2
....................          }else if(VelMotor==6){ 
06818:  BRA    68D2
0681A:  MOVLB  5
0681C:  MOVF   xCA,W
0681E:  SUBLW  06
06820:  BNZ   68D2
....................             glcd_rect(0, 29, 13, 39, YES, ON); 
06822:  CLRF   xEC
06824:  MOVLW  1D
06826:  MOVWF  xED
06828:  MOVLW  0D
0682A:  MOVWF  xEE
0682C:  MOVLW  27
0682E:  MOVWF  xEF
06830:  MOVLW  01
06832:  MOVWF  xF0
06834:  MOVWF  xF1
06836:  MOVLB  0
06838:  CALL   48D2
....................             glcd_rect(15, 26, 28, 39, YES, ON); 
0683C:  MOVLW  0F
0683E:  MOVLB  5
06840:  MOVWF  xEC
06842:  MOVLW  1A
06844:  MOVWF  xED
06846:  MOVLW  1C
06848:  MOVWF  xEE
0684A:  MOVLW  27
0684C:  MOVWF  xEF
0684E:  MOVLW  01
06850:  MOVWF  xF0
06852:  MOVWF  xF1
06854:  MOVLB  0
06856:  CALL   48D2
....................             glcd_rect(30, 23, 43, 39, YES, ON); 
0685A:  MOVLW  1E
0685C:  MOVLB  5
0685E:  MOVWF  xEC
06860:  MOVLW  17
06862:  MOVWF  xED
06864:  MOVLW  2B
06866:  MOVWF  xEE
06868:  MOVLW  27
0686A:  MOVWF  xEF
0686C:  MOVLW  01
0686E:  MOVWF  xF0
06870:  MOVWF  xF1
06872:  MOVLB  0
06874:  CALL   48D2
....................             glcd_rect(45, 20, 58, 39, YES, ON); 
06878:  MOVLW  2D
0687A:  MOVLB  5
0687C:  MOVWF  xEC
0687E:  MOVLW  14
06880:  MOVWF  xED
06882:  MOVLW  3A
06884:  MOVWF  xEE
06886:  MOVLW  27
06888:  MOVWF  xEF
0688A:  MOVLW  01
0688C:  MOVWF  xF0
0688E:  MOVWF  xF1
06890:  MOVLB  0
06892:  CALL   48D2
....................             glcd_rect(60, 17, 73, 39, YES, ON); 
06896:  MOVLW  3C
06898:  MOVLB  5
0689A:  MOVWF  xEC
0689C:  MOVLW  11
0689E:  MOVWF  xED
068A0:  MOVLW  49
068A2:  MOVWF  xEE
068A4:  MOVLW  27
068A6:  MOVWF  xEF
068A8:  MOVLW  01
068AA:  MOVWF  xF0
068AC:  MOVWF  xF1
068AE:  MOVLB  0
068B0:  CALL   48D2
....................             glcd_rect(75, 14, 88, 39, YES, ON); 
068B4:  MOVLW  4B
068B6:  MOVLB  5
068B8:  MOVWF  xEC
068BA:  MOVLW  0E
068BC:  MOVWF  xED
068BE:  MOVLW  58
068C0:  MOVWF  xEE
068C2:  MOVLW  27
068C4:  MOVWF  xEF
068C6:  MOVLW  01
068C8:  MOVWF  xF0
068CA:  MOVWF  xF1
068CC:  MOVLB  0
068CE:  CALL   48D2
....................          } 
....................           
....................          if(imprimir==1){ 
068D2:  MOVLB  4
068D4:  BTFSS  x2C.6
068D6:  BRA    6A76
....................             glcd_text57(2, 12, Inflowt, 1, ON); 
068D8:  MOVLW  02
068DA:  MOVLB  5
068DC:  MOVWF  xEC
068DE:  MOVLW  0C
068E0:  MOVWF  xED
068E2:  MOVLW  04
068E4:  MOVWF  xEF
068E6:  MOVLW  6D
068E8:  MOVWF  xEE
068EA:  MOVLW  01
068EC:  MOVWF  xF0
068EE:  MOVWF  xF1
068F0:  MOVLB  0
068F2:  CALL   4994
....................             displayTiempo(VelMotor,25,11,0,1);   
068F6:  MOVFF  5CA,5D3
068FA:  MOVLW  19
068FC:  MOVLB  5
068FE:  MOVWF  xD4
06900:  MOVLW  0B
06902:  MOVWF  xD5
06904:  CLRF   xD6
06906:  MOVLW  01
06908:  MOVWF  xD7
0690A:  MOVLB  0
0690C:  CALL   53E8
....................             glcd_rect(0, 10, 95, 63, NO, ON); 
06910:  MOVLB  5
06912:  CLRF   xEC
06914:  MOVLW  0A
06916:  MOVWF  xED
06918:  MOVLW  5F
0691A:  MOVWF  xEE
0691C:  MOVLW  3F
0691E:  MOVWF  xEF
06920:  CLRF   xF0
06922:  MOVLW  01
06924:  MOVWF  xF1
06926:  MOVLB  0
06928:  CALL   48D2
....................             glcd_rect(100, 10, 127, 63, NO, ON); 
0692C:  MOVLW  64
0692E:  MOVLB  5
06930:  MOVWF  xEC
06932:  MOVLW  0A
06934:  MOVWF  xED
06936:  MOVLW  7F
06938:  MOVWF  xEE
0693A:  MOVLW  3F
0693C:  MOVWF  xEF
0693E:  CLRF   xF0
06940:  MOVLW  01
06942:  MOVWF  xF1
06944:  MOVLB  0
06946:  CALL   48D2
....................             glcd_text57(2, 51, Downflowt, 1, ON); 
0694A:  MOVLW  02
0694C:  MOVLB  5
0694E:  MOVWF  xEC
06950:  MOVLW  33
06952:  MOVWF  xED
06954:  MOVLW  04
06956:  MOVWF  xEF
06958:  MOVLW  72
0695A:  MOVWF  xEE
0695C:  MOVLW  01
0695E:  MOVWF  xF0
06960:  MOVWF  xF1
06962:  MOVLB  0
06964:  CALL   4994
....................             glcd_text57(2, 41, Vida_Filtro, 1, ON); 
06968:  MOVLW  02
0696A:  MOVLB  5
0696C:  MOVWF  xEC
0696E:  MOVLW  29
06970:  MOVWF  xED
06972:  MOVLW  04
06974:  MOVWF  xEF
06976:  MOVLW  9C
06978:  MOVWF  xEE
0697A:  MOVLW  01
0697C:  MOVWF  xF0
0697E:  MOVWF  xF1
06980:  MOVLB  0
06982:  CALL   4994
....................             displayTiempo(Ttrabajo[3],60,41,0,1);displayTiempo(Ttrabajo[2],67,41,0,1);displayTiempo(Ttrabajo[1],74,41,0,1);displayTiempo(Ttrabajo[0],82,41,0,1); 
06986:  MOVFF  4FE,5D3
0698A:  MOVLW  3C
0698C:  MOVLB  5
0698E:  MOVWF  xD4
06990:  MOVLW  29
06992:  MOVWF  xD5
06994:  CLRF   xD6
06996:  MOVLW  01
06998:  MOVWF  xD7
0699A:  MOVLB  0
0699C:  CALL   53E8
069A0:  MOVFF  4FD,5D3
069A4:  MOVLW  43
069A6:  MOVLB  5
069A8:  MOVWF  xD4
069AA:  MOVLW  29
069AC:  MOVWF  xD5
069AE:  CLRF   xD6
069B0:  MOVLW  01
069B2:  MOVWF  xD7
069B4:  MOVLB  0
069B6:  CALL   53E8
069BA:  MOVFF  4FC,5D3
069BE:  MOVLW  4A
069C0:  MOVLB  5
069C2:  MOVWF  xD4
069C4:  MOVLW  29
069C6:  MOVWF  xD5
069C8:  CLRF   xD6
069CA:  MOVLW  01
069CC:  MOVWF  xD7
069CE:  MOVLB  0
069D0:  CALL   53E8
069D4:  MOVFF  4FB,5D3
069D8:  MOVLW  52
069DA:  MOVLB  5
069DC:  MOVWF  xD4
069DE:  MOVLW  29
069E0:  MOVWF  xD5
069E2:  CLRF   xD6
069E4:  MOVLW  01
069E6:  MOVWF  xD7
069E8:  MOVLB  0
069EA:  CALL   53E8
....................             strcpy(Menus.Letra,"JPCEGH180PP-TOPA"); 
069EE:  MOVLW  04
069F0:  MOVWF  FEA
069F2:  MOVLW  16
069F4:  MOVWF  FE9
069F6:  MOVFF  FF2,5D3
069FA:  BCF    FF2.7
069FC:  MOVLW  00
069FE:  CALL   0F58
06A02:  TBLRD*-
06A04:  TBLRD*+
06A06:  MOVF   FF5,W
06A08:  MOVWF  FEE
06A0A:  IORLW  00
06A0C:  BNZ   6A04
06A0E:  MOVLB  5
06A10:  BTFSC  xD3.7
06A12:  BSF    FF2.7
....................             displayMenu(Menus.Letra,20,0,1,1); 
06A14:  MOVLW  04
06A16:  MOVWF  xDC
06A18:  MOVLW  16
06A1A:  MOVWF  xDB
06A1C:  MOVLW  14
06A1E:  MOVWF  xDD
06A20:  CLRF   xDE
06A22:  MOVLW  01
06A24:  MOVWF  xDF
06A26:  MOVWF  xE0
06A28:  MOVLB  0
06A2A:  CALL   4C06
....................             displayfloat(Temperatura,69,50,0,1); 
06A2E:  MOVLB  6
06A30:  CLRF   x09
06A32:  MOVFF  5C6,608
06A36:  MOVLB  0
06A38:  CALL   1730
06A3C:  MOVFF  00,5D3
06A40:  MOVFF  01,5D4
06A44:  MOVFF  02,5D5
06A48:  MOVFF  03,5D6
06A4C:  MOVFF  03,5DA
06A50:  MOVFF  02,5D9
06A54:  MOVFF  01,5D8
06A58:  MOVFF  00,5D7
06A5C:  MOVLW  45
06A5E:  MOVLB  5
06A60:  MOVWF  xDB
06A62:  MOVLW  32
06A64:  MOVWF  xDC
06A66:  CLRF   xDD
06A68:  MOVLW  01
06A6A:  MOVWF  xDE
06A6C:  MOVLB  0
06A6E:  CALL   5996
....................             imprimir=0; 
06A72:  MOVLB  4
06A74:  BCF    x2C.6
....................          } 
....................                    
....................          if(flag_blower==1){ 
06A76:  BTFSS  x2C.7
06A78:  BRA    6C1E
....................             glcd_imagen(5);tiempo_trabajo=1; 
06A7A:  MOVLW  05
06A7C:  MOVLB  5
06A7E:  MOVWF  xD3
06A80:  MOVLB  0
06A82:  CALL   54E4
06A86:  MOVLB  4
06A88:  BSF    x2D.6
....................             if(guardatrabajo==1){ 
06A8A:  BTFSS  x2E.1
06A8C:  BRA    6C10
....................                VelocidadMotor(6); 
06A8E:  MOVLW  06
06A90:  MOVLB  5
06A92:  MOVWF  xD3
06A94:  MOVLB  0
06A96:  CALL   14BE
....................                guardatrabajo=0; 
06A9A:  MOVLB  4
06A9C:  BCF    x2E.1
....................                write_eeprom(33,make8(minutos_trabajo,0)); 
06A9E:  MOVFF  4DF,5D3
06AA2:  CLRF   FAA
06AA4:  MOVLW  21
06AA6:  MOVWF  FA9
06AA8:  MOVFF  5D3,FA8
06AAC:  BCF    FA6.6
06AAE:  BCF    FA6.7
06AB0:  BSF    FA6.2
06AB2:  MOVF   FF2,W
06AB4:  MOVWF  00
06AB6:  BCF    FF2.7
06AB8:  MOVLB  F
06ABA:  MOVLW  55
06ABC:  MOVWF  FA7
06ABE:  MOVLW  AA
06AC0:  MOVWF  FA7
06AC2:  BSF    FA6.1
06AC4:  BTFSC  FA6.1
06AC6:  BRA    6AC4
06AC8:  BCF    FA6.2
06ACA:  MOVF   00,W
06ACC:  IORWF  FF2,F
....................                delay_ms(20); 
06ACE:  MOVLW  14
06AD0:  MOVLB  5
06AD2:  MOVWF  xE7
06AD4:  MOVLB  0
06AD6:  CALL   1496
....................                write_eeprom(34,make8(minutos_trabajo,1)); 
06ADA:  MOVFF  4E0,5D3
06ADE:  CLRF   FAA
06AE0:  MOVLW  22
06AE2:  MOVWF  FA9
06AE4:  MOVFF  5D3,FA8
06AE8:  BCF    FA6.6
06AEA:  BCF    FA6.7
06AEC:  BSF    FA6.2
06AEE:  MOVF   FF2,W
06AF0:  MOVWF  00
06AF2:  BCF    FF2.7
06AF4:  MOVLB  F
06AF6:  MOVLW  55
06AF8:  MOVWF  FA7
06AFA:  MOVLW  AA
06AFC:  MOVWF  FA7
06AFE:  BSF    FA6.1
06B00:  BTFSC  FA6.1
06B02:  BRA    6B00
06B04:  BCF    FA6.2
06B06:  MOVF   00,W
06B08:  IORWF  FF2,F
....................                delay_ms(20); 
06B0A:  MOVLW  14
06B0C:  MOVLB  5
06B0E:  MOVWF  xE7
06B10:  MOVLB  0
06B12:  CALL   1496
....................                write_eeprom(16,Ttrabajo[0]); 
06B16:  CLRF   FAA
06B18:  MOVLW  10
06B1A:  MOVWF  FA9
06B1C:  MOVFF  4FB,FA8
06B20:  BCF    FA6.6
06B22:  BCF    FA6.7
06B24:  BSF    FA6.2
06B26:  MOVF   FF2,W
06B28:  MOVWF  00
06B2A:  BCF    FF2.7
06B2C:  MOVLB  F
06B2E:  MOVLW  55
06B30:  MOVWF  FA7
06B32:  MOVLW  AA
06B34:  MOVWF  FA7
06B36:  BSF    FA6.1
06B38:  BTFSC  FA6.1
06B3A:  BRA    6B38
06B3C:  BCF    FA6.2
06B3E:  MOVF   00,W
06B40:  IORWF  FF2,F
....................                delay_ms(20); 
06B42:  MOVLW  14
06B44:  MOVLB  5
06B46:  MOVWF  xE7
06B48:  MOVLB  0
06B4A:  CALL   1496
....................                write_eeprom(17,Ttrabajo[1]); 
06B4E:  CLRF   FAA
06B50:  MOVLW  11
06B52:  MOVWF  FA9
06B54:  MOVFF  4FC,FA8
06B58:  BCF    FA6.6
06B5A:  BCF    FA6.7
06B5C:  BSF    FA6.2
06B5E:  MOVF   FF2,W
06B60:  MOVWF  00
06B62:  BCF    FF2.7
06B64:  MOVLB  F
06B66:  MOVLW  55
06B68:  MOVWF  FA7
06B6A:  MOVLW  AA
06B6C:  MOVWF  FA7
06B6E:  BSF    FA6.1
06B70:  BTFSC  FA6.1
06B72:  BRA    6B70
06B74:  BCF    FA6.2
06B76:  MOVF   00,W
06B78:  IORWF  FF2,F
....................                delay_ms(20); 
06B7A:  MOVLW  14
06B7C:  MOVLB  5
06B7E:  MOVWF  xE7
06B80:  MOVLB  0
06B82:  CALL   1496
....................                write_eeprom(18,Ttrabajo[2]); 
06B86:  CLRF   FAA
06B88:  MOVLW  12
06B8A:  MOVWF  FA9
06B8C:  MOVFF  4FD,FA8
06B90:  BCF    FA6.6
06B92:  BCF    FA6.7
06B94:  BSF    FA6.2
06B96:  MOVF   FF2,W
06B98:  MOVWF  00
06B9A:  BCF    FF2.7
06B9C:  MOVLB  F
06B9E:  MOVLW  55
06BA0:  MOVWF  FA7
06BA2:  MOVLW  AA
06BA4:  MOVWF  FA7
06BA6:  BSF    FA6.1
06BA8:  BTFSC  FA6.1
06BAA:  BRA    6BA8
06BAC:  BCF    FA6.2
06BAE:  MOVF   00,W
06BB0:  IORWF  FF2,F
....................                delay_ms(20); 
06BB2:  MOVLW  14
06BB4:  MOVLB  5
06BB6:  MOVWF  xE7
06BB8:  MOVLB  0
06BBA:  CALL   1496
....................                write_eeprom(19,Ttrabajo[3]); 
06BBE:  CLRF   FAA
06BC0:  MOVLW  13
06BC2:  MOVWF  FA9
06BC4:  MOVFF  4FE,FA8
06BC8:  BCF    FA6.6
06BCA:  BCF    FA6.7
06BCC:  BSF    FA6.2
06BCE:  MOVF   FF2,W
06BD0:  MOVWF  00
06BD2:  BCF    FF2.7
06BD4:  MOVLB  F
06BD6:  MOVLW  55
06BD8:  MOVWF  FA7
06BDA:  MOVLW  AA
06BDC:  MOVWF  FA7
06BDE:  BSF    FA6.1
06BE0:  BTFSC  FA6.1
06BE2:  BRA    6BE0
06BE4:  BCF    FA6.2
06BE6:  MOVF   00,W
06BE8:  IORWF  FF2,F
....................                delay_ms(20); 
06BEA:  MOVLW  14
06BEC:  MOVLB  5
06BEE:  MOVWF  xE7
06BF0:  MOVLB  0
06BF2:  CALL   1496
....................                glcd_init(ON);             //Inicializa la glcd 
06BF6:  MOVLW  01
06BF8:  MOVLB  5
06BFA:  MOVWF  xD3
06BFC:  MOVLB  0
06BFE:  CALL   1688
....................                glcd_fillScreen(OFF);      //Limpia la pantalla 
06C02:  MOVLB  5
06C04:  CLRF   xDB
06C06:  MOVLB  0
06C08:  CALL   1576
....................                glcd_update();   
06C0C:  CALL   15D0
....................             } 
....................             VelocidadMotor(VelMotor); 
06C10:  MOVFF  5CA,5D3
06C14:  MOVLB  0
06C16:  CALL   14BE
....................          }else{ 
06C1A:  BRA    6DB6
06C1C:  MOVLB  4
....................             Filtro_Downflow=0; 
06C1E:  MOVLB  5
06C20:  CLRF   x12
06C22:  CLRF   x11
06C24:  CLRF   x10
06C26:  CLRF   x0F
....................             glcd_rect(102, 45, 126, 62, YES, OFF);tiempo_trabajo=0;VelocidadMotor(0); 
06C28:  MOVLW  66
06C2A:  MOVWF  xEC
06C2C:  MOVLW  2D
06C2E:  MOVWF  xED
06C30:  MOVLW  7E
06C32:  MOVWF  xEE
06C34:  MOVLW  3E
06C36:  MOVWF  xEF
06C38:  MOVLW  01
06C3A:  MOVWF  xF0
06C3C:  CLRF   xF1
06C3E:  MOVLB  0
06C40:  CALL   48D2
06C44:  MOVLB  4
06C46:  BCF    x2D.6
06C48:  MOVLB  5
06C4A:  CLRF   xD3
06C4C:  MOVLB  0
06C4E:  CALL   14BE
....................             if(guardatrabajo==0){ 
06C52:  MOVLB  4
06C54:  BTFSC  x2E.1
06C56:  BRA    6DB8
....................                guardatrabajo=1; 
06C58:  BSF    x2E.1
....................                write_eeprom(33,make8(minutos_trabajo,0)); 
06C5A:  MOVFF  4DF,5D3
06C5E:  CLRF   FAA
06C60:  MOVLW  21
06C62:  MOVWF  FA9
06C64:  MOVFF  5D3,FA8
06C68:  BCF    FA6.6
06C6A:  BCF    FA6.7
06C6C:  BSF    FA6.2
06C6E:  MOVF   FF2,W
06C70:  MOVWF  00
06C72:  BCF    FF2.7
06C74:  MOVLB  F
06C76:  MOVLW  55
06C78:  MOVWF  FA7
06C7A:  MOVLW  AA
06C7C:  MOVWF  FA7
06C7E:  BSF    FA6.1
06C80:  BTFSC  FA6.1
06C82:  BRA    6C80
06C84:  BCF    FA6.2
06C86:  MOVF   00,W
06C88:  IORWF  FF2,F
....................                delay_ms(20); 
06C8A:  MOVLW  14
06C8C:  MOVLB  5
06C8E:  MOVWF  xE7
06C90:  MOVLB  0
06C92:  CALL   1496
....................                write_eeprom(34,make8(minutos_trabajo,1)); 
06C96:  MOVFF  4E0,5D3
06C9A:  CLRF   FAA
06C9C:  MOVLW  22
06C9E:  MOVWF  FA9
06CA0:  MOVFF  5D3,FA8
06CA4:  BCF    FA6.6
06CA6:  BCF    FA6.7
06CA8:  BSF    FA6.2
06CAA:  MOVF   FF2,W
06CAC:  MOVWF  00
06CAE:  BCF    FF2.7
06CB0:  MOVLB  F
06CB2:  MOVLW  55
06CB4:  MOVWF  FA7
06CB6:  MOVLW  AA
06CB8:  MOVWF  FA7
06CBA:  BSF    FA6.1
06CBC:  BTFSC  FA6.1
06CBE:  BRA    6CBC
06CC0:  BCF    FA6.2
06CC2:  MOVF   00,W
06CC4:  IORWF  FF2,F
....................                delay_ms(20); 
06CC6:  MOVLW  14
06CC8:  MOVLB  5
06CCA:  MOVWF  xE7
06CCC:  MOVLB  0
06CCE:  CALL   1496
....................                write_eeprom(16,Ttrabajo[0]); 
06CD2:  CLRF   FAA
06CD4:  MOVLW  10
06CD6:  MOVWF  FA9
06CD8:  MOVFF  4FB,FA8
06CDC:  BCF    FA6.6
06CDE:  BCF    FA6.7
06CE0:  BSF    FA6.2
06CE2:  MOVF   FF2,W
06CE4:  MOVWF  00
06CE6:  BCF    FF2.7
06CE8:  MOVLB  F
06CEA:  MOVLW  55
06CEC:  MOVWF  FA7
06CEE:  MOVLW  AA
06CF0:  MOVWF  FA7
06CF2:  BSF    FA6.1
06CF4:  BTFSC  FA6.1
06CF6:  BRA    6CF4
06CF8:  BCF    FA6.2
06CFA:  MOVF   00,W
06CFC:  IORWF  FF2,F
....................                delay_ms(20); 
06CFE:  MOVLW  14
06D00:  MOVLB  5
06D02:  MOVWF  xE7
06D04:  MOVLB  0
06D06:  CALL   1496
....................                write_eeprom(17,Ttrabajo[1]); 
06D0A:  CLRF   FAA
06D0C:  MOVLW  11
06D0E:  MOVWF  FA9
06D10:  MOVFF  4FC,FA8
06D14:  BCF    FA6.6
06D16:  BCF    FA6.7
06D18:  BSF    FA6.2
06D1A:  MOVF   FF2,W
06D1C:  MOVWF  00
06D1E:  BCF    FF2.7
06D20:  MOVLB  F
06D22:  MOVLW  55
06D24:  MOVWF  FA7
06D26:  MOVLW  AA
06D28:  MOVWF  FA7
06D2A:  BSF    FA6.1
06D2C:  BTFSC  FA6.1
06D2E:  BRA    6D2C
06D30:  BCF    FA6.2
06D32:  MOVF   00,W
06D34:  IORWF  FF2,F
....................                delay_ms(20); 
06D36:  MOVLW  14
06D38:  MOVLB  5
06D3A:  MOVWF  xE7
06D3C:  MOVLB  0
06D3E:  CALL   1496
....................                write_eeprom(18,Ttrabajo[2]); 
06D42:  CLRF   FAA
06D44:  MOVLW  12
06D46:  MOVWF  FA9
06D48:  MOVFF  4FD,FA8
06D4C:  BCF    FA6.6
06D4E:  BCF    FA6.7
06D50:  BSF    FA6.2
06D52:  MOVF   FF2,W
06D54:  MOVWF  00
06D56:  BCF    FF2.7
06D58:  MOVLB  F
06D5A:  MOVLW  55
06D5C:  MOVWF  FA7
06D5E:  MOVLW  AA
06D60:  MOVWF  FA7
06D62:  BSF    FA6.1
06D64:  BTFSC  FA6.1
06D66:  BRA    6D64
06D68:  BCF    FA6.2
06D6A:  MOVF   00,W
06D6C:  IORWF  FF2,F
....................                delay_ms(20); 
06D6E:  MOVLW  14
06D70:  MOVLB  5
06D72:  MOVWF  xE7
06D74:  MOVLB  0
06D76:  CALL   1496
....................                write_eeprom(19,Ttrabajo[3]); 
06D7A:  CLRF   FAA
06D7C:  MOVLW  13
06D7E:  MOVWF  FA9
06D80:  MOVFF  4FE,FA8
06D84:  BCF    FA6.6
06D86:  BCF    FA6.7
06D88:  BSF    FA6.2
06D8A:  MOVF   FF2,W
06D8C:  MOVWF  00
06D8E:  BCF    FF2.7
06D90:  MOVLB  F
06D92:  MOVLW  55
06D94:  MOVWF  FA7
06D96:  MOVLW  AA
06D98:  MOVWF  FA7
06D9A:  BSF    FA6.1
06D9C:  BTFSC  FA6.1
06D9E:  BRA    6D9C
06DA0:  BCF    FA6.2
06DA2:  MOVF   00,W
06DA4:  IORWF  FF2,F
....................                delay_ms(20); 
06DA6:  MOVLW  14
06DA8:  MOVLB  5
06DAA:  MOVWF  xE7
06DAC:  MOVLB  0
06DAE:  CALL   1496
....................                //glcd_init(ON);             //Inicializa la glcd 
....................                //glcd_fillScreen(OFF);      //Limpia la pantalla 
....................                glcd_update();   
06DB2:  CALL   15D0
06DB6:  MOVLB  4
....................             } 
....................          } 
....................           
....................          if(flag_luz==1){ 
06DB8:  BTFSS  x2D.1
06DBA:  BRA    6DD0
....................             glcd_imagen(3);LuzBlanca_on; 
06DBC:  MOVLW  03
06DBE:  MOVLB  5
06DC0:  MOVWF  xD3
06DC2:  MOVLB  0
06DC4:  CALL   54E4
06DC8:  BSF    F8B.0
06DCA:  BCF    F94.0
....................          }else{ 
06DCC:  BRA    6DF2
06DCE:  MOVLB  4
....................             glcd_rect(102, 14, 126, 28, YES, OFF);LuzBlanca_off; 
06DD0:  MOVLW  66
06DD2:  MOVLB  5
06DD4:  MOVWF  xEC
06DD6:  MOVLW  0E
06DD8:  MOVWF  xED
06DDA:  MOVLW  7E
06DDC:  MOVWF  xEE
06DDE:  MOVLW  1C
06DE0:  MOVWF  xEF
06DE2:  MOVLW  01
06DE4:  MOVWF  xF0
06DE6:  CLRF   xF1
06DE8:  MOVLB  0
06DEA:  CALL   48D2
06DEE:  BCF    F8B.0
06DF0:  BCF    F94.0
....................          } 
....................           
....................       if(RIGHT){//Si oprime boton de Luz UV.          
06DF2:  BSF    F96.1
06DF4:  BTFSC  F84.1
06DF6:  BRA    6E14
....................          if(Flanco4 == 0){ 
06DF8:  MOVLB  4
06DFA:  BTFSC  x2C.4
06DFC:  BRA    6E10
....................             Flanco4 = 1;delay_ms(3);flag_blower=!flag_blower; 
06DFE:  BSF    x2C.4
06E00:  MOVLW  03
06E02:  MOVLB  5
06E04:  MOVWF  xE7
06E06:  MOVLB  0
06E08:  CALL   1496
06E0C:  MOVLB  4
06E0E:  BTG    x2C.7
....................          } 
....................       }else{ 
06E10:  BRA    6E18
06E12:  MOVLB  0
....................          Flanco4 = 0; 
06E14:  MOVLB  4
06E16:  BCF    x2C.4
....................       } 
....................           
....................       if(LEFT){//Si oprime boton de Blower. 
06E18:  BSF    F96.2
06E1A:  BTFSC  F84.2
06E1C:  BRA    6E44
....................          if(Flanco3 == 0){ 
06E1E:  BTFSC  x2C.3
06E20:  BRA    6E42
....................             Flanco3 = 1;delay_ms(3);Menu=33;glcd_fillScreen(OFF);      //Limpia la pantalla 
06E22:  BSF    x2C.3
06E24:  MOVLW  03
06E26:  MOVLB  5
06E28:  MOVWF  xE7
06E2A:  MOVLB  0
06E2C:  CALL   1496
06E30:  MOVLW  21
06E32:  MOVLB  4
06E34:  MOVWF  xC7
06E36:  MOVLB  5
06E38:  CLRF   xDB
06E3A:  MOVLB  0
06E3C:  CALL   1576
06E40:  MOVLB  4
....................          } 
....................       }else{ 
06E42:  BRA    6E46
....................          Flanco3 = 0; 
06E44:  BCF    x2C.3
....................       } 
....................              
....................       if(DOWN){//Si oprime boton de Luz Blanca. 
06E46:  BSF    F96.0
06E48:  BTFSC  F84.0
06E4A:  BRA    6E64
....................          if(Flanco5 == 0){ 
06E4C:  BTFSC  x2C.5
06E4E:  BRA    6E62
....................             Flanco5 = 1;delay_ms(3);flag_luz=!flag_luz; 
06E50:  BSF    x2C.5
06E52:  MOVLW  03
06E54:  MOVLB  5
06E56:  MOVWF  xE7
06E58:  MOVLB  0
06E5A:  CALL   1496
06E5E:  MOVLB  4
06E60:  BTG    x2D.1
....................          } 
....................       }else{ 
06E62:  BRA    6E66
....................          Flanco5 = 0; 
06E64:  BCF    x2C.5
....................       } 
....................        
....................       if(UP){//Si oprime boton de Toma. 
06E66:  BSF    F92.5
06E68:  BTFSC  F80.5
06E6A:  BRA    6EB0
....................          delay_ms(20); 
06E6C:  MOVLW  14
06E6E:  MOVLB  5
06E70:  MOVWF  xE7
06E72:  MOVLB  0
06E74:  CALL   1496
....................          if(UP){//Si oprime boton de Toma. 
06E78:  BSF    F92.5
06E7A:  BTFSC  F80.5
06E7C:  BRA    6EAE
....................             delay_ms(5);Menu=3;//glcd_fillScreen(OFF); 
06E7E:  MOVLW  05
06E80:  MOVLB  5
06E82:  MOVWF  xE7
06E84:  MOVLB  0
06E86:  CALL   1496
06E8A:  MOVLW  03
06E8C:  MOVLB  4
06E8E:  MOVWF  xC7
....................             glcd_init(ON);             //Inicializa la glcd 
06E90:  MOVLW  01
06E92:  MOVLB  5
06E94:  MOVWF  xD3
06E96:  MOVLB  0
06E98:  CALL   1688
....................             glcd_fillScreen(OFF);      //Limpia la pantalla 
06E9C:  MOVLB  5
06E9E:  CLRF   xDB
06EA0:  MOVLB  0
06EA2:  CALL   1576
....................             glcd_update();   
06EA6:  CALL   15D0
....................             LuzBlanca_off; 
06EAA:  BCF    F8B.0
06EAC:  BCF    F94.0
06EAE:  MOVLB  4
....................          } 
....................       } 
....................              
....................     } 
.................... //_--------------------------------------------------------------------------------------------------------------------------------------------------------        
....................  
.................... //_-------------------------------------------------------------------------------------------------------------------------------------------------------- 
....................       if(Menu==3){ //Menu Principal. 
06EB0:  MOVF   xC7,W
06EB2:  SUBLW  03
06EB4:  BTFSS  FD8.2
06EB6:  BRA    719E
....................              
....................       strcpy(Menus.Letra,"Menu"); 
06EB8:  MOVLW  04
06EBA:  MOVWF  FEA
06EBC:  MOVLW  16
06EBE:  MOVWF  FE9
06EC0:  MOVFF  FF2,5D3
06EC4:  BCF    FF2.7
06EC6:  MOVLW  00
06EC8:  MOVLB  0
06ECA:  CALL   0F84
06ECE:  TBLRD*-
06ED0:  TBLRD*+
06ED2:  MOVF   FF5,W
06ED4:  MOVWF  FEE
06ED6:  IORLW  00
06ED8:  BNZ   6ED0
06EDA:  MOVLB  5
06EDC:  BTFSC  xD3.7
06EDE:  BSF    FF2.7
....................       displayMenu(Menus.Letra,40,0,1,2); 
06EE0:  MOVLW  04
06EE2:  MOVWF  xDC
06EE4:  MOVLW  16
06EE6:  MOVWF  xDB
06EE8:  MOVLW  28
06EEA:  MOVWF  xDD
06EEC:  CLRF   xDE
06EEE:  MOVLW  01
06EF0:  MOVWF  xDF
06EF2:  MOVLW  02
06EF4:  MOVWF  xE0
06EF6:  MOVLB  0
06EF8:  CALL   4C06
....................        
....................       if(Opcion==1){ 
06EFC:  MOVLB  4
06EFE:  DECFSZ xC9,W
06F00:  BRA    6F48
....................          strcpy(Menus.Letra,"Ajustes"); 
06F02:  MOVLW  04
06F04:  MOVWF  FEA
06F06:  MOVLW  16
06F08:  MOVWF  FE9
06F0A:  MOVFF  FF2,5D3
06F0E:  BCF    FF2.7
06F10:  MOVLW  00
06F12:  MOVLB  0
06F14:  CALL   0FA4
06F18:  TBLRD*-
06F1A:  TBLRD*+
06F1C:  MOVF   FF5,W
06F1E:  MOVWF  FEE
06F20:  IORLW  00
06F22:  BNZ   6F1A
06F24:  MOVLB  5
06F26:  BTFSC  xD3.7
06F28:  BSF    FF2.7
....................          displayMenu(Menus.Letra,0,19,1,1); 
06F2A:  MOVLW  04
06F2C:  MOVWF  xDC
06F2E:  MOVLW  16
06F30:  MOVWF  xDB
06F32:  CLRF   xDD
06F34:  MOVLW  13
06F36:  MOVWF  xDE
06F38:  MOVLW  01
06F3A:  MOVWF  xDF
06F3C:  MOVWF  xE0
06F3E:  MOVLB  0
06F40:  CALL   4C06
....................       }else{ 
06F44:  BRA    6F8A
06F46:  MOVLB  4
....................          strcpy(Menus.Letra,"Ajustes"); 
06F48:  MOVLW  04
06F4A:  MOVWF  FEA
06F4C:  MOVLW  16
06F4E:  MOVWF  FE9
06F50:  MOVFF  FF2,5D3
06F54:  BCF    FF2.7
06F56:  MOVLW  00
06F58:  MOVLB  0
06F5A:  CALL   0FA4
06F5E:  TBLRD*-
06F60:  TBLRD*+
06F62:  MOVF   FF5,W
06F64:  MOVWF  FEE
06F66:  IORLW  00
06F68:  BNZ   6F60
06F6A:  MOVLB  5
06F6C:  BTFSC  xD3.7
06F6E:  BSF    FF2.7
....................          displayMenu(Menus.Letra,0,19,0,1); 
06F70:  MOVLW  04
06F72:  MOVWF  xDC
06F74:  MOVLW  16
06F76:  MOVWF  xDB
06F78:  CLRF   xDD
06F7A:  MOVLW  13
06F7C:  MOVWF  xDE
06F7E:  CLRF   xDF
06F80:  MOVLW  01
06F82:  MOVWF  xE0
06F84:  MOVLB  0
06F86:  CALL   4C06
....................       } 
....................           
....................       if(Opcion==2){ 
06F8A:  MOVLB  4
06F8C:  MOVF   xC9,W
06F8E:  SUBLW  02
06F90:  BNZ   6FD8
....................          strcpy(Menus.Letra,"Cambio de Clave"); 
06F92:  MOVLW  04
06F94:  MOVWF  FEA
06F96:  MOVLW  16
06F98:  MOVWF  FE9
06F9A:  MOVFF  FF2,5D3
06F9E:  BCF    FF2.7
06FA0:  MOVLW  00
06FA2:  MOVLB  0
06FA4:  CALL   0FC6
06FA8:  TBLRD*-
06FAA:  TBLRD*+
06FAC:  MOVF   FF5,W
06FAE:  MOVWF  FEE
06FB0:  IORLW  00
06FB2:  BNZ   6FAA
06FB4:  MOVLB  5
06FB6:  BTFSC  xD3.7
06FB8:  BSF    FF2.7
....................          displayMenu(Menus.Letra,0,35,1,1); 
06FBA:  MOVLW  04
06FBC:  MOVWF  xDC
06FBE:  MOVLW  16
06FC0:  MOVWF  xDB
06FC2:  CLRF   xDD
06FC4:  MOVLW  23
06FC6:  MOVWF  xDE
06FC8:  MOVLW  01
06FCA:  MOVWF  xDF
06FCC:  MOVWF  xE0
06FCE:  MOVLB  0
06FD0:  CALL   4C06
....................       }else{ 
06FD4:  BRA    701A
06FD6:  MOVLB  4
....................          strcpy(Menus.Letra,"Cambio de Clave"); 
06FD8:  MOVLW  04
06FDA:  MOVWF  FEA
06FDC:  MOVLW  16
06FDE:  MOVWF  FE9
06FE0:  MOVFF  FF2,5D3
06FE4:  BCF    FF2.7
06FE6:  MOVLW  00
06FE8:  MOVLB  0
06FEA:  CALL   0FC6
06FEE:  TBLRD*-
06FF0:  TBLRD*+
06FF2:  MOVF   FF5,W
06FF4:  MOVWF  FEE
06FF6:  IORLW  00
06FF8:  BNZ   6FF0
06FFA:  MOVLB  5
06FFC:  BTFSC  xD3.7
06FFE:  BSF    FF2.7
....................          displayMenu(Menus.Letra,0,35,0,1); 
07000:  MOVLW  04
07002:  MOVWF  xDC
07004:  MOVLW  16
07006:  MOVWF  xDB
07008:  CLRF   xDD
0700A:  MOVLW  23
0700C:  MOVWF  xDE
0700E:  CLRF   xDF
07010:  MOVLW  01
07012:  MOVWF  xE0
07014:  MOVLB  0
07016:  CALL   4C06
....................       } 
....................           
....................       if(Opcion==3){ 
0701A:  MOVLB  4
0701C:  MOVF   xC9,W
0701E:  SUBLW  03
07020:  BNZ   7068
....................          strcpy(Menus.Letra,"Modo"); 
07022:  MOVLW  04
07024:  MOVWF  FEA
07026:  MOVLW  16
07028:  MOVWF  FE9
0702A:  MOVFF  FF2,5D3
0702E:  BCF    FF2.7
07030:  MOVLW  00
07032:  MOVLB  0
07034:  CALL   0FF0
07038:  TBLRD*-
0703A:  TBLRD*+
0703C:  MOVF   FF5,W
0703E:  MOVWF  FEE
07040:  IORLW  00
07042:  BNZ   703A
07044:  MOVLB  5
07046:  BTFSC  xD3.7
07048:  BSF    FF2.7
....................          displayMenu(Menus.Letra,0,51,1,1); 
0704A:  MOVLW  04
0704C:  MOVWF  xDC
0704E:  MOVLW  16
07050:  MOVWF  xDB
07052:  CLRF   xDD
07054:  MOVLW  33
07056:  MOVWF  xDE
07058:  MOVLW  01
0705A:  MOVWF  xDF
0705C:  MOVWF  xE0
0705E:  MOVLB  0
07060:  CALL   4C06
....................       }else{ 
07064:  BRA    70AA
07066:  MOVLB  4
....................          strcpy(Menus.Letra,"Modo"); 
07068:  MOVLW  04
0706A:  MOVWF  FEA
0706C:  MOVLW  16
0706E:  MOVWF  FE9
07070:  MOVFF  FF2,5D3
07074:  BCF    FF2.7
07076:  MOVLW  00
07078:  MOVLB  0
0707A:  CALL   0FF0
0707E:  TBLRD*-
07080:  TBLRD*+
07082:  MOVF   FF5,W
07084:  MOVWF  FEE
07086:  IORLW  00
07088:  BNZ   7080
0708A:  MOVLB  5
0708C:  BTFSC  xD3.7
0708E:  BSF    FF2.7
....................          displayMenu(Menus.Letra,0,51,0,1); 
07090:  MOVLW  04
07092:  MOVWF  xDC
07094:  MOVLW  16
07096:  MOVWF  xDB
07098:  CLRF   xDD
0709A:  MOVLW  33
0709C:  MOVWF  xDE
0709E:  CLRF   xDF
070A0:  MOVLW  01
070A2:  MOVWF  xE0
070A4:  MOVLB  0
070A6:  CALL   4C06
....................       } 
....................       glcd_update();  
070AA:  CALL   15D0
....................        
....................       if(w==0){ 
070AE:  MOVLB  4
070B0:  BTFSC  x2D.3
070B2:  BRA    70CE
....................          delay_ms(500);w=1; 
070B4:  MOVLW  02
070B6:  MOVLB  5
070B8:  MOVWF  xD3
070BA:  MOVLW  FA
070BC:  MOVWF  xE7
070BE:  MOVLB  0
070C0:  CALL   1496
070C4:  MOVLB  5
070C6:  DECFSZ xD3,F
070C8:  BRA    70BA
070CA:  MOVLB  4
070CC:  BSF    x2D.3
....................       } 
....................           
....................       if(UP){//Si oprime hacia arriba         
070CE:  BSF    F92.5
070D0:  BTFSC  F80.5
070D2:  BRA    70EC
....................          if(Flanco == 0){ 
070D4:  BTFSC  x2C.0
070D6:  BRA    70EA
....................             Flanco = 1;delay_ms(30);Opcion--; 
070D8:  BSF    x2C.0
070DA:  MOVLW  1E
070DC:  MOVLB  5
070DE:  MOVWF  xE7
070E0:  MOVLB  0
070E2:  CALL   1496
070E6:  MOVLB  4
070E8:  DECF   xC9,F
....................          } 
....................       }else{ 
070EA:  BRA    70EE
....................          Flanco = 0; 
070EC:  BCF    x2C.0
....................       } 
....................              
....................       if(DOWN){//Si oprime hacia abajo 
070EE:  BSF    F96.0
070F0:  BTFSC  F84.0
070F2:  BRA    710C
....................          if(Flanco2 == 0){ 
070F4:  BTFSC  x2C.2
070F6:  BRA    710A
....................             Flanco2 = 1;delay_ms(30);Opcion++; 
070F8:  BSF    x2C.2
070FA:  MOVLW  1E
070FC:  MOVLB  5
070FE:  MOVWF  xE7
07100:  MOVLB  0
07102:  CALL   1496
07106:  MOVLB  4
07108:  INCF   xC9,F
....................          } 
....................       }else{ 
0710A:  BRA    710E
....................          Flanco2 = 0; 
0710C:  BCF    x2C.2
....................       } 
....................              
....................       if(RIGHT){//Si oprime SET 
0710E:  BSF    F96.1
07110:  BTFSC  F84.1
07112:  BRA    715C
....................          if(Flanco1 == 0){ 
07114:  BTFSC  x2C.1
07116:  BRA    715A
....................             Flanco1 = 1;delay_ms(500);Menu=Opcion+3;Opcion=1;glcd_fillscreen(OFF);unidad=1; 
07118:  BSF    x2C.1
0711A:  MOVLW  02
0711C:  MOVLB  5
0711E:  MOVWF  xD3
07120:  MOVLW  FA
07122:  MOVWF  xE7
07124:  MOVLB  0
07126:  CALL   1496
0712A:  MOVLB  5
0712C:  DECFSZ xD3,F
0712E:  BRA    7120
07130:  MOVLW  03
07132:  MOVLB  4
07134:  ADDWF  xC9,W
07136:  MOVWF  xC7
07138:  MOVLW  01
0713A:  MOVWF  xC9
0713C:  MOVLB  5
0713E:  CLRF   xDB
07140:  MOVLB  0
07142:  CALL   1576
07146:  MOVLW  01
07148:  MOVLB  4
0714A:  MOVWF  xC8
....................             Contrasena[0]=0;Contrasena[1]=0;Contrasena[2]=0;Contrasena[3]=0;n=0; 
0714C:  CLRF   xFF
0714E:  MOVLB  5
07150:  CLRF   x00
07152:  CLRF   x01
07154:  CLRF   x02
07156:  MOVLB  4
07158:  BCF    x2E.3
....................          } 
....................       }else{ 
0715A:  BRA    715E
....................          Flanco1 = 0; 
0715C:  BCF    x2C.1
....................       } 
....................              
....................       if(LEFT){//Si oprime boton de Toma. 
0715E:  BSF    F96.2
07160:  BTFSC  F84.2
07162:  BRA    718C
....................          delay_ms(700);Menu=2;glcd_fillscreen(OFF); 
07164:  MOVLW  04
07166:  MOVLB  5
07168:  MOVWF  xD3
0716A:  MOVLW  AF
0716C:  MOVWF  xE7
0716E:  MOVLB  0
07170:  CALL   1496
07174:  MOVLB  5
07176:  DECFSZ xD3,F
07178:  BRA    716A
0717A:  MOVLW  02
0717C:  MOVLB  4
0717E:  MOVWF  xC7
07180:  MOVLB  5
07182:  CLRF   xDB
07184:  MOVLB  0
07186:  CALL   1576
0718A:  MOVLB  4
....................       } 
....................              
....................       if(Opcion>3) 
0718C:  MOVF   xC9,W
0718E:  SUBLW  03
07190:  BC    7196
....................          Opcion=1; 
07192:  MOVLW  01
07194:  MOVWF  xC9
....................       if(Opcion<1) 
07196:  MOVF   xC9,F
07198:  BNZ   719E
....................          Opcion=3; 
0719A:  MOVLW  03
0719C:  MOVWF  xC9
....................     } 
.................... //_--------------------------------------------------------------------------------------------------------------------------------------------------------        
....................  
.................... //_-------------------------------------------------------------------------------------------------------------------------------------------------------- 
....................       if(Menu==4){ //Menu de Ajustes. 
0719E:  MOVF   xC7,W
071A0:  SUBLW  04
071A2:  BTFSS  FD8.2
071A4:  BRA    7454
....................        
....................       strcpy(Menus.Letra,"Ajustes"); 
071A6:  MOVLW  04
071A8:  MOVWF  FEA
071AA:  MOVLW  16
071AC:  MOVWF  FE9
071AE:  MOVFF  FF2,5D3
071B2:  BCF    FF2.7
071B4:  MOVLW  00
071B6:  MOVLB  0
071B8:  CALL   0FA4
071BC:  TBLRD*-
071BE:  TBLRD*+
071C0:  MOVF   FF5,W
071C2:  MOVWF  FEE
071C4:  IORLW  00
071C6:  BNZ   71BE
071C8:  MOVLB  5
071CA:  BTFSC  xD3.7
071CC:  BSF    FF2.7
....................       displayMenu(Menus.Letra,0,0,1,2); 
071CE:  MOVLW  04
071D0:  MOVWF  xDC
071D2:  MOVLW  16
071D4:  MOVWF  xDB
071D6:  CLRF   xDD
071D8:  CLRF   xDE
071DA:  MOVLW  01
071DC:  MOVWF  xDF
071DE:  MOVLW  02
071E0:  MOVWF  xE0
071E2:  MOVLB  0
071E4:  CALL   4C06
....................        
....................       if(Opcion==1)    
071E8:  MOVLB  4
071EA:  DECFSZ xC9,W
071EC:  BRA    7234
....................          {strcpy(Menus.Letra,"Tiempo Purga"); 
071EE:  MOVLW  04
071F0:  MOVWF  FEA
071F2:  MOVLW  16
071F4:  MOVWF  FE9
071F6:  MOVFF  FF2,5D3
071FA:  BCF    FF2.7
071FC:  MOVLW  00
071FE:  MOVLB  0
07200:  CALL   1010
07204:  TBLRD*-
07206:  TBLRD*+
07208:  MOVF   FF5,W
0720A:  MOVWF  FEE
0720C:  IORLW  00
0720E:  BNZ   7206
07210:  MOVLB  5
07212:  BTFSC  xD3.7
07214:  BSF    FF2.7
....................          displayMenu(Menus.Letra,0,20,1,1);} 
07216:  MOVLW  04
07218:  MOVWF  xDC
0721A:  MOVLW  16
0721C:  MOVWF  xDB
0721E:  CLRF   xDD
07220:  MOVLW  14
07222:  MOVWF  xDE
07224:  MOVLW  01
07226:  MOVWF  xDF
07228:  MOVWF  xE0
0722A:  MOVLB  0
0722C:  CALL   4C06
....................       else 
07230:  BRA    7276
07232:  MOVLB  4
....................          {strcpy(Menus.Letra,"Tiempo Purga"); 
07234:  MOVLW  04
07236:  MOVWF  FEA
07238:  MOVLW  16
0723A:  MOVWF  FE9
0723C:  MOVFF  FF2,5D3
07240:  BCF    FF2.7
07242:  MOVLW  00
07244:  MOVLB  0
07246:  CALL   1010
0724A:  TBLRD*-
0724C:  TBLRD*+
0724E:  MOVF   FF5,W
07250:  MOVWF  FEE
07252:  IORLW  00
07254:  BNZ   724C
07256:  MOVLB  5
07258:  BTFSC  xD3.7
0725A:  BSF    FF2.7
....................          displayMenu(Menus.Letra,0,20,0,1);}              
0725C:  MOVLW  04
0725E:  MOVWF  xDC
07260:  MOVLW  16
07262:  MOVWF  xDB
07264:  CLRF   xDD
07266:  MOVLW  14
07268:  MOVWF  xDE
0726A:  CLRF   xDF
0726C:  MOVLW  01
0726E:  MOVWF  xE0
07270:  MOVLB  0
07272:  CALL   4C06
....................        
....................       if(Opcion==2)    
07276:  MOVLB  4
07278:  MOVF   xC9,W
0727A:  SUBLW  02
0727C:  BNZ   72C4
....................          {strcpy(Menus.Letra,"Tiempo Post-Purga"); 
0727E:  MOVLW  04
07280:  MOVWF  FEA
07282:  MOVLW  16
07284:  MOVWF  FE9
07286:  MOVFF  FF2,5D3
0728A:  BCF    FF2.7
0728C:  MOVLW  00
0728E:  MOVLB  0
07290:  CALL   1038
07294:  TBLRD*-
07296:  TBLRD*+
07298:  MOVF   FF5,W
0729A:  MOVWF  FEE
0729C:  IORLW  00
0729E:  BNZ   7296
072A0:  MOVLB  5
072A2:  BTFSC  xD3.7
072A4:  BSF    FF2.7
....................          displayMenu(Menus.Letra,0,35,1,1);} 
072A6:  MOVLW  04
072A8:  MOVWF  xDC
072AA:  MOVLW  16
072AC:  MOVWF  xDB
072AE:  CLRF   xDD
072B0:  MOVLW  23
072B2:  MOVWF  xDE
072B4:  MOVLW  01
072B6:  MOVWF  xDF
072B8:  MOVWF  xE0
072BA:  MOVLB  0
072BC:  CALL   4C06
....................       else 
072C0:  BRA    7306
072C2:  MOVLB  4
....................          {strcpy(Menus.Letra,"Tiempo Post-Purga"); 
072C4:  MOVLW  04
072C6:  MOVWF  FEA
072C8:  MOVLW  16
072CA:  MOVWF  FE9
072CC:  MOVFF  FF2,5D3
072D0:  BCF    FF2.7
072D2:  MOVLW  00
072D4:  MOVLB  0
072D6:  CALL   1038
072DA:  TBLRD*-
072DC:  TBLRD*+
072DE:  MOVF   FF5,W
072E0:  MOVWF  FEE
072E2:  IORLW  00
072E4:  BNZ   72DC
072E6:  MOVLB  5
072E8:  BTFSC  xD3.7
072EA:  BSF    FF2.7
....................          displayMenu(Menus.Letra,0,35,0,1);} 
072EC:  MOVLW  04
072EE:  MOVWF  xDC
072F0:  MOVLW  16
072F2:  MOVWF  xDB
072F4:  CLRF   xDD
072F6:  MOVLW  23
072F8:  MOVWF  xDE
072FA:  CLRF   xDF
072FC:  MOVLW  01
072FE:  MOVWF  xE0
07300:  MOVLB  0
07302:  CALL   4C06
....................        
....................       if(Opcion==3)    
07306:  MOVLB  4
07308:  MOVF   xC9,W
0730A:  SUBLW  03
0730C:  BNZ   7354
....................          {strcpy(Menus.Letra,"Luz UV"); 
0730E:  MOVLW  04
07310:  MOVWF  FEA
07312:  MOVLW  16
07314:  MOVWF  FE9
07316:  MOVFF  FF2,5D3
0731A:  BCF    FF2.7
0731C:  MOVLW  00
0731E:  MOVLB  0
07320:  CALL   1064
07324:  TBLRD*-
07326:  TBLRD*+
07328:  MOVF   FF5,W
0732A:  MOVWF  FEE
0732C:  IORLW  00
0732E:  BNZ   7326
07330:  MOVLB  5
07332:  BTFSC  xD3.7
07334:  BSF    FF2.7
....................          displayMenu(Menus.Letra,0,50,1,1);} 
07336:  MOVLW  04
07338:  MOVWF  xDC
0733A:  MOVLW  16
0733C:  MOVWF  xDB
0733E:  CLRF   xDD
07340:  MOVLW  32
07342:  MOVWF  xDE
07344:  MOVLW  01
07346:  MOVWF  xDF
07348:  MOVWF  xE0
0734A:  MOVLB  0
0734C:  CALL   4C06
....................       else 
07350:  BRA    7396
07352:  MOVLB  4
....................          {strcpy(Menus.Letra,"Luz UV"); 
07354:  MOVLW  04
07356:  MOVWF  FEA
07358:  MOVLW  16
0735A:  MOVWF  FE9
0735C:  MOVFF  FF2,5D3
07360:  BCF    FF2.7
07362:  MOVLW  00
07364:  MOVLB  0
07366:  CALL   1064
0736A:  TBLRD*-
0736C:  TBLRD*+
0736E:  MOVF   FF5,W
07370:  MOVWF  FEE
07372:  IORLW  00
07374:  BNZ   736C
07376:  MOVLB  5
07378:  BTFSC  xD3.7
0737A:  BSF    FF2.7
....................          displayMenu(Menus.Letra,0,50,0,1);}    
0737C:  MOVLW  04
0737E:  MOVWF  xDC
07380:  MOVLW  16
07382:  MOVWF  xDB
07384:  CLRF   xDD
07386:  MOVLW  32
07388:  MOVWF  xDE
0738A:  CLRF   xDF
0738C:  MOVLW  01
0738E:  MOVWF  xE0
07390:  MOVLB  0
07392:  CALL   4C06
....................           
....................       if(UP)//Si oprime hacia arriba 
07396:  BSF    F92.5
07398:  BTFSC  F80.5
0739A:  BRA    73B6
....................       {  if(Flanco == 0)  
0739C:  MOVLB  4
0739E:  BTFSC  x2C.0
073A0:  BRA    73B4
....................             {Flanco = 1;delay_ms(30);Opcion--; 
073A2:  BSF    x2C.0
073A4:  MOVLW  1E
073A6:  MOVLB  5
073A8:  MOVWF  xE7
073AA:  MOVLB  0
073AC:  CALL   1496
073B0:  MOVLB  4
073B2:  DECF   xC9,F
....................             } 
....................       } 
....................          else 
073B4:  BRA    73BA
....................             {Flanco = 0;} 
073B6:  MOVLB  4
073B8:  BCF    x2C.0
....................              
....................       if(DOWN)//Si oprime hacia abajo 
073BA:  BSF    F96.0
073BC:  BTFSC  F84.0
073BE:  BRA    73D8
....................       {  if(Flanco2 == 0)  
073C0:  BTFSC  x2C.2
073C2:  BRA    73D6
....................             {Flanco2 = 1;delay_ms(30);Opcion++; 
073C4:  BSF    x2C.2
073C6:  MOVLW  1E
073C8:  MOVLB  5
073CA:  MOVWF  xE7
073CC:  MOVLB  0
073CE:  CALL   1496
073D2:  MOVLB  4
073D4:  INCF   xC9,F
....................             }      
....................       } 
....................          else 
073D6:  BRA    73DA
....................             {Flanco2 = 0;}   
073D8:  BCF    x2C.2
....................              
....................       if(RIGHT)//Si oprime SET 
073DA:  BSF    F96.1
073DC:  BTFSC  F84.1
073DE:  BRA    7412
....................       {  if(Flanco1 == 0)  
073E0:  BTFSC  x2C.1
073E2:  BRA    7410
....................             {Flanco1 = 1;delay_ms(500);Menu=Opcion+10;glcd_fillScreen(OFF); 
073E4:  BSF    x2C.1
073E6:  MOVLW  02
073E8:  MOVLB  5
073EA:  MOVWF  xD3
073EC:  MOVLW  FA
073EE:  MOVWF  xE7
073F0:  MOVLB  0
073F2:  CALL   1496
073F6:  MOVLB  5
073F8:  DECFSZ xD3,F
073FA:  BRA    73EC
073FC:  MOVLW  0A
073FE:  MOVLB  4
07400:  ADDWF  xC9,W
07402:  MOVWF  xC7
07404:  MOVLB  5
07406:  CLRF   xDB
07408:  MOVLB  0
0740A:  CALL   1576
0740E:  MOVLB  4
....................             } 
....................       } 
....................          else 
07410:  BRA    7414
....................             {Flanco1 = 0;}   
07412:  BCF    x2C.1
....................              
....................       if(LEFT)//Si oprime boton de Toma. 
07414:  BSF    F96.2
07416:  BTFSC  F84.2
07418:  BRA    7442
....................         {delay_ms(700);Menu=3;glcd_fillscreen(OFF);} 
0741A:  MOVLW  04
0741C:  MOVLB  5
0741E:  MOVWF  xD3
07420:  MOVLW  AF
07422:  MOVWF  xE7
07424:  MOVLB  0
07426:  CALL   1496
0742A:  MOVLB  5
0742C:  DECFSZ xD3,F
0742E:  BRA    7420
07430:  MOVLW  03
07432:  MOVLB  4
07434:  MOVWF  xC7
07436:  MOVLB  5
07438:  CLRF   xDB
0743A:  MOVLB  0
0743C:  CALL   1576
07440:  MOVLB  4
....................        
....................       if(Opcion>3) 
07442:  MOVF   xC9,W
07444:  SUBLW  03
07446:  BC    744C
....................       {Opcion=1;} 
07448:  MOVLW  01
0744A:  MOVWF  xC9
....................       if(Opcion<1) 
0744C:  MOVF   xC9,F
0744E:  BNZ   7454
....................       {Opcion=3;} 
07450:  MOVLW  03
07452:  MOVWF  xC9
....................      
....................     } 
.................... //_--------------------------------------------------------------------------------------------------------------------------------------------------------        
....................  
.................... //_-------------------------------------------------------------------------------------------------------------------------------------------------------- 
....................       if(Menu==6){ //Menu de Modo. 
07454:  MOVF   xC7,W
07456:  SUBLW  06
07458:  BTFSS  FD8.2
0745A:  BRA    7682
....................        
....................       strcpy(Menus.Letra,"Modo"); 
0745C:  MOVLW  04
0745E:  MOVWF  FEA
07460:  MOVLW  16
07462:  MOVWF  FE9
07464:  MOVFF  FF2,5D3
07468:  BCF    FF2.7
0746A:  MOVLW  00
0746C:  MOVLB  0
0746E:  CALL   0FF0
07472:  TBLRD*-
07474:  TBLRD*+
07476:  MOVF   FF5,W
07478:  MOVWF  FEE
0747A:  IORLW  00
0747C:  BNZ   7474
0747E:  MOVLB  5
07480:  BTFSC  xD3.7
07482:  BSF    FF2.7
....................       displayMenu(Menus.Letra,40,0,1,2); 
07484:  MOVLW  04
07486:  MOVWF  xDC
07488:  MOVLW  16
0748A:  MOVWF  xDB
0748C:  MOVLW  28
0748E:  MOVWF  xDD
07490:  CLRF   xDE
07492:  MOVLW  01
07494:  MOVWF  xDF
07496:  MOVLW  02
07498:  MOVWF  xE0
0749A:  MOVLB  0
0749C:  CALL   4C06
....................           
....................       if(Opcion==1)    
074A0:  MOVLB  4
074A2:  DECFSZ xC9,W
074A4:  BRA    74EC
....................          {strcpy(Menus.Letra,"Mantenimiento"); 
074A6:  MOVLW  04
074A8:  MOVWF  FEA
074AA:  MOVLW  16
074AC:  MOVWF  FE9
074AE:  MOVFF  FF2,5D3
074B2:  BCF    FF2.7
074B4:  MOVLW  00
074B6:  MOVLB  0
074B8:  CALL   1086
074BC:  TBLRD*-
074BE:  TBLRD*+
074C0:  MOVF   FF5,W
074C2:  MOVWF  FEE
074C4:  IORLW  00
074C6:  BNZ   74BE
074C8:  MOVLB  5
074CA:  BTFSC  xD3.7
074CC:  BSF    FF2.7
....................          displayMenu(Menus.Letra,0,19,1,1);} 
074CE:  MOVLW  04
074D0:  MOVWF  xDC
074D2:  MOVLW  16
074D4:  MOVWF  xDB
074D6:  CLRF   xDD
074D8:  MOVLW  13
074DA:  MOVWF  xDE
074DC:  MOVLW  01
074DE:  MOVWF  xDF
074E0:  MOVWF  xE0
074E2:  MOVLB  0
074E4:  CALL   4C06
....................       else 
074E8:  BRA    752E
074EA:  MOVLB  4
....................          {strcpy(Menus.Letra,"Mantenimiento"); 
074EC:  MOVLW  04
074EE:  MOVWF  FEA
074F0:  MOVLW  16
074F2:  MOVWF  FE9
074F4:  MOVFF  FF2,5D3
074F8:  BCF    FF2.7
074FA:  MOVLW  00
074FC:  MOVLB  0
074FE:  CALL   1086
07502:  TBLRD*-
07504:  TBLRD*+
07506:  MOVF   FF5,W
07508:  MOVWF  FEE
0750A:  IORLW  00
0750C:  BNZ   7504
0750E:  MOVLB  5
07510:  BTFSC  xD3.7
07512:  BSF    FF2.7
....................          displayMenu(Menus.Letra,0,19,0,1);}    
07514:  MOVLW  04
07516:  MOVWF  xDC
07518:  MOVLW  16
0751A:  MOVWF  xDB
0751C:  CLRF   xDD
0751E:  MOVLW  13
07520:  MOVWF  xDE
07522:  CLRF   xDF
07524:  MOVLW  01
07526:  MOVWF  xE0
07528:  MOVLB  0
0752A:  CALL   4C06
....................           
....................       if(Opcion==2)    
0752E:  MOVLB  4
07530:  MOVF   xC9,W
07532:  SUBLW  02
07534:  BNZ   757C
....................          {strcpy(Menus.Letra,"Servicio"); 
07536:  MOVLW  04
07538:  MOVWF  FEA
0753A:  MOVLW  16
0753C:  MOVWF  FE9
0753E:  MOVFF  FF2,5D3
07542:  BCF    FF2.7
07544:  MOVLW  00
07546:  MOVLB  0
07548:  CALL   10AE
0754C:  TBLRD*-
0754E:  TBLRD*+
07550:  MOVF   FF5,W
07552:  MOVWF  FEE
07554:  IORLW  00
07556:  BNZ   754E
07558:  MOVLB  5
0755A:  BTFSC  xD3.7
0755C:  BSF    FF2.7
....................          displayMenu(Menus.Letra,0,35,1,1);} 
0755E:  MOVLW  04
07560:  MOVWF  xDC
07562:  MOVLW  16
07564:  MOVWF  xDB
07566:  CLRF   xDD
07568:  MOVLW  23
0756A:  MOVWF  xDE
0756C:  MOVLW  01
0756E:  MOVWF  xDF
07570:  MOVWF  xE0
07572:  MOVLB  0
07574:  CALL   4C06
....................       else 
07578:  BRA    75BE
0757A:  MOVLB  4
....................          {strcpy(Menus.Letra,"Servicio"); 
0757C:  MOVLW  04
0757E:  MOVWF  FEA
07580:  MOVLW  16
07582:  MOVWF  FE9
07584:  MOVFF  FF2,5D3
07588:  BCF    FF2.7
0758A:  MOVLW  00
0758C:  MOVLB  0
0758E:  CALL   10AE
07592:  TBLRD*-
07594:  TBLRD*+
07596:  MOVF   FF5,W
07598:  MOVWF  FEE
0759A:  IORLW  00
0759C:  BNZ   7594
0759E:  MOVLB  5
075A0:  BTFSC  xD3.7
075A2:  BSF    FF2.7
....................          displayMenu(Menus.Letra,0,35,0,1);} 
075A4:  MOVLW  04
075A6:  MOVWF  xDC
075A8:  MOVLW  16
075AA:  MOVWF  xDB
075AC:  CLRF   xDD
075AE:  MOVLW  23
075B0:  MOVWF  xDE
075B2:  CLRF   xDF
075B4:  MOVLW  01
075B6:  MOVWF  xE0
075B8:  MOVLB  0
075BA:  CALL   4C06
....................           
....................       if(UP)//Si oprime hacia arriba 
075BE:  BSF    F92.5
075C0:  BTFSC  F80.5
075C2:  BRA    75DE
....................       {  if(Flanco == 0)  
075C4:  MOVLB  4
075C6:  BTFSC  x2C.0
075C8:  BRA    75DC
....................             {Flanco = 1;delay_ms(30);Opcion--; 
075CA:  BSF    x2C.0
075CC:  MOVLW  1E
075CE:  MOVLB  5
075D0:  MOVWF  xE7
075D2:  MOVLB  0
075D4:  CALL   1496
075D8:  MOVLB  4
075DA:  DECF   xC9,F
....................             } 
....................       } 
....................          else 
075DC:  BRA    75E2
....................             {Flanco = 0;} 
075DE:  MOVLB  4
075E0:  BCF    x2C.0
....................              
....................       if(DOWN)//Si oprime hacia abajo 
075E2:  BSF    F96.0
075E4:  BTFSC  F84.0
075E6:  BRA    7600
....................       {  if(Flanco2 == 0)  
075E8:  BTFSC  x2C.2
075EA:  BRA    75FE
....................             {Flanco2 = 1;delay_ms(30);Opcion++; 
075EC:  BSF    x2C.2
075EE:  MOVLW  1E
075F0:  MOVLB  5
075F2:  MOVWF  xE7
075F4:  MOVLB  0
075F6:  CALL   1496
075FA:  MOVLB  4
075FC:  INCF   xC9,F
....................             }      
....................       } 
....................          else 
075FE:  BRA    7602
....................             {Flanco2 = 0;}   
07600:  BCF    x2C.2
....................              
....................       if(RIGHT)//Si oprime SET 
07602:  BSF    F96.1
07604:  BTFSC  F84.1
07606:  BRA    7640
....................       {  if(Flanco1 == 0)  
07608:  BTFSC  x2C.1
0760A:  BRA    763E
....................             {Flanco1 = 1;delay_ms(500);Menu=Opcion+30;glcd_fillScreen(OFF);Opcion=1;unidad=1; 
0760C:  BSF    x2C.1
0760E:  MOVLW  02
07610:  MOVLB  5
07612:  MOVWF  xD3
07614:  MOVLW  FA
07616:  MOVWF  xE7
07618:  MOVLB  0
0761A:  CALL   1496
0761E:  MOVLB  5
07620:  DECFSZ xD3,F
07622:  BRA    7614
07624:  MOVLW  1E
07626:  MOVLB  4
07628:  ADDWF  xC9,W
0762A:  MOVWF  xC7
0762C:  MOVLB  5
0762E:  CLRF   xDB
07630:  MOVLB  0
07632:  CALL   1576
07636:  MOVLW  01
07638:  MOVLB  4
0763A:  MOVWF  xC9
0763C:  MOVWF  xC8
....................             } 
....................       } 
....................          else 
0763E:  BRA    7642
....................             {Flanco1 = 0;}   
07640:  BCF    x2C.1
....................              
....................       if(LEFT)//Si oprime boton de Toma. 
07642:  BSF    F96.2
07644:  BTFSC  F84.2
07646:  BRA    7670
....................         {delay_ms(700);Menu=3;glcd_fillscreen(OFF);} 
07648:  MOVLW  04
0764A:  MOVLB  5
0764C:  MOVWF  xD3
0764E:  MOVLW  AF
07650:  MOVWF  xE7
07652:  MOVLB  0
07654:  CALL   1496
07658:  MOVLB  5
0765A:  DECFSZ xD3,F
0765C:  BRA    764E
0765E:  MOVLW  03
07660:  MOVLB  4
07662:  MOVWF  xC7
07664:  MOVLB  5
07666:  CLRF   xDB
07668:  MOVLB  0
0766A:  CALL   1576
0766E:  MOVLB  4
....................       if(Opcion>2) 
07670:  MOVF   xC9,W
07672:  SUBLW  02
07674:  BC    767A
....................       {Opcion=1;} 
07676:  MOVLW  01
07678:  MOVWF  xC9
....................       if(Opcion<1) 
0767A:  MOVF   xC9,F
0767C:  BNZ   7682
....................       {Opcion=2;} 
0767E:  MOVLW  02
07680:  MOVWF  xC9
....................      
....................     } 
.................... //_--------------------------------------------------------------------------------------------------------------------------------------------------------        
....................  
.................... //_-------------------------------------------------------------------------------------------------------------------------------------------------------- 
....................       if(Menu==13){ //Menu de Tempo UV. 
07682:  MOVF   xC7,W
07684:  SUBLW  0D
07686:  BTFSS  FD8.2
07688:  BRA    77E6
....................        
....................       strcpy(Menus.Letra,"Luz UV"); 
0768A:  MOVLW  04
0768C:  MOVWF  FEA
0768E:  MOVLW  16
07690:  MOVWF  FE9
07692:  MOVFF  FF2,5D3
07696:  BCF    FF2.7
07698:  MOVLW  00
0769A:  MOVLB  0
0769C:  CALL   1064
076A0:  TBLRD*-
076A2:  TBLRD*+
076A4:  MOVF   FF5,W
076A6:  MOVWF  FEE
076A8:  IORLW  00
076AA:  BNZ   76A2
076AC:  MOVLB  5
076AE:  BTFSC  xD3.7
076B0:  BSF    FF2.7
....................       displayMenu(Menus.Letra,30,0,1,2); 
076B2:  MOVLW  04
076B4:  MOVWF  xDC
076B6:  MOVLW  16
076B8:  MOVWF  xDB
076BA:  MOVLW  1E
076BC:  MOVWF  xDD
076BE:  CLRF   xDE
076C0:  MOVLW  01
076C2:  MOVWF  xDF
076C4:  MOVLW  02
076C6:  MOVWF  xE0
076C8:  MOVLB  0
076CA:  CALL   4C06
....................        
....................       if(!flag_uv){ 
076CE:  MOVLB  4
076D0:  BTFSC  x2D.4
076D2:  BRA    7720
....................          strcpy(Menus.Letra,"UV Off"); 
076D4:  MOVLW  04
076D6:  MOVWF  FEA
076D8:  MOVLW  16
076DA:  MOVWF  FE9
076DC:  MOVFF  FF2,5D3
076E0:  BCF    FF2.7
076E2:  MOVLW  00
076E4:  MOVLB  0
076E6:  CALL   10D2
076EA:  TBLRD*-
076EC:  TBLRD*+
076EE:  MOVF   FF5,W
076F0:  MOVWF  FEE
076F2:  IORLW  00
076F4:  BNZ   76EC
076F6:  MOVLB  5
076F8:  BTFSC  xD3.7
076FA:  BSF    FF2.7
....................          displayMenu(Menus.Letra,30,30,1,2); 
076FC:  MOVLW  04
076FE:  MOVWF  xDC
07700:  MOVLW  16
07702:  MOVWF  xDB
07704:  MOVLW  1E
07706:  MOVWF  xDD
07708:  MOVWF  xDE
0770A:  MOVLW  01
0770C:  MOVWF  xDF
0770E:  MOVLW  02
07710:  MOVWF  xE0
07712:  MOVLB  0
07714:  CALL   4C06
....................          Aux_off; 
07718:  BCF    F8B.1
0771A:  BCF    F94.1
....................       }else{ 
0771C:  BRA    7768
0771E:  MOVLB  4
....................          strcpy(Menus.Letra,"UV On"); 
07720:  MOVLW  04
07722:  MOVWF  FEA
07724:  MOVLW  16
07726:  MOVWF  FE9
07728:  MOVFF  FF2,5D3
0772C:  BCF    FF2.7
0772E:  MOVLW  00
07730:  MOVLB  0
07732:  CALL   10F4
07736:  TBLRD*-
07738:  TBLRD*+
0773A:  MOVF   FF5,W
0773C:  MOVWF  FEE
0773E:  IORLW  00
07740:  BNZ   7738
07742:  MOVLB  5
07744:  BTFSC  xD3.7
07746:  BSF    FF2.7
....................          displayMenu(Menus.Letra,30,30,1,2); 
07748:  MOVLW  04
0774A:  MOVWF  xDC
0774C:  MOVLW  16
0774E:  MOVWF  xDB
07750:  MOVLW  1E
07752:  MOVWF  xDD
07754:  MOVWF  xDE
07756:  MOVLW  01
07758:  MOVWF  xDF
0775A:  MOVLW  02
0775C:  MOVWF  xE0
0775E:  MOVLB  0
07760:  CALL   4C06
....................          Aux_on; 
07764:  BSF    F8B.1
07766:  BCF    F94.1
....................       } 
....................          
....................       if(UP)//Si oprime hacia arriba 
07768:  BSF    F92.5
0776A:  BTFSC  F80.5
0776C:  BRA    778A
....................       {  if(Flanco == 0)  
0776E:  MOVLB  4
07770:  BTFSC  x2C.0
07772:  BRA    7786
....................             {Flanco = 1;delay_ms(30);flag_uv=1; 
07774:  BSF    x2C.0
07776:  MOVLW  1E
07778:  MOVLB  5
0777A:  MOVWF  xE7
0777C:  MOVLB  0
0777E:  CALL   1496
07782:  MOVLB  4
07784:  BSF    x2D.4
....................             } 
....................       }else{ 
07786:  BRA    778E
07788:  MOVLB  0
....................          Flanco = 0; 
0778A:  MOVLB  4
0778C:  BCF    x2C.0
....................       } 
....................              
....................       if(DOWN )//Si oprime hacia abajo 
0778E:  BSF    F96.0
07790:  BTFSC  F84.0
07792:  BRA    77AC
....................       {  if(Flanco2 == 0)  
07794:  BTFSC  x2C.2
07796:  BRA    77AA
....................             {Flanco2 = 1;delay_ms(30);flag_uv=0; 
07798:  BSF    x2C.2
0779A:  MOVLW  1E
0779C:  MOVLB  5
0779E:  MOVWF  xE7
077A0:  MOVLB  0
077A2:  CALL   1496
077A6:  MOVLB  4
077A8:  BCF    x2D.4
....................             }      
....................       }else{ 
077AA:  BRA    77AE
....................          Flanco2 = 0; 
077AC:  BCF    x2C.2
....................       } 
....................              
....................       if(LEFT)//Si oprime boton de Toma. 
077AE:  BSF    F96.2
077B0:  BTFSC  F84.2
077B2:  BRA    77E6
....................       { 
....................          delay_ms(700);Menu=4;glcd_fillscreen(OFF);Opcion=1;unidad=1;Aux_off; 
077B4:  MOVLW  04
077B6:  MOVLB  5
077B8:  MOVWF  xD3
077BA:  MOVLW  AF
077BC:  MOVWF  xE7
077BE:  MOVLB  0
077C0:  CALL   1496
077C4:  MOVLB  5
077C6:  DECFSZ xD3,F
077C8:  BRA    77BA
077CA:  MOVLW  04
077CC:  MOVLB  4
077CE:  MOVWF  xC7
077D0:  MOVLB  5
077D2:  CLRF   xDB
077D4:  MOVLB  0
077D6:  CALL   1576
077DA:  MOVLW  01
077DC:  MOVLB  4
077DE:  MOVWF  xC9
077E0:  MOVWF  xC8
077E2:  BCF    F8B.1
077E4:  BCF    F94.1
....................       } 
....................      
....................     } 
.................... //_--------------------------------------------------------------------------------------------------------------------------------------------------------        
....................  
.................... //_-------------------------------------------------------------------------------------------------------------------------------------------------------- 
....................       if(Menu==11){ //Menu de Purga. 
077E6:  MOVF   xC7,W
077E8:  SUBLW  0B
077EA:  BTFSS  FD8.2
077EC:  BRA    7BB0
....................        
....................       strcpy(Menus.Letra,"T. Purga"); 
077EE:  MOVLW  04
077F0:  MOVWF  FEA
077F2:  MOVLW  16
077F4:  MOVWF  FE9
077F6:  MOVFF  FF2,5D3
077FA:  BCF    FF2.7
077FC:  MOVLW  00
077FE:  MOVLB  0
07800:  CALL   1114
07804:  TBLRD*-
07806:  TBLRD*+
07808:  MOVF   FF5,W
0780A:  MOVWF  FEE
0780C:  IORLW  00
0780E:  BNZ   7806
07810:  MOVLB  5
07812:  BTFSC  xD3.7
07814:  BSF    FF2.7
....................       displayMenu(Menus.Letra,10,0,1,2); 
07816:  MOVLW  04
07818:  MOVWF  xDC
0781A:  MOVLW  16
0781C:  MOVWF  xDB
0781E:  MOVLW  0A
07820:  MOVWF  xDD
07822:  CLRF   xDE
07824:  MOVLW  01
07826:  MOVWF  xDF
07828:  MOVLW  02
0782A:  MOVWF  xE0
0782C:  MOVLB  0
0782E:  CALL   4C06
....................        
....................       if(unidad==4) 
07832:  MOVLB  4
07834:  MOVF   xC8,W
07836:  SUBLW  04
07838:  BNZ   7858
....................       {displayTiempo(Tpurgap[3],20,40,1,2);} 
0783A:  MOVFF  4EA,5D3
0783E:  MOVLW  14
07840:  MOVLB  5
07842:  MOVWF  xD4
07844:  MOVLW  28
07846:  MOVWF  xD5
07848:  MOVLW  01
0784A:  MOVWF  xD6
0784C:  MOVLW  02
0784E:  MOVWF  xD7
07850:  MOVLB  0
07852:  CALL   53E8
....................       else 
07856:  BRA    7872
....................       {displayTiempo(Tpurgap[3],20,40,0,2);} 
07858:  MOVFF  4EA,5D3
0785C:  MOVLW  14
0785E:  MOVLB  5
07860:  MOVWF  xD4
07862:  MOVLW  28
07864:  MOVWF  xD5
07866:  CLRF   xD6
07868:  MOVLW  02
0786A:  MOVWF  xD7
0786C:  MOVLB  0
0786E:  CALL   53E8
....................        
....................       if(unidad==3) 
07872:  MOVLB  4
07874:  MOVF   xC8,W
07876:  SUBLW  03
07878:  BNZ   7896
....................       {displayTiempo(Tpurgap[2],40,40,1,2);} 
0787A:  MOVFF  4E9,5D3
0787E:  MOVLW  28
07880:  MOVLB  5
07882:  MOVWF  xD4
07884:  MOVWF  xD5
07886:  MOVLW  01
07888:  MOVWF  xD6
0788A:  MOVLW  02
0788C:  MOVWF  xD7
0788E:  MOVLB  0
07890:  CALL   53E8
....................       else 
07894:  BRA    78AE
....................       {displayTiempo(Tpurgap[2],40,40,0,2);} 
07896:  MOVFF  4E9,5D3
0789A:  MOVLW  28
0789C:  MOVLB  5
0789E:  MOVWF  xD4
078A0:  MOVWF  xD5
078A2:  CLRF   xD6
078A4:  MOVLW  02
078A6:  MOVWF  xD7
078A8:  MOVLB  0
078AA:  CALL   53E8
....................        
....................       if(unidad==2) 
078AE:  MOVLB  4
078B0:  MOVF   xC8,W
078B2:  SUBLW  02
078B4:  BNZ   78D4
....................       {displayTiempo(Tpurgap[1],70,40,1,2);} 
078B6:  MOVFF  4E8,5D3
078BA:  MOVLW  46
078BC:  MOVLB  5
078BE:  MOVWF  xD4
078C0:  MOVLW  28
078C2:  MOVWF  xD5
078C4:  MOVLW  01
078C6:  MOVWF  xD6
078C8:  MOVLW  02
078CA:  MOVWF  xD7
078CC:  MOVLB  0
078CE:  CALL   53E8
....................       else 
078D2:  BRA    78EE
....................       {displayTiempo(Tpurgap[1],70,40,0,2);} 
078D4:  MOVFF  4E8,5D3
078D8:  MOVLW  46
078DA:  MOVLB  5
078DC:  MOVWF  xD4
078DE:  MOVLW  28
078E0:  MOVWF  xD5
078E2:  CLRF   xD6
078E4:  MOVLW  02
078E6:  MOVWF  xD7
078E8:  MOVLB  0
078EA:  CALL   53E8
....................        
....................       if(unidad==1) 
078EE:  MOVLB  4
078F0:  DECFSZ xC8,W
078F2:  BRA    7912
....................       {displayTiempo(Tpurgap[0],90,40,1,2);} 
078F4:  MOVFF  4E7,5D3
078F8:  MOVLW  5A
078FA:  MOVLB  5
078FC:  MOVWF  xD4
078FE:  MOVLW  28
07900:  MOVWF  xD5
07902:  MOVLW  01
07904:  MOVWF  xD6
07906:  MOVLW  02
07908:  MOVWF  xD7
0790A:  MOVLB  0
0790C:  CALL   53E8
....................       else 
07910:  BRA    792C
....................       {displayTiempo(Tpurgap[0],90,40,0,2);} 
07912:  MOVFF  4E7,5D3
07916:  MOVLW  5A
07918:  MOVLB  5
0791A:  MOVWF  xD4
0791C:  MOVLW  28
0791E:  MOVWF  xD5
07920:  CLRF   xD6
07922:  MOVLW  02
07924:  MOVWF  xD7
07926:  MOVLB  0
07928:  CALL   53E8
....................        
....................       glcd_text57(60, 42, Dos_puntos, 2, ON); 
0792C:  MOVLW  3C
0792E:  MOVLB  5
07930:  MOVWF  xEC
07932:  MOVLW  2A
07934:  MOVWF  xED
07936:  MOVLW  04
07938:  MOVWF  xEF
0793A:  MOVLW  4D
0793C:  MOVWF  xEE
0793E:  MOVLW  02
07940:  MOVWF  xF0
07942:  MOVLW  01
07944:  MOVWF  xF1
07946:  MOVLB  0
07948:  CALL   4994
....................           
....................          
....................       if(UP)//Si oprime hacia arriba 
0794C:  BSF    F92.5
0794E:  BTFSC  F80.5
07950:  BRA    797C
....................       {  if(Flanco == 0)  
07952:  MOVLB  4
07954:  BTFSC  x2C.0
07956:  BRA    797A
....................             {Flanco = 1;delay_ms(30);Tpurgap[unidad-1]++; 
07958:  BSF    x2C.0
0795A:  MOVLW  1E
0795C:  MOVLB  5
0795E:  MOVWF  xE7
07960:  MOVLB  0
07962:  CALL   1496
07966:  MOVLW  01
07968:  MOVLB  4
0796A:  SUBWF  xC8,W
0796C:  CLRF   03
0796E:  ADDLW  E7
07970:  MOVWF  FE9
07972:  MOVLW  04
07974:  ADDWFC 03,W
07976:  MOVWF  FEA
07978:  INCF   FEF,F
....................             } 
....................       } 
....................          else 
0797A:  BRA    7980
....................             {Flanco = 0;} 
0797C:  MOVLB  4
0797E:  BCF    x2C.0
....................              
....................       if(DOWN)//Si oprime hacia abajo 
07980:  BSF    F96.0
07982:  BTFSC  F84.0
07984:  BRA    79AE
....................       {  if(Flanco2 == 0)  
07986:  BTFSC  x2C.2
07988:  BRA    79AC
....................             {Flanco2 = 1;delay_ms(30);Tpurgap[unidad-1]--; 
0798A:  BSF    x2C.2
0798C:  MOVLW  1E
0798E:  MOVLB  5
07990:  MOVWF  xE7
07992:  MOVLB  0
07994:  CALL   1496
07998:  MOVLW  01
0799A:  MOVLB  4
0799C:  SUBWF  xC8,W
0799E:  CLRF   03
079A0:  ADDLW  E7
079A2:  MOVWF  FE9
079A4:  MOVLW  04
079A6:  ADDWFC 03,W
079A8:  MOVWF  FEA
079AA:  DECF   FEF,F
....................             }      
....................       } 
....................          else 
079AC:  BRA    79B0
....................             {Flanco2 = 0;}   
079AE:  BCF    x2C.2
....................              
....................       if(RIGHT)//Si oprime SET 
079B0:  BSF    F96.1
079B2:  BTFSC  F84.1
079B4:  BRA    79CE
....................       {  if(Flanco1 == 0)  
079B6:  BTFSC  x2C.1
079B8:  BRA    79CC
....................             {Flanco1 = 1;delay_ms(30);unidad--; 
079BA:  BSF    x2C.1
079BC:  MOVLW  1E
079BE:  MOVLB  5
079C0:  MOVWF  xE7
079C2:  MOVLB  0
079C4:  CALL   1496
079C8:  MOVLB  4
079CA:  DECF   xC8,F
....................             } 
....................       } 
....................          else 
079CC:  BRA    79D0
....................             {Flanco1 = 0;}   
079CE:  BCF    x2C.1
....................              
....................       if(LEFT)//Si oprime boton de Toma. 
079D0:  BSF    F96.2
079D2:  BTFSC  F84.2
079D4:  BRA    7AE4
....................       { 
....................          delay_ms(700);Menu=4;glcd_fillscreen(OFF);Opcion=1;unidad=1; 
079D6:  MOVLW  04
079D8:  MOVLB  5
079DA:  MOVWF  xD3
079DC:  MOVLW  AF
079DE:  MOVWF  xE7
079E0:  MOVLB  0
079E2:  CALL   1496
079E6:  MOVLB  5
079E8:  DECFSZ xD3,F
079EA:  BRA    79DC
079EC:  MOVLW  04
079EE:  MOVLB  4
079F0:  MOVWF  xC7
079F2:  MOVLB  5
079F4:  CLRF   xDB
079F6:  MOVLB  0
079F8:  CALL   1576
079FC:  MOVLW  01
079FE:  MOVLB  4
07A00:  MOVWF  xC9
07A02:  MOVWF  xC8
....................          write_eeprom(4,Tpurgap[0]); 
07A04:  CLRF   FAA
07A06:  MOVLW  04
07A08:  MOVWF  FA9
07A0A:  MOVFF  4E7,FA8
07A0E:  BCF    FA6.6
07A10:  BCF    FA6.7
07A12:  BSF    FA6.2
07A14:  MOVF   FF2,W
07A16:  MOVWF  00
07A18:  BCF    FF2.7
07A1A:  MOVLB  F
07A1C:  MOVLW  55
07A1E:  MOVWF  FA7
07A20:  MOVLW  AA
07A22:  MOVWF  FA7
07A24:  BSF    FA6.1
07A26:  BTFSC  FA6.1
07A28:  BRA    7A26
07A2A:  BCF    FA6.2
07A2C:  MOVF   00,W
07A2E:  IORWF  FF2,F
....................          delay_ms(20); 
07A30:  MOVLW  14
07A32:  MOVLB  5
07A34:  MOVWF  xE7
07A36:  MOVLB  0
07A38:  CALL   1496
....................          write_eeprom(5,Tpurgap[1]); 
07A3C:  CLRF   FAA
07A3E:  MOVLW  05
07A40:  MOVWF  FA9
07A42:  MOVFF  4E8,FA8
07A46:  BCF    FA6.6
07A48:  BCF    FA6.7
07A4A:  BSF    FA6.2
07A4C:  MOVF   FF2,W
07A4E:  MOVWF  00
07A50:  BCF    FF2.7
07A52:  MOVLB  F
07A54:  MOVLW  55
07A56:  MOVWF  FA7
07A58:  MOVLW  AA
07A5A:  MOVWF  FA7
07A5C:  BSF    FA6.1
07A5E:  BTFSC  FA6.1
07A60:  BRA    7A5E
07A62:  BCF    FA6.2
07A64:  MOVF   00,W
07A66:  IORWF  FF2,F
....................          delay_ms(20); 
07A68:  MOVLW  14
07A6A:  MOVLB  5
07A6C:  MOVWF  xE7
07A6E:  MOVLB  0
07A70:  CALL   1496
....................          write_eeprom(6,Tpurgap[2]); 
07A74:  CLRF   FAA
07A76:  MOVLW  06
07A78:  MOVWF  FA9
07A7A:  MOVFF  4E9,FA8
07A7E:  BCF    FA6.6
07A80:  BCF    FA6.7
07A82:  BSF    FA6.2
07A84:  MOVF   FF2,W
07A86:  MOVWF  00
07A88:  BCF    FF2.7
07A8A:  MOVLB  F
07A8C:  MOVLW  55
07A8E:  MOVWF  FA7
07A90:  MOVLW  AA
07A92:  MOVWF  FA7
07A94:  BSF    FA6.1
07A96:  BTFSC  FA6.1
07A98:  BRA    7A96
07A9A:  BCF    FA6.2
07A9C:  MOVF   00,W
07A9E:  IORWF  FF2,F
....................          delay_ms(20); 
07AA0:  MOVLW  14
07AA2:  MOVLB  5
07AA4:  MOVWF  xE7
07AA6:  MOVLB  0
07AA8:  CALL   1496
....................          write_eeprom(7,Tpurgap[3]); 
07AAC:  CLRF   FAA
07AAE:  MOVLW  07
07AB0:  MOVWF  FA9
07AB2:  MOVFF  4EA,FA8
07AB6:  BCF    FA6.6
07AB8:  BCF    FA6.7
07ABA:  BSF    FA6.2
07ABC:  MOVF   FF2,W
07ABE:  MOVWF  00
07AC0:  BCF    FF2.7
07AC2:  MOVLB  F
07AC4:  MOVLW  55
07AC6:  MOVWF  FA7
07AC8:  MOVLW  AA
07ACA:  MOVWF  FA7
07ACC:  BSF    FA6.1
07ACE:  BTFSC  FA6.1
07AD0:  BRA    7ACE
07AD2:  BCF    FA6.2
07AD4:  MOVF   00,W
07AD6:  IORWF  FF2,F
....................          delay_ms(20); 
07AD8:  MOVLW  14
07ADA:  MOVLB  5
07ADC:  MOVWF  xE7
07ADE:  MOVLB  0
07AE0:  CALL   1496
....................       } 
....................        
....................       for(i=0;i<4;i++) 
07AE4:  MOVLB  5
07AE6:  CLRF   xC3
07AE8:  MOVF   xC3,W
07AEA:  SUBLW  03
07AEC:  BNC   7B40
....................       { 
....................          if(Tpurgap[i]>9) 
07AEE:  CLRF   03
07AF0:  MOVF   xC3,W
07AF2:  ADDLW  E7
07AF4:  MOVWF  FE9
07AF6:  MOVLW  04
07AF8:  ADDWFC 03,W
07AFA:  MOVWF  FEA
07AFC:  BTFSC  FEF.7
07AFE:  BRA    7B16
07B00:  MOVF   FEF,W
07B02:  SUBLW  09
07B04:  BC    7B16
....................          {Tpurgap[i]=0;} 
07B06:  CLRF   03
07B08:  MOVF   xC3,W
07B0A:  ADDLW  E7
07B0C:  MOVWF  FE9
07B0E:  MOVLW  04
07B10:  ADDWFC 03,W
07B12:  MOVWF  FEA
07B14:  CLRF   FEF
....................           
....................          if(Tpurgap[i]<0) 
07B16:  CLRF   03
07B18:  MOVF   xC3,W
07B1A:  ADDLW  E7
07B1C:  MOVWF  FE9
07B1E:  MOVLW  04
07B20:  ADDWFC 03,W
07B22:  MOVWF  FEA
07B24:  BTFSC  FEF.7
07B26:  BRA    7B2A
07B28:  BRA    7B3C
....................          {Tpurgap[i]=9;} 
07B2A:  CLRF   03
07B2C:  MOVF   xC3,W
07B2E:  ADDLW  E7
07B30:  MOVWF  FE9
07B32:  MOVLW  04
07B34:  ADDWFC 03,W
07B36:  MOVWF  FEA
07B38:  MOVLW  09
07B3A:  MOVWF  FEF
....................       }       
07B3C:  INCF   xC3,F
07B3E:  BRA    7AE8
....................       for(i=1;i<4;i++) 
07B40:  MOVLW  01
07B42:  MOVWF  xC3
07B44:  MOVF   xC3,W
07B46:  SUBLW  03
07B48:  BNC   7B9E
....................       { 
....................          if(Tpurgap[i]>5) 
07B4A:  CLRF   03
07B4C:  MOVF   xC3,W
07B4E:  ADDLW  E7
07B50:  MOVWF  FE9
07B52:  MOVLW  04
07B54:  ADDWFC 03,W
07B56:  MOVWF  FEA
07B58:  BTFSC  FEF.7
07B5A:  BRA    7B72
07B5C:  MOVF   FEF,W
07B5E:  SUBLW  05
07B60:  BC    7B72
....................          {Tpurgap[i]=0;} 
07B62:  CLRF   03
07B64:  MOVF   xC3,W
07B66:  ADDLW  E7
07B68:  MOVWF  FE9
07B6A:  MOVLW  04
07B6C:  ADDWFC 03,W
07B6E:  MOVWF  FEA
07B70:  CLRF   FEF
....................           
....................          if(Tpurgap[i]<0) 
07B72:  CLRF   03
07B74:  MOVF   xC3,W
07B76:  ADDLW  E7
07B78:  MOVWF  FE9
07B7A:  MOVLW  04
07B7C:  ADDWFC 03,W
07B7E:  MOVWF  FEA
07B80:  BTFSC  FEF.7
07B82:  BRA    7B86
07B84:  BRA    7B98
....................          {Tpurgap[i]=5;} 
07B86:  CLRF   03
07B88:  MOVF   xC3,W
07B8A:  ADDLW  E7
07B8C:  MOVWF  FE9
07B8E:  MOVLW  04
07B90:  ADDWFC 03,W
07B92:  MOVWF  FEA
07B94:  MOVLW  05
07B96:  MOVWF  FEF
....................         i++;  
07B98:  INCF   xC3,F
....................       } 
07B9A:  INCF   xC3,F
07B9C:  BRA    7B44
....................       if(unidad<1) 
07B9E:  MOVLB  4
07BA0:  MOVF   xC8,F
07BA2:  BNZ   7BA8
....................       {unidad=4;} 
07BA4:  MOVLW  04
07BA6:  MOVWF  xC8
....................       if(Opcion<1) 
07BA8:  MOVF   xC9,F
07BAA:  BNZ   7BB0
....................       {Opcion=4;} 
07BAC:  MOVLW  04
07BAE:  MOVWF  xC9
....................      
....................     } 
.................... //_--------------------------------------------------------------------------------------------------------------------------------------------------------        
....................  
.................... //_-------------------------------------------------------------------------------------------------------------------------------------------------------- 
....................       if(Menu==12){ //Menu de Post-Purga. 
07BB0:  MOVF   xC7,W
07BB2:  SUBLW  0C
07BB4:  BTFSS  FD8.2
07BB6:  BRA    7F78
....................        
....................       strcpy(Menus.Letra,"T. Post-Purga"); 
07BB8:  MOVLW  04
07BBA:  MOVWF  FEA
07BBC:  MOVLW  16
07BBE:  MOVWF  FE9
07BC0:  MOVFF  FF2,5D3
07BC4:  BCF    FF2.7
07BC6:  MOVLW  00
07BC8:  MOVLB  0
07BCA:  CALL   1138
07BCE:  TBLRD*-
07BD0:  TBLRD*+
07BD2:  MOVF   FF5,W
07BD4:  MOVWF  FEE
07BD6:  IORLW  00
07BD8:  BNZ   7BD0
07BDA:  MOVLB  5
07BDC:  BTFSC  xD3.7
07BDE:  BSF    FF2.7
....................       displayMenu(Menus.Letra,0,0,1,2); 
07BE0:  MOVLW  04
07BE2:  MOVWF  xDC
07BE4:  MOVLW  16
07BE6:  MOVWF  xDB
07BE8:  CLRF   xDD
07BEA:  CLRF   xDE
07BEC:  MOVLW  01
07BEE:  MOVWF  xDF
07BF0:  MOVLW  02
07BF2:  MOVWF  xE0
07BF4:  MOVLB  0
07BF6:  CALL   4C06
....................        
....................       if(unidad==4) 
07BFA:  MOVLB  4
07BFC:  MOVF   xC8,W
07BFE:  SUBLW  04
07C00:  BNZ   7C20
....................       {displayTiempo(Tppurgap[3],20,40,1,2);} 
07C02:  MOVFF  4F2,5D3
07C06:  MOVLW  14
07C08:  MOVLB  5
07C0A:  MOVWF  xD4
07C0C:  MOVLW  28
07C0E:  MOVWF  xD5
07C10:  MOVLW  01
07C12:  MOVWF  xD6
07C14:  MOVLW  02
07C16:  MOVWF  xD7
07C18:  MOVLB  0
07C1A:  CALL   53E8
....................       else 
07C1E:  BRA    7C3A
....................       {displayTiempo(Tppurgap[3],20,40,0,2);} 
07C20:  MOVFF  4F2,5D3
07C24:  MOVLW  14
07C26:  MOVLB  5
07C28:  MOVWF  xD4
07C2A:  MOVLW  28
07C2C:  MOVWF  xD5
07C2E:  CLRF   xD6
07C30:  MOVLW  02
07C32:  MOVWF  xD7
07C34:  MOVLB  0
07C36:  CALL   53E8
....................        
....................       if(unidad==3) 
07C3A:  MOVLB  4
07C3C:  MOVF   xC8,W
07C3E:  SUBLW  03
07C40:  BNZ   7C5E
....................       {displayTiempo(Tppurgap[2],40,40,1,2);} 
07C42:  MOVFF  4F1,5D3
07C46:  MOVLW  28
07C48:  MOVLB  5
07C4A:  MOVWF  xD4
07C4C:  MOVWF  xD5
07C4E:  MOVLW  01
07C50:  MOVWF  xD6
07C52:  MOVLW  02
07C54:  MOVWF  xD7
07C56:  MOVLB  0
07C58:  CALL   53E8
....................       else 
07C5C:  BRA    7C76
....................       {displayTiempo(Tppurgap[2],40,40,0,2);} 
07C5E:  MOVFF  4F1,5D3
07C62:  MOVLW  28
07C64:  MOVLB  5
07C66:  MOVWF  xD4
07C68:  MOVWF  xD5
07C6A:  CLRF   xD6
07C6C:  MOVLW  02
07C6E:  MOVWF  xD7
07C70:  MOVLB  0
07C72:  CALL   53E8
....................        
....................       if(unidad==2) 
07C76:  MOVLB  4
07C78:  MOVF   xC8,W
07C7A:  SUBLW  02
07C7C:  BNZ   7C9C
....................       {displayTiempo(Tppurgap[1],70,40,1,2);} 
07C7E:  MOVFF  4F0,5D3
07C82:  MOVLW  46
07C84:  MOVLB  5
07C86:  MOVWF  xD4
07C88:  MOVLW  28
07C8A:  MOVWF  xD5
07C8C:  MOVLW  01
07C8E:  MOVWF  xD6
07C90:  MOVLW  02
07C92:  MOVWF  xD7
07C94:  MOVLB  0
07C96:  CALL   53E8
....................       else 
07C9A:  BRA    7CB6
....................       {displayTiempo(Tppurgap[1],70,40,0,2);} 
07C9C:  MOVFF  4F0,5D3
07CA0:  MOVLW  46
07CA2:  MOVLB  5
07CA4:  MOVWF  xD4
07CA6:  MOVLW  28
07CA8:  MOVWF  xD5
07CAA:  CLRF   xD6
07CAC:  MOVLW  02
07CAE:  MOVWF  xD7
07CB0:  MOVLB  0
07CB2:  CALL   53E8
....................        
....................       if(unidad==1) 
07CB6:  MOVLB  4
07CB8:  DECFSZ xC8,W
07CBA:  BRA    7CDA
....................       {displayTiempo(Tppurgap[0],90,40,1,2);} 
07CBC:  MOVFF  4EF,5D3
07CC0:  MOVLW  5A
07CC2:  MOVLB  5
07CC4:  MOVWF  xD4
07CC6:  MOVLW  28
07CC8:  MOVWF  xD5
07CCA:  MOVLW  01
07CCC:  MOVWF  xD6
07CCE:  MOVLW  02
07CD0:  MOVWF  xD7
07CD2:  MOVLB  0
07CD4:  CALL   53E8
....................       else 
07CD8:  BRA    7CF4
....................       {displayTiempo(Tppurgap[0],90,40,0,2);} 
07CDA:  MOVFF  4EF,5D3
07CDE:  MOVLW  5A
07CE0:  MOVLB  5
07CE2:  MOVWF  xD4
07CE4:  MOVLW  28
07CE6:  MOVWF  xD5
07CE8:  CLRF   xD6
07CEA:  MOVLW  02
07CEC:  MOVWF  xD7
07CEE:  MOVLB  0
07CF0:  CALL   53E8
....................        
....................       glcd_text57(60, 42, Dos_puntos, 2, ON); 
07CF4:  MOVLW  3C
07CF6:  MOVLB  5
07CF8:  MOVWF  xEC
07CFA:  MOVLW  2A
07CFC:  MOVWF  xED
07CFE:  MOVLW  04
07D00:  MOVWF  xEF
07D02:  MOVLW  4D
07D04:  MOVWF  xEE
07D06:  MOVLW  02
07D08:  MOVWF  xF0
07D0A:  MOVLW  01
07D0C:  MOVWF  xF1
07D0E:  MOVLB  0
07D10:  CALL   4994
....................           
....................          
....................       if(UP)//Si oprime hacia arriba 
07D14:  BSF    F92.5
07D16:  BTFSC  F80.5
07D18:  BRA    7D44
....................       {  if(Flanco == 0)  
07D1A:  MOVLB  4
07D1C:  BTFSC  x2C.0
07D1E:  BRA    7D42
....................             {Flanco = 1;delay_ms(30);Tppurgap[unidad-1]++; 
07D20:  BSF    x2C.0
07D22:  MOVLW  1E
07D24:  MOVLB  5
07D26:  MOVWF  xE7
07D28:  MOVLB  0
07D2A:  CALL   1496
07D2E:  MOVLW  01
07D30:  MOVLB  4
07D32:  SUBWF  xC8,W
07D34:  CLRF   03
07D36:  ADDLW  EF
07D38:  MOVWF  FE9
07D3A:  MOVLW  04
07D3C:  ADDWFC 03,W
07D3E:  MOVWF  FEA
07D40:  INCF   FEF,F
....................             } 
....................       } 
....................          else 
07D42:  BRA    7D48
....................             {Flanco = 0;} 
07D44:  MOVLB  4
07D46:  BCF    x2C.0
....................              
....................       if(DOWN)//Si oprime hacia abajo 
07D48:  BSF    F96.0
07D4A:  BTFSC  F84.0
07D4C:  BRA    7D76
....................       {  if(Flanco2 == 0)  
07D4E:  BTFSC  x2C.2
07D50:  BRA    7D74
....................             {Flanco2 = 1;delay_ms(30);Tppurgap[unidad-1]--; 
07D52:  BSF    x2C.2
07D54:  MOVLW  1E
07D56:  MOVLB  5
07D58:  MOVWF  xE7
07D5A:  MOVLB  0
07D5C:  CALL   1496
07D60:  MOVLW  01
07D62:  MOVLB  4
07D64:  SUBWF  xC8,W
07D66:  CLRF   03
07D68:  ADDLW  EF
07D6A:  MOVWF  FE9
07D6C:  MOVLW  04
07D6E:  ADDWFC 03,W
07D70:  MOVWF  FEA
07D72:  DECF   FEF,F
....................             }      
....................       } 
....................          else 
07D74:  BRA    7D78
....................             {Flanco2 = 0;}   
07D76:  BCF    x2C.2
....................              
....................       if(RIGHT)//Si oprime SET 
07D78:  BSF    F96.1
07D7A:  BTFSC  F84.1
07D7C:  BRA    7D96
....................       {  if(Flanco1 == 0)  
07D7E:  BTFSC  x2C.1
07D80:  BRA    7D94
....................             {Flanco1 = 1;delay_ms(30);unidad--; 
07D82:  BSF    x2C.1
07D84:  MOVLW  1E
07D86:  MOVLB  5
07D88:  MOVWF  xE7
07D8A:  MOVLB  0
07D8C:  CALL   1496
07D90:  MOVLB  4
07D92:  DECF   xC8,F
....................             } 
....................       } 
....................          else 
07D94:  BRA    7D98
....................             {Flanco1 = 0;}   
07D96:  BCF    x2C.1
....................              
....................       if(LEFT)//Si oprime boton de Toma. 
07D98:  BSF    F96.2
07D9A:  BTFSC  F84.2
07D9C:  BRA    7EAC
....................       { 
....................          delay_ms(700);Menu=4;glcd_fillscreen(OFF);Opcion=1;unidad=1; 
07D9E:  MOVLW  04
07DA0:  MOVLB  5
07DA2:  MOVWF  xD3
07DA4:  MOVLW  AF
07DA6:  MOVWF  xE7
07DA8:  MOVLB  0
07DAA:  CALL   1496
07DAE:  MOVLB  5
07DB0:  DECFSZ xD3,F
07DB2:  BRA    7DA4
07DB4:  MOVLW  04
07DB6:  MOVLB  4
07DB8:  MOVWF  xC7
07DBA:  MOVLB  5
07DBC:  CLRF   xDB
07DBE:  MOVLB  0
07DC0:  CALL   1576
07DC4:  MOVLW  01
07DC6:  MOVLB  4
07DC8:  MOVWF  xC9
07DCA:  MOVWF  xC8
....................          write_eeprom(8,Tppurgap[0]); 
07DCC:  CLRF   FAA
07DCE:  MOVLW  08
07DD0:  MOVWF  FA9
07DD2:  MOVFF  4EF,FA8
07DD6:  BCF    FA6.6
07DD8:  BCF    FA6.7
07DDA:  BSF    FA6.2
07DDC:  MOVF   FF2,W
07DDE:  MOVWF  00
07DE0:  BCF    FF2.7
07DE2:  MOVLB  F
07DE4:  MOVLW  55
07DE6:  MOVWF  FA7
07DE8:  MOVLW  AA
07DEA:  MOVWF  FA7
07DEC:  BSF    FA6.1
07DEE:  BTFSC  FA6.1
07DF0:  BRA    7DEE
07DF2:  BCF    FA6.2
07DF4:  MOVF   00,W
07DF6:  IORWF  FF2,F
....................          delay_ms(20); 
07DF8:  MOVLW  14
07DFA:  MOVLB  5
07DFC:  MOVWF  xE7
07DFE:  MOVLB  0
07E00:  CALL   1496
....................          write_eeprom(9,Tppurgap[1]); 
07E04:  CLRF   FAA
07E06:  MOVLW  09
07E08:  MOVWF  FA9
07E0A:  MOVFF  4F0,FA8
07E0E:  BCF    FA6.6
07E10:  BCF    FA6.7
07E12:  BSF    FA6.2
07E14:  MOVF   FF2,W
07E16:  MOVWF  00
07E18:  BCF    FF2.7
07E1A:  MOVLB  F
07E1C:  MOVLW  55
07E1E:  MOVWF  FA7
07E20:  MOVLW  AA
07E22:  MOVWF  FA7
07E24:  BSF    FA6.1
07E26:  BTFSC  FA6.1
07E28:  BRA    7E26
07E2A:  BCF    FA6.2
07E2C:  MOVF   00,W
07E2E:  IORWF  FF2,F
....................          delay_ms(20); 
07E30:  MOVLW  14
07E32:  MOVLB  5
07E34:  MOVWF  xE7
07E36:  MOVLB  0
07E38:  CALL   1496
....................          write_eeprom(10,Tppurgap[2]); 
07E3C:  CLRF   FAA
07E3E:  MOVLW  0A
07E40:  MOVWF  FA9
07E42:  MOVFF  4F1,FA8
07E46:  BCF    FA6.6
07E48:  BCF    FA6.7
07E4A:  BSF    FA6.2
07E4C:  MOVF   FF2,W
07E4E:  MOVWF  00
07E50:  BCF    FF2.7
07E52:  MOVLB  F
07E54:  MOVLW  55
07E56:  MOVWF  FA7
07E58:  MOVLW  AA
07E5A:  MOVWF  FA7
07E5C:  BSF    FA6.1
07E5E:  BTFSC  FA6.1
07E60:  BRA    7E5E
07E62:  BCF    FA6.2
07E64:  MOVF   00,W
07E66:  IORWF  FF2,F
....................          delay_ms(20); 
07E68:  MOVLW  14
07E6A:  MOVLB  5
07E6C:  MOVWF  xE7
07E6E:  MOVLB  0
07E70:  CALL   1496
....................          write_eeprom(11,Tppurgap[3]); 
07E74:  CLRF   FAA
07E76:  MOVLW  0B
07E78:  MOVWF  FA9
07E7A:  MOVFF  4F2,FA8
07E7E:  BCF    FA6.6
07E80:  BCF    FA6.7
07E82:  BSF    FA6.2
07E84:  MOVF   FF2,W
07E86:  MOVWF  00
07E88:  BCF    FF2.7
07E8A:  MOVLB  F
07E8C:  MOVLW  55
07E8E:  MOVWF  FA7
07E90:  MOVLW  AA
07E92:  MOVWF  FA7
07E94:  BSF    FA6.1
07E96:  BTFSC  FA6.1
07E98:  BRA    7E96
07E9A:  BCF    FA6.2
07E9C:  MOVF   00,W
07E9E:  IORWF  FF2,F
....................          delay_ms(20); 
07EA0:  MOVLW  14
07EA2:  MOVLB  5
07EA4:  MOVWF  xE7
07EA6:  MOVLB  0
07EA8:  CALL   1496
....................       } 
....................              
....................       for(i=0;i<4;i++) 
07EAC:  MOVLB  5
07EAE:  CLRF   xC3
07EB0:  MOVF   xC3,W
07EB2:  SUBLW  03
07EB4:  BNC   7F08
....................       { 
....................          if(Tppurgap[i]>9) 
07EB6:  CLRF   03
07EB8:  MOVF   xC3,W
07EBA:  ADDLW  EF
07EBC:  MOVWF  FE9
07EBE:  MOVLW  04
07EC0:  ADDWFC 03,W
07EC2:  MOVWF  FEA
07EC4:  BTFSC  FEF.7
07EC6:  BRA    7EDE
07EC8:  MOVF   FEF,W
07ECA:  SUBLW  09
07ECC:  BC    7EDE
....................          {Tppurgap[i]=0;} 
07ECE:  CLRF   03
07ED0:  MOVF   xC3,W
07ED2:  ADDLW  EF
07ED4:  MOVWF  FE9
07ED6:  MOVLW  04
07ED8:  ADDWFC 03,W
07EDA:  MOVWF  FEA
07EDC:  CLRF   FEF
....................           
....................          if(Tppurgap[i]<0) 
07EDE:  CLRF   03
07EE0:  MOVF   xC3,W
07EE2:  ADDLW  EF
07EE4:  MOVWF  FE9
07EE6:  MOVLW  04
07EE8:  ADDWFC 03,W
07EEA:  MOVWF  FEA
07EEC:  BTFSC  FEF.7
07EEE:  BRA    7EF2
07EF0:  BRA    7F04
....................          {Tppurgap[i]=9;} 
07EF2:  CLRF   03
07EF4:  MOVF   xC3,W
07EF6:  ADDLW  EF
07EF8:  MOVWF  FE9
07EFA:  MOVLW  04
07EFC:  ADDWFC 03,W
07EFE:  MOVWF  FEA
07F00:  MOVLW  09
07F02:  MOVWF  FEF
....................       } 
07F04:  INCF   xC3,F
07F06:  BRA    7EB0
....................        
....................       for(i=1;i<4;i++) 
07F08:  MOVLW  01
07F0A:  MOVWF  xC3
07F0C:  MOVF   xC3,W
07F0E:  SUBLW  03
07F10:  BNC   7F66
....................       { 
....................          if(Tppurgap[i]>5) 
07F12:  CLRF   03
07F14:  MOVF   xC3,W
07F16:  ADDLW  EF
07F18:  MOVWF  FE9
07F1A:  MOVLW  04
07F1C:  ADDWFC 03,W
07F1E:  MOVWF  FEA
07F20:  BTFSC  FEF.7
07F22:  BRA    7F3A
07F24:  MOVF   FEF,W
07F26:  SUBLW  05
07F28:  BC    7F3A
....................          {Tppurgap[i]=0;} 
07F2A:  CLRF   03
07F2C:  MOVF   xC3,W
07F2E:  ADDLW  EF
07F30:  MOVWF  FE9
07F32:  MOVLW  04
07F34:  ADDWFC 03,W
07F36:  MOVWF  FEA
07F38:  CLRF   FEF
....................           
....................          if(Tppurgap[i]<0) 
07F3A:  CLRF   03
07F3C:  MOVF   xC3,W
07F3E:  ADDLW  EF
07F40:  MOVWF  FE9
07F42:  MOVLW  04
07F44:  ADDWFC 03,W
07F46:  MOVWF  FEA
07F48:  BTFSC  FEF.7
07F4A:  BRA    7F4E
07F4C:  BRA    7F60
....................          {Tppurgap[i]=5;} 
07F4E:  CLRF   03
07F50:  MOVF   xC3,W
07F52:  ADDLW  EF
07F54:  MOVWF  FE9
07F56:  MOVLW  04
07F58:  ADDWFC 03,W
07F5A:  MOVWF  FEA
07F5C:  MOVLW  05
07F5E:  MOVWF  FEF
....................         i++;  
07F60:  INCF   xC3,F
....................       } 
07F62:  INCF   xC3,F
07F64:  BRA    7F0C
....................       if(unidad<1) 
07F66:  MOVLB  4
07F68:  MOVF   xC8,F
07F6A:  BNZ   7F70
....................       {unidad=4;} 
07F6C:  MOVLW  04
07F6E:  MOVWF  xC8
....................       if(Opcion<1) 
07F70:  MOVF   xC9,F
07F72:  BNZ   7F78
....................       {Opcion=4;} 
07F74:  MOVLW  04
07F76:  MOVWF  xC9
....................      
....................     } 
.................... //_--------------------------------------------------------------------------------------------------------------------------------------------------------        
....................  
.................... //_-------------------------------------------------------------------------------------------------------------------------------------------------------- 
....................       if(Menu==5){ //Menu de Clave. 
07F78:  MOVF   xC7,W
07F7A:  SUBLW  05
07F7C:  BNZ   7FDC
....................  
....................       PidePassword(3,5,211,Password[0],Password[1],Password[2],Password[3]); 
07F7E:  MOVLW  03
07F80:  MOVLB  5
07F82:  MOVWF  xD4
07F84:  MOVLW  05
07F86:  MOVWF  xD5
07F88:  MOVLW  D3
07F8A:  MOVWF  xD6
07F8C:  MOVFF  503,5D7
07F90:  MOVFF  504,5D8
07F94:  MOVFF  505,5D9
07F98:  MOVFF  506,5DA
07F9C:  MOVLB  0
07F9E:  CALL   4CD2
....................              
....................       if(LEFT)//Si oprime boton de Toma. 
07FA2:  BSF    F96.2
07FA4:  BTFSC  F84.2
07FA6:  BRA    7FDE
....................       { 
....................          delay_ms(200); 
07FA8:  MOVLW  C8
07FAA:  MOVLB  5
07FAC:  MOVWF  xE7
07FAE:  MOVLB  0
07FB0:  CALL   1496
....................          if(unidad==1){ 
07FB4:  MOVLB  4
07FB6:  DECFSZ xC8,W
07FB8:  BRA    7FDC
....................             Menu=3;glcd_fillscreen(OFF);Opcion=1;unidad=1;Contrasena[0]=0;Contrasena[1]=0;Contrasena[2]=0;Contrasena[3]=0; 
07FBA:  MOVLW  03
07FBC:  MOVWF  xC7
07FBE:  MOVLB  5
07FC0:  CLRF   xDB
07FC2:  MOVLB  0
07FC4:  CALL   1576
07FC8:  MOVLW  01
07FCA:  MOVLB  4
07FCC:  MOVWF  xC9
07FCE:  MOVWF  xC8
07FD0:  CLRF   xFF
07FD2:  MOVLB  5
07FD4:  CLRF   x00
07FD6:  CLRF   x01
07FD8:  CLRF   x02
07FDA:  MOVLB  4
07FDC:  MOVLB  0
....................          } 
....................       }  
....................     } 
.................... //_--------------------------------------------------------------------------------------------------------------------------------------------------------        
....................  
.................... //_-------------------------------------------------------------------------------------------------------------------------------------------------------- 
....................       if(Menu==211){ //Menu de Cambio Clave. 
07FDE:  MOVLB  4
07FE0:  MOVF   xC7,W
07FE2:  SUBLW  D3
07FE4:  BTFSS  FD8.2
07FE6:  BRA    8486
....................        
....................       if(n==0) 
07FE8:  BTFSC  x2E.3
07FEA:  BRA    804A
....................       { 
....................          displayContrasena(Contrasena[0],20,30,1);displayContrasena(Contrasena[1],40,30,0); 
07FEC:  MOVFF  4FF,5DD
07FF0:  MOVLW  14
07FF2:  MOVLB  5
07FF4:  MOVWF  xDE
07FF6:  MOVLW  1E
07FF8:  MOVWF  xDF
07FFA:  MOVLW  01
07FFC:  MOVWF  xE0
07FFE:  MOVLB  0
08000:  CALL   4B4E
08004:  MOVFF  500,5DD
08008:  MOVLW  28
0800A:  MOVLB  5
0800C:  MOVWF  xDE
0800E:  MOVLW  1E
08010:  MOVWF  xDF
08012:  CLRF   xE0
08014:  MOVLB  0
08016:  CALL   4B4E
....................          displayContrasena(Contrasena[2],60,30,0);displayContrasena(Contrasena[0],80,30,0); 
0801A:  MOVFF  501,5DD
0801E:  MOVLW  3C
08020:  MOVLB  5
08022:  MOVWF  xDE
08024:  MOVLW  1E
08026:  MOVWF  xDF
08028:  CLRF   xE0
0802A:  MOVLB  0
0802C:  CALL   4B4E
08030:  MOVFF  4FF,5DD
08034:  MOVLW  50
08036:  MOVLB  5
08038:  MOVWF  xDE
0803A:  MOVLW  1E
0803C:  MOVWF  xDF
0803E:  CLRF   xE0
08040:  MOVLB  0
08042:  CALL   4B4E
....................          n=1; 
08046:  MOVLB  4
08048:  BSF    x2E.3
....................       } 
....................       strcpy(Menus.Letra,"Clave Nueva"); 
0804A:  MOVLW  04
0804C:  MOVWF  FEA
0804E:  MOVLW  16
08050:  MOVWF  FE9
08052:  MOVFF  FF2,5D3
08056:  BCF    FF2.7
08058:  MOVLW  00
0805A:  MOVLB  0
0805C:  CALL   1160
08060:  TBLRD*-
08062:  TBLRD*+
08064:  MOVF   FF5,W
08066:  MOVWF  FEE
08068:  IORLW  00
0806A:  BNZ   8062
0806C:  MOVLB  5
0806E:  BTFSC  xD3.7
08070:  BSF    FF2.7
....................       displayMenu(Menus.Letra,0,0,1,2); 
08072:  MOVLW  04
08074:  MOVWF  xDC
08076:  MOVLW  16
08078:  MOVWF  xDB
0807A:  CLRF   xDD
0807C:  CLRF   xDE
0807E:  MOVLW  01
08080:  MOVWF  xDF
08082:  MOVLW  02
08084:  MOVWF  xE0
08086:  MOVLB  0
08088:  CALL   4C06
....................          
....................        
....................       if(UP)//Si oprime hacia arriba 
0808C:  BSF    F92.5
0808E:  BTFSC  F80.5
08090:  BRA    816A
....................       {  if(Flanco == 0)  
08092:  MOVLB  4
08094:  BTFSC  x2C.0
08096:  BRA    8168
....................             {Flanco = 1;delay_ms(30); 
08098:  BSF    x2C.0
0809A:  MOVLW  1E
0809C:  MOVLB  5
0809E:  MOVWF  xE7
080A0:  MOVLB  0
080A2:  CALL   1496
....................             for(i=1;i<=4;i++) 
080A6:  MOVLW  01
080A8:  MOVLB  5
080AA:  MOVWF  xC3
080AC:  MOVF   xC3,W
080AE:  SUBLW  04
080B0:  BNC   8166
....................                { 
....................                   if(unidad==i) 
080B2:  MOVF   xC3,W
080B4:  MOVLB  4
080B6:  SUBWF  xC8,W
080B8:  BNZ   812E
....................                   {Contrasena[i-1]++; 
080BA:  MOVLW  01
080BC:  MOVLB  5
080BE:  SUBWF  xC3,W
080C0:  CLRF   03
080C2:  ADDLW  FF
080C4:  MOVWF  FE9
080C6:  MOVLW  04
080C8:  ADDWFC 03,W
080CA:  MOVWF  FEA
080CC:  INCF   FEF,F
....................                   if(Contrasena[i-1]>9) 
080CE:  MOVLW  01
080D0:  SUBWF  xC3,W
080D2:  CLRF   03
080D4:  ADDLW  FF
080D6:  MOVWF  FE9
080D8:  MOVLW  04
080DA:  ADDWFC 03,W
080DC:  MOVWF  FEA
080DE:  BTFSC  FEF.7
080E0:  BRA    80FA
080E2:  MOVF   FEF,W
080E4:  SUBLW  09
080E6:  BC    80FA
....................                         {Contrasena[i-1]=0;} 
080E8:  MOVLW  01
080EA:  SUBWF  xC3,W
080EC:  CLRF   03
080EE:  ADDLW  FF
080F0:  MOVWF  FE9
080F2:  MOVLW  04
080F4:  ADDWFC 03,W
080F6:  MOVWF  FEA
080F8:  CLRF   FEF
....................                   displayContrasena(Contrasena[i-1],i*20,30,1);} 
080FA:  MOVLW  01
080FC:  SUBWF  xC3,W
080FE:  CLRF   03
08100:  ADDLW  FF
08102:  MOVWF  FE9
08104:  MOVLW  04
08106:  ADDWFC 03,W
08108:  MOVWF  FEA
0810A:  MOVFF  FEF,5D3
0810E:  MOVF   xC3,W
08110:  MULLW  14
08112:  MOVFF  FF3,5D4
08116:  MOVFF  5D3,5DD
0811A:  MOVFF  5D4,5DE
0811E:  MOVLW  1E
08120:  MOVWF  xDF
08122:  MOVLW  01
08124:  MOVWF  xE0
08126:  MOVLB  0
08128:  CALL   4B4E
....................                   else 
0812C:  BRA    8160
....................                   {displayContrasena(Contrasena[i-1],i*20,30,0);} 
0812E:  MOVLW  01
08130:  MOVLB  5
08132:  SUBWF  xC3,W
08134:  CLRF   03
08136:  ADDLW  FF
08138:  MOVWF  FE9
0813A:  MOVLW  04
0813C:  ADDWFC 03,W
0813E:  MOVWF  FEA
08140:  MOVFF  FEF,5D3
08144:  MOVF   xC3,W
08146:  MULLW  14
08148:  MOVFF  FF3,5D4
0814C:  MOVFF  5D3,5DD
08150:  MOVFF  5D4,5DE
08154:  MOVLW  1E
08156:  MOVWF  xDF
08158:  CLRF   xE0
0815A:  MOVLB  0
0815C:  CALL   4B4E
....................                } 
08160:  MOVLB  5
08162:  INCF   xC3,F
08164:  BRA    80AC
08166:  MOVLB  4
....................             } 
....................       } 
....................          else 
08168:  BRA    816E
....................             {Flanco = 0;} 
0816A:  MOVLB  4
0816C:  BCF    x2C.0
....................              
....................       if(DOWN )//Si oprime hacia abajo 
0816E:  BSF    F96.0
08170:  BTFSC  F84.0
08172:  BRA    8248
....................       {  if(Flanco2 == 0)  
08174:  BTFSC  x2C.2
08176:  BRA    8246
....................             {Flanco2 = 1;delay_ms(30); 
08178:  BSF    x2C.2
0817A:  MOVLW  1E
0817C:  MOVLB  5
0817E:  MOVWF  xE7
08180:  MOVLB  0
08182:  CALL   1496
....................                for(i=1;i<=4;i++) 
08186:  MOVLW  01
08188:  MOVLB  5
0818A:  MOVWF  xC3
0818C:  MOVF   xC3,W
0818E:  SUBLW  04
08190:  BNC   8244
....................                { 
....................                   if(unidad==i) 
08192:  MOVF   xC3,W
08194:  MOVLB  4
08196:  SUBWF  xC8,W
08198:  BNZ   820C
....................                   {Contrasena[i-1]--;  
0819A:  MOVLW  01
0819C:  MOVLB  5
0819E:  SUBWF  xC3,W
081A0:  CLRF   03
081A2:  ADDLW  FF
081A4:  MOVWF  FE9
081A6:  MOVLW  04
081A8:  ADDWFC 03,W
081AA:  MOVWF  FEA
081AC:  DECF   FEF,F
....................                      if(Contrasena[i-1]<0) 
081AE:  MOVLW  01
081B0:  SUBWF  xC3,W
081B2:  CLRF   03
081B4:  ADDLW  FF
081B6:  MOVWF  FE9
081B8:  MOVLW  04
081BA:  ADDWFC 03,W
081BC:  MOVWF  FEA
081BE:  BTFSC  FEF.7
081C0:  BRA    81C4
081C2:  BRA    81D8
....................                         {Contrasena[i-1]=9;} 
081C4:  MOVLW  01
081C6:  SUBWF  xC3,W
081C8:  CLRF   03
081CA:  ADDLW  FF
081CC:  MOVWF  FE9
081CE:  MOVLW  04
081D0:  ADDWFC 03,W
081D2:  MOVWF  FEA
081D4:  MOVLW  09
081D6:  MOVWF  FEF
....................                    displayContrasena(Contrasena[i-1],i*20,30,1);} 
081D8:  MOVLW  01
081DA:  SUBWF  xC3,W
081DC:  CLRF   03
081DE:  ADDLW  FF
081E0:  MOVWF  FE9
081E2:  MOVLW  04
081E4:  ADDWFC 03,W
081E6:  MOVWF  FEA
081E8:  MOVFF  FEF,5D3
081EC:  MOVF   xC3,W
081EE:  MULLW  14
081F0:  MOVFF  FF3,5D4
081F4:  MOVFF  5D3,5DD
081F8:  MOVFF  5D4,5DE
081FC:  MOVLW  1E
081FE:  MOVWF  xDF
08200:  MOVLW  01
08202:  MOVWF  xE0
08204:  MOVLB  0
08206:  CALL   4B4E
....................                   else 
0820A:  BRA    823E
....................                   {displayContrasena(Contrasena[i-1],i*20,30,0);} 
0820C:  MOVLW  01
0820E:  MOVLB  5
08210:  SUBWF  xC3,W
08212:  CLRF   03
08214:  ADDLW  FF
08216:  MOVWF  FE9
08218:  MOVLW  04
0821A:  ADDWFC 03,W
0821C:  MOVWF  FEA
0821E:  MOVFF  FEF,5D3
08222:  MOVF   xC3,W
08224:  MULLW  14
08226:  MOVFF  FF3,5D4
0822A:  MOVFF  5D3,5DD
0822E:  MOVFF  5D4,5DE
08232:  MOVLW  1E
08234:  MOVWF  xDF
08236:  CLRF   xE0
08238:  MOVLB  0
0823A:  CALL   4B4E
....................                }       
0823E:  MOVLB  5
08240:  INCF   xC3,F
08242:  BRA    818C
08244:  MOVLB  4
....................             }      
....................       } 
....................          else 
08246:  BRA    824A
....................             {Flanco2 = 0;}   
08248:  BCF    x2C.2
....................              
....................       if(RIGHT)//Si oprime SET 
0824A:  BSF    F96.1
0824C:  BTFSC  F84.1
0824E:  BRA    82EC
....................       {  if(Flanco1 == 0)  
08250:  BTFSC  x2C.1
08252:  BRA    82EA
....................             {Flanco1 = 1;delay_ms(30);unidad++; 
08254:  BSF    x2C.1
08256:  MOVLW  1E
08258:  MOVLB  5
0825A:  MOVWF  xE7
0825C:  MOVLB  0
0825E:  CALL   1496
08262:  MOVLB  4
08264:  INCF   xC8,F
....................                for(i=1;i<=4;i++) 
08266:  MOVLW  01
08268:  MOVLB  5
0826A:  MOVWF  xC3
0826C:  MOVF   xC3,W
0826E:  SUBLW  04
08270:  BNC   82E8
....................                { 
....................                   if(unidad==i) 
08272:  MOVF   xC3,W
08274:  MOVLB  4
08276:  SUBWF  xC8,W
08278:  BNZ   82B0
....................                   {displayContrasena(Contrasena[i-1],i*20,30,1);} 
0827A:  MOVLW  01
0827C:  MOVLB  5
0827E:  SUBWF  xC3,W
08280:  CLRF   03
08282:  ADDLW  FF
08284:  MOVWF  FE9
08286:  MOVLW  04
08288:  ADDWFC 03,W
0828A:  MOVWF  FEA
0828C:  MOVFF  FEF,5D3
08290:  MOVF   xC3,W
08292:  MULLW  14
08294:  MOVFF  FF3,5D4
08298:  MOVFF  5D3,5DD
0829C:  MOVFF  5D4,5DE
082A0:  MOVLW  1E
082A2:  MOVWF  xDF
082A4:  MOVLW  01
082A6:  MOVWF  xE0
082A8:  MOVLB  0
082AA:  CALL   4B4E
....................                   else 
082AE:  BRA    82E2
....................                   {displayContrasena(Contrasena[i-1],i*20,30,0);} 
082B0:  MOVLW  01
082B2:  MOVLB  5
082B4:  SUBWF  xC3,W
082B6:  CLRF   03
082B8:  ADDLW  FF
082BA:  MOVWF  FE9
082BC:  MOVLW  04
082BE:  ADDWFC 03,W
082C0:  MOVWF  FEA
082C2:  MOVFF  FEF,5D3
082C6:  MOVF   xC3,W
082C8:  MULLW  14
082CA:  MOVFF  FF3,5D4
082CE:  MOVFF  5D3,5DD
082D2:  MOVFF  5D4,5DE
082D6:  MOVLW  1E
082D8:  MOVWF  xDF
082DA:  CLRF   xE0
082DC:  MOVLB  0
082DE:  CALL   4B4E
....................                } 
082E2:  MOVLB  5
082E4:  INCF   xC3,F
082E6:  BRA    826C
082E8:  MOVLB  4
....................             } 
....................       } 
....................          else 
082EA:  BRA    82EE
....................             {Flanco1 = 0;}   
082EC:  BCF    x2C.1
....................              
....................       if(LEFT)//Si oprime boton de Toma. 
082EE:  BSF    F96.2
082F0:  BTFSC  F84.2
082F2:  BRA    8332
....................       { 
....................          
....................          delay_ms(700); 
082F4:  MOVLW  04
082F6:  MOVLB  5
082F8:  MOVWF  xD3
082FA:  MOVLW  AF
082FC:  MOVWF  xE7
082FE:  MOVLB  0
08300:  CALL   1496
08304:  MOVLB  5
08306:  DECFSZ xD3,F
08308:  BRA    82FA
....................          if(unidad==1){ 
0830A:  MOVLB  4
0830C:  DECFSZ xC8,W
0830E:  BRA    8332
....................             Menu=3;glcd_fillscreen(OFF);Opcion=1;unidad=1;Contrasena[0]=0;Contrasena[1]=0;Contrasena[2]=0;Contrasena[3]=0; 
08310:  MOVLW  03
08312:  MOVWF  xC7
08314:  MOVLB  5
08316:  CLRF   xDB
08318:  MOVLB  0
0831A:  CALL   1576
0831E:  MOVLW  01
08320:  MOVLB  4
08322:  MOVWF  xC9
08324:  MOVWF  xC8
08326:  CLRF   xFF
08328:  MOVLB  5
0832A:  CLRF   x00
0832C:  CLRF   x01
0832E:  CLRF   x02
08330:  MOVLB  4
....................          } 
....................       } 
....................        
....................       if(unidad>4) 
08332:  MOVF   xC8,W
08334:  SUBLW  04
08336:  BTFSC  FD8.0
08338:  BRA    8486
....................       { 
....................          Opcion=1;glcd_fillscreen(OFF);unidad=1;n=0; 
0833A:  MOVLW  01
0833C:  MOVWF  xC9
0833E:  MOVLB  5
08340:  CLRF   xDB
08342:  MOVLB  0
08344:  CALL   1576
08348:  MOVLW  01
0834A:  MOVLB  4
0834C:  MOVWF  xC8
0834E:  BCF    x2E.3
....................          Password[0]=Contrasena[0];Password[1]=Contrasena[1];Password[2]=Contrasena[2];Password[3]=Contrasena[3]; 
08350:  MOVFF  4FF,503
08354:  MOVFF  500,504
08358:  MOVFF  501,505
0835C:  MOVFF  502,506
....................          write_eeprom(0,Password[0]); 
08360:  CLRF   FAA
08362:  CLRF   FA9
08364:  MOVFF  503,FA8
08368:  BCF    FA6.6
0836A:  BCF    FA6.7
0836C:  BSF    FA6.2
0836E:  MOVF   FF2,W
08370:  MOVWF  00
08372:  BCF    FF2.7
08374:  MOVLB  F
08376:  MOVLW  55
08378:  MOVWF  FA7
0837A:  MOVLW  AA
0837C:  MOVWF  FA7
0837E:  BSF    FA6.1
08380:  BTFSC  FA6.1
08382:  BRA    8380
08384:  BCF    FA6.2
08386:  MOVF   00,W
08388:  IORWF  FF2,F
....................          delay_ms(20); 
0838A:  MOVLW  14
0838C:  MOVLB  5
0838E:  MOVWF  xE7
08390:  MOVLB  0
08392:  CALL   1496
....................          write_eeprom(1,Password[1]); 
08396:  CLRF   FAA
08398:  MOVLW  01
0839A:  MOVWF  FA9
0839C:  MOVFF  504,FA8
083A0:  BCF    FA6.6
083A2:  BCF    FA6.7
083A4:  BSF    FA6.2
083A6:  MOVF   FF2,W
083A8:  MOVWF  00
083AA:  BCF    FF2.7
083AC:  MOVLB  F
083AE:  MOVLW  55
083B0:  MOVWF  FA7
083B2:  MOVLW  AA
083B4:  MOVWF  FA7
083B6:  BSF    FA6.1
083B8:  BTFSC  FA6.1
083BA:  BRA    83B8
083BC:  BCF    FA6.2
083BE:  MOVF   00,W
083C0:  IORWF  FF2,F
....................          delay_ms(20); 
083C2:  MOVLW  14
083C4:  MOVLB  5
083C6:  MOVWF  xE7
083C8:  MOVLB  0
083CA:  CALL   1496
....................          write_eeprom(2,Password[2]); 
083CE:  CLRF   FAA
083D0:  MOVLW  02
083D2:  MOVWF  FA9
083D4:  MOVFF  505,FA8
083D8:  BCF    FA6.6
083DA:  BCF    FA6.7
083DC:  BSF    FA6.2
083DE:  MOVF   FF2,W
083E0:  MOVWF  00
083E2:  BCF    FF2.7
083E4:  MOVLB  F
083E6:  MOVLW  55
083E8:  MOVWF  FA7
083EA:  MOVLW  AA
083EC:  MOVWF  FA7
083EE:  BSF    FA6.1
083F0:  BTFSC  FA6.1
083F2:  BRA    83F0
083F4:  BCF    FA6.2
083F6:  MOVF   00,W
083F8:  IORWF  FF2,F
....................          delay_ms(20); 
083FA:  MOVLW  14
083FC:  MOVLB  5
083FE:  MOVWF  xE7
08400:  MOVLB  0
08402:  CALL   1496
....................          write_eeprom(3,Password[3]); 
08406:  CLRF   FAA
08408:  MOVLW  03
0840A:  MOVWF  FA9
0840C:  MOVFF  506,FA8
08410:  BCF    FA6.6
08412:  BCF    FA6.7
08414:  BSF    FA6.2
08416:  MOVF   FF2,W
08418:  MOVWF  00
0841A:  BCF    FF2.7
0841C:  MOVLB  F
0841E:  MOVLW  55
08420:  MOVWF  FA7
08422:  MOVLW  AA
08424:  MOVWF  FA7
08426:  BSF    FA6.1
08428:  BTFSC  FA6.1
0842A:  BRA    8428
0842C:  BCF    FA6.2
0842E:  MOVF   00,W
08430:  IORWF  FF2,F
....................          delay_ms(20); 
08432:  MOVLW  14
08434:  MOVLB  5
08436:  MOVWF  xE7
08438:  MOVLB  0
0843A:  CALL   1496
....................          glcd_imagen(1);glcd_update();Menu=211;delay_ms(1000);glcd_fillScreen(OFF);Menu=3; 
0843E:  MOVLW  01
08440:  MOVLB  5
08442:  MOVWF  xD3
08444:  MOVLB  0
08446:  CALL   54E4
0844A:  CALL   15D0
0844E:  MOVLW  D3
08450:  MOVLB  4
08452:  MOVWF  xC7
08454:  MOVLW  04
08456:  MOVLB  5
08458:  MOVWF  xD3
0845A:  MOVLW  FA
0845C:  MOVWF  xE7
0845E:  MOVLB  0
08460:  CALL   1496
08464:  MOVLB  5
08466:  DECFSZ xD3,F
08468:  BRA    845A
0846A:  CLRF   xDB
0846C:  MOVLB  0
0846E:  CALL   1576
08472:  MOVLW  03
08474:  MOVLB  4
08476:  MOVWF  xC7
....................          n=0; 
08478:  BCF    x2E.3
....................          Contrasena[0]=0;Contrasena[1]=0;Contrasena[2]=0;Contrasena[3]=0; 
0847A:  CLRF   xFF
0847C:  MOVLB  5
0847E:  CLRF   x00
08480:  CLRF   x01
08482:  CLRF   x02
08484:  MOVLB  4
....................       } 
....................      
....................     } 
.................... //_--------------------------------------------------------------------------------------------------------------------------------------------------------        
....................  
.................... //_-------------------------------------------------------------------------------------------------------------------------------------------------------- 
....................       if(Menu==31){ //Menu de Mantenimiento. 
08486:  MOVF   xC7,W
08488:  SUBLW  1F
0848A:  BTFSS  FD8.2
0848C:  BRA    87E8
....................        
....................          strcpy(Menus.Letra,"Manteniento"); 
0848E:  MOVLW  04
08490:  MOVWF  FEA
08492:  MOVLW  16
08494:  MOVWF  FE9
08496:  MOVFF  FF2,5D3
0849A:  BCF    FF2.7
0849C:  MOVLW  00
0849E:  MOVLB  0
084A0:  CALL   1186
084A4:  TBLRD*-
084A6:  TBLRD*+
084A8:  MOVF   FF5,W
084AA:  MOVWF  FEE
084AC:  IORLW  00
084AE:  BNZ   84A6
084B0:  MOVLB  5
084B2:  BTFSC  xD3.7
084B4:  BSF    FF2.7
....................          displayMenu(Menus.Letra,0,0,1,2); 
084B6:  MOVLW  04
084B8:  MOVWF  xDC
084BA:  MOVLW  16
084BC:  MOVWF  xDB
084BE:  CLRF   xDD
084C0:  CLRF   xDE
084C2:  MOVLW  01
084C4:  MOVWF  xDF
084C6:  MOVLW  02
084C8:  MOVWF  xE0
084CA:  MOVLB  0
084CC:  CALL   4C06
....................           
....................          strcpy(Menus.Letra,"Trabajo Filtro(h):"); 
084D0:  MOVLW  04
084D2:  MOVWF  FEA
084D4:  MOVLW  16
084D6:  MOVWF  FE9
084D8:  MOVFF  FF2,5D3
084DC:  BCF    FF2.7
084DE:  MOVLW  00
084E0:  CALL   11AC
084E4:  TBLRD*-
084E6:  TBLRD*+
084E8:  MOVF   FF5,W
084EA:  MOVWF  FEE
084EC:  IORLW  00
084EE:  BNZ   84E6
084F0:  MOVLB  5
084F2:  BTFSC  xD3.7
084F4:  BSF    FF2.7
....................          displayMenu(Menus.Letra,10,20,1,1); 
084F6:  MOVLW  04
084F8:  MOVWF  xDC
084FA:  MOVLW  16
084FC:  MOVWF  xDB
084FE:  MOVLW  0A
08500:  MOVWF  xDD
08502:  MOVLW  14
08504:  MOVWF  xDE
08506:  MOVLW  01
08508:  MOVWF  xDF
0850A:  MOVWF  xE0
0850C:  MOVLB  0
0850E:  CALL   4C06
....................          glcd_text57(0, 31, Vida_Filtro, 1, ON); 
08512:  MOVLB  5
08514:  CLRF   xEC
08516:  MOVLW  1F
08518:  MOVWF  xED
0851A:  MOVLW  04
0851C:  MOVWF  xEF
0851E:  MOVLW  9C
08520:  MOVWF  xEE
08522:  MOVLW  01
08524:  MOVWF  xF0
08526:  MOVWF  xF1
08528:  MOVLB  0
0852A:  CALL   4994
....................          displayTiempo(Ttrabajo[3],60,30,0,1);displayTiempo(Ttrabajo[2],67,30,0,1);displayTiempo(Ttrabajo[1],74,30,0,1);displayTiempo(Ttrabajo[0],82,30,0,1); 
0852E:  MOVFF  4FE,5D3
08532:  MOVLW  3C
08534:  MOVLB  5
08536:  MOVWF  xD4
08538:  MOVLW  1E
0853A:  MOVWF  xD5
0853C:  CLRF   xD6
0853E:  MOVLW  01
08540:  MOVWF  xD7
08542:  MOVLB  0
08544:  CALL   53E8
08548:  MOVFF  4FD,5D3
0854C:  MOVLW  43
0854E:  MOVLB  5
08550:  MOVWF  xD4
08552:  MOVLW  1E
08554:  MOVWF  xD5
08556:  CLRF   xD6
08558:  MOVLW  01
0855A:  MOVWF  xD7
0855C:  MOVLB  0
0855E:  CALL   53E8
08562:  MOVFF  4FC,5D3
08566:  MOVLW  4A
08568:  MOVLB  5
0856A:  MOVWF  xD4
0856C:  MOVLW  1E
0856E:  MOVWF  xD5
08570:  CLRF   xD6
08572:  MOVLW  01
08574:  MOVWF  xD7
08576:  MOVLB  0
08578:  CALL   53E8
0857C:  MOVFF  4FB,5D3
08580:  MOVLW  52
08582:  MOVLB  5
08584:  MOVWF  xD4
08586:  MOVLW  1E
08588:  MOVWF  xD5
0858A:  CLRF   xD6
0858C:  MOVLW  01
0858E:  MOVWF  xD7
08590:  MOVLB  0
08592:  CALL   53E8
....................           
....................          LuzBlanca_on; 
08596:  BSF    F8B.0
08598:  BCF    F94.0
....................           
....................             if(UP && RIGHT) // Reinicia Tiempo de Luz UV 
0859A:  BSF    F92.5
0859C:  BTFSC  F80.5
0859E:  BRA    86B0
085A0:  BSF    F96.1
085A2:  BTFSC  F84.1
085A4:  BRA    86B0
....................             { 
....................                   delay_ms(2000); 
085A6:  MOVLW  08
085A8:  MOVLB  5
085AA:  MOVWF  xD3
085AC:  MOVLW  FA
085AE:  MOVWF  xE7
085B0:  MOVLB  0
085B2:  CALL   1496
085B6:  MOVLB  5
085B8:  DECFSZ xD3,F
085BA:  BRA    85AC
....................                   write_eeprom(12,0); 
085BC:  CLRF   FAA
085BE:  MOVLW  0C
085C0:  MOVWF  FA9
085C2:  CLRF   FA8
085C4:  BCF    FA6.6
085C6:  BCF    FA6.7
085C8:  BSF    FA6.2
085CA:  MOVF   FF2,W
085CC:  MOVWF  00
085CE:  BCF    FF2.7
085D0:  MOVLB  F
085D2:  MOVLW  55
085D4:  MOVWF  FA7
085D6:  MOVLW  AA
085D8:  MOVWF  FA7
085DA:  BSF    FA6.1
085DC:  BTFSC  FA6.1
085DE:  BRA    85DC
085E0:  BCF    FA6.2
085E2:  MOVF   00,W
085E4:  IORWF  FF2,F
....................                   delay_ms(20); 
085E6:  MOVLW  14
085E8:  MOVLB  5
085EA:  MOVWF  xE7
085EC:  MOVLB  0
085EE:  CALL   1496
....................                   write_eeprom(13,0); 
085F2:  CLRF   FAA
085F4:  MOVLW  0D
085F6:  MOVWF  FA9
085F8:  CLRF   FA8
085FA:  BCF    FA6.6
085FC:  BCF    FA6.7
085FE:  BSF    FA6.2
08600:  MOVF   FF2,W
08602:  MOVWF  00
08604:  BCF    FF2.7
08606:  MOVLB  F
08608:  MOVLW  55
0860A:  MOVWF  FA7
0860C:  MOVLW  AA
0860E:  MOVWF  FA7
08610:  BSF    FA6.1
08612:  BTFSC  FA6.1
08614:  BRA    8612
08616:  BCF    FA6.2
08618:  MOVF   00,W
0861A:  IORWF  FF2,F
....................                   delay_ms(20); 
0861C:  MOVLW  14
0861E:  MOVLB  5
08620:  MOVWF  xE7
08622:  MOVLB  0
08624:  CALL   1496
....................                   write_eeprom(14,0); 
08628:  CLRF   FAA
0862A:  MOVLW  0E
0862C:  MOVWF  FA9
0862E:  CLRF   FA8
08630:  BCF    FA6.6
08632:  BCF    FA6.7
08634:  BSF    FA6.2
08636:  MOVF   FF2,W
08638:  MOVWF  00
0863A:  BCF    FF2.7
0863C:  MOVLB  F
0863E:  MOVLW  55
08640:  MOVWF  FA7
08642:  MOVLW  AA
08644:  MOVWF  FA7
08646:  BSF    FA6.1
08648:  BTFSC  FA6.1
0864A:  BRA    8648
0864C:  BCF    FA6.2
0864E:  MOVF   00,W
08650:  IORWF  FF2,F
....................                   delay_ms(20); 
08652:  MOVLW  14
08654:  MOVLB  5
08656:  MOVWF  xE7
08658:  MOVLB  0
0865A:  CALL   1496
....................                   write_eeprom(15,0); 
0865E:  CLRF   FAA
08660:  MOVLW  0F
08662:  MOVWF  FA9
08664:  CLRF   FA8
08666:  BCF    FA6.6
08668:  BCF    FA6.7
0866A:  BSF    FA6.2
0866C:  MOVF   FF2,W
0866E:  MOVWF  00
08670:  BCF    FF2.7
08672:  MOVLB  F
08674:  MOVLW  55
08676:  MOVWF  FA7
08678:  MOVLW  AA
0867A:  MOVWF  FA7
0867C:  BSF    FA6.1
0867E:  BTFSC  FA6.1
08680:  BRA    867E
08682:  BCF    FA6.2
08684:  MOVF   00,W
08686:  IORWF  FF2,F
....................                   delay_ms(20); 
08688:  MOVLW  14
0868A:  MOVLB  5
0868C:  MOVWF  xE7
0868E:  MOVLB  0
08690:  CALL   1496
....................                   Tuv[3]=0;Tuv[2]=0;Tuv[1]=0;Tuv[0]=0; 
08694:  MOVLB  4
08696:  CLRF   xF6
08698:  CLRF   xF5
0869A:  CLRF   xF4
0869C:  CLRF   xF3
....................                   Menu=3;glcd_fillscreen(OFF);LuzBlanca_off; 
0869E:  MOVLW  03
086A0:  MOVWF  xC7
086A2:  MOVLB  5
086A4:  CLRF   xDB
086A6:  MOVLB  0
086A8:  CALL   1576
086AC:  BCF    F8B.0
086AE:  BCF    F94.0
....................                 
....................             } 
....................             if(DOWN && RIGHT) // Reinicia Tiempo de Trabajo 
086B0:  BSF    F96.0
086B2:  BTFSC  F84.0
086B4:  BRA    87C6
086B6:  BSF    F96.1
086B8:  BTFSC  F84.1
086BA:  BRA    87C6
....................             { 
....................                   delay_ms(2000); 
086BC:  MOVLW  08
086BE:  MOVLB  5
086C0:  MOVWF  xD3
086C2:  MOVLW  FA
086C4:  MOVWF  xE7
086C6:  MOVLB  0
086C8:  CALL   1496
086CC:  MOVLB  5
086CE:  DECFSZ xD3,F
086D0:  BRA    86C2
....................                   write_eeprom(16,0); 
086D2:  CLRF   FAA
086D4:  MOVLW  10
086D6:  MOVWF  FA9
086D8:  CLRF   FA8
086DA:  BCF    FA6.6
086DC:  BCF    FA6.7
086DE:  BSF    FA6.2
086E0:  MOVF   FF2,W
086E2:  MOVWF  00
086E4:  BCF    FF2.7
086E6:  MOVLB  F
086E8:  MOVLW  55
086EA:  MOVWF  FA7
086EC:  MOVLW  AA
086EE:  MOVWF  FA7
086F0:  BSF    FA6.1
086F2:  BTFSC  FA6.1
086F4:  BRA    86F2
086F6:  BCF    FA6.2
086F8:  MOVF   00,W
086FA:  IORWF  FF2,F
....................                   delay_ms(20); 
086FC:  MOVLW  14
086FE:  MOVLB  5
08700:  MOVWF  xE7
08702:  MOVLB  0
08704:  CALL   1496
....................                   write_eeprom(17,0); 
08708:  CLRF   FAA
0870A:  MOVLW  11
0870C:  MOVWF  FA9
0870E:  CLRF   FA8
08710:  BCF    FA6.6
08712:  BCF    FA6.7
08714:  BSF    FA6.2
08716:  MOVF   FF2,W
08718:  MOVWF  00
0871A:  BCF    FF2.7
0871C:  MOVLB  F
0871E:  MOVLW  55
08720:  MOVWF  FA7
08722:  MOVLW  AA
08724:  MOVWF  FA7
08726:  BSF    FA6.1
08728:  BTFSC  FA6.1
0872A:  BRA    8728
0872C:  BCF    FA6.2
0872E:  MOVF   00,W
08730:  IORWF  FF2,F
....................                   delay_ms(20); 
08732:  MOVLW  14
08734:  MOVLB  5
08736:  MOVWF  xE7
08738:  MOVLB  0
0873A:  CALL   1496
....................                   write_eeprom(18,0); 
0873E:  CLRF   FAA
08740:  MOVLW  12
08742:  MOVWF  FA9
08744:  CLRF   FA8
08746:  BCF    FA6.6
08748:  BCF    FA6.7
0874A:  BSF    FA6.2
0874C:  MOVF   FF2,W
0874E:  MOVWF  00
08750:  BCF    FF2.7
08752:  MOVLB  F
08754:  MOVLW  55
08756:  MOVWF  FA7
08758:  MOVLW  AA
0875A:  MOVWF  FA7
0875C:  BSF    FA6.1
0875E:  BTFSC  FA6.1
08760:  BRA    875E
08762:  BCF    FA6.2
08764:  MOVF   00,W
08766:  IORWF  FF2,F
....................                   delay_ms(20); 
08768:  MOVLW  14
0876A:  MOVLB  5
0876C:  MOVWF  xE7
0876E:  MOVLB  0
08770:  CALL   1496
....................                   write_eeprom(19,0); 
08774:  CLRF   FAA
08776:  MOVLW  13
08778:  MOVWF  FA9
0877A:  CLRF   FA8
0877C:  BCF    FA6.6
0877E:  BCF    FA6.7
08780:  BSF    FA6.2
08782:  MOVF   FF2,W
08784:  MOVWF  00
08786:  BCF    FF2.7
08788:  MOVLB  F
0878A:  MOVLW  55
0878C:  MOVWF  FA7
0878E:  MOVLW  AA
08790:  MOVWF  FA7
08792:  BSF    FA6.1
08794:  BTFSC  FA6.1
08796:  BRA    8794
08798:  BCF    FA6.2
0879A:  MOVF   00,W
0879C:  IORWF  FF2,F
....................                   delay_ms(20); 
0879E:  MOVLW  14
087A0:  MOVLB  5
087A2:  MOVWF  xE7
087A4:  MOVLB  0
087A6:  CALL   1496
....................                   Ttrabajo[3]=0;Ttrabajo[2]=0;Ttrabajo[1]=0;Ttrabajo[0]=0; 
087AA:  MOVLB  4
087AC:  CLRF   xFE
087AE:  CLRF   xFD
087B0:  CLRF   xFC
087B2:  CLRF   xFB
....................                   Menu=3;glcd_fillscreen(OFF);LuzBlanca_off; 
087B4:  MOVLW  03
087B6:  MOVWF  xC7
087B8:  MOVLB  5
087BA:  CLRF   xDB
087BC:  MOVLB  0
087BE:  CALL   1576
087C2:  BCF    F8B.0
087C4:  BCF    F94.0
....................             } 
....................              
....................             if(LEFT) 
087C6:  BSF    F96.2
087C8:  BTFSC  F84.2
087CA:  BRA    87EA
....................             { 
....................                Menu=6;glcd_fillscreen(OFF);LuzBlanca_off;Opcion=1;unidad=1; 
087CC:  MOVLW  06
087CE:  MOVLB  4
087D0:  MOVWF  xC7
087D2:  MOVLB  5
087D4:  CLRF   xDB
087D6:  MOVLB  0
087D8:  CALL   1576
087DC:  BCF    F8B.0
087DE:  BCF    F94.0
087E0:  MOVLW  01
087E2:  MOVLB  4
087E4:  MOVWF  xC9
087E6:  MOVWF  xC8
087E8:  MOVLB  0
....................             } 
....................     } 
.................... //_--------------------------------------------------------------------------------------------------------------------------------------------------------        
....................  
.................... //_-------------------------------------------------------------------------------------------------------------------------------------------------------- 
....................       if(Menu==32){ //Menu de Servicio 
087EA:  MOVLB  4
087EC:  MOVF   xC7,W
087EE:  SUBLW  20
087F0:  BTFSS  FD8.2
087F2:  BRA    8B0A
....................        
....................       strcpy(Menus.Letra,"Servicio"); 
087F4:  MOVLW  04
087F6:  MOVWF  FEA
087F8:  MOVLW  16
087FA:  MOVWF  FE9
087FC:  MOVFF  FF2,5D3
08800:  BCF    FF2.7
08802:  MOVLW  00
08804:  MOVLB  0
08806:  CALL   10AE
0880A:  TBLRD*-
0880C:  TBLRD*+
0880E:  MOVF   FF5,W
08810:  MOVWF  FEE
08812:  IORLW  00
08814:  BNZ   880C
08816:  MOVLB  5
08818:  BTFSC  xD3.7
0881A:  BSF    FF2.7
....................       displayMenu(Menus.Letra,10,0,1,2); 
0881C:  MOVLW  04
0881E:  MOVWF  xDC
08820:  MOVLW  16
08822:  MOVWF  xDB
08824:  MOVLW  0A
08826:  MOVWF  xDD
08828:  CLRF   xDE
0882A:  MOVLW  01
0882C:  MOVWF  xDF
0882E:  MOVLW  02
08830:  MOVWF  xE0
08832:  MOVLB  0
08834:  CALL   4C06
....................        
....................       if(Opcion==1)    
08838:  MOVLB  4
0883A:  DECFSZ xC9,W
0883C:  BRA    8884
....................          {strcpy(Menus.Letra,"Sensor de Flujo"); 
0883E:  MOVLW  04
08840:  MOVWF  FEA
08842:  MOVLW  16
08844:  MOVWF  FE9
08846:  MOVFF  FF2,5D3
0884A:  BCF    FF2.7
0884C:  MOVLW  00
0884E:  MOVLB  0
08850:  CALL   11DA
08854:  TBLRD*-
08856:  TBLRD*+
08858:  MOVF   FF5,W
0885A:  MOVWF  FEE
0885C:  IORLW  00
0885E:  BNZ   8856
08860:  MOVLB  5
08862:  BTFSC  xD3.7
08864:  BSF    FF2.7
....................          displayMenu(Menus.Letra,0,18,1,1);} 
08866:  MOVLW  04
08868:  MOVWF  xDC
0886A:  MOVLW  16
0886C:  MOVWF  xDB
0886E:  CLRF   xDD
08870:  MOVLW  12
08872:  MOVWF  xDE
08874:  MOVLW  01
08876:  MOVWF  xDF
08878:  MOVWF  xE0
0887A:  MOVLB  0
0887C:  CALL   4C06
....................       else 
08880:  BRA    88C6
08882:  MOVLB  4
....................          {strcpy(Menus.Letra,"Sensor de Flujo"); 
08884:  MOVLW  04
08886:  MOVWF  FEA
08888:  MOVLW  16
0888A:  MOVWF  FE9
0888C:  MOVFF  FF2,5D3
08890:  BCF    FF2.7
08892:  MOVLW  00
08894:  MOVLB  0
08896:  CALL   11DA
0889A:  TBLRD*-
0889C:  TBLRD*+
0889E:  MOVF   FF5,W
088A0:  MOVWF  FEE
088A2:  IORLW  00
088A4:  BNZ   889C
088A6:  MOVLB  5
088A8:  BTFSC  xD3.7
088AA:  BSF    FF2.7
....................          displayMenu(Menus.Letra,0,18,0,1);}  
088AC:  MOVLW  04
088AE:  MOVWF  xDC
088B0:  MOVLW  16
088B2:  MOVWF  xDB
088B4:  CLRF   xDD
088B6:  MOVLW  12
088B8:  MOVWF  xDE
088BA:  CLRF   xDF
088BC:  MOVLW  01
088BE:  MOVWF  xE0
088C0:  MOVLB  0
088C2:  CALL   4C06
....................           
....................       if(Opcion==2)    
088C6:  MOVLB  4
088C8:  MOVF   xC9,W
088CA:  SUBLW  02
088CC:  BNZ   8914
....................          {strcpy(Menus.Letra,"Sensor de Presion"); 
088CE:  MOVLW  04
088D0:  MOVWF  FEA
088D2:  MOVLW  16
088D4:  MOVWF  FE9
088D6:  MOVFF  FF2,5D3
088DA:  BCF    FF2.7
088DC:  MOVLW  00
088DE:  MOVLB  0
088E0:  CALL   1204
088E4:  TBLRD*-
088E6:  TBLRD*+
088E8:  MOVF   FF5,W
088EA:  MOVWF  FEE
088EC:  IORLW  00
088EE:  BNZ   88E6
088F0:  MOVLB  5
088F2:  BTFSC  xD3.7
088F4:  BSF    FF2.7
....................          displayMenu(Menus.Letra,0,29,1,1);} 
088F6:  MOVLW  04
088F8:  MOVWF  xDC
088FA:  MOVLW  16
088FC:  MOVWF  xDB
088FE:  CLRF   xDD
08900:  MOVLW  1D
08902:  MOVWF  xDE
08904:  MOVLW  01
08906:  MOVWF  xDF
08908:  MOVWF  xE0
0890A:  MOVLB  0
0890C:  CALL   4C06
....................       else 
08910:  BRA    8956
08912:  MOVLB  4
....................          {strcpy(Menus.Letra,"Sensor de Presion"); 
08914:  MOVLW  04
08916:  MOVWF  FEA
08918:  MOVLW  16
0891A:  MOVWF  FE9
0891C:  MOVFF  FF2,5D3
08920:  BCF    FF2.7
08922:  MOVLW  00
08924:  MOVLB  0
08926:  CALL   1204
0892A:  TBLRD*-
0892C:  TBLRD*+
0892E:  MOVF   FF5,W
08930:  MOVWF  FEE
08932:  IORLW  00
08934:  BNZ   892C
08936:  MOVLB  5
08938:  BTFSC  xD3.7
0893A:  BSF    FF2.7
....................          displayMenu(Menus.Letra,0,29,0,1);}   
0893C:  MOVLW  04
0893E:  MOVWF  xDC
08940:  MOVLW  16
08942:  MOVWF  xDB
08944:  CLRF   xDD
08946:  MOVLW  1D
08948:  MOVWF  xDE
0894A:  CLRF   xDF
0894C:  MOVLW  01
0894E:  MOVWF  xE0
08950:  MOVLB  0
08952:  CALL   4C06
....................        
....................       if(Opcion==3)    
08956:  MOVLB  4
08958:  MOVF   xC9,W
0895A:  SUBLW  03
0895C:  BNZ   89A4
....................          {strcpy(Menus.Letra,"Velocidad Ventilador"); 
0895E:  MOVLW  04
08960:  MOVWF  FEA
08962:  MOVLW  16
08964:  MOVWF  FE9
08966:  MOVFF  FF2,5D3
0896A:  BCF    FF2.7
0896C:  MOVLW  00
0896E:  MOVLB  0
08970:  CALL   1230
08974:  TBLRD*-
08976:  TBLRD*+
08978:  MOVF   FF5,W
0897A:  MOVWF  FEE
0897C:  IORLW  00
0897E:  BNZ   8976
08980:  MOVLB  5
08982:  BTFSC  xD3.7
08984:  BSF    FF2.7
....................          displayMenu(Menus.Letra,0,40,1,1);} 
08986:  MOVLW  04
08988:  MOVWF  xDC
0898A:  MOVLW  16
0898C:  MOVWF  xDB
0898E:  CLRF   xDD
08990:  MOVLW  28
08992:  MOVWF  xDE
08994:  MOVLW  01
08996:  MOVWF  xDF
08998:  MOVWF  xE0
0899A:  MOVLB  0
0899C:  CALL   4C06
....................       else 
089A0:  BRA    89E6
089A2:  MOVLB  4
....................          {strcpy(Menus.Letra,"Velocidad Ventilador"); 
089A4:  MOVLW  04
089A6:  MOVWF  FEA
089A8:  MOVLW  16
089AA:  MOVWF  FE9
089AC:  MOVFF  FF2,5D3
089B0:  BCF    FF2.7
089B2:  MOVLW  00
089B4:  MOVLB  0
089B6:  CALL   1230
089BA:  TBLRD*-
089BC:  TBLRD*+
089BE:  MOVF   FF5,W
089C0:  MOVWF  FEE
089C2:  IORLW  00
089C4:  BNZ   89BC
089C6:  MOVLB  5
089C8:  BTFSC  xD3.7
089CA:  BSF    FF2.7
....................          displayMenu(Menus.Letra,0,40,0,1);}  
089CC:  MOVLW  04
089CE:  MOVWF  xDC
089D0:  MOVLW  16
089D2:  MOVWF  xDB
089D4:  CLRF   xDD
089D6:  MOVLW  28
089D8:  MOVWF  xDE
089DA:  CLRF   xDF
089DC:  MOVLW  01
089DE:  MOVWF  xE0
089E0:  MOVLB  0
089E2:  CALL   4C06
....................        
....................          
....................       if(UP)//Si oprime hacia arriba 
089E6:  BSF    F92.5
089E8:  BTFSC  F80.5
089EA:  BRA    8A06
....................       {  if(Flanco == 0)  
089EC:  MOVLB  4
089EE:  BTFSC  x2C.0
089F0:  BRA    8A04
....................             {Flanco = 1;delay_ms(30);Opcion--; 
089F2:  BSF    x2C.0
089F4:  MOVLW  1E
089F6:  MOVLB  5
089F8:  MOVWF  xE7
089FA:  MOVLB  0
089FC:  CALL   1496
08A00:  MOVLB  4
08A02:  DECF   xC9,F
....................             } 
....................       } 
....................          else 
08A04:  BRA    8A0A
....................             {Flanco = 0;} 
08A06:  MOVLB  4
08A08:  BCF    x2C.0
....................              
....................       if(DOWN)//Si oprime hacia abajo 
08A0A:  BSF    F96.0
08A0C:  BTFSC  F84.0
08A0E:  BRA    8A28
....................       {  if(Flanco2 == 0)  
08A10:  BTFSC  x2C.2
08A12:  BRA    8A26
....................             {Flanco2 = 1;delay_ms(30);Opcion++; 
08A14:  BSF    x2C.2
08A16:  MOVLW  1E
08A18:  MOVLB  5
08A1A:  MOVWF  xE7
08A1C:  MOVLB  0
08A1E:  CALL   1496
08A22:  MOVLB  4
08A24:  INCF   xC9,F
....................             }      
....................       } 
....................          else 
08A26:  BRA    8A2A
....................             {Flanco2 = 0;}   
08A28:  BCF    x2C.2
....................              
....................       if(RIGHT)//Si oprime SET 
08A2A:  BSF    F96.1
08A2C:  BTFSC  F84.1
08A2E:  BRA    8AC0
....................       {   
....................          delay_ms(20); 
08A30:  MOVLW  14
08A32:  MOVLB  5
08A34:  MOVWF  xE7
08A36:  MOVLB  0
08A38:  CALL   1496
....................          if(RIGHT){ 
08A3C:  BSF    F96.1
08A3E:  BTFSC  F84.1
08A40:  BRA    8AC2
....................             delay_ms(100); 
08A42:  MOVLW  64
08A44:  MOVLB  5
08A46:  MOVWF  xE7
08A48:  MOVLB  0
08A4A:  CALL   1496
....................             glcd_fillScreen(OFF); 
08A4E:  MOVLB  5
08A50:  CLRF   xDB
08A52:  MOVLB  0
08A54:  CALL   1576
....................             while(!PidePassword(6,32,Opcion+40,4,4,4,4)){ 
08A58:  MOVLW  28
08A5A:  MOVLB  4
08A5C:  ADDWF  xC9,W
08A5E:  MOVLB  5
08A60:  MOVWF  xD3
08A62:  MOVLW  06
08A64:  MOVWF  xD4
08A66:  MOVLW  20
08A68:  MOVWF  xD5
08A6A:  MOVFF  5D3,5D6
08A6E:  MOVLW  04
08A70:  MOVWF  xD7
08A72:  MOVWF  xD8
08A74:  MOVWF  xD9
08A76:  MOVWF  xDA
08A78:  MOVLB  0
08A7A:  CALL   4CD2
08A7E:  MOVF   01,F
08A80:  BNZ   8AAE
....................                PidePassword(6,32,Opcion+40,4,4,4,4);glcd_update(); 
08A82:  MOVLW  28
08A84:  MOVLB  4
08A86:  ADDWF  xC9,W
08A88:  MOVLB  5
08A8A:  MOVWF  xD3
08A8C:  MOVLW  06
08A8E:  MOVWF  xD4
08A90:  MOVLW  20
08A92:  MOVWF  xD5
08A94:  MOVFF  5D3,5D6
08A98:  MOVLW  04
08A9A:  MOVWF  xD7
08A9C:  MOVWF  xD8
08A9E:  MOVWF  xD9
08AA0:  MOVWF  xDA
08AA2:  MOVLB  0
08AA4:  CALL   4CD2
08AA8:  CALL   15D0
....................             }             
08AAC:  BRA    8A58
....................             glcd_fillScreen(OFF);Opcion=1;unidad=1; 
08AAE:  MOVLB  5
08AB0:  CLRF   xDB
08AB2:  MOVLB  0
08AB4:  CALL   1576
08AB8:  MOVLW  01
08ABA:  MOVLB  4
08ABC:  MOVWF  xC9
08ABE:  MOVWF  xC8
08AC0:  MOVLB  0
....................          } 
....................       } 
....................              
....................       if(LEFT)//Si oprime boton de Toma. 
08AC2:  BSF    F96.2
08AC4:  BTFSC  F84.2
08AC6:  BRA    8AF6
....................         {delay_ms(700);Menu=6;glcd_fillscreen(OFF);Opcion=1;unidad=1;} 
08AC8:  MOVLW  04
08ACA:  MOVLB  5
08ACC:  MOVWF  xD3
08ACE:  MOVLW  AF
08AD0:  MOVWF  xE7
08AD2:  MOVLB  0
08AD4:  CALL   1496
08AD8:  MOVLB  5
08ADA:  DECFSZ xD3,F
08ADC:  BRA    8ACE
08ADE:  MOVLW  06
08AE0:  MOVLB  4
08AE2:  MOVWF  xC7
08AE4:  MOVLB  5
08AE6:  CLRF   xDB
08AE8:  MOVLB  0
08AEA:  CALL   1576
08AEE:  MOVLW  01
08AF0:  MOVLB  4
08AF2:  MOVWF  xC9
08AF4:  MOVWF  xC8
....................          
....................       if(Opcion>3) 
08AF6:  MOVLB  4
08AF8:  MOVF   xC9,W
08AFA:  SUBLW  03
08AFC:  BC    8B02
....................       {Opcion=1;} 
08AFE:  MOVLW  01
08B00:  MOVWF  xC9
....................       if(Opcion<1) 
08B02:  MOVF   xC9,F
08B04:  BNZ   8B0A
....................       {Opcion=3;} 
08B06:  MOVLW  03
08B08:  MOVWF  xC9
....................     } 
.................... //_--------------------------------------------------------------------------------------------------------------------------------------------------------        
....................  
.................... //_-------------------------------------------------------------------------------------------------------------------------------------------------------- 
....................       if(Menu==33){ //Menu de Apagado de Cabina. 
08B0A:  MOVF   xC7,W
08B0C:  SUBLW  21
08B0E:  BTFSS  FD8.2
08B10:  BRA    8E86
....................        
....................       strcpy(Menus.Letra,"  Apagar?"); 
08B12:  MOVLW  04
08B14:  MOVWF  FEA
08B16:  MOVLW  16
08B18:  MOVWF  FE9
08B1A:  MOVFF  FF2,5D3
08B1E:  BCF    FF2.7
08B20:  MOVLW  00
08B22:  MOVLB  0
08B24:  CALL   1260
08B28:  TBLRD*-
08B2A:  TBLRD*+
08B2C:  MOVF   FF5,W
08B2E:  MOVWF  FEE
08B30:  IORLW  00
08B32:  BNZ   8B2A
08B34:  MOVLB  5
08B36:  BTFSC  xD3.7
08B38:  BSF    FF2.7
....................       displayMenu(Menus.Letra,10,0,1,2); 
08B3A:  MOVLW  04
08B3C:  MOVWF  xDC
08B3E:  MOVLW  16
08B40:  MOVWF  xDB
08B42:  MOVLW  0A
08B44:  MOVWF  xDD
08B46:  CLRF   xDE
08B48:  MOVLW  01
08B4A:  MOVWF  xDF
08B4C:  MOVLW  02
08B4E:  MOVWF  xE0
08B50:  MOVLB  0
08B52:  CALL   4C06
....................        
....................       if(unidad==1) 
08B56:  MOVLB  4
08B58:  DECFSZ xC8,W
08B5A:  BRA    8BE8
....................       {strcpy(Menus.Letra,"SI"); 
08B5C:  MOVLW  04
08B5E:  MOVWF  FEA
08B60:  MOVLW  16
08B62:  MOVWF  FE9
08B64:  MOVFF  FF2,5D3
08B68:  BCF    FF2.7
08B6A:  MOVLW  00
08B6C:  MOVLB  0
08B6E:  CALL   1284
08B72:  TBLRD*-
08B74:  TBLRD*+
08B76:  MOVF   FF5,W
08B78:  MOVWF  FEE
08B7A:  IORLW  00
08B7C:  BNZ   8B74
08B7E:  MOVLB  5
08B80:  BTFSC  xD3.7
08B82:  BSF    FF2.7
....................       displayMenu(Menus.Letra,50,25,1,2); 
08B84:  MOVLW  04
08B86:  MOVWF  xDC
08B88:  MOVLW  16
08B8A:  MOVWF  xDB
08B8C:  MOVLW  32
08B8E:  MOVWF  xDD
08B90:  MOVLW  19
08B92:  MOVWF  xDE
08B94:  MOVLW  01
08B96:  MOVWF  xDF
08B98:  MOVLW  02
08B9A:  MOVWF  xE0
08B9C:  MOVLB  0
08B9E:  CALL   4C06
....................       strcpy(Menus.Letra,"NO"); 
08BA2:  MOVLW  04
08BA4:  MOVWF  FEA
08BA6:  MOVLW  16
08BA8:  MOVWF  FE9
08BAA:  MOVFF  FF2,5D3
08BAE:  BCF    FF2.7
08BB0:  MOVLW  00
08BB2:  CALL   12A2
08BB6:  TBLRD*-
08BB8:  TBLRD*+
08BBA:  MOVF   FF5,W
08BBC:  MOVWF  FEE
08BBE:  IORLW  00
08BC0:  BNZ   8BB8
08BC2:  MOVLB  5
08BC4:  BTFSC  xD3.7
08BC6:  BSF    FF2.7
....................       displayMenu(Menus.Letra,50,45,0,2);} 
08BC8:  MOVLW  04
08BCA:  MOVWF  xDC
08BCC:  MOVLW  16
08BCE:  MOVWF  xDB
08BD0:  MOVLW  32
08BD2:  MOVWF  xDD
08BD4:  MOVLW  2D
08BD6:  MOVWF  xDE
08BD8:  CLRF   xDF
08BDA:  MOVLW  02
08BDC:  MOVWF  xE0
08BDE:  MOVLB  0
08BE0:  CALL   4C06
....................       else 
08BE4:  BRA    8C70
08BE6:  MOVLB  4
....................       {strcpy(Menus.Letra,"SI"); 
08BE8:  MOVLW  04
08BEA:  MOVWF  FEA
08BEC:  MOVLW  16
08BEE:  MOVWF  FE9
08BF0:  MOVFF  FF2,5D3
08BF4:  BCF    FF2.7
08BF6:  MOVLW  00
08BF8:  MOVLB  0
08BFA:  CALL   1284
08BFE:  TBLRD*-
08C00:  TBLRD*+
08C02:  MOVF   FF5,W
08C04:  MOVWF  FEE
08C06:  IORLW  00
08C08:  BNZ   8C00
08C0A:  MOVLB  5
08C0C:  BTFSC  xD3.7
08C0E:  BSF    FF2.7
....................       displayMenu(Menus.Letra,50,25,0,2); 
08C10:  MOVLW  04
08C12:  MOVWF  xDC
08C14:  MOVLW  16
08C16:  MOVWF  xDB
08C18:  MOVLW  32
08C1A:  MOVWF  xDD
08C1C:  MOVLW  19
08C1E:  MOVWF  xDE
08C20:  CLRF   xDF
08C22:  MOVLW  02
08C24:  MOVWF  xE0
08C26:  MOVLB  0
08C28:  CALL   4C06
....................       strcpy(Menus.Letra,"NO"); 
08C2C:  MOVLW  04
08C2E:  MOVWF  FEA
08C30:  MOVLW  16
08C32:  MOVWF  FE9
08C34:  MOVFF  FF2,5D3
08C38:  BCF    FF2.7
08C3A:  MOVLW  00
08C3C:  CALL   12A2
08C40:  TBLRD*-
08C42:  TBLRD*+
08C44:  MOVF   FF5,W
08C46:  MOVWF  FEE
08C48:  IORLW  00
08C4A:  BNZ   8C42
08C4C:  MOVLB  5
08C4E:  BTFSC  xD3.7
08C50:  BSF    FF2.7
....................       displayMenu(Menus.Letra,50,45,1,2);} 
08C52:  MOVLW  04
08C54:  MOVWF  xDC
08C56:  MOVLW  16
08C58:  MOVWF  xDB
08C5A:  MOVLW  32
08C5C:  MOVWF  xDD
08C5E:  MOVLW  2D
08C60:  MOVWF  xDE
08C62:  MOVLW  01
08C64:  MOVWF  xDF
08C66:  MOVLW  02
08C68:  MOVWF  xE0
08C6A:  MOVLB  0
08C6C:  CALL   4C06
....................        
....................        
....................          
....................       if(UP)//Si oprime hacia arriba 
08C70:  BSF    F92.5
08C72:  BTFSC  F80.5
08C74:  BRA    8C88
....................       {   
....................          delay_ms(90);unidad++; 
08C76:  MOVLW  5A
08C78:  MOVLB  5
08C7A:  MOVWF  xE7
08C7C:  MOVLB  0
08C7E:  CALL   1496
08C82:  MOVLB  4
08C84:  INCF   xC8,F
08C86:  MOVLB  0
....................       } 
....................              
....................       if(DOWN)//Si oprime hacia abajo 
08C88:  BSF    F96.0
08C8A:  BTFSC  F84.0
08C8C:  BRA    8CA0
....................       { 
....................          delay_ms(90);unidad--; 
08C8E:  MOVLW  5A
08C90:  MOVLB  5
08C92:  MOVWF  xE7
08C94:  MOVLB  0
08C96:  CALL   1496
08C9A:  MOVLB  4
08C9C:  DECF   xC8,F
08C9E:  MOVLB  0
....................       } 
....................              
....................       if(RIGHT){//Si oprime SET 
08CA0:  BSF    F96.1
08CA2:  BTFSC  F84.1
08CA4:  BRA    8E3C
....................          delay_ms(30); 
08CA6:  MOVLW  1E
08CA8:  MOVLB  5
08CAA:  MOVWF  xE7
08CAC:  MOVLB  0
08CAE:  CALL   1496
....................          if(Flanco4==0){ 
08CB2:  MOVLB  4
08CB4:  BTFSC  x2C.4
08CB6:  BRA    8E38
....................             if(unidad==1){ 
08CB8:  DECFSZ xC8,W
08CBA:  BRA    8E26
....................                glcd_fillscreen(OFF); 
08CBC:  MOVLB  5
08CBE:  CLRF   xDB
08CC0:  MOVLB  0
08CC2:  CALL   1576
....................                write_eeprom(33,make8(minutos_trabajo,0)); 
08CC6:  MOVFF  4DF,5D3
08CCA:  CLRF   FAA
08CCC:  MOVLW  21
08CCE:  MOVWF  FA9
08CD0:  MOVFF  5D3,FA8
08CD4:  BCF    FA6.6
08CD6:  BCF    FA6.7
08CD8:  BSF    FA6.2
08CDA:  MOVF   FF2,W
08CDC:  MOVWF  00
08CDE:  BCF    FF2.7
08CE0:  MOVLB  F
08CE2:  MOVLW  55
08CE4:  MOVWF  FA7
08CE6:  MOVLW  AA
08CE8:  MOVWF  FA7
08CEA:  BSF    FA6.1
08CEC:  BTFSC  FA6.1
08CEE:  BRA    8CEC
08CF0:  BCF    FA6.2
08CF2:  MOVF   00,W
08CF4:  IORWF  FF2,F
....................                delay_ms(20); 
08CF6:  MOVLW  14
08CF8:  MOVLB  5
08CFA:  MOVWF  xE7
08CFC:  MOVLB  0
08CFE:  CALL   1496
....................                write_eeprom(34,make8(minutos_trabajo,1)); 
08D02:  MOVFF  4E0,5D3
08D06:  CLRF   FAA
08D08:  MOVLW  22
08D0A:  MOVWF  FA9
08D0C:  MOVFF  5D3,FA8
08D10:  BCF    FA6.6
08D12:  BCF    FA6.7
08D14:  BSF    FA6.2
08D16:  MOVF   FF2,W
08D18:  MOVWF  00
08D1A:  BCF    FF2.7
08D1C:  MOVLB  F
08D1E:  MOVLW  55
08D20:  MOVWF  FA7
08D22:  MOVLW  AA
08D24:  MOVWF  FA7
08D26:  BSF    FA6.1
08D28:  BTFSC  FA6.1
08D2A:  BRA    8D28
08D2C:  BCF    FA6.2
08D2E:  MOVF   00,W
08D30:  IORWF  FF2,F
....................                delay_ms(20); 
08D32:  MOVLW  14
08D34:  MOVLB  5
08D36:  MOVWF  xE7
08D38:  MOVLB  0
08D3A:  CALL   1496
....................                write_eeprom(16,Ttrabajo[0]); 
08D3E:  CLRF   FAA
08D40:  MOVLW  10
08D42:  MOVWF  FA9
08D44:  MOVFF  4FB,FA8
08D48:  BCF    FA6.6
08D4A:  BCF    FA6.7
08D4C:  BSF    FA6.2
08D4E:  MOVF   FF2,W
08D50:  MOVWF  00
08D52:  BCF    FF2.7
08D54:  MOVLB  F
08D56:  MOVLW  55
08D58:  MOVWF  FA7
08D5A:  MOVLW  AA
08D5C:  MOVWF  FA7
08D5E:  BSF    FA6.1
08D60:  BTFSC  FA6.1
08D62:  BRA    8D60
08D64:  BCF    FA6.2
08D66:  MOVF   00,W
08D68:  IORWF  FF2,F
....................                delay_ms(20); 
08D6A:  MOVLW  14
08D6C:  MOVLB  5
08D6E:  MOVWF  xE7
08D70:  MOVLB  0
08D72:  CALL   1496
....................                write_eeprom(17,Ttrabajo[1]); 
08D76:  CLRF   FAA
08D78:  MOVLW  11
08D7A:  MOVWF  FA9
08D7C:  MOVFF  4FC,FA8
08D80:  BCF    FA6.6
08D82:  BCF    FA6.7
08D84:  BSF    FA6.2
08D86:  MOVF   FF2,W
08D88:  MOVWF  00
08D8A:  BCF    FF2.7
08D8C:  MOVLB  F
08D8E:  MOVLW  55
08D90:  MOVWF  FA7
08D92:  MOVLW  AA
08D94:  MOVWF  FA7
08D96:  BSF    FA6.1
08D98:  BTFSC  FA6.1
08D9A:  BRA    8D98
08D9C:  BCF    FA6.2
08D9E:  MOVF   00,W
08DA0:  IORWF  FF2,F
....................                delay_ms(20); 
08DA2:  MOVLW  14
08DA4:  MOVLB  5
08DA6:  MOVWF  xE7
08DA8:  MOVLB  0
08DAA:  CALL   1496
....................                write_eeprom(18,Ttrabajo[2]); 
08DAE:  CLRF   FAA
08DB0:  MOVLW  12
08DB2:  MOVWF  FA9
08DB4:  MOVFF  4FD,FA8
08DB8:  BCF    FA6.6
08DBA:  BCF    FA6.7
08DBC:  BSF    FA6.2
08DBE:  MOVF   FF2,W
08DC0:  MOVWF  00
08DC2:  BCF    FF2.7
08DC4:  MOVLB  F
08DC6:  MOVLW  55
08DC8:  MOVWF  FA7
08DCA:  MOVLW  AA
08DCC:  MOVWF  FA7
08DCE:  BSF    FA6.1
08DD0:  BTFSC  FA6.1
08DD2:  BRA    8DD0
08DD4:  BCF    FA6.2
08DD6:  MOVF   00,W
08DD8:  IORWF  FF2,F
....................                delay_ms(20); 
08DDA:  MOVLW  14
08DDC:  MOVLB  5
08DDE:  MOVWF  xE7
08DE0:  MOVLB  0
08DE2:  CALL   1496
....................                write_eeprom(19,Ttrabajo[3]); 
08DE6:  CLRF   FAA
08DE8:  MOVLW  13
08DEA:  MOVWF  FA9
08DEC:  MOVFF  4FE,FA8
08DF0:  BCF    FA6.6
08DF2:  BCF    FA6.7
08DF4:  BSF    FA6.2
08DF6:  MOVF   FF2,W
08DF8:  MOVWF  00
08DFA:  BCF    FF2.7
08DFC:  MOVLB  F
08DFE:  MOVLW  55
08E00:  MOVWF  FA7
08E02:  MOVLW  AA
08E04:  MOVWF  FA7
08E06:  BSF    FA6.1
08E08:  BTFSC  FA6.1
08E0A:  BRA    8E08
08E0C:  BCF    FA6.2
08E0E:  MOVF   00,W
08E10:  IORWF  FF2,F
....................                delay_ms(20); 
08E12:  MOVLW  14
08E14:  MOVLB  5
08E16:  MOVWF  xE7
08E18:  MOVLB  0
08E1A:  CALL   1496
....................                Menu=120; 
08E1E:  MOVLW  78
08E20:  MOVLB  4
08E22:  MOVWF  xC7
....................                //reset_cpu(); 
....................             } 
....................             else{ 
08E24:  BRA    8E36
....................                Menu=2;glcd_fillscreen(OFF); 
08E26:  MOVLW  02
08E28:  MOVWF  xC7
08E2A:  MOVLB  5
08E2C:  CLRF   xDB
08E2E:  MOVLB  0
08E30:  CALL   1576
08E34:  MOVLB  4
....................             } 
....................             Flanco4=1; 
08E36:  BSF    x2C.4
....................          } 
....................       }else{ 
08E38:  BRA    8E40
08E3A:  MOVLB  0
....................          Flanco4=0; 
08E3C:  MOVLB  4
08E3E:  BCF    x2C.4
....................       } 
....................              
....................       if(LEFT)//Si oprime boton de Toma. 
08E40:  BSF    F96.2
08E42:  BTFSC  F84.2
08E44:  BRA    8E72
....................       { 
....................          if(Flanco3==0){ 
08E46:  BTFSC  x2C.3
08E48:  BRA    8E70
....................             delay_ms(30);Menu=2;glcd_fillscreen(OFF);Opcion=1;unidad=1; 
08E4A:  MOVLW  1E
08E4C:  MOVLB  5
08E4E:  MOVWF  xE7
08E50:  MOVLB  0
08E52:  CALL   1496
08E56:  MOVLW  02
08E58:  MOVLB  4
08E5A:  MOVWF  xC7
08E5C:  MOVLB  5
08E5E:  CLRF   xDB
08E60:  MOVLB  0
08E62:  CALL   1576
08E66:  MOVLW  01
08E68:  MOVLB  4
08E6A:  MOVWF  xC9
08E6C:  MOVWF  xC8
....................             Flanco3=1; 
08E6E:  BSF    x2C.3
....................          } 
....................       }else{ 
08E70:  BRA    8E74
....................          Flanco3=0; 
08E72:  BCF    x2C.3
....................       } 
....................        
....................       if(unidad>2) 
08E74:  MOVF   xC8,W
08E76:  SUBLW  02
08E78:  BC    8E7E
....................       {unidad=1;} 
08E7A:  MOVLW  01
08E7C:  MOVWF  xC8
....................       if(unidad<1) 
08E7E:  MOVF   xC8,F
08E80:  BNZ   8E86
....................       {unidad=2;} 
08E82:  MOVLW  02
08E84:  MOVWF  xC8
....................      
....................     } 
.................... //_--------------------------------------------------------------------------------------------------------------------------------------------------------        
....................  
.................... //_-------------------------------------------------------------------------------------------------------------------------------------------------------- 
....................       if(Menu==41){ //Menu de Sensor de Flujo. 
08E86:  MOVF   xC7,W
08E88:  SUBLW  29
08E8A:  BTFSS  FD8.2
08E8C:  BRA    9450
....................        
....................       if(Ajuste1>10.0) 
08E8E:  MOVLB  6
08E90:  CLRF   x07
08E92:  CLRF   x06
08E94:  MOVLW  20
08E96:  MOVWF  x05
08E98:  MOVLW  82
08E9A:  MOVWF  x04
08E9C:  MOVFF  52A,60B
08EA0:  MOVFF  529,60A
08EA4:  MOVFF  528,609
08EA8:  MOVFF  527,608
08EAC:  MOVLB  0
08EAE:  CALL   22C6
08EB2:  BNC   8EC0
....................          Ajuste1=0.0; 
08EB4:  MOVLB  5
08EB6:  CLRF   x2A
08EB8:  CLRF   x29
08EBA:  CLRF   x28
08EBC:  CLRF   x27
08EBE:  MOVLB  0
....................        
....................       strcpy(Menus.Letra,"Sensor de Flujo"); 
08EC0:  MOVLW  04
08EC2:  MOVWF  FEA
08EC4:  MOVLW  16
08EC6:  MOVWF  FE9
08EC8:  MOVFF  FF2,5D3
08ECC:  BCF    FF2.7
08ECE:  MOVLW  00
08ED0:  CALL   11DA
08ED4:  TBLRD*-
08ED6:  TBLRD*+
08ED8:  MOVF   FF5,W
08EDA:  MOVWF  FEE
08EDC:  IORLW  00
08EDE:  BNZ   8ED6
08EE0:  MOVLB  5
08EE2:  BTFSC  xD3.7
08EE4:  BSF    FF2.7
....................       displayMenu(Menus.Letra,10,0,1,1); 
08EE6:  MOVLW  04
08EE8:  MOVWF  xDC
08EEA:  MOVLW  16
08EEC:  MOVWF  xDB
08EEE:  MOVLW  0A
08EF0:  MOVWF  xDD
08EF2:  CLRF   xDE
08EF4:  MOVLW  01
08EF6:  MOVWF  xDF
08EF8:  MOVWF  xE0
08EFA:  MOVLB  0
08EFC:  CALL   4C06
....................        
....................       glcd_text57(0, 12, ZF, 1, ON); 
08F00:  MOVLB  5
08F02:  CLRF   xEC
08F04:  MOVLW  0C
08F06:  MOVWF  xED
08F08:  MOVLW  04
08F0A:  MOVWF  xEF
08F0C:  MOVLW  7E
08F0E:  MOVWF  xEE
08F10:  MOVLW  01
08F12:  MOVWF  xF0
08F14:  MOVWF  xF1
08F16:  MOVLB  0
08F18:  CALL   4994
....................        
....................       glcd_text57(0, 20, ZA, 1, ON); 
08F1C:  MOVLB  5
08F1E:  CLRF   xEC
08F20:  MOVLW  14
08F22:  MOVWF  xED
08F24:  MOVLW  04
08F26:  MOVWF  xEF
08F28:  MOVLW  8C
08F2A:  MOVWF  xEE
08F2C:  MOVLW  01
08F2E:  MOVWF  xF0
08F30:  MOVWF  xF1
08F32:  MOVLB  0
08F34:  CALL   4994
....................        
....................       glcd_text57(0, 30, AJ, 1, ON);            
08F38:  MOVLB  5
08F3A:  CLRF   xEC
08F3C:  MOVLW  1E
08F3E:  MOVWF  xED
08F40:  MOVLW  04
08F42:  MOVWF  xEF
08F44:  MOVLW  94
08F46:  MOVWF  xEE
08F48:  MOVLW  01
08F4A:  MOVWF  xF0
08F4C:  MOVWF  xF1
08F4E:  MOVLB  0
08F50:  CALL   4994
....................        
....................       displayfloat(zero_actual,44,20,0,1); 
08F54:  MOVFF  5B2,5DA
08F58:  MOVFF  5B1,5D9
08F5C:  MOVFF  5B0,5D8
08F60:  MOVFF  5AF,5D7
08F64:  MOVLW  2C
08F66:  MOVLB  5
08F68:  MOVWF  xDB
08F6A:  MOVLW  14
08F6C:  MOVWF  xDC
08F6E:  CLRF   xDD
08F70:  MOVLW  01
08F72:  MOVWF  xDE
08F74:  MOVLB  0
08F76:  CALL   5996
....................       displayfloat(Ajuste1,44,30,0,1); 
08F7A:  MOVFF  52A,5DA
08F7E:  MOVFF  529,5D9
08F82:  MOVFF  528,5D8
08F86:  MOVFF  527,5D7
08F8A:  MOVLW  2C
08F8C:  MOVLB  5
08F8E:  MOVWF  xDB
08F90:  MOVLW  1E
08F92:  MOVWF  xDC
08F94:  CLRF   xDD
08F96:  MOVLW  01
08F98:  MOVWF  xDE
08F9A:  MOVLB  0
08F9C:  CALL   5996
....................       displayfloat(Inflow_adc,0,40,0,1); 
08FA0:  MOVFF  4D6,609
08FA4:  MOVFF  4D5,608
08FA8:  CALL   1730
08FAC:  MOVFF  00,5D3
08FB0:  MOVFF  01,5D4
08FB4:  MOVFF  02,5D5
08FB8:  MOVFF  03,5D6
08FBC:  MOVFF  03,5DA
08FC0:  MOVFF  02,5D9
08FC4:  MOVFF  01,5D8
08FC8:  MOVFF  00,5D7
08FCC:  MOVLB  5
08FCE:  CLRF   xDB
08FD0:  MOVLW  28
08FD2:  MOVWF  xDC
08FD4:  CLRF   xDD
08FD6:  MOVLW  01
08FD8:  MOVWF  xDE
08FDA:  MOVLB  0
08FDC:  CALL   5996
.................... //      displayfloat(Diferencia,0,50,0,1); 
....................        
....................       if(UP)//Si oprime hacia arriba 
08FE0:  BSF    F92.5
08FE2:  BTFSC  F80.5
08FE4:  BRA    902C
....................       {   
....................          delay_ms(30);Ajuste1+=0.01; 
08FE6:  MOVLW  1E
08FE8:  MOVLB  5
08FEA:  MOVWF  xE7
08FEC:  MOVLB  0
08FEE:  CALL   1496
08FF2:  BCF    FD8.1
08FF4:  MOVFF  52A,60B
08FF8:  MOVFF  529,60A
08FFC:  MOVFF  528,609
09000:  MOVFF  527,608
09004:  MOVLW  0A
09006:  MOVLB  6
09008:  MOVWF  x0F
0900A:  MOVLW  D7
0900C:  MOVWF  x0E
0900E:  MOVLW  23
09010:  MOVWF  x0D
09012:  MOVLW  78
09014:  MOVWF  x0C
09016:  MOVLB  0
09018:  CALL   18C4
0901C:  MOVFF  03,52A
09020:  MOVFF  02,529
09024:  MOVFF  01,528
09028:  MOVFF  00,527
....................       } 
....................              
....................       if(DOWN)//Si oprime hacia abajo 
0902C:  BSF    F96.0
0902E:  BTFSC  F84.0
09030:  BRA    9078
....................       {    
....................          delay_ms(30);Ajuste1-=0.01; 
09032:  MOVLW  1E
09034:  MOVLB  5
09036:  MOVWF  xE7
09038:  MOVLB  0
0903A:  CALL   1496
0903E:  BSF    FD8.1
09040:  MOVFF  52A,60B
09044:  MOVFF  529,60A
09048:  MOVFF  528,609
0904C:  MOVFF  527,608
09050:  MOVLW  0A
09052:  MOVLB  6
09054:  MOVWF  x0F
09056:  MOVLW  D7
09058:  MOVWF  x0E
0905A:  MOVLW  23
0905C:  MOVWF  x0D
0905E:  MOVLW  78
09060:  MOVWF  x0C
09062:  MOVLB  0
09064:  CALL   18C4
09068:  MOVFF  03,52A
0906C:  MOVFF  02,529
09070:  MOVFF  01,528
09074:  MOVFF  00,527
....................       } 
....................              
....................       if(RIGHT)//Si oprime SET 
09078:  BSF    F96.1
0907A:  BTFSC  F84.1
0907C:  BRA    92EA
....................       {   
....................          zero_actual=Inflow_adc; 
0907E:  MOVFF  4D6,609
09082:  MOVFF  4D5,608
09086:  CALL   1730
0908A:  MOVFF  03,5B2
0908E:  MOVFF  02,5B1
09092:  MOVFF  01,5B0
09096:  MOVFF  00,5AF
....................          Diferencia=zero_fabrica-Inflow_adc; 
0909A:  MOVFF  4D6,609
0909E:  MOVFF  4D5,608
090A2:  CALL   1730
090A6:  BSF    FD8.1
090A8:  MOVFF  5AE,60B
090AC:  MOVFF  5AD,60A
090B0:  MOVFF  5AC,609
090B4:  MOVFF  5AB,608
090B8:  MOVFF  03,60F
090BC:  MOVFF  02,60E
090C0:  MOVFF  01,60D
090C4:  MOVFF  00,60C
090C8:  CALL   18C4
090CC:  MOVFF  03,516
090D0:  MOVFF  02,515
090D4:  MOVFF  01,514
090D8:  MOVFF  00,513
....................              
....................          if(Diferencia>=0) 
090DC:  MOVLB  6
090DE:  CLRF   x07
090E0:  CLRF   x06
090E2:  CLRF   x05
090E4:  CLRF   x04
090E6:  MOVFF  516,60B
090EA:  MOVFF  515,60A
090EE:  MOVFF  514,609
090F2:  MOVFF  513,608
090F6:  MOVLB  0
090F8:  CALL   22C6
090FC:  BC    9100
090FE:  BNZ   913E
....................          { 
....................             negativo=10;write_eeprom(50,negativo);delay_ms(20); 
09100:  MOVLW  0A
09102:  MOVLB  4
09104:  MOVWF  xCA
09106:  CLRF   FAA
09108:  MOVLW  32
0910A:  MOVWF  FA9
0910C:  MOVFF  4CA,FA8
09110:  BCF    FA6.6
09112:  BCF    FA6.7
09114:  BSF    FA6.2
09116:  MOVF   FF2,W
09118:  MOVWF  00
0911A:  BCF    FF2.7
0911C:  MOVLB  F
0911E:  MOVLW  55
09120:  MOVWF  FA7
09122:  MOVLW  AA
09124:  MOVWF  FA7
09126:  BSF    FA6.1
09128:  BTFSC  FA6.1
0912A:  BRA    9128
0912C:  BCF    FA6.2
0912E:  MOVF   00,W
09130:  IORWF  FF2,F
09132:  MOVLW  14
09134:  MOVLB  5
09136:  MOVWF  xE7
09138:  MOVLB  0
0913A:  CALL   1496
....................          } 
....................          if(Diferencia<0) 
0913E:  MOVFF  516,607
09142:  MOVFF  515,606
09146:  MOVFF  514,605
0914A:  MOVFF  513,604
0914E:  MOVLB  6
09150:  CLRF   x0B
09152:  CLRF   x0A
09154:  CLRF   x09
09156:  CLRF   x08
09158:  MOVLB  0
0915A:  CALL   22C6
0915E:  BNC   919E
....................          { 
....................             negativo=20;write_eeprom(50,negativo);delay_ms(20); 
09160:  MOVLW  14
09162:  MOVLB  4
09164:  MOVWF  xCA
09166:  CLRF   FAA
09168:  MOVLW  32
0916A:  MOVWF  FA9
0916C:  MOVFF  4CA,FA8
09170:  BCF    FA6.6
09172:  BCF    FA6.7
09174:  BSF    FA6.2
09176:  MOVF   FF2,W
09178:  MOVWF  00
0917A:  BCF    FF2.7
0917C:  MOVLB  F
0917E:  MOVLW  55
09180:  MOVWF  FA7
09182:  MOVLW  AA
09184:  MOVWF  FA7
09186:  BSF    FA6.1
09188:  BTFSC  FA6.1
0918A:  BRA    9188
0918C:  BCF    FA6.2
0918E:  MOVF   00,W
09190:  IORWF  FF2,F
09192:  MOVLW  14
09194:  MOVLB  5
09196:  MOVWF  xE7
09198:  MOVLB  0
0919A:  CALL   1496
....................          } 
....................          Diferencia=abs(Diferencia); 
0919E:  MOVFF  513,00
091A2:  MOVFF  514,01
091A6:  MOVFF  515,02
091AA:  MOVFF  516,03
091AE:  BCF    01.7
091B0:  MOVFF  516,516
091B4:  MOVFF  515,515
091B8:  MOVFF  01,514
091BC:  MOVFF  513,513
....................          Temporal1=(int16)Diferencia; 
091C0:  MOVFF  516,607
091C4:  MOVFF  515,606
091C8:  MOVFF  514,605
091CC:  MOVFF  513,604
091D0:  CALL   2D0E
091D4:  MOVFF  02,4DA
091D8:  MOVFF  01,4D9
....................          write_eeprom(60,make8(Temporal1,0)); 
091DC:  MOVFF  4D9,5D3
091E0:  CLRF   FAA
091E2:  MOVLW  3C
091E4:  MOVWF  FA9
091E6:  MOVFF  5D3,FA8
091EA:  BCF    FA6.6
091EC:  BCF    FA6.7
091EE:  BSF    FA6.2
091F0:  MOVF   FF2,W
091F2:  MOVWF  00
091F4:  BCF    FF2.7
091F6:  MOVLB  F
091F8:  MOVLW  55
091FA:  MOVWF  FA7
091FC:  MOVLW  AA
091FE:  MOVWF  FA7
09200:  BSF    FA6.1
09202:  BTFSC  FA6.1
09204:  BRA    9202
09206:  BCF    FA6.2
09208:  MOVF   00,W
0920A:  IORWF  FF2,F
....................          delay_ms(20); 
0920C:  MOVLW  14
0920E:  MOVLB  5
09210:  MOVWF  xE7
09212:  MOVLB  0
09214:  CALL   1496
....................          write_eeprom(61,make8(Temporal1,1));//Guardar valor de Setpoint en eeprom 
09218:  MOVFF  4DA,5D3
0921C:  CLRF   FAA
0921E:  MOVLW  3D
09220:  MOVWF  FA9
09222:  MOVFF  5D3,FA8
09226:  BCF    FA6.6
09228:  BCF    FA6.7
0922A:  BSF    FA6.2
0922C:  MOVF   FF2,W
0922E:  MOVWF  00
09230:  BCF    FF2.7
09232:  MOVLB  F
09234:  MOVLW  55
09236:  MOVWF  FA7
09238:  MOVLW  AA
0923A:  MOVWF  FA7
0923C:  BSF    FA6.1
0923E:  BTFSC  FA6.1
09240:  BRA    923E
09242:  BCF    FA6.2
09244:  MOVF   00,W
09246:  IORWF  FF2,F
....................          delay_ms(20); 
09248:  MOVLW  14
0924A:  MOVLB  5
0924C:  MOVWF  xE7
0924E:  MOVLB  0
09250:  CALL   1496
....................  
....................          Temporal1=(int16)zero_actual; 
09254:  MOVFF  5B2,607
09258:  MOVFF  5B1,606
0925C:  MOVFF  5B0,605
09260:  MOVFF  5AF,604
09264:  CALL   2D0E
09268:  MOVFF  02,4DA
0926C:  MOVFF  01,4D9
....................          write_eeprom(29,make8(Temporal1,0)); 
09270:  MOVFF  4D9,5D3
09274:  CLRF   FAA
09276:  MOVLW  1D
09278:  MOVWF  FA9
0927A:  MOVFF  5D3,FA8
0927E:  BCF    FA6.6
09280:  BCF    FA6.7
09282:  BSF    FA6.2
09284:  MOVF   FF2,W
09286:  MOVWF  00
09288:  BCF    FF2.7
0928A:  MOVLB  F
0928C:  MOVLW  55
0928E:  MOVWF  FA7
09290:  MOVLW  AA
09292:  MOVWF  FA7
09294:  BSF    FA6.1
09296:  BTFSC  FA6.1
09298:  BRA    9296
0929A:  BCF    FA6.2
0929C:  MOVF   00,W
0929E:  IORWF  FF2,F
....................          delay_ms(20); 
092A0:  MOVLW  14
092A2:  MOVLB  5
092A4:  MOVWF  xE7
092A6:  MOVLB  0
092A8:  CALL   1496
....................          write_eeprom(30,make8(Temporal1,1));//Guardar valor de Setpoint en eeprom 
092AC:  MOVFF  4DA,5D3
092B0:  CLRF   FAA
092B2:  MOVLW  1E
092B4:  MOVWF  FA9
092B6:  MOVFF  5D3,FA8
092BA:  BCF    FA6.6
092BC:  BCF    FA6.7
092BE:  BSF    FA6.2
092C0:  MOVF   FF2,W
092C2:  MOVWF  00
092C4:  BCF    FF2.7
092C6:  MOVLB  F
092C8:  MOVLW  55
092CA:  MOVWF  FA7
092CC:  MOVLW  AA
092CE:  MOVWF  FA7
092D0:  BSF    FA6.1
092D2:  BTFSC  FA6.1
092D4:  BRA    92D2
092D6:  BCF    FA6.2
092D8:  MOVF   00,W
092DA:  IORWF  FF2,F
....................          delay_ms(20); 
092DC:  MOVLW  14
092DE:  MOVLB  5
092E0:  MOVWF  xE7
092E2:  MOVLB  0
092E4:  CALL   1496
....................       } 
....................          else 
092E8:  BRA    92F0
....................             {Flanco1 = 0;}   
092EA:  MOVLB  4
092EC:  BCF    x2C.1
092EE:  MOVLB  0
....................              
....................       if(LEFT)//Si oprime boton de Toma. 
092F0:  BSF    F96.2
092F2:  BTFSC  F84.2
092F4:  BRA    944E
....................       { 
....................          delay_ms(700);Menu=32;glcd_fillscreen(OFF);Opcion=1;unidad=1; 
092F6:  MOVLW  04
092F8:  MOVLB  5
092FA:  MOVWF  xD3
092FC:  MOVLW  AF
092FE:  MOVWF  xE7
09300:  MOVLB  0
09302:  CALL   1496
09306:  MOVLB  5
09308:  DECFSZ xD3,F
0930A:  BRA    92FC
0930C:  MOVLW  20
0930E:  MOVLB  4
09310:  MOVWF  xC7
09312:  MOVLB  5
09314:  CLRF   xDB
09316:  MOVLB  0
09318:  CALL   1576
0931C:  MOVLW  01
0931E:  MOVLB  4
09320:  MOVWF  xC9
09322:  MOVWF  xC8
....................          Temporal=Ajuste1; 
09324:  MOVFF  52A,532
09328:  MOVFF  529,531
0932C:  MOVFF  528,530
09330:  MOVFF  527,52F
....................          Entero=(int)Ajuste1; 
09334:  MOVFF  52A,607
09338:  MOVFF  529,606
0933C:  MOVFF  528,605
09340:  MOVFF  527,604
09344:  MOVLB  0
09346:  CALL   2D0E
0934A:  MOVFF  01,4D2
....................          Temporal=Temporal-Entero; 
0934E:  MOVLB  6
09350:  CLRF   x09
09352:  MOVFF  4D2,608
09356:  MOVLB  0
09358:  CALL   1730
0935C:  BSF    FD8.1
0935E:  MOVFF  532,60B
09362:  MOVFF  531,60A
09366:  MOVFF  530,609
0936A:  MOVFF  52F,608
0936E:  MOVFF  03,60F
09372:  MOVFF  02,60E
09376:  MOVFF  01,60D
0937A:  MOVFF  00,60C
0937E:  CALL   18C4
09382:  MOVFF  03,532
09386:  MOVFF  02,531
0938A:  MOVFF  01,530
0938E:  MOVFF  00,52F
....................          Temporal2=Temporal*10.0; 
09392:  MOVFF  532,607
09396:  MOVFF  531,606
0939A:  MOVFF  530,605
0939E:  MOVFF  52F,604
093A2:  MOVLB  6
093A4:  CLRF   x0B
093A6:  CLRF   x0A
093A8:  MOVLW  20
093AA:  MOVWF  x09
093AC:  MOVLW  82
093AE:  MOVWF  x08
093B0:  MOVLB  0
093B2:  CALL   2D4A
093B6:  MOVFF  03,536
093BA:  MOVFF  02,535
093BE:  MOVFF  01,534
093C2:  MOVFF  00,533
....................          Decimal1=(int8)Temporal2; 
093C6:  MOVFF  536,607
093CA:  MOVFF  535,606
093CE:  MOVFF  534,605
093D2:  MOVFF  533,604
093D6:  CALL   2D0E
093DA:  MOVFF  01,4D3
....................          write_eeprom(25,Entero); 
093DE:  CLRF   FAA
093E0:  MOVLW  19
093E2:  MOVWF  FA9
093E4:  MOVFF  4D2,FA8
093E8:  BCF    FA6.6
093EA:  BCF    FA6.7
093EC:  BSF    FA6.2
093EE:  MOVF   FF2,W
093F0:  MOVWF  00
093F2:  BCF    FF2.7
093F4:  MOVLB  F
093F6:  MOVLW  55
093F8:  MOVWF  FA7
093FA:  MOVLW  AA
093FC:  MOVWF  FA7
093FE:  BSF    FA6.1
09400:  BTFSC  FA6.1
09402:  BRA    9400
09404:  BCF    FA6.2
09406:  MOVF   00,W
09408:  IORWF  FF2,F
....................          delay_ms(20); 
0940A:  MOVLW  14
0940C:  MOVLB  5
0940E:  MOVWF  xE7
09410:  MOVLB  0
09412:  CALL   1496
....................          write_eeprom(26,Decimal1); 
09416:  CLRF   FAA
09418:  MOVLW  1A
0941A:  MOVWF  FA9
0941C:  MOVFF  4D3,FA8
09420:  BCF    FA6.6
09422:  BCF    FA6.7
09424:  BSF    FA6.2
09426:  MOVF   FF2,W
09428:  MOVWF  00
0942A:  BCF    FF2.7
0942C:  MOVLB  F
0942E:  MOVLW  55
09430:  MOVWF  FA7
09432:  MOVLW  AA
09434:  MOVWF  FA7
09436:  BSF    FA6.1
09438:  BTFSC  FA6.1
0943A:  BRA    9438
0943C:  BCF    FA6.2
0943E:  MOVF   00,W
09440:  IORWF  FF2,F
....................          delay_ms(20); 
09442:  MOVLW  14
09444:  MOVLB  5
09446:  MOVWF  xE7
09448:  MOVLB  0
0944A:  CALL   1496
0944E:  MOVLB  4
....................       } 
....................     } 
.................... //_--------------------------------------------------------------------------------------------------------------------------------------------------------        
....................  
.................... //_-------------------------------------------------------------------------------------------------------------------------------------------------------- 
....................       if(Menu==42){ //Menu de Sensor de Presin. 
09450:  MOVF   xC7,W
09452:  SUBLW  2A
09454:  BTFSS  FD8.2
09456:  BRA    9884
....................        
....................       if(Ajuste2>10.0) 
09458:  MOVLB  6
0945A:  CLRF   x07
0945C:  CLRF   x06
0945E:  MOVLW  20
09460:  MOVWF  x05
09462:  MOVLW  82
09464:  MOVWF  x04
09466:  MOVFF  52E,60B
0946A:  MOVFF  52D,60A
0946E:  MOVFF  52C,609
09472:  MOVFF  52B,608
09476:  MOVLB  0
09478:  CALL   22C6
0947C:  BNC   948A
....................          Ajuste2=0.0; 
0947E:  MOVLB  5
09480:  CLRF   x2E
09482:  CLRF   x2D
09484:  CLRF   x2C
09486:  CLRF   x2B
09488:  MOVLB  0
....................        
....................       strcpy(Menus.Letra,"Sensor de Presion"); 
0948A:  MOVLW  04
0948C:  MOVWF  FEA
0948E:  MOVLW  16
09490:  MOVWF  FE9
09492:  MOVFF  FF2,5D3
09496:  BCF    FF2.7
09498:  MOVLW  00
0949A:  CALL   1204
0949E:  TBLRD*-
094A0:  TBLRD*+
094A2:  MOVF   FF5,W
094A4:  MOVWF  FEE
094A6:  IORLW  00
094A8:  BNZ   94A0
094AA:  MOVLB  5
094AC:  BTFSC  xD3.7
094AE:  BSF    FF2.7
....................       displayMenu(Menus.Letra,10,0,1,1); 
094B0:  MOVLW  04
094B2:  MOVWF  xDC
094B4:  MOVLW  16
094B6:  MOVWF  xDB
094B8:  MOVLW  0A
094BA:  MOVWF  xDD
094BC:  CLRF   xDE
094BE:  MOVLW  01
094C0:  MOVWF  xDF
094C2:  MOVWF  xE0
094C4:  MOVLB  0
094C6:  CALL   4C06
....................        
....................       glcd_text57(0, 12, ZFP, 1, ON); 
094CA:  MOVLB  5
094CC:  CLRF   xEC
094CE:  MOVLW  0C
094D0:  MOVWF  xED
094D2:  MOVLW  04
094D4:  MOVWF  xEF
094D6:  MOVLW  A7
094D8:  MOVWF  xEE
094DA:  MOVLW  01
094DC:  MOVWF  xF0
094DE:  MOVWF  xF1
094E0:  MOVLB  0
094E2:  CALL   4994
....................        
....................       glcd_text57(0, 20, ZA, 1, ON); 
094E6:  MOVLB  5
094E8:  CLRF   xEC
094EA:  MOVLW  14
094EC:  MOVWF  xED
094EE:  MOVLW  04
094F0:  MOVWF  xEF
094F2:  MOVLW  8C
094F4:  MOVWF  xEE
094F6:  MOVLW  01
094F8:  MOVWF  xF0
094FA:  MOVWF  xF1
094FC:  MOVLB  0
094FE:  CALL   4994
....................        
....................       glcd_text57(0, 30, AJ, 1, ON);            
09502:  MOVLB  5
09504:  CLRF   xEC
09506:  MOVLW  1E
09508:  MOVWF  xED
0950A:  MOVLW  04
0950C:  MOVWF  xEF
0950E:  MOVLW  94
09510:  MOVWF  xEE
09512:  MOVLW  01
09514:  MOVWF  xF0
09516:  MOVWF  xF1
09518:  MOVLB  0
0951A:  CALL   4994
....................        
....................       displayfloat(G,44,20,0,1); 
0951E:  MOVFF  5BE,5DA
09522:  MOVFF  5BD,5D9
09526:  MOVFF  5BC,5D8
0952A:  MOVFF  5BB,5D7
0952E:  MOVLW  2C
09530:  MOVLB  5
09532:  MOVWF  xDB
09534:  MOVLW  14
09536:  MOVWF  xDC
09538:  CLRF   xDD
0953A:  MOVLW  01
0953C:  MOVWF  xDE
0953E:  MOVLB  0
09540:  CALL   5996
....................       displayfloat(Ajuste2,44,30,0,1); 
09544:  MOVFF  52E,5DA
09548:  MOVFF  52D,5D9
0954C:  MOVFF  52C,5D8
09550:  MOVFF  52B,5D7
09554:  MOVLW  2C
09556:  MOVLB  5
09558:  MOVWF  xDB
0955A:  MOVLW  1E
0955C:  MOVWF  xDC
0955E:  CLRF   xDD
09560:  MOVLW  01
09562:  MOVWF  xDE
09564:  MOVLB  0
09566:  CALL   5996
....................       displayfloat(Filtro_DownFlow_adc,0,40,0,1); 
0956A:  MOVFF  4D8,609
0956E:  MOVFF  4D7,608
09572:  CALL   1730
09576:  MOVFF  00,5D3
0957A:  MOVFF  01,5D4
0957E:  MOVFF  02,5D5
09582:  MOVFF  03,5D6
09586:  MOVFF  03,5DA
0958A:  MOVFF  02,5D9
0958E:  MOVFF  01,5D8
09592:  MOVFF  00,5D7
09596:  MOVLB  5
09598:  CLRF   xDB
0959A:  MOVLW  28
0959C:  MOVWF  xDC
0959E:  CLRF   xDD
095A0:  MOVLW  01
095A2:  MOVWF  xDE
095A4:  MOVLB  0
095A6:  CALL   5996
....................       displayfloat(Filtro_DownFlow,0,50,0,1); 
095AA:  MOVFF  512,5DA
095AE:  MOVFF  511,5D9
095B2:  MOVFF  510,5D8
095B6:  MOVFF  50F,5D7
095BA:  MOVLB  5
095BC:  CLRF   xDB
095BE:  MOVLW  32
095C0:  MOVWF  xDC
095C2:  CLRF   xDD
095C4:  MOVLW  01
095C6:  MOVWF  xDE
095C8:  MOVLB  0
095CA:  CALL   5996
....................        
....................       if(UP)//Si oprime hacia arriba 
095CE:  BSF    F92.5
095D0:  BTFSC  F80.5
095D2:  BRA    961A
....................       {   
....................          delay_ms(30);Ajuste2+=0.01; 
095D4:  MOVLW  1E
095D6:  MOVLB  5
095D8:  MOVWF  xE7
095DA:  MOVLB  0
095DC:  CALL   1496
095E0:  BCF    FD8.1
095E2:  MOVFF  52E,60B
095E6:  MOVFF  52D,60A
095EA:  MOVFF  52C,609
095EE:  MOVFF  52B,608
095F2:  MOVLW  0A
095F4:  MOVLB  6
095F6:  MOVWF  x0F
095F8:  MOVLW  D7
095FA:  MOVWF  x0E
095FC:  MOVLW  23
095FE:  MOVWF  x0D
09600:  MOVLW  78
09602:  MOVWF  x0C
09604:  MOVLB  0
09606:  CALL   18C4
0960A:  MOVFF  03,52E
0960E:  MOVFF  02,52D
09612:  MOVFF  01,52C
09616:  MOVFF  00,52B
....................       } 
....................              
....................       if(DOWN)//Si oprime hacia abajo 
0961A:  BSF    F96.0
0961C:  BTFSC  F84.0
0961E:  BRA    9666
....................       {   
....................          delay_ms(30);Ajuste2-=0.01; 
09620:  MOVLW  1E
09622:  MOVLB  5
09624:  MOVWF  xE7
09626:  MOVLB  0
09628:  CALL   1496
0962C:  BSF    FD8.1
0962E:  MOVFF  52E,60B
09632:  MOVFF  52D,60A
09636:  MOVFF  52C,609
0963A:  MOVFF  52B,608
0963E:  MOVLW  0A
09640:  MOVLB  6
09642:  MOVWF  x0F
09644:  MOVLW  D7
09646:  MOVWF  x0E
09648:  MOVLW  23
0964A:  MOVWF  x0D
0964C:  MOVLW  78
0964E:  MOVWF  x0C
09650:  MOVLB  0
09652:  CALL   18C4
09656:  MOVFF  03,52E
0965A:  MOVFF  02,52D
0965E:  MOVFF  01,52C
09662:  MOVFF  00,52B
....................       } 
....................              
....................       if(RIGHT)//Si oprime SET 
09666:  BSF    F96.1
09668:  BTFSC  F84.1
0966A:  BRA    971E
....................       {            
....................          G=Filtro_Downflow_adc; 
0966C:  MOVFF  4D8,609
09670:  MOVFF  4D7,608
09674:  CALL   1730
09678:  MOVFF  03,5BE
0967C:  MOVFF  02,5BD
09680:  MOVFF  01,5BC
09684:  MOVFF  00,5BB
....................          G16=(int16)G; 
09688:  MOVFF  5BE,607
0968C:  MOVFF  5BD,606
09690:  MOVFF  5BC,605
09694:  MOVFF  5BB,604
09698:  CALL   2D0E
0969C:  MOVFF  02,4E2
096A0:  MOVFF  01,4E1
....................          G_l=G16; G_h=(G16>>8); 
096A4:  MOVFF  4E1,4CB
096A8:  MOVFF  4E2,4CC
....................              
....................          write_eeprom(62,G_l); 
096AC:  CLRF   FAA
096AE:  MOVLW  3E
096B0:  MOVWF  FA9
096B2:  MOVFF  4CB,FA8
096B6:  BCF    FA6.6
096B8:  BCF    FA6.7
096BA:  BSF    FA6.2
096BC:  MOVF   FF2,W
096BE:  MOVWF  00
096C0:  BCF    FF2.7
096C2:  MOVLB  F
096C4:  MOVLW  55
096C6:  MOVWF  FA7
096C8:  MOVLW  AA
096CA:  MOVWF  FA7
096CC:  BSF    FA6.1
096CE:  BTFSC  FA6.1
096D0:  BRA    96CE
096D2:  BCF    FA6.2
096D4:  MOVF   00,W
096D6:  IORWF  FF2,F
....................          delay_ms(20); 
096D8:  MOVLW  14
096DA:  MOVLB  5
096DC:  MOVWF  xE7
096DE:  MOVLB  0
096E0:  CALL   1496
....................          write_eeprom(63,G_h);//Guardar valor de Setpoint en eeprom 
096E4:  CLRF   FAA
096E6:  MOVLW  3F
096E8:  MOVWF  FA9
096EA:  MOVFF  4CC,FA8
096EE:  BCF    FA6.6
096F0:  BCF    FA6.7
096F2:  BSF    FA6.2
096F4:  MOVF   FF2,W
096F6:  MOVWF  00
096F8:  BCF    FF2.7
096FA:  MOVLB  F
096FC:  MOVLW  55
096FE:  MOVWF  FA7
09700:  MOVLW  AA
09702:  MOVWF  FA7
09704:  BSF    FA6.1
09706:  BTFSC  FA6.1
09708:  BRA    9706
0970A:  BCF    FA6.2
0970C:  MOVF   00,W
0970E:  IORWF  FF2,F
....................          delay_ms(20); 
09710:  MOVLW  14
09712:  MOVLB  5
09714:  MOVWF  xE7
09716:  MOVLB  0
09718:  CALL   1496
....................       } 
....................          else 
0971C:  BRA    9724
....................             {Flanco1 = 0;}   
0971E:  MOVLB  4
09720:  BCF    x2C.1
09722:  MOVLB  0
....................              
....................       if(LEFT)//Si oprime boton de Toma. 
09724:  BSF    F96.2
09726:  BTFSC  F84.2
09728:  BRA    9882
....................       {                   
....................          delay_ms(700);Menu=32;glcd_fillscreen(OFF);Opcion=1;unidad=1; 
0972A:  MOVLW  04
0972C:  MOVLB  5
0972E:  MOVWF  xD3
09730:  MOVLW  AF
09732:  MOVWF  xE7
09734:  MOVLB  0
09736:  CALL   1496
0973A:  MOVLB  5
0973C:  DECFSZ xD3,F
0973E:  BRA    9730
09740:  MOVLW  20
09742:  MOVLB  4
09744:  MOVWF  xC7
09746:  MOVLB  5
09748:  CLRF   xDB
0974A:  MOVLB  0
0974C:  CALL   1576
09750:  MOVLW  01
09752:  MOVLB  4
09754:  MOVWF  xC9
09756:  MOVWF  xC8
....................          Temporal=Ajuste2; 
09758:  MOVFF  52E,532
0975C:  MOVFF  52D,531
09760:  MOVFF  52C,530
09764:  MOVFF  52B,52F
....................          Entero=(int)Ajuste2; 
09768:  MOVFF  52E,607
0976C:  MOVFF  52D,606
09770:  MOVFF  52C,605
09774:  MOVFF  52B,604
09778:  MOVLB  0
0977A:  CALL   2D0E
0977E:  MOVFF  01,4D2
....................          Temporal=Temporal-Entero; 
09782:  MOVLB  6
09784:  CLRF   x09
09786:  MOVFF  4D2,608
0978A:  MOVLB  0
0978C:  CALL   1730
09790:  BSF    FD8.1
09792:  MOVFF  532,60B
09796:  MOVFF  531,60A
0979A:  MOVFF  530,609
0979E:  MOVFF  52F,608
097A2:  MOVFF  03,60F
097A6:  MOVFF  02,60E
097AA:  MOVFF  01,60D
097AE:  MOVFF  00,60C
097B2:  CALL   18C4
097B6:  MOVFF  03,532
097BA:  MOVFF  02,531
097BE:  MOVFF  01,530
097C2:  MOVFF  00,52F
....................          Temporal2=Temporal*10.0; 
097C6:  MOVFF  532,607
097CA:  MOVFF  531,606
097CE:  MOVFF  530,605
097D2:  MOVFF  52F,604
097D6:  MOVLB  6
097D8:  CLRF   x0B
097DA:  CLRF   x0A
097DC:  MOVLW  20
097DE:  MOVWF  x09
097E0:  MOVLW  82
097E2:  MOVWF  x08
097E4:  MOVLB  0
097E6:  CALL   2D4A
097EA:  MOVFF  03,536
097EE:  MOVFF  02,535
097F2:  MOVFF  01,534
097F6:  MOVFF  00,533
....................          Decimal1=(int8)Temporal2; 
097FA:  MOVFF  536,607
097FE:  MOVFF  535,606
09802:  MOVFF  534,605
09806:  MOVFF  533,604
0980A:  CALL   2D0E
0980E:  MOVFF  01,4D3
....................          write_eeprom(27,Entero); 
09812:  CLRF   FAA
09814:  MOVLW  1B
09816:  MOVWF  FA9
09818:  MOVFF  4D2,FA8
0981C:  BCF    FA6.6
0981E:  BCF    FA6.7
09820:  BSF    FA6.2
09822:  MOVF   FF2,W
09824:  MOVWF  00
09826:  BCF    FF2.7
09828:  MOVLB  F
0982A:  MOVLW  55
0982C:  MOVWF  FA7
0982E:  MOVLW  AA
09830:  MOVWF  FA7
09832:  BSF    FA6.1
09834:  BTFSC  FA6.1
09836:  BRA    9834
09838:  BCF    FA6.2
0983A:  MOVF   00,W
0983C:  IORWF  FF2,F
....................          delay_ms(20); 
0983E:  MOVLW  14
09840:  MOVLB  5
09842:  MOVWF  xE7
09844:  MOVLB  0
09846:  CALL   1496
....................          write_eeprom(28,Decimal1); 
0984A:  CLRF   FAA
0984C:  MOVLW  1C
0984E:  MOVWF  FA9
09850:  MOVFF  4D3,FA8
09854:  BCF    FA6.6
09856:  BCF    FA6.7
09858:  BSF    FA6.2
0985A:  MOVF   FF2,W
0985C:  MOVWF  00
0985E:  BCF    FF2.7
09860:  MOVLB  F
09862:  MOVLW  55
09864:  MOVWF  FA7
09866:  MOVLW  AA
09868:  MOVWF  FA7
0986A:  BSF    FA6.1
0986C:  BTFSC  FA6.1
0986E:  BRA    986C
09870:  BCF    FA6.2
09872:  MOVF   00,W
09874:  IORWF  FF2,F
....................          delay_ms(20); 
09876:  MOVLW  14
09878:  MOVLB  5
0987A:  MOVWF  xE7
0987C:  MOVLB  0
0987E:  CALL   1496
09882:  MOVLB  4
....................       } 
....................     } 
.................... //_--------------------------------------------------------------------------------------------------------------------------------------------------------        
....................  
.................... //_-------------------------------------------------------------------------------------------------------------------------------------------------------- 
....................       if(Menu==43){ //Menu de Velocidad de Motor 
09884:  MOVF   xC7,W
09886:  SUBLW  2B
09888:  BTFSS  FD8.2
0988A:  BRA    9A56
....................        
....................       if(VelMotor>6)VelMotor=6; 
0988C:  MOVLB  5
0988E:  MOVF   xCA,W
09890:  SUBLW  06
09892:  BC    9898
09894:  MOVLW  06
09896:  MOVWF  xCA
....................        
....................       strcpy(Menus.Letra,"Seleccion Vel"); 
09898:  MOVLW  04
0989A:  MOVWF  FEA
0989C:  MOVLW  16
0989E:  MOVWF  FE9
098A0:  MOVFF  FF2,5D3
098A4:  BCF    FF2.7
098A6:  MOVLW  00
098A8:  MOVLB  0
098AA:  CALL   12C0
098AE:  TBLRD*-
098B0:  TBLRD*+
098B2:  MOVF   FF5,W
098B4:  MOVWF  FEE
098B6:  IORLW  00
098B8:  BNZ   98B0
098BA:  MOVLB  5
098BC:  BTFSC  xD3.7
098BE:  BSF    FF2.7
....................       displayMenu(Menus.Letra,10,0,1,1); 
098C0:  MOVLW  04
098C2:  MOVWF  xDC
098C4:  MOVLW  16
098C6:  MOVWF  xDB
098C8:  MOVLW  0A
098CA:  MOVWF  xDD
098CC:  CLRF   xDE
098CE:  MOVLW  01
098D0:  MOVWF  xDF
098D2:  MOVWF  xE0
098D4:  MOVLB  0
098D6:  CALL   4C06
....................        
....................       displayTiempo(VelMotor,50,40,1,2); 
098DA:  MOVFF  5CA,5D3
098DE:  MOVLW  32
098E0:  MOVLB  5
098E2:  MOVWF  xD4
098E4:  MOVLW  28
098E6:  MOVWF  xD5
098E8:  MOVLW  01
098EA:  MOVWF  xD6
098EC:  MOVLW  02
098EE:  MOVWF  xD7
098F0:  MOVLB  0
098F2:  CALL   53E8
....................        
....................       if(UP && VelMotor<6)//Si oprime hacia arriba 
098F6:  BSF    F92.5
098F8:  BTFSC  F80.5
098FA:  BRA    991A
098FC:  MOVLB  5
098FE:  MOVF   xCA,W
09900:  SUBLW  05
09902:  BTFSC  FD8.0
09904:  BRA    990A
09906:  MOVLB  0
09908:  BRA    991A
....................       {   
....................          delay_ms(200);VelMotor++; 
0990A:  MOVLW  C8
0990C:  MOVWF  xE7
0990E:  MOVLB  0
09910:  CALL   1496
09914:  MOVLB  5
09916:  INCF   xCA,F
09918:  MOVLB  0
....................       } 
....................              
....................       if(DOWN && VelMotor>0)//Si oprime hacia abajo 
0991A:  BSF    F96.0
0991C:  BTFSC  F84.0
0991E:  BRA    993C
09920:  MOVLB  5
09922:  MOVF   xCA,F
09924:  BTFSS  FD8.2
09926:  BRA    992C
09928:  MOVLB  0
0992A:  BRA    993C
....................       {   
....................          delay_ms(200);VelMotor--; 
0992C:  MOVLW  C8
0992E:  MOVWF  xE7
09930:  MOVLB  0
09932:  CALL   1496
09936:  MOVLB  5
09938:  DECF   xCA,F
0993A:  MOVLB  0
....................       } 
....................              
....................       if(RIGHT)//Si oprime SET 
0993C:  BSF    F96.1
0993E:  BTFSC  F84.1
09940:  BRA    994A
....................       {            
....................          VelocidadMotor(VelMotor); 
09942:  MOVFF  5CA,5D3
09946:  CALL   14BE
....................       }  
....................              
....................       if(LEFT)//Si oprime boton de Toma. 
0994A:  BSF    F96.2
0994C:  BTFSC  F84.2
0994E:  BRA    9A58
....................       {                   
....................          delay_ms(100);glcd_fillscreen(OFF);Opcion=1;unidad=1; 
09950:  MOVLW  64
09952:  MOVLB  5
09954:  MOVWF  xE7
09956:  MOVLB  0
09958:  CALL   1496
0995C:  MOVLB  5
0995E:  CLRF   xDB
09960:  MOVLB  0
09962:  CALL   1576
09966:  MOVLW  01
09968:  MOVLB  4
0996A:  MOVWF  xC9
0996C:  MOVWF  xC8
....................          write_eeprom(32,VelMotor);//Guardar valor de Setpoint en eeprom 
0996E:  CLRF   FAA
09970:  MOVLW  20
09972:  MOVWF  FA9
09974:  MOVFF  5CA,FA8
09978:  BCF    FA6.6
0997A:  BCF    FA6.7
0997C:  BSF    FA6.2
0997E:  MOVF   FF2,W
09980:  MOVWF  00
09982:  BCF    FF2.7
09984:  MOVLB  F
09986:  MOVLW  55
09988:  MOVWF  FA7
0998A:  MOVLW  AA
0998C:  MOVWF  FA7
0998E:  BSF    FA6.1
09990:  BTFSC  FA6.1
09992:  BRA    9990
09994:  BCF    FA6.2
09996:  MOVF   00,W
09998:  IORWF  FF2,F
....................          delay_ms(20); 
0999A:  MOVLW  14
0999C:  MOVLB  5
0999E:  MOVWF  xE7
099A0:  MOVLB  0
099A2:  CALL   1496
....................          glcd_fillScreen(OFF); 
099A6:  MOVLB  5
099A8:  CLRF   xDB
099AA:  MOVLB  0
099AC:  CALL   1576
....................          strcpy(Menus.Letra,"Velocidad"); 
099B0:  MOVLW  04
099B2:  MOVWF  FEA
099B4:  MOVLW  16
099B6:  MOVWF  FE9
099B8:  MOVFF  FF2,5D3
099BC:  BCF    FF2.7
099BE:  MOVLW  00
099C0:  CALL   12E8
099C4:  TBLRD*-
099C6:  TBLRD*+
099C8:  MOVF   FF5,W
099CA:  MOVWF  FEE
099CC:  IORLW  00
099CE:  BNZ   99C6
099D0:  MOVLB  5
099D2:  BTFSC  xD3.7
099D4:  BSF    FF2.7
....................          displayMenu(Menus.Letra,0,0,0,2); 
099D6:  MOVLW  04
099D8:  MOVWF  xDC
099DA:  MOVLW  16
099DC:  MOVWF  xDB
099DE:  CLRF   xDD
099E0:  CLRF   xDE
099E2:  CLRF   xDF
099E4:  MOVLW  02
099E6:  MOVWF  xE0
099E8:  MOVLB  0
099EA:  CALL   4C06
....................          strcpy(Menus.Letra,"Guardada"); 
099EE:  MOVLW  04
099F0:  MOVWF  FEA
099F2:  MOVLW  16
099F4:  MOVWF  FE9
099F6:  MOVFF  FF2,5D3
099FA:  BCF    FF2.7
099FC:  MOVLW  00
099FE:  CALL   130C
09A02:  TBLRD*-
09A04:  TBLRD*+
09A06:  MOVF   FF5,W
09A08:  MOVWF  FEE
09A0A:  IORLW  00
09A0C:  BNZ   9A04
09A0E:  MOVLB  5
09A10:  BTFSC  xD3.7
09A12:  BSF    FF2.7
....................          displayMenu(Menus.Letra,0,30,0,2); 
09A14:  MOVLW  04
09A16:  MOVWF  xDC
09A18:  MOVLW  16
09A1A:  MOVWF  xDB
09A1C:  CLRF   xDD
09A1E:  MOVLW  1E
09A20:  MOVWF  xDE
09A22:  CLRF   xDF
09A24:  MOVLW  02
09A26:  MOVWF  xE0
09A28:  MOVLB  0
09A2A:  CALL   4C06
....................          glcd_update(); 
09A2E:  CALL   15D0
....................          delay_ms(1000); 
09A32:  MOVLW  04
09A34:  MOVLB  5
09A36:  MOVWF  xD3
09A38:  MOVLW  FA
09A3A:  MOVWF  xE7
09A3C:  MOVLB  0
09A3E:  CALL   1496
09A42:  MOVLB  5
09A44:  DECFSZ xD3,F
09A46:  BRA    9A38
....................          glcd_fillScreen(OFF); 
09A48:  CLRF   xDB
09A4A:  MOVLB  0
09A4C:  CALL   1576
....................          Menu=32; 
09A50:  MOVLW  20
09A52:  MOVLB  4
09A54:  MOVWF  xC7
09A56:  MOVLB  0
....................       } 
....................     } 
.................... //_--------------------------------------------------------------------------------------------------------------------------------------------------------        
....................  
.................... //_-------------------------------------------------------------------------------------------------------------------------------------------------------- 
....................       if(Menu==120){ //Menu de Post-Purga. 
09A58:  MOVLB  4
09A5A:  MOVF   xC7,W
09A5C:  SUBLW  78
09A5E:  BTFSS  FD8.2
09A60:  BRA    9BEC
....................        
....................       // Para que inicie el tiempo de Post-Purga se debe oprimir el boton de encendido en el Microcontrolador esclavo. 
....................       strcpy(Menus.Letra,"Tiempo"); 
09A62:  MOVLW  04
09A64:  MOVWF  FEA
09A66:  MOVLW  16
09A68:  MOVWF  FE9
09A6A:  MOVFF  FF2,5D3
09A6E:  BCF    FF2.7
09A70:  MOVLW  00
09A72:  MOVLB  0
09A74:  CALL   1330
09A78:  TBLRD*-
09A7A:  TBLRD*+
09A7C:  MOVF   FF5,W
09A7E:  MOVWF  FEE
09A80:  IORLW  00
09A82:  BNZ   9A7A
09A84:  MOVLB  5
09A86:  BTFSC  xD3.7
09A88:  BSF    FF2.7
....................       displayMenu(Menus.Letra,30,0,1,2); 
09A8A:  MOVLW  04
09A8C:  MOVWF  xDC
09A8E:  MOVLW  16
09A90:  MOVWF  xDB
09A92:  MOVLW  1E
09A94:  MOVWF  xDD
09A96:  CLRF   xDE
09A98:  MOVLW  01
09A9A:  MOVWF  xDF
09A9C:  MOVLW  02
09A9E:  MOVWF  xE0
09AA0:  MOVLB  0
09AA2:  CALL   4C06
....................       strcpy(Menus.Letra,"Post-Purga"); 
09AA6:  MOVLW  04
09AA8:  MOVWF  FEA
09AAA:  MOVLW  16
09AAC:  MOVWF  FE9
09AAE:  MOVFF  FF2,5D3
09AB2:  BCF    FF2.7
09AB4:  MOVLW  00
09AB6:  CALL   1352
09ABA:  TBLRD*-
09ABC:  TBLRD*+
09ABE:  MOVF   FF5,W
09AC0:  MOVWF  FEE
09AC2:  IORLW  00
09AC4:  BNZ   9ABC
09AC6:  MOVLB  5
09AC8:  BTFSC  xD3.7
09ACA:  BSF    FF2.7
....................       displayMenu(Menus.Letra,10,17,1,2); 
09ACC:  MOVLW  04
09ACE:  MOVWF  xDC
09AD0:  MOVLW  16
09AD2:  MOVWF  xDB
09AD4:  MOVLW  0A
09AD6:  MOVWF  xDD
09AD8:  MOVLW  11
09ADA:  MOVWF  xDE
09ADC:  MOVLW  01
09ADE:  MOVWF  xDF
09AE0:  MOVLW  02
09AE2:  MOVWF  xE0
09AE4:  MOVLB  0
09AE6:  CALL   4C06
....................        
....................       tiempo_postpurga=1; 
09AEA:  MOVLB  4
09AEC:  BSF    x2E.0
....................       LuzBlanca_off;  
09AEE:  BCF    F8B.0
09AF0:  BCF    F94.0
....................       Aux_off; 
09AF2:  BCF    F8B.1
09AF4:  BCF    F94.1
....................       VelocidadMotor(VelMotor); 
09AF6:  MOVFF  5CA,5D3
09AFA:  MOVLB  0
09AFC:  CALL   14BE
....................       flag_blower=1; 
09B00:  MOVLB  4
09B02:  BSF    x2C.7
....................        
....................        displayTiempo(Tppurga[3],20,40,0,2);displayTiempo(Tppurga[2],40,40,0,2);glcd_text57(60, 42, Dos_puntos, 2, ON); 
09B04:  MOVFF  4EE,5D3
09B08:  MOVLW  14
09B0A:  MOVLB  5
09B0C:  MOVWF  xD4
09B0E:  MOVLW  28
09B10:  MOVWF  xD5
09B12:  CLRF   xD6
09B14:  MOVLW  02
09B16:  MOVWF  xD7
09B18:  MOVLB  0
09B1A:  CALL   53E8
09B1E:  MOVFF  4ED,5D3
09B22:  MOVLW  28
09B24:  MOVLB  5
09B26:  MOVWF  xD4
09B28:  MOVWF  xD5
09B2A:  CLRF   xD6
09B2C:  MOVLW  02
09B2E:  MOVWF  xD7
09B30:  MOVLB  0
09B32:  CALL   53E8
09B36:  MOVLW  3C
09B38:  MOVLB  5
09B3A:  MOVWF  xEC
09B3C:  MOVLW  2A
09B3E:  MOVWF  xED
09B40:  MOVLW  04
09B42:  MOVWF  xEF
09B44:  MOVLW  4D
09B46:  MOVWF  xEE
09B48:  MOVLW  02
09B4A:  MOVWF  xF0
09B4C:  MOVLW  01
09B4E:  MOVWF  xF1
09B50:  MOVLB  0
09B52:  CALL   4994
....................        displayTiempo(Tppurga[1],70,40,0,2);displayTiempo(Tppurga[0],90,40,0,2);  
09B56:  MOVFF  4EC,5D3
09B5A:  MOVLW  46
09B5C:  MOVLB  5
09B5E:  MOVWF  xD4
09B60:  MOVLW  28
09B62:  MOVWF  xD5
09B64:  CLRF   xD6
09B66:  MOVLW  02
09B68:  MOVWF  xD7
09B6A:  MOVLB  0
09B6C:  CALL   53E8
09B70:  MOVFF  4EB,5D3
09B74:  MOVLW  5A
09B76:  MOVLB  5
09B78:  MOVWF  xD4
09B7A:  MOVLW  28
09B7C:  MOVWF  xD5
09B7E:  CLRF   xD6
09B80:  MOVLW  02
09B82:  MOVWF  xD7
09B84:  MOVLB  0
09B86:  CALL   53E8
....................        
....................       if(RIGHT) 
09B8A:  BSF    F96.1
09B8C:  BTFSC  F84.1
09B8E:  BRA    9BC2
....................       { 
....................          delay_ms(1000); 
09B90:  MOVLW  04
09B92:  MOVLB  5
09B94:  MOVWF  xD3
09B96:  MOVLW  FA
09B98:  MOVWF  xE7
09B9A:  MOVLB  0
09B9C:  CALL   1496
09BA0:  MOVLB  5
09BA2:  DECFSZ xD3,F
09BA4:  BRA    9B96
....................          if(RIGHT ) 
09BA6:  BSF    F96.1
09BA8:  BTFSC  F84.1
09BAA:  BRA    9BC2
....................          { 
....................             delay_ms(1500); 
09BAC:  MOVLW  06
09BAE:  MOVWF  xD3
09BB0:  MOVLW  FA
09BB2:  MOVWF  xE7
09BB4:  MOVLB  0
09BB6:  CALL   1496
09BBA:  MOVLB  5
09BBC:  DECFSZ xD3,F
09BBE:  BRA    9BB0
....................             reset_cpu(); 
09BC0:  RESET
....................          } 
....................       } 
....................        
....................       if((Tppurga[0]==Tppurgap[0])&&(Tppurga[1]==Tppurgap[1])&&(Tppurga[2]==Tppurgap[2])&&(Tppurga[3]==Tppurgap[3])) 
09BC2:  MOVLB  4
09BC4:  MOVF   xEF,W
09BC6:  SUBWF  xEB,W
09BC8:  BNZ   9BEC
09BCA:  MOVF   xF0,W
09BCC:  SUBWF  xEC,W
09BCE:  BNZ   9BEC
09BD0:  MOVF   xF1,W
09BD2:  SUBWF  xED,W
09BD4:  BNZ   9BEC
09BD6:  MOVF   xF2,W
09BD8:  SUBWF  xEE,W
09BDA:  BNZ   9BEC
....................       {tiempo_postpurga=0;glcd_fillScreen(OFF);reset_cpu();} 
09BDC:  BCF    x2E.0
09BDE:  MOVLB  5
09BE0:  CLRF   xDB
09BE2:  MOVLB  0
09BE4:  CALL   1576
09BE8:  RESET
09BEA:  MOVLB  4
....................       
....................     } 
.................... //_--------------------------------------------------------------------------------------------------------------------------------------------------------        
....................  
.................... //_-------------------------------------------------------------------------------------------------------------------------------------------------------- 
....................       if(Menu==200){ //Menu de Inicio. 
09BEC:  MOVF   xC7,W
09BEE:  SUBLW  C8
09BF0:  BTFSS  FD8.2
09BF2:  BRA    9D8E
....................           
....................       if(RIGHT){ 
09BF4:  BSF    F96.1
09BF6:  BTFSC  F84.1
09BF8:  BRA    9D6A
....................          delay_ms(1000); 
09BFA:  MOVLW  04
09BFC:  MOVLB  5
09BFE:  MOVWF  xD3
09C00:  MOVLW  FA
09C02:  MOVWF  xE7
09C04:  MOVLB  0
09C06:  CALL   1496
09C0A:  MOVLB  5
09C0C:  DECFSZ xD3,F
09C0E:  BRA    9C00
....................          if(RIGHT){  
09C10:  BSF    F96.1
09C12:  BTFSC  F84.1
09C14:  BRA    9D66
....................             Display_on; 
09C16:  BSF    F8A.1
09C18:  BCF    F93.1
....................             glcd_init(ON);             //Inicializa la glcd 
09C1A:  MOVLW  01
09C1C:  MOVWF  xD3
09C1E:  MOVLB  0
09C20:  CALL   1688
....................             glcd_fillScreen(OFF);      //Limpia la pantalla 
09C24:  MOVLB  5
09C26:  CLRF   xDB
09C28:  MOVLB  0
09C2A:  CALL   1576
....................             glcd_text57(0, 0, JP, 2, ON);glcd_text57(5, 20, Cabina, 1, ON);glcd_text57(10, 40, Clase, 2, ON);              
09C2E:  MOVLB  5
09C30:  CLRF   xEC
09C32:  CLRF   xED
09C34:  MOVLW  04
09C36:  MOVWF  xEF
09C38:  MOVLW  2F
09C3A:  MOVWF  xEE
09C3C:  MOVLW  02
09C3E:  MOVWF  xF0
09C40:  MOVLW  01
09C42:  MOVWF  xF1
09C44:  MOVLB  0
09C46:  CALL   4994
09C4A:  MOVLW  05
09C4C:  MOVLB  5
09C4E:  MOVWF  xEC
09C50:  MOVLW  14
09C52:  MOVWF  xED
09C54:  MOVLW  04
09C56:  MOVWF  xEF
09C58:  MOVLW  3B
09C5A:  MOVWF  xEE
09C5C:  MOVLW  01
09C5E:  MOVWF  xF0
09C60:  MOVWF  xF1
09C62:  MOVLB  0
09C64:  CALL   4994
09C68:  MOVLW  0A
09C6A:  MOVLB  5
09C6C:  MOVWF  xEC
09C6E:  MOVLW  28
09C70:  MOVWF  xED
09C72:  MOVLW  04
09C74:  MOVWF  xEF
09C76:  MOVLW  52
09C78:  MOVWF  xEE
09C7A:  MOVLW  02
09C7C:  MOVWF  xF0
09C7E:  MOVLW  01
09C80:  MOVWF  xF1
09C82:  MOVLB  0
09C84:  CALL   4994
....................             glcd_update();    
09C88:  CALL   15D0
....................             delay_ms(3000); 
09C8C:  MOVLW  0C
09C8E:  MOVLB  5
09C90:  MOVWF  xD3
09C92:  MOVLW  FA
09C94:  MOVWF  xE7
09C96:  MOVLB  0
09C98:  CALL   1496
09C9C:  MOVLB  5
09C9E:  DECFSZ xD3,F
09CA0:  BRA    9C92
....................                         
....................             glcd_fillScreen(OFF);      //Limpia la pantalla 
09CA2:  CLRF   xDB
09CA4:  MOVLB  0
09CA6:  CALL   1576
....................             displayContrasena(Contrasena[0],20,30,1);displayContrasena(Contrasena[1],40,30,0); 
09CAA:  MOVFF  4FF,5DD
09CAE:  MOVLW  14
09CB0:  MOVLB  5
09CB2:  MOVWF  xDE
09CB4:  MOVLW  1E
09CB6:  MOVWF  xDF
09CB8:  MOVLW  01
09CBA:  MOVWF  xE0
09CBC:  MOVLB  0
09CBE:  CALL   4B4E
09CC2:  MOVFF  500,5DD
09CC6:  MOVLW  28
09CC8:  MOVLB  5
09CCA:  MOVWF  xDE
09CCC:  MOVLW  1E
09CCE:  MOVWF  xDF
09CD0:  CLRF   xE0
09CD2:  MOVLB  0
09CD4:  CALL   4B4E
....................             displayContrasena(Contrasena[2],60,30,0);displayContrasena(Contrasena[0],80,30,0); 
09CD8:  MOVFF  501,5DD
09CDC:  MOVLW  3C
09CDE:  MOVLB  5
09CE0:  MOVWF  xDE
09CE2:  MOVLW  1E
09CE4:  MOVWF  xDF
09CE6:  CLRF   xE0
09CE8:  MOVLB  0
09CEA:  CALL   4B4E
09CEE:  MOVFF  4FF,5DD
09CF2:  MOVLW  50
09CF4:  MOVLB  5
09CF6:  MOVWF  xDE
09CF8:  MOVLW  1E
09CFA:  MOVWF  xDF
09CFC:  CLRF   xE0
09CFE:  MOVLB  0
09D00:  CALL   4B4E
....................             glcd_rect(0, 0, 127, 25, YES, ON);strcpy(Menus.Letra,"Clave");glcd_text57(25, 1, Menus.Letra, 3, OFF);    
09D04:  MOVLB  5
09D06:  CLRF   xEC
09D08:  CLRF   xED
09D0A:  MOVLW  7F
09D0C:  MOVWF  xEE
09D0E:  MOVLW  19
09D10:  MOVWF  xEF
09D12:  MOVLW  01
09D14:  MOVWF  xF0
09D16:  MOVWF  xF1
09D18:  MOVLB  0
09D1A:  CALL   48D2
09D1E:  MOVLW  04
09D20:  MOVWF  FEA
09D22:  MOVLW  16
09D24:  MOVWF  FE9
09D26:  MOVFF  FF2,5D3
09D2A:  BCF    FF2.7
09D2C:  MOVLW  00
09D2E:  CALL   0EEE
09D32:  TBLRD*-
09D34:  TBLRD*+
09D36:  MOVF   FF5,W
09D38:  MOVWF  FEE
09D3A:  IORLW  00
09D3C:  BNZ   9D34
09D3E:  MOVLB  5
09D40:  BTFSC  xD3.7
09D42:  BSF    FF2.7
09D44:  MOVLW  19
09D46:  MOVWF  xEC
09D48:  MOVLW  01
09D4A:  MOVWF  xED
09D4C:  MOVLW  04
09D4E:  MOVWF  xEF
09D50:  MOVLW  16
09D52:  MOVWF  xEE
09D54:  MOVLW  03
09D56:  MOVWF  xF0
09D58:  CLRF   xF1
09D5A:  MOVLB  0
09D5C:  CALL   4994
....................             Menu=0; 
09D60:  MOVLB  4
09D62:  CLRF   xC7
09D64:  MOVLB  5
....................          } 
....................       } 
....................       else 
09D66:  BRA    9D8C
09D68:  MOVLB  4
....................       { 
....................          Display_off;VelocidadMotor(0);LuzBlanca_off;Aux_off;glcd_fillScreen(OFF);      //Limpia la pantalla 
09D6A:  BCF    F8A.1
09D6C:  BCF    F93.1
09D6E:  MOVLB  5
09D70:  CLRF   xD3
09D72:  MOVLB  0
09D74:  CALL   14BE
09D78:  BCF    F8B.0
09D7A:  BCF    F94.0
09D7C:  BCF    F8B.1
09D7E:  BCF    F94.1
09D80:  MOVLB  5
09D82:  CLRF   xDB
09D84:  MOVLB  0
09D86:  CALL   1576
09D8A:  MOVLB  5
09D8C:  MOVLB  4
....................       } 
....................     } 
.................... //_--------------------------------------------------------------------------------------------------------------------------------------------------------        
....................    if(tiemporeset>=60) 
09D8E:  MOVF   xCD,W
09D90:  SUBLW  3B
09D92:  BC    9DAA
....................    { 
....................       if(Menu!=200){ 
09D94:  MOVF   xC7,W
09D96:  SUBLW  C8
09D98:  BZ    9DAA
....................          glcd_init(ON); 
09D9A:  MOVLW  01
09D9C:  MOVLB  5
09D9E:  MOVWF  xD3
09DA0:  MOVLB  0
09DA2:  CALL   1688
....................          tiemporeset=0; 
09DA6:  MOVLB  4
09DA8:  CLRF   xCD
....................       } 
....................    }  
.................... } 
09DAA:  MOVLB  0
09DAC:  GOTO   600E
....................  
.................... } 
....................  
09DB0:  SLEEP 

Configuration Fuses:
   Word  1: 0200   HS NOIESO NOFCMEN
   Word  2: 1E1F   BROWNOUT NOWDT BORV21 NOPUT WDT32768
   Word  3: 0000   NOPBADEN NOLPT1OSC NOMCLR
   Word  4: 00B0   NOSTVREN NODEBUG NOLVP NOXINST BBSIZ4K
   Word  5: C00F   NOPROTECT NOCPD NOCPB
   Word  6: E00F   NOWRT NOWRTD NOWRTC NOWRTB
   Word  7: 400F   NOEBTR NOEBTRB
