CCS PCH C Compiler, Version 4.104, 5967               14-ago.-20 16:02

               Filename: D:\Laboratorio\Cabina Extractora de Gases y  Humos\2020\Cabina Extractora Con Ductos 180 GLCD Vidrio Electrico Artilab #0045881XX OP202041\Firmware\Maestro_v2.lst

               ROM used: 40156 bytes (61%)
                         Largest free fragment is 25376
               RAM used: 1496 (45%) at main() level
                         1563 (47%) worst case
               Stack:    8 worst case (6 in main + 2 for interrupts)

*
00000:  GOTO   5B3C
*
00008:  MOVWF  04
0000A:  MOVFF  FD8,05
0000E:  MOVFF  FE0,06
00012:  MOVLB  0
00014:  MOVFF  FE9,0C
00018:  MOVFF  FEA,07
0001C:  MOVFF  FE1,08
00020:  MOVFF  FE2,09
00024:  MOVFF  FD9,0A
00028:  MOVFF  FDA,0B
0002C:  MOVFF  FF3,12
00030:  MOVFF  FF4,13
00034:  MOVFF  FFA,14
00038:  MOVFF  00,0E
0003C:  MOVFF  01,0F
00040:  MOVFF  02,10
00044:  MOVFF  03,11
00048:  BTFSS  FF2.4
0004A:  GOTO   0054
0004E:  BTFSC  FF2.1
00050:  GOTO   1394
00054:  MOVFF  0E,00
00058:  MOVFF  0F,01
0005C:  MOVFF  10,02
00060:  MOVFF  11,03
00064:  MOVFF  0C,FE9
00068:  MOVFF  07,FEA
0006C:  BSF    07.7
0006E:  MOVFF  08,FE1
00072:  MOVFF  09,FE2
00076:  MOVFF  0A,FD9
0007A:  MOVFF  0B,FDA
0007E:  MOVFF  12,FF3
00082:  MOVFF  13,FF4
00086:  MOVFF  14,FFA
0008A:  MOVF   04,W
0008C:  MOVFF  06,FE0
00090:  MOVFF  05,FD8
00094:  RETFIE 0
.................... //Programa para Cabina de Bioseguridad 
....................  
.................... #include <18F4680.h> 
.................... //////// Standard Header file for the PIC18F4680 device //////////////// 
.................... #device PIC18F4680 
.................... #list 
....................  
.................... #device adc=10 
.................... #fuses HS,NOWDT,NOPROTECT,NOLVP,NODEBUG,NOSTVREN,NOPUT,NOCPD,NOWRT,NOIESO,NOFCMEN,NOPBADEN,NOWRTC,NOWRTB,NOEBTR,NOEBTRB,NOCPB,NOXINST,NOLPT1OSC,NOMCLR 
.................... #use delay(clock=20000000) 
*
01374:  MOVLW  03
01376:  MOVLB  6
01378:  SUBWF  x1A,F
0137A:  BNC   1390
0137C:  MOVLW  06
0137E:  MOVWF  FEA
01380:  MOVLW  1A
01382:  MOVWF  FE9
01384:  MOVF   FEF,W
01386:  BZ    1390
01388:  BRA    138C
0138A:  BRA    138C
0138C:  DECFSZ FEF,F
0138E:  BRA    138A
01390:  MOVLB  0
01392:  RETLW  00
*
01492:  MOVLW  05
01494:  MOVWF  FEA
01496:  MOVLW  DD
01498:  MOVWF  FE9
0149A:  MOVF   FEF,W
0149C:  BZ    14B8
0149E:  MOVLW  06
014A0:  MOVWF  01
014A2:  CLRF   00
014A4:  DECFSZ 00,F
014A6:  BRA    14A4
014A8:  DECFSZ 01,F
014AA:  BRA    14A2
014AC:  MOVLW  7B
014AE:  MOVWF  00
014B0:  DECFSZ 00,F
014B2:  BRA    14B0
014B4:  DECFSZ FEF,F
014B6:  BRA    149E
014B8:  RETLW  00
.................... #include <MATH.h> 
.................... //////////////////////////////////////////////////////////////////////////// 
.................... ////        (C) Copyright 1996,2008 Custom Computer Services            //// 
.................... //// This source code may only be used by licensed users of the CCS C   //// 
.................... //// compiler.  This source code may only be distributed to other       //// 
.................... //// licensed users of the CCS C compiler.  No other use, reproduction  //// 
.................... //// or distribution is permitted without written permission.           //// 
.................... //// Derivative programs created using this software in object code     //// 
.................... //// form are not restricted in any way.                                //// 
.................... //////////////////////////////////////////////////////////////////////////// 
.................... ////                                                                    //// 
.................... //// History:                                                           //// 
.................... ////  * 9/20/2001 :  Improvments are made to sin/cos code.              //// 
.................... ////                 The code now is small, much faster,                //// 
.................... ////                 and more accurate.                                 //// 
.................... ////  * 2/21/2007 :  Compiler handles & operator differently and does 
.................... ////                 not return generic (int8 *) so type cast is done   //// 
.................... ////                                                                    //// 
.................... //////////////////////////////////////////////////////////////////////////// 
....................  
.................... #ifndef MATH_H 
.................... #define MATH_H 
....................  
.................... #ifdef PI 
.................... #undef  PI 
.................... #endif 
.................... #define PI     3.1415926535897932 
....................  
....................  
.................... #define SQRT2  1.4142135623730950 
....................  
.................... //float const ps[4] = {5.9304945, 21.125224, 8.9403076, 0.29730279}; 
.................... //float const qs[4] = {1.0000000, 15.035723, 17.764134, 2.4934718}; 
....................  
.................... ///////////////////////////// Round Functions ////////////////////////////// 
....................  
.................... float32 CEIL_FLOOR(float32 x, unsigned int8 n) 
.................... { 
....................    float32 y, res; 
....................    unsigned int16 l; 
....................    int1 s; 
....................  
....................    s = 0; 
*
02E3E:  MOVLB  6
02E40:  BCF    x04.0
....................    y = x; 
02E42:  MOVFF  5F8,5FD
02E46:  MOVFF  5F7,5FC
02E4A:  MOVFF  5F6,5FB
02E4E:  MOVFF  5F5,5FA
....................  
....................    if (x < 0) 
02E52:  MOVFF  5F8,608
02E56:  MOVFF  5F7,607
02E5A:  MOVFF  5F6,606
02E5E:  MOVFF  5F5,605
02E62:  CLRF   x0C
02E64:  CLRF   x0B
02E66:  CLRF   x0A
02E68:  CLRF   x09
02E6A:  MOVLB  0
02E6C:  CALL   22C2
02E70:  BNC   2E7E
....................    { 
....................       s = 1; 
02E72:  MOVLB  6
02E74:  BSF    x04.0
....................       y = -y; 
02E76:  MOVLB  5
02E78:  MOVF   xFB,W
02E7A:  XORLW  80
02E7C:  MOVWF  xFB
....................    } 
....................  
....................    if (y <= 32768.0) 
02E7E:  MOVFF  5FD,608
02E82:  MOVFF  5FC,607
02E86:  MOVFF  5FB,606
02E8A:  MOVFF  5FA,605
02E8E:  MOVLB  6
02E90:  CLRF   x0C
02E92:  CLRF   x0B
02E94:  CLRF   x0A
02E96:  MOVLW  8E
02E98:  MOVWF  x09
02E9A:  MOVLB  0
02E9C:  CALL   22C2
02EA0:  BC    2EA4
02EA2:  BNZ   2ED4
....................   res = (float32)(unsigned int16)y; 
02EA4:  MOVFF  5FD,608
02EA8:  MOVFF  5FC,607
02EAC:  MOVFF  5FB,606
02EB0:  MOVFF  5FA,605
02EB4:  RCALL  2D0C
02EB6:  MOVFF  02,60A
02EBA:  MOVFF  01,609
02EBE:  CALL   172C
02EC2:  MOVFF  03,601
02EC6:  MOVFF  02,600
02ECA:  MOVFF  01,5FF
02ECE:  MOVFF  00,5FE
....................  
....................  else if (y < 10000000.0) 
02ED2:  BRA    3072
02ED4:  MOVFF  5FD,608
02ED8:  MOVFF  5FC,607
02EDC:  MOVFF  5FB,606
02EE0:  MOVFF  5FA,605
02EE4:  MOVLW  80
02EE6:  MOVLB  6
02EE8:  MOVWF  x0C
02EEA:  MOVLW  96
02EEC:  MOVWF  x0B
02EEE:  MOVLW  18
02EF0:  MOVWF  x0A
02EF2:  MOVLW  96
02EF4:  MOVWF  x09
02EF6:  MOVLB  0
02EF8:  CALL   22C2
02EFC:  BTFSS  FD8.0
02EFE:  BRA    3062
....................    { 
....................   l = (unsigned int16)(y/32768.0); 
02F00:  MOVFF  5FD,608
02F04:  MOVFF  5FC,607
02F08:  MOVFF  5FB,606
02F0C:  MOVFF  5FA,605
02F10:  MOVLB  6
02F12:  CLRF   x0C
02F14:  CLRF   x0B
02F16:  CLRF   x0A
02F18:  MOVLW  8E
02F1A:  MOVWF  x09
02F1C:  MOVLB  0
02F1E:  CALL   1762
02F22:  MOVFF  03,608
02F26:  MOVFF  02,607
02F2A:  MOVFF  01,606
02F2E:  MOVFF  00,605
02F32:  RCALL  2D0C
02F34:  MOVFF  02,603
02F38:  MOVFF  01,602
....................       y = 32768.0*(y/32768.0 - (float32)l); 
02F3C:  MOVFF  5FD,608
02F40:  MOVFF  5FC,607
02F44:  MOVFF  5FB,606
02F48:  MOVFF  5FA,605
02F4C:  MOVLB  6
02F4E:  CLRF   x0C
02F50:  CLRF   x0B
02F52:  CLRF   x0A
02F54:  MOVLW  8E
02F56:  MOVWF  x09
02F58:  MOVLB  0
02F5A:  CALL   1762
02F5E:  MOVFF  00,605
02F62:  MOVFF  01,606
02F66:  MOVFF  02,607
02F6A:  MOVFF  03,608
02F6E:  MOVFF  603,60A
02F72:  MOVFF  602,609
02F76:  CALL   172C
02F7A:  BSF    FD8.1
02F7C:  MOVFF  608,60C
02F80:  MOVFF  607,60B
02F84:  MOVFF  606,60A
02F88:  MOVFF  605,609
02F8C:  MOVFF  03,610
02F90:  MOVFF  02,60F
02F94:  MOVFF  01,60E
02F98:  MOVFF  00,60D
02F9C:  CALL   18C0
02FA0:  MOVLB  6
02FA2:  CLRF   x08
02FA4:  CLRF   x07
02FA6:  CLRF   x06
02FA8:  MOVLW  8E
02FAA:  MOVWF  x05
02FAC:  MOVFF  03,60C
02FB0:  MOVFF  02,60B
02FB4:  MOVFF  01,60A
02FB8:  MOVFF  00,609
02FBC:  MOVLB  0
02FBE:  RCALL  2D48
02FC0:  MOVFF  03,5FD
02FC4:  MOVFF  02,5FC
02FC8:  MOVFF  01,5FB
02FCC:  MOVFF  00,5FA
....................   res = 32768.0*(float32)l; 
02FD0:  MOVFF  603,60A
02FD4:  MOVFF  602,609
02FD8:  CALL   172C
02FDC:  MOVLB  6
02FDE:  CLRF   x08
02FE0:  CLRF   x07
02FE2:  CLRF   x06
02FE4:  MOVLW  8E
02FE6:  MOVWF  x05
02FE8:  MOVFF  03,60C
02FEC:  MOVFF  02,60B
02FF0:  MOVFF  01,60A
02FF4:  MOVFF  00,609
02FF8:  MOVLB  0
02FFA:  RCALL  2D48
02FFC:  MOVFF  03,601
03000:  MOVFF  02,600
03004:  MOVFF  01,5FF
03008:  MOVFF  00,5FE
....................   res += (float32)(unsigned int16)y; 
0300C:  MOVFF  5FD,608
03010:  MOVFF  5FC,607
03014:  MOVFF  5FB,606
03018:  MOVFF  5FA,605
0301C:  RCALL  2D0C
0301E:  MOVFF  02,60A
03022:  MOVFF  01,609
03026:  CALL   172C
0302A:  BCF    FD8.1
0302C:  MOVFF  601,60C
03030:  MOVFF  600,60B
03034:  MOVFF  5FF,60A
03038:  MOVFF  5FE,609
0303C:  MOVFF  03,610
03040:  MOVFF  02,60F
03044:  MOVFF  01,60E
03048:  MOVFF  00,60D
0304C:  CALL   18C0
03050:  MOVFF  03,601
03054:  MOVFF  02,600
03058:  MOVFF  01,5FF
0305C:  MOVFF  00,5FE
....................  } 
....................  
....................  else 
03060:  BRA    3072
....................   res = y; 
03062:  MOVFF  5FD,601
03066:  MOVFF  5FC,600
0306A:  MOVFF  5FB,5FF
0306E:  MOVFF  5FA,5FE
....................  
....................  y = y - (float32)(unsigned int16)y; 
03072:  MOVFF  5FD,608
03076:  MOVFF  5FC,607
0307A:  MOVFF  5FB,606
0307E:  MOVFF  5FA,605
03082:  RCALL  2D0C
03084:  MOVFF  02,60A
03088:  MOVFF  01,609
0308C:  CALL   172C
03090:  BSF    FD8.1
03092:  MOVFF  5FD,60C
03096:  MOVFF  5FC,60B
0309A:  MOVFF  5FB,60A
0309E:  MOVFF  5FA,609
030A2:  MOVFF  03,610
030A6:  MOVFF  02,60F
030AA:  MOVFF  01,60E
030AE:  MOVFF  00,60D
030B2:  CALL   18C0
030B6:  MOVFF  03,5FD
030BA:  MOVFF  02,5FC
030BE:  MOVFF  01,5FB
030C2:  MOVFF  00,5FA
....................  
....................  if (s) 
030C6:  MOVLB  6
030C8:  BTFSS  x04.0
030CA:  BRA    30D6
....................   res = -res; 
030CC:  MOVLB  5
030CE:  MOVF   xFF,W
030D0:  XORLW  80
030D2:  MOVWF  xFF
030D4:  MOVLB  6
....................  
....................  if (y != 0) 
030D6:  MOVFF  5FD,608
030DA:  MOVFF  5FC,607
030DE:  MOVFF  5FB,606
030E2:  MOVFF  5FA,605
030E6:  CLRF   x0C
030E8:  CLRF   x0B
030EA:  CLRF   x0A
030EC:  CLRF   x09
030EE:  MOVLB  0
030F0:  CALL   22C2
030F4:  BZ    3182
....................  { 
....................   if (s == 1 && n == 0) 
030F6:  MOVLB  6
030F8:  BTFSS  x04.0
030FA:  BRA    313E
030FC:  MOVLB  5
030FE:  MOVF   xF9,F
03100:  BTFSC  FD8.2
03102:  BRA    3108
03104:  MOVLB  6
03106:  BRA    313E
....................    res -= 1.0; 
03108:  BSF    FD8.1
0310A:  MOVFF  601,60C
0310E:  MOVFF  600,60B
03112:  MOVFF  5FF,60A
03116:  MOVFF  5FE,609
0311A:  MOVLB  6
0311C:  CLRF   x10
0311E:  CLRF   x0F
03120:  CLRF   x0E
03122:  MOVLW  7F
03124:  MOVWF  x0D
03126:  MOVLB  0
03128:  CALL   18C0
0312C:  MOVFF  03,601
03130:  MOVFF  02,600
03134:  MOVFF  01,5FF
03138:  MOVFF  00,5FE
0313C:  MOVLB  6
....................  
....................   if (s == 0 && n == 1) 
0313E:  BTFSC  x04.0
03140:  BRA    3184
03142:  MOVLB  5
03144:  DECFSZ xF9,W
03146:  BRA    314A
03148:  BRA    314E
0314A:  MOVLB  6
0314C:  BRA    3184
....................    res += 1.0; 
0314E:  BCF    FD8.1
03150:  MOVFF  601,60C
03154:  MOVFF  600,60B
03158:  MOVFF  5FF,60A
0315C:  MOVFF  5FE,609
03160:  MOVLB  6
03162:  CLRF   x10
03164:  CLRF   x0F
03166:  CLRF   x0E
03168:  MOVLW  7F
0316A:  MOVWF  x0D
0316C:  MOVLB  0
0316E:  CALL   18C0
03172:  MOVFF  03,601
03176:  MOVFF  02,600
0317A:  MOVFF  01,5FF
0317E:  MOVFF  00,5FE
03182:  MOVLB  6
....................  } 
....................  if (x == 0) 
03184:  MOVFF  5F8,608
03188:  MOVFF  5F7,607
0318C:  MOVFF  5F6,606
03190:  MOVFF  5F5,605
03194:  CLRF   x0C
03196:  CLRF   x0B
03198:  CLRF   x0A
0319A:  CLRF   x09
0319C:  MOVLB  0
0319E:  CALL   22C2
031A2:  BNZ   31B2
....................     res = 0; 
031A4:  MOVLB  6
031A6:  CLRF   x01
031A8:  CLRF   x00
031AA:  MOVLB  5
031AC:  CLRF   xFF
031AE:  CLRF   xFE
031B0:  MOVLB  0
....................  
....................  return (res); 
031B2:  MOVFF  5FE,00
031B6:  MOVFF  5FF,01
031BA:  MOVFF  600,02
031BE:  MOVFF  601,03
.................... } 
031C2:  RETLW  00
....................  
.................... // Overloaded Functions to take care for new Data types in PCD 
.................... // Overloaded function CEIL_FLOOR() for data type - Float48 
.................... #if defined(__PCD__) 
.................... float48 CEIL_FLOOR(float48 x, unsigned int8 n) 
.................... { 
....................    float48 y, res; 
....................    unsigned int16 l; 
....................    int1 s; 
....................  
....................    s = 0; 
....................    y = x; 
....................  
....................    if (x < 0) 
....................    { 
....................       s = 1; 
....................       y = -y; 
....................    } 
....................  
....................    if (y <= 32768.0) 
....................   res = (float48)(unsigned int16)y; 
....................  
....................  else if (y < 10000000.0) 
....................    { 
....................   l = (unsigned int16)(y/32768.0); 
....................       y = 32768.0*(y/32768.0 - (float48)l); 
....................   res = 32768.0*(float32)l; 
....................   res += (float48)(unsigned int16)y; 
....................  } 
....................  
....................  else 
....................   res = y; 
....................  
....................  y = y - (float48)(unsigned int16)y; 
....................  
....................  if (s) 
....................   res = -res; 
....................  
....................  if (y != 0) 
....................  { 
....................   if (s == 1 && n == 0) 
....................    res -= 1.0; 
....................  
....................   if (s == 0 && n == 1) 
....................    res += 1.0; 
....................  } 
....................  if (x == 0) 
....................     res = 0; 
....................  
....................  return (res); 
.................... } 
....................  
....................  
.................... // Overloaded function CEIL_FLOOR() for data type - Float64 
.................... float64 CEIL_FLOOR(float64 x, unsigned int8 n) 
.................... { 
....................    float64 y, res; 
....................    unsigned int16 l; 
....................    int1 s; 
....................  
....................    s = 0; 
....................    y = x; 
....................  
....................    if (x < 0) 
....................    { 
....................       s = 1; 
....................       y = -y; 
....................    } 
....................  
....................    if (y <= 32768.0) 
....................   res = (float64)(unsigned int16)y; 
....................  
....................  else if (y < 10000000.0) 
....................    { 
....................   l = (unsigned int16)(y/32768.0); 
....................       y = 32768.0*(y/32768.0 - (float64)l); 
....................   res = 32768.0*(float64)l; 
....................   res += (float64)(unsigned int16)y; 
....................  } 
....................  
....................  else 
....................   res = y; 
....................  
....................  y = y - (float64)(unsigned int16)y; 
....................  
....................  if (s) 
....................   res = -res; 
....................  
....................  if (y != 0) 
....................  { 
....................   if (s == 1 && n == 0) 
....................    res -= 1.0; 
....................  
....................   if (s == 0 && n == 1) 
....................    res += 1.0; 
....................  } 
....................  if (x == 0) 
....................     res = 0; 
....................  
....................  return (res); 
.................... } 
.................... #endif 
....................  
.................... //////////////////////////////////////////////////////////////////////////// 
.................... //   float floor(float x) 
.................... //////////////////////////////////////////////////////////////////////////// 
.................... // Description : rounds down the number x. 
.................... // Date : N/A 
.................... // 
.................... float32 floor(float32 x) 
.................... { 
....................    return CEIL_FLOOR(x, 0); 
*
031E2:  MOVFF  5F4,5F8
031E6:  MOVFF  5F3,5F7
031EA:  MOVFF  5F2,5F6
031EE:  MOVFF  5F1,5F5
031F2:  MOVLB  5
031F4:  CLRF   xF9
031F6:  MOVLB  0
031F8:  RCALL  2E3E
.................... } 
031FA:  GOTO   3306 (RETURN)
.................... // Following 2 functions are overloaded functions of floor() for PCD 
.................... // Overloaded function floor() for data type - Float48 
.................... #if defined(__PCD__) 
.................... float48 floor(float48 x) 
.................... { 
....................    return CEIL_FLOOR(x, 0); 
.................... } 
....................  
.................... // Overloaded function floor() for data type - Float64 
.................... float64 floor(float64 x) 
.................... { 
....................    return CEIL_FLOOR(x, 0); 
.................... } 
.................... #endif 
....................  
....................  
.................... //////////////////////////////////////////////////////////////////////////// 
.................... //   float ceil(float x) 
.................... //////////////////////////////////////////////////////////////////////////// 
.................... // Description : rounds up the number x. 
.................... // Date : N/A 
.................... // 
.................... float32 ceil(float32 x) 
.................... { 
....................    return CEIL_FLOOR(x, 1); 
*
031C4:  MOVFF  5F4,5F8
031C8:  MOVFF  5F3,5F7
031CC:  MOVFF  5F2,5F6
031D0:  MOVFF  5F1,5F5
031D4:  MOVLW  01
031D6:  MOVLB  5
031D8:  MOVWF  xF9
031DA:  MOVLB  0
031DC:  RCALL  2E3E
.................... } 
031DE:  GOTO   32BE (RETURN)
.................... // Following 2 functions are overloaded functions of ceil() for PCD 
.................... // Overloaded function ceil() for data type - Float48 
.................... #if defined(__PCD__) 
.................... float48 ceil(float48 x) 
.................... { 
....................    return CEIL_FLOOR(x, 1); 
.................... } 
....................  
.................... // Overloaded function ceil() for data type - Float64 
.................... float64 ceil(float64 x) 
.................... { 
....................    return CEIL_FLOOR(x, 1); 
.................... } 
.................... #endif 
....................  
....................  //////////////////////////////////////////////////////////////////////////// 
.................... //   float fabs(float x) 
.................... //////////////////////////////////////////////////////////////////////////// 
.................... // Description : Computes the absolute value of floating point number x 
.................... // Returns : returns the absolute value of x 
.................... // Date : N/A 
.................... // 
.................... #define fabs abs 
....................  
.................... //////////////////////////////////////////////////////////////////////////// 
.................... //   float fmod(float x) 
.................... //////////////////////////////////////////////////////////////////////////// 
.................... // Description : Computes the floating point remainder of x/y 
.................... // Returns : returns the value of x= i*y, for some integer i such that, if y 
.................... // is non zero, the result has the same isgn of x na dmagnitude less than the 
.................... // magnitude of y. If y is zero then a domain error occurs. 
.................... // Date : N/A 
.................... // 
....................  
.................... float fmod(float32 x,float32 y) 
.................... { 
....................    float32 i; 
....................    if (y!=0.0) 
*
031FE:  MOVFF  5E8,608
03202:  MOVFF  5E7,607
03206:  MOVFF  5E6,606
0320A:  MOVFF  5E5,605
0320E:  MOVLB  6
03210:  CLRF   x0C
03212:  CLRF   x0B
03214:  CLRF   x0A
03216:  CLRF   x09
03218:  MOVLB  0
0321A:  CALL   22C2
0321E:  BTFSC  FD8.2
03220:  BRA    3362
....................    { 
....................       i=(x/y < 0.0)? ceil(x/y): floor(x/y); 
03222:  MOVFF  5E4,608
03226:  MOVFF  5E3,607
0322A:  MOVFF  5E2,606
0322E:  MOVFF  5E1,605
03232:  MOVFF  5E8,60C
03236:  MOVFF  5E7,60B
0323A:  MOVFF  5E6,60A
0323E:  MOVFF  5E5,609
03242:  CALL   1762
03246:  MOVFF  00,5ED
0324A:  MOVFF  01,5EE
0324E:  MOVFF  02,5EF
03252:  MOVFF  03,5F0
03256:  MOVFF  03,608
0325A:  MOVFF  02,607
0325E:  MOVFF  01,606
03262:  MOVFF  00,605
03266:  MOVLB  6
03268:  CLRF   x0C
0326A:  CLRF   x0B
0326C:  CLRF   x0A
0326E:  CLRF   x09
03270:  MOVLB  0
03272:  CALL   22C2
03276:  BNC   32C0
03278:  MOVFF  5E4,608
0327C:  MOVFF  5E3,607
03280:  MOVFF  5E2,606
03284:  MOVFF  5E1,605
03288:  MOVFF  5E8,60C
0328C:  MOVFF  5E7,60B
03290:  MOVFF  5E6,60A
03294:  MOVFF  5E5,609
03298:  CALL   1762
0329C:  MOVFF  00,5ED
032A0:  MOVFF  01,5EE
032A4:  MOVFF  02,5EF
032A8:  MOVFF  03,5F0
032AC:  MOVFF  03,5F4
032B0:  MOVFF  02,5F3
032B4:  MOVFF  01,5F2
032B8:  MOVFF  00,5F1
032BC:  BRA    31C4
032BE:  BRA    3306
032C0:  MOVFF  5E4,608
032C4:  MOVFF  5E3,607
032C8:  MOVFF  5E2,606
032CC:  MOVFF  5E1,605
032D0:  MOVFF  5E8,60C
032D4:  MOVFF  5E7,60B
032D8:  MOVFF  5E6,60A
032DC:  MOVFF  5E5,609
032E0:  CALL   1762
032E4:  MOVFF  00,5ED
032E8:  MOVFF  01,5EE
032EC:  MOVFF  02,5EF
032F0:  MOVFF  03,5F0
032F4:  MOVFF  03,5F4
032F8:  MOVFF  02,5F3
032FC:  MOVFF  01,5F2
03300:  MOVFF  00,5F1
03304:  BRA    31E2
03306:  MOVFF  03,5EC
0330A:  MOVFF  02,5EB
0330E:  MOVFF  01,5EA
03312:  MOVFF  00,5E9
....................       return(x-(i*y)); 
03316:  MOVFF  5EC,608
0331A:  MOVFF  5EB,607
0331E:  MOVFF  5EA,606
03322:  MOVFF  5E9,605
03326:  MOVFF  5E8,60C
0332A:  MOVFF  5E7,60B
0332E:  MOVFF  5E6,60A
03332:  MOVFF  5E5,609
03336:  RCALL  2D48
03338:  BSF    FD8.1
0333A:  MOVFF  5E4,60C
0333E:  MOVFF  5E3,60B
03342:  MOVFF  5E2,60A
03346:  MOVFF  5E1,609
0334A:  MOVFF  03,610
0334E:  MOVFF  02,60F
03352:  MOVFF  01,60E
03356:  MOVFF  00,60D
0335A:  CALL   18C0
0335E:  BRA    3362
....................    } 
....................    else 
03360:  BRA    3362
....................    { 
....................    #ifdef _ERRNO 
....................    { 
....................       errno=EDOM; 
....................    } 
....................    #endif 
....................    } 
.................... } 
03362:  RETLW  00
.................... //Overloaded function for fmod() for PCD 
.................... // Overloaded function fmod() for data type - Float48 
.................... #if defined(__PCD__) 
.................... float48 fmod(float48 x,float48 y) 
.................... { 
....................    float48 i; 
....................    if (y!=0.0) 
....................    { 
....................       i=(x/y < 0.0)? ceil(x/y): floor(x/y); 
....................       return(x-(i*y)); 
....................    } 
....................    else 
....................    { 
....................    #ifdef _ERRNO 
....................    { 
....................       errno=EDOM; 
....................    } 
....................    #endif 
....................    } 
.................... } 
.................... // Overloaded function fmod() for data type - Float64 
.................... float64 fmod(float64 x,float64 y) 
.................... { 
....................    float64 i; 
....................    if (y!=0.0) 
....................    { 
....................       i=(x/y < 0.0)? ceil(x/y): floor(x/y); 
....................       return(x-(i*y)); 
....................    } 
....................    else 
....................    { 
....................    #ifdef _ERRNO 
....................    { 
....................       errno=EDOM; 
....................    } 
....................    #endif 
....................    } 
.................... } 
.................... #endif 
.................... //////////////////// Exponential and logarithmic functions //////////////////// 
.................... //////////////////////////////////////////////////////////////////////////// 
.................... //   float exp(float x) 
.................... //////////////////////////////////////////////////////////////////////////// 
.................... // Description : returns the value (e^x) 
.................... // Date : N/A 
.................... // 
.................... #define LN2 0.6931471805599453 
....................  
.................... float const pe[6] = {0.000207455774, 0.00127100575, 0.00965065093, 
....................                      0.0554965651,  0.240227138,  0.693147172}; 
....................  
....................  
.................... float32 exp(float32 x) 
.................... { 
....................    float32 y, res, r; 
....................    #if defined(__PCD__) 
....................    int8 data1; 
....................    #endif 
....................    signed int8 n; 
....................    int1 s; 
....................    #ifdef _ERRNO 
....................    if(x > 88.722838) 
....................    { 
....................       errno=ERANGE; 
....................       return(0); 
....................    } 
....................    #endif 
....................    n = (signed int16)(x/LN2); 
*
03892:  MOVFF  5E8,608
03896:  MOVFF  5E7,607
0389A:  MOVFF  5E6,606
0389E:  MOVFF  5E5,605
038A2:  MOVLW  18
038A4:  MOVLB  6
038A6:  MOVWF  x0C
038A8:  MOVLW  72
038AA:  MOVWF  x0B
038AC:  MOVLW  31
038AE:  MOVWF  x0A
038B0:  MOVLW  7E
038B2:  MOVWF  x09
038B4:  MOVLB  0
038B6:  CALL   1762
038BA:  MOVFF  03,608
038BE:  MOVFF  02,607
038C2:  MOVFF  01,606
038C6:  MOVFF  00,605
038CA:  CALL   2D0C
038CE:  MOVFF  01,5F5
....................    s = 0; 
038D2:  MOVLB  5
038D4:  BCF    xF6.0
....................    y = x; 
038D6:  MOVFF  5E8,5EC
038DA:  MOVFF  5E7,5EB
038DE:  MOVFF  5E6,5EA
038E2:  MOVFF  5E5,5E9
....................  
....................    if (x < 0) 
038E6:  MOVFF  5E8,608
038EA:  MOVFF  5E7,607
038EE:  MOVFF  5E6,606
038F2:  MOVFF  5E5,605
038F6:  MOVLB  6
038F8:  CLRF   x0C
038FA:  CLRF   x0B
038FC:  CLRF   x0A
038FE:  CLRF   x09
03900:  MOVLB  0
03902:  CALL   22C2
03906:  BNC   3914
....................    { 
....................       s = 1; 
03908:  MOVLB  5
0390A:  BSF    xF6.0
....................       n = -n; 
0390C:  NEGF   xF5
....................       y = -y; 
0390E:  MOVF   xEA,W
03910:  XORLW  80
03912:  MOVWF  xEA
....................    } 
....................  
....................    res = 0.0; 
03914:  MOVLB  5
03916:  CLRF   xF0
03918:  CLRF   xEF
0391A:  CLRF   xEE
0391C:  CLRF   xED
.................... #if !defined(__PCD__) 
....................    *((unsigned int8 *)(&res)) = n + 0x7F; 
0391E:  MOVLW  05
03920:  MOVWF  xF8
03922:  MOVLW  ED
03924:  MOVWF  FE9
03926:  MOVFF  5F8,FEA
0392A:  MOVLW  7F
0392C:  ADDWF  xF5,W
0392E:  MOVWF  FEF
.................... #endif 
....................  
.................... #if defined(__PCD__)  // Takes care of IEEE format for PCD 
....................    data1 = n+0x7F; 
....................    if(bit_test(data1,0)) 
....................    bit_set(*(((unsigned int8 *)(&res)+2)),7); 
....................    rotate_right(&data1,1); 
....................    bit_clear(data1,7); 
....................    *(((unsigned int8 *)(&res)+3)) = data1; 
.................... #endif 
....................  
....................    y = y/LN2 - (float32)n; 
03930:  MOVFF  5EC,608
03934:  MOVFF  5EB,607
03938:  MOVFF  5EA,606
0393C:  MOVFF  5E9,605
03940:  MOVLW  18
03942:  MOVLB  6
03944:  MOVWF  x0C
03946:  MOVLW  72
03948:  MOVWF  x0B
0394A:  MOVLW  31
0394C:  MOVWF  x0A
0394E:  MOVLW  7E
03950:  MOVWF  x09
03952:  MOVLB  0
03954:  CALL   1762
03958:  MOVFF  00,5F7
0395C:  MOVFF  01,5F8
03960:  MOVFF  02,5F9
03964:  MOVFF  03,5FA
03968:  MOVLB  5
0396A:  CLRF   xFC
0396C:  MOVFF  5F5,5FB
03970:  BTFSC  xFB.7
03972:  DECF   xFC,F
03974:  MOVLB  0
03976:  RCALL  3364
03978:  BSF    FD8.1
0397A:  MOVFF  5FA,60C
0397E:  MOVFF  5F9,60B
03982:  MOVFF  5F8,60A
03986:  MOVFF  5F7,609
0398A:  MOVFF  03,610
0398E:  MOVFF  02,60F
03992:  MOVFF  01,60E
03996:  MOVFF  00,60D
0399A:  CALL   18C0
0399E:  MOVFF  03,5EC
039A2:  MOVFF  02,5EB
039A6:  MOVFF  01,5EA
039AA:  MOVFF  00,5E9
....................  
....................    r = pe[0]*y + pe[1]; 
039AE:  MOVLW  7C
039B0:  MOVLB  6
039B2:  MOVWF  x08
039B4:  MOVLW  88
039B6:  MOVWF  x07
039B8:  MOVLW  59
039BA:  MOVWF  x06
039BC:  MOVLW  72
039BE:  MOVWF  x05
039C0:  MOVFF  5EC,60C
039C4:  MOVFF  5EB,60B
039C8:  MOVFF  5EA,60A
039CC:  MOVFF  5E9,609
039D0:  MOVLB  0
039D2:  CALL   2D48
039D6:  MOVFF  00,5F7
039DA:  MOVFF  01,5F8
039DE:  MOVFF  02,5F9
039E2:  MOVFF  03,5FA
039E6:  BCF    FD8.1
039E8:  MOVFF  03,60C
039EC:  MOVFF  02,60B
039F0:  MOVFF  01,60A
039F4:  MOVFF  00,609
039F8:  MOVLW  E0
039FA:  MOVLB  6
039FC:  MOVWF  x10
039FE:  MOVLW  97
03A00:  MOVWF  x0F
03A02:  MOVLW  26
03A04:  MOVWF  x0E
03A06:  MOVLW  75
03A08:  MOVWF  x0D
03A0A:  MOVLB  0
03A0C:  CALL   18C0
03A10:  MOVFF  03,5F4
03A14:  MOVFF  02,5F3
03A18:  MOVFF  01,5F2
03A1C:  MOVFF  00,5F1
....................    r = r*y + pe[2]; 
03A20:  MOVFF  5F4,608
03A24:  MOVFF  5F3,607
03A28:  MOVFF  5F2,606
03A2C:  MOVFF  5F1,605
03A30:  MOVFF  5EC,60C
03A34:  MOVFF  5EB,60B
03A38:  MOVFF  5EA,60A
03A3C:  MOVFF  5E9,609
03A40:  CALL   2D48
03A44:  MOVFF  00,5F7
03A48:  MOVFF  01,5F8
03A4C:  MOVFF  02,5F9
03A50:  MOVFF  03,5FA
03A54:  BCF    FD8.1
03A56:  MOVFF  03,60C
03A5A:  MOVFF  02,60B
03A5E:  MOVFF  01,60A
03A62:  MOVFF  00,609
03A66:  MOVLW  C4
03A68:  MOVLB  6
03A6A:  MOVWF  x10
03A6C:  MOVLW  1D
03A6E:  MOVWF  x0F
03A70:  MOVLW  1E
03A72:  MOVWF  x0E
03A74:  MOVLW  78
03A76:  MOVWF  x0D
03A78:  MOVLB  0
03A7A:  CALL   18C0
03A7E:  MOVFF  03,5F4
03A82:  MOVFF  02,5F3
03A86:  MOVFF  01,5F2
03A8A:  MOVFF  00,5F1
....................    r = r*y + pe[3]; 
03A8E:  MOVFF  5F4,608
03A92:  MOVFF  5F3,607
03A96:  MOVFF  5F2,606
03A9A:  MOVFF  5F1,605
03A9E:  MOVFF  5EC,60C
03AA2:  MOVFF  5EB,60B
03AA6:  MOVFF  5EA,60A
03AAA:  MOVFF  5E9,609
03AAE:  CALL   2D48
03AB2:  MOVFF  00,5F7
03AB6:  MOVFF  01,5F8
03ABA:  MOVFF  02,5F9
03ABE:  MOVFF  03,5FA
03AC2:  BCF    FD8.1
03AC4:  MOVFF  03,60C
03AC8:  MOVFF  02,60B
03ACC:  MOVFF  01,60A
03AD0:  MOVFF  00,609
03AD4:  MOVLW  5E
03AD6:  MOVLB  6
03AD8:  MOVWF  x10
03ADA:  MOVLW  50
03ADC:  MOVWF  x0F
03ADE:  MOVLW  63
03AE0:  MOVWF  x0E
03AE2:  MOVLW  7A
03AE4:  MOVWF  x0D
03AE6:  MOVLB  0
03AE8:  CALL   18C0
03AEC:  MOVFF  03,5F4
03AF0:  MOVFF  02,5F3
03AF4:  MOVFF  01,5F2
03AF8:  MOVFF  00,5F1
....................    r = r*y + pe[4]; 
03AFC:  MOVFF  5F4,608
03B00:  MOVFF  5F3,607
03B04:  MOVFF  5F2,606
03B08:  MOVFF  5F1,605
03B0C:  MOVFF  5EC,60C
03B10:  MOVFF  5EB,60B
03B14:  MOVFF  5EA,60A
03B18:  MOVFF  5E9,609
03B1C:  CALL   2D48
03B20:  MOVFF  00,5F7
03B24:  MOVFF  01,5F8
03B28:  MOVFF  02,5F9
03B2C:  MOVFF  03,5FA
03B30:  BCF    FD8.1
03B32:  MOVFF  03,60C
03B36:  MOVFF  02,60B
03B3A:  MOVFF  01,60A
03B3E:  MOVFF  00,609
03B42:  MOVLW  1A
03B44:  MOVLB  6
03B46:  MOVWF  x10
03B48:  MOVLW  FE
03B4A:  MOVWF  x0F
03B4C:  MOVLW  75
03B4E:  MOVWF  x0E
03B50:  MOVLW  7C
03B52:  MOVWF  x0D
03B54:  MOVLB  0
03B56:  CALL   18C0
03B5A:  MOVFF  03,5F4
03B5E:  MOVFF  02,5F3
03B62:  MOVFF  01,5F2
03B66:  MOVFF  00,5F1
....................    r = r*y + pe[5]; 
03B6A:  MOVFF  5F4,608
03B6E:  MOVFF  5F3,607
03B72:  MOVFF  5F2,606
03B76:  MOVFF  5F1,605
03B7A:  MOVFF  5EC,60C
03B7E:  MOVFF  5EB,60B
03B82:  MOVFF  5EA,60A
03B86:  MOVFF  5E9,609
03B8A:  CALL   2D48
03B8E:  MOVFF  00,5F7
03B92:  MOVFF  01,5F8
03B96:  MOVFF  02,5F9
03B9A:  MOVFF  03,5FA
03B9E:  BCF    FD8.1
03BA0:  MOVFF  03,60C
03BA4:  MOVFF  02,60B
03BA8:  MOVFF  01,60A
03BAC:  MOVFF  00,609
03BB0:  MOVLW  18
03BB2:  MOVLB  6
03BB4:  MOVWF  x10
03BB6:  MOVLW  72
03BB8:  MOVWF  x0F
03BBA:  MOVLW  31
03BBC:  MOVWF  x0E
03BBE:  MOVLW  7E
03BC0:  MOVWF  x0D
03BC2:  MOVLB  0
03BC4:  CALL   18C0
03BC8:  MOVFF  03,5F4
03BCC:  MOVFF  02,5F3
03BD0:  MOVFF  01,5F2
03BD4:  MOVFF  00,5F1
....................  
....................    res = res*(1.0 + y*r); 
03BD8:  MOVFF  5EC,608
03BDC:  MOVFF  5EB,607
03BE0:  MOVFF  5EA,606
03BE4:  MOVFF  5E9,605
03BE8:  MOVFF  5F4,60C
03BEC:  MOVFF  5F3,60B
03BF0:  MOVFF  5F2,60A
03BF4:  MOVFF  5F1,609
03BF8:  CALL   2D48
03BFC:  BCF    FD8.1
03BFE:  MOVLB  6
03C00:  CLRF   x0C
03C02:  CLRF   x0B
03C04:  CLRF   x0A
03C06:  MOVLW  7F
03C08:  MOVWF  x09
03C0A:  MOVFF  03,610
03C0E:  MOVFF  02,60F
03C12:  MOVFF  01,60E
03C16:  MOVFF  00,60D
03C1A:  MOVLB  0
03C1C:  CALL   18C0
03C20:  MOVFF  5F0,608
03C24:  MOVFF  5EF,607
03C28:  MOVFF  5EE,606
03C2C:  MOVFF  5ED,605
03C30:  MOVFF  03,60C
03C34:  MOVFF  02,60B
03C38:  MOVFF  01,60A
03C3C:  MOVFF  00,609
03C40:  CALL   2D48
03C44:  MOVFF  03,5F0
03C48:  MOVFF  02,5EF
03C4C:  MOVFF  01,5EE
03C50:  MOVFF  00,5ED
....................  
....................    if (s) 
03C54:  MOVLB  5
03C56:  BTFSS  xF6.0
03C58:  BRA    3C8E
....................       res = 1.0/res; 
03C5A:  MOVLB  6
03C5C:  CLRF   x08
03C5E:  CLRF   x07
03C60:  CLRF   x06
03C62:  MOVLW  7F
03C64:  MOVWF  x05
03C66:  MOVFF  5F0,60C
03C6A:  MOVFF  5EF,60B
03C6E:  MOVFF  5EE,60A
03C72:  MOVFF  5ED,609
03C76:  MOVLB  0
03C78:  CALL   1762
03C7C:  MOVFF  03,5F0
03C80:  MOVFF  02,5EF
03C84:  MOVFF  01,5EE
03C88:  MOVFF  00,5ED
03C8C:  MOVLB  5
....................    return(res); 
03C8E:  MOVFF  5ED,00
03C92:  MOVFF  5EE,01
03C96:  MOVFF  5EF,02
03C9A:  MOVFF  5F0,03
.................... } 
03C9E:  MOVLB  0
03CA0:  RETLW  00
....................  
....................  
.................... //Overloaded function for exp() for PCD 
.................... // Overloaded function exp() for data type - Float48 
.................... #if defined(__PCD__) 
.................... float48 exp(float48 x) 
.................... { 
....................    float48 y, res, r; 
....................    int8 data1; 
....................    signed int8 n; 
....................    int1 s; 
....................    #ifdef _ERRNO 
....................    if(x > 88.722838) 
....................    { 
....................       errno=ERANGE; 
....................       return(0); 
....................    } 
....................    #endif 
....................    n = (signed int16)(x/LN2); 
....................    s = 0; 
....................    y = x; 
....................  
....................    if (x < 0) 
....................    { 
....................       s = 1; 
....................       n = -n; 
....................       y = -y; 
....................    } 
....................  
....................    res = 0.0; 
....................  
....................    data1 = n+0x7F; 
....................    if(bit_test(data1,0)) 
....................    bit_set(*(((unsigned int8 *)(&res)+4)),7); 
....................    rotate_right(&data1,1); 
....................    bit_clear(data1,7); 
....................    *(((unsigned int8 *)(&res)+5)) = data1; 
....................  
....................    y = y/LN2 - (float48)n; 
....................  
....................    r = pe[0]*y + pe[1]; 
....................    r = r*y + pe[2]; 
....................    r = r*y + pe[3]; 
....................    r = r*y + pe[4]; 
....................    r = r*y + pe[5]; 
....................  
....................    res = res*(1.0 + y*r); 
....................  
....................    if (s) 
....................       res = 1.0/res; 
....................    return(res); 
.................... } 
....................  
.................... // Overloaded function exp() for data type - Float64 
.................... float64 exp(float64 x) 
.................... { 
....................    float64 y, res, r; 
....................    unsigned int16 data1, data2; 
....................    unsigned int16 *p; 
....................    signed int16 n; 
....................    int1 s; 
....................    #ifdef _ERRNO 
....................    if(x > 709.7827128) 
....................    { 
....................       errno=ERANGE; 
....................       return(0); 
....................    } 
....................    #endif 
....................    n = (signed int16)(x/LN2); 
....................    s = 0; 
....................    y = x; 
....................  
....................    if (x < 0) 
....................    { 
....................       s = 1; 
....................       n = -n; 
....................       y = -y; 
....................    } 
....................  
....................    res = 0.0; 
....................  
.................... #if !defined(__PCD__) 
....................    *((unsigned int16 *)(&res)) = n + 0x7F; 
.................... #endif 
....................    p= (((unsigned int16 *)(&res))+3); 
....................    data1 = *p; 
....................    data2 = *p;    
....................    data1 = n + 0x3FF; 
....................    data1 = data1 <<4; 
....................    if(bit_test(data2,15)) 
....................    bit_set(data1,15); 
....................    data2 = data2 & 0x000F; 
....................    data1 ^= data2; 
....................  
....................    *(((unsigned int16 *)(&res)+3)) = data1; 
....................  
....................  
....................    y = y/LN2 - (float64)n; 
....................  
....................    r = pe[0]*y + pe[1]; 
....................    r = r*y + pe[2]; 
....................    r = r*y + pe[3]; 
....................    r = r*y + pe[4]; 
....................    r = r*y + pe[5]; 
....................  
....................    res = res*(1.0 + y*r); 
....................  
....................    if (s) 
....................       res = 1.0/res; 
....................    return(res); 
.................... } 
....................  
.................... #ENDIF 
....................  
....................  
.................... /************************************************************/ 
....................  
.................... float32 const pl[4] = {0.45145214, -9.0558803, 26.940971, -19.860189}; 
.................... float32 const ql[4] = {1.0000000,  -8.1354259, 16.780517, -9.9300943}; 
....................  
.................... //////////////////////////////////////////////////////////////////////////// 
.................... //   float log(float x) 
.................... //////////////////////////////////////////////////////////////////////////// 
.................... // Description : returns the the natural log of x 
.................... // Date : N/A 
.................... // 
.................... float32 log(float32 x) 
.................... { 
....................    float32 y, res, r, y2; 
....................    #if defined(__PCD__) 
....................    unsigned int8  data1,data2; 
....................    #endif 
....................    signed int8 n; 
....................    #ifdef _ERRNO 
....................    if(x <0) 
....................    { 
....................       errno=EDOM; 
....................    } 
....................    if(x ==0) 
....................    { 
....................       errno=ERANGE; 
....................       return(0); 
....................    } 
....................    #endif 
....................    y = x; 
*
033B4:  MOVFF  5E8,5EC
033B8:  MOVFF  5E7,5EB
033BC:  MOVFF  5E6,5EA
033C0:  MOVFF  5E5,5E9
....................  
....................    if (y != 1.0) 
033C4:  MOVFF  5EC,608
033C8:  MOVFF  5EB,607
033CC:  MOVFF  5EA,606
033D0:  MOVFF  5E9,605
033D4:  MOVLB  6
033D6:  CLRF   x0C
033D8:  CLRF   x0B
033DA:  CLRF   x0A
033DC:  MOVLW  7F
033DE:  MOVWF  x09
033E0:  MOVLB  0
033E2:  CALL   22C2
033E6:  BTFSC  FD8.2
033E8:  BRA    3874
....................    { 
.................... #if !defined(__PCD__) 
....................     *((unsigned int8 *)(&y)) = 0x7E;  
033EA:  MOVLW  05
033EC:  MOVLB  5
033EE:  MOVWF  xFB
033F0:  MOVLW  E9
033F2:  MOVWF  FE9
033F4:  MOVFF  5FB,FEA
033F8:  MOVLW  7E
033FA:  MOVWF  FEF
.................... #endif 
....................  
.................... #if defined(__PCD__) // Takes care of IEEE format 
....................    data2 = *(((unsigned int8 *)(&y))+3); 
....................    *(((unsigned int8 *)(&y))+3) = 0x3F; 
....................    data1 = *(((unsigned int8 *)(&y))+2); 
....................    bit_clear(data1,7); 
....................    *(((unsigned int8 *)(&y))+2) = data1; 
....................    if(bit_test(data2,7)) 
....................    bit_set(*(((unsigned int8 *)(&y))+3),7); 
.................... #endif 
....................  
....................       y = (y - 1.0)/(y + 1.0); 
033FC:  BSF    FD8.1
033FE:  MOVFF  5EC,60C
03402:  MOVFF  5EB,60B
03406:  MOVFF  5EA,60A
0340A:  MOVFF  5E9,609
0340E:  MOVLB  6
03410:  CLRF   x10
03412:  CLRF   x0F
03414:  CLRF   x0E
03416:  MOVLW  7F
03418:  MOVWF  x0D
0341A:  MOVLB  0
0341C:  CALL   18C0
03420:  MOVFF  00,5FA
03424:  MOVFF  01,5FB
03428:  MOVFF  02,5FC
0342C:  MOVFF  03,5FD
03430:  BCF    FD8.1
03432:  MOVFF  5EC,60C
03436:  MOVFF  5EB,60B
0343A:  MOVFF  5EA,60A
0343E:  MOVFF  5E9,609
03442:  MOVLB  6
03444:  CLRF   x10
03446:  CLRF   x0F
03448:  CLRF   x0E
0344A:  MOVLW  7F
0344C:  MOVWF  x0D
0344E:  MOVLB  0
03450:  CALL   18C0
03454:  MOVFF  5FD,608
03458:  MOVFF  5FC,607
0345C:  MOVFF  5FB,606
03460:  MOVFF  5FA,605
03464:  MOVFF  03,60C
03468:  MOVFF  02,60B
0346C:  MOVFF  01,60A
03470:  MOVFF  00,609
03474:  CALL   1762
03478:  MOVFF  03,5EC
0347C:  MOVFF  02,5EB
03480:  MOVFF  01,5EA
03484:  MOVFF  00,5E9
....................  
....................       y2=y*y; 
03488:  MOVFF  5EC,608
0348C:  MOVFF  5EB,607
03490:  MOVFF  5EA,606
03494:  MOVFF  5E9,605
03498:  MOVFF  5EC,60C
0349C:  MOVFF  5EB,60B
034A0:  MOVFF  5EA,60A
034A4:  MOVFF  5E9,609
034A8:  RCALL  2D48
034AA:  MOVFF  03,5F8
034AE:  MOVFF  02,5F7
034B2:  MOVFF  01,5F6
034B6:  MOVFF  00,5F5
....................  
....................       res = pl[0]*y2 + pl[1]; 
034BA:  MOVLW  BC
034BC:  MOVLB  6
034BE:  MOVWF  x08
034C0:  MOVLW  24
034C2:  MOVWF  x07
034C4:  MOVLW  67
034C6:  MOVWF  x06
034C8:  MOVLW  7D
034CA:  MOVWF  x05
034CC:  MOVFF  5F8,60C
034D0:  MOVFF  5F7,60B
034D4:  MOVFF  5F6,60A
034D8:  MOVFF  5F5,609
034DC:  MOVLB  0
034DE:  RCALL  2D48
034E0:  MOVFF  00,5FA
034E4:  MOVFF  01,5FB
034E8:  MOVFF  02,5FC
034EC:  MOVFF  03,5FD
034F0:  BCF    FD8.1
034F2:  MOVFF  03,60C
034F6:  MOVFF  02,60B
034FA:  MOVFF  01,60A
034FE:  MOVFF  00,609
03502:  MOVLW  E3
03504:  MOVLB  6
03506:  MOVWF  x10
03508:  MOVLW  E4
0350A:  MOVWF  x0F
0350C:  MOVLW  90
0350E:  MOVWF  x0E
03510:  MOVLW  82
03512:  MOVWF  x0D
03514:  MOVLB  0
03516:  CALL   18C0
0351A:  MOVFF  03,5F0
0351E:  MOVFF  02,5EF
03522:  MOVFF  01,5EE
03526:  MOVFF  00,5ED
....................       res = res*y2 + pl[2]; 
0352A:  MOVFF  5F0,608
0352E:  MOVFF  5EF,607
03532:  MOVFF  5EE,606
03536:  MOVFF  5ED,605
0353A:  MOVFF  5F8,60C
0353E:  MOVFF  5F7,60B
03542:  MOVFF  5F6,60A
03546:  MOVFF  5F5,609
0354A:  CALL   2D48
0354E:  MOVFF  00,5FA
03552:  MOVFF  01,5FB
03556:  MOVFF  02,5FC
0355A:  MOVFF  03,5FD
0355E:  BCF    FD8.1
03560:  MOVFF  03,60C
03564:  MOVFF  02,60B
03568:  MOVFF  01,60A
0356C:  MOVFF  00,609
03570:  MOVLW  1C
03572:  MOVLB  6
03574:  MOVWF  x10
03576:  MOVLW  87
03578:  MOVWF  x0F
0357A:  MOVLW  57
0357C:  MOVWF  x0E
0357E:  MOVLW  83
03580:  MOVWF  x0D
03582:  MOVLB  0
03584:  CALL   18C0
03588:  MOVFF  03,5F0
0358C:  MOVFF  02,5EF
03590:  MOVFF  01,5EE
03594:  MOVFF  00,5ED
....................       res = res*y2 + pl[3]; 
03598:  MOVFF  5F0,608
0359C:  MOVFF  5EF,607
035A0:  MOVFF  5EE,606
035A4:  MOVFF  5ED,605
035A8:  MOVFF  5F8,60C
035AC:  MOVFF  5F7,60B
035B0:  MOVFF  5F6,60A
035B4:  MOVFF  5F5,609
035B8:  CALL   2D48
035BC:  MOVFF  00,5FA
035C0:  MOVFF  01,5FB
035C4:  MOVFF  02,5FC
035C8:  MOVFF  03,5FD
035CC:  BCF    FD8.1
035CE:  MOVFF  03,60C
035D2:  MOVFF  02,60B
035D6:  MOVFF  01,60A
035DA:  MOVFF  00,609
035DE:  MOVLW  AB
035E0:  MOVLB  6
035E2:  MOVWF  x10
035E4:  MOVLW  E1
035E6:  MOVWF  x0F
035E8:  MOVLW  9E
035EA:  MOVWF  x0E
035EC:  MOVLW  83
035EE:  MOVWF  x0D
035F0:  MOVLB  0
035F2:  CALL   18C0
035F6:  MOVFF  03,5F0
035FA:  MOVFF  02,5EF
035FE:  MOVFF  01,5EE
03602:  MOVFF  00,5ED
....................  
....................       r = ql[0]*y2 + ql[1]; 
03606:  MOVLB  6
03608:  CLRF   x08
0360A:  CLRF   x07
0360C:  CLRF   x06
0360E:  MOVLW  7F
03610:  MOVWF  x05
03612:  MOVFF  5F8,60C
03616:  MOVFF  5F7,60B
0361A:  MOVFF  5F6,60A
0361E:  MOVFF  5F5,609
03622:  MOVLB  0
03624:  CALL   2D48
03628:  MOVFF  00,5FA
0362C:  MOVFF  01,5FB
03630:  MOVFF  02,5FC
03634:  MOVFF  03,5FD
03638:  BCF    FD8.1
0363A:  MOVFF  03,60C
0363E:  MOVFF  02,60B
03642:  MOVFF  01,60A
03646:  MOVFF  00,609
0364A:  MOVLW  B4
0364C:  MOVLB  6
0364E:  MOVWF  x10
03650:  MOVLW  2A
03652:  MOVWF  x0F
03654:  MOVLW  82
03656:  MOVWF  x0E
03658:  MOVWF  x0D
0365A:  MOVLB  0
0365C:  CALL   18C0
03660:  MOVFF  03,5F4
03664:  MOVFF  02,5F3
03668:  MOVFF  01,5F2
0366C:  MOVFF  00,5F1
....................       r = r*y2 + ql[2]; 
03670:  MOVFF  5F4,608
03674:  MOVFF  5F3,607
03678:  MOVFF  5F2,606
0367C:  MOVFF  5F1,605
03680:  MOVFF  5F8,60C
03684:  MOVFF  5F7,60B
03688:  MOVFF  5F6,60A
0368C:  MOVFF  5F5,609
03690:  CALL   2D48
03694:  MOVFF  00,5FA
03698:  MOVFF  01,5FB
0369C:  MOVFF  02,5FC
036A0:  MOVFF  03,5FD
036A4:  BCF    FD8.1
036A6:  MOVFF  03,60C
036AA:  MOVFF  02,60B
036AE:  MOVFF  01,60A
036B2:  MOVFF  00,609
036B6:  MOVLW  80
036B8:  MOVLB  6
036BA:  MOVWF  x10
036BC:  MOVLW  3E
036BE:  MOVWF  x0F
036C0:  MOVLW  06
036C2:  MOVWF  x0E
036C4:  MOVLW  83
036C6:  MOVWF  x0D
036C8:  MOVLB  0
036CA:  CALL   18C0
036CE:  MOVFF  03,5F4
036D2:  MOVFF  02,5F3
036D6:  MOVFF  01,5F2
036DA:  MOVFF  00,5F1
....................       r = r*y2 + ql[3]; 
036DE:  MOVFF  5F4,608
036E2:  MOVFF  5F3,607
036E6:  MOVFF  5F2,606
036EA:  MOVFF  5F1,605
036EE:  MOVFF  5F8,60C
036F2:  MOVFF  5F7,60B
036F6:  MOVFF  5F6,60A
036FA:  MOVFF  5F5,609
036FE:  CALL   2D48
03702:  MOVFF  00,5FA
03706:  MOVFF  01,5FB
0370A:  MOVFF  02,5FC
0370E:  MOVFF  03,5FD
03712:  BCF    FD8.1
03714:  MOVFF  03,60C
03718:  MOVFF  02,60B
0371C:  MOVFF  01,60A
03720:  MOVFF  00,609
03724:  MOVLW  AB
03726:  MOVLB  6
03728:  MOVWF  x10
0372A:  MOVLW  E1
0372C:  MOVWF  x0F
0372E:  MOVLW  9E
03730:  MOVWF  x0E
03732:  MOVLW  82
03734:  MOVWF  x0D
03736:  MOVLB  0
03738:  CALL   18C0
0373C:  MOVFF  03,5F4
03740:  MOVFF  02,5F3
03744:  MOVFF  01,5F2
03748:  MOVFF  00,5F1
....................  
....................       res = y*res/r; 
0374C:  MOVFF  5EC,608
03750:  MOVFF  5EB,607
03754:  MOVFF  5EA,606
03758:  MOVFF  5E9,605
0375C:  MOVFF  5F0,60C
03760:  MOVFF  5EF,60B
03764:  MOVFF  5EE,60A
03768:  MOVFF  5ED,609
0376C:  CALL   2D48
03770:  MOVFF  00,5FA
03774:  MOVFF  01,5FB
03778:  MOVFF  02,5FC
0377C:  MOVFF  03,5FD
03780:  MOVFF  03,608
03784:  MOVFF  02,607
03788:  MOVFF  01,606
0378C:  MOVFF  00,605
03790:  MOVFF  5F4,60C
03794:  MOVFF  5F3,60B
03798:  MOVFF  5F2,60A
0379C:  MOVFF  5F1,609
037A0:  CALL   1762
037A4:  MOVFF  03,5F0
037A8:  MOVFF  02,5EF
037AC:  MOVFF  01,5EE
037B0:  MOVFF  00,5ED
.................... #if !defined(__PCD__) 
....................       n = *((unsigned int8 *)(&x)) - 0x7E; 
037B4:  MOVLW  05
037B6:  MOVLB  5
037B8:  MOVWF  xFB
037BA:  MOVLW  E5
037BC:  MOVWF  FE9
037BE:  MOVFF  5FB,FEA
037C2:  MOVLW  7E
037C4:  SUBWF  FEF,W
037C6:  MOVWF  xF9
.................... #endif 
.................... #if defined(__PCD__)  
....................     data1 = *(((unsigned int8 *)(&x)+3)); 
....................     rotate_left(&data1,1); 
....................     data2 = *(((unsigned int8 *)(&x)+2)); 
....................     if(bit_test (data2,7)) 
....................       bit_set(data1,0); 
....................     n = data1 - 0x7E; 
.................... #endif 
....................  
....................       if (n<0)  
037C8:  BTFSC  xF9.7
037CA:  BRA    37CE
037CC:  BRA    37F6
....................          r = -(float32)-n; 
037CE:  MOVLW  00
037D0:  BSF    FD8.0
037D2:  SUBFWB xF9,W
037D4:  CLRF   xFC
037D6:  MOVWF  xFB
037D8:  BTFSC  xFB.7
037DA:  DECF   xFC,F
037DC:  MOVLB  0
037DE:  RCALL  3364
037E0:  MOVFF  00,5F1
037E4:  MOVF   01,W
037E6:  XORLW  80
037E8:  MOVLB  5
037EA:  MOVWF  xF2
037EC:  MOVFF  02,5F3
037F0:  MOVFF  03,5F4
....................       else 
037F4:  BRA    3814
....................          r = (float32)n; 
037F6:  CLRF   xFC
037F8:  MOVFF  5F9,5FB
037FC:  BTFSC  xFB.7
037FE:  DECF   xFC,F
03800:  MOVLB  0
03802:  RCALL  3364
03804:  MOVFF  03,5F4
03808:  MOVFF  02,5F3
0380C:  MOVFF  01,5F2
03810:  MOVFF  00,5F1
....................  
....................       res += r*LN2; 
03814:  MOVFF  5F4,608
03818:  MOVFF  5F3,607
0381C:  MOVFF  5F2,606
03820:  MOVFF  5F1,605
03824:  MOVLW  18
03826:  MOVLB  6
03828:  MOVWF  x0C
0382A:  MOVLW  72
0382C:  MOVWF  x0B
0382E:  MOVLW  31
03830:  MOVWF  x0A
03832:  MOVLW  7E
03834:  MOVWF  x09
03836:  MOVLB  0
03838:  CALL   2D48
0383C:  BCF    FD8.1
0383E:  MOVFF  5F0,60C
03842:  MOVFF  5EF,60B
03846:  MOVFF  5EE,60A
0384A:  MOVFF  5ED,609
0384E:  MOVFF  03,610
03852:  MOVFF  02,60F
03856:  MOVFF  01,60E
0385A:  MOVFF  00,60D
0385E:  CALL   18C0
03862:  MOVFF  03,5F0
03866:  MOVFF  02,5EF
0386A:  MOVFF  01,5EE
0386E:  MOVFF  00,5ED
....................    } 
....................  
....................    else 
03872:  BRA    3880
....................       res = 0.0; 
03874:  MOVLB  5
03876:  CLRF   xF0
03878:  CLRF   xEF
0387A:  CLRF   xEE
0387C:  CLRF   xED
0387E:  MOVLB  0
....................  
....................    return(res); 
03880:  MOVFF  5ED,00
03884:  MOVFF  5EE,01
03888:  MOVFF  5EF,02
0388C:  MOVFF  5F0,03
.................... } 
03890:  RETLW  00
....................  
.................... //Overloaded function for log() for PCD 
.................... // Overloaded function log() for data type - Float48 
.................... #if defined(__PCD__) 
.................... float48 log(float48 x) 
.................... { 
....................    float48 y, res, r, y2; 
....................    unsigned int8  data1,data2; 
....................    signed int8 n; 
....................    #ifdef _ERRNO 
....................    if(x <0) 
....................    { 
....................       errno=EDOM; 
....................    } 
....................    if(x ==0) 
....................    { 
....................       errno=ERANGE; 
....................       return(0); 
....................    } 
....................    #endif 
....................    y = x; 
....................  
....................    if (y != 1.0) 
....................    { 
....................     
....................    #if !defined(__PCD__) 
....................        *((unsigned int8 *)(&y)) = 0x7E;  
....................    #endif 
....................       data2 = *(((unsigned int8 *)(&y))+5); 
....................       *(((unsigned int8 *)(&y))+5) = 0x3F; 
....................       data1 = *(((unsigned int8 *)(&y))+4); 
....................       bit_clear(data1,7); 
....................       *(((unsigned int8 *)(&y))+4) = data1; 
....................    
....................       if(bit_test(data2,7)) 
....................          bit_set(*(((unsigned int8 *)(&y))+4),7); 
....................       y = (y - 1.0)/(y + 1.0); 
....................  
....................       y2=y*y; 
....................  
....................       res = pl[0]*y2 + pl[1]; 
....................       res = res*y2 + pl[2]; 
....................       res = res*y2 + pl[3]; 
....................  
....................       r = ql[0]*y2 + ql[1]; 
....................       r = r*y2 + ql[2]; 
....................       r = r*y2 + ql[3]; 
....................  
....................       res = y*res/r; 
....................  
....................     data1 = *(((unsigned int8 *)(&x)+5)); 
....................     rotate_left(&data1,1); 
....................     data2 = *(((unsigned int8 *)(&x)+4)); 
....................     if(bit_test (data2,7)) 
....................        bit_set(data1,0); 
....................       
....................     n = data1 - 0x7E; 
....................  
....................       if (n<0) 
....................          r = -(float48)-n; 
....................       else 
....................          r = (float48)n; 
....................  
....................       res += r*LN2; 
....................    } 
....................  
....................    else 
....................       res = 0.0; 
....................  
....................    return(res); 
.................... } 
....................  
.................... // Overloaded function log() for data type - Float48 
.................... #if defined(__PCD__) 
.................... float32 const pl_64[4] = {0.45145214, -9.0558803, 26.940971, -19.860189}; 
.................... float32 const ql_64[4] = {1.0000000,  -8.1354259, 16.780517, -9.9300943}; 
.................... #endif 
.................... float64 log(float64 x) 
.................... { 
....................    float64 y, res, r, y2; 
....................    unsigned int16  data1,data2; 
....................    unsigned int16 *p; 
....................    signed int16 n; 
....................    #ifdef _ERRNO 
....................    if(x <0) 
....................    { 
....................       errno=EDOM; 
....................    } 
....................    if(x ==0) 
....................    { 
....................       errno=ERANGE; 
....................       return(0); 
....................    } 
....................    #endif 
....................    y = x; 
....................  
....................    if (y != 1.0) 
....................    { 
....................    #if !defined(__PCD__) 
....................        *((unsigned int8 *)(&y)) = 0x7E;  
....................    #endif 
....................       p= (((unsigned int16 *)(&y))+3); 
....................       data1 = *p; 
....................       data2 = *p; 
....................       data1 = 0x3FE; 
....................       data1 = data1 <<4; 
....................       if(bit_test (data2,15)) 
....................       bit_set(data1,15); 
....................       data2 = data2 & 0x000F; 
....................       data1 ^=data2; 
....................  
....................       *p = data1; 
....................  
....................       y = (y - 1.0)/(y + 1.0); 
....................  
....................       y2=y*y; 
....................  
....................       res = pl_64[0]*y2 + pl_64[1]; 
....................       res = res*y2 + pl_64[2]; 
....................       res = res*y2 + pl_64[3]; 
....................  
....................       r = ql_64[0]*y2 + ql_64[1]; 
....................       r = r*y2 + ql_64[2]; 
....................       r = r*y2 + ql_64[3]; 
....................  
....................       res = y*res/r; 
....................   
....................       p= (((unsigned int16 *)(&x))+3); 
....................       data1 = *p; 
....................       bit_clear(data1,15); 
....................       data1 = data1 >>4;     
....................       n = data1 - 0x3FE; 
....................  
....................  
....................       if (n<0) 
....................          r = -(float64)-n; 
....................       else 
....................          r = (float64)n; 
....................  
....................       res += r*LN2; 
....................    } 
....................  
....................    else 
....................       res = 0.0; 
....................  
....................    return(res); 
.................... } 
.................... #endif 
....................  
....................  
.................... #define LN10 2.3025850929940456 
....................  
.................... //////////////////////////////////////////////////////////////////////////// 
.................... //   float log10(float x) 
.................... //////////////////////////////////////////////////////////////////////////// 
.................... // Description : returns the the log base 10 of x 
.................... // Date : N/A 
.................... // 
.................... float32 log10(float32 x) 
.................... { 
....................    float32 r; 
....................  
....................    r = log(x); 
....................    r = r/LN10; 
....................    return(r); 
.................... } 
....................  
.................... //Overloaded functions for log10() for PCD 
.................... // Overloaded function log10() for data type - Float48 
.................... #if defined(__PCD__) 
.................... float48 log10(float48 x) 
.................... { 
....................    float48 r; 
....................  
....................    r = log(x); 
....................    r = r/LN10; 
....................    return(r); 
.................... } 
....................  
.................... // Overloaded function log10() for data type - Float64 
.................... float64 log10(float64 x) 
.................... { 
....................    float64 r; 
....................  
....................    r = log(x); 
....................    r = r/LN10; 
....................    return(r); 
.................... } 
.................... #endif 
.................... //////////////////////////////////////////////////////////////////////////// 
.................... //   float modf(float x) 
.................... //////////////////////////////////////////////////////////////////////////// 
.................... // Description :breaks the argument value int integral and fractional parts, 
.................... // ach of which have the same sign as the argument.  It stores the integral part 
.................... // as a float in the object pointed to by the iptr 
.................... // Returns : returns the signed fractional part of value. 
.................... // Date : N/A 
.................... // 
....................  
.................... float32 modf(float32 value,float32 *iptr) 
.................... { 
....................    *iptr=(value < 0.0)? ceil(value): floor(value); 
....................    return(value - *iptr); 
.................... } 
.................... //Overloaded functions for modf() for PCD 
.................... // Overloaded function modf() for data type - Float48 
.................... #if defined(__PCD__) 
.................... float48 modf(float48 value,float48 *iptr) 
.................... { 
....................    *iptr=(value < 0.0)? ceil(value): floor(value); 
....................    return(value - *iptr); 
.................... } 
.................... // Overloaded function modf() for data type - Float64 
.................... float64 modf(float64 value,float64 *iptr) 
.................... { 
....................    *iptr=(value < 0.0)? ceil(value): floor(value); 
....................    return(value - *iptr); 
.................... } 
.................... #endif 
....................  
.................... //////////////////////////////////////////////////////////////////////////// 
.................... //   float pwr(float x,float y) 
.................... //////////////////////////////////////////////////////////////////////////// 
.................... // Description : returns the value (x^y) 
.................... // Date : N/A 
.................... // Note : 0 is returned when the function will generate an imaginary number 
.................... // 
.................... float32 pwr(float32 x,float32 y) 
.................... { 
....................    if(0 > x && fmod(y, 1) == 0) { 
....................       if(fmod(y, 2) == 0) { 
....................          return (exp(log(-x) * y)); 
....................       } else { 
....................          return (-exp(log(-x) * y)); 
....................       } 
....................    } else if(0 > x && fmod(y, 1) != 0) { 
....................       return 0; 
....................    } else { 
....................       if(x != 0 || 0 >= y) { 
....................          return (exp(log(x) * y)); 
....................       } 
....................    } 
.................... } 
.................... //Overloaded functions for pwr() for PCD 
.................... // Overloaded function pwr() for data type - Float48 
.................... #if defined(__PCD__) 
.................... float48 pwr(float48 x,float48 y) 
.................... { 
....................    if(0 > x && fmod(y, 1) == 0) { 
....................       if(fmod(y, 2) == 0) { 
....................          return (exp(log(-x) * y)); 
....................       } else { 
....................          return (-exp(log(-x) * y)); 
....................       } 
....................    } else if(0 > x && fmod(y, 1) != 0) { 
....................       return 0; 
....................    } else { 
....................       if(x != 0 || 0 >= y) { 
....................          return (exp(log(x) * y)); 
....................       } 
....................    } 
.................... } 
.................... // Overloaded function pwr() for data type - Float64 
.................... float64 pwr(float64 x,float64 y) 
.................... { 
....................    if(0 > x && fmod(y, 1) == 0) { 
....................       if(fmod(y, 2) == 0) { 
....................          return (exp(log(-x) * y)); 
....................       } else { 
....................          return (-exp(log(-x) * y)); 
....................       } 
....................    } else if(0 > x && fmod(y, 1) != 0) { 
....................       return 0; 
....................    } else { 
....................       if(x != 0 || 0 >= y) { 
....................          return (exp(log(x) * y)); 
....................       } 
....................    } 
.................... } 
.................... #endif 
....................  
.................... //////////////////// Power functions //////////////////// 
....................  
.................... //////////////////////////////////////////////////////////////////////////// 
.................... //   float pow(float x,float y) 
.................... //////////////////////////////////////////////////////////////////////////// 
.................... // Description : returns the value (x^y) 
.................... // Date : N/A 
.................... // Note : 0 is returned when the function will generate an imaginary number 
.................... // 
.................... float32 pow(float32 x,float32 y) 
.................... { 
....................    if(0 > x && fmod(y, 1) == 0) { 
*
03CA2:  MOVFF  5DC,608
03CA6:  MOVFF  5DB,607
03CAA:  MOVFF  5DA,606
03CAE:  MOVFF  5D9,605
03CB2:  MOVLB  6
03CB4:  CLRF   x0C
03CB6:  CLRF   x0B
03CB8:  CLRF   x0A
03CBA:  CLRF   x09
03CBC:  MOVLB  0
03CBE:  CALL   22C2
03CC2:  BTFSS  FD8.0
03CC4:  BRA    3E78
03CC6:  MOVFF  5E0,5E4
03CCA:  MOVFF  5DF,5E3
03CCE:  MOVFF  5DE,5E2
03CD2:  MOVFF  5DD,5E1
03CD6:  MOVLB  5
03CD8:  CLRF   xE8
03CDA:  CLRF   xE7
03CDC:  CLRF   xE6
03CDE:  MOVLW  7F
03CE0:  MOVWF  xE5
03CE2:  MOVLB  0
03CE4:  CALL   31FE
03CE8:  MOVFF  00,5E1
03CEC:  MOVFF  01,5E2
03CF0:  MOVFF  02,5E3
03CF4:  MOVFF  03,5E4
03CF8:  MOVFF  03,608
03CFC:  MOVFF  02,607
03D00:  MOVFF  01,606
03D04:  MOVFF  00,605
03D08:  MOVLB  6
03D0A:  CLRF   x0C
03D0C:  CLRF   x0B
03D0E:  CLRF   x0A
03D10:  CLRF   x09
03D12:  MOVLB  0
03D14:  CALL   22C2
03D18:  BTFSS  FD8.2
03D1A:  BRA    3E78
....................       if(fmod(y, 2) == 0) { 
03D1C:  MOVFF  5E0,5E4
03D20:  MOVFF  5DF,5E3
03D24:  MOVFF  5DE,5E2
03D28:  MOVFF  5DD,5E1
03D2C:  MOVLB  5
03D2E:  CLRF   xE8
03D30:  CLRF   xE7
03D32:  CLRF   xE6
03D34:  MOVLW  80
03D36:  MOVWF  xE5
03D38:  MOVLB  0
03D3A:  CALL   31FE
03D3E:  MOVFF  00,5E1
03D42:  MOVFF  01,5E2
03D46:  MOVFF  02,5E3
03D4A:  MOVFF  03,5E4
03D4E:  MOVFF  03,608
03D52:  MOVFF  02,607
03D56:  MOVFF  01,606
03D5A:  MOVFF  00,605
03D5E:  MOVLB  6
03D60:  CLRF   x0C
03D62:  CLRF   x0B
03D64:  CLRF   x0A
03D66:  CLRF   x09
03D68:  MOVLB  0
03D6A:  CALL   22C2
03D6E:  BNZ   3DF2
....................          return (exp(log(-x) * y)); 
03D70:  MOVFF  5D9,5E1
03D74:  MOVLB  5
03D76:  MOVF   xDA,W
03D78:  XORLW  80
03D7A:  MOVWF  xE2
03D7C:  MOVFF  5DB,5E3
03D80:  MOVFF  5DC,5E4
03D84:  MOVFF  5DC,5E8
03D88:  MOVFF  5DB,5E7
03D8C:  MOVWF  xE6
03D8E:  MOVFF  5D9,5E5
03D92:  MOVLB  0
03D94:  CALL   33B4
03D98:  MOVFF  00,5E1
03D9C:  MOVFF  01,5E2
03DA0:  MOVFF  02,5E3
03DA4:  MOVFF  03,5E4
03DA8:  MOVFF  03,608
03DAC:  MOVFF  02,607
03DB0:  MOVFF  01,606
03DB4:  MOVFF  00,605
03DB8:  MOVFF  5E0,60C
03DBC:  MOVFF  5DF,60B
03DC0:  MOVFF  5DE,60A
03DC4:  MOVFF  5DD,609
03DC8:  CALL   2D48
03DCC:  MOVFF  00,5E1
03DD0:  MOVFF  01,5E2
03DD4:  MOVFF  02,5E3
03DD8:  MOVFF  03,5E4
03DDC:  MOVFF  03,5E8
03DE0:  MOVFF  02,5E7
03DE4:  MOVFF  01,5E6
03DE8:  MOVFF  00,5E5
03DEC:  RCALL  3892
03DEE:  BRA    3FAC
....................       } else { 
03DF0:  BRA    3E76
....................          return (-exp(log(-x) * y)); 
03DF2:  MOVFF  5D9,5E1
03DF6:  MOVLB  5
03DF8:  MOVF   xDA,W
03DFA:  XORLW  80
03DFC:  MOVWF  xE2
03DFE:  MOVFF  5DB,5E3
03E02:  MOVFF  5DC,5E4
03E06:  MOVFF  5DC,5E8
03E0A:  MOVFF  5DB,5E7
03E0E:  MOVWF  xE6
03E10:  MOVFF  5D9,5E5
03E14:  MOVLB  0
03E16:  CALL   33B4
03E1A:  MOVFF  00,5E1
03E1E:  MOVFF  01,5E2
03E22:  MOVFF  02,5E3
03E26:  MOVFF  03,5E4
03E2A:  MOVFF  03,608
03E2E:  MOVFF  02,607
03E32:  MOVFF  01,606
03E36:  MOVFF  00,605
03E3A:  MOVFF  5E0,60C
03E3E:  MOVFF  5DF,60B
03E42:  MOVFF  5DE,60A
03E46:  MOVFF  5DD,609
03E4A:  CALL   2D48
03E4E:  MOVFF  00,5E1
03E52:  MOVFF  01,5E2
03E56:  MOVFF  02,5E3
03E5A:  MOVFF  03,5E4
03E5E:  MOVFF  03,5E8
03E62:  MOVFF  02,5E7
03E66:  MOVFF  01,5E6
03E6A:  MOVFF  00,5E5
03E6E:  RCALL  3892
03E70:  MOVLW  80
03E72:  XORWF  01,F
03E74:  BRA    3FAC
....................       } 
....................    } else if(0 > x && fmod(y, 1) != 0) { 
03E76:  BRA    3FAC
03E78:  MOVFF  5DC,608
03E7C:  MOVFF  5DB,607
03E80:  MOVFF  5DA,606
03E84:  MOVFF  5D9,605
03E88:  MOVLB  6
03E8A:  CLRF   x0C
03E8C:  CLRF   x0B
03E8E:  CLRF   x0A
03E90:  CLRF   x09
03E92:  MOVLB  0
03E94:  CALL   22C2
03E98:  BNC   3EFA
03E9A:  MOVFF  5E0,5E4
03E9E:  MOVFF  5DF,5E3
03EA2:  MOVFF  5DE,5E2
03EA6:  MOVFF  5DD,5E1
03EAA:  MOVLB  5
03EAC:  CLRF   xE8
03EAE:  CLRF   xE7
03EB0:  CLRF   xE6
03EB2:  MOVLW  7F
03EB4:  MOVWF  xE5
03EB6:  MOVLB  0
03EB8:  CALL   31FE
03EBC:  MOVFF  00,5E1
03EC0:  MOVFF  01,5E2
03EC4:  MOVFF  02,5E3
03EC8:  MOVFF  03,5E4
03ECC:  MOVFF  03,608
03ED0:  MOVFF  02,607
03ED4:  MOVFF  01,606
03ED8:  MOVFF  00,605
03EDC:  MOVLB  6
03EDE:  CLRF   x0C
03EE0:  CLRF   x0B
03EE2:  CLRF   x0A
03EE4:  CLRF   x09
03EE6:  MOVLB  0
03EE8:  CALL   22C2
03EEC:  BZ    3EFA
....................       return 0; 
03EEE:  CLRF   00
03EF0:  CLRF   01
03EF2:  CLRF   02
03EF4:  CLRF   03
03EF6:  BRA    3FAC
....................    } else { 
03EF8:  BRA    3FAC
....................       if(x != 0 || 0 >= y) { 
03EFA:  MOVFF  5DC,608
03EFE:  MOVFF  5DB,607
03F02:  MOVFF  5DA,606
03F06:  MOVFF  5D9,605
03F0A:  MOVLB  6
03F0C:  CLRF   x0C
03F0E:  CLRF   x0B
03F10:  CLRF   x0A
03F12:  CLRF   x09
03F14:  MOVLB  0
03F16:  CALL   22C2
03F1A:  BNZ   3F40
03F1C:  MOVFF  5E0,608
03F20:  MOVFF  5DF,607
03F24:  MOVFF  5DE,606
03F28:  MOVFF  5DD,605
03F2C:  MOVLB  6
03F2E:  CLRF   x0C
03F30:  CLRF   x0B
03F32:  CLRF   x0A
03F34:  CLRF   x09
03F36:  MOVLB  0
03F38:  CALL   22C2
03F3C:  BC    3F40
03F3E:  BNZ   3FAC
....................          return (exp(log(x) * y)); 
03F40:  MOVFF  5DC,5E8
03F44:  MOVFF  5DB,5E7
03F48:  MOVFF  5DA,5E6
03F4C:  MOVFF  5D9,5E5
03F50:  CALL   33B4
03F54:  MOVFF  00,5E1
03F58:  MOVFF  01,5E2
03F5C:  MOVFF  02,5E3
03F60:  MOVFF  03,5E4
03F64:  MOVFF  03,608
03F68:  MOVFF  02,607
03F6C:  MOVFF  01,606
03F70:  MOVFF  00,605
03F74:  MOVFF  5E0,60C
03F78:  MOVFF  5DF,60B
03F7C:  MOVFF  5DE,60A
03F80:  MOVFF  5DD,609
03F84:  CALL   2D48
03F88:  MOVFF  00,5E1
03F8C:  MOVFF  01,5E2
03F90:  MOVFF  02,5E3
03F94:  MOVFF  03,5E4
03F98:  MOVFF  03,5E8
03F9C:  MOVFF  02,5E7
03FA0:  MOVFF  01,5E6
03FA4:  MOVFF  00,5E5
03FA8:  RCALL  3892
03FAA:  BRA    3FAC
....................       } 
....................    } 
.................... } 
03FAC:  RETLW  00
.................... //Overloaded functions for pow() for PCD 
.................... // Overloaded function for pow() data type - Float48 
.................... #if defined(__PCD__) 
.................... float48 pow(float48 x,float48 y) 
.................... { 
....................    if(0 > x && fmod(y, 1) == 0) { 
....................       if(fmod(y, 2) == 0) { 
....................          return (exp(log(-x) * y)); 
....................       } else { 
....................          return (-exp(log(-x) * y)); 
....................       } 
....................    } else if(0 > x && fmod(y, 1) != 0) { 
....................       return 0; 
....................    } else { 
....................       if(x != 0 || 0 >= y) { 
....................          return (exp(log(x) * y)); 
....................       } 
....................    } 
.................... } 
....................  
.................... // Overloaded function pow() for data type - Float64 
.................... float64 pow(float64 x,float64 y) 
.................... { 
....................    if(0 > x && fmod(y, 1) == 0) { 
....................       if(fmod(y, 2) == 0) { 
....................          return (exp(log(-x) * y)); 
....................       } else { 
....................          return (-exp(log(-x) * y)); 
....................       } 
....................    } else if(0 > x && fmod(y, 1) != 0) { 
....................       return 0; 
....................    } else { 
....................       if(x != 0 || 0 >= y) { 
....................          return (exp(log(x) * y)); 
....................       } 
....................    } 
.................... } 
.................... #endif 
....................  
.................... //////////////////////////////////////////////////////////////////////////// 
.................... //   float sqrt(float x) 
.................... //////////////////////////////////////////////////////////////////////////// 
.................... // Description : returns the square root of x 
.................... // Date : N/A 
.................... // 
.................... float32 sqrt(float32 x) 
.................... { 
....................    float32 y, res; 
....................    #if defined(__PCD__) 
....................    unsigned int16 data1,data2; 
....................    #endif 
....................    BYTE *p; 
....................  
....................    #ifdef _ERRNO 
....................    if(x < 0) 
....................    { 
....................       errno=EDOM; 
....................    } 
....................    #endif 
....................  
....................    if( x<=0.0) 
....................       return(0.0); 
....................  
....................    y=x; 
....................     
....................    #if !defined(__PCD__) 
....................     p=&y; 
....................    (*p)=(BYTE)((((unsigned int16)(*p)) + 127) >> 1); 
....................    #endif 
....................     
....................    #if defined(__PCD__) 
....................     p = (((unsigned int8 *)(&y))+3); 
....................     data1 = *(((unsigned int8 *)(&y))+3); 
....................     data2 = *(((unsigned int8 *)(&y))+2); 
....................     rotate_left(&data1,1);     
....................     if(bit_test(data2,7))     
....................     bit_set(data1,0);     
....................     data1 = ((data1+127) >>1); 
....................     bit_clear(data2,7); 
....................     if(bit_test(data1,0)) 
....................     bit_set(data2,7); 
....................     data1 = data1 >>1; 
....................     *(((unsigned int8 *)(&y))+3) = data1; 
....................     *(((unsigned int8 *)(&y))+2) = data2; 
....................      
....................   #endif 
....................  
....................    do { 
....................       res=y; 
....................       y+=(x/y); 
....................  
....................       #if !defined(__PCD__) 
....................      (*p)--; 
....................    #endif 
....................     
....................    #if defined(__PCD__) 
....................     data1 = *(((unsigned int8 *)(&y))+3); 
....................     data2 = *(((unsigned int8 *)(&y))+2); 
....................     rotate_left(&data1,1); 
....................     if(bit_test(data2,7)) 
....................     bit_set(data1,0);     
....................     data1--; 
....................     bit_clear(data2,7); 
....................     if(bit_test(data1,0)) 
....................     bit_set(data2,7); 
....................     data1 = data1 >>1; 
....................     *(((unsigned int8 *)(&y))+3) = data1; 
....................     *(((unsigned int8 *)(&y))+2) = data2; 
....................      
....................   #endif 
....................    } while(res != y); 
....................  
....................    return(res); 
.................... } 
.................... //Overloaded functions for sqrt() for PCD 
.................... // Overloaded function sqrt() for data type - Float48 
.................... #if defined(__PCD__) 
.................... float48 sqrt(float48 x) 
.................... { 
....................    float48 y, res; 
....................    unsigned int16 data1,data2; 
....................    BYTE *p; 
....................  
....................    #ifdef _ERRNO 
....................    if(x < 0) 
....................    { 
....................       errno=EDOM; 
....................    } 
....................    #endif 
....................  
....................    if( x<=0.0) 
....................       return(0.0); 
....................  
....................    y=x; 
....................     
....................    #if !defined(__PCD__) 
....................     p=&y; 
....................    (*p)=(BYTE)((((unsigned int16)(*p)) + 127) >> 1); 
....................    #endif 
....................     
....................    #if defined(__PCD__) 
....................     p = (((unsigned int8 *)(&y))+5); 
....................     data1 = *(((unsigned int8 *)(&y))+5); 
....................     data2 = *(((unsigned int8 *)(&y))+4); 
....................     rotate_left(&data1,1); 
....................     if(bit_test(data2,7)) 
....................     bit_set(data1,0);     
....................     data1 = ((data1+127) >>1); 
....................     bit_clear(data2,7); 
....................     if(bit_test(data1,0)) 
....................     bit_set(data2,7); 
....................     data1 = data1 >>1; 
....................     *(((unsigned int8 *)(&y))+5) = data1; 
....................     *(((unsigned int8 *)(&y))+4) = data2; 
....................      
....................   #endif 
....................  
....................    do { 
....................       res=y; 
....................       y+=(x/y); 
....................  
....................       #if !defined(__PCD__) 
....................      (*p)--; 
....................    #endif 
....................     
....................     data1 = *(((unsigned int8 *)(&y))+5); 
....................     data2 = *(((unsigned int8 *)(&y))+4); 
....................     rotate_left(&data1,1); 
....................     if(bit_test(data2,7)) 
....................     bit_set(data1,0);     
....................     data1--; 
....................     bit_clear(data2,7); 
....................     if(bit_test(data1,0)) 
....................     bit_set(data2,7); 
....................     data1 = data1 >>1; 
....................     *(((unsigned int8 *)(&y))+5) = data1; 
....................     *(((unsigned int8 *)(&y))+4) = data2; 
....................      
....................    } while(res != y); 
....................  
....................    return(res); 
.................... } 
....................  
.................... // Overloaded function sqrt() for data type - Float64 
.................... float64 sqrt(float64 x) 
.................... { 
....................    float64 y, res; 
....................    unsigned int16 *p; 
....................    unsigned int16 temp1,temp2; 
....................  
....................    #ifdef _ERRNO 
....................    if(x < 0) 
....................    { 
....................       errno=EDOM; 
....................    } 
....................    #endif 
....................  
....................    if( x<=0.0) 
....................       return(0.0); 
....................  
....................    y=x; 
....................    p= (((unsigned int16 *)(&y))+3); 
....................    temp1 = *p; 
....................    temp2 = *p; 
....................    bit_clear(temp1,15); 
....................    temp1 = (temp1>>4)+1023; 
....................    temp1 = temp1 >> 1; 
....................    temp1 = (temp1<<4) & 0xFFF0; 
....................    if(bit_test(temp2,15)) 
....................    bit_set(temp1,15); 
....................    temp2 = temp2 & 0x000F; 
....................    temp1 ^= temp2; 
....................     
....................    (*p) = temp1; 
....................     
....................    do { 
....................       res=y; 
....................       y+=(x/y); 
....................      temp1 = *p; 
....................      temp2 = *p; 
....................      bit_clear(temp1,15); 
....................      temp1 = (temp1>>4); 
....................      temp1--; 
....................      temp1 = (temp1<<4) & 0xFFF0; 
....................      if(bit_test(temp2,15)) 
....................      bit_set(temp1,15); 
....................      temp2 = temp2 & 0x000F; 
....................      temp1 ^= temp2; 
....................      (*p) = temp1; 
....................  
....................    } while(res != y); 
....................  
....................    return(res); 
.................... } 
.................... #endif 
....................  
.................... ////////////////////////////// Trig Functions ////////////////////////////// 
.................... #ifdef PI_DIV_BY_TWO 
.................... #undef PI_DIV_BY_TWO 
.................... #endif 
.................... #define PI_DIV_BY_TWO   1.5707963267948966 
.................... #ifdef TWOBYPI 
.................... #undef TWOBYPI 
.................... #define TWOBYPI          0.6366197723675813 
.................... #endif 
.................... //////////////////////////////////////////////////////////////////////////// 
.................... //   float cos(float x) 
.................... //////////////////////////////////////////////////////////////////////////// 
.................... // Description : returns the cosine value of the angle x, which is in radian 
.................... // Date : 9/20/2001 
.................... // 
.................... float32 cos(float32 x) 
.................... { 
....................    float32 y, t, t2 = 1.0; 
....................    unsigned int8 quad, i; 
....................    float32 frac; 
....................    float32 p[6] = {                    //by the series definition for cosine 
....................       -0.5,                            // sum ( ( (-1)^n * x^2n )/(2n)! ) 
....................        0.04166666666667, 
....................       -0.00138888888889, 
....................        0.00002480158730, 
....................       -0.00000027557319, 
....................        0.00000000208767, 
....................       //-0.00000000001147, 
....................       // 0.00000000000005 
....................    }; 
....................  
....................    if (x < 0) x = -x;                  // absolute value of input 
....................  
....................    quad = (unsigned int8)(x / PI_DIV_BY_TWO);    // quadrant 
....................    frac = (x / PI_DIV_BY_TWO) - quad;  // fractional part of input 
....................    quad = quad % 4;                    // quadrant (0 to 3) 
....................  
....................    if (quad == 0 || quad == 2) 
....................       t = frac * PI_DIV_BY_TWO; 
....................    else if (quad == 1) 
....................       t = (1-frac) * PI_DIV_BY_TWO; 
....................    else // should be 3 
....................       t = (frac-1) * PI_DIV_BY_TWO; 
....................  
....................    y = 1.0; 
....................    t = t * t; 
....................    for (i = 0; i <= 5; i++) 
....................    { 
....................       t2 = t2 * t; 
....................       y = y + p[i] * t2; 
....................    } 
....................  
....................    if (quad == 2 || quad == 1) 
....................       y = -y;  // correct sign 
....................  
....................    return (y); 
.................... } 
....................  
....................  
.................... //Overloaded functions for cos() for PCD 
.................... // Overloaded function cos() for data type - Float48 
.................... #if defined(__PCD__) 
.................... float48 cos(float48 x) 
.................... { 
....................    float48 y, t, t2 = 1.0; 
....................    unsigned int8 quad, i; 
....................    float48 frac; 
....................    float48 p[6] = {                    //by the series definition for cosine 
....................       -0.5,                            // sum ( ( (-1)^n * x^2n )/(2n)! ) 
....................        0.04166666666667, 
....................       -0.00138888888889, 
....................        0.00002480158730, 
....................       -0.00000027557319, 
....................        0.00000000208767, 
....................       //-0.00000000001147, 
....................       // 0.00000000000005 
....................    }; 
....................  
....................    if (x < 0) x = -x;                  // absolute value of input 
....................  
....................    quad = (unsigned int8)(x / PI_DIV_BY_TWO);    // quadrant 
....................    frac = (x / PI_DIV_BY_TWO) - quad;  // fractional part of input 
....................    quad = quad % 4;                    // quadrant (0 to 3) 
....................  
....................    if (quad == 0 || quad == 2) 
....................       t = frac * PI_DIV_BY_TWO; 
....................    else if (quad == 1) 
....................       t = (1-frac) * PI_DIV_BY_TWO; 
....................    else // should be 3 
....................       t = (frac-1) * PI_DIV_BY_TWO; 
....................  
....................    y = 0.999999999781; 
....................    t = t * t; 
....................    for (i = 0; i <= 5; i++) 
....................    { 
....................       t2 = t2 * t; 
....................       y = y + p[i] * t2; 
....................    } 
....................  
....................    if (quad == 2 || quad == 1) 
....................       y = -y;  // correct sign 
....................  
....................    return (y); 
.................... } 
....................  
.................... // Overloaded function cos() for data type - Float48 
.................... float64 cos(float64 x) 
.................... { 
....................    float64 y, t, t2 = 1.0; 
....................    unsigned int8 quad, i; 
....................    float64 frac; 
....................    float64 p[6] = {                    //by the series definition for cosine 
....................       -0.5,                            // sum ( ( (-1)^n * x^2n )/(2n)! ) 
....................        0.04166666666667, 
....................       -0.00138888888889, 
....................        0.00002480158730, 
....................       -0.00000027557319, 
....................        0.00000000208767, 
....................       //-0.00000000001147, 
....................       // 0.00000000000005 
....................    }; 
....................  
....................    if (x < 0) x = -x;                  // absolute value of input 
....................  
....................    quad = (unsigned int8)(x / PI_DIV_BY_TWO);    // quadrant 
....................    frac = (x / PI_DIV_BY_TWO) - quad;  // fractional part of input 
....................    quad = quad % 4;                    // quadrant (0 to 3) 
....................  
....................    if (quad == 0 || quad == 2) 
....................       t = frac * PI_DIV_BY_TWO; 
....................    else if (quad == 1) 
....................       t = (1-frac) * PI_DIV_BY_TWO; 
....................    else // should be 3 
....................       t = (frac-1) * PI_DIV_BY_TWO; 
....................  
....................    y = 0.999999999781; 
....................    t = t * t; 
....................    for (i = 0; i <= 5; i++) 
....................    { 
....................       t2 = t2 * t; 
....................       y = y + p[i] * t2; 
....................    } 
....................  
....................    if (quad == 2 || quad == 1) 
....................       y = -y;  // correct sign 
....................  
....................    return (y); 
.................... } 
....................  
.................... #endif 
....................  
.................... //////////////////////////////////////////////////////////////////////////// 
.................... //   float sin(float x) 
.................... //////////////////////////////////////////////////////////////////////////// 
.................... // Description : returns the sine value of the angle x, which is in radian 
.................... // Date : 9/20/2001 
.................... // 
.................... float32 sin(float32 x) 
.................... { 
....................    return cos(x - PI_DIV_BY_TWO); 
.................... } 
....................  
.................... //Overloaded functions for sin() for PCD 
.................... // Overloaded function sin() for data type - Float48 
.................... #if defined(__PCD__) 
.................... float48 sin(float48 x) 
.................... { 
....................    return cos(x - PI_DIV_BY_TWO); 
.................... } 
....................  
.................... // Overloaded function sin() for data type - Float48 
.................... float64 sin(float64 x) 
.................... { 
....................    return cos(x - PI_DIV_BY_TWO); 
.................... } 
.................... #endif 
....................  
.................... //////////////////////////////////////////////////////////////////////////// 
.................... //   float tan(float x) 
.................... //////////////////////////////////////////////////////////////////////////// 
.................... // Description : returns the tangent value of the angle x, which is in radian 
.................... // Date : 9/20/2001 
.................... // 
.................... float32 tan(float32 x) 
.................... { 
....................    float32 c, s; 
....................  
....................    c = cos(x); 
....................    if (c == 0.0) 
....................       return (1.0e+36); 
....................  
....................    s = sin(x); 
....................    return(s/c); 
.................... } 
.................... //Overloaded functions for tan() for PCD 
.................... // Overloaded function tan() for data type - Float48 
.................... #if defined(__PCD__) 
.................... float48 tan(float48 x) 
.................... { 
....................    float48 c, s; 
....................  
....................    c = cos(x); 
....................    if (c == 0.0) 
....................       return (1.0e+36); 
....................  
....................    s = sin(x); 
....................    return(s/c); 
.................... } 
....................  
.................... // Overloaded function tan() for data type - Float48 
.................... float64 tan(float64 x) 
.................... { 
....................    float64 c, s; 
....................  
....................    c = cos(x); 
....................    if (c == 0.0) 
....................       return (1.0e+36); 
....................  
....................    s = sin(x); 
....................    return(s/c); 
.................... } 
.................... #endif 
....................  
.................... float32 const pas[3] = {0.49559947, -4.6145309, 5.6036290}; 
.................... float32 const qas[3] = {1.0000000,  -5.5484666, 5.6036290}; 
....................  
.................... float32 ASIN_COS(float32 x, unsigned int8 n) 
.................... { 
....................    float32 y, res, r, y2; 
....................    int1 s; 
....................    #ifdef _ERRNO 
....................    if(x <-1 || x > 1) 
....................    { 
....................       errno=EDOM; 
....................    } 
....................    #endif 
....................    s = 0; 
....................    y = x; 
....................  
....................    if (x < 0) 
....................    { 
....................       s = 1; 
....................       y = -y; 
....................    } 
....................  
....................    if (y > 0.5) 
....................    { 
....................       y = sqrt((1.0 - y)/2.0); 
....................       n += 2; 
....................    } 
....................  
....................    y2=y*y; 
....................  
....................    res = pas[0]*y2 + pas[1]; 
....................    res = res*y2 + pas[2]; 
....................  
....................    r = qas[0]*y2 + qas[1]; 
....................    r = r*y2 + qas[2]; 
....................  
....................    res = y*res/r; 
....................  
....................    if (n & 2)     // |x| > 0.5 
....................       res = PI_DIV_BY_TWO - 2.0*res; 
....................    if (s) 
....................       res = -res; 
....................    if (n & 1)           // take arccos 
....................       res = PI_DIV_BY_TWO - res; 
....................  
....................    return(res); 
.................... } 
....................  
.................... //Overloaded functions for ASIN_COS() for PCD 
.................... // Overloaded function ASIN_COS() for data type - Float48 
.................... #if defined(__PCD__) 
.................... float48 ASIN_COS(float48 x, unsigned int8 n) 
.................... { 
....................    float48 y, res, r, y2; 
....................    int1 s; 
....................    #ifdef _ERRNO 
....................    if(x <-1 || x > 1) 
....................    { 
....................       errno=EDOM; 
....................    } 
....................    #endif 
....................    s = 0; 
....................    y = x; 
....................  
....................    if (x < 0) 
....................    { 
....................       s = 1; 
....................       y = -y; 
....................    } 
....................  
....................    if (y > 0.5) 
....................    { 
....................       y = sqrt((1.0 - y)/2.0); 
....................       n += 2; 
....................    } 
....................  
....................    y2=y*y; 
....................  
....................    res = pas[0]*y2 + pas[1]; 
....................    res = res*y2 + pas[2]; 
....................  
....................    r = qas[0]*y2 + qas[1]; 
....................    r = r*y2 + qas[2]; 
....................  
....................    res = y*res/r; 
....................  
....................    if (n & 2)     // |x| > 0.5 
....................       res = PI_DIV_BY_TWO - 2.0*res; 
....................    if (s) 
....................       res = -res; 
....................    if (n & 1)           // take arccos 
....................       res = PI_DIV_BY_TWO - res; 
....................  
....................    return(res); 
.................... } 
....................  
.................... // Overloaded function ASIN_COS() for data type - Float64 
.................... float64 ASIN_COS(float64 x, unsigned int8 n) 
.................... { 
....................    float64 y, res, r, y2; 
....................    int1 s; 
....................    #ifdef _ERRNO 
....................    if(x <-1 || x > 1) 
....................    { 
....................       errno=EDOM; 
....................    } 
....................    #endif 
....................    s = 0; 
....................    y = x; 
....................  
....................    if (x < 0) 
....................    { 
....................       s = 1; 
....................       y = -y; 
....................    } 
....................  
....................    if (y > 0.5) 
....................    { 
....................       y = sqrt((1.0 - y)/2.0); 
....................       n += 2; 
....................    } 
....................  
....................    y2=y*y; 
....................  
....................    res = pas[0]*y2 + pas[1]; 
....................    res = res*y2 + pas[2]; 
....................  
....................    r = qas[0]*y2 + qas[1]; 
....................    r = r*y2 + qas[2]; 
....................  
....................    res = y*res/r; 
....................  
....................    if (n & 2)     // |x| > 0.5 
....................       res = PI_DIV_BY_TWO - 2.0*res; 
....................    if (s) 
....................       res = -res; 
....................    if (n & 1)           // take arccos 
....................       res = PI_DIV_BY_TWO - res; 
....................  
....................    return(res); 
.................... } 
.................... #endif 
....................  
.................... //////////////////////////////////////////////////////////////////////////// 
.................... //   float asin(float x) 
.................... //////////////////////////////////////////////////////////////////////////// 
.................... // Description : returns the arcsine value of the value x. 
.................... // Date : N/A 
.................... // 
.................... float32 asin(float32 x) 
.................... { 
....................    float32 r; 
....................  
....................    r = ASIN_COS(x, 0); 
....................    return(r); 
.................... } 
.................... //Overloaded functions for asin() for PCD 
.................... // Overloaded function asin() for data type - Float48 
.................... #if defined(__PCD__) 
.................... float48 asin(float48 x) 
.................... { 
....................    float48 r; 
....................  
....................    r = ASIN_COS(x, 0); 
....................    return(r); 
.................... } 
....................  
.................... // Overloaded function asin() for data type - Float64 
.................... float64 asin(float64 x) 
.................... { 
....................    float64 r; 
....................  
....................    r = ASIN_COS(x, 0); 
....................    return(r); 
.................... } 
.................... #endif 
....................  
.................... //////////////////////////////////////////////////////////////////////////// 
.................... //   float acos(float x) 
.................... //////////////////////////////////////////////////////////////////////////// 
.................... // Description : returns the arccosine value of the value x. 
.................... // Date : N/A 
.................... // 
.................... float32 acos(float32 x) 
.................... { 
....................    float32 r; 
....................  
....................    r = ASIN_COS(x, 1); 
....................    return(r); 
.................... } 
.................... //Overloaded functions for acos() for PCD 
.................... // Overloaded function acos() for data type - Float48 
.................... #if defined(__PCD__) 
.................... float48 acos(float48 x) 
.................... { 
....................    float48 r; 
....................  
....................    r = ASIN_COS(x, 1); 
....................    return(r); 
.................... } 
....................  
.................... // Overloaded function acos() for data type - Float64 
.................... float64 acos(float64 x) 
.................... { 
....................    float64 r; 
....................  
....................    r = ASIN_COS(x, 1); 
....................    return(r); 
.................... } 
.................... #endif 
....................  
.................... float32 const pat[4] = {0.17630401, 5.6710795, 22.376096, 19.818457}; 
.................... float32 const qat[4] = {1.0000000,  11.368190, 28.982246, 19.818457}; 
....................  
.................... //////////////////////////////////////////////////////////////////////////// 
.................... //   float atan(float x) 
.................... //////////////////////////////////////////////////////////////////////////// 
.................... // Description : returns the arctangent value of the value x. 
.................... // Date : N/A 
.................... // 
.................... float32 atan(float32 x) 
.................... { 
....................    float32 y, res, r; 
....................    int1 s, flag; 
....................  
....................    s = 0; 
....................    flag = 0; 
....................    y = x; 
....................  
....................    if (x < 0) 
....................    { 
....................       s = 1; 
....................       y = -y; 
....................    } 
....................  
....................    if (y > 1.0) 
....................    { 
....................       y = 1.0/y; 
....................       flag = 1; 
....................    } 
....................  
....................    res = pat[0]*y*y + pat[1]; 
....................    res = res*y*y + pat[2]; 
....................    res = res*y*y + pat[3]; 
....................  
....................    r = qat[0]*y*y + qat[1]; 
....................    r = r*y*y + qat[2]; 
....................    r = r*y*y + qat[3]; 
....................  
....................    res = y*res/r; 
....................  
....................  
....................    if (flag)                              // for |x| > 1 
....................       res = PI_DIV_BY_TWO - res; 
....................    if (s) 
....................       res = -res; 
....................  
....................    return(res); 
.................... } 
.................... //Overloaded functions for atan() for PCD 
.................... // Overloaded function atan() for data type - Float48 
.................... #if defined(__PCD__) 
.................... float48 atan(float48 x) 
.................... { 
....................    float48 y, res, r; 
....................    int1 s, flag; 
....................  
....................    s = 0; 
....................    flag = 0; 
....................    y = x; 
....................  
....................    if (x < 0) 
....................    { 
....................       s = 1; 
....................       y = -y; 
....................    } 
....................  
....................    if (y > 1.0) 
....................    { 
....................       y = 1.0/y; 
....................       flag = 1; 
....................    } 
....................  
....................    res = pat[0]*y*y + pat[1]; 
....................    res = res*y*y + pat[2]; 
....................    res = res*y*y + pat[3]; 
....................  
....................    r = qat[0]*y*y + qat[1]; 
....................    r = r*y*y + qat[2]; 
....................    r = r*y*y + qat[3]; 
....................  
....................    res = y*res/r; 
....................  
....................  
....................    if (flag)                              // for |x| > 1 
....................       res = PI_DIV_BY_TWO - res; 
....................    if (s) 
....................       res = -res; 
....................  
....................    return(res); 
.................... } 
....................  
.................... // Overloaded function atan() for data type - Float64 
.................... float64 atan(float64 x) 
.................... { 
....................    float64 y, res, r; 
....................    int1 s, flag; 
....................  
....................    s = 0; 
....................    flag = 0; 
....................    y = x; 
....................  
....................    if (x < 0) 
....................    { 
....................       s = 1; 
....................       y = -y; 
....................    } 
....................  
....................    if (y > 1.0) 
....................    { 
....................       y = 1.0/y; 
....................       flag = 1; 
....................    } 
....................  
....................    res = pat[0]*y*y + pat[1]; 
....................    res = res*y*y + pat[2]; 
....................    res = res*y*y + pat[3]; 
....................  
....................    r = qat[0]*y*y + qat[1]; 
....................    r = r*y*y + qat[2]; 
....................    r = r*y*y + qat[3]; 
....................  
....................    res = y*res/r; 
....................  
....................  
....................    if (flag)                              // for |x| > 1 
....................       res = PI_DIV_BY_TWO - res; 
....................    if (s) 
....................       res = -res; 
....................  
....................    return(res); 
.................... } 
.................... #endif 
....................  
.................... ///////////////////////////////////////////////////////////////////////////// 
.................... //   float atan2(float y, float x) 
.................... ///////////////////////////////////////////////////////////////////////////// 
.................... // Description :computes the principal value of arc tangent of y/x, using the 
.................... // signs of both the arguments to determine the quadrant of the return value 
.................... // Returns : returns the arc tangent of y/x. 
.................... // Date : N/A 
.................... // 
....................  
.................... float32 atan2(float32 y,float32 x) 
.................... { 
....................    float32 z; 
....................    int1 sign; 
....................    unsigned int8 quad; 
....................    sign=0; 
....................    quad=0; //quadrant 
....................    quad=((y<=0.0)?((x<=0.0)?3:4):((x<0.0)?2:1)); 
....................    if(y<0.0) 
....................    { 
....................       sign=1; 
....................       y=-y; 
....................    } 
....................    if(x<0.0) 
....................    { 
....................       x=-x; 
....................    } 
....................    if (x==0.0) 
....................    { 
....................       if(y==0.0) 
....................       { 
....................       #ifdef _ERRNO 
....................       { 
....................          errno=EDOM; 
....................       } 
....................       #endif 
....................       } 
....................       else 
....................       { 
....................          if(sign) 
....................          { 
....................          return (-(PI_DIV_BY_TWO)); 
....................          } 
....................          else 
....................          { 
....................          return (PI_DIV_BY_TWO); 
....................          } 
....................       } 
....................    } 
....................    else 
....................    { 
....................       z=y/x; 
....................       switch(quad) 
....................       { 
....................          case 1: 
....................          { 
....................             return atan(z); 
....................             break; 
....................          } 
....................          case 2: 
....................          { 
.................... //            return (atan(z)+PI_DIV_BY_TWO);  //2L3122 
....................             return (PI-atan(z)); 
....................             break; 
....................          } 
....................          case 3: 
....................          { 
....................             return (atan(z)-PI); 
....................             break; 
....................          } 
....................          case 4: 
....................          { 
....................             return (-atan(z)); 
....................             break; 
....................          } 
....................       } 
....................    } 
.................... } 
....................  
.................... //Overloaded functions for atan2() for PCD 
.................... // Overloaded function atan2() for data type - Float48 
.................... #if defined(__PCD__) 
.................... float48 atan2(float48 y,float48 x) 
.................... { 
....................    float48 z; 
....................    int1 sign; 
....................    unsigned int8 quad; 
....................    sign=0; 
....................    quad=0; //quadrant 
....................    quad=((y<=0.0)?((x<=0.0)?3:4):((x<0.0)?2:1)); 
....................    if(y<0.0) 
....................    { 
....................       sign=1; 
....................       y=-y; 
....................    } 
....................    if(x<0.0) 
....................    { 
....................       x=-x; 
....................    } 
....................    if (x==0.0) 
....................    { 
....................       if(y==0.0) 
....................       { 
....................       #ifdef _ERRNO 
....................       { 
....................          errno=EDOM; 
....................       } 
....................       #endif 
....................       } 
....................       else 
....................       { 
....................          if(sign) 
....................          { 
....................          return (-(PI_DIV_BY_TWO)); 
....................          } 
....................          else 
....................          { 
....................          return (PI_DIV_BY_TWO); 
....................          } 
....................       } 
....................    } 
....................    else 
....................    { 
....................       z=y/x; 
....................       switch(quad) 
....................       { 
....................          case 1: 
....................          { 
....................             return atan(z); 
....................             break; 
....................          } 
....................          case 2: 
....................          { 
.................... //            return (atan(z)+PI_DIV_BY_TWO);  //2L3122 
....................             return (PI-atan(z)); 
....................             break; 
....................          } 
....................          case 3: 
....................          { 
....................             return (atan(z)-PI); 
....................             break; 
....................          } 
....................          case 4: 
....................          { 
....................             return (-atan(z)); 
....................             break; 
....................          } 
....................       } 
....................    } 
.................... } 
....................  
.................... // Overloaded function atan2() for data type - Float64 
.................... float64 atan2(float64 y,float64 x) 
.................... { 
....................    float64 z; 
....................    int1 sign; 
....................    unsigned int8 quad; 
....................    sign=0; 
....................    quad=0; //quadrant 
....................    quad=((y<=0.0)?((x<=0.0)?3:4):((x<0.0)?2:1)); 
....................    if(y<0.0) 
....................    { 
....................       sign=1; 
....................       y=-y; 
....................    } 
....................    if(x<0.0) 
....................    { 
....................       x=-x; 
....................    } 
....................    if (x==0.0) 
....................    { 
....................       if(y==0.0) 
....................       { 
....................       #ifdef _ERRNO 
....................       { 
....................          errno=EDOM; 
....................       } 
....................       #endif 
....................       } 
....................       else 
....................       { 
....................          if(sign) 
....................          { 
....................          return (-(PI_DIV_BY_TWO)); 
....................          } 
....................          else 
....................          { 
....................          return (PI_DIV_BY_TWO); 
....................          } 
....................       } 
....................    } 
....................    else 
....................    { 
....................       z=y/x; 
....................       switch(quad) 
....................       { 
....................          case 1: 
....................          { 
....................             return atan(z); 
....................             break; 
....................          } 
....................          case 2: 
....................          { 
.................... //            return (atan(z)+PI_DIV_BY_TWO);  //2L3122 
....................             return (PI-atan(z)); 
....................             break; 
....................          } 
....................          case 3: 
....................          { 
....................             return (atan(z)-PI); 
....................             break; 
....................          } 
....................          case 4: 
....................          { 
....................             return (-atan(z)); 
....................             break; 
....................          } 
....................       } 
....................    } 
.................... } 
.................... #endif 
....................  
.................... //////////////////// Hyperbolic functions //////////////////// 
....................  
.................... //////////////////////////////////////////////////////////////////////////// 
.................... //   float cosh(float x) 
.................... //////////////////////////////////////////////////////////////////////////// 
.................... // Description : Computes the hyperbolic cosine value of x 
.................... // Returns : returns the hyperbolic cosine value of x 
.................... // Date : N/A 
.................... // 
....................  
.................... float32 cosh(float32 x) 
.................... { 
....................    return ((exp(x)+exp(-x))/2); 
.................... } 
.................... //Overloaded functions for cosh() for PCD 
.................... // Overloaded function cosh() for data type - Float48 
.................... #if defined(__PCD__) 
.................... float48 cosh(float48 x) 
.................... { 
....................    return ((exp(x)+exp(-x))/2); 
.................... } 
....................  
.................... // Overloaded function cosh() for data type - Float64 
.................... float64 cosh(float64 x) 
.................... { 
....................    return ((exp(x)+exp(-x))/2); 
.................... } 
.................... #endif 
....................  
.................... //////////////////////////////////////////////////////////////////////////// 
.................... //   float sinh(float x) 
.................... //////////////////////////////////////////////////////////////////////////// 
.................... // Description : Computes the hyperbolic sine value of x 
.................... // Returns : returns the hyperbolic sine value of x 
.................... // Date : N/A 
.................... // 
....................  
.................... float32 sinh(float32 x) 
.................... { 
....................  
....................    return ((exp(x) - exp(-x))/2); 
.................... } 
.................... //Overloaded functions for sinh() for PCD 
.................... // Overloaded function sinh() for data type - Float48 
.................... #if defined(__PCD__) 
.................... float48 sinh(float48 x) 
.................... { 
....................  
....................    return ((exp(x) - exp(-x))/2); 
.................... } 
....................  
.................... // Overloaded function sinh() for data type - Float48 
.................... float64 sinh(float64 x) 
.................... { 
....................  
....................    return ((exp(x) - exp(-x))/2); 
.................... } 
.................... #endif 
....................  
.................... //////////////////////////////////////////////////////////////////////////// 
.................... //   float tanh(float x) 
.................... //////////////////////////////////////////////////////////////////////////// 
.................... // Description : Computes the hyperbolic tangent value of x 
.................... // Returns : returns the hyperbolic tangent value of x 
.................... // Date : N/A 
.................... // 
....................  
.................... float32 tanh(float32 x) 
.................... { 
....................    return(sinh(x)/cosh(x)); 
.................... } 
.................... //Overloaded functions for tanh() for PCD 
.................... // Overloaded function tanh() for data type - Float48 
.................... #if defined(__PCD__) 
.................... float48 tanh(float48 x) 
.................... { 
....................    return(sinh(x)/cosh(x)); 
.................... } 
....................  
.................... // Overloaded function tanh() for data type - Float64 
.................... float64 tanh(float64 x) 
.................... { 
....................    return(sinh(x)/cosh(x)); 
.................... } 
.................... #endif 
....................  
.................... //////////////////////////////////////////////////////////////////////////// 
.................... //   float frexp(float x, signed int *exp) 
.................... //////////////////////////////////////////////////////////////////////////// 
.................... // Description : breaks a floating point number into a normalized fraction and an integral 
.................... // power of 2. It stores the integer in the signed int object pointed to by exp. 
.................... // Returns : returns the value x, such that x is a double with magnitude in the interval 
.................... // [1/2,1) or zero, and value equals x times 2 raised to the power *exp.If value is zero, 
.................... // both parts of the result are zero. 
.................... // Date : N/A 
.................... // 
....................  
.................... #define LOG2 .30102999566398119521 
.................... float32 frexp(float32 x, signed int8 *exp) 
.................... { 
....................    float32 res; 
....................    int1 sign = 0; 
....................    if(x == 0.0) 
....................    { 
....................       *exp=0; 
....................       return (0.0); 
....................    } 
....................    if(x < 0.0) 
....................    { 
....................      x=-x; 
....................      sign=1; 
....................    } 
....................    if (x > 1.0) 
....................    { 
....................       *exp=(ceil(log10(x)/LOG2)); 
....................       res=x/(pow(2, *exp)); 
....................       if (res == 1) 
....................       { 
....................          *exp=*exp+1; 
....................           res=.5; 
....................       } 
....................    } 
....................    else 
....................    { 
....................       if(x < 0.5) 
....................       { 
....................          *exp=-1; 
....................          res=x*2; 
....................       } 
....................       else 
....................       { 
....................          *exp=0; 
....................           res=x; 
....................       } 
....................    } 
....................    if(sign) 
....................    { 
....................       res=-res; 
....................    } 
....................    return res; 
.................... } 
....................  
.................... //Overloaded functions for frexp() for PCD 
.................... // Overloaded function frexp() for data type - Float48 
.................... #if defined(__PCD__) 
.................... float48 frexp(float48 x, signed int8 *exp) 
.................... { 
....................    float48 res; 
....................    int1 sign = 0; 
....................    if(x == 0.0) 
....................    { 
....................       *exp=0; 
....................       return (0.0); 
....................    } 
....................    if(x < 0.0) 
....................    { 
....................      x=-x; 
....................      sign=1; 
....................    } 
....................    if (x > 1.0) 
....................    { 
....................       *exp=(ceil(log10(x)/LOG2)); 
....................       res=x/(pow(2, *exp)); 
....................       if (res == 1) 
....................       { 
....................          *exp=*exp+1; 
....................           res=.5; 
....................       } 
....................    } 
....................    else 
....................    { 
....................       if(x < 0.5) 
....................       { 
....................          *exp=-1; 
....................          res=x*2; 
....................       } 
....................       else 
....................       { 
....................          *exp=0; 
....................           res=x; 
....................       } 
....................    } 
....................    if(sign) 
....................    { 
....................       res=-res; 
....................    } 
....................    return res; 
.................... } 
....................  
.................... // Overloaded function frexp() for data type - Float64 
.................... float64 frexp(float64 x, signed int8 *exp) 
.................... { 
....................    float64 res; 
....................    int1 sign = 0; 
....................    if(x == 0.0) 
....................    { 
....................       *exp=0; 
....................       return (0.0); 
....................    } 
....................    if(x < 0.0) 
....................    { 
....................      x=-x; 
....................      sign=1; 
....................    } 
....................    if (x > 1.0) 
....................    { 
....................       *exp=(ceil(log10(x)/LOG2)); 
....................       res=x/(pow(2, *exp)); 
....................       if (res == 1) 
....................       { 
....................          *exp=*exp+1; 
....................           res=.5; 
....................       } 
....................    } 
....................    else 
....................    { 
....................       if(x < 0.5) 
....................       { 
....................          *exp=-1; 
....................          res=x*2; 
....................       } 
....................       else 
....................       { 
....................          *exp=0; 
....................           res=x; 
....................       } 
....................    } 
....................    if(sign) 
....................    { 
....................       res=-res; 
....................    } 
....................    return res; 
.................... } 
.................... #endif 
....................  
.................... ////////////////////////////////////////////////////////////////////////////// 
.................... //   float ldexp(float x, signed int *exp) 
.................... ////////////////////////////////////////////////////////////////////////////// 
.................... // Description : multiplies a floating point number by an integral power of 2. 
.................... // Returns : returns the value of x times 2 raised to the power exp. 
.................... // Date : N/A 
.................... // 
....................  
.................... float32 ldexp(float32 value, signed int8 exp) 
.................... { 
....................    return (value * pow(2,exp)); 
.................... } 
.................... //Overloaded functions for ldexp() for PCD 
.................... // Overloaded function ldexp() for data type - Float48 
....................  
.................... #if defined(__PCD__) 
.................... float48 ldexp(float48 value, signed int8 exp) 
.................... { 
....................    return (value * pow(2,exp)); 
.................... } 
.................... // Overloaded function ldexp() for data type - Float64 
.................... float64 ldexp(float64 value, signed int8 exp) 
.................... { 
....................    return (value * pow(2,exp)); 
.................... } 
.................... #endif 
....................  
.................... #endif 
....................  
.................... #include "HDM64GS12.c" 
.................... ///////////////////////////////////////////////////////////////////////// 
.................... ////                           HDM64GS12.c                           //// 
.................... ////                                                                 //// 
.................... //// This file contains drivers for using a Hantronix HDM64GS12 with //// 
.................... //// a KS0108 display controller. The HDM64GS12 is 128 by 64 pixels. //// 
.................... //// The driver treats the upper left pixel as (0,0).                //// 
.................... ////                                                                 //// 
.................... //// Use #define FAST_GLCD if the target chip has at least 1k of RAM //// 
.................... //// to decrease the time it takes to update the display.            //// 
.................... //// glcd_update() must then be called to update the display after   //// 
.................... //// changing the pixel information.                                 //// 
.................... //// See ex_glcd.c for suggested usage.                              //// 
.................... //// See KS0108.c for controlling a single 64 by 64 display          //// 
.................... ///////////////////////////////////////////////////////////////////////// 
.................... ////                                                                 //// 
.................... //// LCD Pin connections:                                            //// 
.................... //// (These can be changed as needed in the following defines).      //// 
.................... ////  * 1: VSS is connected to GND                                   //// 
.................... ////  * 2: VDD is connected to +5V                                   //// 
.................... ////  * 3: V0  - LCD operating voltage (Constrast adjustment)        //// 
.................... ////  * 4: D/I - Data or Instruction is connected to B2              //// 
.................... ////  * 5: R/W - Read or Write is connected to B4                    //// 
.................... ////  * 6: Enable is connected to B5                                 //// 
.................... ////  *7-14: Data Bus 0 to 7 is connected to port d                  //// 
.................... ////  *15: Chip Select 1 is connected to B0                          //// 
.................... ////  *16: Chip Select 2 is connected to B1                          //// 
.................... ////  *17: Reset is connected to C0                                  //// 
.................... ////  *18: Negative voltage is also connected to the 20k Ohm POT     //// 
.................... ////  *19: Positive voltage for LED backlight is connected to +5V    //// 
.................... ////  *20: Negavtive voltage for LED backlight is connected to GND   //// 
.................... ////                                                                 //// 
.................... ///////////////////////////////////////////////////////////////////////// 
.................... ////                                                                 //// 
.................... ////  glcd_init(mode)                                                //// 
.................... ////     * Must be called before any other function.                 //// 
.................... ////       - mode can be ON or OFF to turn the LCD on or off         //// 
.................... ////                                                                 //// 
.................... ////  glcd_pixel(x,y,color)                                          //// 
.................... ////     * Sets the pixel to the given color.                        //// 
.................... ////       - color can be ON or OFF                                  //// 
.................... ////                                                                 //// 
.................... ////  glcd_fillScreen(color)                                         //// 
.................... ////     * Fills the entire LCD with the given color.                //// 
.................... ////       - color can be ON or OFF                                  //// 
.................... ////                                                                 //// 
.................... ////  glcd_update()                                                  //// 
.................... ////     * Write the display data stored in RAM to the LCD           //// 
.................... ////     * Only available if FAST_GLCD is defined                    //// 
.................... ////                                                                 //// 
.................... ///////////////////////////////////////////////////////////////////////// 
.................... ////        (C) Copyright 1996, 2004 Custom Computer Services        //// 
.................... //// This source code may only be used by licensed users of the CCS  //// 
.................... //// C compiler.  This source code may only be distributed to other  //// 
.................... //// licensed users of the CCS C compiler.  No other use,            //// 
.................... //// reproduction or distribution is permitted without written       //// 
.................... //// permission.  Derivative programs created using this software    //// 
.................... //// in object code form are not restricted in any way.              //// 
.................... ///////////////////////////////////////////////////////////////////////// 
....................  
....................  
....................  
.................... #ifndef HDM64GS12 
.................... #define HDM64GS12 
....................  
.................... #ifndef FAST_GLCD 
.................... #define FAST_GLCD 
....................  
.................... #ifndef GLCD_WIDTH 
.................... #define GLCD_WIDTH   128 
.................... #endif 
....................  
.................... #ifndef GLCD_CS1 
.................... #define GLCD_CS1     PIN_B2   // Chip Selection 1 
.................... #endif 
....................  
.................... #ifndef GLCD_CS2 
.................... #define GLCD_CS2     PIN_B3   // Chip Selection 2 
.................... #endif 
....................  
.................... #ifndef GLCD_DI 
.................... #define GLCD_DI      PIN_B5   // Data or Instruction input 
.................... #endif 
....................  
.................... #ifndef GLCD_RW 
.................... #define GLCD_RW      PIN_B6   // Read/Write 
.................... #endif 
....................  
.................... #ifndef GLCD_E 
.................... #define GLCD_E       PIN_B7   // Enable 
.................... #endif 
....................  
.................... #ifndef GLCD_RST 
.................... #define GLCD_RST     PIN_B4   // Reset 
.................... #endif 
....................  
.................... #define GLCD_LEFT    0 
.................... #define GLCD_RIGHT   1 
....................  
.................... #ifndef ON 
.................... #define ON           1 
.................... #endif 
....................  
.................... #ifndef OFF 
.................... #define OFF          0 
.................... #endif 
....................  
.................... ///////////////////////////////////////////////////////////////////////// 
.................... // Function Prototypes 
.................... ///////////////////////////////////////////////////////////////////////// 
.................... void glcd_init(int1 mode); 
.................... void glcd_pixel(int8 x, int8 y, int1 color); 
.................... void glcd_fillScreen(int1 color); 
.................... void glcd_writeByte(int1 side, BYTE data); 
.................... BYTE glcd_readByte(int1 side); 
.................... void glcd_update(); 
.................... ///////////////////////////////////////////////////////////////////////// 
....................  
.................... #ifdef FAST_GLCD 
.................... struct 
.................... { 
....................    int8 left[512]; 
....................    int8 right[512]; 
.................... } displayData; 
.................... #endif 
....................  
....................  
.................... // Purpose:       Initialize the LCD. 
.................... //                Call before using any other LCD function. 
.................... // Inputs:        OFF - Turns the LCD off 
.................... //                ON  - Turns the LCD on 
.................... void glcd_init(int1 mode) 
.................... { 
....................    // Initialze some pins 
....................    output_high(GLCD_RST); 
*
01684:  BCF    F93.4
01686:  BSF    F8A.4
....................    output_low(GLCD_E); 
01688:  BCF    F93.7
0168A:  BCF    F8A.7
....................    output_low(GLCD_CS1); 
0168C:  BCF    F93.2
0168E:  BCF    F8A.2
....................    output_low(GLCD_CS2); 
01690:  BCF    F93.3
01692:  BCF    F8A.3
....................  
....................    output_low(GLCD_DI);                 // Set for instruction 
01694:  BCF    F93.5
01696:  BCF    F8A.5
....................    glcd_writeByte(GLCD_LEFT,  0xC0);    // Specify first RAM line at the top 
01698:  MOVLB  5
0169A:  CLRF   xE3
0169C:  MOVLW  C0
0169E:  MOVWF  xE4
016A0:  MOVLB  0
016A2:  RCALL  153C
....................    glcd_writeByte(GLCD_RIGHT, 0xC0);    //   of the screen 
016A4:  MOVLW  01
016A6:  MOVLB  5
016A8:  MOVWF  xE3
016AA:  MOVLW  C0
016AC:  MOVWF  xE4
016AE:  MOVLB  0
016B0:  RCALL  153C
....................    glcd_writeByte(GLCD_LEFT,  0x40);    // Set the column address to 0 
016B2:  MOVLB  5
016B4:  CLRF   xE3
016B6:  MOVLW  40
016B8:  MOVWF  xE4
016BA:  MOVLB  0
016BC:  RCALL  153C
....................    glcd_writeByte(GLCD_RIGHT, 0x40); 
016BE:  MOVLW  01
016C0:  MOVLB  5
016C2:  MOVWF  xE3
016C4:  MOVLW  40
016C6:  MOVWF  xE4
016C8:  MOVLB  0
016CA:  RCALL  153C
....................    glcd_writeByte(GLCD_LEFT,  0xB8);    // Set the page address to 0 
016CC:  MOVLB  5
016CE:  CLRF   xE3
016D0:  MOVLW  B8
016D2:  MOVWF  xE4
016D4:  MOVLB  0
016D6:  RCALL  153C
....................    glcd_writeByte(GLCD_RIGHT, 0xB8); 
016D8:  MOVLW  01
016DA:  MOVLB  5
016DC:  MOVWF  xE3
016DE:  MOVLW  B8
016E0:  MOVWF  xE4
016E2:  MOVLB  0
016E4:  RCALL  153C
....................  
....................    if(mode == ON) 
016E6:  MOVLB  5
016E8:  DECFSZ xD4,W
016EA:  BRA    1708
....................    { 
....................       glcd_writeByte(GLCD_LEFT,  0x3F); // Turn the display on 
016EC:  CLRF   xE3
016EE:  MOVLW  3F
016F0:  MOVWF  xE4
016F2:  MOVLB  0
016F4:  RCALL  153C
....................       glcd_writeByte(GLCD_RIGHT, 0x3F); 
016F6:  MOVLW  01
016F8:  MOVLB  5
016FA:  MOVWF  xE3
016FC:  MOVLW  3F
016FE:  MOVWF  xE4
01700:  MOVLB  0
01702:  RCALL  153C
....................    } 
....................    else 
01704:  BRA    1720
01706:  MOVLB  5
....................    { 
....................       glcd_writeByte(GLCD_LEFT,  0x3E); // Turn the display off 
01708:  CLRF   xE3
0170A:  MOVLW  3E
0170C:  MOVWF  xE4
0170E:  MOVLB  0
01710:  RCALL  153C
....................       glcd_writeByte(GLCD_RIGHT, 0x3E); 
01712:  MOVLW  01
01714:  MOVLB  5
01716:  MOVWF  xE3
01718:  MOVLW  3E
0171A:  MOVWF  xE4
0171C:  MOVLB  0
0171E:  RCALL  153C
....................    } 
....................  
....................    glcd_fillScreen(OFF);                // Clear the display 
01720:  MOVLB  5
01722:  CLRF   xDC
01724:  MOVLB  0
01726:  RCALL  1572
....................  
....................    #ifdef FAST_GLCD 
....................    glcd_update(); 
01728:  RCALL  15CC
....................    #endif 
.................... } 
0172A:  RETLW  00
....................  
....................  
.................... // Purpose:    Update the LCD with data from the display arrays 
.................... #ifdef FAST_GLCD 
.................... void glcd_update() 
.................... { 
....................    int8 i, j; 
....................    int8 *p1, *p2; 
....................  
....................    p1 = displayData.left; 
*
015CC:  MOVLB  5
015CE:  CLRF   xDF
015D0:  MOVLW  16
015D2:  MOVWF  xDE
....................    p2 = displayData.right; 
015D4:  MOVLW  02
015D6:  MOVWF  xE1
015D8:  MOVLW  16
015DA:  MOVWF  xE0
....................  
....................    // Loop through the vertical pages 
....................    for(i = 0; i < 8; ++i) 
015DC:  CLRF   xDC
015DE:  MOVF   xDC,W
015E0:  SUBLW  07
015E2:  BNC   1680
....................    { 
....................       output_low(GLCD_DI);                      // Set for instruction 
015E4:  BCF    F93.5
015E6:  BCF    F8A.5
....................       glcd_writeByte(GLCD_LEFT, 0x40);          // Set horizontal address to 0 
015E8:  CLRF   xE3
015EA:  MOVLW  40
015EC:  MOVWF  xE4
015EE:  MOVLB  0
015F0:  RCALL  153C
....................       glcd_writeByte(GLCD_RIGHT, 0x40); 
015F2:  MOVLW  01
015F4:  MOVLB  5
015F6:  MOVWF  xE3
015F8:  MOVLW  40
015FA:  MOVWF  xE4
015FC:  MOVLB  0
015FE:  RCALL  153C
....................       glcd_writeByte(GLCD_LEFT, i | 0xB8);      // Set page address 
01600:  MOVLB  5
01602:  MOVF   xDC,W
01604:  IORLW  B8
01606:  MOVWF  xE2
01608:  CLRF   xE3
0160A:  MOVWF  xE4
0160C:  MOVLB  0
0160E:  RCALL  153C
....................       glcd_writeByte(GLCD_RIGHT, i | 0xB8); 
01610:  MOVLB  5
01612:  MOVF   xDC,W
01614:  IORLW  B8
01616:  MOVWF  xE2
01618:  MOVLW  01
0161A:  MOVWF  xE3
0161C:  MOVFF  5E2,5E4
01620:  MOVLB  0
01622:  RCALL  153C
....................       output_high(GLCD_DI);                     // Set for data 
01624:  BCF    F93.5
01626:  BSF    F8A.5
....................  
....................       // Loop through the horizontal sections 
....................       for(j = 0; j < 64; ++j) 
01628:  MOVLB  5
0162A:  CLRF   xDD
0162C:  MOVF   xDD,W
0162E:  SUBLW  3F
01630:  BNC   167C
....................       { 
....................          glcd_writeByte(GLCD_LEFT, *p1++);      // Turn pixels on or off 
01632:  MOVFF  5DF,03
01636:  MOVF   xDE,W
01638:  INCF   xDE,F
0163A:  BTFSC  FD8.2
0163C:  INCF   xDF,F
0163E:  MOVWF  FE9
01640:  MOVFF  03,FEA
01644:  MOVFF  FEF,5E2
01648:  CLRF   xE3
0164A:  MOVFF  5E2,5E4
0164E:  MOVLB  0
01650:  RCALL  153C
....................          glcd_writeByte(GLCD_RIGHT, *p2++);     // Turn pixels on or off 
01652:  MOVLB  5
01654:  MOVFF  5E1,03
01658:  MOVF   xE0,W
0165A:  INCF   xE0,F
0165C:  BTFSC  FD8.2
0165E:  INCF   xE1,F
01660:  MOVWF  FE9
01662:  MOVFF  03,FEA
01666:  MOVFF  FEF,5E2
0166A:  MOVLW  01
0166C:  MOVWF  xE3
0166E:  MOVFF  5E2,5E4
01672:  MOVLB  0
01674:  RCALL  153C
....................       } 
01676:  MOVLB  5
01678:  INCF   xDD,F
0167A:  BRA    162C
....................    } 
0167C:  INCF   xDC,F
0167E:  BRA    15DE
.................... } 
01680:  MOVLB  0
01682:  RETLW  00
.................... #endif 
....................  
....................  
.................... // Purpose:    Turn a pixel on a graphic LCD on or off 
.................... // Inputs:     1) x - the x coordinate of the pixel 
.................... //             2) y - the y coordinate of the pixel 
.................... //             3) color - ON or OFF 
.................... void glcd_pixel(int8 x, int8 y, int1 color) 
.................... #ifdef FAST_GLCD 
.................... { 
....................    int8* p; 
....................    int16 temp; 
....................    temp =  y/8; 
*
046FA:  MOVLB  6
046FC:  CLRF   x0E
046FE:  RRCF   x09,W
04700:  MOVWF  x0D
04702:  RRCF   x0D,F
04704:  RRCF   x0D,F
04706:  MOVLW  1F
04708:  ANDWF  x0D,F
....................    temp *= 64; 
0470A:  RLCF   x0D,F
0470C:  RLCF   x0E,F
0470E:  RLCF   x0D,F
04710:  RLCF   x0E,F
04712:  RLCF   x0D,F
04714:  RLCF   x0E,F
04716:  RLCF   x0D,F
04718:  RLCF   x0E,F
0471A:  RLCF   x0D,F
0471C:  RLCF   x0E,F
0471E:  RLCF   x0D,F
04720:  RLCF   x0E,F
04722:  MOVLW  C0
04724:  ANDWF  x0D,F
....................    temp += x; 
04726:  MOVF   x08,W
04728:  ADDWF  x0D,F
0472A:  MOVLW  00
0472C:  ADDWFC x0E,F
....................  
....................    if(x > 63) 
0472E:  MOVF   x08,W
04730:  SUBLW  3F
04732:  BC    474E
....................    { 
....................       p = displayData.right + temp - 64; 
04734:  MOVLW  16
04736:  ADDWF  x0D,W
04738:  MOVWF  x0F
0473A:  MOVLW  02
0473C:  ADDWFC x0E,W
0473E:  MOVWF  x10
04740:  MOVLW  40
04742:  SUBWF  x0F,W
04744:  MOVWF  x0B
04746:  MOVLW  00
04748:  SUBWFB x10,W
0474A:  MOVWF  x0C
....................    } 
....................    else 
0474C:  BRA    475A
....................    { 
....................       p = displayData.left + temp; 
0474E:  MOVLW  16
04750:  ADDWF  x0D,W
04752:  MOVWF  x0B
04754:  MOVLW  00
04756:  ADDWFC x0E,W
04758:  MOVWF  x0C
....................    } 
....................  
....................    if(color) 
0475A:  MOVF   x0A,F
0475C:  BZ    4788
....................    { 
....................       bit_set(*p, y%8); 
0475E:  MOVFF  60C,03
04762:  MOVFF  60B,FE9
04766:  MOVFF  60C,FEA
0476A:  MOVF   x09,W
0476C:  ANDLW  07
0476E:  MOVWF  x0F
04770:  MOVLW  01
04772:  MOVWF  00
04774:  MOVF   x0F,W
04776:  MOVWF  01
04778:  BZ    4782
0477A:  BCF    FD8.0
0477C:  RLCF   00,F
0477E:  DECFSZ 01,F
04780:  BRA    477A
04782:  MOVF   00,W
04784:  IORWF  FEF,F
....................    } 
....................    else 
04786:  BRA    47B2
....................    { 
....................       bit_clear(*p, y%8); 
04788:  MOVFF  60C,03
0478C:  MOVFF  60B,FE9
04790:  MOVFF  60C,FEA
04794:  MOVF   x09,W
04796:  ANDLW  07
04798:  MOVWF  x0F
0479A:  MOVLW  01
0479C:  MOVWF  00
0479E:  MOVF   x0F,W
047A0:  MOVWF  01
047A2:  BZ    47AC
047A4:  BCF    FD8.0
047A6:  RLCF   00,F
047A8:  DECFSZ 01,F
047AA:  BRA    47A4
047AC:  MOVF   00,W
047AE:  XORLW  FF
047B0:  ANDWF  FEF,F
....................    } 
.................... } 
047B2:  MOVLB  0
047B4:  RETLW  00
.................... #else 
.................... { 
....................    BYTE data; 
....................    int1 side = GLCD_LEFT;  // Stores which chip to use on the LCD 
....................  
....................    if(x > 63)              // Check for first or second display area 
....................    { 
....................       x -= 64; 
....................       side = GLCD_RIGHT; 
....................    } 
....................  
....................    output_low(GLCD_DI);                         // Set for instruction 
....................    bit_clear(x,7);                              // Clear the MSB. Part of an instruction code 
....................    bit_set(x,6);                                // Set bit 6. Also part of an instruction code 
....................    glcd_writeByte(side, x);                     // Set the horizontal address 
....................    glcd_writeByte(side, (y/8 & 0xBF) | 0xB8);   // Set the vertical page address 
....................    output_high(GLCD_DI);                        // Set for data 
....................    glcd_readByte(side);                         // Need two reads to get data 
....................    data = glcd_readByte(side);                  //  at new address 
....................  
....................    if(color == ON) 
....................       bit_set(data, y%8);        // Turn the pixel on 
....................    else                          // or 
....................       bit_clear(data, y%8);      // turn the pixel off 
....................  
....................    output_low(GLCD_DI);          // Set for instruction 
....................    glcd_writeByte(side, x);      // Set the horizontal address 
....................    output_high(GLCD_DI);         // Set for data 
....................    glcd_writeByte(side, data);   // Write the pixel data 
.................... } 
.................... #endif 
....................  
....................  
.................... // Purpose:    Fill the LCD screen with the passed in color 
.................... // Inputs:     ON  - turn all the pixels on 
.................... //             OFF - turn all the pixels off 
.................... void glcd_fillScreen(int1 color) 
.................... #ifdef FAST_GLCD 
.................... { 
....................    int8  data; 
....................    int8  *p1, *p2; 
....................    int16 i; 
....................  
....................    p1 = displayData.left; 
*
01572:  MOVLB  5
01574:  CLRF   xDF
01576:  MOVLW  16
01578:  MOVWF  xDE
....................    p2 = displayData.right; 
0157A:  MOVLW  02
0157C:  MOVWF  xE1
0157E:  MOVLW  16
01580:  MOVWF  xE0
....................    data = 0xFF * color; 
01582:  MOVF   xDC,W
01584:  MULLW  FF
01586:  MOVFF  FF3,5DD
....................  
....................    for(i=0; i<512; ++i) 
0158A:  CLRF   xE3
0158C:  CLRF   xE2
0158E:  MOVF   xE3,W
01590:  SUBLW  01
01592:  BNC   15C8
....................    { 
....................       *p1++ = data; 
01594:  MOVFF  5DF,03
01598:  MOVF   xDE,W
0159A:  INCF   xDE,F
0159C:  BTFSC  FD8.2
0159E:  INCF   xDF,F
015A0:  MOVWF  FE9
015A2:  MOVFF  03,FEA
015A6:  MOVFF  5DD,FEF
....................       *p2++ = data; 
015AA:  MOVFF  5E1,03
015AE:  MOVF   xE0,W
015B0:  INCF   xE0,F
015B2:  BTFSC  FD8.2
015B4:  INCF   xE1,F
015B6:  MOVWF  FE9
015B8:  MOVFF  03,FEA
015BC:  MOVFF  5DD,FEF
....................    } 
015C0:  INCF   xE2,F
015C2:  BTFSC  FD8.2
015C4:  INCF   xE3,F
015C6:  BRA    158E
.................... } 
015C8:  MOVLB  0
015CA:  RETLW  00
.................... #else 
.................... { 
....................    int8 i, j; 
....................  
....................    // Loop through the vertical pages 
....................    for(i = 0; i < 8; ++i) 
....................    { 
....................       output_low(GLCD_DI);                      // Set for instruction 
....................       glcd_writeByte(GLCD_LEFT, 0b01000000);    // Set horizontal address to 0 
....................       glcd_writeByte(GLCD_RIGHT, 0b01000000); 
....................       glcd_writeByte(GLCD_LEFT, i | 0b10111000);// Set page address 
....................       glcd_writeByte(GLCD_RIGHT, i | 0b10111000); 
....................       output_high(GLCD_DI);                     // Set for data 
....................  
....................       // Loop through the horizontal sections 
....................       for(j = 0; j < 64; ++j) 
....................       { 
....................          glcd_writeByte(GLCD_LEFT, 0xFF*color);  // Turn pixels on or off 
....................          glcd_writeByte(GLCD_RIGHT, 0xFF*color); // Turn pixels on or off 
....................       } 
....................    } 
.................... } 
.................... #endif 
....................  
....................  
.................... // Purpose:    Write a byte of data to the specified chip 
.................... // Inputs:     1) chipSelect - which chip to write the data to 
.................... //             2) data - the byte of data to write 
.................... void glcd_writeByte(int1 side, BYTE data) 
.................... { 
....................    if(side)                   // Choose which side to write to 
*
0153C:  MOVLB  5
0153E:  MOVF   xE3,F
01540:  BZ    1548
....................       output_high(GLCD_CS2); 
01542:  BCF    F93.3
01544:  BSF    F8A.3
....................    else 
01546:  BRA    154C
....................       output_high(GLCD_CS1); 
01548:  BCF    F93.2
0154A:  BSF    F8A.2
....................  
....................    output_low(GLCD_RW);       // Set for writing 
0154C:  BCF    F93.6
0154E:  BCF    F8A.6
....................    output_d(data);            // Put the data on the port 
01550:  CLRF   F95
01552:  MOVFF  5E4,F8C
....................    delay_cycles(1); 
01556:  NOP   
....................    output_high(GLCD_E);       // Pulse the enable pin 
01558:  BCF    F93.7
0155A:  BSF    F8A.7
....................    delay_cycles(5); 
0155C:  BRA    155E
0155E:  BRA    1560
01560:  NOP   
....................    output_low(GLCD_E); 
01562:  BCF    F93.7
01564:  BCF    F8A.7
....................  
....................    output_low(GLCD_CS1);      // Reset the chip select lines 
01566:  BCF    F93.2
01568:  BCF    F8A.2
....................    output_low(GLCD_CS2); 
0156A:  BCF    F93.3
0156C:  BCF    F8A.3
.................... } 
0156E:  MOVLB  0
01570:  RETLW  00
....................  
....................  
.................... // Purpose:    Reads a byte of data from the specified chip 
.................... // Ouputs:     A byte of data read from the chip 
.................... BYTE glcd_readByte(int1 side) 
.................... { 
....................    BYTE data;                 // Stores the data read from the LCD 
....................  
....................    set_tris_d(0xFF);          // Set port d to input 
....................    output_high(GLCD_RW);      // Set for reading 
....................  
....................    if(side)                   // Choose which side to write to 
....................       output_high(GLCD_CS2); 
....................    else 
....................       output_high(GLCD_CS1); 
....................  
....................    delay_cycles(1); 
....................    output_high(GLCD_E);       // Pulse the enable pin 
....................    delay_cycles(4); 
....................    data = input_d();          // Get the data from the display's output register 
....................    output_low(GLCD_E); 
....................  
....................    output_low(GLCD_CS1);      // Reset the chip select lines 
....................    output_low(GLCD_CS2); 
....................    return data;               // Return the read data 
.................... } 
....................  
.................... #endif 
....................  
.................... #include "GRAPHICS.c" 
.................... ///////////////////////////////////////////////////////////////////////// 
.................... ////                          graphics.c                             //// 
.................... ////                                                                 //// 
.................... ////   This file contains functions to draw lines, rectangles, bars, //// 
.................... ////   circles and text to a display. A function which draws a       //// 
.................... ////   single pixel must be defined before calling the functions in  //// 
.................... ////   this file. Call it glcd_pixel(x, y, color) where x is the     //// 
.................... ////   horizontal coordinate, y is the vertical coordinate, and      //// 
.................... ////   color is 1 bit to turn the pixel on or off.                   //// 
.................... ////                                                                 //// 
.................... ////   * Note: (0, 0) is treated as the upper left corner            //// 
.................... ////                                                                 //// 
.................... ///////////////////////////////////////////////////////////////////////// 
.................... ////                                                                 //// 
.................... ////  glcd_line(x1, y1, x2, y2, color)                               //// 
.................... ////     * Draws a line from the first point to the second point     //// 
.................... ////       with the given color                                      //// 
.................... ////       - color can be ON or OFF                                  //// 
.................... ////                                                                 //// 
.................... ////  glcd_rect(x1, y1, x2, y2, fill, color)                         //// 
.................... ////     * Draws a rectangle with one corner at point (x1,y1) and    //// 
.................... ////       the other corner at point (x2,y2)                         //// 
.................... ////       - fill can be YES or NO                                   //// 
.................... ////       - color can be ON or OFF                                  //// 
.................... ////                                                                 //// 
.................... ////  glcd_bar(x1, y1, x2, y2, width, color)                         //// 
.................... ////     * Draws a bar (wide line) from the first point to the       //// 
.................... ////       second point                                              //// 
.................... ////       - width is the number of pixels wide                      //// 
.................... ////       - color is ON or OFF                                      //// 
.................... ////                                                                 //// 
.................... ////  glcd_circle(x, y, radius, fill, color)                         //// 
.................... ////     * Draws a circle with center at (x,y)                       //// 
.................... ////       - fill can be YES or NO                                   //// 
.................... ////       - color can be ON or OFF                                  //// 
.................... ////                                                                 //// 
.................... ////  glcd_text57(x, y, textptr, size, color)                        //// 
.................... ////     * Write the null terminated text pointed to by textptr with //// 
.................... ////       the upper left coordinate of the first character at (x,y) //// 
.................... ////       Characters are 5 pixels wide and 7 pixels tall            //// 
.................... ////       - size is an integer that scales the size of the text     //// 
.................... ////       - color is ON or OFF                                      //// 
.................... ////     * Note - This function wraps characters to the next line    //// 
.................... ////              use #define GLCD_WIDTH to specify a display width  //// 
.................... ////                                                                 //// 
.................... ///////////////////////////////////////////////////////////////////////// 
.................... ////        (C) Copyright 1996, 2004 Custom Computer Services        //// 
.................... //// This source code may only be used by licensed users of the CCS  //// 
.................... //// C compiler.  This source code may only be distributed to other  //// 
.................... //// licensed users of the CCS C compiler.  No other use,            //// 
.................... //// reproduction or distribution is permitted without written       //// 
.................... //// permission.  Derivative programs created using this software    //// 
.................... //// in object code form are not restricted in any way.              //// 
.................... ///////////////////////////////////////////////////////////////////////// 
....................  
....................  
.................... ///////////////////////////////////////////////////////////////////////// 
.................... #ifndef GRAPHICS_DRAWING_FUNCTIONS 
.................... #define GRAPHICS_DRAWING_FUNCTIONS 
.................... ///////////////////////////////////////////////////////////////////////// 
....................  
....................  
.................... ///////////////////////////////////////////////////////////////////////// 
.................... #ifndef ON 
.................... #define ON  1 
.................... #endif 
....................  
.................... #ifndef OFF 
.................... #define OFF 0 
.................... #endif 
....................  
.................... #ifndef YES 
.................... #define YES 1 
.................... #endif 
....................  
.................... #ifndef NO 
.................... #define NO  0 
.................... #endif 
.................... ///////////////////////////////////////////////////////////////////////// 
....................  
....................  
.................... ///////////////////////////////////////////////////////////////////////// 
.................... //// Defines a 5x7 font 
.................... ///////////////////////////////////////////////////////////////////////// 
.................... const int8 FONT[51][5] ={0x00, 0x00, 0x00, 0x00, 0x00, // SPACE 
....................                          0x00, 0x00, 0x5F, 0x00, 0x00, // ! 
....................                          0x00, 0x03, 0x00, 0x03, 0x00, // " 
....................                          0x14, 0x3E, 0x14, 0x3E, 0x14, // # 
....................                          0x24, 0x2A, 0x7F, 0x2A, 0x12, // $ 
....................                          0x43, 0x33, 0x08, 0x66, 0x61, // % 
....................                          0x36, 0x49, 0x55, 0x22, 0x50, // & 
....................                          0x00, 0x05, 0x03, 0x00, 0x00, // ' 
....................                          0x00, 0x1C, 0x22, 0x41, 0x00, // ( 
....................                          0x00, 0x41, 0x22, 0x1C, 0x00, // ) 
....................                          0x14, 0x08, 0x3E, 0x08, 0x14, // * 
....................                          0x08, 0x08, 0x3E, 0x08, 0x08, // + 
....................                          0x00, 0x50, 0x30, 0x00, 0x00, // , 
....................                          0x08, 0x08, 0x08, 0x08, 0x08, // - 
....................                          0x00, 0x60, 0x60, 0x00, 0x00, // . 
....................                          0x20, 0x10, 0x08, 0x04, 0x02, // / 
....................                          0x3E, 0x51, 0x49, 0x45, 0x3E, // 0 
....................                          0x00, 0x04, 0x02, 0x7F, 0x00, // 1 
....................                          0x42, 0x61, 0x51, 0x49, 0x46, // 2 
....................                          0x22, 0x41, 0x49, 0x49, 0x36, // 3 
....................                          0x18, 0x14, 0x12, 0x7F, 0x10, // 4 
....................                          0x27, 0x45, 0x45, 0x45, 0x39, // 5 
....................                          0x3E, 0x49, 0x49, 0x49, 0x32, // 6 
....................                          0x01, 0x01, 0x71, 0x09, 0x07, // 7 
....................                          0x36, 0x49, 0x49, 0x49, 0x36, // 8 
....................                          0x26, 0x49, 0x49, 0x49, 0x3E, // 9 
....................                          0x00, 0x36, 0x36, 0x00, 0x00, // : 
....................                          0x00, 0x56, 0x36, 0x00, 0x00, // ; 
....................                          0x08, 0x14, 0x22, 0x41, 0x00, // < 
....................                          0x14, 0x14, 0x14, 0x14, 0x14, // = 
....................                          0x00, 0x41, 0x22, 0x14, 0x08, // > 
....................                          0x02, 0x01, 0x51, 0x09, 0x06, // ? 
....................                          0x3E, 0x41, 0x59, 0x55, 0x5E, // @ 
....................                          0x7E, 0x09, 0x09, 0x09, 0x7E, // A 
....................                          0x7F, 0x49, 0x49, 0x49, 0x36, // B 
....................                          0x3E, 0x41, 0x41, 0x41, 0x22, // C 
....................                          0x7F, 0x41, 0x41, 0x41, 0x3E, // D 
....................                          0x7F, 0x49, 0x49, 0x49, 0x41, // E 
....................                          0x7F, 0x09, 0x09, 0x09, 0x01, // F 
....................                          0x3E, 0x41, 0x41, 0x49, 0x3A, // G 
....................                          0x7F, 0x08, 0x08, 0x08, 0x7F, // H 
....................                          0x00, 0x41, 0x7F, 0x41, 0x00, // I 
....................                          0x30, 0x40, 0x40, 0x40, 0x3F, // J 
....................                          0x7F, 0x08, 0x14, 0x22, 0x41, // K 
....................                          0x7F, 0x40, 0x40, 0x40, 0x40, // L 
....................                          0x7F, 0x02, 0x0C, 0x02, 0x7F, // M 
....................                          0x7F, 0x02, 0x04, 0x08, 0x7F, // N 
....................                          0x3E, 0x41, 0x41, 0x41, 0x3E, // O 
....................                          0x7F, 0x09, 0x09, 0x09, 0x06, // P 
....................                          0x1E, 0x21, 0x21, 0x21, 0x5E, // Q 
....................                          0x7F, 0x09, 0x09, 0x09, 0x76};// R 
....................  
.................... const int8 FONT2[44][5]={0x26, 0x49, 0x49, 0x49, 0x32, // S 
....................                          0x01, 0x01, 0x7F, 0x01, 0x01, // T 
....................                          0x3F, 0x40, 0x40, 0x40, 0x3F, // U 
....................                          0x1F, 0x20, 0x40, 0x20, 0x1F, // V 
....................                          0x7F, 0x20, 0x10, 0x20, 0x7F, // W 
....................                          0x41, 0x22, 0x1C, 0x22, 0x41, // X 
....................                          0x07, 0x08, 0x70, 0x08, 0x07, // Y 
....................                          0x61, 0x51, 0x49, 0x45, 0x43, // Z 
....................                          0x00, 0x7F, 0x41, 0x00, 0x00, // [ 
....................                          0x02, 0x04, 0x08, 0x10, 0x20, // \ 
....................                          0x00, 0x00, 0x41, 0x7F, 0x00, // ] 
....................                          0x04, 0x02, 0x01, 0x02, 0x04, // ^ 
....................                          0x40, 0x40, 0x40, 0x40, 0x40, // _ 
....................                          0x00, 0x01, 0x02, 0x04, 0x00, // ` 
....................                          0x20, 0x54, 0x54, 0x54, 0x78, // a 
....................                          0x7F, 0x44, 0x44, 0x44, 0x38, // b 
....................                          0x38, 0x44, 0x44, 0x44, 0x44, // c 
....................                          0x38, 0x44, 0x44, 0x44, 0x7F, // d 
....................                          0x38, 0x54, 0x54, 0x54, 0x18, // e 
....................                          0x04, 0x04, 0x7E, 0x05, 0x05, // f 
....................                          0x08, 0x54, 0x54, 0x54, 0x3C, // g 
....................                          0x7F, 0x08, 0x04, 0x04, 0x78, // h 
....................                          0x00, 0x44, 0x7D, 0x40, 0x00, // i 
....................                          0x20, 0x40, 0x44, 0x3D, 0x00, // j 
....................                          0x7F, 0x10, 0x28, 0x44, 0x00, // k 
....................                          0x00, 0x41, 0x7F, 0x40, 0x00, // l 
....................                          0x7C, 0x04, 0x78, 0x04, 0x78, // m 
....................                          0x7C, 0x08, 0x04, 0x04, 0x78, // n 
....................                          0x38, 0x44, 0x44, 0x44, 0x38, // o 
....................                          0x7C, 0x14, 0x14, 0x14, 0x08, // p 
....................                          0x08, 0x14, 0x14, 0x14, 0x7C, // q 
....................                          0x00, 0x7C, 0x08, 0x04, 0x04, // r 
....................                          0x48, 0x54, 0x54, 0x54, 0x20, // s 
....................                          0x04, 0x04, 0x3F, 0x44, 0x44, // t 
....................                          0x3C, 0x40, 0x40, 0x20, 0x7C, // u 
....................                          0x1C, 0x20, 0x40, 0x20, 0x1C, // v 
....................                          0x3C, 0x40, 0x30, 0x40, 0x3C, // w 
....................                          0x44, 0x28, 0x10, 0x28, 0x44, // x 
....................                          0x0C, 0x50, 0x50, 0x50, 0x3C, // y 
....................                          0x44, 0x64, 0x54, 0x4C, 0x44, // z 
....................                          0x00, 0x08, 0x36, 0x41, 0x41, // { 
....................                          0x00, 0x00, 0x7F, 0x00, 0x00, // | 
....................                          0x41, 0x41, 0x36, 0x08, 0x00, // } 
....................                          0x02, 0x01, 0x02, 0x04, 0x02};// ~ 
.................... ///////////////////////////////////////////////////////////////////////// 
....................  
....................  
.................... ///////////////////////////////////////////////////////////////////////// 
.................... // Purpose:       Draw a line on a graphic LCD using Bresenham's 
.................... //                line drawing algorithm 
.................... // Inputs:        (x1, y1) - the start coordinate 
.................... //                (x2, y2) - the end coordinate 
.................... //                color - ON or OFF 
.................... // Dependencies:  glcd_pixel() 
.................... ///////////////////////////////////////////////////////////////////////// 
.................... #ifdef LARGE_LCD 
.................... void glcd_line(int16 x1, int16 y1, int16 x2, int16 y2, int1 color) 
.................... #else 
.................... void glcd_line(int8 x1, int8 y1, int8 x2, int8 y2, int1 color) 
.................... #endif 
.................... { 
*
047B6:  MOVLW  01
047B8:  MOVLB  6
047BA:  MOVWF  x01
047BC:  MOVWF  x02
047BE:  CLRF   x07
....................    int16        dy, dx; 
....................    signed int8  addx=1, addy=1; 
....................    signed int16 P, diff; 
....................  
....................    #ifdef LARGE_LCD 
....................    int16 i=0; 
....................    dx = abs((signed int16)(x2 - x1)); 
....................    dy = abs((signed int16)(y2 - y1)); 
....................    #else 
....................    int8 i=0; 
....................    dx = abs((signed int8)(x2 - x1)); 
047C0:  MOVLB  5
047C2:  MOVF   xF8,W
047C4:  SUBWF  xFA,W
047C6:  MOVLB  6
047C8:  MOVWF  x08
047CA:  MOVF   x08,W
047CC:  BTFSS  x08.7
047CE:  BRA    47D6
047D0:  MOVLW  00
047D2:  BSF    FD8.0
047D4:  SUBFWB x08,W
047D6:  CLRF   03
047D8:  MOVLB  5
047DA:  MOVWF  xFF
047DC:  MOVFF  03,600
....................    dy = abs((signed int8)(y2 - y1)); 
047E0:  MOVF   xF9,W
047E2:  SUBWF  xFB,W
047E4:  MOVLB  6
047E6:  MOVWF  x08
047E8:  MOVF   x08,W
047EA:  BTFSS  x08.7
047EC:  BRA    47F4
047EE:  MOVLW  00
047F0:  BSF    FD8.0
047F2:  SUBFWB x08,W
047F4:  CLRF   03
047F6:  MOVLB  5
047F8:  MOVWF  xFD
047FA:  MOVFF  03,5FE
....................    #endif 
....................  
....................    if(x1 > x2) 
047FE:  MOVF   xF8,W
04800:  SUBWF  xFA,W
04802:  BC    480C
....................       addx = -1; 
04804:  MOVLW  FF
04806:  MOVLB  6
04808:  MOVWF  x01
0480A:  MOVLB  5
....................    if(y1 > y2) 
0480C:  MOVF   xF9,W
0480E:  SUBWF  xFB,W
04810:  BC    481A
....................       addy = -1; 
04812:  MOVLW  FF
04814:  MOVLB  6
04816:  MOVWF  x02
04818:  MOVLB  5
....................  
....................    if(dx >= dy) 
0481A:  MOVF   xFE,W
0481C:  MOVLB  6
0481E:  SUBWF  x00,W
04820:  BNC   48CA
04822:  BNZ   4834
04824:  MOVLB  5
04826:  MOVF   xFD,W
04828:  SUBWF  xFF,W
0482A:  BTFSC  FD8.0
0482C:  BRA    4832
0482E:  MOVLB  6
04830:  BRA    48CA
04832:  MOVLB  6
....................    { 
....................       dy *= 2; 
04834:  BCF    FD8.0
04836:  MOVLB  5
04838:  RLCF   xFD,F
0483A:  RLCF   xFE,F
....................       P = dy - dx; 
0483C:  MOVF   xFF,W
0483E:  SUBWF  xFD,W
04840:  MOVWF  00
04842:  MOVLB  6
04844:  MOVF   x00,W
04846:  MOVLB  5
04848:  SUBWFB xFE,W
0484A:  MOVFF  00,603
0484E:  MOVLB  6
04850:  MOVWF  x04
....................       diff = P - dx; 
04852:  MOVLB  5
04854:  MOVF   xFF,W
04856:  MOVLB  6
04858:  SUBWF  x03,W
0485A:  MOVWF  x05
0485C:  MOVF   x00,W
0485E:  SUBWFB x04,W
04860:  MOVWF  x06
....................  
....................       for(; i<=dx; ++i) 
04862:  MOVF   x00,F
04864:  BNZ   4870
04866:  MOVF   x07,W
04868:  MOVLB  5
0486A:  SUBWF  xFF,W
0486C:  BNC   48C6
0486E:  MOVLB  6
....................       { 
....................          glcd_pixel(x1, y1, color); 
04870:  MOVFF  5F8,608
04874:  MOVFF  5F9,609
04878:  MOVFF  5FC,60A
0487C:  MOVLB  0
0487E:  RCALL  46FA
....................  
....................          if(P < 0) 
04880:  MOVLB  6
04882:  BTFSC  x04.7
04884:  BRA    4888
04886:  BRA    48A4
....................          { 
....................             P  += dy; 
04888:  MOVLB  5
0488A:  MOVF   xFD,W
0488C:  MOVLB  6
0488E:  ADDWF  x03,F
04890:  MOVLB  5
04892:  MOVF   xFE,W
04894:  MOVLB  6
04896:  ADDWFC x04,F
....................             x1 += addx; 
04898:  MOVF   x01,W
0489A:  MOVLB  5
0489C:  ADDWF  xF8,W
0489E:  MOVWF  xF8
....................          } 
....................          else 
048A0:  BRA    48BE
048A2:  MOVLB  6
....................          { 
....................             P  += diff; 
048A4:  MOVF   x05,W
048A6:  ADDWF  x03,F
048A8:  MOVF   x06,W
048AA:  ADDWFC x04,F
....................             x1 += addx; 
048AC:  MOVF   x01,W
048AE:  MOVLB  5
048B0:  ADDWF  xF8,W
048B2:  MOVWF  xF8
....................             y1 += addy; 
048B4:  MOVLB  6
048B6:  MOVF   x02,W
048B8:  MOVLB  5
048BA:  ADDWF  xF9,W
048BC:  MOVWF  xF9
....................          } 
....................       } 
048BE:  MOVLB  6
048C0:  INCF   x07,F
048C2:  BRA    4862
048C4:  MOVLB  5
....................    } 
....................    else 
048C6:  BRA    495E
048C8:  MOVLB  6
....................    { 
....................       dx *= 2; 
048CA:  BCF    FD8.0
048CC:  MOVLB  5
048CE:  RLCF   xFF,F
048D0:  MOVLB  6
048D2:  RLCF   x00,F
....................       P = dx - dy; 
048D4:  MOVLB  5
048D6:  MOVF   xFD,W
048D8:  SUBWF  xFF,W
048DA:  MOVWF  00
048DC:  MOVF   xFE,W
048DE:  MOVLB  6
048E0:  SUBWFB x00,W
048E2:  MOVFF  00,603
048E6:  MOVWF  x04
....................       diff = P - dy; 
048E8:  MOVLB  5
048EA:  MOVF   xFD,W
048EC:  MOVLB  6
048EE:  SUBWF  x03,W
048F0:  MOVWF  x05
048F2:  MOVLB  5
048F4:  MOVF   xFE,W
048F6:  MOVLB  6
048F8:  SUBWFB x04,W
048FA:  MOVWF  x06
....................  
....................       for(; i<=dy; ++i) 
048FC:  MOVLB  5
048FE:  MOVF   xFE,F
04900:  BNZ   490C
04902:  MOVLB  6
04904:  MOVF   x07,W
04906:  MOVLB  5
04908:  SUBWF  xFD,W
0490A:  BNC   495E
....................       { 
....................          glcd_pixel(x1, y1, color); 
0490C:  MOVFF  5F8,608
04910:  MOVFF  5F9,609
04914:  MOVFF  5FC,60A
04918:  MOVLB  0
0491A:  RCALL  46FA
....................  
....................          if(P < 0) 
0491C:  MOVLB  6
0491E:  BTFSC  x04.7
04920:  BRA    4924
04922:  BRA    493C
....................          { 
....................             P  += dx; 
04924:  MOVLB  5
04926:  MOVF   xFF,W
04928:  MOVLB  6
0492A:  ADDWF  x03,F
0492C:  MOVF   x00,W
0492E:  ADDWFC x04,F
....................             y1 += addy; 
04930:  MOVF   x02,W
04932:  MOVLB  5
04934:  ADDWF  xF9,W
04936:  MOVWF  xF9
....................          } 
....................          else 
04938:  BRA    4956
0493A:  MOVLB  6
....................          { 
....................             P  += diff; 
0493C:  MOVF   x05,W
0493E:  ADDWF  x03,F
04940:  MOVF   x06,W
04942:  ADDWFC x04,F
....................             x1 += addx; 
04944:  MOVF   x01,W
04946:  MOVLB  5
04948:  ADDWF  xF8,W
0494A:  MOVWF  xF8
....................             y1 += addy; 
0494C:  MOVLB  6
0494E:  MOVF   x02,W
04950:  MOVLB  5
04952:  ADDWF  xF9,W
04954:  MOVWF  xF9
....................          } 
....................       } 
04956:  MOVLB  6
04958:  INCF   x07,F
0495A:  BRA    48FC
0495C:  MOVLB  5
....................    } 
.................... } 
0495E:  MOVLB  0
04960:  RETLW  00
....................  
....................  
.................... ///////////////////////////////////////////////////////////////////////// 
.................... // Purpose:       Draw a rectangle on a graphic LCD 
.................... // Inputs:        (x1, y1) - the start coordinate 
.................... //                (x2, y2) - the end coordinate 
.................... //                fill  - YES or NO 
.................... //                color - ON or OFF 
.................... // Dependencies:  glcd_pixel(), glcd_line() 
.................... ///////////////////////////////////////////////////////////////////////// 
.................... #ifdef LARGE_LCD 
.................... void glcd_rect(int16 x1, int16 y1, int16 x2, int16 y2, int1 fill, int1 color) 
.................... #else 
.................... void glcd_rect(int8 x1, int8 y1, int8 x2, int8 y2, int1 fill, int1 color) 
.................... #endif 
.................... { 
....................    if(fill) 
04962:  MOVLB  5
04964:  MOVF   xF1,F
04966:  BZ    49C4
....................    { 
....................       #ifdef LARGE_LCD 
....................       int16 i, xmin, xmax, ymin, ymax; 
....................       #else 
....................       int8  i, xmin, xmax, ymin, ymax; 
....................       #endif 
....................  
....................       if(x1 < x2)                            //  Find x min and max 
04968:  MOVF   xEF,W
0496A:  SUBWF  xED,W
0496C:  BC    4978
....................       { 
....................          xmin = x1; 
0496E:  MOVFF  5ED,5F4
....................          xmax = x2; 
04972:  MOVFF  5EF,5F5
....................       } 
....................       else 
04976:  BRA    4980
....................       { 
....................          xmin = x2; 
04978:  MOVFF  5EF,5F4
....................          xmax = x1; 
0497C:  MOVFF  5ED,5F5
....................       } 
....................  
....................       if(y1 < y2)                            // Find the y min and max 
04980:  MOVF   xF0,W
04982:  SUBWF  xEE,W
04984:  BC    4990
....................       { 
....................          ymin = y1; 
04986:  MOVFF  5EE,5F6
....................          ymax = y2; 
0498A:  MOVFF  5F0,5F7
....................       } 
....................       else 
0498E:  BRA    4998
....................       { 
....................          ymin = y2; 
04990:  MOVFF  5F0,5F6
....................          ymax = y1; 
04994:  MOVFF  5EE,5F7
....................       } 
....................  
....................       for(; xmin <= xmax; ++xmin) 
04998:  MOVF   xF4,W
0499A:  SUBWF  xF5,W
0499C:  BNC   49C2
....................       { 
....................          for(i=ymin; i<=ymax; ++i) 
0499E:  MOVFF  5F6,5F3
049A2:  MOVF   xF3,W
049A4:  SUBWF  xF7,W
049A6:  BNC   49BE
....................          { 
....................             glcd_pixel(xmin, i, color); 
049A8:  MOVFF  5F4,608
049AC:  MOVFF  5F3,609
049B0:  MOVFF  5F2,60A
049B4:  MOVLB  0
049B6:  RCALL  46FA
....................          } 
049B8:  MOVLB  5
049BA:  INCF   xF3,F
049BC:  BRA    49A2
....................       } 
049BE:  INCF   xF4,F
049C0:  BRA    4998
....................    } 
....................    else 
049C2:  BRA    4A20
....................    { 
....................       glcd_line(x1, y1, x2, y1, color);      // Draw the 4 sides 
049C4:  MOVFF  5ED,5F8
049C8:  MOVFF  5EE,5F9
049CC:  MOVFF  5EF,5FA
049D0:  MOVFF  5EE,5FB
049D4:  MOVFF  5F2,5FC
049D8:  MOVLB  0
049DA:  RCALL  47B6
....................       glcd_line(x1, y2, x2, y2, color); 
049DC:  MOVFF  5ED,5F8
049E0:  MOVFF  5F0,5F9
049E4:  MOVFF  5EF,5FA
049E8:  MOVFF  5F0,5FB
049EC:  MOVFF  5F2,5FC
049F0:  RCALL  47B6
....................       glcd_line(x1, y1, x1, y2, color); 
049F2:  MOVFF  5ED,5F8
049F6:  MOVFF  5EE,5F9
049FA:  MOVFF  5ED,5FA
049FE:  MOVFF  5F0,5FB
04A02:  MOVFF  5F2,5FC
04A06:  RCALL  47B6
....................       glcd_line(x2, y1, x2, y2, color); 
04A08:  MOVFF  5EF,5F8
04A0C:  MOVFF  5EE,5F9
04A10:  MOVFF  5EF,5FA
04A14:  MOVFF  5F0,5FB
04A18:  MOVFF  5F2,5FC
04A1C:  RCALL  47B6
04A1E:  MOVLB  5
....................    } 
.................... } 
04A20:  MOVLB  0
04A22:  RETLW  00
....................  
.................... ///////////////////////////////////////////////////////////////////////// 
.................... // Purpose:       Draw a bar (wide line) on a graphic LCD 
.................... // Inputs:        (x1, y1) - the start coordinate 
.................... //                (x2, y2) - the end coordinate 
.................... //                width  - The number of pixels wide 
.................... //                color - ON or OFF 
.................... ///////////////////////////////////////////////////////////////////////// 
.................... #ifdef LARGE_LCD 
.................... void glcd_bar(int16 x1, int16 y1, int16 x2, int16 y2, int8 width, int1 color) 
.................... #else 
.................... void glcd_bar(int8 x1, int8 y1, int8 x2, int8 y2, int8 width, int1 color) 
.................... #endif 
.................... { 
....................    int8         half_width; 
....................    signed int16 dy, dx; 
....................    signed int8  addx=1, addy=1, j; 
....................    signed int16 P, diff, c1, c2; 
....................  
....................    #ifdef LARGE_LCD 
....................    int16 i=0; 
....................    dx = abs((signed int16)(x2 - x1)); 
....................    dy = abs((signed int16)(y2 - y1)); 
....................    #else 
....................    int8 i=0; 
....................    dx = abs((signed int8)(x2 - x1)); 
....................    dy = abs((signed int8)(y2 - y1)); 
....................    #endif 
....................  
....................    half_width = width/2; 
....................    c1 = -(dx*x1 + dy*y1); 
....................    c2 = -(dx*x2 + dy*y2); 
....................  
....................    if(x1 > x2) 
....................    { 
....................       signed int16 temp; 
....................       temp = c1; 
....................       c1 = c2; 
....................       c2 = temp; 
....................       addx = -1; 
....................    } 
....................    if(y1 > y2) 
....................    { 
....................       signed int16 temp; 
....................       temp = c1; 
....................       c1 = c2; 
....................       c2 = temp; 
....................       addy = -1; 
....................    } 
....................  
....................    if(dx >= dy) 
....................    { 
....................       P = 2*dy - dx; 
....................       diff = P - dx; 
....................  
....................       for(i=0; i<=dx; ++i) 
....................       { 
....................          for(j=-half_width; j<half_width+width%2; ++j) 
....................          { 
....................             #ifdef LARGE_LCD 
....................             int16 temp; 
....................             #else 
....................             int8 temp; 
....................             #endif 
....................  
....................             temp = dx*x1+dy*(y1+j);    // Use more RAM to increase speed 
....................             if(temp+c1 >= 0 && temp+c2 <=0) 
....................                glcd_pixel(x1, y1+j, color); 
....................          } 
....................          if(P < 0) 
....................          { 
....................             P  += 2*dy; 
....................             x1 += addx; 
....................          } 
....................          else 
....................          { 
....................             P  += diff; 
....................             x1 += addx; 
....................             y1 += addy; 
....................          } 
....................       } 
....................    } 
....................    else 
....................    { 
....................       P = 2*dx - dy; 
....................       diff = P - dy; 
....................  
....................       for(i=0; i<=dy; ++i) 
....................       { 
....................          if(P < 0) 
....................          { 
....................             P  += 2*dx; 
....................             y1 += addy; 
....................          } 
....................          else 
....................          { 
....................             P  += diff; 
....................             x1 += addx; 
....................             y1 += addy; 
....................          } 
....................          for(j=-half_width; j<half_width+width%2; ++j) 
....................          { 
....................             #ifdef LARGE_LCD 
....................             int16 temp; 
....................             #else 
....................             int8 temp; 
....................             #endif 
....................  
....................             temp = dx*x1+dy*(y1+j);    // Use more RAM to increase speed 
....................             if(temp+c1 >= 0 && temp+c2 <=0) 
....................                glcd_pixel(x1+j, y1, color); 
....................          } 
....................       } 
....................    } 
.................... } 
....................  
....................  
.................... ///////////////////////////////////////////////////////////////////////// 
.................... // Purpose:       Draw a circle on a graphic LCD 
.................... // Inputs:        (x,y) - the center of the circle 
.................... //                radius - the radius of the circle 
.................... //                fill - YES or NO 
.................... //                color - ON or OFF 
.................... ///////////////////////////////////////////////////////////////////////// 
.................... #ifdef LARGE_LCD 
.................... void glcd_circle(int16 x, int16 y, int16 radius, int1 fill, int1 color) 
.................... #else 
.................... void glcd_circle(int8 x, int8 y, int8 radius, int1 fill, int1 color) 
.................... #endif 
.................... { 
....................    #ifdef LARGE_LCD 
....................    signed int16 a, b, P; 
....................    #else 
....................    signed int8  a, b, P; 
....................    #endif 
....................  
....................    a = 0; 
....................    b = radius; 
....................    P = 1 - radius; 
....................  
....................    do 
....................    { 
....................       if(fill) 
....................       { 
....................          glcd_line(x-a, y+b, x+a, y+b, color); 
....................          glcd_line(x-a, y-b, x+a, y-b, color); 
....................          glcd_line(x-b, y+a, x+b, y+a, color); 
....................          glcd_line(x-b, y-a, x+b, y-a, color); 
....................       } 
....................       else 
....................       { 
....................          glcd_pixel(a+x, b+y, color); 
....................          glcd_pixel(b+x, a+y, color); 
....................          glcd_pixel(x-a, b+y, color); 
....................          glcd_pixel(x-b, a+y, color); 
....................          glcd_pixel(b+x, y-a, color); 
....................          glcd_pixel(a+x, y-b, color); 
....................          glcd_pixel(x-a, y-b, color); 
....................          glcd_pixel(x-b, y-a, color); 
....................       } 
....................  
....................       if(P < 0) 
....................          P += 3 + 2 * a++; 
....................       else 
....................          P += 5 + 2 * (a++ - b--); 
....................     } while(a <= b); 
.................... } 
....................  
....................  
.................... ///////////////////////////////////////////////////////////////////////// 
.................... // Purpose:       Write text on a graphic LCD 
.................... // Inputs:        (x,y) - The upper left coordinate of the first letter 
.................... //                textptr - A pointer to an array of text to display 
.................... //                size - The size of the text: 1 = 5x7, 2 = 10x14, ... 
.................... //                color - ON or OFF 
.................... ///////////////////////////////////////////////////////////////////////// 
.................... #ifdef LARGE_LCD 
.................... void glcd_text57(int16 x, int16 y, char* textptr, int8 size, int1 color) 
.................... #else 
.................... void glcd_text57(int8 x, int8 y, char* textptr, int8 size, int1 color) 
.................... #endif 
.................... { 
....................    int8 j, k, l, m;                       // Loop counters 
....................    int8 pixelData[5];                     // Stores character data 
....................  
....................    for(; *textptr != '\0'; ++textptr, ++x)// Loop through the passed string 
04A24:  MOVFF  5F0,03
04A28:  MOVLB  5
04A2A:  MOVFF  5EF,FE9
04A2E:  MOVFF  5F0,FEA
04A32:  MOVF   FEF,F
04A34:  BTFSC  FD8.2
04A36:  BRA    4BE2
....................    { 
....................       if(*textptr < 'S') // Checks if the letter is in the first font array 
04A38:  MOVFF  5F0,03
04A3C:  MOVFF  5EF,FE9
04A40:  MOVFF  5F0,FEA
04A44:  MOVF   FEF,W
04A46:  SUBLW  52
04A48:  BNC   4A9C
....................          memcpy(pixelData, FONT[*textptr - ' '], 5); 
04A4A:  MOVFF  5F0,03
04A4E:  MOVFF  5EF,FE9
04A52:  MOVFF  5F0,FEA
04A56:  MOVLW  20
04A58:  SUBWF  FEF,W
04A5A:  MULLW  05
04A5C:  MOVF   FF3,W
04A5E:  CLRF   03
04A60:  MOVWF  xFC
04A62:  MOVLW  05
04A64:  MOVWF  FEA
04A66:  MOVLW  F7
04A68:  MOVWF  FE9
04A6A:  MOVLB  6
04A6C:  CLRF   x00
04A6E:  MOVFF  5FC,5FF
04A72:  MOVFF  FF2,5FD
04A76:  BCF    FF2.7
04A78:  MOVLW  05
04A7A:  MOVWF  01
04A7C:  CLRF   FF7
04A7E:  MOVLB  5
04A80:  MOVF   xFC,W
04A82:  MOVLB  0
04A84:  CALL   0096
04A88:  TBLRD*-
04A8A:  TBLRD*+
04A8C:  MOVFF  FF5,FEE
04A90:  DECFSZ 01,F
04A92:  BRA    4A8A
04A94:  MOVLB  5
04A96:  BTFSC  xFD.7
04A98:  BSF    FF2.7
....................       else if(*textptr <= '~') // Check if the letter is in the second font array 
04A9A:  BRA    4B0A
04A9C:  MOVFF  5F0,03
04AA0:  MOVFF  5EF,FE9
04AA4:  MOVFF  5F0,FEA
04AA8:  MOVF   FEF,W
04AAA:  SUBLW  7E
04AAC:  BNC   4B00
....................          memcpy(pixelData, FONT2[*textptr - 'S'], 5); 
04AAE:  MOVFF  5F0,03
04AB2:  MOVFF  5EF,FE9
04AB6:  MOVFF  5F0,FEA
04ABA:  MOVLW  53
04ABC:  SUBWF  FEF,W
04ABE:  MULLW  05
04AC0:  MOVF   FF3,W
04AC2:  CLRF   03
04AC4:  MOVWF  xFC
04AC6:  MOVLW  05
04AC8:  MOVWF  FEA
04ACA:  MOVLW  F7
04ACC:  MOVWF  FE9
04ACE:  MOVLB  6
04AD0:  CLRF   x00
04AD2:  MOVFF  5FC,5FF
04AD6:  MOVFF  FF2,5FD
04ADA:  BCF    FF2.7
04ADC:  MOVLW  05
04ADE:  MOVWF  01
04AE0:  CLRF   FF7
04AE2:  MOVLB  5
04AE4:  MOVF   xFC,W
04AE6:  MOVLB  0
04AE8:  CALL   01B0
04AEC:  TBLRD*-
04AEE:  TBLRD*+
04AF0:  MOVFF  FF5,FEE
04AF4:  DECFSZ 01,F
04AF6:  BRA    4AEE
04AF8:  MOVLB  5
04AFA:  BTFSC  xFD.7
04AFC:  BSF    FF2.7
....................       else 
04AFE:  BRA    4B0A
....................          memcpy(pixelData, FONT[0], 5);   // Default to space 
04B00:  CLRF   xF7
04B02:  CLRF   xF8
04B04:  CLRF   xF9
04B06:  CLRF   xFA
04B08:  CLRF   xFB
....................  
....................       // Handles newline and carriage returns 
....................       switch(*textptr) 
....................       { 
04B0A:  MOVFF  5F0,03
04B0E:  MOVF   xEF,W
04B10:  MOVWF  FE9
04B12:  MOVFF  03,FEA
04B16:  MOVF   FEF,W
04B18:  XORLW  0A
04B1A:  MOVLB  0
04B1C:  BZ    4B24
04B1E:  XORLW  07
04B20:  BZ    4B34
04B22:  BRA    4B3A
....................          case '\n': 
....................             y += 7*size + 1; 
04B24:  MOVLB  5
04B26:  MOVF   xF1,W
04B28:  MULLW  07
04B2A:  MOVF   FF3,W
04B2C:  ADDLW  01
04B2E:  ADDWF  xEE,F
....................             continue; 
04B30:  BRA    4BD4
04B32:  MOVLB  0
....................          case '\r': 
....................             x = 0; 
04B34:  MOVLB  5
04B36:  CLRF   xED
....................             continue; 
04B38:  BRA    4BD4
....................       } 
....................  
....................       if(x+5*size >= GLCD_WIDTH)          // Performs character wrapping 
04B3A:  MOVLB  5
04B3C:  MOVF   xF1,W
04B3E:  MULLW  05
04B40:  MOVF   FF3,W
04B42:  ADDWF  xED,W
04B44:  SUBLW  7F
04B46:  BC    4B54
....................       { 
....................          x = 0;                           // Set x at far left position 
04B48:  CLRF   xED
....................          y += 7*size + 1;                 // Set y at next position down 
04B4A:  MOVF   xF1,W
04B4C:  MULLW  07
04B4E:  MOVF   FF3,W
04B50:  ADDLW  01
04B52:  ADDWF  xEE,F
....................       } 
....................       for(j=0; j<5; ++j, x+=size)         // Loop through character byte data 
04B54:  CLRF   xF3
04B56:  MOVF   xF3,W
04B58:  SUBLW  04
04B5A:  BNC   4BD4
....................       { 
....................          for(k=0; k < 7; ++k)             // Loop through the vertical pixels 
04B5C:  CLRF   xF4
04B5E:  MOVF   xF4,W
04B60:  SUBLW  06
04B62:  BNC   4BCC
....................          { 
....................             if(bit_test(pixelData[j], k)) // Check if the pixel should be set 
04B64:  CLRF   03
04B66:  MOVF   xF3,W
04B68:  ADDLW  F7
04B6A:  MOVWF  FE9
04B6C:  MOVLW  05
04B6E:  ADDWFC 03,W
04B70:  MOVWF  FEA
04B72:  MOVFF  FEF,5FC
04B76:  MOVFF  5FC,00
04B7A:  MOVF   xF4,W
04B7C:  MOVWF  01
04B7E:  BZ    4B88
04B80:  BCF    FD8.0
04B82:  RRCF   00,F
04B84:  DECFSZ 01,F
04B86:  BRA    4B80
04B88:  BTFSS  00.0
04B8A:  BRA    4BC8
....................             { 
....................                for(l=0; l < size; ++l)    // These two loops change the 
04B8C:  CLRF   xF5
04B8E:  MOVF   xF1,W
04B90:  SUBWF  xF5,W
04B92:  BC    4BC8
....................                {                          // character's size 
....................                   for(m=0; m < size; ++m) 
04B94:  CLRF   xF6
04B96:  MOVF   xF1,W
04B98:  SUBWF  xF6,W
04B9A:  BC    4BC4
....................                   { 
....................                      glcd_pixel(x+m, y+k*size+l, color); // Draws the pixel 
04B9C:  MOVF   xF6,W
04B9E:  ADDWF  xED,W
04BA0:  MOVWF  xFC
04BA2:  MOVF   xF4,W
04BA4:  MULWF  xF1
04BA6:  MOVF   FF3,W
04BA8:  ADDWF  xEE,W
04BAA:  ADDWF  xF5,W
04BAC:  MOVWF  xFD
04BAE:  MOVFF  5FC,608
04BB2:  MOVFF  FE8,609
04BB6:  MOVFF  5F2,60A
04BBA:  MOVLB  0
04BBC:  RCALL  46FA
....................                   } 
04BBE:  MOVLB  5
04BC0:  INCF   xF6,F
04BC2:  BRA    4B96
....................                } 
04BC4:  INCF   xF5,F
04BC6:  BRA    4B8E
....................             } 
....................          } 
04BC8:  INCF   xF4,F
04BCA:  BRA    4B5E
....................       } 
04BCC:  INCF   xF3,F
04BCE:  MOVF   xF1,W
04BD0:  ADDWF  xED,F
04BD2:  BRA    4B56
....................    } 
04BD4:  INCF   xEF,F
04BD6:  BTFSC  FD8.2
04BD8:  INCF   xF0,F
04BDA:  INCF   xED,F
04BDC:  MOVLB  0
04BDE:  BRA    4A24
04BE0:  MOVLB  5
.................... } 
04BE2:  MOVLB  0
04BE4:  RETLW  00
....................  
.................... #endif 
....................  
.................... #include "imagen.h" 
.................... const int8 Bombillo [64][16] = { 
.................... 0x00, 0x00, 0x00, 0x00, 0x00, 0x00, 0x00, 0x00, 0x00, 0x00, 0x00, 0x00, 0x00, 0x00, 0x00, 0x00, 
.................... 0x00, 0x00, 0x00, 0x00, 0x00, 0x00, 0x00, 0x00, 0x00, 0x00, 0x00, 0x00, 0x00, 0x00, 0x00, 0x00, 
.................... 0x00, 0x00, 0x00, 0x00, 0x00, 0x00, 0x00, 0x00, 0x00, 0x00, 0x00, 0x00, 0x00, 0x00, 0x00, 0x00, 
.................... 0x00, 0x00, 0x00, 0x00, 0x00, 0x00, 0x00, 0x00, 0x00, 0x00, 0x00, 0x00, 0x00, 0x00, 0x00, 0x00, 
.................... 0x00, 0x00, 0x00, 0x00, 0x00, 0x00, 0x00, 0x00, 0x00, 0x00, 0x00, 0x00, 0x00, 0x00, 0x00, 0x00, 
.................... 0x00, 0x00, 0x00, 0x00, 0x00, 0x00, 0x00, 0x00, 0x00, 0x00, 0x00, 0x00, 0x00, 0x00, 0x00, 0x00, 
.................... 0x00, 0x00, 0x00, 0x00, 0x00, 0x00, 0x00, 0x00, 0x00, 0x00, 0x00, 0x00, 0x00, 0x00, 0x00, 0x00, 
.................... 0x00, 0x00, 0x00, 0x00, 0x00, 0x00, 0x00, 0x00, 0x00, 0x00, 0x00, 0x00, 0x00, 0x00, 0x00, 0x00, 
.................... 0x00, 0x00, 0x00, 0x00, 0x00, 0x00, 0x00, 0x00, 0x00, 0x00, 0x00, 0x00, 0x00, 0x00, 0x00, 0x00, 
.................... 0x00, 0x00, 0x00, 0x00, 0x00, 0x00, 0x00, 0x00, 0x00, 0x00, 0x00, 0x00, 0x00, 0x00, 0x00, 0x00, 
.................... 0x00, 0x00, 0x00, 0x00, 0x00, 0x00, 0x00, 0x00, 0x00, 0x00, 0x00, 0x00, 0x00, 0x00, 0x00, 0x00, 
.................... 0x00, 0x00, 0x00, 0x00, 0x00, 0x00, 0x00, 0x00, 0x00, 0x00, 0x00, 0x00, 0x00, 0x00, 0x00, 0x00, 
.................... 0x00, 0x00, 0x00, 0x00, 0x00, 0x00, 0x00, 0x00, 0x00, 0x00, 0x00, 0x00, 0x00, 0x00, 0x00, 0x00, 
.................... 0x00, 0x00, 0x00, 0x00, 0x00, 0x00, 0x00, 0x00, 0x00, 0x00, 0x00, 0x00, 0x00, 0x00, 0x00, 0x00, 
.................... 0x00, 0x00, 0x00, 0x00, 0x00, 0x00, 0x00, 0x00, 0x00, 0x00, 0x00, 0x00, 0x00, 0x00, 0x00, 0x00, 
.................... 0x00, 0x00, 0x00, 0x00, 0x00, 0x00, 0x00, 0x00, 0x00, 0x00, 0x00, 0x00, 0x00, 0x08, 0x00, 0x80, 
.................... 0x00, 0x00, 0x00, 0x00, 0x00, 0x00, 0x00, 0x00, 0x00, 0x00, 0x00, 0x00, 0x00, 0x04, 0x01, 0x00, 
.................... 0x00, 0x00, 0x00, 0x00, 0x00, 0x00, 0x00, 0x00, 0x00, 0x00, 0x00, 0x00, 0x00, 0x02, 0x02, 0x00, 
.................... 0x00, 0x00, 0x00, 0x00, 0x00, 0x00, 0x00, 0x00, 0x00, 0x00, 0x00, 0x00, 0x00, 0x00, 0x78, 0x00, 
.................... 0x00, 0x00, 0x00, 0x00, 0x00, 0x00, 0x00, 0x00, 0x00, 0x00, 0x00, 0x00, 0x00, 0x00, 0x84, 0x00, 
.................... 0x00, 0x00, 0x00, 0x00, 0x00, 0x00, 0x00, 0x00, 0x00, 0x00, 0x00, 0x00, 0x00, 0x01, 0x02, 0x00, 
.................... 0x00, 0x00, 0x00, 0x00, 0x00, 0x00, 0x00, 0x00, 0x00, 0x00, 0x00, 0x00, 0x00, 0xF9, 0x02, 0xF8, 
.................... 0x00, 0x00, 0x00, 0x00, 0x00, 0x00, 0x00, 0x00, 0x00, 0x00, 0x00, 0x00, 0x00, 0x01, 0x02, 0x00, 
.................... 0x00, 0x00, 0x00, 0x00, 0x00, 0x00, 0x00, 0x00, 0x00, 0x00, 0x00, 0x00, 0x00, 0x01, 0x02, 0x00, 
.................... 0x00, 0x00, 0x00, 0x00, 0x00, 0x00, 0x00, 0x00, 0x00, 0x00, 0x00, 0x00, 0x00, 0x04, 0x84, 0x80, 
.................... 0x00, 0x00, 0x00, 0x00, 0x00, 0x00, 0x00, 0x00, 0x00, 0x00, 0x00, 0x00, 0x00, 0x08, 0x78, 0x40, 
.................... 0x00, 0x00, 0x00, 0x00, 0x00, 0x00, 0x00, 0x00, 0x00, 0x00, 0x00, 0x00, 0x00, 0x10, 0x48, 0x20, 
.................... 0x00, 0x00, 0x00, 0x00, 0x00, 0x00, 0x00, 0x00, 0x00, 0x00, 0x00, 0x00, 0x00, 0x20, 0x48, 0x10, 
.................... 0x00, 0x00, 0x00, 0x00, 0x00, 0x00, 0x00, 0x00, 0x00, 0x00, 0x00, 0x00, 0x00, 0x00, 0x78, 0x00, 
.................... 0x00, 0x00, 0x00, 0x00, 0x00, 0x00, 0x00, 0x00, 0x00, 0x00, 0x00, 0x00, 0x00, 0x00, 0x00, 0x00, 
.................... 0x00, 0x00, 0x00, 0x00, 0x00, 0x00, 0x00, 0x00, 0x00, 0x00, 0x00, 0x00, 0x00, 0x00, 0x00, 0x00, 
.................... 0x00, 0x00, 0x00, 0x00, 0x00, 0x00, 0x00, 0x00, 0x00, 0x00, 0x00, 0x00, 0x00, 0x00, 0x00, 0x00, 
.................... 0x00, 0x00, 0x00, 0x00, 0x00, 0x00, 0x00, 0x00, 0x00, 0x00, 0x00, 0x00, 0x00, 0x00, 0x00, 0x00, 
.................... 0x00, 0x00, 0x00, 0x00, 0x00, 0x00, 0x00, 0x00, 0x00, 0x00, 0x00, 0x00, 0x00, 0x00, 0x00, 0x00, 
.................... 0x00, 0x00, 0x00, 0x00, 0x00, 0x00, 0x00, 0x00, 0x00, 0x00, 0x00, 0x00, 0x00, 0x00, 0x00, 0x00, 
.................... 0x00, 0x00, 0x00, 0x00, 0x00, 0x00, 0x00, 0x00, 0x00, 0x00, 0x00, 0x00, 0x00, 0x00, 0x00, 0x00, 
.................... 0x00, 0x00, 0x00, 0x00, 0x00, 0x00, 0x00, 0x00, 0x00, 0x00, 0x00, 0x00, 0x00, 0x00, 0x00, 0x00, 
.................... 0x00, 0x00, 0x00, 0x00, 0x00, 0x00, 0x00, 0x00, 0x00, 0x00, 0x00, 0x00, 0x00, 0x00, 0x00, 0x00, 
.................... 0x00, 0x00, 0x00, 0x00, 0x00, 0x00, 0x00, 0x00, 0x00, 0x00, 0x00, 0x00, 0x00, 0x00, 0x00, 0x00, 
.................... 0x00, 0x00, 0x00, 0x00, 0x00, 0x00, 0x00, 0x00, 0x00, 0x00, 0x00, 0x00, 0x00, 0x00, 0x00, 0x00, 
.................... 0x00, 0x00, 0x00, 0x00, 0x00, 0x00, 0x00, 0x00, 0x00, 0x00, 0x00, 0x00, 0x00, 0x00, 0x00, 0x00, 
.................... 0x00, 0x00, 0x00, 0x00, 0x00, 0x00, 0x00, 0x00, 0x00, 0x00, 0x00, 0x00, 0x00, 0x00, 0x00, 0x00, 
.................... 0x00, 0x00, 0x00, 0x00, 0x00, 0x00, 0x00, 0x00, 0x00, 0x00, 0x00, 0x00, 0x00, 0x00, 0x00, 0x00, 
.................... 0x00, 0x00, 0x00, 0x00, 0x00, 0x00, 0x00, 0x00, 0x00, 0x00, 0x00, 0x00, 0x00, 0x00, 0x00, 0x00, 
.................... 0x00, 0x00, 0x00, 0x00, 0x00, 0x00, 0x00, 0x00, 0x00, 0x00, 0x00, 0x00, 0x00, 0x00, 0x00, 0x00, 
.................... 0x00, 0x00, 0x00, 0x00, 0x00, 0x00, 0x00, 0x00, 0x00, 0x00, 0x00, 0x00, 0x00, 0x00, 0x00, 0x00, 
.................... 0x00, 0x00, 0x00, 0x00, 0x00, 0x00, 0x00, 0x00, 0x00, 0x00, 0x00, 0x00, 0x00, 0x00, 0x00, 0x00, 
.................... 0x00, 0x00, 0x00, 0x00, 0x00, 0x00, 0x00, 0x00, 0x00, 0x00, 0x00, 0x00, 0x00, 0x00, 0x00, 0x00, 
.................... 0x00, 0x00, 0x00, 0x00, 0x00, 0x00, 0x00, 0x00, 0x00, 0x00, 0x00, 0x00, 0x00, 0x00, 0x00, 0x00, 
.................... 0x00, 0x00, 0x00, 0x00, 0x00, 0x00, 0x00, 0x00, 0x00, 0x00, 0x00, 0x00, 0x00, 0x00, 0x00, 0x00, 
.................... 0x00, 0x00, 0x00, 0x00, 0x00, 0x00, 0x00, 0x00, 0x00, 0x00, 0x00, 0x00, 0x00, 0x00, 0x00, 0x00, 
.................... 0x00, 0x00, 0x00, 0x00, 0x00, 0x00, 0x00, 0x00, 0x00, 0x00, 0x00, 0x00, 0x00, 0x00, 0x00, 0x00, 
.................... 0x00, 0x00, 0x00, 0x00, 0x00, 0x00, 0x00, 0x00, 0x00, 0x00, 0x00, 0x00, 0x00, 0x00, 0x00, 0x00, 
.................... 0x00, 0x00, 0x00, 0x00, 0x00, 0x00, 0x00, 0x00, 0x00, 0x00, 0x00, 0x00, 0x00, 0x00, 0x00, 0x00, 
.................... 0x00, 0x00, 0x00, 0x00, 0x00, 0x00, 0x00, 0x00, 0x00, 0x00, 0x00, 0x00, 0x00, 0x00, 0x00, 0x00, 
.................... 0x00, 0x00, 0x00, 0x00, 0x00, 0x00, 0x00, 0x00, 0x00, 0x00, 0x00, 0x00, 0x00, 0x00, 0x00, 0x00, 
.................... 0x00, 0x00, 0x00, 0x00, 0x00, 0x00, 0x00, 0x00, 0x00, 0x00, 0x00, 0x00, 0x00, 0x00, 0x00, 0x00, 
.................... 0x00, 0x00, 0x00, 0x00, 0x00, 0x00, 0x00, 0x00, 0x00, 0x00, 0x00, 0x00, 0x00, 0x00, 0x00, 0x00, 
.................... 0x00, 0x00, 0x00, 0x00, 0x00, 0x00, 0x00, 0x00, 0x00, 0x00, 0x00, 0x00, 0x00, 0x00, 0x00, 0x00, 
.................... 0x00, 0x00, 0x00, 0x00, 0x00, 0x00, 0x00, 0x00, 0x00, 0x00, 0x00, 0x00, 0x00, 0x00, 0x00, 0x00, 
.................... 0x00, 0x00, 0x00, 0x00, 0x00, 0x00, 0x00, 0x00, 0x00, 0x00, 0x00, 0x00, 0x00, 0x00, 0x00, 0x00, 
.................... 0x00, 0x00, 0x00, 0x00, 0x00, 0x00, 0x00, 0x00, 0x00, 0x00, 0x00, 0x00, 0x00, 0x00, 0x00, 0x00, 
.................... 0x00, 0x00, 0x00, 0x00, 0x00, 0x00, 0x00, 0x00, 0x00, 0x00, 0x00, 0x00, 0x00, 0x00, 0x00, 0x00, 
.................... 0x00, 0x00, 0x00, 0x00, 0x00, 0x00, 0x00, 0x00, 0x00, 0x00, 0x00, 0x00, 0x00, 0x00, 0x00, 0x00 
.................... }; 
....................  
.................... const int8 Tomai [64][16] = { 
.................... 0x00, 0x00, 0x00, 0x00, 0x00, 0x00, 0x00, 0x00, 0x00, 0x00, 0x00, 0x00, 0x00, 0x00, 0x00, 0x00, 
.................... 0x00, 0x00, 0x00, 0x00, 0x00, 0x00, 0x00, 0x00, 0x00, 0x00, 0x00, 0x00, 0x00, 0x00, 0x00, 0x00, 
.................... 0x00, 0x00, 0x00, 0x00, 0x00, 0x00, 0x00, 0x00, 0x00, 0x00, 0x00, 0x00, 0x00, 0x00, 0x00, 0x00, 
.................... 0x00, 0x00, 0x00, 0x00, 0x00, 0x00, 0x00, 0x00, 0x00, 0x00, 0x00, 0x00, 0x00, 0x00, 0x00, 0x00, 
.................... 0x00, 0x00, 0x00, 0x00, 0x00, 0x00, 0x00, 0x00, 0x00, 0x00, 0x00, 0x00, 0x00, 0x00, 0x00, 0x00, 
.................... 0x00, 0x00, 0x00, 0x00, 0x00, 0x00, 0x00, 0x00, 0x00, 0x00, 0x00, 0x00, 0x00, 0x00, 0x00, 0x00, 
.................... 0x00, 0x00, 0x00, 0x00, 0x00, 0x00, 0x00, 0x00, 0x00, 0x00, 0x00, 0x00, 0x00, 0x00, 0x00, 0x00, 
.................... 0x00, 0x00, 0x00, 0x00, 0x00, 0x00, 0x00, 0x00, 0x00, 0x00, 0x00, 0x00, 0x00, 0x00, 0x00, 0x00, 
.................... 0x00, 0x00, 0x00, 0x00, 0x00, 0x00, 0x00, 0x00, 0x00, 0x00, 0x00, 0x00, 0x00, 0x00, 0x00, 0x00, 
.................... 0x00, 0x00, 0x00, 0x00, 0x00, 0x00, 0x00, 0x00, 0x00, 0x00, 0x00, 0x00, 0x00, 0x00, 0x00, 0x00, 
.................... 0x00, 0x00, 0x00, 0x00, 0x00, 0x00, 0x00, 0x00, 0x00, 0x00, 0x00, 0x00, 0x00, 0x00, 0x00, 0x00, 
.................... 0x00, 0x00, 0x00, 0x00, 0x00, 0x00, 0x00, 0x00, 0x00, 0x00, 0x00, 0x00, 0x00, 0x00, 0x00, 0x00, 
.................... 0x00, 0x00, 0x00, 0x00, 0x00, 0x00, 0x00, 0x00, 0x00, 0x00, 0x00, 0x00, 0x00, 0x00, 0x00, 0x00, 
.................... 0x00, 0x00, 0x00, 0x00, 0x00, 0x00, 0x00, 0x00, 0x00, 0x00, 0x00, 0x00, 0x00, 0x00, 0x00, 0x00, 
.................... 0x00, 0x00, 0x00, 0x00, 0x00, 0x00, 0x00, 0x00, 0x00, 0x00, 0x00, 0x00, 0x00, 0x00, 0x00, 0x00, 
.................... 0x00, 0x00, 0x00, 0x00, 0x00, 0x00, 0x00, 0x00, 0x00, 0x00, 0x00, 0x00, 0x00, 0x00, 0x00, 0x00, 
.................... 0x00, 0x00, 0x00, 0x00, 0x00, 0x00, 0x00, 0x00, 0x00, 0x00, 0x00, 0x00, 0x00, 0x00, 0x00, 0x00, 
.................... 0x00, 0x00, 0x00, 0x00, 0x00, 0x00, 0x00, 0x00, 0x00, 0x00, 0x00, 0x00, 0x00, 0x00, 0x00, 0x00, 
.................... 0x00, 0x00, 0x00, 0x00, 0x00, 0x00, 0x00, 0x00, 0x00, 0x00, 0x00, 0x00, 0x00, 0x00, 0x00, 0x00, 
.................... 0x00, 0x00, 0x00, 0x00, 0x00, 0x00, 0x00, 0x00, 0x00, 0x00, 0x00, 0x00, 0x00, 0x00, 0x00, 0x00, 
.................... 0x00, 0x00, 0x00, 0x00, 0x00, 0x00, 0x00, 0x00, 0x00, 0x00, 0x00, 0x00, 0x00, 0x00, 0x00, 0x00, 
.................... 0x00, 0x00, 0x00, 0x00, 0x00, 0x00, 0x00, 0x00, 0x00, 0x00, 0x00, 0x00, 0x00, 0x00, 0x00, 0x00, 
.................... 0x00, 0x00, 0x00, 0x00, 0x00, 0x00, 0x00, 0x00, 0x00, 0x00, 0x00, 0x00, 0x00, 0x00, 0x00, 0x00, 
.................... 0x00, 0x00, 0x00, 0x00, 0x00, 0x00, 0x00, 0x00, 0x00, 0x00, 0x00, 0x00, 0x00, 0x00, 0x00, 0x00, 
.................... 0x00, 0x00, 0x00, 0x00, 0x00, 0x00, 0x00, 0x00, 0x00, 0x00, 0x00, 0x00, 0x00, 0x00, 0x00, 0x00, 
.................... 0x00, 0x00, 0x00, 0x00, 0x00, 0x00, 0x00, 0x00, 0x00, 0x00, 0x00, 0x00, 0x00, 0x00, 0x00, 0x00, 
.................... 0x00, 0x00, 0x00, 0x00, 0x00, 0x00, 0x00, 0x00, 0x00, 0x00, 0x00, 0x00, 0x00, 0x00, 0x00, 0x00, 
.................... 0x00, 0x00, 0x00, 0x00, 0x00, 0x00, 0x00, 0x00, 0x00, 0x00, 0x00, 0x00, 0x00, 0x00, 0x00, 0x00, 
.................... 0x00, 0x00, 0x00, 0x00, 0x00, 0x00, 0x00, 0x00, 0x00, 0x00, 0x00, 0x00, 0x00, 0x00, 0x00, 0x00, 
.................... 0x00, 0x00, 0x00, 0x00, 0x00, 0x00, 0x00, 0x00, 0x00, 0x00, 0x00, 0x00, 0x00, 0x00, 0x00, 0x00, 
.................... 0x00, 0x00, 0x00, 0x00, 0x00, 0x00, 0x00, 0x00, 0x00, 0x00, 0x00, 0x00, 0x00, 0x7F, 0xFF, 0xF8, 
.................... 0x00, 0x00, 0x00, 0x00, 0x00, 0x00, 0x00, 0x00, 0x00, 0x00, 0x00, 0x00, 0x00, 0x40, 0x00, 0x08, 
.................... 0x00, 0x00, 0x00, 0x00, 0x00, 0x00, 0x00, 0x00, 0x00, 0x00, 0x00, 0x00, 0x00, 0x47, 0x03, 0x88, 
.................... 0x00, 0x00, 0x00, 0x00, 0x00, 0x00, 0x00, 0x00, 0x00, 0x00, 0x00, 0x00, 0x00, 0x45, 0x02, 0x88, 
.................... 0x00, 0x00, 0x00, 0x00, 0x00, 0x00, 0x00, 0x00, 0x00, 0x00, 0x00, 0x00, 0x00, 0x45, 0x02, 0x88, 
.................... 0x00, 0x00, 0x00, 0x00, 0x00, 0x00, 0x00, 0x00, 0x00, 0x00, 0x00, 0x00, 0x00, 0x45, 0x02, 0x88, 
.................... 0x00, 0x00, 0x00, 0x00, 0x00, 0x00, 0x00, 0x00, 0x00, 0x00, 0x00, 0x00, 0x00, 0x45, 0x02, 0x88, 
.................... 0x00, 0x00, 0x00, 0x00, 0x00, 0x00, 0x00, 0x00, 0x00, 0x00, 0x00, 0x00, 0x00, 0x47, 0x03, 0x88, 
.................... 0x00, 0x00, 0x00, 0x00, 0x00, 0x00, 0x00, 0x00, 0x00, 0x00, 0x00, 0x00, 0x00, 0x40, 0x00, 0x08, 
.................... 0x00, 0x00, 0x00, 0x00, 0x00, 0x00, 0x00, 0x00, 0x00, 0x00, 0x00, 0x00, 0x00, 0x40, 0xFC, 0x08, 
.................... 0x00, 0x00, 0x00, 0x00, 0x00, 0x00, 0x00, 0x00, 0x00, 0x00, 0x00, 0x00, 0x00, 0x40, 0x84, 0x08, 
.................... 0x00, 0x00, 0x00, 0x00, 0x00, 0x00, 0x00, 0x00, 0x00, 0x00, 0x00, 0x00, 0x00, 0x40, 0x84, 0x08, 
.................... 0x00, 0x00, 0x00, 0x00, 0x00, 0x00, 0x00, 0x00, 0x00, 0x00, 0x00, 0x00, 0x00, 0x40, 0xFC, 0x08, 
.................... 0x00, 0x00, 0x00, 0x00, 0x00, 0x00, 0x00, 0x00, 0x00, 0x00, 0x00, 0x00, 0x00, 0x40, 0x00, 0x08, 
.................... 0x00, 0x00, 0x00, 0x00, 0x00, 0x00, 0x00, 0x00, 0x00, 0x00, 0x00, 0x00, 0x00, 0x7F, 0xFF, 0xF8, 
.................... 0x00, 0x00, 0x00, 0x00, 0x00, 0x00, 0x00, 0x00, 0x00, 0x00, 0x00, 0x00, 0x00, 0x00, 0x00, 0x00, 
.................... 0x00, 0x00, 0x00, 0x00, 0x00, 0x00, 0x00, 0x00, 0x00, 0x00, 0x00, 0x00, 0x00, 0x00, 0x00, 0x00, 
.................... 0x00, 0x00, 0x00, 0x00, 0x00, 0x00, 0x00, 0x00, 0x00, 0x00, 0x00, 0x00, 0x00, 0x00, 0x00, 0x00, 
.................... 0x00, 0x00, 0x00, 0x00, 0x00, 0x00, 0x00, 0x00, 0x00, 0x00, 0x00, 0x00, 0x00, 0x00, 0x00, 0x00, 
.................... 0x00, 0x00, 0x00, 0x00, 0x00, 0x00, 0x00, 0x00, 0x00, 0x00, 0x00, 0x00, 0x00, 0x00, 0x00, 0x00, 
.................... 0x00, 0x00, 0x00, 0x00, 0x00, 0x00, 0x00, 0x00, 0x00, 0x00, 0x00, 0x00, 0x00, 0x00, 0x00, 0x00, 
.................... 0x00, 0x00, 0x00, 0x00, 0x00, 0x00, 0x00, 0x00, 0x00, 0x00, 0x00, 0x00, 0x00, 0x00, 0x00, 0x00, 
.................... 0x00, 0x00, 0x00, 0x00, 0x00, 0x00, 0x00, 0x00, 0x00, 0x00, 0x00, 0x00, 0x00, 0x00, 0x00, 0x00, 
.................... 0x00, 0x00, 0x00, 0x00, 0x00, 0x00, 0x00, 0x00, 0x00, 0x00, 0x00, 0x00, 0x00, 0x00, 0x00, 0x00, 
.................... 0x00, 0x00, 0x00, 0x00, 0x00, 0x00, 0x00, 0x00, 0x00, 0x00, 0x00, 0x00, 0x00, 0x00, 0x00, 0x00, 
.................... 0x00, 0x00, 0x00, 0x00, 0x00, 0x00, 0x00, 0x00, 0x00, 0x00, 0x00, 0x00, 0x00, 0x00, 0x00, 0x00, 
.................... 0x00, 0x00, 0x00, 0x00, 0x00, 0x00, 0x00, 0x00, 0x00, 0x00, 0x00, 0x00, 0x00, 0x00, 0x00, 0x00, 
.................... 0x00, 0x00, 0x00, 0x00, 0x00, 0x00, 0x00, 0x00, 0x00, 0x00, 0x00, 0x00, 0x00, 0x00, 0x00, 0x00, 
.................... 0x00, 0x00, 0x00, 0x00, 0x00, 0x00, 0x00, 0x00, 0x00, 0x00, 0x00, 0x00, 0x00, 0x00, 0x00, 0x00, 
.................... 0x00, 0x00, 0x00, 0x00, 0x00, 0x00, 0x00, 0x00, 0x00, 0x00, 0x00, 0x00, 0x00, 0x00, 0x00, 0x00, 
.................... 0x00, 0x00, 0x00, 0x00, 0x00, 0x00, 0x00, 0x00, 0x00, 0x00, 0x00, 0x00, 0x00, 0x00, 0x00, 0x00, 
.................... 0x00, 0x00, 0x00, 0x00, 0x00, 0x00, 0x00, 0x00, 0x00, 0x00, 0x00, 0x00, 0x00, 0x00, 0x00, 0x00, 
.................... 0x00, 0x00, 0x00, 0x00, 0x00, 0x00, 0x00, 0x00, 0x00, 0x00, 0x00, 0x00, 0x00, 0x00, 0x00, 0x00, 
.................... 0x00, 0x00, 0x00, 0x00, 0x00, 0x00, 0x00, 0x00, 0x00, 0x00, 0x00, 0x00, 0x00, 0x00, 0x00, 0x00 
.................... }; 
....................  
.................... const int8 Ventilador [64][16] = { 
.................... 0x00, 0x00, 0x00, 0x00, 0x00, 0x00, 0x00, 0x00, 0x00, 0x00, 0x00, 0x00, 0x00, 0x00, 0x00, 0x00, 
.................... 0x00, 0x00, 0x00, 0x00, 0x00, 0x00, 0x00, 0x00, 0x00, 0x00, 0x00, 0x00, 0x00, 0x00, 0x00, 0x00, 
.................... 0x00, 0x00, 0x00, 0x00, 0x00, 0x00, 0x00, 0x00, 0x00, 0x00, 0x00, 0x00, 0x00, 0x00, 0x00, 0x00, 
.................... 0x00, 0x00, 0x00, 0x00, 0x00, 0x00, 0x00, 0x00, 0x00, 0x00, 0x00, 0x00, 0x00, 0x00, 0x00, 0x00, 
.................... 0x00, 0x00, 0x00, 0x00, 0x00, 0x00, 0x00, 0x00, 0x00, 0x00, 0x00, 0x00, 0x00, 0x00, 0x00, 0x00, 
.................... 0x00, 0x00, 0x00, 0x00, 0x00, 0x00, 0x00, 0x00, 0x00, 0x00, 0x00, 0x00, 0x00, 0x00, 0x00, 0x00, 
.................... 0x00, 0x00, 0x00, 0x00, 0x00, 0x00, 0x00, 0x00, 0x00, 0x00, 0x00, 0x00, 0x00, 0x00, 0x00, 0x00, 
.................... 0x00, 0x00, 0x00, 0x00, 0x00, 0x00, 0x00, 0x00, 0x00, 0x00, 0x00, 0x00, 0x00, 0x00, 0x00, 0x00, 
.................... 0x00, 0x00, 0x00, 0x00, 0x00, 0x00, 0x00, 0x00, 0x00, 0x00, 0x00, 0x00, 0x00, 0x00, 0x00, 0x00, 
.................... 0x00, 0x00, 0x00, 0x00, 0x00, 0x00, 0x00, 0x00, 0x00, 0x00, 0x00, 0x00, 0x00, 0x00, 0x00, 0x00, 
.................... 0x00, 0x00, 0x00, 0x00, 0x00, 0x00, 0x00, 0x00, 0x00, 0x00, 0x00, 0x00, 0x00, 0x00, 0x00, 0x00, 
.................... 0x00, 0x00, 0x00, 0x00, 0x00, 0x00, 0x00, 0x00, 0x00, 0x00, 0x00, 0x00, 0x00, 0x00, 0x00, 0x00, 
.................... 0x00, 0x00, 0x00, 0x00, 0x00, 0x00, 0x00, 0x00, 0x00, 0x00, 0x00, 0x00, 0x00, 0x00, 0x00, 0x00, 
.................... 0x00, 0x00, 0x00, 0x00, 0x00, 0x00, 0x00, 0x00, 0x00, 0x00, 0x00, 0x00, 0x00, 0x00, 0x00, 0x00, 
.................... 0x00, 0x00, 0x00, 0x00, 0x00, 0x00, 0x00, 0x00, 0x00, 0x00, 0x00, 0x00, 0x00, 0x00, 0x00, 0x00, 
.................... 0x00, 0x00, 0x00, 0x00, 0x00, 0x00, 0x00, 0x00, 0x00, 0x00, 0x00, 0x00, 0x00, 0x00, 0x00, 0x00, 
.................... 0x00, 0x00, 0x00, 0x00, 0x00, 0x00, 0x00, 0x00, 0x00, 0x00, 0x00, 0x00, 0x00, 0x00, 0x00, 0x00, 
.................... 0x00, 0x00, 0x00, 0x00, 0x00, 0x00, 0x00, 0x00, 0x00, 0x00, 0x00, 0x00, 0x00, 0x00, 0x00, 0x00, 
.................... 0x00, 0x00, 0x00, 0x00, 0x00, 0x00, 0x00, 0x00, 0x00, 0x00, 0x00, 0x00, 0x00, 0x00, 0x00, 0x00, 
.................... 0x00, 0x00, 0x00, 0x00, 0x00, 0x00, 0x00, 0x00, 0x00, 0x00, 0x00, 0x00, 0x00, 0x00, 0x00, 0x00, 
.................... 0x00, 0x00, 0x00, 0x00, 0x00, 0x00, 0x00, 0x00, 0x00, 0x00, 0x00, 0x00, 0x00, 0x00, 0x00, 0x00, 
.................... 0x00, 0x00, 0x00, 0x00, 0x00, 0x00, 0x00, 0x00, 0x00, 0x00, 0x00, 0x00, 0x00, 0x00, 0x00, 0x00, 
.................... 0x00, 0x00, 0x00, 0x00, 0x00, 0x00, 0x00, 0x00, 0x00, 0x00, 0x00, 0x00, 0x00, 0x00, 0x00, 0x00, 
.................... 0x00, 0x00, 0x00, 0x00, 0x00, 0x00, 0x00, 0x00, 0x00, 0x00, 0x00, 0x00, 0x00, 0x00, 0x00, 0x00, 
.................... 0x00, 0x00, 0x00, 0x00, 0x00, 0x00, 0x00, 0x00, 0x00, 0x00, 0x00, 0x00, 0x00, 0x00, 0x00, 0x00, 
.................... 0x00, 0x00, 0x00, 0x00, 0x00, 0x00, 0x00, 0x00, 0x00, 0x00, 0x00, 0x00, 0x00, 0x00, 0x00, 0x00, 
.................... 0x00, 0x00, 0x00, 0x00, 0x00, 0x00, 0x00, 0x00, 0x00, 0x00, 0x00, 0x00, 0x00, 0x00, 0x00, 0x00, 
.................... 0x00, 0x00, 0x00, 0x00, 0x00, 0x00, 0x00, 0x00, 0x00, 0x00, 0x00, 0x00, 0x00, 0x00, 0x00, 0x00, 
.................... 0x00, 0x00, 0x00, 0x00, 0x00, 0x00, 0x00, 0x00, 0x00, 0x00, 0x00, 0x00, 0x00, 0x00, 0x00, 0x00, 
.................... 0x00, 0x00, 0x00, 0x00, 0x00, 0x00, 0x00, 0x00, 0x00, 0x00, 0x00, 0x00, 0x00, 0x00, 0x00, 0x00, 
.................... 0x00, 0x00, 0x00, 0x00, 0x00, 0x00, 0x00, 0x00, 0x00, 0x00, 0x00, 0x00, 0x00, 0x00, 0x00, 0x00, 
.................... 0x00, 0x00, 0x00, 0x00, 0x00, 0x00, 0x00, 0x00, 0x00, 0x00, 0x00, 0x00, 0x00, 0x00, 0x00, 0x00, 
.................... 0x00, 0x00, 0x00, 0x00, 0x00, 0x00, 0x00, 0x00, 0x00, 0x00, 0x00, 0x00, 0x00, 0x00, 0x00, 0x00, 
.................... 0x00, 0x00, 0x00, 0x00, 0x00, 0x00, 0x00, 0x00, 0x00, 0x00, 0x00, 0x00, 0x00, 0x00, 0x00, 0x00, 
.................... 0x00, 0x00, 0x00, 0x00, 0x00, 0x00, 0x00, 0x00, 0x00, 0x00, 0x00, 0x00, 0x00, 0x00, 0x00, 0x00, 
.................... 0x00, 0x00, 0x00, 0x00, 0x00, 0x00, 0x00, 0x00, 0x00, 0x00, 0x00, 0x00, 0x00, 0x00, 0x00, 0x00, 
.................... 0x00, 0x00, 0x00, 0x00, 0x00, 0x00, 0x00, 0x00, 0x00, 0x00, 0x00, 0x00, 0x00, 0x00, 0x00, 0x00, 
.................... 0x00, 0x00, 0x00, 0x00, 0x00, 0x00, 0x00, 0x00, 0x00, 0x00, 0x00, 0x00, 0x00, 0x00, 0x00, 0x00, 
.................... 0x00, 0x00, 0x00, 0x00, 0x00, 0x00, 0x00, 0x00, 0x00, 0x00, 0x00, 0x00, 0x00, 0x00, 0x00, 0x00, 
.................... 0x00, 0x00, 0x00, 0x00, 0x00, 0x00, 0x00, 0x00, 0x00, 0x00, 0x00, 0x00, 0x00, 0x00, 0x00, 0x00, 
.................... 0x00, 0x00, 0x00, 0x00, 0x00, 0x00, 0x00, 0x00, 0x00, 0x00, 0x00, 0x00, 0x00, 0x00, 0x00, 0x00, 
.................... 0x00, 0x00, 0x00, 0x00, 0x00, 0x00, 0x00, 0x00, 0x00, 0x00, 0x00, 0x00, 0x00, 0x00, 0x00, 0x00, 
.................... 0x00, 0x00, 0x00, 0x00, 0x00, 0x00, 0x00, 0x00, 0x00, 0x00, 0x00, 0x00, 0x00, 0x00, 0x00, 0x00, 
.................... 0x00, 0x00, 0x00, 0x00, 0x00, 0x00, 0x00, 0x00, 0x00, 0x00, 0x00, 0x00, 0x00, 0x00, 0x00, 0x00, 
.................... 0x00, 0x00, 0x00, 0x00, 0x00, 0x00, 0x00, 0x00, 0x00, 0x00, 0x00, 0x00, 0x00, 0x00, 0x00, 0x00, 
.................... 0x00, 0x00, 0x00, 0x00, 0x00, 0x00, 0x00, 0x00, 0x00, 0x00, 0x00, 0x00, 0x00, 0x00, 0x00, 0x00, 
.................... 0x00, 0x00, 0x00, 0x00, 0x00, 0x00, 0x00, 0x00, 0x00, 0x00, 0x00, 0x00, 0x00, 0x00, 0x60, 0x00, 
.................... 0x00, 0x00, 0x00, 0x00, 0x00, 0x00, 0x00, 0x00, 0x00, 0x00, 0x00, 0x00, 0x00, 0x00, 0xF0, 0x00, 
.................... 0x00, 0x00, 0x00, 0x00, 0x00, 0x00, 0x00, 0x00, 0x00, 0x00, 0x00, 0x00, 0x00, 0x01, 0xF8, 0x00, 
.................... 0x00, 0x00, 0x00, 0x00, 0x00, 0x00, 0x00, 0x00, 0x00, 0x00, 0x00, 0x00, 0x00, 0x01, 0xF8, 0x00, 
.................... 0x00, 0x00, 0x00, 0x00, 0x00, 0x00, 0x00, 0x00, 0x00, 0x00, 0x00, 0x00, 0x00, 0x01, 0xF8, 0x00, 
.................... 0x00, 0x00, 0x00, 0x00, 0x00, 0x00, 0x00, 0x00, 0x00, 0x00, 0x00, 0x00, 0x00, 0x00, 0xF0, 0x00, 
.................... 0x00, 0x00, 0x00, 0x00, 0x00, 0x00, 0x00, 0x00, 0x00, 0x00, 0x00, 0x00, 0x00, 0x38, 0x71, 0xC0, 
.................... 0x00, 0x00, 0x00, 0x00, 0x00, 0x00, 0x00, 0x00, 0x00, 0x00, 0x00, 0x00, 0x00, 0x7C, 0x93, 0xE0, 
.................... 0x00, 0x00, 0x00, 0x00, 0x00, 0x00, 0x00, 0x00, 0x00, 0x00, 0x00, 0x00, 0x00, 0xFF, 0x0F, 0xF0, 
.................... 0x00, 0x00, 0x00, 0x00, 0x00, 0x00, 0x00, 0x00, 0x00, 0x00, 0x00, 0x00, 0x00, 0xFF, 0x0F, 0xF0, 
.................... 0x00, 0x00, 0x00, 0x00, 0x00, 0x00, 0x00, 0x00, 0x00, 0x00, 0x00, 0x00, 0x00, 0x7D, 0x93, 0xE0, 
.................... 0x00, 0x00, 0x00, 0x00, 0x00, 0x00, 0x00, 0x00, 0x00, 0x00, 0x00, 0x00, 0x00, 0x38, 0x61, 0xC0, 
.................... 0x00, 0x00, 0x00, 0x00, 0x00, 0x00, 0x00, 0x00, 0x00, 0x00, 0x00, 0x00, 0x00, 0x00, 0xF0, 0x00, 
.................... 0x00, 0x00, 0x00, 0x00, 0x00, 0x00, 0x00, 0x00, 0x00, 0x00, 0x00, 0x00, 0x00, 0x01, 0xF8, 0x00, 
.................... 0x00, 0x00, 0x00, 0x00, 0x00, 0x00, 0x00, 0x00, 0x00, 0x00, 0x00, 0x00, 0x00, 0x01, 0xF8, 0x00, 
.................... 0x00, 0x00, 0x00, 0x00, 0x00, 0x00, 0x00, 0x00, 0x00, 0x00, 0x00, 0x00, 0x00, 0x01, 0xF8, 0x00, 
.................... 0x00, 0x00, 0x00, 0x00, 0x00, 0x00, 0x00, 0x00, 0x00, 0x00, 0x00, 0x00, 0x00, 0x00, 0xF0, 0x00, 
.................... 0x00, 0x00, 0x00, 0x00, 0x00, 0x00, 0x00, 0x00, 0x00, 0x00, 0x00, 0x00, 0x00, 0x00, 0x60, 0x00 
.................... }; 
....................  
.................... #include "FuncionesDisplay.h" 
....................  
.................... typedef struct{ 
....................    char Letra[20]; 
.................... }MENUU; 
....................  
.................... MENUU Menus; 
....................   
.................... void displayContrasena(int digito, int x, int y, int sombreado) 
.................... { 
....................    char voltage[9]; 
....................    sprintf(voltage, "%i", digito); 
04BE6:  MOVLW  05
04BE8:  MOVLB  4
04BEA:  MOVWF  x2B
04BEC:  MOVLW  E2
04BEE:  MOVWF  x2A
04BF0:  MOVFF  5DE,5EB
04BF4:  MOVLW  1F
04BF6:  MOVLB  5
04BF8:  MOVWF  xEC
04BFA:  MOVLB  0
04BFC:  RCALL  461C
....................     
....................    if(sombreado==1) 
04BFE:  MOVLB  5
04C00:  DECFSZ xE1,W
04C02:  BRA    4C52
....................       {glcd_rect(x, y, x+18, y+24, YES, ON);glcd_text57(x+2, y+1, voltage, 2, OFF);} 
04C04:  MOVLW  12
04C06:  ADDWF  xDF,W
04C08:  MOVWF  xEB
04C0A:  MOVLW  18
04C0C:  ADDWF  xE0,W
04C0E:  MOVWF  xEC
04C10:  MOVFF  5DF,5ED
04C14:  MOVFF  5E0,5EE
04C18:  MOVFF  5EB,5EF
04C1C:  MOVWF  xF0
04C1E:  MOVLW  01
04C20:  MOVWF  xF1
04C22:  MOVWF  xF2
04C24:  MOVLB  0
04C26:  RCALL  4962
04C28:  MOVLW  02
04C2A:  MOVLB  5
04C2C:  ADDWF  xDF,W
04C2E:  MOVWF  xEB
04C30:  MOVLW  01
04C32:  ADDWF  xE0,W
04C34:  MOVWF  xEC
04C36:  MOVFF  5EB,5ED
04C3A:  MOVWF  xEE
04C3C:  MOVLW  05
04C3E:  MOVWF  xF0
04C40:  MOVLW  E2
04C42:  MOVWF  xEF
04C44:  MOVLW  02
04C46:  MOVWF  xF1
04C48:  CLRF   xF2
04C4A:  MOVLB  0
04C4C:  RCALL  4A24
....................    else    
04C4E:  BRA    4C9C
04C50:  MOVLB  5
....................       {glcd_rect(x, y, x+18, y+24, NO, OFF);glcd_text57(x+2, y+1, voltage, 2, ON);} 
04C52:  MOVLW  12
04C54:  ADDWF  xDF,W
04C56:  MOVWF  xEB
04C58:  MOVLW  18
04C5A:  ADDWF  xE0,W
04C5C:  MOVWF  xEC
04C5E:  MOVFF  5DF,5ED
04C62:  MOVFF  5E0,5EE
04C66:  MOVFF  5EB,5EF
04C6A:  MOVWF  xF0
04C6C:  CLRF   xF1
04C6E:  CLRF   xF2
04C70:  MOVLB  0
04C72:  RCALL  4962
04C74:  MOVLW  02
04C76:  MOVLB  5
04C78:  ADDWF  xDF,W
04C7A:  MOVWF  xEB
04C7C:  MOVLW  01
04C7E:  ADDWF  xE0,W
04C80:  MOVWF  xEC
04C82:  MOVFF  5EB,5ED
04C86:  MOVWF  xEE
04C88:  MOVLW  05
04C8A:  MOVWF  xF0
04C8C:  MOVLW  E2
04C8E:  MOVWF  xEF
04C90:  MOVLW  02
04C92:  MOVWF  xF1
04C94:  MOVLW  01
04C96:  MOVWF  xF2
04C98:  MOVLB  0
04C9A:  RCALL  4A24
....................  
.................... } 
04C9C:  RETLW  00
....................  
.................... void displayTiempo(int digito, int x, int y, int sombreado, int tamano) 
.................... { 
....................    char voltage[9]; 
....................    sprintf(voltage, "%i", digito); 
*
05430:  MOVLW  05
05432:  MOVLB  4
05434:  MOVWF  x2B
05436:  MOVLW  D9
05438:  MOVWF  x2A
0543A:  MOVFF  5D4,5EB
0543E:  MOVLW  1F
05440:  MOVLB  5
05442:  MOVWF  xEC
05444:  MOVLB  0
05446:  CALL   461C
....................     
....................    if(sombreado==1) 
0544A:  MOVLB  5
0544C:  DECFSZ xD7,W
0544E:  BRA    54A8
....................       {glcd_rect(x, y, x+(tamano*6), y+(tamano*8), YES, ON);glcd_text57(x+2, y+1, voltage, tamano, OFF);} 
05450:  MOVF   xD8,W
05452:  MULLW  06
05454:  MOVF   FF3,W
05456:  ADDWF  xD5,W
05458:  MOVWF  xE2
0545A:  MOVF   xD8,W
0545C:  MULLW  08
0545E:  MOVF   FF3,W
05460:  ADDWF  xD6,W
05462:  MOVWF  xE3
05464:  MOVFF  5D5,5ED
05468:  MOVFF  5D6,5EE
0546C:  MOVFF  5E2,5EF
05470:  MOVWF  xF0
05472:  MOVLW  01
05474:  MOVWF  xF1
05476:  MOVWF  xF2
05478:  MOVLB  0
0547A:  CALL   4962
0547E:  MOVLW  02
05480:  MOVLB  5
05482:  ADDWF  xD5,W
05484:  MOVWF  xE2
05486:  MOVLW  01
05488:  ADDWF  xD6,W
0548A:  MOVWF  xE3
0548C:  MOVFF  5E2,5ED
05490:  MOVWF  xEE
05492:  MOVLW  05
05494:  MOVWF  xF0
05496:  MOVLW  D9
05498:  MOVWF  xEF
0549A:  MOVFF  5D8,5F1
0549E:  CLRF   xF2
054A0:  MOVLB  0
054A2:  CALL   4A24
054A6:  MOVLB  5
....................    if(sombreado==0) 
054A8:  MOVF   xD7,F
054AA:  BNZ   5506
....................       {glcd_rect(x, y, x+(tamano*6), y+(tamano*8), YES, OFF);glcd_text57(x+2, y+1, voltage, tamano, ON);} 
054AC:  MOVF   xD8,W
054AE:  MULLW  06
054B0:  MOVF   FF3,W
054B2:  ADDWF  xD5,W
054B4:  MOVWF  xE2
054B6:  MOVF   xD8,W
054B8:  MULLW  08
054BA:  MOVF   FF3,W
054BC:  ADDWF  xD6,W
054BE:  MOVWF  xE3
054C0:  MOVFF  5D5,5ED
054C4:  MOVFF  5D6,5EE
054C8:  MOVFF  5E2,5EF
054CC:  MOVWF  xF0
054CE:  MOVLW  01
054D0:  MOVWF  xF1
054D2:  CLRF   xF2
054D4:  MOVLB  0
054D6:  CALL   4962
054DA:  MOVLW  02
054DC:  MOVLB  5
054DE:  ADDWF  xD5,W
054E0:  MOVWF  xE2
054E2:  MOVLW  01
054E4:  ADDWF  xD6,W
054E6:  MOVWF  xE3
054E8:  MOVFF  5E2,5ED
054EC:  MOVWF  xEE
054EE:  MOVLW  05
054F0:  MOVWF  xF0
054F2:  MOVLW  D9
054F4:  MOVWF  xEF
054F6:  MOVFF  5D8,5F1
054FA:  MOVLW  01
054FC:  MOVWF  xF2
054FE:  MOVLB  0
05500:  CALL   4A24
05504:  MOVLB  5
....................  
.................... } 
05506:  MOVLB  0
05508:  RETLW  00
....................  
.................... void displayMenu(char palabra[100], int x, int y, int sombreado, int tamano) 
.................... { 
....................    strcpy(Menus.Letra,palabra); 
*
04C9E:  MOVLB  5
04CA0:  MOVFF  5DC,01
04CA4:  MOVFF  5DD,03
04CA8:  MOVFF  5DC,5E2
04CAC:  MOVFF  5DD,5E3
04CB0:  MOVLW  04
04CB2:  MOVWF  FEA
04CB4:  MOVLW  16
04CB6:  MOVWF  FE9
04CB8:  MOVFF  5DD,FE2
04CBC:  MOVFF  5DC,FE1
04CC0:  MOVF   FE7,F
04CC2:  MOVFF  FE6,FEE
04CC6:  BNZ   4CC0
....................    if(sombreado==1) 
04CC8:  DECFSZ xE0,W
04CCA:  BRA    4D16
....................       {glcd_rect(0, y, 127, y+(tamano*8), YES, ON);glcd_text57(x+1, y+1, Menus.Letra, tamano, OFF);} 
04CCC:  MOVF   xE1,W
04CCE:  MULLW  08
04CD0:  MOVF   FF3,W
04CD2:  ADDWF  xDF,W
04CD4:  MOVWF  xE2
04CD6:  CLRF   xED
04CD8:  MOVFF  5DF,5EE
04CDC:  MOVLW  7F
04CDE:  MOVWF  xEF
04CE0:  MOVFF  5E2,5F0
04CE4:  MOVLW  01
04CE6:  MOVWF  xF1
04CE8:  MOVWF  xF2
04CEA:  MOVLB  0
04CEC:  RCALL  4962
04CEE:  MOVLW  01
04CF0:  MOVLB  5
04CF2:  ADDWF  xDE,W
04CF4:  MOVWF  xE2
04CF6:  MOVLW  01
04CF8:  ADDWF  xDF,W
04CFA:  MOVWF  xE3
04CFC:  MOVFF  5E2,5ED
04D00:  MOVWF  xEE
04D02:  MOVLW  04
04D04:  MOVWF  xF0
04D06:  MOVLW  16
04D08:  MOVWF  xEF
04D0A:  MOVFF  5E1,5F1
04D0E:  CLRF   xF2
04D10:  MOVLB  0
04D12:  RCALL  4A24
04D14:  MOVLB  5
....................    if(sombreado==0) 
04D16:  MOVF   xE0,F
04D18:  BNZ   4D66
....................       {glcd_rect(0, y, 127, y+(tamano*8), YES, OFF);glcd_text57(x+1, y+1, Menus.Letra, tamano, ON);} 
04D1A:  MOVF   xE1,W
04D1C:  MULLW  08
04D1E:  MOVF   FF3,W
04D20:  ADDWF  xDF,W
04D22:  MOVWF  xE2
04D24:  CLRF   xED
04D26:  MOVFF  5DF,5EE
04D2A:  MOVLW  7F
04D2C:  MOVWF  xEF
04D2E:  MOVFF  5E2,5F0
04D32:  MOVLW  01
04D34:  MOVWF  xF1
04D36:  CLRF   xF2
04D38:  MOVLB  0
04D3A:  RCALL  4962
04D3C:  MOVLW  01
04D3E:  MOVLB  5
04D40:  ADDWF  xDE,W
04D42:  MOVWF  xE2
04D44:  MOVLW  01
04D46:  ADDWF  xDF,W
04D48:  MOVWF  xE3
04D4A:  MOVFF  5E2,5ED
04D4E:  MOVWF  xEE
04D50:  MOVLW  04
04D52:  MOVWF  xF0
04D54:  MOVLW  16
04D56:  MOVWF  xEF
04D58:  MOVFF  5E1,5F1
04D5C:  MOVLW  01
04D5E:  MOVWF  xF2
04D60:  MOVLB  0
04D62:  RCALL  4A24
04D64:  MOVLB  5
....................  
.................... } 
04D66:  MOVLB  0
04D68:  RETLW  00
....................  
.................... void displayfloat(float adc,int x,int y,int sombreado, int tamano) { 
....................    char voltage[9];     
....................       sprintf(voltage, "%2.0fC",adc); // Converts adc to text 
*
05A3E:  MOVLW  05
05A40:  MOVLB  4
05A42:  MOVWF  x2B
05A44:  MOVLW  E0
05A46:  MOVWF  x2A
05A48:  MOVLW  01
05A4A:  MOVWF  FE9
05A4C:  MOVFF  5DB,5EC
05A50:  MOVFF  5DA,5EB
05A54:  MOVFF  5D9,5EA
05A58:  MOVFF  5D8,5E9
05A5C:  MOVLB  5
05A5E:  CLRF   xED
05A60:  MOVLB  0
05A62:  BRA    5886
05A64:  MOVLW  B0
05A66:  MOVLB  5
05A68:  MOVWF  xF6
05A6A:  MOVLB  0
05A6C:  CALL   45FA
05A70:  MOVLW  43
05A72:  MOVLB  5
05A74:  MOVWF  xF6
05A76:  MOVLB  0
05A78:  CALL   45FA
....................        
....................    if(sombreado==1) 
05A7C:  MOVLB  5
05A7E:  DECFSZ xDE,W
05A80:  BRA    5ADA
....................       {glcd_rect(x, y, x+(tamano*20), y+(tamano*8), YES, ON);glcd_text57(x+2, y+1, voltage, tamano, OFF);} 
05A82:  MOVF   xDF,W
05A84:  MULLW  14
05A86:  MOVF   FF3,W
05A88:  ADDWF  xDC,W
05A8A:  MOVWF  xE9
05A8C:  MOVF   xDF,W
05A8E:  MULLW  08
05A90:  MOVF   FF3,W
05A92:  ADDWF  xDD,W
05A94:  MOVWF  xEA
05A96:  MOVFF  5DC,5ED
05A9A:  MOVFF  5DD,5EE
05A9E:  MOVFF  5E9,5EF
05AA2:  MOVWF  xF0
05AA4:  MOVLW  01
05AA6:  MOVWF  xF1
05AA8:  MOVWF  xF2
05AAA:  MOVLB  0
05AAC:  CALL   4962
05AB0:  MOVLW  02
05AB2:  MOVLB  5
05AB4:  ADDWF  xDC,W
05AB6:  MOVWF  xE9
05AB8:  MOVLW  01
05ABA:  ADDWF  xDD,W
05ABC:  MOVWF  xEA
05ABE:  MOVFF  5E9,5ED
05AC2:  MOVWF  xEE
05AC4:  MOVLW  05
05AC6:  MOVWF  xF0
05AC8:  MOVLW  E0
05ACA:  MOVWF  xEF
05ACC:  MOVFF  5DF,5F1
05AD0:  CLRF   xF2
05AD2:  MOVLB  0
05AD4:  CALL   4A24
05AD8:  MOVLB  5
....................    if(sombreado==0) 
05ADA:  MOVF   xDE,F
05ADC:  BNZ   5B38
....................       {glcd_rect(x, y, x+(tamano*20), y+(tamano*8), YES, OFF);glcd_text57(x+2, y+1, voltage, tamano, ON);} 
05ADE:  MOVF   xDF,W
05AE0:  MULLW  14
05AE2:  MOVF   FF3,W
05AE4:  ADDWF  xDC,W
05AE6:  MOVWF  xE9
05AE8:  MOVF   xDF,W
05AEA:  MULLW  08
05AEC:  MOVF   FF3,W
05AEE:  ADDWF  xDD,W
05AF0:  MOVWF  xEA
05AF2:  MOVFF  5DC,5ED
05AF6:  MOVFF  5DD,5EE
05AFA:  MOVFF  5E9,5EF
05AFE:  MOVWF  xF0
05B00:  MOVLW  01
05B02:  MOVWF  xF1
05B04:  CLRF   xF2
05B06:  MOVLB  0
05B08:  CALL   4962
05B0C:  MOVLW  02
05B0E:  MOVLB  5
05B10:  ADDWF  xDC,W
05B12:  MOVWF  xE9
05B14:  MOVLW  01
05B16:  ADDWF  xDD,W
05B18:  MOVWF  xEA
05B1A:  MOVFF  5E9,5ED
05B1E:  MOVWF  xEE
05B20:  MOVLW  05
05B22:  MOVWF  xF0
05B24:  MOVLW  E0
05B26:  MOVWF  xEF
05B28:  MOVFF  5DF,5F1
05B2C:  MOVLW  01
05B2E:  MOVWF  xF2
05B30:  MOVLB  0
05B32:  CALL   4A24
05B36:  MOVLB  5
....................        
.................... } 
05B38:  MOVLB  0
05B3A:  RETLW  00
....................  
.................... // Funcion para conversor analogo-digital 
.................... unsigned int16 sensores(int x){ 
.................... unsigned int16 y;set_adc_channel(x);delay_ms(1);y=read_adc();return (y); 
*
02CCC:  MOVLB  5
02CCE:  RLCF   xD5,W
02CD0:  MOVWF  00
02CD2:  RLCF   00,F
02CD4:  MOVLW  FC
02CD6:  ANDWF  00,F
02CD8:  MOVFF  00,01
02CDC:  MOVF   FC2,W
02CDE:  ANDLW  C3
02CE0:  IORWF  00,W
02CE2:  MOVWF  FC2
02CE4:  MOVLW  01
02CE6:  MOVWF  xDD
02CE8:  MOVLB  0
02CEA:  CALL   1492
02CEE:  BSF    FC2.1
02CF0:  BTFSC  FC2.1
02CF2:  BRA    2CF0
02CF4:  MOVFF  FC4,5D7
02CF8:  MOVLB  5
02CFA:  MOVFF  FC3,5D6
02CFE:  MOVFF  5D6,01
02D02:  MOVFF  5D7,02
.................... } 
02D06:  MOVLB  0
02D08:  GOTO   3FBA (RETURN)
....................  
....................  
.................... #define   UP               !input(PIN_A5) 
.................... #define   DOWN             !input(PIN_E0) 
.................... #define   RIGHT            !input(PIN_E1) 
.................... #define   LEFT             !input(PIN_E2) 
.................... #define   VIDRIOUUP        !input(PIN_A2) 
.................... #define   VIDRIOUP         !input(PIN_A3) 
.................... #define   VIDRIODN         !input(PIN_A4) 
....................  
.................... #define   Alarma_on           output_bit(PIN_C7,1) 
.................... #define   Alarma_off          output_bit(PIN_C7,0) 
.................... #define   LuzBlanca_on        output_bit(PIN_C1,0) 
.................... #define   LuzBlanca_off       output_bit(PIN_C1,1) 
.................... #define   Aux_on              output_bit(PIN_C0,0) 
.................... #define   Aux_off             output_bit(PIN_C0,1) 
.................... #define   Motor_on            output_bit(PIN_C2,1) 
.................... #define   Motor_off           output_bit(PIN_C2,0) 
.................... #define   Display_on          output_bit(PIN_B1,1) 
.................... #define   Display_off         output_bit(PIN_B1,0) 
.................... #define   O2_on               output_bit(PIN_C5,1) 
.................... #define   O2_off              output_bit(PIN_C5,0) 
.................... #define   O1_on               output_bit(PIN_C4,1) 
.................... #define   O1_off              output_bit(PIN_C4,0) 
....................  
.................... short Flanco=0,Flanco1=0,Flanco2=0,Flanco3=0,Flanco4=0,Flanco5=0,imprimir=0,flag_blower=0,flag_toma=0,flag_luz=0,flag_alarma=0,w=0,flag_uv=0; 
.................... short tiempo_purga=0,tiempo_trabajo=0,flag_latencia=0,tiempo_postpurga=0,pulsoSubir=OFF,pulsoBajar=OFF,flag_arriba=OFF,flagdn=OFF,flagup=OFF; 
.................... short guardatrabajo=0,Lectura=0,n=0; 
.................... char  JP[] = "JP Inglobal", Cabina[] = "Cabina Extractora",Dos_puntos[]=":",UV[]="UV"; 
.................... char  Clase[] = "Con Ductos", Tiempo[] = "Tiempo de Purga"; 
.................... char  Inflowt[] = "Vel:",Downflowt[] = "Temperatura", ZF[] = "Fabrica:208.0", ZA[] = "Actual:",AJ[]="Ajuste:"; 
.................... char  Vida_Filtro[] = "T. Filtro:",ZFP[] = "Fabrica:235.0", Perdida[]="!Filtro Saturado!"; 
.................... int8 Menu=200, unidad=1, Opcion=1,negativo=10,G_l=0,G_h=0,tiemporeset=0; 
.................... int8 q=0,r=0,l=0,h=0,Entero=0,Decimal1=0,Alarma=10; 
....................  
.................... unsigned int16 Inflow_adc=0,Filtro_Downflow_adc=0,Temporal1=0; 
....................  
.................... int16 t_latencia=0,minutos_uv=0,minutos_trabajo=0,G16=0; 
.................... signed int  Tpurga[4]={0,0,0,0};       // Tiempo de Purga transcurrido 
.................... signed int  Tpurgap[4]={9,0,0,0};      // Tiempo de Purga programado 
.................... signed int  Tppurga[4]={0,0,0,0};      // Tiempo de Post-Purga transcurrido 
.................... signed int  Tppurgap[4]={9,0,0,0};     // Tiempo de Post-Purga programado 
.................... signed int  Tuv[4]={0,0,0,0};          // Tiempo de UV transcurrido(en Horas) 
.................... signed int  Tempouvp[4]={0,0,0,0};        // Tiempo de UV transcurrido 
.................... signed int  Ttrabajo[4]={0,0,0,0};        // Tiempo de trabajo transcurrido (en Horas) 
.................... signed int  Contrasena[4]={0,0,0,0};      // Contrasena de 4 digitos 
.................... signed int  Password[4]={0,0,0,0};        // Contrasena Almacenada de 4 digitos 
.................... float Inflow=0.0,Downflow=0.0,Filtro_Downflow=0.0,Diferencia=0.0; 
.................... float Velocidad=0.0,x_uno=0.0,x_cuadrado=0.0,x_cubo=0.0,Ajuste1=0.0,Ajuste2=0.0; 
.................... float Temporal=0.0,Temporal2=0.0; 
.................... float a=0.00000957915546738639,b=-0.00727819571978831,c= 1.85375754678451,d= -156.816806902063; 
.................... //float t=378.463968402560,f=-18275.0402762787;//Sensor 2 Posible bueno 
....................  
.................... float promedio[8]={0.0,0.0,0.0,0.0,0.0,0.0,0.0,0.0}; 
.................... float promedio2[8]={0.0,0.0,0.0,0.0,0.0,0.0,0.0,0.0}; 
.................... float PromPresion[8]={0.0,0.0,0.0,0.0,0.0,0.0,0.0,0.0}; 
.................... float Flujo=0.0,zero_fabrica=208.0,zero_actual=0.0; 
.................... float V1=0.0,Presion=0.0,G=2.0; 
....................  
.................... int16 pulsos=0,retardo=0; 
.................... int8 i=0,l2=0,h2=0,Temperatura=0; 
.................... short Cruce=OFF,Purga=OFF; 
.................... int16 tiempocruce=0; 
.................... int8 Porcentaje=0,VelMotor=0; 
.................... float Tcruce=0.0,Tcruce2=0; 
....................  
.................... #include "Funciones.h" 
.................... float leeTemperatura(int8 media){ 
....................    float ADC=0,V=0,T=0,Tempera=0; 
....................    ADC=sensores(0); 
....................    V=5*ADC/1023; 
....................    T=V/0.01; 
....................    if(l2>media) 
....................       l2=0; 
....................        
....................    promedio2[l2]=T;l2++; 
....................    Tempera=0; 
....................       
....................      for(h2=0;h2<=(media-1);h2++){ 
....................         Tempera+=promedio2[h2]; 
....................      }       
....................    return Tempera/media; 
.................... } 
....................  
.................... void LeeEEPROM(void){ 
....................    Password[0]=read_eeprom(0); 
*
01B38:  MOVFF  FF2,5D4
01B3C:  BCF    FF2.7
01B3E:  CLRF   FAA
01B40:  CLRF   FA9
01B42:  BCF    FA6.6
01B44:  BCF    FA6.7
01B46:  BSF    FA6.0
01B48:  MOVF   FA8,W
01B4A:  MOVLB  5
01B4C:  BTFSC  xD4.7
01B4E:  BSF    FF2.7
01B50:  MOVWF  x04
....................    delay_ms(10); 
01B52:  MOVLW  0A
01B54:  MOVWF  xDD
01B56:  MOVLB  0
01B58:  RCALL  1492
....................    Password[1]=read_eeprom(1); 
01B5A:  MOVFF  FF2,5D4
01B5E:  BCF    FF2.7
01B60:  CLRF   FAA
01B62:  MOVLW  01
01B64:  MOVWF  FA9
01B66:  BCF    FA6.6
01B68:  BCF    FA6.7
01B6A:  BSF    FA6.0
01B6C:  MOVF   FA8,W
01B6E:  MOVLB  5
01B70:  BTFSC  xD4.7
01B72:  BSF    FF2.7
01B74:  MOVWF  x05
....................    delay_ms(10); 
01B76:  MOVLW  0A
01B78:  MOVWF  xDD
01B7A:  MOVLB  0
01B7C:  RCALL  1492
....................    Password[2]=read_eeprom(2); 
01B7E:  MOVFF  FF2,5D4
01B82:  BCF    FF2.7
01B84:  CLRF   FAA
01B86:  MOVLW  02
01B88:  MOVWF  FA9
01B8A:  BCF    FA6.6
01B8C:  BCF    FA6.7
01B8E:  BSF    FA6.0
01B90:  MOVF   FA8,W
01B92:  MOVLB  5
01B94:  BTFSC  xD4.7
01B96:  BSF    FF2.7
01B98:  MOVWF  x06
....................    delay_ms(10); 
01B9A:  MOVLW  0A
01B9C:  MOVWF  xDD
01B9E:  MOVLB  0
01BA0:  RCALL  1492
....................    Password[3]=read_eeprom(3); 
01BA2:  MOVFF  FF2,5D4
01BA6:  BCF    FF2.7
01BA8:  CLRF   FAA
01BAA:  MOVLW  03
01BAC:  MOVWF  FA9
01BAE:  BCF    FA6.6
01BB0:  BCF    FA6.7
01BB2:  BSF    FA6.0
01BB4:  MOVF   FA8,W
01BB6:  MOVLB  5
01BB8:  BTFSC  xD4.7
01BBA:  BSF    FF2.7
01BBC:  MOVWF  x07
....................    delay_ms(10); 
01BBE:  MOVLW  0A
01BC0:  MOVWF  xDD
01BC2:  MOVLB  0
01BC4:  RCALL  1492
....................    Tpurgap[0]=read_eeprom(4); 
01BC6:  MOVFF  FF2,5D4
01BCA:  BCF    FF2.7
01BCC:  CLRF   FAA
01BCE:  MOVLW  04
01BD0:  MOVWF  FA9
01BD2:  BCF    FA6.6
01BD4:  BCF    FA6.7
01BD6:  BSF    FA6.0
01BD8:  MOVF   FA8,W
01BDA:  MOVLB  5
01BDC:  BTFSC  xD4.7
01BDE:  BSF    FF2.7
01BE0:  MOVLB  4
01BE2:  MOVWF  xE8
....................    delay_ms(10); 
01BE4:  MOVLW  0A
01BE6:  MOVLB  5
01BE8:  MOVWF  xDD
01BEA:  MOVLB  0
01BEC:  RCALL  1492
....................    Tpurgap[1]=read_eeprom(5); 
01BEE:  MOVFF  FF2,5D4
01BF2:  BCF    FF2.7
01BF4:  CLRF   FAA
01BF6:  MOVLW  05
01BF8:  MOVWF  FA9
01BFA:  BCF    FA6.6
01BFC:  BCF    FA6.7
01BFE:  BSF    FA6.0
01C00:  MOVF   FA8,W
01C02:  MOVLB  5
01C04:  BTFSC  xD4.7
01C06:  BSF    FF2.7
01C08:  MOVLB  4
01C0A:  MOVWF  xE9
....................    delay_ms(10); 
01C0C:  MOVLW  0A
01C0E:  MOVLB  5
01C10:  MOVWF  xDD
01C12:  MOVLB  0
01C14:  RCALL  1492
....................    Tpurgap[2]=read_eeprom(6); 
01C16:  MOVFF  FF2,5D4
01C1A:  BCF    FF2.7
01C1C:  CLRF   FAA
01C1E:  MOVLW  06
01C20:  MOVWF  FA9
01C22:  BCF    FA6.6
01C24:  BCF    FA6.7
01C26:  BSF    FA6.0
01C28:  MOVF   FA8,W
01C2A:  MOVLB  5
01C2C:  BTFSC  xD4.7
01C2E:  BSF    FF2.7
01C30:  MOVLB  4
01C32:  MOVWF  xEA
....................    delay_ms(10); 
01C34:  MOVLW  0A
01C36:  MOVLB  5
01C38:  MOVWF  xDD
01C3A:  MOVLB  0
01C3C:  RCALL  1492
....................    Tpurgap[3]=read_eeprom(7); 
01C3E:  MOVFF  FF2,5D4
01C42:  BCF    FF2.7
01C44:  CLRF   FAA
01C46:  MOVLW  07
01C48:  MOVWF  FA9
01C4A:  BCF    FA6.6
01C4C:  BCF    FA6.7
01C4E:  BSF    FA6.0
01C50:  MOVF   FA8,W
01C52:  MOVLB  5
01C54:  BTFSC  xD4.7
01C56:  BSF    FF2.7
01C58:  MOVLB  4
01C5A:  MOVWF  xEB
....................    delay_ms(10); 
01C5C:  MOVLW  0A
01C5E:  MOVLB  5
01C60:  MOVWF  xDD
01C62:  MOVLB  0
01C64:  RCALL  1492
....................    Tppurgap[0]=read_eeprom(8); 
01C66:  MOVFF  FF2,5D4
01C6A:  BCF    FF2.7
01C6C:  CLRF   FAA
01C6E:  MOVLW  08
01C70:  MOVWF  FA9
01C72:  BCF    FA6.6
01C74:  BCF    FA6.7
01C76:  BSF    FA6.0
01C78:  MOVF   FA8,W
01C7A:  MOVLB  5
01C7C:  BTFSC  xD4.7
01C7E:  BSF    FF2.7
01C80:  MOVLB  4
01C82:  MOVWF  xF0
....................    delay_ms(10); 
01C84:  MOVLW  0A
01C86:  MOVLB  5
01C88:  MOVWF  xDD
01C8A:  MOVLB  0
01C8C:  RCALL  1492
....................    Tppurgap[1]=read_eeprom(9); 
01C8E:  MOVFF  FF2,5D4
01C92:  BCF    FF2.7
01C94:  CLRF   FAA
01C96:  MOVLW  09
01C98:  MOVWF  FA9
01C9A:  BCF    FA6.6
01C9C:  BCF    FA6.7
01C9E:  BSF    FA6.0
01CA0:  MOVF   FA8,W
01CA2:  MOVLB  5
01CA4:  BTFSC  xD4.7
01CA6:  BSF    FF2.7
01CA8:  MOVLB  4
01CAA:  MOVWF  xF1
....................    delay_ms(10); 
01CAC:  MOVLW  0A
01CAE:  MOVLB  5
01CB0:  MOVWF  xDD
01CB2:  MOVLB  0
01CB4:  CALL   1492
....................    Tppurgap[2]=read_eeprom(10); 
01CB8:  MOVFF  FF2,5D4
01CBC:  BCF    FF2.7
01CBE:  CLRF   FAA
01CC0:  MOVLW  0A
01CC2:  MOVWF  FA9
01CC4:  BCF    FA6.6
01CC6:  BCF    FA6.7
01CC8:  BSF    FA6.0
01CCA:  MOVF   FA8,W
01CCC:  MOVLB  5
01CCE:  BTFSC  xD4.7
01CD0:  BSF    FF2.7
01CD2:  MOVLB  4
01CD4:  MOVWF  xF2
....................    delay_ms(10); 
01CD6:  MOVLW  0A
01CD8:  MOVLB  5
01CDA:  MOVWF  xDD
01CDC:  MOVLB  0
01CDE:  CALL   1492
....................    Tppurgap[3]=read_eeprom(11); 
01CE2:  MOVFF  FF2,5D4
01CE6:  BCF    FF2.7
01CE8:  CLRF   FAA
01CEA:  MOVLW  0B
01CEC:  MOVWF  FA9
01CEE:  BCF    FA6.6
01CF0:  BCF    FA6.7
01CF2:  BSF    FA6.0
01CF4:  MOVF   FA8,W
01CF6:  MOVLB  5
01CF8:  BTFSC  xD4.7
01CFA:  BSF    FF2.7
01CFC:  MOVLB  4
01CFE:  MOVWF  xF3
....................    delay_ms(10); 
01D00:  MOVLW  0A
01D02:  MOVLB  5
01D04:  MOVWF  xDD
01D06:  MOVLB  0
01D08:  CALL   1492
....................    Tuv[0]=read_eeprom(12); 
01D0C:  MOVFF  FF2,5D4
01D10:  BCF    FF2.7
01D12:  CLRF   FAA
01D14:  MOVLW  0C
01D16:  MOVWF  FA9
01D18:  BCF    FA6.6
01D1A:  BCF    FA6.7
01D1C:  BSF    FA6.0
01D1E:  MOVF   FA8,W
01D20:  MOVLB  5
01D22:  BTFSC  xD4.7
01D24:  BSF    FF2.7
01D26:  MOVLB  4
01D28:  MOVWF  xF4
....................    delay_ms(10); 
01D2A:  MOVLW  0A
01D2C:  MOVLB  5
01D2E:  MOVWF  xDD
01D30:  MOVLB  0
01D32:  CALL   1492
....................    Tuv[1]=read_eeprom(13); 
01D36:  MOVFF  FF2,5D4
01D3A:  BCF    FF2.7
01D3C:  CLRF   FAA
01D3E:  MOVLW  0D
01D40:  MOVWF  FA9
01D42:  BCF    FA6.6
01D44:  BCF    FA6.7
01D46:  BSF    FA6.0
01D48:  MOVF   FA8,W
01D4A:  MOVLB  5
01D4C:  BTFSC  xD4.7
01D4E:  BSF    FF2.7
01D50:  MOVLB  4
01D52:  MOVWF  xF5
....................    delay_ms(10); 
01D54:  MOVLW  0A
01D56:  MOVLB  5
01D58:  MOVWF  xDD
01D5A:  MOVLB  0
01D5C:  CALL   1492
....................    Tuv[2]=read_eeprom(14); 
01D60:  MOVFF  FF2,5D4
01D64:  BCF    FF2.7
01D66:  CLRF   FAA
01D68:  MOVLW  0E
01D6A:  MOVWF  FA9
01D6C:  BCF    FA6.6
01D6E:  BCF    FA6.7
01D70:  BSF    FA6.0
01D72:  MOVF   FA8,W
01D74:  MOVLB  5
01D76:  BTFSC  xD4.7
01D78:  BSF    FF2.7
01D7A:  MOVLB  4
01D7C:  MOVWF  xF6
....................    delay_ms(10); 
01D7E:  MOVLW  0A
01D80:  MOVLB  5
01D82:  MOVWF  xDD
01D84:  MOVLB  0
01D86:  CALL   1492
....................    Tuv[3]=read_eeprom(15); 
01D8A:  MOVFF  FF2,5D4
01D8E:  BCF    FF2.7
01D90:  CLRF   FAA
01D92:  MOVLW  0F
01D94:  MOVWF  FA9
01D96:  BCF    FA6.6
01D98:  BCF    FA6.7
01D9A:  BSF    FA6.0
01D9C:  MOVF   FA8,W
01D9E:  MOVLB  5
01DA0:  BTFSC  xD4.7
01DA2:  BSF    FF2.7
01DA4:  MOVLB  4
01DA6:  MOVWF  xF7
....................    delay_ms(10); 
01DA8:  MOVLW  0A
01DAA:  MOVLB  5
01DAC:  MOVWF  xDD
01DAE:  MOVLB  0
01DB0:  CALL   1492
....................    Ttrabajo[0]=read_eeprom(16); 
01DB4:  MOVFF  FF2,5D4
01DB8:  BCF    FF2.7
01DBA:  CLRF   FAA
01DBC:  MOVLW  10
01DBE:  MOVWF  FA9
01DC0:  BCF    FA6.6
01DC2:  BCF    FA6.7
01DC4:  BSF    FA6.0
01DC6:  MOVF   FA8,W
01DC8:  MOVLB  5
01DCA:  BTFSC  xD4.7
01DCC:  BSF    FF2.7
01DCE:  MOVLB  4
01DD0:  MOVWF  xFC
....................    delay_ms(10); 
01DD2:  MOVLW  0A
01DD4:  MOVLB  5
01DD6:  MOVWF  xDD
01DD8:  MOVLB  0
01DDA:  CALL   1492
....................    Ttrabajo[1]=read_eeprom(17); 
01DDE:  MOVFF  FF2,5D4
01DE2:  BCF    FF2.7
01DE4:  CLRF   FAA
01DE6:  MOVLW  11
01DE8:  MOVWF  FA9
01DEA:  BCF    FA6.6
01DEC:  BCF    FA6.7
01DEE:  BSF    FA6.0
01DF0:  MOVF   FA8,W
01DF2:  MOVLB  5
01DF4:  BTFSC  xD4.7
01DF6:  BSF    FF2.7
01DF8:  MOVLB  4
01DFA:  MOVWF  xFD
....................    delay_ms(10); 
01DFC:  MOVLW  0A
01DFE:  MOVLB  5
01E00:  MOVWF  xDD
01E02:  MOVLB  0
01E04:  CALL   1492
....................    Ttrabajo[2]=read_eeprom(18); 
01E08:  MOVFF  FF2,5D4
01E0C:  BCF    FF2.7
01E0E:  CLRF   FAA
01E10:  MOVLW  12
01E12:  MOVWF  FA9
01E14:  BCF    FA6.6
01E16:  BCF    FA6.7
01E18:  BSF    FA6.0
01E1A:  MOVF   FA8,W
01E1C:  MOVLB  5
01E1E:  BTFSC  xD4.7
01E20:  BSF    FF2.7
01E22:  MOVLB  4
01E24:  MOVWF  xFE
....................    delay_ms(10); 
01E26:  MOVLW  0A
01E28:  MOVLB  5
01E2A:  MOVWF  xDD
01E2C:  MOVLB  0
01E2E:  CALL   1492
....................    Ttrabajo[3]=read_eeprom(19); 
01E32:  MOVFF  FF2,5D4
01E36:  BCF    FF2.7
01E38:  CLRF   FAA
01E3A:  MOVLW  13
01E3C:  MOVWF  FA9
01E3E:  BCF    FA6.6
01E40:  BCF    FA6.7
01E42:  BSF    FA6.0
01E44:  MOVF   FA8,W
01E46:  MOVLB  5
01E48:  BTFSC  xD4.7
01E4A:  BSF    FF2.7
01E4C:  MOVLB  4
01E4E:  MOVWF  xFF
....................    delay_ms(10); 
01E50:  MOVLW  0A
01E52:  MOVLB  5
01E54:  MOVWF  xDD
01E56:  MOVLB  0
01E58:  CALL   1492
....................    //flag_alarma=read_eeprom(20); 
....................    //delay_ms(10); 
....................    Tempouvp[0]=read_eeprom(21); 
01E5C:  MOVFF  FF2,5D4
01E60:  BCF    FF2.7
01E62:  CLRF   FAA
01E64:  MOVLW  15
01E66:  MOVWF  FA9
01E68:  BCF    FA6.6
01E6A:  BCF    FA6.7
01E6C:  BSF    FA6.0
01E6E:  MOVF   FA8,W
01E70:  MOVLB  5
01E72:  BTFSC  xD4.7
01E74:  BSF    FF2.7
01E76:  MOVLB  4
01E78:  MOVWF  xF8
....................    delay_ms(10); 
01E7A:  MOVLW  0A
01E7C:  MOVLB  5
01E7E:  MOVWF  xDD
01E80:  MOVLB  0
01E82:  CALL   1492
....................    Tempouvp[1]=read_eeprom(22); 
01E86:  MOVFF  FF2,5D4
01E8A:  BCF    FF2.7
01E8C:  CLRF   FAA
01E8E:  MOVLW  16
01E90:  MOVWF  FA9
01E92:  BCF    FA6.6
01E94:  BCF    FA6.7
01E96:  BSF    FA6.0
01E98:  MOVF   FA8,W
01E9A:  MOVLB  5
01E9C:  BTFSC  xD4.7
01E9E:  BSF    FF2.7
01EA0:  MOVLB  4
01EA2:  MOVWF  xF9
....................    delay_ms(10); 
01EA4:  MOVLW  0A
01EA6:  MOVLB  5
01EA8:  MOVWF  xDD
01EAA:  MOVLB  0
01EAC:  CALL   1492
....................    Tempouvp[2]=read_eeprom(23); 
01EB0:  MOVFF  FF2,5D4
01EB4:  BCF    FF2.7
01EB6:  CLRF   FAA
01EB8:  MOVLW  17
01EBA:  MOVWF  FA9
01EBC:  BCF    FA6.6
01EBE:  BCF    FA6.7
01EC0:  BSF    FA6.0
01EC2:  MOVF   FA8,W
01EC4:  MOVLB  5
01EC6:  BTFSC  xD4.7
01EC8:  BSF    FF2.7
01ECA:  MOVLB  4
01ECC:  MOVWF  xFA
....................    delay_ms(10); 
01ECE:  MOVLW  0A
01ED0:  MOVLB  5
01ED2:  MOVWF  xDD
01ED4:  MOVLB  0
01ED6:  CALL   1492
....................    Tempouvp[3]=read_eeprom(24); 
01EDA:  MOVFF  FF2,5D4
01EDE:  BCF    FF2.7
01EE0:  CLRF   FAA
01EE2:  MOVLW  18
01EE4:  MOVWF  FA9
01EE6:  BCF    FA6.6
01EE8:  BCF    FA6.7
01EEA:  BSF    FA6.0
01EEC:  MOVF   FA8,W
01EEE:  MOVLB  5
01EF0:  BTFSC  xD4.7
01EF2:  BSF    FF2.7
01EF4:  MOVLB  4
01EF6:  MOVWF  xFB
....................     
....................    delay_ms(10); 
01EF8:  MOVLW  0A
01EFA:  MOVLB  5
01EFC:  MOVWF  xDD
01EFE:  MOVLB  0
01F00:  CALL   1492
....................    Entero=read_eeprom(25);//Decimal1=read_eeprom(26); 
01F04:  MOVFF  FF2,5D4
01F08:  BCF    FF2.7
01F0A:  CLRF   FAA
01F0C:  MOVLW  19
01F0E:  MOVWF  FA9
01F10:  BCF    FA6.6
01F12:  BCF    FA6.7
01F14:  BSF    FA6.0
01F16:  MOVF   FA8,W
01F18:  MOVLB  5
01F1A:  BTFSC  xD4.7
01F1C:  BSF    FF2.7
01F1E:  MOVLB  4
01F20:  MOVWF  xD3
....................    delay_ms(10); 
01F22:  MOVLW  0A
01F24:  MOVLB  5
01F26:  MOVWF  xDD
01F28:  MOVLB  0
01F2A:  CALL   1492
....................    Temporal=read_eeprom(26); 
01F2E:  MOVFF  FF2,5D4
01F32:  BCF    FF2.7
01F34:  CLRF   FAA
01F36:  MOVLW  1A
01F38:  MOVWF  FA9
01F3A:  BCF    FA6.6
01F3C:  BCF    FA6.7
01F3E:  BSF    FA6.0
01F40:  MOVF   FA8,W
01F42:  MOVLB  5
01F44:  BTFSC  xD4.7
01F46:  BSF    FF2.7
01F48:  MOVLB  6
01F4A:  CLRF   x0A
01F4C:  MOVWF  x09
01F4E:  MOVLB  0
01F50:  CALL   172C
01F54:  MOVFF  03,533
01F58:  MOVFF  02,532
01F5C:  MOVFF  01,531
01F60:  MOVFF  00,530
....................    delay_ms(10); 
01F64:  MOVLW  0A
01F66:  MOVLB  5
01F68:  MOVWF  xDD
01F6A:  MOVLB  0
01F6C:  CALL   1492
....................    Temporal=Temporal/10.0; 
01F70:  MOVFF  533,608
01F74:  MOVFF  532,607
01F78:  MOVFF  531,606
01F7C:  MOVFF  530,605
01F80:  MOVLB  6
01F82:  CLRF   x0C
01F84:  CLRF   x0B
01F86:  MOVLW  20
01F88:  MOVWF  x0A
01F8A:  MOVLW  82
01F8C:  MOVWF  x09
01F8E:  MOVLB  0
01F90:  CALL   1762
01F94:  MOVFF  03,533
01F98:  MOVFF  02,532
01F9C:  MOVFF  01,531
01FA0:  MOVFF  00,530
....................    Ajuste1=Entero+Temporal; 
01FA4:  MOVLB  6
01FA6:  CLRF   x0A
01FA8:  MOVFF  4D3,609
01FAC:  MOVLB  0
01FAE:  CALL   172C
01FB2:  BCF    FD8.1
01FB4:  MOVFF  03,60C
01FB8:  MOVFF  02,60B
01FBC:  MOVFF  01,60A
01FC0:  MOVFF  00,609
01FC4:  MOVFF  533,610
01FC8:  MOVFF  532,60F
01FCC:  MOVFF  531,60E
01FD0:  MOVFF  530,60D
01FD4:  RCALL  18C0
01FD6:  MOVFF  03,52B
01FDA:  MOVFF  02,52A
01FDE:  MOVFF  01,529
01FE2:  MOVFF  00,528
....................     
....................     
....................    Entero=read_eeprom(27);//Decimal1=read_eeprom(26); 
01FE6:  MOVFF  FF2,5D4
01FEA:  BCF    FF2.7
01FEC:  CLRF   FAA
01FEE:  MOVLW  1B
01FF0:  MOVWF  FA9
01FF2:  BCF    FA6.6
01FF4:  BCF    FA6.7
01FF6:  BSF    FA6.0
01FF8:  MOVF   FA8,W
01FFA:  MOVLB  5
01FFC:  BTFSC  xD4.7
01FFE:  BSF    FF2.7
02000:  MOVLB  4
02002:  MOVWF  xD3
....................    delay_ms(10); 
02004:  MOVLW  0A
02006:  MOVLB  5
02008:  MOVWF  xDD
0200A:  MOVLB  0
0200C:  CALL   1492
....................    Temporal=read_eeprom(28); 
02010:  MOVFF  FF2,5D4
02014:  BCF    FF2.7
02016:  CLRF   FAA
02018:  MOVLW  1C
0201A:  MOVWF  FA9
0201C:  BCF    FA6.6
0201E:  BCF    FA6.7
02020:  BSF    FA6.0
02022:  MOVF   FA8,W
02024:  MOVLB  5
02026:  BTFSC  xD4.7
02028:  BSF    FF2.7
0202A:  MOVLB  6
0202C:  CLRF   x0A
0202E:  MOVWF  x09
02030:  MOVLB  0
02032:  CALL   172C
02036:  MOVFF  03,533
0203A:  MOVFF  02,532
0203E:  MOVFF  01,531
02042:  MOVFF  00,530
....................    delay_ms(10); 
02046:  MOVLW  0A
02048:  MOVLB  5
0204A:  MOVWF  xDD
0204C:  MOVLB  0
0204E:  CALL   1492
....................    Temporal=Temporal/10.0; 
02052:  MOVFF  533,608
02056:  MOVFF  532,607
0205A:  MOVFF  531,606
0205E:  MOVFF  530,605
02062:  MOVLB  6
02064:  CLRF   x0C
02066:  CLRF   x0B
02068:  MOVLW  20
0206A:  MOVWF  x0A
0206C:  MOVLW  82
0206E:  MOVWF  x09
02070:  MOVLB  0
02072:  CALL   1762
02076:  MOVFF  03,533
0207A:  MOVFF  02,532
0207E:  MOVFF  01,531
02082:  MOVFF  00,530
....................    Ajuste2=Entero+Temporal; 
02086:  MOVLB  6
02088:  CLRF   x0A
0208A:  MOVFF  4D3,609
0208E:  MOVLB  0
02090:  CALL   172C
02094:  BCF    FD8.1
02096:  MOVFF  03,60C
0209A:  MOVFF  02,60B
0209E:  MOVFF  01,60A
020A2:  MOVFF  00,609
020A6:  MOVFF  533,610
020AA:  MOVFF  532,60F
020AE:  MOVFF  531,60E
020B2:  MOVFF  530,60D
020B6:  RCALL  18C0
020B8:  MOVFF  03,52F
020BC:  MOVFF  02,52E
020C0:  MOVFF  01,52D
020C4:  MOVFF  00,52C
....................     
....................    zero_actual=make16(read_eeprom(30),read_eeprom(29)); 
020C8:  MOVFF  FF2,5D4
020CC:  BCF    FF2.7
020CE:  CLRF   FAA
020D0:  MOVLW  1E
020D2:  MOVWF  FA9
020D4:  BCF    FA6.6
020D6:  BCF    FA6.7
020D8:  BSF    FA6.0
020DA:  MOVF   FA8,W
020DC:  MOVLB  5
020DE:  BTFSC  xD4.7
020E0:  BSF    FF2.7
020E2:  MOVWF  xD5
020E4:  MOVFF  FF2,5D6
020E8:  BCF    FF2.7
020EA:  CLRF   FAA
020EC:  MOVLW  1D
020EE:  MOVWF  FA9
020F0:  BCF    FA6.6
020F2:  BCF    FA6.7
020F4:  BSF    FA6.0
020F6:  MOVF   FA8,W
020F8:  BTFSC  xD6.7
020FA:  BSF    FF2.7
020FC:  MOVWF  xD7
020FE:  MOVFF  5D5,03
02102:  MOVF   xD7,W
02104:  MOVLB  6
02106:  MOVWF  x09
02108:  MOVFF  03,60A
0210C:  MOVLB  0
0210E:  CALL   172C
02112:  MOVFF  03,5B3
02116:  MOVFF  02,5B2
0211A:  MOVFF  01,5B1
0211E:  MOVFF  00,5B0
....................    delay_ms(10); 
02122:  MOVLW  0A
02124:  MOVLB  5
02126:  MOVWF  xDD
02128:  MOVLB  0
0212A:  CALL   1492
....................    minutos_trabajo=make16(read_eeprom(34),read_eeprom(33)); 
0212E:  MOVFF  FF2,5D4
02132:  BCF    FF2.7
02134:  CLRF   FAA
02136:  MOVLW  22
02138:  MOVWF  FA9
0213A:  BCF    FA6.6
0213C:  BCF    FA6.7
0213E:  BSF    FA6.0
02140:  MOVF   FA8,W
02142:  MOVLB  5
02144:  BTFSC  xD4.7
02146:  BSF    FF2.7
02148:  MOVWF  xD5
0214A:  MOVFF  FF2,5D6
0214E:  BCF    FF2.7
02150:  CLRF   FAA
02152:  MOVLW  21
02154:  MOVWF  FA9
02156:  BCF    FA6.6
02158:  BCF    FA6.7
0215A:  BSF    FA6.0
0215C:  MOVF   FA8,W
0215E:  BTFSC  xD6.7
02160:  BSF    FF2.7
02162:  MOVWF  xD7
02164:  MOVFF  5D5,4E1
02168:  MOVFF  5D7,4E0
....................    delay_ms(10); 
0216C:  MOVLW  0A
0216E:  MOVWF  xDD
02170:  MOVLB  0
02172:  CALL   1492
....................    minutos_uv=read_eeprom(31); 
02176:  MOVFF  FF2,5D4
0217A:  BCF    FF2.7
0217C:  CLRF   FAA
0217E:  MOVLW  1F
02180:  MOVWF  FA9
02182:  BCF    FA6.6
02184:  BCF    FA6.7
02186:  BSF    FA6.0
02188:  MOVF   FA8,W
0218A:  MOVLB  5
0218C:  BTFSC  xD4.7
0218E:  BSF    FF2.7
02190:  MOVLB  4
02192:  CLRF   xDF
02194:  MOVWF  xDE
....................    delay_ms(10); 
02196:  MOVLW  0A
02198:  MOVLB  5
0219A:  MOVWF  xDD
0219C:  MOVLB  0
0219E:  CALL   1492
....................    VelMotor=read_eeprom(32); 
021A2:  MOVFF  FF2,5D4
021A6:  BCF    FF2.7
021A8:  CLRF   FAA
021AA:  MOVLW  20
021AC:  MOVWF  FA9
021AE:  BCF    FA6.6
021B0:  BCF    FA6.7
021B2:  BSF    FA6.0
021B4:  MOVF   FA8,W
021B6:  MOVLB  5
021B8:  BTFSC  xD4.7
021BA:  BSF    FF2.7
021BC:  MOVWF  xCB
....................    delay_ms(10); 
021BE:  MOVLW  0A
021C0:  MOVWF  xDD
021C2:  MOVLB  0
021C4:  CALL   1492
....................     
....................    Diferencia=make16(read_eeprom(61),read_eeprom(60)); 
021C8:  MOVFF  FF2,5D4
021CC:  BCF    FF2.7
021CE:  CLRF   FAA
021D0:  MOVLW  3D
021D2:  MOVWF  FA9
021D4:  BCF    FA6.6
021D6:  BCF    FA6.7
021D8:  BSF    FA6.0
021DA:  MOVF   FA8,W
021DC:  MOVLB  5
021DE:  BTFSC  xD4.7
021E0:  BSF    FF2.7
021E2:  MOVWF  xD5
021E4:  MOVFF  FF2,5D6
021E8:  BCF    FF2.7
021EA:  CLRF   FAA
021EC:  MOVLW  3C
021EE:  MOVWF  FA9
021F0:  BCF    FA6.6
021F2:  BCF    FA6.7
021F4:  BSF    FA6.0
021F6:  MOVF   FA8,W
021F8:  BTFSC  xD6.7
021FA:  BSF    FF2.7
021FC:  MOVWF  xD7
021FE:  MOVFF  5D5,03
02202:  MOVF   xD7,W
02204:  MOVLB  6
02206:  MOVWF  x09
02208:  MOVFF  03,60A
0220C:  MOVLB  0
0220E:  CALL   172C
02212:  MOVFF  03,517
02216:  MOVFF  02,516
0221A:  MOVFF  01,515
0221E:  MOVFF  00,514
....................    delay_ms(10); 
02222:  MOVLW  0A
02224:  MOVLB  5
02226:  MOVWF  xDD
02228:  MOVLB  0
0222A:  CALL   1492
....................    G=make16(read_eeprom(63),read_eeprom(62)); 
0222E:  MOVFF  FF2,5D4
02232:  BCF    FF2.7
02234:  CLRF   FAA
02236:  MOVLW  3F
02238:  MOVWF  FA9
0223A:  BCF    FA6.6
0223C:  BCF    FA6.7
0223E:  BSF    FA6.0
02240:  MOVF   FA8,W
02242:  MOVLB  5
02244:  BTFSC  xD4.7
02246:  BSF    FF2.7
02248:  MOVWF  xD5
0224A:  MOVFF  FF2,5D6
0224E:  BCF    FF2.7
02250:  CLRF   FAA
02252:  MOVLW  3E
02254:  MOVWF  FA9
02256:  BCF    FA6.6
02258:  BCF    FA6.7
0225A:  BSF    FA6.0
0225C:  MOVF   FA8,W
0225E:  BTFSC  xD6.7
02260:  BSF    FF2.7
02262:  MOVWF  xD7
02264:  MOVFF  5D5,03
02268:  MOVF   xD7,W
0226A:  MOVLB  6
0226C:  MOVWF  x09
0226E:  MOVFF  03,60A
02272:  MOVLB  0
02274:  CALL   172C
02278:  MOVFF  03,5BF
0227C:  MOVFF  02,5BE
02280:  MOVFF  01,5BD
02284:  MOVFF  00,5BC
....................    delay_ms(10); 
02288:  MOVLW  0A
0228A:  MOVLB  5
0228C:  MOVWF  xDD
0228E:  MOVLB  0
02290:  CALL   1492
....................    negativo=read_eeprom(50); 
02294:  MOVFF  FF2,5D4
02298:  BCF    FF2.7
0229A:  CLRF   FAA
0229C:  MOVLW  32
0229E:  MOVWF  FA9
022A0:  BCF    FA6.6
022A2:  BCF    FA6.7
022A4:  BSF    FA6.0
022A6:  MOVF   FA8,W
022A8:  MOVLB  5
022AA:  BTFSC  xD4.7
022AC:  BSF    FF2.7
022AE:  MOVLB  4
022B0:  MOVWF  xCB
....................    delay_ms(10); 
022B2:  MOVLW  0A
022B4:  MOVLB  5
022B6:  MOVWF  xDD
022B8:  MOVLB  0
022BA:  CALL   1492
....................  
.................... } 
022BE:  GOTO   60BC (RETURN)
....................  
.................... void LimitaValores(void){ 
....................    if(Password[0]>9 || Password[0]<0){ 
*
0233C:  MOVLB  5
0233E:  BTFSC  x04.7
02340:  BRA    2348
02342:  MOVF   x04,W
02344:  SUBLW  09
02346:  BNC   234E
02348:  BTFSC  x04.7
0234A:  BRA    234E
0234C:  BRA    237A
....................       Password[0]=0;write_eeprom(0,0); 
0234E:  CLRF   x04
02350:  CLRF   FAA
02352:  CLRF   FA9
02354:  CLRF   FA8
02356:  BCF    FA6.6
02358:  BCF    FA6.7
0235A:  BSF    FA6.2
0235C:  MOVF   FF2,W
0235E:  MOVWF  00
02360:  BCF    FF2.7
02362:  MOVLB  F
02364:  MOVLW  55
02366:  MOVWF  FA7
02368:  MOVLW  AA
0236A:  MOVWF  FA7
0236C:  BSF    FA6.1
0236E:  BTFSC  FA6.1
02370:  BRA    236E
02372:  BCF    FA6.2
02374:  MOVF   00,W
02376:  IORWF  FF2,F
02378:  MOVLB  5
....................    } 
....................    if(Password[1]>9 || Password[1]<0){ 
0237A:  BTFSC  x05.7
0237C:  BRA    2384
0237E:  MOVF   x05,W
02380:  SUBLW  09
02382:  BNC   238A
02384:  BTFSC  x05.7
02386:  BRA    238A
02388:  BRA    23B8
....................       Password[1]=0;write_eeprom(1,0); 
0238A:  CLRF   x05
0238C:  CLRF   FAA
0238E:  MOVLW  01
02390:  MOVWF  FA9
02392:  CLRF   FA8
02394:  BCF    FA6.6
02396:  BCF    FA6.7
02398:  BSF    FA6.2
0239A:  MOVF   FF2,W
0239C:  MOVWF  00
0239E:  BCF    FF2.7
023A0:  MOVLB  F
023A2:  MOVLW  55
023A4:  MOVWF  FA7
023A6:  MOVLW  AA
023A8:  MOVWF  FA7
023AA:  BSF    FA6.1
023AC:  BTFSC  FA6.1
023AE:  BRA    23AC
023B0:  BCF    FA6.2
023B2:  MOVF   00,W
023B4:  IORWF  FF2,F
023B6:  MOVLB  5
....................    } 
....................    if(Password[2]>9 || Password[2]<0){ 
023B8:  BTFSC  x06.7
023BA:  BRA    23C2
023BC:  MOVF   x06,W
023BE:  SUBLW  09
023C0:  BNC   23C8
023C2:  BTFSC  x06.7
023C4:  BRA    23C8
023C6:  BRA    23F6
....................       Password[2]=0;write_eeprom(2,0); 
023C8:  CLRF   x06
023CA:  CLRF   FAA
023CC:  MOVLW  02
023CE:  MOVWF  FA9
023D0:  CLRF   FA8
023D2:  BCF    FA6.6
023D4:  BCF    FA6.7
023D6:  BSF    FA6.2
023D8:  MOVF   FF2,W
023DA:  MOVWF  00
023DC:  BCF    FF2.7
023DE:  MOVLB  F
023E0:  MOVLW  55
023E2:  MOVWF  FA7
023E4:  MOVLW  AA
023E6:  MOVWF  FA7
023E8:  BSF    FA6.1
023EA:  BTFSC  FA6.1
023EC:  BRA    23EA
023EE:  BCF    FA6.2
023F0:  MOVF   00,W
023F2:  IORWF  FF2,F
023F4:  MOVLB  5
....................    } 
....................    if(Password[3]>9 || Password[3]<0){ 
023F6:  BTFSC  x07.7
023F8:  BRA    2400
023FA:  MOVF   x07,W
023FC:  SUBLW  09
023FE:  BNC   2406
02400:  BTFSC  x07.7
02402:  BRA    2406
02404:  BRA    2432
....................       Password[3]=0;write_eeprom(3,0); 
02406:  CLRF   x07
02408:  CLRF   FAA
0240A:  MOVLW  03
0240C:  MOVWF  FA9
0240E:  CLRF   FA8
02410:  BCF    FA6.6
02412:  BCF    FA6.7
02414:  BSF    FA6.2
02416:  MOVF   FF2,W
02418:  MOVWF  00
0241A:  BCF    FF2.7
0241C:  MOVLB  F
0241E:  MOVLW  55
02420:  MOVWF  FA7
02422:  MOVLW  AA
02424:  MOVWF  FA7
02426:  BSF    FA6.1
02428:  BTFSC  FA6.1
0242A:  BRA    2428
0242C:  BCF    FA6.2
0242E:  MOVF   00,W
02430:  IORWF  FF2,F
....................    } 
....................    if(Tpurgap[0]>9 || Tpurgap[0]<0){ 
02432:  MOVLB  4
02434:  BTFSC  xE8.7
02436:  BRA    243E
02438:  MOVF   xE8,W
0243A:  SUBLW  09
0243C:  BNC   2444
0243E:  BTFSC  xE8.7
02440:  BRA    2444
02442:  BRA    2472
....................       Tpurgap[0]=0;write_eeprom(4,0); 
02444:  CLRF   xE8
02446:  CLRF   FAA
02448:  MOVLW  04
0244A:  MOVWF  FA9
0244C:  CLRF   FA8
0244E:  BCF    FA6.6
02450:  BCF    FA6.7
02452:  BSF    FA6.2
02454:  MOVF   FF2,W
02456:  MOVWF  00
02458:  BCF    FF2.7
0245A:  MOVLB  F
0245C:  MOVLW  55
0245E:  MOVWF  FA7
02460:  MOVLW  AA
02462:  MOVWF  FA7
02464:  BSF    FA6.1
02466:  BTFSC  FA6.1
02468:  BRA    2466
0246A:  BCF    FA6.2
0246C:  MOVF   00,W
0246E:  IORWF  FF2,F
02470:  MOVLB  4
....................    } 
....................    if(Tpurgap[1]>9 || Tpurgap[1]<0){ 
02472:  BTFSC  xE9.7
02474:  BRA    247C
02476:  MOVF   xE9,W
02478:  SUBLW  09
0247A:  BNC   2482
0247C:  BTFSC  xE9.7
0247E:  BRA    2482
02480:  BRA    24B0
....................       Tpurgap[1]=0;write_eeprom(5,0); 
02482:  CLRF   xE9
02484:  CLRF   FAA
02486:  MOVLW  05
02488:  MOVWF  FA9
0248A:  CLRF   FA8
0248C:  BCF    FA6.6
0248E:  BCF    FA6.7
02490:  BSF    FA6.2
02492:  MOVF   FF2,W
02494:  MOVWF  00
02496:  BCF    FF2.7
02498:  MOVLB  F
0249A:  MOVLW  55
0249C:  MOVWF  FA7
0249E:  MOVLW  AA
024A0:  MOVWF  FA7
024A2:  BSF    FA6.1
024A4:  BTFSC  FA6.1
024A6:  BRA    24A4
024A8:  BCF    FA6.2
024AA:  MOVF   00,W
024AC:  IORWF  FF2,F
024AE:  MOVLB  4
....................    } 
....................    if(Tpurgap[2]>9 || Tpurgap[2]<0){ 
024B0:  BTFSC  xEA.7
024B2:  BRA    24BA
024B4:  MOVF   xEA,W
024B6:  SUBLW  09
024B8:  BNC   24C0
024BA:  BTFSC  xEA.7
024BC:  BRA    24C0
024BE:  BRA    24F2
....................       Tpurgap[2]=2;write_eeprom(6,2); 
024C0:  MOVLW  02
024C2:  MOVWF  xEA
024C4:  CLRF   FAA
024C6:  MOVLW  06
024C8:  MOVWF  FA9
024CA:  MOVLW  02
024CC:  MOVWF  FA8
024CE:  BCF    FA6.6
024D0:  BCF    FA6.7
024D2:  BSF    FA6.2
024D4:  MOVF   FF2,W
024D6:  MOVWF  00
024D8:  BCF    FF2.7
024DA:  MOVLB  F
024DC:  MOVLW  55
024DE:  MOVWF  FA7
024E0:  MOVLW  AA
024E2:  MOVWF  FA7
024E4:  BSF    FA6.1
024E6:  BTFSC  FA6.1
024E8:  BRA    24E6
024EA:  BCF    FA6.2
024EC:  MOVF   00,W
024EE:  IORWF  FF2,F
024F0:  MOVLB  4
....................    } 
....................    if(Tpurgap[3]>9 || Tpurgap[3]<0){ 
024F2:  BTFSC  xEB.7
024F4:  BRA    24FC
024F6:  MOVF   xEB,W
024F8:  SUBLW  09
024FA:  BNC   2502
024FC:  BTFSC  xEB.7
024FE:  BRA    2502
02500:  BRA    2530
....................       Tpurgap[3]=0;write_eeprom(7,0); 
02502:  CLRF   xEB
02504:  CLRF   FAA
02506:  MOVLW  07
02508:  MOVWF  FA9
0250A:  CLRF   FA8
0250C:  BCF    FA6.6
0250E:  BCF    FA6.7
02510:  BSF    FA6.2
02512:  MOVF   FF2,W
02514:  MOVWF  00
02516:  BCF    FF2.7
02518:  MOVLB  F
0251A:  MOVLW  55
0251C:  MOVWF  FA7
0251E:  MOVLW  AA
02520:  MOVWF  FA7
02522:  BSF    FA6.1
02524:  BTFSC  FA6.1
02526:  BRA    2524
02528:  BCF    FA6.2
0252A:  MOVF   00,W
0252C:  IORWF  FF2,F
0252E:  MOVLB  4
....................    } 
....................    if(Tppurgap[0]>9 || Tppurgap[0]<0){ 
02530:  BTFSC  xF0.7
02532:  BRA    253A
02534:  MOVF   xF0,W
02536:  SUBLW  09
02538:  BNC   2540
0253A:  BTFSC  xF0.7
0253C:  BRA    2540
0253E:  BRA    256E
....................       Tppurgap[0]=0;write_eeprom(8,0); 
02540:  CLRF   xF0
02542:  CLRF   FAA
02544:  MOVLW  08
02546:  MOVWF  FA9
02548:  CLRF   FA8
0254A:  BCF    FA6.6
0254C:  BCF    FA6.7
0254E:  BSF    FA6.2
02550:  MOVF   FF2,W
02552:  MOVWF  00
02554:  BCF    FF2.7
02556:  MOVLB  F
02558:  MOVLW  55
0255A:  MOVWF  FA7
0255C:  MOVLW  AA
0255E:  MOVWF  FA7
02560:  BSF    FA6.1
02562:  BTFSC  FA6.1
02564:  BRA    2562
02566:  BCF    FA6.2
02568:  MOVF   00,W
0256A:  IORWF  FF2,F
0256C:  MOVLB  4
....................    } 
....................    if(Tppurgap[1]>9 || Tppurgap[1]<0){ 
0256E:  BTFSC  xF1.7
02570:  BRA    2578
02572:  MOVF   xF1,W
02574:  SUBLW  09
02576:  BNC   257E
02578:  BTFSC  xF1.7
0257A:  BRA    257E
0257C:  BRA    25AC
....................       Tppurgap[1]=0;write_eeprom(9,0); 
0257E:  CLRF   xF1
02580:  CLRF   FAA
02582:  MOVLW  09
02584:  MOVWF  FA9
02586:  CLRF   FA8
02588:  BCF    FA6.6
0258A:  BCF    FA6.7
0258C:  BSF    FA6.2
0258E:  MOVF   FF2,W
02590:  MOVWF  00
02592:  BCF    FF2.7
02594:  MOVLB  F
02596:  MOVLW  55
02598:  MOVWF  FA7
0259A:  MOVLW  AA
0259C:  MOVWF  FA7
0259E:  BSF    FA6.1
025A0:  BTFSC  FA6.1
025A2:  BRA    25A0
025A4:  BCF    FA6.2
025A6:  MOVF   00,W
025A8:  IORWF  FF2,F
025AA:  MOVLB  4
....................    } 
....................    if(Tppurgap[2]>9 || Tppurgap[2]<0){ 
025AC:  BTFSC  xF2.7
025AE:  BRA    25B6
025B0:  MOVF   xF2,W
025B2:  SUBLW  09
025B4:  BNC   25BC
025B6:  BTFSC  xF2.7
025B8:  BRA    25BC
025BA:  BRA    25EE
....................       Tppurgap[2]=2;write_eeprom(10,2); 
025BC:  MOVLW  02
025BE:  MOVWF  xF2
025C0:  CLRF   FAA
025C2:  MOVLW  0A
025C4:  MOVWF  FA9
025C6:  MOVLW  02
025C8:  MOVWF  FA8
025CA:  BCF    FA6.6
025CC:  BCF    FA6.7
025CE:  BSF    FA6.2
025D0:  MOVF   FF2,W
025D2:  MOVWF  00
025D4:  BCF    FF2.7
025D6:  MOVLB  F
025D8:  MOVLW  55
025DA:  MOVWF  FA7
025DC:  MOVLW  AA
025DE:  MOVWF  FA7
025E0:  BSF    FA6.1
025E2:  BTFSC  FA6.1
025E4:  BRA    25E2
025E6:  BCF    FA6.2
025E8:  MOVF   00,W
025EA:  IORWF  FF2,F
025EC:  MOVLB  4
....................    } 
....................    if(Tppurgap[3]>9 || Tppurgap[3]<0){ 
025EE:  BTFSC  xF3.7
025F0:  BRA    25F8
025F2:  MOVF   xF3,W
025F4:  SUBLW  09
025F6:  BNC   25FE
025F8:  BTFSC  xF3.7
025FA:  BRA    25FE
025FC:  BRA    262C
....................       Tppurgap[3]=0;write_eeprom(11,0); 
025FE:  CLRF   xF3
02600:  CLRF   FAA
02602:  MOVLW  0B
02604:  MOVWF  FA9
02606:  CLRF   FA8
02608:  BCF    FA6.6
0260A:  BCF    FA6.7
0260C:  BSF    FA6.2
0260E:  MOVF   FF2,W
02610:  MOVWF  00
02612:  BCF    FF2.7
02614:  MOVLB  F
02616:  MOVLW  55
02618:  MOVWF  FA7
0261A:  MOVLW  AA
0261C:  MOVWF  FA7
0261E:  BSF    FA6.1
02620:  BTFSC  FA6.1
02622:  BRA    2620
02624:  BCF    FA6.2
02626:  MOVF   00,W
02628:  IORWF  FF2,F
0262A:  MOVLB  4
....................    } 
....................    if(Tuv[0]>9 || Tuv[0]<0){ 
0262C:  BTFSC  xF4.7
0262E:  BRA    2636
02630:  MOVF   xF4,W
02632:  SUBLW  09
02634:  BNC   263C
02636:  BTFSC  xF4.7
02638:  BRA    263C
0263A:  BRA    266A
....................       Tuv[0]=0;write_eeprom(12,0); 
0263C:  CLRF   xF4
0263E:  CLRF   FAA
02640:  MOVLW  0C
02642:  MOVWF  FA9
02644:  CLRF   FA8
02646:  BCF    FA6.6
02648:  BCF    FA6.7
0264A:  BSF    FA6.2
0264C:  MOVF   FF2,W
0264E:  MOVWF  00
02650:  BCF    FF2.7
02652:  MOVLB  F
02654:  MOVLW  55
02656:  MOVWF  FA7
02658:  MOVLW  AA
0265A:  MOVWF  FA7
0265C:  BSF    FA6.1
0265E:  BTFSC  FA6.1
02660:  BRA    265E
02662:  BCF    FA6.2
02664:  MOVF   00,W
02666:  IORWF  FF2,F
02668:  MOVLB  4
....................    } 
....................    if(Tuv[1]>9 || Tuv[1]<0){ 
0266A:  BTFSC  xF5.7
0266C:  BRA    2674
0266E:  MOVF   xF5,W
02670:  SUBLW  09
02672:  BNC   267A
02674:  BTFSC  xF5.7
02676:  BRA    267A
02678:  BRA    26A8
....................       Tuv[1]=0;write_eeprom(13,0); 
0267A:  CLRF   xF5
0267C:  CLRF   FAA
0267E:  MOVLW  0D
02680:  MOVWF  FA9
02682:  CLRF   FA8
02684:  BCF    FA6.6
02686:  BCF    FA6.7
02688:  BSF    FA6.2
0268A:  MOVF   FF2,W
0268C:  MOVWF  00
0268E:  BCF    FF2.7
02690:  MOVLB  F
02692:  MOVLW  55
02694:  MOVWF  FA7
02696:  MOVLW  AA
02698:  MOVWF  FA7
0269A:  BSF    FA6.1
0269C:  BTFSC  FA6.1
0269E:  BRA    269C
026A0:  BCF    FA6.2
026A2:  MOVF   00,W
026A4:  IORWF  FF2,F
026A6:  MOVLB  4
....................    } 
....................    if(Tuv[2]>9 || Tuv[2]<0){ 
026A8:  BTFSC  xF6.7
026AA:  BRA    26B2
026AC:  MOVF   xF6,W
026AE:  SUBLW  09
026B0:  BNC   26B8
026B2:  BTFSC  xF6.7
026B4:  BRA    26B8
026B6:  BRA    26E6
....................       Tuv[2]=0;write_eeprom(14,0); 
026B8:  CLRF   xF6
026BA:  CLRF   FAA
026BC:  MOVLW  0E
026BE:  MOVWF  FA9
026C0:  CLRF   FA8
026C2:  BCF    FA6.6
026C4:  BCF    FA6.7
026C6:  BSF    FA6.2
026C8:  MOVF   FF2,W
026CA:  MOVWF  00
026CC:  BCF    FF2.7
026CE:  MOVLB  F
026D0:  MOVLW  55
026D2:  MOVWF  FA7
026D4:  MOVLW  AA
026D6:  MOVWF  FA7
026D8:  BSF    FA6.1
026DA:  BTFSC  FA6.1
026DC:  BRA    26DA
026DE:  BCF    FA6.2
026E0:  MOVF   00,W
026E2:  IORWF  FF2,F
026E4:  MOVLB  4
....................    } 
....................    if(Tuv[3]>9 || Tuv[3]<0){ 
026E6:  BTFSC  xF7.7
026E8:  BRA    26F0
026EA:  MOVF   xF7,W
026EC:  SUBLW  09
026EE:  BNC   26F6
026F0:  BTFSC  xF7.7
026F2:  BRA    26F6
026F4:  BRA    2724
....................       Tuv[3]=0;write_eeprom(15,0); 
026F6:  CLRF   xF7
026F8:  CLRF   FAA
026FA:  MOVLW  0F
026FC:  MOVWF  FA9
026FE:  CLRF   FA8
02700:  BCF    FA6.6
02702:  BCF    FA6.7
02704:  BSF    FA6.2
02706:  MOVF   FF2,W
02708:  MOVWF  00
0270A:  BCF    FF2.7
0270C:  MOVLB  F
0270E:  MOVLW  55
02710:  MOVWF  FA7
02712:  MOVLW  AA
02714:  MOVWF  FA7
02716:  BSF    FA6.1
02718:  BTFSC  FA6.1
0271A:  BRA    2718
0271C:  BCF    FA6.2
0271E:  MOVF   00,W
02720:  IORWF  FF2,F
02722:  MOVLB  4
....................    } 
....................    if(Ttrabajo[0]>9 || Ttrabajo[0]<0){ 
02724:  BTFSC  xFC.7
02726:  BRA    272E
02728:  MOVF   xFC,W
0272A:  SUBLW  09
0272C:  BNC   2734
0272E:  BTFSC  xFC.7
02730:  BRA    2734
02732:  BRA    2762
....................       Ttrabajo[0]=0;write_eeprom(16,0); 
02734:  CLRF   xFC
02736:  CLRF   FAA
02738:  MOVLW  10
0273A:  MOVWF  FA9
0273C:  CLRF   FA8
0273E:  BCF    FA6.6
02740:  BCF    FA6.7
02742:  BSF    FA6.2
02744:  MOVF   FF2,W
02746:  MOVWF  00
02748:  BCF    FF2.7
0274A:  MOVLB  F
0274C:  MOVLW  55
0274E:  MOVWF  FA7
02750:  MOVLW  AA
02752:  MOVWF  FA7
02754:  BSF    FA6.1
02756:  BTFSC  FA6.1
02758:  BRA    2756
0275A:  BCF    FA6.2
0275C:  MOVF   00,W
0275E:  IORWF  FF2,F
02760:  MOVLB  4
....................    } 
....................    if(Ttrabajo[1]>9 || Ttrabajo[1]<0){ 
02762:  BTFSC  xFD.7
02764:  BRA    276C
02766:  MOVF   xFD,W
02768:  SUBLW  09
0276A:  BNC   2772
0276C:  BTFSC  xFD.7
0276E:  BRA    2772
02770:  BRA    27A0
....................       Ttrabajo[1]=0;write_eeprom(17,0); 
02772:  CLRF   xFD
02774:  CLRF   FAA
02776:  MOVLW  11
02778:  MOVWF  FA9
0277A:  CLRF   FA8
0277C:  BCF    FA6.6
0277E:  BCF    FA6.7
02780:  BSF    FA6.2
02782:  MOVF   FF2,W
02784:  MOVWF  00
02786:  BCF    FF2.7
02788:  MOVLB  F
0278A:  MOVLW  55
0278C:  MOVWF  FA7
0278E:  MOVLW  AA
02790:  MOVWF  FA7
02792:  BSF    FA6.1
02794:  BTFSC  FA6.1
02796:  BRA    2794
02798:  BCF    FA6.2
0279A:  MOVF   00,W
0279C:  IORWF  FF2,F
0279E:  MOVLB  4
....................    } 
....................    if(Ttrabajo[2]>9 || Ttrabajo[2]<0){ 
027A0:  BTFSC  xFE.7
027A2:  BRA    27AA
027A4:  MOVF   xFE,W
027A6:  SUBLW  09
027A8:  BNC   27B0
027AA:  BTFSC  xFE.7
027AC:  BRA    27B0
027AE:  BRA    27DE
....................       Ttrabajo[2]=0;write_eeprom(18,0); 
027B0:  CLRF   xFE
027B2:  CLRF   FAA
027B4:  MOVLW  12
027B6:  MOVWF  FA9
027B8:  CLRF   FA8
027BA:  BCF    FA6.6
027BC:  BCF    FA6.7
027BE:  BSF    FA6.2
027C0:  MOVF   FF2,W
027C2:  MOVWF  00
027C4:  BCF    FF2.7
027C6:  MOVLB  F
027C8:  MOVLW  55
027CA:  MOVWF  FA7
027CC:  MOVLW  AA
027CE:  MOVWF  FA7
027D0:  BSF    FA6.1
027D2:  BTFSC  FA6.1
027D4:  BRA    27D2
027D6:  BCF    FA6.2
027D8:  MOVF   00,W
027DA:  IORWF  FF2,F
027DC:  MOVLB  4
....................    } 
....................    if(Ttrabajo[3]>9 || Ttrabajo[3]<0){ 
027DE:  BTFSC  xFF.7
027E0:  BRA    27E8
027E2:  MOVF   xFF,W
027E4:  SUBLW  09
027E6:  BNC   27EE
027E8:  BTFSC  xFF.7
027EA:  BRA    27EE
027EC:  BRA    281C
....................       Ttrabajo[3]=0;write_eeprom(19,0); 
027EE:  CLRF   xFF
027F0:  CLRF   FAA
027F2:  MOVLW  13
027F4:  MOVWF  FA9
027F6:  CLRF   FA8
027F8:  BCF    FA6.6
027FA:  BCF    FA6.7
027FC:  BSF    FA6.2
027FE:  MOVF   FF2,W
02800:  MOVWF  00
02802:  BCF    FF2.7
02804:  MOVLB  F
02806:  MOVLW  55
02808:  MOVWF  FA7
0280A:  MOVLW  AA
0280C:  MOVWF  FA7
0280E:  BSF    FA6.1
02810:  BTFSC  FA6.1
02812:  BRA    2810
02814:  BCF    FA6.2
02816:  MOVF   00,W
02818:  IORWF  FF2,F
0281A:  MOVLB  4
....................    } 
....................    if(Tempouvp[0]>9 || Tempouvp[0]<0){ 
0281C:  BTFSC  xF8.7
0281E:  BRA    2826
02820:  MOVF   xF8,W
02822:  SUBLW  09
02824:  BNC   282C
02826:  BTFSC  xF8.7
02828:  BRA    282C
0282A:  BRA    285A
....................       Tempouvp[0]=0;write_eeprom(21,0); 
0282C:  CLRF   xF8
0282E:  CLRF   FAA
02830:  MOVLW  15
02832:  MOVWF  FA9
02834:  CLRF   FA8
02836:  BCF    FA6.6
02838:  BCF    FA6.7
0283A:  BSF    FA6.2
0283C:  MOVF   FF2,W
0283E:  MOVWF  00
02840:  BCF    FF2.7
02842:  MOVLB  F
02844:  MOVLW  55
02846:  MOVWF  FA7
02848:  MOVLW  AA
0284A:  MOVWF  FA7
0284C:  BSF    FA6.1
0284E:  BTFSC  FA6.1
02850:  BRA    284E
02852:  BCF    FA6.2
02854:  MOVF   00,W
02856:  IORWF  FF2,F
02858:  MOVLB  4
....................    } 
....................    if(Tempouvp[1]>9 || Tempouvp[1]<0){ 
0285A:  BTFSC  xF9.7
0285C:  BRA    2864
0285E:  MOVF   xF9,W
02860:  SUBLW  09
02862:  BNC   286A
02864:  BTFSC  xF9.7
02866:  BRA    286A
02868:  BRA    2898
....................       Tempouvp[1]=0;write_eeprom(22,0); 
0286A:  CLRF   xF9
0286C:  CLRF   FAA
0286E:  MOVLW  16
02870:  MOVWF  FA9
02872:  CLRF   FA8
02874:  BCF    FA6.6
02876:  BCF    FA6.7
02878:  BSF    FA6.2
0287A:  MOVF   FF2,W
0287C:  MOVWF  00
0287E:  BCF    FF2.7
02880:  MOVLB  F
02882:  MOVLW  55
02884:  MOVWF  FA7
02886:  MOVLW  AA
02888:  MOVWF  FA7
0288A:  BSF    FA6.1
0288C:  BTFSC  FA6.1
0288E:  BRA    288C
02890:  BCF    FA6.2
02892:  MOVF   00,W
02894:  IORWF  FF2,F
02896:  MOVLB  4
....................    } 
....................    if(Tempouvp[2]>9 || Tempouvp[2]<0){ 
02898:  BTFSC  xFA.7
0289A:  BRA    28A2
0289C:  MOVF   xFA,W
0289E:  SUBLW  09
028A0:  BNC   28A8
028A2:  BTFSC  xFA.7
028A4:  BRA    28A8
028A6:  BRA    28D6
....................       Tempouvp[2]=0;write_eeprom(23,0); 
028A8:  CLRF   xFA
028AA:  CLRF   FAA
028AC:  MOVLW  17
028AE:  MOVWF  FA9
028B0:  CLRF   FA8
028B2:  BCF    FA6.6
028B4:  BCF    FA6.7
028B6:  BSF    FA6.2
028B8:  MOVF   FF2,W
028BA:  MOVWF  00
028BC:  BCF    FF2.7
028BE:  MOVLB  F
028C0:  MOVLW  55
028C2:  MOVWF  FA7
028C4:  MOVLW  AA
028C6:  MOVWF  FA7
028C8:  BSF    FA6.1
028CA:  BTFSC  FA6.1
028CC:  BRA    28CA
028CE:  BCF    FA6.2
028D0:  MOVF   00,W
028D2:  IORWF  FF2,F
028D4:  MOVLB  4
....................    } 
....................    if(Tempouvp[3]>9 || Tempouvp[3]<0){ 
028D6:  BTFSC  xFB.7
028D8:  BRA    28E0
028DA:  MOVF   xFB,W
028DC:  SUBLW  09
028DE:  BNC   28E6
028E0:  BTFSC  xFB.7
028E2:  BRA    28E6
028E4:  BRA    2916
....................       Tempouvp[3]=1;write_eeprom(24,1); 
028E6:  MOVLW  01
028E8:  MOVWF  xFB
028EA:  CLRF   FAA
028EC:  MOVLW  18
028EE:  MOVWF  FA9
028F0:  MOVLW  01
028F2:  MOVWF  FA8
028F4:  BCF    FA6.6
028F6:  BCF    FA6.7
028F8:  BSF    FA6.2
028FA:  MOVF   FF2,W
028FC:  MOVWF  00
028FE:  BCF    FF2.7
02900:  MOVLB  F
02902:  MOVLW  55
02904:  MOVWF  FA7
02906:  MOVLW  AA
02908:  MOVWF  FA7
0290A:  BSF    FA6.1
0290C:  BTFSC  FA6.1
0290E:  BRA    290C
02910:  BCF    FA6.2
02912:  MOVF   00,W
02914:  IORWF  FF2,F
....................    } 
....................    if(Ajuste1>25.0){ 
02916:  MOVLB  6
02918:  CLRF   x08
0291A:  CLRF   x07
0291C:  MOVLW  48
0291E:  MOVWF  x06
02920:  MOVLW  83
02922:  MOVWF  x05
02924:  MOVFF  52B,60C
02928:  MOVFF  52A,60B
0292C:  MOVFF  529,60A
02930:  MOVFF  528,609
02934:  MOVLB  0
02936:  RCALL  22C2
02938:  BNC   299E
....................       Ajuste1=1.5;write_eeprom(25,1);write_eeprom(26,5); 
0293A:  MOVLB  5
0293C:  CLRF   x2B
0293E:  CLRF   x2A
02940:  MOVLW  40
02942:  MOVWF  x29
02944:  MOVLW  7F
02946:  MOVWF  x28
02948:  CLRF   FAA
0294A:  MOVLW  19
0294C:  MOVWF  FA9
0294E:  MOVLW  01
02950:  MOVWF  FA8
02952:  BCF    FA6.6
02954:  BCF    FA6.7
02956:  BSF    FA6.2
02958:  MOVF   FF2,W
0295A:  MOVWF  00
0295C:  BCF    FF2.7
0295E:  MOVLB  F
02960:  MOVLW  55
02962:  MOVWF  FA7
02964:  MOVLW  AA
02966:  MOVWF  FA7
02968:  BSF    FA6.1
0296A:  BTFSC  FA6.1
0296C:  BRA    296A
0296E:  BCF    FA6.2
02970:  MOVF   00,W
02972:  IORWF  FF2,F
02974:  CLRF   FAA
02976:  MOVLW  1A
02978:  MOVWF  FA9
0297A:  MOVLW  05
0297C:  MOVWF  FA8
0297E:  BCF    FA6.6
02980:  BCF    FA6.7
02982:  BSF    FA6.2
02984:  MOVF   FF2,W
02986:  MOVWF  00
02988:  BCF    FF2.7
0298A:  MOVLW  55
0298C:  MOVWF  FA7
0298E:  MOVLW  AA
02990:  MOVWF  FA7
02992:  BSF    FA6.1
02994:  BTFSC  FA6.1
02996:  BRA    2994
02998:  BCF    FA6.2
0299A:  MOVF   00,W
0299C:  IORWF  FF2,F
....................    } 
....................    if(Ajuste2>25.0){ 
0299E:  MOVLB  6
029A0:  CLRF   x08
029A2:  CLRF   x07
029A4:  MOVLW  48
029A6:  MOVWF  x06
029A8:  MOVLW  83
029AA:  MOVWF  x05
029AC:  MOVFF  52F,60C
029B0:  MOVFF  52E,60B
029B4:  MOVFF  52D,60A
029B8:  MOVFF  52C,609
029BC:  MOVLB  0
029BE:  RCALL  22C2
029C0:  BNC   2A22
....................       Ajuste2=1.0;write_eeprom(27,1);write_eeprom(28,0); 
029C2:  MOVLB  5
029C4:  CLRF   x2F
029C6:  CLRF   x2E
029C8:  CLRF   x2D
029CA:  MOVLW  7F
029CC:  MOVWF  x2C
029CE:  CLRF   FAA
029D0:  MOVLW  1B
029D2:  MOVWF  FA9
029D4:  MOVLW  01
029D6:  MOVWF  FA8
029D8:  BCF    FA6.6
029DA:  BCF    FA6.7
029DC:  BSF    FA6.2
029DE:  MOVF   FF2,W
029E0:  MOVWF  00
029E2:  BCF    FF2.7
029E4:  MOVLB  F
029E6:  MOVLW  55
029E8:  MOVWF  FA7
029EA:  MOVLW  AA
029EC:  MOVWF  FA7
029EE:  BSF    FA6.1
029F0:  BTFSC  FA6.1
029F2:  BRA    29F0
029F4:  BCF    FA6.2
029F6:  MOVF   00,W
029F8:  IORWF  FF2,F
029FA:  CLRF   FAA
029FC:  MOVLW  1C
029FE:  MOVWF  FA9
02A00:  CLRF   FA8
02A02:  BCF    FA6.6
02A04:  BCF    FA6.7
02A06:  BSF    FA6.2
02A08:  MOVF   FF2,W
02A0A:  MOVWF  00
02A0C:  BCF    FF2.7
02A0E:  MOVLW  55
02A10:  MOVWF  FA7
02A12:  MOVLW  AA
02A14:  MOVWF  FA7
02A16:  BSF    FA6.1
02A18:  BTFSC  FA6.1
02A1A:  BRA    2A18
02A1C:  BCF    FA6.2
02A1E:  MOVF   00,W
02A20:  IORWF  FF2,F
....................    } 
....................    if(zero_actual>300){ 
02A22:  MOVLB  6
02A24:  CLRF   x08
02A26:  CLRF   x07
02A28:  MOVLW  16
02A2A:  MOVWF  x06
02A2C:  MOVLW  87
02A2E:  MOVWF  x05
02A30:  MOVFF  5B3,60C
02A34:  MOVFF  5B2,60B
02A38:  MOVFF  5B1,60A
02A3C:  MOVFF  5B0,609
02A40:  MOVLB  0
02A42:  RCALL  22C2
02A44:  BNC   2AA8
....................       zero_actual=203;write_eeprom(29,203);write_eeprom(30,0); 
02A46:  MOVLB  5
02A48:  CLRF   xB3
02A4A:  CLRF   xB2
02A4C:  MOVLW  4B
02A4E:  MOVWF  xB1
02A50:  MOVLW  86
02A52:  MOVWF  xB0
02A54:  CLRF   FAA
02A56:  MOVLW  1D
02A58:  MOVWF  FA9
02A5A:  MOVLW  CB
02A5C:  MOVWF  FA8
02A5E:  BCF    FA6.6
02A60:  BCF    FA6.7
02A62:  BSF    FA6.2
02A64:  MOVF   FF2,W
02A66:  MOVWF  00
02A68:  BCF    FF2.7
02A6A:  MOVLB  F
02A6C:  MOVLW  55
02A6E:  MOVWF  FA7
02A70:  MOVLW  AA
02A72:  MOVWF  FA7
02A74:  BSF    FA6.1
02A76:  BTFSC  FA6.1
02A78:  BRA    2A76
02A7A:  BCF    FA6.2
02A7C:  MOVF   00,W
02A7E:  IORWF  FF2,F
02A80:  CLRF   FAA
02A82:  MOVLW  1E
02A84:  MOVWF  FA9
02A86:  CLRF   FA8
02A88:  BCF    FA6.6
02A8A:  BCF    FA6.7
02A8C:  BSF    FA6.2
02A8E:  MOVF   FF2,W
02A90:  MOVWF  00
02A92:  BCF    FF2.7
02A94:  MOVLW  55
02A96:  MOVWF  FA7
02A98:  MOVLW  AA
02A9A:  MOVWF  FA7
02A9C:  BSF    FA6.1
02A9E:  BTFSC  FA6.1
02AA0:  BRA    2A9E
02AA2:  BCF    FA6.2
02AA4:  MOVF   00,W
02AA6:  IORWF  FF2,F
....................    } 
....................    if(minutos_uv>60){ 
02AA8:  MOVLB  4
02AAA:  MOVF   xDF,F
02AAC:  BNZ   2AB4
02AAE:  MOVF   xDE,W
02AB0:  SUBLW  3C
02AB2:  BC    2AE2
....................       minutos_uv=0;write_eeprom(31,0); 
02AB4:  CLRF   xDF
02AB6:  CLRF   xDE
02AB8:  CLRF   FAA
02ABA:  MOVLW  1F
02ABC:  MOVWF  FA9
02ABE:  CLRF   FA8
02AC0:  BCF    FA6.6
02AC2:  BCF    FA6.7
02AC4:  BSF    FA6.2
02AC6:  MOVF   FF2,W
02AC8:  MOVWF  00
02ACA:  BCF    FF2.7
02ACC:  MOVLB  F
02ACE:  MOVLW  55
02AD0:  MOVWF  FA7
02AD2:  MOVLW  AA
02AD4:  MOVWF  FA7
02AD6:  BSF    FA6.1
02AD8:  BTFSC  FA6.1
02ADA:  BRA    2AD8
02ADC:  BCF    FA6.2
02ADE:  MOVF   00,W
02AE0:  IORWF  FF2,F
....................    } 
....................    if(VelMotor>6){ 
02AE2:  MOVLB  5
02AE4:  MOVF   xCB,W
02AE6:  SUBLW  06
02AE8:  BC    2B1A
....................       VelMotor=2;write_eeprom(32,2); 
02AEA:  MOVLW  02
02AEC:  MOVWF  xCB
02AEE:  CLRF   FAA
02AF0:  MOVLW  20
02AF2:  MOVWF  FA9
02AF4:  MOVLW  02
02AF6:  MOVWF  FA8
02AF8:  BCF    FA6.6
02AFA:  BCF    FA6.7
02AFC:  BSF    FA6.2
02AFE:  MOVF   FF2,W
02B00:  MOVWF  00
02B02:  BCF    FF2.7
02B04:  MOVLB  F
02B06:  MOVLW  55
02B08:  MOVWF  FA7
02B0A:  MOVLW  AA
02B0C:  MOVWF  FA7
02B0E:  BSF    FA6.1
02B10:  BTFSC  FA6.1
02B12:  BRA    2B10
02B14:  BCF    FA6.2
02B16:  MOVF   00,W
02B18:  IORWF  FF2,F
....................    }    
....................    if(minutos_trabajo>3600){ 
02B1A:  MOVLB  4
02B1C:  MOVF   xE1,W
02B1E:  SUBLW  0D
02B20:  BC    2B82
02B22:  XORLW  FF
02B24:  BNZ   2B2C
02B26:  MOVF   xE0,W
02B28:  SUBLW  10
02B2A:  BC    2B82
....................       minutos_trabajo=0;write_eeprom(33,0);write_eeprom(34,0); 
02B2C:  CLRF   xE1
02B2E:  CLRF   xE0
02B30:  CLRF   FAA
02B32:  MOVLW  21
02B34:  MOVWF  FA9
02B36:  CLRF   FA8
02B38:  BCF    FA6.6
02B3A:  BCF    FA6.7
02B3C:  BSF    FA6.2
02B3E:  MOVF   FF2,W
02B40:  MOVWF  00
02B42:  BCF    FF2.7
02B44:  MOVLB  F
02B46:  MOVLW  55
02B48:  MOVWF  FA7
02B4A:  MOVLW  AA
02B4C:  MOVWF  FA7
02B4E:  BSF    FA6.1
02B50:  BTFSC  FA6.1
02B52:  BRA    2B50
02B54:  BCF    FA6.2
02B56:  MOVF   00,W
02B58:  IORWF  FF2,F
02B5A:  CLRF   FAA
02B5C:  MOVLW  22
02B5E:  MOVWF  FA9
02B60:  CLRF   FA8
02B62:  BCF    FA6.6
02B64:  BCF    FA6.7
02B66:  BSF    FA6.2
02B68:  MOVF   FF2,W
02B6A:  MOVWF  00
02B6C:  BCF    FF2.7
02B6E:  MOVLW  55
02B70:  MOVWF  FA7
02B72:  MOVLW  AA
02B74:  MOVWF  FA7
02B76:  BSF    FA6.1
02B78:  BTFSC  FA6.1
02B7A:  BRA    2B78
02B7C:  BCF    FA6.2
02B7E:  MOVF   00,W
02B80:  IORWF  FF2,F
....................    } 
....................    //if(Relacion>2.0){ 
....................       //Relacion=0.57;write_eeprom(35,0);write_eeprom(36,57); 
....................    //} 
....................    if(Diferencia>200){ 
02B82:  MOVLB  6
02B84:  CLRF   x08
02B86:  CLRF   x07
02B88:  MOVLW  48
02B8A:  MOVWF  x06
02B8C:  MOVLW  86
02B8E:  MOVWF  x05
02B90:  MOVFF  517,60C
02B94:  MOVFF  516,60B
02B98:  MOVFF  515,60A
02B9C:  MOVFF  514,609
02BA0:  MOVLB  0
02BA2:  CALL   22C2
02BA6:  BNC   2C04
....................       Diferencia=0;write_eeprom(60,0);write_eeprom(61,0); 
02BA8:  MOVLB  5
02BAA:  CLRF   x17
02BAC:  CLRF   x16
02BAE:  CLRF   x15
02BB0:  CLRF   x14
02BB2:  CLRF   FAA
02BB4:  MOVLW  3C
02BB6:  MOVWF  FA9
02BB8:  CLRF   FA8
02BBA:  BCF    FA6.6
02BBC:  BCF    FA6.7
02BBE:  BSF    FA6.2
02BC0:  MOVF   FF2,W
02BC2:  MOVWF  00
02BC4:  BCF    FF2.7
02BC6:  MOVLB  F
02BC8:  MOVLW  55
02BCA:  MOVWF  FA7
02BCC:  MOVLW  AA
02BCE:  MOVWF  FA7
02BD0:  BSF    FA6.1
02BD2:  BTFSC  FA6.1
02BD4:  BRA    2BD2
02BD6:  BCF    FA6.2
02BD8:  MOVF   00,W
02BDA:  IORWF  FF2,F
02BDC:  CLRF   FAA
02BDE:  MOVLW  3D
02BE0:  MOVWF  FA9
02BE2:  CLRF   FA8
02BE4:  BCF    FA6.6
02BE6:  BCF    FA6.7
02BE8:  BSF    FA6.2
02BEA:  MOVF   FF2,W
02BEC:  MOVWF  00
02BEE:  BCF    FF2.7
02BF0:  MOVLW  55
02BF2:  MOVWF  FA7
02BF4:  MOVLW  AA
02BF6:  MOVWF  FA7
02BF8:  BSF    FA6.1
02BFA:  BTFSC  FA6.1
02BFC:  BRA    2BFA
02BFE:  BCF    FA6.2
02C00:  MOVF   00,W
02C02:  IORWF  FF2,F
....................    } 
....................    if(G>900){ 
02C04:  MOVLB  6
02C06:  CLRF   x08
02C08:  CLRF   x07
02C0A:  MOVLW  61
02C0C:  MOVWF  x06
02C0E:  MOVLW  88
02C10:  MOVWF  x05
02C12:  MOVFF  5BF,60C
02C16:  MOVFF  5BE,60B
02C1A:  MOVFF  5BD,60A
02C1E:  MOVFF  5BC,609
02C22:  MOVLB  0
02C24:  CALL   22C2
02C28:  BNC   2C8C
....................       G=240;write_eeprom(62,240);write_eeprom(63,0); 
02C2A:  MOVLB  5
02C2C:  CLRF   xBF
02C2E:  CLRF   xBE
02C30:  MOVLW  70
02C32:  MOVWF  xBD
02C34:  MOVLW  86
02C36:  MOVWF  xBC
02C38:  CLRF   FAA
02C3A:  MOVLW  3E
02C3C:  MOVWF  FA9
02C3E:  MOVLW  F0
02C40:  MOVWF  FA8
02C42:  BCF    FA6.6
02C44:  BCF    FA6.7
02C46:  BSF    FA6.2
02C48:  MOVF   FF2,W
02C4A:  MOVWF  00
02C4C:  BCF    FF2.7
02C4E:  MOVLB  F
02C50:  MOVLW  55
02C52:  MOVWF  FA7
02C54:  MOVLW  AA
02C56:  MOVWF  FA7
02C58:  BSF    FA6.1
02C5A:  BTFSC  FA6.1
02C5C:  BRA    2C5A
02C5E:  BCF    FA6.2
02C60:  MOVF   00,W
02C62:  IORWF  FF2,F
02C64:  CLRF   FAA
02C66:  MOVLW  3F
02C68:  MOVWF  FA9
02C6A:  CLRF   FA8
02C6C:  BCF    FA6.6
02C6E:  BCF    FA6.7
02C70:  BSF    FA6.2
02C72:  MOVF   FF2,W
02C74:  MOVWF  00
02C76:  BCF    FF2.7
02C78:  MOVLW  55
02C7A:  MOVWF  FA7
02C7C:  MOVLW  AA
02C7E:  MOVWF  FA7
02C80:  BSF    FA6.1
02C82:  BTFSC  FA6.1
02C84:  BRA    2C82
02C86:  BCF    FA6.2
02C88:  MOVF   00,W
02C8A:  IORWF  FF2,F
....................    } 
....................    if(negativo>20){ 
02C8C:  MOVLB  4
02C8E:  MOVF   xCB,W
02C90:  SUBLW  14
02C92:  BC    2CC6
....................       negativo=10;write_eeprom(50,10); 
02C94:  MOVLW  0A
02C96:  MOVWF  xCB
02C98:  CLRF   FAA
02C9A:  MOVLW  32
02C9C:  MOVWF  FA9
02C9E:  MOVLW  0A
02CA0:  MOVWF  FA8
02CA2:  BCF    FA6.6
02CA4:  BCF    FA6.7
02CA6:  BSF    FA6.2
02CA8:  MOVF   FF2,W
02CAA:  MOVWF  00
02CAC:  BCF    FF2.7
02CAE:  MOVLB  F
02CB0:  MOVLW  55
02CB2:  MOVWF  FA7
02CB4:  MOVLW  AA
02CB6:  MOVWF  FA7
02CB8:  BSF    FA6.1
02CBA:  BTFSC  FA6.1
02CBC:  BRA    2CBA
02CBE:  BCF    FA6.2
02CC0:  MOVF   00,W
02CC2:  IORWF  FF2,F
02CC4:  MOVLB  4
....................    } 
.................... } 
02CC6:  MOVLB  0
02CC8:  GOTO   60C0 (RETURN)
....................  
.................... void VelocidadMotor(int8 Vel){ 
....................    if(Vel==6){ 
*
014BA:  MOVLB  5
014BC:  MOVF   xD4,W
014BE:  SUBLW  06
014C0:  BNZ   14CA
....................       Porcentaje=0; 
014C2:  CLRF   xCA
....................       Motor_on; 
014C4:  BSF    F8B.2
014C6:  BCF    F94.2
....................    }else if(Vel==5){ 
014C8:  BRA    1538
014CA:  MOVF   xD4,W
014CC:  SUBLW  05
014CE:  BNZ   14DE
....................       Porcentaje=15; 
014D0:  MOVLW  0F
014D2:  MOVWF  xCA
....................       retardo=2000; 
014D4:  MOVLW  07
014D6:  MOVWF  xC3
014D8:  MOVLW  D0
014DA:  MOVWF  xC2
....................    }else if(Vel==4){ 
014DC:  BRA    1538
014DE:  MOVF   xD4,W
014E0:  SUBLW  04
014E2:  BNZ   14F2
....................       Porcentaje=25; 
014E4:  MOVLW  19
014E6:  MOVWF  xCA
....................       retardo=3000; 
014E8:  MOVLW  0B
014EA:  MOVWF  xC3
014EC:  MOVLW  B8
014EE:  MOVWF  xC2
....................    }else if(Vel==3){ 
014F0:  BRA    1538
014F2:  MOVF   xD4,W
014F4:  SUBLW  03
014F6:  BNZ   1506
....................       Porcentaje=35; 
014F8:  MOVLW  23
014FA:  MOVWF  xCA
....................       retardo=3600; 
014FC:  MOVLW  0E
014FE:  MOVWF  xC3
01500:  MOVLW  10
01502:  MOVWF  xC2
....................    }else if(Vel==2){ 
01504:  BRA    1538
01506:  MOVF   xD4,W
01508:  SUBLW  02
0150A:  BNZ   151A
....................       Porcentaje=45; 
0150C:  MOVLW  2D
0150E:  MOVWF  xCA
....................       retardo=4300; 
01510:  MOVLW  10
01512:  MOVWF  xC3
01514:  MOVLW  CC
01516:  MOVWF  xC2
....................    }else if(Vel==1){ 
01518:  BRA    1538
0151A:  DECFSZ xD4,W
0151C:  BRA    152C
....................       Porcentaje=50; 
0151E:  MOVLW  32
01520:  MOVWF  xCA
....................       retardo=5000; 
01522:  MOVLW  13
01524:  MOVWF  xC3
01526:  MOVLW  88
01528:  MOVWF  xC2
....................    }else if(Vel==0){ 
0152A:  BRA    1538
0152C:  MOVF   xD4,F
0152E:  BNZ   1538
....................       Porcentaje=100; 
01530:  MOVLW  64
01532:  MOVWF  xCA
....................       Motor_off; 
01534:  BCF    F8B.2
01536:  BCF    F94.2
....................    } 
.................... } 
01538:  MOVLB  0
0153A:  RETLW  00
....................  
.................... short PidePassword(int8 MenuAnt, int8 MenuActual, int8 MenuPost, int8 clave0,int8 clave1, int8 clave2,int8 clave3){ 
....................       if(n==0) 
*
04D6A:  MOVLB  4
04D6C:  BTFSC  x2F.0
04D6E:  BRA    4E06
....................       { 
....................          displayContrasena(Contrasena[0],20,30,1);displayContrasena(Contrasena[1],40,30,0); 
04D70:  MOVFF  500,5DE
04D74:  MOVLW  14
04D76:  MOVLB  5
04D78:  MOVWF  xDF
04D7A:  MOVLW  1E
04D7C:  MOVWF  xE0
04D7E:  MOVLW  01
04D80:  MOVWF  xE1
04D82:  MOVLB  0
04D84:  RCALL  4BE6
04D86:  MOVFF  501,5DE
04D8A:  MOVLW  28
04D8C:  MOVLB  5
04D8E:  MOVWF  xDF
04D90:  MOVLW  1E
04D92:  MOVWF  xE0
04D94:  CLRF   xE1
04D96:  MOVLB  0
04D98:  RCALL  4BE6
....................          displayContrasena(Contrasena[2],60,30,0);displayContrasena(Contrasena[0],80,30,0); 
04D9A:  MOVFF  502,5DE
04D9E:  MOVLW  3C
04DA0:  MOVLB  5
04DA2:  MOVWF  xDF
04DA4:  MOVLW  1E
04DA6:  MOVWF  xE0
04DA8:  CLRF   xE1
04DAA:  MOVLB  0
04DAC:  RCALL  4BE6
04DAE:  MOVFF  500,5DE
04DB2:  MOVLW  50
04DB4:  MOVLB  5
04DB6:  MOVWF  xDF
04DB8:  MOVLW  1E
04DBA:  MOVWF  xE0
04DBC:  CLRF   xE1
04DBE:  MOVLB  0
04DC0:  RCALL  4BE6
....................          strcpy(Menus.Letra,"Clave"); 
04DC2:  MOVLW  04
04DC4:  MOVWF  FEA
04DC6:  MOVLW  16
04DC8:  MOVWF  FE9
04DCA:  MOVFF  FF2,5DC
04DCE:  BCF    FF2.7
04DD0:  MOVLW  00
04DD2:  CALL   0EEE
04DD6:  TBLRD*-
04DD8:  TBLRD*+
04DDA:  MOVF   FF5,W
04DDC:  MOVWF  FEE
04DDE:  IORLW  00
04DE0:  BNZ   4DD8
04DE2:  MOVLB  5
04DE4:  BTFSC  xDC.7
04DE6:  BSF    FF2.7
....................          displayMenu(Menus.Letra,20,0,1,3); 
04DE8:  MOVLW  04
04DEA:  MOVWF  xDD
04DEC:  MOVLW  16
04DEE:  MOVWF  xDC
04DF0:  MOVLW  14
04DF2:  MOVWF  xDE
04DF4:  CLRF   xDF
04DF6:  MOVLW  01
04DF8:  MOVWF  xE0
04DFA:  MOVLW  03
04DFC:  MOVWF  xE1
04DFE:  MOVLB  0
04E00:  RCALL  4C9E
....................          n=1; 
04E02:  MOVLB  4
04E04:  BSF    x2F.0
....................       } 
....................        
....................       if(UP){ 
04E06:  BSF    F92.5
04E08:  BTFSC  F80.5
04E0A:  BRA    4EDC
....................          flag_latencia=0;t_latencia=0; 
04E0C:  BCF    x2D.7
04E0E:  CLRF   xDD
04E10:  CLRF   xDC
....................          if(Flanco == 0){ 
04E12:  BTFSC  x2C.0
04E14:  BRA    4EDA
....................             Flanco = 1;delay_ms(5); 
04E16:  BSF    x2C.0
04E18:  MOVLW  05
04E1A:  MOVLB  5
04E1C:  MOVWF  xDD
04E1E:  MOVLB  0
04E20:  CALL   1492
....................             for(i=1;i<=4;i++){ 
04E24:  MOVLW  01
04E26:  MOVLB  5
04E28:  MOVWF  xC4
04E2A:  MOVF   xC4,W
04E2C:  SUBLW  04
04E2E:  BNC   4ED8
....................                if(unidad==i){ 
04E30:  MOVF   xC4,W
04E32:  MOVLB  4
04E34:  SUBWF  xC9,W
04E36:  BNZ   4EA4
....................                   Contrasena[i-1]++; 
04E38:  MOVLW  01
04E3A:  MOVLB  5
04E3C:  SUBWF  xC4,W
04E3E:  CLRF   03
04E40:  MOVWF  FE9
04E42:  MOVLW  05
04E44:  ADDWF  03,W
04E46:  MOVWF  FEA
04E48:  INCF   FEF,F
....................                   if(Contrasena[i-1]>9){ 
04E4A:  MOVLW  01
04E4C:  SUBWF  xC4,W
04E4E:  CLRF   03
04E50:  MOVWF  FE9
04E52:  MOVLW  05
04E54:  ADDWF  03,W
04E56:  MOVWF  FEA
04E58:  BTFSC  FEF.7
04E5A:  BRA    4E72
04E5C:  MOVF   FEF,W
04E5E:  SUBLW  09
04E60:  BC    4E72
....................                      Contrasena[i-1]=0; 
04E62:  MOVLW  01
04E64:  SUBWF  xC4,W
04E66:  CLRF   03
04E68:  MOVWF  FE9
04E6A:  MOVLW  05
04E6C:  ADDWF  03,W
04E6E:  MOVWF  FEA
04E70:  CLRF   FEF
....................                   } 
....................                   displayContrasena(Contrasena[i-1],i*20,30,1); 
04E72:  MOVLW  01
04E74:  SUBWF  xC4,W
04E76:  CLRF   03
04E78:  MOVWF  FE9
04E7A:  MOVLW  05
04E7C:  ADDWF  03,W
04E7E:  MOVWF  FEA
04E80:  MOVFF  FEF,5DC
04E84:  MOVF   xC4,W
04E86:  MULLW  14
04E88:  MOVFF  FF3,5DD
04E8C:  MOVFF  5DC,5DE
04E90:  MOVFF  5DD,5DF
04E94:  MOVLW  1E
04E96:  MOVWF  xE0
04E98:  MOVLW  01
04E9A:  MOVWF  xE1
04E9C:  MOVLB  0
04E9E:  RCALL  4BE6
....................                }else{ 
04EA0:  BRA    4ED2
04EA2:  MOVLB  4
....................                   displayContrasena(Contrasena[i-1],i*20,30,0); 
04EA4:  MOVLW  01
04EA6:  MOVLB  5
04EA8:  SUBWF  xC4,W
04EAA:  CLRF   03
04EAC:  MOVWF  FE9
04EAE:  MOVLW  05
04EB0:  ADDWF  03,W
04EB2:  MOVWF  FEA
04EB4:  MOVFF  FEF,5DC
04EB8:  MOVF   xC4,W
04EBA:  MULLW  14
04EBC:  MOVFF  FF3,5DD
04EC0:  MOVFF  5DC,5DE
04EC4:  MOVFF  5DD,5DF
04EC8:  MOVLW  1E
04ECA:  MOVWF  xE0
04ECC:  CLRF   xE1
04ECE:  MOVLB  0
04ED0:  RCALL  4BE6
....................                } 
....................             } 
04ED2:  MOVLB  5
04ED4:  INCF   xC4,F
04ED6:  BRA    4E2A
04ED8:  MOVLB  4
....................          } 
....................       }else{ 
04EDA:  BRA    4EDE
....................          Flanco = 0; 
04EDC:  BCF    x2C.0
....................       } 
....................              
....................       if(DOWN){ 
04EDE:  BSF    F96.0
04EE0:  BTFSC  F84.0
04EE2:  BRA    4FB2
....................          flag_latencia=0;t_latencia=0; 
04EE4:  BCF    x2D.7
04EE6:  CLRF   xDD
04EE8:  CLRF   xDC
....................          if(Flanco2 == 0){ 
04EEA:  BTFSC  x2C.2
04EEC:  BRA    4FB0
....................             Flanco2 = 1;delay_ms(5); 
04EEE:  BSF    x2C.2
04EF0:  MOVLW  05
04EF2:  MOVLB  5
04EF4:  MOVWF  xDD
04EF6:  MOVLB  0
04EF8:  CALL   1492
....................             for(i=1;i<=4;i++){ 
04EFC:  MOVLW  01
04EFE:  MOVLB  5
04F00:  MOVWF  xC4
04F02:  MOVF   xC4,W
04F04:  SUBLW  04
04F06:  BNC   4FAE
....................                if(unidad==i){ 
04F08:  MOVF   xC4,W
04F0A:  MOVLB  4
04F0C:  SUBWF  xC9,W
04F0E:  BNZ   4F7A
....................                   Contrasena[i-1]--; 
04F10:  MOVLW  01
04F12:  MOVLB  5
04F14:  SUBWF  xC4,W
04F16:  CLRF   03
04F18:  MOVWF  FE9
04F1A:  MOVLW  05
04F1C:  ADDWF  03,W
04F1E:  MOVWF  FEA
04F20:  DECF   FEF,F
....................                   if(Contrasena[i-1]<0){ 
04F22:  MOVLW  01
04F24:  SUBWF  xC4,W
04F26:  CLRF   03
04F28:  MOVWF  FE9
04F2A:  MOVLW  05
04F2C:  ADDWF  03,W
04F2E:  MOVWF  FEA
04F30:  BTFSC  FEF.7
04F32:  BRA    4F36
04F34:  BRA    4F48
....................                      Contrasena[i-1]=9; 
04F36:  MOVLW  01
04F38:  SUBWF  xC4,W
04F3A:  CLRF   03
04F3C:  MOVWF  FE9
04F3E:  MOVLW  05
04F40:  ADDWF  03,W
04F42:  MOVWF  FEA
04F44:  MOVLW  09
04F46:  MOVWF  FEF
....................                   } 
....................                   displayContrasena(Contrasena[i-1],i*20,30,1); 
04F48:  MOVLW  01
04F4A:  SUBWF  xC4,W
04F4C:  CLRF   03
04F4E:  MOVWF  FE9
04F50:  MOVLW  05
04F52:  ADDWF  03,W
04F54:  MOVWF  FEA
04F56:  MOVFF  FEF,5DC
04F5A:  MOVF   xC4,W
04F5C:  MULLW  14
04F5E:  MOVFF  FF3,5DD
04F62:  MOVFF  5DC,5DE
04F66:  MOVFF  5DD,5DF
04F6A:  MOVLW  1E
04F6C:  MOVWF  xE0
04F6E:  MOVLW  01
04F70:  MOVWF  xE1
04F72:  MOVLB  0
04F74:  RCALL  4BE6
....................                }else{ 
04F76:  BRA    4FA8
04F78:  MOVLB  4
....................                   displayContrasena(Contrasena[i-1],i*20,30,0); 
04F7A:  MOVLW  01
04F7C:  MOVLB  5
04F7E:  SUBWF  xC4,W
04F80:  CLRF   03
04F82:  MOVWF  FE9
04F84:  MOVLW  05
04F86:  ADDWF  03,W
04F88:  MOVWF  FEA
04F8A:  MOVFF  FEF,5DC
04F8E:  MOVF   xC4,W
04F90:  MULLW  14
04F92:  MOVFF  FF3,5DD
04F96:  MOVFF  5DC,5DE
04F9A:  MOVFF  5DD,5DF
04F9E:  MOVLW  1E
04FA0:  MOVWF  xE0
04FA2:  CLRF   xE1
04FA4:  MOVLB  0
04FA6:  RCALL  4BE6
....................                } 
....................             }       
04FA8:  MOVLB  5
04FAA:  INCF   xC4,F
04FAC:  BRA    4F02
04FAE:  MOVLB  4
....................          }      
....................       }else{ 
04FB0:  BRA    4FB4
....................          Flanco2 = 0; 
04FB2:  BCF    x2C.2
....................       } 
....................              
....................       if(RIGHT){ 
04FB4:  BSF    F96.1
04FB6:  BTFSC  F84.1
04FB8:  BRA    5056
....................          flag_latencia=0;t_latencia=0; 
04FBA:  BCF    x2D.7
04FBC:  CLRF   xDD
04FBE:  CLRF   xDC
....................          if(Flanco1 == 0){ 
04FC0:  BTFSC  x2C.1
04FC2:  BRA    5054
....................             Flanco1 = 1;delay_ms(5);unidad++; 
04FC4:  BSF    x2C.1
04FC6:  MOVLW  05
04FC8:  MOVLB  5
04FCA:  MOVWF  xDD
04FCC:  MOVLB  0
04FCE:  CALL   1492
04FD2:  MOVLB  4
04FD4:  INCF   xC9,F
....................             for(i=1;i<=4;i++){ 
04FD6:  MOVLW  01
04FD8:  MOVLB  5
04FDA:  MOVWF  xC4
04FDC:  MOVF   xC4,W
04FDE:  SUBLW  04
04FE0:  BNC   5052
....................                if(unidad==i){ 
04FE2:  MOVF   xC4,W
04FE4:  MOVLB  4
04FE6:  SUBWF  xC9,W
04FE8:  BNZ   501E
....................                   displayContrasena(Contrasena[i-1],i*20,30,1); 
04FEA:  MOVLW  01
04FEC:  MOVLB  5
04FEE:  SUBWF  xC4,W
04FF0:  CLRF   03
04FF2:  MOVWF  FE9
04FF4:  MOVLW  05
04FF6:  ADDWF  03,W
04FF8:  MOVWF  FEA
04FFA:  MOVFF  FEF,5DC
04FFE:  MOVF   xC4,W
05000:  MULLW  14
05002:  MOVFF  FF3,5DD
05006:  MOVFF  5DC,5DE
0500A:  MOVFF  5DD,5DF
0500E:  MOVLW  1E
05010:  MOVWF  xE0
05012:  MOVLW  01
05014:  MOVWF  xE1
05016:  MOVLB  0
05018:  RCALL  4BE6
....................                }else{ 
0501A:  BRA    504C
0501C:  MOVLB  4
....................                   displayContrasena(Contrasena[i-1],i*20,30,0); 
0501E:  MOVLW  01
05020:  MOVLB  5
05022:  SUBWF  xC4,W
05024:  CLRF   03
05026:  MOVWF  FE9
05028:  MOVLW  05
0502A:  ADDWF  03,W
0502C:  MOVWF  FEA
0502E:  MOVFF  FEF,5DC
05032:  MOVF   xC4,W
05034:  MULLW  14
05036:  MOVFF  FF3,5DD
0503A:  MOVFF  5DC,5DE
0503E:  MOVFF  5DD,5DF
05042:  MOVLW  1E
05044:  MOVWF  xE0
05046:  CLRF   xE1
05048:  MOVLB  0
0504A:  RCALL  4BE6
....................                } 
....................             } 
0504C:  MOVLB  5
0504E:  INCF   xC4,F
05050:  BRA    4FDC
05052:  MOVLB  4
....................          } 
....................       }else{ 
05054:  BRA    5058
....................          Flanco1 = 0; 
05056:  BCF    x2C.1
....................       } 
....................        
....................       if(LEFT){ 
05058:  BSF    F96.2
0505A:  BTFSC  F84.2
0505C:  BRA    50A6
....................          delay_ms(100); 
0505E:  MOVLW  64
05060:  MOVLB  5
05062:  MOVWF  xDD
05064:  MOVLB  0
05066:  CALL   1492
....................          if(LEFT){ 
0506A:  BSF    F96.2
0506C:  BTFSC  F84.2
0506E:  BRA    50A4
....................             Menu=MenuAnt;glcd_fillScreen(OFF);n=0;Opcion=1;unidad=1; 
05070:  MOVFF  5D5,4C8
05074:  MOVLB  5
05076:  CLRF   xDC
05078:  MOVLB  0
0507A:  CALL   1572
0507E:  MOVLB  4
05080:  BCF    x2F.0
05082:  MOVLW  01
05084:  MOVWF  xCA
05086:  MOVWF  xC9
....................             Contrasena[0]=0;Contrasena[1]=0;Contrasena[2]=0;Contrasena[3]=0; 
05088:  MOVLB  5
0508A:  CLRF   x00
0508C:  CLRF   x01
0508E:  CLRF   x02
05090:  CLRF   x03
....................             glcd_fillScreen(OFF);glcd_update(); 
05092:  CLRF   xDC
05094:  MOVLB  0
05096:  CALL   1572
0509A:  CALL   15CC
....................             return 1; 
0509E:  MOVLW  01
050A0:  MOVWF  01
050A2:  BRA    542A
050A4:  MOVLB  4
....................          } 
....................       } 
....................      
....................       if(unidad>4){ 
050A6:  MOVF   xC9,W
050A8:  SUBLW  04
050AA:  BTFSC  FD8.0
050AC:  BRA    542C
....................          glcd_fillScreen(OFF);unidad=1;flag_latencia=0;t_latencia=0; 
050AE:  MOVLB  5
050B0:  CLRF   xDC
050B2:  MOVLB  0
050B4:  CALL   1572
050B8:  MOVLW  01
050BA:  MOVLB  4
050BC:  MOVWF  xC9
050BE:  BCF    x2D.7
050C0:  CLRF   xDD
050C2:  CLRF   xDC
....................           
....................          if(Contrasena[0]==3&&Contrasena[1]==8&&Contrasena[2]==9&&Contrasena[3]==2 && MenuActual==0){ // Si Ingresa clave para reset general del sistema. 
050C4:  MOVLB  5
050C6:  MOVF   x00,W
050C8:  SUBLW  03
050CA:  BTFSS  FD8.2
050CC:  BRA    51C0
050CE:  MOVF   x01,W
050D0:  SUBLW  08
050D2:  BTFSS  FD8.2
050D4:  BRA    51C0
050D6:  MOVF   x02,W
050D8:  SUBLW  09
050DA:  BNZ   51C0
050DC:  MOVF   x03,W
050DE:  SUBLW  02
050E0:  BNZ   51C0
050E2:  MOVF   xD6,F
050E4:  BNZ   51C0
....................             write_eeprom(0,0);delay_ms(20);write_eeprom(1,0);delay_ms(20);// Reestablece a contrasea de Fabrica y reinicia Programa. 
050E6:  CLRF   FAA
050E8:  CLRF   FA9
050EA:  CLRF   FA8
050EC:  BCF    FA6.6
050EE:  BCF    FA6.7
050F0:  BSF    FA6.2
050F2:  MOVF   FF2,W
050F4:  MOVWF  00
050F6:  BCF    FF2.7
050F8:  MOVLB  F
050FA:  MOVLW  55
050FC:  MOVWF  FA7
050FE:  MOVLW  AA
05100:  MOVWF  FA7
05102:  BSF    FA6.1
05104:  BTFSC  FA6.1
05106:  BRA    5104
05108:  BCF    FA6.2
0510A:  MOVF   00,W
0510C:  IORWF  FF2,F
0510E:  MOVLW  14
05110:  MOVLB  5
05112:  MOVWF  xDD
05114:  MOVLB  0
05116:  CALL   1492
0511A:  CLRF   FAA
0511C:  MOVLW  01
0511E:  MOVWF  FA9
05120:  CLRF   FA8
05122:  BCF    FA6.6
05124:  BCF    FA6.7
05126:  BSF    FA6.2
05128:  MOVF   FF2,W
0512A:  MOVWF  00
0512C:  BCF    FF2.7
0512E:  MOVLB  F
05130:  MOVLW  55
05132:  MOVWF  FA7
05134:  MOVLW  AA
05136:  MOVWF  FA7
05138:  BSF    FA6.1
0513A:  BTFSC  FA6.1
0513C:  BRA    513A
0513E:  BCF    FA6.2
05140:  MOVF   00,W
05142:  IORWF  FF2,F
05144:  MOVLW  14
05146:  MOVLB  5
05148:  MOVWF  xDD
0514A:  MOVLB  0
0514C:  CALL   1492
....................             write_eeprom(2,0);delay_ms(20);write_eeprom(3,0);delay_ms(20); 
05150:  CLRF   FAA
05152:  MOVLW  02
05154:  MOVWF  FA9
05156:  CLRF   FA8
05158:  BCF    FA6.6
0515A:  BCF    FA6.7
0515C:  BSF    FA6.2
0515E:  MOVF   FF2,W
05160:  MOVWF  00
05162:  BCF    FF2.7
05164:  MOVLB  F
05166:  MOVLW  55
05168:  MOVWF  FA7
0516A:  MOVLW  AA
0516C:  MOVWF  FA7
0516E:  BSF    FA6.1
05170:  BTFSC  FA6.1
05172:  BRA    5170
05174:  BCF    FA6.2
05176:  MOVF   00,W
05178:  IORWF  FF2,F
0517A:  MOVLW  14
0517C:  MOVLB  5
0517E:  MOVWF  xDD
05180:  MOVLB  0
05182:  CALL   1492
05186:  CLRF   FAA
05188:  MOVLW  03
0518A:  MOVWF  FA9
0518C:  CLRF   FA8
0518E:  BCF    FA6.6
05190:  BCF    FA6.7
05192:  BSF    FA6.2
05194:  MOVF   FF2,W
05196:  MOVWF  00
05198:  BCF    FF2.7
0519A:  MOVLB  F
0519C:  MOVLW  55
0519E:  MOVWF  FA7
051A0:  MOVLW  AA
051A2:  MOVWF  FA7
051A4:  BSF    FA6.1
051A6:  BTFSC  FA6.1
051A8:  BRA    51A6
051AA:  BCF    FA6.2
051AC:  MOVF   00,W
051AE:  IORWF  FF2,F
051B0:  MOVLW  14
051B2:  MOVLB  5
051B4:  MOVWF  xDD
051B6:  MOVLB  0
051B8:  CALL   1492
....................             reset_cpu(); 
051BC:  RESET
051BE:  MOVLB  5
....................          } 
....................        
....................          if((Contrasena[0]==clave0)&&(Contrasena[1]==clave1)&&(Contrasena[2]==clave2)&&(Contrasena[3]==clave3)){ 
051C0:  MOVF   xD8,W
051C2:  SUBWF  x00,W
051C4:  BTFSS  FD8.2
051C6:  BRA    52A8
051C8:  MOVF   xD9,W
051CA:  SUBWF  x01,W
051CC:  BNZ   52A8
051CE:  MOVF   xDA,W
051D0:  SUBWF  x02,W
051D2:  BNZ   52A8
051D4:  MOVF   xDB,W
051D6:  SUBWF  x03,W
051D8:  BNZ   52A8
....................             glcd_fillScreen(OFF); 
051DA:  CLRF   xDC
051DC:  MOVLB  0
051DE:  CALL   1572
....................             strcpy(Menus.Letra,"Clave"); 
051E2:  MOVLW  04
051E4:  MOVWF  FEA
051E6:  MOVLW  16
051E8:  MOVWF  FE9
051EA:  MOVFF  FF2,5DC
051EE:  BCF    FF2.7
051F0:  MOVLW  00
051F2:  CALL   0EEE
051F6:  TBLRD*-
051F8:  TBLRD*+
051FA:  MOVF   FF5,W
051FC:  MOVWF  FEE
051FE:  IORLW  00
05200:  BNZ   51F8
05202:  MOVLB  5
05204:  BTFSC  xDC.7
05206:  BSF    FF2.7
....................             displayMenu(Menus.Letra,30,0,0,2); 
05208:  MOVLW  04
0520A:  MOVWF  xDD
0520C:  MOVLW  16
0520E:  MOVWF  xDC
05210:  MOVLW  1E
05212:  MOVWF  xDE
05214:  CLRF   xDF
05216:  CLRF   xE0
05218:  MOVLW  02
0521A:  MOVWF  xE1
0521C:  MOVLB  0
0521E:  RCALL  4C9E
....................             strcpy(Menus.Letra,"Correcta"); 
05220:  MOVLW  04
05222:  MOVWF  FEA
05224:  MOVLW  16
05226:  MOVWF  FE9
05228:  MOVFF  FF2,5DC
0522C:  BCF    FF2.7
0522E:  MOVLW  00
05230:  CALL   0F0E
05234:  TBLRD*-
05236:  TBLRD*+
05238:  MOVF   FF5,W
0523A:  MOVWF  FEE
0523C:  IORLW  00
0523E:  BNZ   5236
05240:  MOVLB  5
05242:  BTFSC  xDC.7
05244:  BSF    FF2.7
....................             displayMenu(Menus.Letra,15,30,0,2); 
05246:  MOVLW  04
05248:  MOVWF  xDD
0524A:  MOVLW  16
0524C:  MOVWF  xDC
0524E:  MOVLW  0F
05250:  MOVWF  xDE
05252:  MOVLW  1E
05254:  MOVWF  xDF
05256:  CLRF   xE0
05258:  MOVLW  02
0525A:  MOVWF  xE1
0525C:  MOVLB  0
0525E:  RCALL  4C9E
....................             Menu=MenuPost;glcd_update();delay_ms(1000);glcd_fillScreen(OFF); 
05260:  MOVFF  5D7,4C8
05264:  CALL   15CC
05268:  MOVLW  04
0526A:  MOVLB  5
0526C:  MOVWF  xDC
0526E:  MOVLW  FA
05270:  MOVWF  xDD
05272:  MOVLB  0
05274:  CALL   1492
05278:  MOVLB  5
0527A:  DECFSZ xDC,F
0527C:  BRA    526E
0527E:  CLRF   xDC
05280:  MOVLB  0
05282:  CALL   1572
....................             Contrasena[0]=0;Contrasena[1]=0;Contrasena[2]=0;Contrasena[3]=0; 
05286:  MOVLB  5
05288:  CLRF   x00
0528A:  CLRF   x01
0528C:  CLRF   x02
0528E:  CLRF   x03
....................             if(MenuActual==0)tiempo_purga=1;n=0; 
05290:  MOVF   xD6,F
05292:  BNZ   5298
05294:  MOVLB  4
05296:  BSF    x2D.5
05298:  MOVLB  4
0529A:  BCF    x2F.0
....................             return 1; 
0529C:  MOVLW  01
0529E:  MOVWF  01
052A0:  MOVLB  0
052A2:  BRA    542A
....................          }else{ 
052A4:  BRA    542A
052A6:  MOVLB  5
....................             glcd_fillScreen(OFF); 
052A8:  CLRF   xDC
052AA:  MOVLB  0
052AC:  CALL   1572
....................             strcpy(Menus.Letra,"Clave"); 
052B0:  MOVLW  04
052B2:  MOVWF  FEA
052B4:  MOVLW  16
052B6:  MOVWF  FE9
052B8:  MOVFF  FF2,5DC
052BC:  BCF    FF2.7
052BE:  MOVLW  00
052C0:  CALL   0EEE
052C4:  TBLRD*-
052C6:  TBLRD*+
052C8:  MOVF   FF5,W
052CA:  MOVWF  FEE
052CC:  IORLW  00
052CE:  BNZ   52C6
052D0:  MOVLB  5
052D2:  BTFSC  xDC.7
052D4:  BSF    FF2.7
....................             displayMenu(Menus.Letra,30,0,0,2); 
052D6:  MOVLW  04
052D8:  MOVWF  xDD
052DA:  MOVLW  16
052DC:  MOVWF  xDC
052DE:  MOVLW  1E
052E0:  MOVWF  xDE
052E2:  CLRF   xDF
052E4:  CLRF   xE0
052E6:  MOVLW  02
052E8:  MOVWF  xE1
052EA:  MOVLB  0
052EC:  RCALL  4C9E
....................             strcpy(Menus.Letra,"Incorrecta"); 
052EE:  MOVLW  04
052F0:  MOVWF  FEA
052F2:  MOVLW  16
052F4:  MOVWF  FE9
052F6:  MOVFF  FF2,5DC
052FA:  BCF    FF2.7
052FC:  MOVLW  00
052FE:  CALL   0F32
05302:  TBLRD*-
05304:  TBLRD*+
05306:  MOVF   FF5,W
05308:  MOVWF  FEE
0530A:  IORLW  00
0530C:  BNZ   5304
0530E:  MOVLB  5
05310:  BTFSC  xDC.7
05312:  BSF    FF2.7
....................             displayMenu(Menus.Letra,0,30,0,2); 
05314:  MOVLW  04
05316:  MOVWF  xDD
05318:  MOVLW  16
0531A:  MOVWF  xDC
0531C:  CLRF   xDE
0531E:  MOVLW  1E
05320:  MOVWF  xDF
05322:  CLRF   xE0
05324:  MOVLW  02
05326:  MOVWF  xE1
05328:  MOVLB  0
0532A:  RCALL  4C9E
....................             unidad=1;glcd_update();delay_ms(1000);Contrasena[0]=0;Contrasena[1]=0;Contrasena[2]=0;Contrasena[3]=0;glcd_fillScreen(OFF); 
0532C:  MOVLW  01
0532E:  MOVLB  4
05330:  MOVWF  xC9
05332:  MOVLB  0
05334:  CALL   15CC
05338:  MOVLW  04
0533A:  MOVLB  5
0533C:  MOVWF  xDC
0533E:  MOVLW  FA
05340:  MOVWF  xDD
05342:  MOVLB  0
05344:  CALL   1492
05348:  MOVLB  5
0534A:  DECFSZ xDC,F
0534C:  BRA    533E
0534E:  CLRF   x00
05350:  CLRF   x01
05352:  CLRF   x02
05354:  CLRF   x03
05356:  CLRF   xDC
05358:  MOVLB  0
0535A:  CALL   1572
....................             glcd_rect(0, 0, 127, 25, YES, ON);strcpy(Menus.Letra,"Clave");glcd_text57(25, 1, Menus.Letra, 3, OFF);displayContrasena(Contrasena[0],20,30,1); 
0535E:  MOVLB  5
05360:  CLRF   xED
05362:  CLRF   xEE
05364:  MOVLW  7F
05366:  MOVWF  xEF
05368:  MOVLW  19
0536A:  MOVWF  xF0
0536C:  MOVLW  01
0536E:  MOVWF  xF1
05370:  MOVWF  xF2
05372:  MOVLB  0
05374:  CALL   4962
05378:  MOVLW  04
0537A:  MOVWF  FEA
0537C:  MOVLW  16
0537E:  MOVWF  FE9
05380:  MOVFF  FF2,5DC
05384:  BCF    FF2.7
05386:  MOVLW  00
05388:  CALL   0EEE
0538C:  TBLRD*-
0538E:  TBLRD*+
05390:  MOVF   FF5,W
05392:  MOVWF  FEE
05394:  IORLW  00
05396:  BNZ   538E
05398:  MOVLB  5
0539A:  BTFSC  xDC.7
0539C:  BSF    FF2.7
0539E:  MOVLW  19
053A0:  MOVWF  xED
053A2:  MOVLW  01
053A4:  MOVWF  xEE
053A6:  MOVLW  04
053A8:  MOVWF  xF0
053AA:  MOVLW  16
053AC:  MOVWF  xEF
053AE:  MOVLW  03
053B0:  MOVWF  xF1
053B2:  CLRF   xF2
053B4:  MOVLB  0
053B6:  CALL   4A24
053BA:  MOVFF  500,5DE
053BE:  MOVLW  14
053C0:  MOVLB  5
053C2:  MOVWF  xDF
053C4:  MOVLW  1E
053C6:  MOVWF  xE0
053C8:  MOVLW  01
053CA:  MOVWF  xE1
053CC:  MOVLB  0
053CE:  RCALL  4BE6
....................             displayContrasena(Contrasena[1],40,30,0);displayContrasena(Contrasena[2],60,30,0);displayContrasena(Contrasena[0],80,30,0); 
053D0:  MOVFF  501,5DE
053D4:  MOVLW  28
053D6:  MOVLB  5
053D8:  MOVWF  xDF
053DA:  MOVLW  1E
053DC:  MOVWF  xE0
053DE:  CLRF   xE1
053E0:  MOVLB  0
053E2:  RCALL  4BE6
053E4:  MOVFF  502,5DE
053E8:  MOVLW  3C
053EA:  MOVLB  5
053EC:  MOVWF  xDF
053EE:  MOVLW  1E
053F0:  MOVWF  xE0
053F2:  CLRF   xE1
053F4:  MOVLB  0
053F6:  CALL   4BE6
053FA:  MOVFF  500,5DE
053FE:  MOVLW  50
05400:  MOVLB  5
05402:  MOVWF  xDF
05404:  MOVLW  1E
05406:  MOVWF  xE0
05408:  CLRF   xE1
0540A:  MOVLB  0
0540C:  CALL   4BE6
....................             Menu=MenuAnt;glcd_fillScreen(OFF);n=0; 
05410:  MOVFF  5D5,4C8
05414:  MOVLB  5
05416:  CLRF   xDC
05418:  MOVLB  0
0541A:  CALL   1572
0541E:  MOVLB  4
05420:  BCF    x2F.0
....................             return 0; 
05422:  MOVLW  00
05424:  MOVWF  01
05426:  MOVLB  0
05428:  BRA    542A
0542A:  MOVLB  4
....................          } 
....................       } 
.................... } 
0542C:  MOVLB  0
0542E:  RETLW  00
....................  
....................  
.................... void bajarVidrio(){ 
....................    pulsoSubir=OFF; 
*
05532:  MOVLB  4
05534:  BCF    x2E.1
....................    if(VIDRIOUUP || !VIDRIODN){ 
05536:  BSF    F92.2
05538:  BTFSS  F80.2
0553A:  BRA    5542
0553C:  BSF    F92.4
0553E:  BTFSS  F80.4
05540:  BRA    554C
....................       O1_on;O2_off; 
05542:  BSF    F8B.4
05544:  BCF    F94.4
05546:  BCF    F8B.5
05548:  BCF    F94.5
....................    }else{ 
0554A:  BRA    5556
....................       O1_off;O2_off; 
0554C:  BCF    F8B.4
0554E:  BCF    F94.4
05550:  BCF    F8B.5
05552:  BCF    F94.5
....................       pulsoBajar=OFF; 
05554:  BCF    x2E.2
....................    } 
.................... } 
05556:  MOVLB  0
05558:  RETLW  00
....................  
.................... void subirVidrio(){ 
....................    pulsoBajar=OFF; 
*
0550A:  MOVLB  4
0550C:  BCF    x2E.2
....................    if(!VIDRIOUUP || VIDRIODN){ 
0550E:  BSF    F92.2
05510:  BTFSC  F80.2
05512:  BRA    551A
05514:  BSF    F92.4
05516:  BTFSC  F80.4
05518:  BRA    5524
....................       O1_off;O2_on; 
0551A:  BCF    F8B.4
0551C:  BCF    F94.4
0551E:  BSF    F8B.5
05520:  BCF    F94.5
....................    }else{ 
05522:  BRA    552E
....................       O1_off;O2_off; 
05524:  BCF    F8B.4
05526:  BCF    F94.4
05528:  BCF    F8B.5
0552A:  BCF    F94.5
....................       pulsoSubir=OFF; 
0552C:  BCF    x2E.1
....................    } 
.................... } 
0552E:  MOVLB  0
05530:  RETLW  00
....................  
.................... void detenerVidrio(){ 
....................    O1_off;O2_off; 
*
0555A:  BCF    F8B.4
0555C:  BCF    F94.4
0555E:  BCF    F8B.5
05560:  BCF    F94.5
.................... } 
05562:  RETLW  00
....................  
.................... void ubicaVidrio20cm(){   
....................       if(VIDRIOUUP){ 
....................           flag_arriba=ON; 
....................           bajarVidrio(); // Baja Vidrio          
....................       } 
....................          
....................       if(flag_arriba){ 
....................          bajarVidrio(); // Baja Vidrio          
....................           
....................          if(VIDRIOUP || VIDRIODN) 
....................             flag_arriba=OFF; 
....................          
....................          if(VIDRIOUP && !VIDRIODN)    
....................             flag_arriba=OFF; 
....................              
....................          if(VIDRIOUP && VIDRIODN) 
....................             flag_arriba=OFF; 
....................              
....................          if(!VIDRIOUP && VIDRIODN) 
....................             flag_arriba=OFF; 
....................       }else{ 
....................          if(!VIDRIOUP && !VIDRIODN){ 
....................             subirVidrio(); 
....................          } // Sube Vidrio 
....................          
....................          if(VIDRIOUP && !VIDRIODN){ 
....................             detenerVidrio(); 
....................          } 
....................          
....................          if(VIDRIOUP && VIDRIODN){ 
....................             detenerVidrio(); 
....................          } // Vidrio quieto 
....................              
....................          if(!VIDRIOUP && VIDRIODN){ 
....................              subirVidrio(); 
....................          } // Baja Vidrio 
....................       } 
.................... } 
....................  
.................... void cuentaTiempos(){ 
....................    if(minutos_trabajo>=3600){ // Tiempo de Trabajo 
*
0437C:  MOVLB  4
0437E:  MOVF   xE1,W
04380:  SUBLW  0D
04382:  BTFSC  FD8.0
04384:  BRA    452C
04386:  XORLW  FF
04388:  BNZ   4392
0438A:  MOVF   xE0,W
0438C:  SUBLW  0F
0438E:  BTFSC  FD8.0
04390:  BRA    452C
....................       minutos_trabajo=0; //Minutos Trabajo realmente son segundos. 
04392:  CLRF   xE1
04394:  CLRF   xE0
....................       write_eeprom(33,make8(minutos_trabajo,0)); 
04396:  MOVFF  4E0,5D4
0439A:  CLRF   FAA
0439C:  MOVLW  21
0439E:  MOVWF  FA9
043A0:  MOVFF  5D4,FA8
043A4:  BCF    FA6.6
043A6:  BCF    FA6.7
043A8:  BSF    FA6.2
043AA:  MOVF   FF2,W
043AC:  MOVWF  00
043AE:  BCF    FF2.7
043B0:  MOVLB  F
043B2:  MOVLW  55
043B4:  MOVWF  FA7
043B6:  MOVLW  AA
043B8:  MOVWF  FA7
043BA:  BSF    FA6.1
043BC:  BTFSC  FA6.1
043BE:  BRA    43BC
043C0:  BCF    FA6.2
043C2:  MOVF   00,W
043C4:  IORWF  FF2,F
....................       delay_ms(20); 
043C6:  MOVLW  14
043C8:  MOVLB  5
043CA:  MOVWF  xDD
043CC:  MOVLB  0
043CE:  CALL   1492
....................       write_eeprom(34,make8(minutos_trabajo,1)); 
043D2:  MOVFF  4E1,5D4
043D6:  CLRF   FAA
043D8:  MOVLW  22
043DA:  MOVWF  FA9
043DC:  MOVFF  5D4,FA8
043E0:  BCF    FA6.6
043E2:  BCF    FA6.7
043E4:  BSF    FA6.2
043E6:  MOVF   FF2,W
043E8:  MOVWF  00
043EA:  BCF    FF2.7
043EC:  MOVLB  F
043EE:  MOVLW  55
043F0:  MOVWF  FA7
043F2:  MOVLW  AA
043F4:  MOVWF  FA7
043F6:  BSF    FA6.1
043F8:  BTFSC  FA6.1
043FA:  BRA    43F8
043FC:  BCF    FA6.2
043FE:  MOVF   00,W
04400:  IORWF  FF2,F
....................       delay_ms(20); 
04402:  MOVLW  14
04404:  MOVLB  5
04406:  MOVWF  xDD
04408:  MOVLB  0
0440A:  CALL   1492
....................       Ttrabajo[0]++; 
0440E:  MOVLB  4
04410:  INCF   xFC,F
....................       if(Ttrabajo[0]>9){ 
04412:  BTFSC  xFC.7
04414:  BRA    4420
04416:  MOVF   xFC,W
04418:  SUBLW  09
0441A:  BC    4420
....................          Ttrabajo[0]=0; 
0441C:  CLRF   xFC
....................          Ttrabajo[1]++; 
0441E:  INCF   xFD,F
....................       } 
....................       if(Ttrabajo[1]>9){ 
04420:  BTFSC  xFD.7
04422:  BRA    442E
04424:  MOVF   xFD,W
04426:  SUBLW  09
04428:  BC    442E
....................          Ttrabajo[1]=0; 
0442A:  CLRF   xFD
....................          Ttrabajo[2]++; 
0442C:  INCF   xFE,F
....................       } 
....................       if(Ttrabajo[2]>9){ 
0442E:  BTFSC  xFE.7
04430:  BRA    443C
04432:  MOVF   xFE,W
04434:  SUBLW  09
04436:  BC    443C
....................          Ttrabajo[2]=0; 
04438:  CLRF   xFE
....................          Ttrabajo[3]++; 
0443A:  INCF   xFF,F
....................       } 
....................       if(Ttrabajo[3]>9){ 
0443C:  BTFSC  xFF.7
0443E:  BRA    4448
04440:  MOVF   xFF,W
04442:  SUBLW  09
04444:  BC    4448
....................          Ttrabajo[3]=0; 
04446:  CLRF   xFF
....................       } 
....................       write_eeprom(16,Ttrabajo[0]); 
04448:  CLRF   FAA
0444A:  MOVLW  10
0444C:  MOVWF  FA9
0444E:  MOVFF  4FC,FA8
04452:  BCF    FA6.6
04454:  BCF    FA6.7
04456:  BSF    FA6.2
04458:  MOVF   FF2,W
0445A:  MOVWF  00
0445C:  BCF    FF2.7
0445E:  MOVLB  F
04460:  MOVLW  55
04462:  MOVWF  FA7
04464:  MOVLW  AA
04466:  MOVWF  FA7
04468:  BSF    FA6.1
0446A:  BTFSC  FA6.1
0446C:  BRA    446A
0446E:  BCF    FA6.2
04470:  MOVF   00,W
04472:  IORWF  FF2,F
....................       delay_ms(20); 
04474:  MOVLW  14
04476:  MOVLB  5
04478:  MOVWF  xDD
0447A:  MOVLB  0
0447C:  CALL   1492
....................       write_eeprom(17,Ttrabajo[1]); 
04480:  CLRF   FAA
04482:  MOVLW  11
04484:  MOVWF  FA9
04486:  MOVFF  4FD,FA8
0448A:  BCF    FA6.6
0448C:  BCF    FA6.7
0448E:  BSF    FA6.2
04490:  MOVF   FF2,W
04492:  MOVWF  00
04494:  BCF    FF2.7
04496:  MOVLB  F
04498:  MOVLW  55
0449A:  MOVWF  FA7
0449C:  MOVLW  AA
0449E:  MOVWF  FA7
044A0:  BSF    FA6.1
044A2:  BTFSC  FA6.1
044A4:  BRA    44A2
044A6:  BCF    FA6.2
044A8:  MOVF   00,W
044AA:  IORWF  FF2,F
....................       delay_ms(20); 
044AC:  MOVLW  14
044AE:  MOVLB  5
044B0:  MOVWF  xDD
044B2:  MOVLB  0
044B4:  CALL   1492
....................       write_eeprom(18,Ttrabajo[2]); 
044B8:  CLRF   FAA
044BA:  MOVLW  12
044BC:  MOVWF  FA9
044BE:  MOVFF  4FE,FA8
044C2:  BCF    FA6.6
044C4:  BCF    FA6.7
044C6:  BSF    FA6.2
044C8:  MOVF   FF2,W
044CA:  MOVWF  00
044CC:  BCF    FF2.7
044CE:  MOVLB  F
044D0:  MOVLW  55
044D2:  MOVWF  FA7
044D4:  MOVLW  AA
044D6:  MOVWF  FA7
044D8:  BSF    FA6.1
044DA:  BTFSC  FA6.1
044DC:  BRA    44DA
044DE:  BCF    FA6.2
044E0:  MOVF   00,W
044E2:  IORWF  FF2,F
....................       delay_ms(20); 
044E4:  MOVLW  14
044E6:  MOVLB  5
044E8:  MOVWF  xDD
044EA:  MOVLB  0
044EC:  CALL   1492
....................       write_eeprom(19,Ttrabajo[3]); 
044F0:  CLRF   FAA
044F2:  MOVLW  13
044F4:  MOVWF  FA9
044F6:  MOVFF  4FF,FA8
044FA:  BCF    FA6.6
044FC:  BCF    FA6.7
044FE:  BSF    FA6.2
04500:  MOVF   FF2,W
04502:  MOVWF  00
04504:  BCF    FF2.7
04506:  MOVLB  F
04508:  MOVLW  55
0450A:  MOVWF  FA7
0450C:  MOVLW  AA
0450E:  MOVWF  FA7
04510:  BSF    FA6.1
04512:  BTFSC  FA6.1
04514:  BRA    4512
04516:  BCF    FA6.2
04518:  MOVF   00,W
0451A:  IORWF  FF2,F
....................       delay_ms(20); 
0451C:  MOVLW  14
0451E:  MOVLB  5
04520:  MOVWF  xDD
04522:  MOVLB  0
04524:  CALL   1492
....................    }else if(minutos_trabajo==900 || minutos_trabajo==1800 || minutos_trabajo==2700 ){ 
04528:  BRA    45C8
0452A:  MOVLB  4
0452C:  MOVF   xE0,W
0452E:  SUBLW  84
04530:  BNZ   4538
04532:  MOVF   xE1,W
04534:  SUBLW  03
04536:  BZ    4550
04538:  MOVF   xE0,W
0453A:  SUBLW  08
0453C:  BNZ   4544
0453E:  MOVF   xE1,W
04540:  SUBLW  07
04542:  BZ    4550
04544:  MOVF   xE0,W
04546:  SUBLW  8C
04548:  BNZ   45CA
0454A:  MOVF   xE1,W
0454C:  SUBLW  0A
0454E:  BNZ   45CA
....................       write_eeprom(33,make8(minutos_trabajo,0)); 
04550:  MOVFF  4E0,5D4
04554:  CLRF   FAA
04556:  MOVLW  21
04558:  MOVWF  FA9
0455A:  MOVFF  5D4,FA8
0455E:  BCF    FA6.6
04560:  BCF    FA6.7
04562:  BSF    FA6.2
04564:  MOVF   FF2,W
04566:  MOVWF  00
04568:  BCF    FF2.7
0456A:  MOVLB  F
0456C:  MOVLW  55
0456E:  MOVWF  FA7
04570:  MOVLW  AA
04572:  MOVWF  FA7
04574:  BSF    FA6.1
04576:  BTFSC  FA6.1
04578:  BRA    4576
0457A:  BCF    FA6.2
0457C:  MOVF   00,W
0457E:  IORWF  FF2,F
....................       delay_ms(20); 
04580:  MOVLW  14
04582:  MOVLB  5
04584:  MOVWF  xDD
04586:  MOVLB  0
04588:  CALL   1492
....................       write_eeprom(34,make8(minutos_trabajo,1)); 
0458C:  MOVFF  4E1,5D4
04590:  CLRF   FAA
04592:  MOVLW  22
04594:  MOVWF  FA9
04596:  MOVFF  5D4,FA8
0459A:  BCF    FA6.6
0459C:  BCF    FA6.7
0459E:  BSF    FA6.2
045A0:  MOVF   FF2,W
045A2:  MOVWF  00
045A4:  BCF    FF2.7
045A6:  MOVLB  F
045A8:  MOVLW  55
045AA:  MOVWF  FA7
045AC:  MOVLW  AA
045AE:  MOVWF  FA7
045B0:  BSF    FA6.1
045B2:  BTFSC  FA6.1
045B4:  BRA    45B2
045B6:  BCF    FA6.2
045B8:  MOVF   00,W
045BA:  IORWF  FF2,F
....................       delay_ms(20); 
045BC:  MOVLW  14
045BE:  MOVLB  5
045C0:  MOVWF  xDD
045C2:  MOVLB  0
045C4:  CALL   1492
045C8:  MOVLB  4
....................    } 
.................... } 
045CA:  MOVLB  0
045CC:  RETLW  00
....................  
....................  
.................... #int_EXT            // Interrupcin de encoder para control. 
.................... void ext0() {       // 6 pulsos por vuelta. 
....................    pulsos++; 
*
01394:  MOVLB  5
01396:  INCF   xC0,F
01398:  BTFSC  FD8.2
0139A:  INCF   xC1,F
....................    if(pulsos>=120){ 
0139C:  MOVF   xC1,F
0139E:  BNZ   13A6
013A0:  MOVF   xC0,W
013A2:  SUBLW  77
013A4:  BC    143A
....................       pulsos=0; 
013A6:  CLRF   xC1
013A8:  CLRF   xC0
....................       imprimir=1;Lectura=1;tiemporeset++; 
013AA:  MOVLB  4
013AC:  BSF    x2C.6
013AE:  BSF    x2E.7
013B0:  INCF   xCE,F
....................     
....................       if(flag_blower==1) 
013B2:  BTFSS  x2C.7
013B4:  BRA    13BC
....................          minutos_trabajo++;  
013B6:  INCF   xE0,F
013B8:  BTFSC  FD8.2
013BA:  INCF   xE1,F
....................    
....................       if(tiempo_purga==1 || Purga){                   
013BC:  BTFSC  x2D.5
013BE:  BRA    13C4
013C0:  BTFSS  x2F.2
013C2:  BRA    13FC
....................          Tpurga[0]++; 
013C4:  INCF   xE4,F
....................          if(Tpurga[0]>9){ 
013C6:  BTFSC  xE4.7
013C8:  BRA    13D4
013CA:  MOVF   xE4,W
013CC:  SUBLW  09
013CE:  BC    13D4
....................             Tpurga[0]=0; 
013D0:  CLRF   xE4
....................             Tpurga[1]++; 
013D2:  INCF   xE5,F
....................          } 
....................          if(Tpurga[1]>5){ 
013D4:  BTFSC  xE5.7
013D6:  BRA    13E2
013D8:  MOVF   xE5,W
013DA:  SUBLW  05
013DC:  BC    13E2
....................             Tpurga[1]=0; 
013DE:  CLRF   xE5
....................             Tpurga[2]++; 
013E0:  INCF   xE6,F
....................          } 
....................          if(Tpurga[2]>9){ 
013E2:  BTFSC  xE6.7
013E4:  BRA    13F0
013E6:  MOVF   xE6,W
013E8:  SUBLW  09
013EA:  BC    13F0
....................             Tpurga[2]=0; 
013EC:  CLRF   xE6
....................             Tpurga[3]++; 
013EE:  INCF   xE7,F
....................          } 
....................          if(Tpurga[3]>5){ 
013F0:  BTFSC  xE7.7
013F2:  BRA    13FC
013F4:  MOVF   xE7,W
013F6:  SUBLW  05
013F8:  BC    13FC
....................             Tpurga[3]=0; 
013FA:  CLRF   xE7
....................          } 
....................       } 
....................        
....................       if(tiempo_postpurga){ 
013FC:  BTFSS  x2E.0
013FE:  BRA    1438
....................          Tppurga[0]++; 
01400:  INCF   xEC,F
....................          if(Tppurga[0]>9){ 
01402:  BTFSC  xEC.7
01404:  BRA    1410
01406:  MOVF   xEC,W
01408:  SUBLW  09
0140A:  BC    1410
....................             Tppurga[0]=0; 
0140C:  CLRF   xEC
....................             Tppurga[1]++; 
0140E:  INCF   xED,F
....................          } 
....................          if(Tppurga[1]>5){   
01410:  BTFSC  xED.7
01412:  BRA    141E
01414:  MOVF   xED,W
01416:  SUBLW  05
01418:  BC    141E
....................             Tppurga[1]=0; 
0141A:  CLRF   xED
....................             Tppurga[2]++; 
0141C:  INCF   xEE,F
....................          } 
....................          if(Tppurga[2]>9){ 
0141E:  BTFSC  xEE.7
01420:  BRA    142C
01422:  MOVF   xEE,W
01424:  SUBLW  09
01426:  BC    142C
....................             Tppurga[2]=0; 
01428:  CLRF   xEE
....................             Tppurga[3]++; 
0142A:  INCF   xEF,F
....................          } 
....................          if(Tppurga[3]>5){ 
0142C:  BTFSC  xEF.7
0142E:  BRA    1438
01430:  MOVF   xEF,W
01432:  SUBLW  05
01434:  BC    1438
....................             Tppurga[3]=0; 
01436:  CLRF   xEF
01438:  MOVLB  5
....................          } 
....................       } 
....................    } 
....................    tiempocruce=0; 
0143A:  CLRF   xC9
0143C:  CLRF   xC8
....................    Cruce=ON; 
0143E:  MOVLB  4
01440:  BSF    x2F.1
....................    if(VelMotor<6){ 
01442:  MOVLB  5
01444:  MOVF   xCB,W
01446:  SUBLW  05
01448:  BNC   148A
....................       if(VelMotor>0 && Porcentaje<100){ 
0144A:  MOVF   xCB,F
0144C:  BZ    1486
0144E:  MOVF   xCA,W
01450:  SUBLW  63
01452:  BNC   1486
....................          delay_us(retardo);       
01454:  MOVFF  5C3,619
01458:  MOVLB  6
0145A:  INCF   x19,F
0145C:  DECF   x19,F
0145E:  BTFSC  FD8.2
01460:  BRA    146E
01462:  MOVLW  FF
01464:  MOVWF  x1A
01466:  MOVLB  0
01468:  RCALL  1374
0146A:  MOVLB  6
0146C:  BRA    145C
0146E:  MOVFF  5C2,61A
01472:  MOVLB  0
01474:  RCALL  1374
....................          Motor_on; 
01476:  BSF    F8B.2
01478:  BCF    F94.2
....................          delay_us(100);       
0147A:  MOVLW  A6
0147C:  MOVWF  00
0147E:  DECFSZ 00,F
01480:  BRA    147E
01482:  NOP   
01484:  MOVLB  5
....................       } 
....................       Motor_off; 
01486:  BCF    F8B.2
01488:  BCF    F94.2
....................    } 
.................... } 
....................  
0148A:  BCF    FF2.1
0148C:  MOVLB  0
0148E:  GOTO   0054
.................... void glcd_imagen(int8 x) 
.................... { 
....................    char i,j; 
....................    signed char k;  
....................       
....................    if(x==3){ 
*
05586:  MOVLB  5
05588:  MOVF   xD4,W
0558A:  SUBLW  03
0558C:  BNZ   5634
....................    for( i = 0 ; i < 64 ; i ++ ) 
0558E:  CLRF   xD5
05590:  MOVF   xD5,W
05592:  SUBLW  3F
05594:  BNC   5634
....................    {  for( j = 0 ; j < 16 ; j ++) 
05596:  CLRF   xD6
05598:  MOVF   xD6,W
0559A:  SUBLW  0F
0559C:  BNC   5630
....................       {  for(k=7;k>-1;k--) 
0559E:  MOVLW  07
055A0:  MOVWF  xD7
055A2:  MOVF   xD7,W
055A4:  XORLW  80
055A6:  SUBLW  7F
055A8:  BC    562C
....................          {       
....................             if( bit_test(Bombillo[i][j] ,7-k ))  
055AA:  CLRF   xD9
055AC:  MOVFF  5D5,5D8
055B0:  CLRF   xDB
055B2:  MOVLW  10
055B4:  MOVWF  xDA
055B6:  MOVLB  0
055B8:  RCALL  5564
055BA:  MOVFF  02,5D9
055BE:  MOVFF  01,5D8
055C2:  MOVLB  5
055C4:  MOVF   xD6,W
055C6:  ADDWF  01,W
055C8:  MOVWF  01
055CA:  MOVLW  00
055CC:  ADDWFC 02,W
055CE:  MOVWF  03
055D0:  MOVF   01,W
055D2:  MOVFF  FF2,5D8
055D6:  BCF    FF2.7
055D8:  MOVFF  03,FF7
055DC:  MOVLB  0
055DE:  CALL   02A6
055E2:  MOVLB  5
055E4:  BTFSC  xD8.7
055E6:  BSF    FF2.7
055E8:  MOVWF  xD8
055EA:  MOVLW  07
055EC:  BSF    FD8.0
055EE:  SUBFWB xD7,W
055F0:  MOVWF  xD9
055F2:  MOVFF  5D8,00
055F6:  MOVF   xD9,W
055F8:  MOVWF  01
055FA:  BZ    5604
055FC:  BCF    FD8.0
055FE:  RRCF   00,F
05600:  DECFSZ 01,F
05602:  BRA    55FC
05604:  BTFSS  00.0
05606:  BRA    5628
....................                glcd_pixel( j*8+k,i, ON ); 
05608:  MOVF   xD6,W
0560A:  MULLW  08
0560C:  MOVF   FF3,W
0560E:  ADDWF  xD7,W
05610:  MOVWF  xD8
05612:  MOVFF  FE8,608
05616:  MOVFF  5D5,609
0561A:  MOVLW  01
0561C:  MOVLB  6
0561E:  MOVWF  x0A
05620:  MOVLB  0
05622:  CALL   46FA
05626:  MOVLB  5
....................          }   
05628:  DECF   xD7,F
0562A:  BRA    55A2
....................       } 
0562C:  INCF   xD6,F
0562E:  BRA    5598
....................    } 
05630:  INCF   xD5,F
05632:  BRA    5590
....................    } 
....................     
....................    if(x==4){ 
05634:  MOVF   xD4,W
05636:  SUBLW  04
05638:  BNZ   56E0
....................    for( i = 0 ; i < 64 ; i ++ ) 
0563A:  CLRF   xD5
0563C:  MOVF   xD5,W
0563E:  SUBLW  3F
05640:  BNC   56E0
....................    {  for( j = 0 ; j < 16 ; j ++) 
05642:  CLRF   xD6
05644:  MOVF   xD6,W
05646:  SUBLW  0F
05648:  BNC   56DC
....................       {  for(k=7;k>-1;k--) 
0564A:  MOVLW  07
0564C:  MOVWF  xD7
0564E:  MOVF   xD7,W
05650:  XORLW  80
05652:  SUBLW  7F
05654:  BC    56D8
....................          {       
....................             if( bit_test(Tomai[i][j] ,7-k ))  
05656:  CLRF   xD9
05658:  MOVFF  5D5,5D8
0565C:  CLRF   xDB
0565E:  MOVLW  10
05660:  MOVWF  xDA
05662:  MOVLB  0
05664:  RCALL  5564
05666:  MOVFF  02,5D9
0566A:  MOVFF  01,5D8
0566E:  MOVLB  5
05670:  MOVF   xD6,W
05672:  ADDWF  01,W
05674:  MOVWF  01
05676:  MOVLW  00
05678:  ADDWFC 02,W
0567A:  MOVWF  03
0567C:  MOVF   01,W
0567E:  MOVFF  FF2,5D8
05682:  BCF    FF2.7
05684:  MOVFF  03,FF7
05688:  MOVLB  0
0568A:  CALL   06BE
0568E:  MOVLB  5
05690:  BTFSC  xD8.7
05692:  BSF    FF2.7
05694:  MOVWF  xD8
05696:  MOVLW  07
05698:  BSF    FD8.0
0569A:  SUBFWB xD7,W
0569C:  MOVWF  xD9
0569E:  MOVFF  5D8,00
056A2:  MOVF   xD9,W
056A4:  MOVWF  01
056A6:  BZ    56B0
056A8:  BCF    FD8.0
056AA:  RRCF   00,F
056AC:  DECFSZ 01,F
056AE:  BRA    56A8
056B0:  BTFSS  00.0
056B2:  BRA    56D4
....................                glcd_pixel( j*8+k,i, ON ); 
056B4:  MOVF   xD6,W
056B6:  MULLW  08
056B8:  MOVF   FF3,W
056BA:  ADDWF  xD7,W
056BC:  MOVWF  xD8
056BE:  MOVFF  FE8,608
056C2:  MOVFF  5D5,609
056C6:  MOVLW  01
056C8:  MOVLB  6
056CA:  MOVWF  x0A
056CC:  MOVLB  0
056CE:  CALL   46FA
056D2:  MOVLB  5
....................          }   
056D4:  DECF   xD7,F
056D6:  BRA    564E
....................       } 
056D8:  INCF   xD6,F
056DA:  BRA    5644
....................    } 
056DC:  INCF   xD5,F
056DE:  BRA    563C
....................    } 
....................     
....................    if(x==5){ 
056E0:  MOVF   xD4,W
056E2:  SUBLW  05
056E4:  BNZ   578C
....................    for( i = 0 ; i < 64 ; i ++ ) 
056E6:  CLRF   xD5
056E8:  MOVF   xD5,W
056EA:  SUBLW  3F
056EC:  BNC   578C
....................    {  for( j = 0 ; j < 16 ; j ++) 
056EE:  CLRF   xD6
056F0:  MOVF   xD6,W
056F2:  SUBLW  0F
056F4:  BNC   5788
....................       {  for(k=7;k>-1;k--) 
056F6:  MOVLW  07
056F8:  MOVWF  xD7
056FA:  MOVF   xD7,W
056FC:  XORLW  80
056FE:  SUBLW  7F
05700:  BC    5784
....................          {       
....................             if( bit_test(Ventilador[i][j] ,7-k ))  
05702:  CLRF   xD9
05704:  MOVFF  5D5,5D8
05708:  CLRF   xDB
0570A:  MOVLW  10
0570C:  MOVWF  xDA
0570E:  MOVLB  0
05710:  RCALL  5564
05712:  MOVFF  02,5D9
05716:  MOVFF  01,5D8
0571A:  MOVLB  5
0571C:  MOVF   xD6,W
0571E:  ADDWF  01,W
05720:  MOVWF  01
05722:  MOVLW  00
05724:  ADDWFC 02,W
05726:  MOVWF  03
05728:  MOVF   01,W
0572A:  MOVFF  FF2,5D8
0572E:  BCF    FF2.7
05730:  MOVFF  03,FF7
05734:  MOVLB  0
05736:  CALL   0AD6
0573A:  MOVLB  5
0573C:  BTFSC  xD8.7
0573E:  BSF    FF2.7
05740:  MOVWF  xD8
05742:  MOVLW  07
05744:  BSF    FD8.0
05746:  SUBFWB xD7,W
05748:  MOVWF  xD9
0574A:  MOVFF  5D8,00
0574E:  MOVF   xD9,W
05750:  MOVWF  01
05752:  BZ    575C
05754:  BCF    FD8.0
05756:  RRCF   00,F
05758:  DECFSZ 01,F
0575A:  BRA    5754
0575C:  BTFSS  00.0
0575E:  BRA    5780
....................                glcd_pixel( j*8+k,i, ON ); 
05760:  MOVF   xD6,W
05762:  MULLW  08
05764:  MOVF   FF3,W
05766:  ADDWF  xD7,W
05768:  MOVWF  xD8
0576A:  MOVFF  FE8,608
0576E:  MOVFF  5D5,609
05772:  MOVLW  01
05774:  MOVLB  6
05776:  MOVWF  x0A
05778:  MOVLB  0
0577A:  CALL   46FA
0577E:  MOVLB  5
....................          }   
05780:  DECF   xD7,F
05782:  BRA    56FA
....................       } 
05784:  INCF   xD6,F
05786:  BRA    56F0
....................    } 
05788:  INCF   xD5,F
0578A:  BRA    56E8
....................    } 
.................... } 
0578C:  MOVLB  0
0578E:  RETLW  00
....................  
....................  
.................... Float LeerFlujoInFlow(int media) 
.................... { 
....................     InFlow_adc=sensores(1); 
*
03FAE:  MOVLW  01
03FB0:  MOVLB  5
03FB2:  MOVWF  xD5
03FB4:  MOVLB  0
03FB6:  GOTO   2CCC
03FBA:  MOVFF  02,4D7
03FBE:  MOVFF  01,4D6
....................        
....................     if(negativo==10) 
03FC2:  MOVLB  4
03FC4:  MOVF   xCB,W
03FC6:  SUBLW  0A
03FC8:  BNZ   4010
....................     { 
....................       x_uno=Inflow_adc+Diferencia; 
03FCA:  MOVFF  4D7,60A
03FCE:  MOVFF  4D6,609
03FD2:  MOVLB  0
03FD4:  CALL   172C
03FD8:  BCF    FD8.1
03FDA:  MOVFF  03,60C
03FDE:  MOVFF  02,60B
03FE2:  MOVFF  01,60A
03FE6:  MOVFF  00,609
03FEA:  MOVFF  517,610
03FEE:  MOVFF  516,60F
03FF2:  MOVFF  515,60E
03FF6:  MOVFF  514,60D
03FFA:  CALL   18C0
03FFE:  MOVFF  03,51F
04002:  MOVFF  02,51E
04006:  MOVFF  01,51D
0400A:  MOVFF  00,51C
0400E:  MOVLB  4
....................     } 
....................     if(negativo==20) 
04010:  MOVF   xCB,W
04012:  SUBLW  14
04014:  BNZ   405A
....................     { 
....................       x_uno=Inflow_adc-Diferencia; 
04016:  MOVFF  4D7,60A
0401A:  MOVFF  4D6,609
0401E:  MOVLB  0
04020:  CALL   172C
04024:  BSF    FD8.1
04026:  MOVFF  03,60C
0402A:  MOVFF  02,60B
0402E:  MOVFF  01,60A
04032:  MOVFF  00,609
04036:  MOVFF  517,610
0403A:  MOVFF  516,60F
0403E:  MOVFF  515,60E
04042:  MOVFF  514,60D
04046:  CALL   18C0
0404A:  MOVFF  03,51F
0404E:  MOVFF  02,51E
04052:  MOVFF  01,51D
04056:  MOVFF  00,51C
....................     } 
....................     Velocidad=(pow(x_uno,3)*a)+(pow(x_uno,2)*b)+(x_uno*c)+(d); 
0405A:  MOVFF  51F,5DC
0405E:  MOVFF  51E,5DB
04062:  MOVFF  51D,5DA
04066:  MOVFF  51C,5D9
0406A:  MOVLB  5
0406C:  CLRF   xE0
0406E:  CLRF   xDF
04070:  MOVLW  40
04072:  MOVWF  xDE
04074:  MOVLW  80
04076:  MOVWF  xDD
04078:  MOVLB  0
0407A:  RCALL  3CA2
0407C:  MOVFF  00,5D5
04080:  MOVFF  01,5D6
04084:  MOVFF  02,5D7
04088:  MOVFF  03,5D8
0408C:  MOVFF  03,608
04090:  MOVFF  02,607
04094:  MOVFF  01,606
04098:  MOVFF  00,605
0409C:  MOVFF  53B,60C
040A0:  MOVFF  53A,60B
040A4:  MOVFF  539,60A
040A8:  MOVFF  538,609
040AC:  CALL   2D48
040B0:  MOVFF  00,5D5
040B4:  MOVFF  01,5D6
040B8:  MOVFF  02,5D7
040BC:  MOVFF  03,5D8
040C0:  MOVFF  51F,5DC
040C4:  MOVFF  51E,5DB
040C8:  MOVFF  51D,5DA
040CC:  MOVFF  51C,5D9
040D0:  MOVLB  5
040D2:  CLRF   xE0
040D4:  CLRF   xDF
040D6:  CLRF   xDE
040D8:  MOVLW  80
040DA:  MOVWF  xDD
040DC:  MOVLB  0
040DE:  RCALL  3CA2
040E0:  MOVFF  00,5D9
040E4:  MOVFF  01,5DA
040E8:  MOVFF  02,5DB
040EC:  MOVFF  03,5DC
040F0:  MOVFF  03,608
040F4:  MOVFF  02,607
040F8:  MOVFF  01,606
040FC:  MOVFF  00,605
04100:  MOVFF  53F,60C
04104:  MOVFF  53E,60B
04108:  MOVFF  53D,60A
0410C:  MOVFF  53C,609
04110:  CALL   2D48
04114:  MOVFF  FEA,5DA
04118:  MOVFF  FE9,5D9
0411C:  BCF    FD8.1
0411E:  MOVFF  5D8,60C
04122:  MOVFF  5D7,60B
04126:  MOVFF  5D6,60A
0412A:  MOVFF  5D5,609
0412E:  MOVFF  03,610
04132:  MOVFF  02,60F
04136:  MOVFF  01,60E
0413A:  MOVFF  00,60D
0413E:  CALL   18C0
04142:  MOVFF  5DA,FEA
04146:  MOVFF  5D9,FE9
0414A:  MOVFF  00,5D5
0414E:  MOVFF  01,5D6
04152:  MOVFF  02,5D7
04156:  MOVFF  03,5D8
0415A:  MOVFF  51F,608
0415E:  MOVFF  51E,607
04162:  MOVFF  51D,606
04166:  MOVFF  51C,605
0416A:  MOVFF  543,60C
0416E:  MOVFF  542,60B
04172:  MOVFF  541,60A
04176:  MOVFF  540,609
0417A:  CALL   2D48
0417E:  MOVFF  FEA,5DC
04182:  MOVFF  FE9,5DB
04186:  BCF    FD8.1
04188:  MOVFF  5D8,60C
0418C:  MOVFF  5D7,60B
04190:  MOVFF  5D6,60A
04194:  MOVFF  5D5,609
04198:  MOVFF  03,610
0419C:  MOVFF  02,60F
041A0:  MOVFF  01,60E
041A4:  MOVFF  00,60D
041A8:  CALL   18C0
041AC:  MOVFF  5DC,FEA
041B0:  MOVFF  5DB,FE9
041B4:  MOVFF  00,5D5
041B8:  MOVFF  01,5D6
041BC:  MOVFF  02,5D7
041C0:  MOVFF  03,5D8
041C4:  MOVFF  FEA,5DE
041C8:  MOVFF  FE9,5DD
041CC:  BCF    FD8.1
041CE:  MOVFF  03,60C
041D2:  MOVFF  02,60B
041D6:  MOVFF  01,60A
041DA:  MOVFF  00,609
041DE:  MOVFF  547,610
041E2:  MOVFF  546,60F
041E6:  MOVFF  545,60E
041EA:  MOVFF  544,60D
041EE:  CALL   18C0
041F2:  MOVFF  5DE,FEA
041F6:  MOVFF  5DD,FE9
041FA:  MOVFF  03,51B
041FE:  MOVFF  02,51A
04202:  MOVFF  01,519
04206:  MOVFF  00,518
....................     //Velocidad=Velocidad*correccion;//Ajuste de Temperatura 
....................      
....................     if(Velocidad<0.0) 
0420A:  MOVFF  51B,608
0420E:  MOVFF  51A,607
04212:  MOVFF  519,606
04216:  MOVFF  518,605
0421A:  MOVLB  6
0421C:  CLRF   x0C
0421E:  CLRF   x0B
04220:  CLRF   x0A
04222:  CLRF   x09
04224:  MOVLB  0
04226:  CALL   22C2
0422A:  BNC   4236
....................      {Velocidad=0.0;} 
0422C:  MOVLB  5
0422E:  CLRF   x1B
04230:  CLRF   x1A
04232:  CLRF   x19
04234:  CLRF   x18
....................       
....................      if(l>=media) 
04236:  MOVLB  5
04238:  MOVF   xD4,W
0423A:  MOVLB  4
0423C:  SUBWF  xD1,W
0423E:  BNC   4242
....................        {l=0;} 
04240:  CLRF   xD1
....................       
....................      promedio[l]=Velocidad;l++; 
04242:  MOVF   xD1,W
04244:  MULLW  04
04246:  MOVF   FF3,W
04248:  CLRF   03
0424A:  ADDLW  48
0424C:  MOVWF  FE9
0424E:  MOVLW  05
04250:  ADDWFC 03,W
04252:  MOVWF  FEA
04254:  MOVFF  518,FEF
04258:  MOVFF  519,FEC
0425C:  MOVFF  51A,FEC
04260:  MOVFF  51B,FEC
04264:  INCF   xD1,F
....................      Flujo=0; 
04266:  MOVLB  5
04268:  CLRF   xAB
0426A:  CLRF   xAA
0426C:  CLRF   xA9
0426E:  CLRF   xA8
....................         for(h=0;h<=(media-1);h++) 
04270:  MOVLB  4
04272:  CLRF   xD2
04274:  MOVLW  01
04276:  MOVLB  5
04278:  SUBWF  xD4,W
0427A:  MOVLB  4
0427C:  SUBWF  xD2,W
0427E:  BZ    4282
04280:  BC    42F2
....................         { 
....................            Flujo+=promedio[h]; 
04282:  MOVF   xD2,W
04284:  MULLW  04
04286:  MOVF   FF3,W
04288:  CLRF   03
0428A:  ADDLW  48
0428C:  MOVWF  FE9
0428E:  MOVLW  05
04290:  ADDWFC 03,W
04292:  MOVWF  FEA
04294:  MOVFF  FEF,00
04298:  MOVFF  FEC,01
0429C:  MOVFF  FEC,02
042A0:  MOVFF  FEC,03
042A4:  MOVFF  FEA,5D6
042A8:  MOVFF  FE9,5D5
042AC:  BCF    FD8.1
042AE:  MOVFF  5AB,60C
042B2:  MOVFF  5AA,60B
042B6:  MOVFF  5A9,60A
042BA:  MOVFF  5A8,609
042BE:  MOVFF  03,610
042C2:  MOVFF  02,60F
042C6:  MOVFF  01,60E
042CA:  MOVFF  00,60D
042CE:  MOVLB  0
042D0:  CALL   18C0
042D4:  MOVFF  5D6,FEA
042D8:  MOVFF  5D5,FE9
042DC:  MOVFF  03,5AB
042E0:  MOVFF  02,5AA
042E4:  MOVFF  01,5A9
042E8:  MOVFF  00,5A8
....................         }  
042EC:  MOVLB  4
042EE:  INCF   xD2,F
042F0:  BRA    4274
....................            Flujo=(Flujo/media)*Ajuste1;  
042F2:  MOVLB  6
042F4:  CLRF   x0A
042F6:  MOVFF  5D4,609
042FA:  MOVLB  0
042FC:  CALL   172C
04300:  MOVFF  5AB,608
04304:  MOVFF  5AA,607
04308:  MOVFF  5A9,606
0430C:  MOVFF  5A8,605
04310:  MOVFF  03,60C
04314:  MOVFF  02,60B
04318:  MOVFF  01,60A
0431C:  MOVFF  00,609
04320:  CALL   1762
04324:  MOVFF  00,5D5
04328:  MOVFF  01,5D6
0432C:  MOVFF  02,5D7
04330:  MOVFF  03,5D8
04334:  MOVFF  03,608
04338:  MOVFF  02,607
0433C:  MOVFF  01,606
04340:  MOVFF  00,605
04344:  MOVFF  52B,60C
04348:  MOVFF  52A,60B
0434C:  MOVFF  529,60A
04350:  MOVFF  528,609
04354:  CALL   2D48
04358:  MOVFF  03,5AB
0435C:  MOVFF  02,5AA
04360:  MOVFF  01,5A9
04364:  MOVFF  00,5A8
....................            return Flujo; 
04368:  MOVFF  5A8,00
0436C:  MOVFF  5A9,01
04370:  MOVFF  5AA,02
04374:  MOVFF  5AB,03
.................... } 
04378:  GOTO   60D8 (RETURN)
....................  
.................... void main(){ 
*
05B3C:  CLRF   FF8
05B3E:  BCF    FD0.7
05B40:  BSF    07.7
05B42:  CLRF   FEA
05B44:  CLRF   FE9
05B46:  MOVLB  4
05B48:  BCF    x2C.0
05B4A:  BCF    x2C.1
05B4C:  BCF    x2C.2
05B4E:  BCF    x2C.3
05B50:  BCF    x2C.4
05B52:  BCF    x2C.5
05B54:  BCF    x2C.6
05B56:  BCF    x2C.7
05B58:  BCF    x2D.0
05B5A:  BCF    x2D.1
05B5C:  BCF    x2D.2
05B5E:  BCF    x2D.3
05B60:  BCF    x2D.4
05B62:  BCF    x2D.5
05B64:  BCF    x2D.6
05B66:  BCF    x2D.7
05B68:  BCF    x2E.0
05B6A:  BCF    x2E.1
05B6C:  BCF    x2E.2
05B6E:  BCF    x2E.3
05B70:  BCF    x2E.4
05B72:  BCF    x2E.5
05B74:  BCF    x2E.6
05B76:  BCF    x2E.7
05B78:  BCF    x2F.0
05B7A:  MOVLW  C8
05B7C:  MOVWF  xC8
05B7E:  MOVLW  01
05B80:  MOVWF  xC9
05B82:  MOVWF  xCA
05B84:  MOVLW  0A
05B86:  MOVWF  xCB
05B88:  CLRF   xCC
05B8A:  CLRF   xCD
05B8C:  CLRF   xCE
05B8E:  CLRF   xCF
05B90:  CLRF   xD0
05B92:  CLRF   xD1
05B94:  CLRF   xD2
05B96:  CLRF   xD3
05B98:  CLRF   xD4
05B9A:  MOVWF  xD5
05B9C:  CLRF   xD7
05B9E:  CLRF   xD6
05BA0:  CLRF   xD9
05BA2:  CLRF   xD8
05BA4:  CLRF   xDB
05BA6:  CLRF   xDA
05BA8:  CLRF   xDD
05BAA:  CLRF   xDC
05BAC:  CLRF   xDF
05BAE:  CLRF   xDE
05BB0:  CLRF   xE1
05BB2:  CLRF   xE0
05BB4:  CLRF   xE3
05BB6:  CLRF   xE2
05BB8:  MOVLB  5
05BBA:  CLRF   x0B
05BBC:  CLRF   x0A
05BBE:  CLRF   x09
05BC0:  CLRF   x08
05BC2:  CLRF   x0F
05BC4:  CLRF   x0E
05BC6:  CLRF   x0D
05BC8:  CLRF   x0C
05BCA:  CLRF   x13
05BCC:  CLRF   x12
05BCE:  CLRF   x11
05BD0:  CLRF   x10
05BD2:  CLRF   x17
05BD4:  CLRF   x16
05BD6:  CLRF   x15
05BD8:  CLRF   x14
05BDA:  CLRF   x1B
05BDC:  CLRF   x1A
05BDE:  CLRF   x19
05BE0:  CLRF   x18
05BE2:  CLRF   x1F
05BE4:  CLRF   x1E
05BE6:  CLRF   x1D
05BE8:  CLRF   x1C
05BEA:  CLRF   x23
05BEC:  CLRF   x22
05BEE:  CLRF   x21
05BF0:  CLRF   x20
05BF2:  CLRF   x27
05BF4:  CLRF   x26
05BF6:  CLRF   x25
05BF8:  CLRF   x24
05BFA:  CLRF   x2B
05BFC:  CLRF   x2A
05BFE:  CLRF   x29
05C00:  CLRF   x28
05C02:  CLRF   x2F
05C04:  CLRF   x2E
05C06:  CLRF   x2D
05C08:  CLRF   x2C
05C0A:  CLRF   x33
05C0C:  CLRF   x32
05C0E:  CLRF   x31
05C10:  CLRF   x30
05C12:  CLRF   x37
05C14:  CLRF   x36
05C16:  CLRF   x35
05C18:  CLRF   x34
05C1A:  MOVLW  29
05C1C:  MOVWF  x3B
05C1E:  MOVLW  B6
05C20:  MOVWF  x3A
05C22:  MOVLW  20
05C24:  MOVWF  x39
05C26:  MOVLW  6E
05C28:  MOVWF  x38
05C2A:  MOVLW  EE
05C2C:  MOVWF  x3F
05C2E:  MOVLW  7D
05C30:  MOVWF  x3E
05C32:  MOVLW  EE
05C34:  MOVWF  x3D
05C36:  MOVLW  77
05C38:  MOVWF  x3C
05C3A:  MOVLW  ED
05C3C:  MOVWF  x43
05C3E:  MOVLW  47
05C40:  MOVWF  x42
05C42:  MOVLW  6D
05C44:  MOVWF  x41
05C46:  MOVLW  7F
05C48:  MOVWF  x40
05C4A:  MOVLW  1A
05C4C:  MOVWF  x47
05C4E:  MOVLW  D1
05C50:  MOVWF  x46
05C52:  MOVLW  9C
05C54:  MOVWF  x45
05C56:  MOVLW  86
05C58:  MOVWF  x44
05C5A:  CLRF   xAB
05C5C:  CLRF   xAA
05C5E:  CLRF   xA9
05C60:  CLRF   xA8
05C62:  CLRF   xAF
05C64:  CLRF   xAE
05C66:  MOVLW  50
05C68:  MOVWF  xAD
05C6A:  MOVLW  86
05C6C:  MOVWF  xAC
05C6E:  CLRF   xB3
05C70:  CLRF   xB2
05C72:  CLRF   xB1
05C74:  CLRF   xB0
05C76:  CLRF   xB7
05C78:  CLRF   xB6
05C7A:  CLRF   xB5
05C7C:  CLRF   xB4
05C7E:  CLRF   xBB
05C80:  CLRF   xBA
05C82:  CLRF   xB9
05C84:  CLRF   xB8
05C86:  CLRF   xBF
05C88:  CLRF   xBE
05C8A:  CLRF   xBD
05C8C:  MOVLW  80
05C8E:  MOVWF  xBC
05C90:  CLRF   xC1
05C92:  CLRF   xC0
05C94:  CLRF   xC3
05C96:  CLRF   xC2
05C98:  CLRF   xC4
05C9A:  CLRF   xC5
05C9C:  CLRF   xC6
05C9E:  CLRF   xC7
05CA0:  MOVLB  4
05CA2:  BCF    x2F.1
05CA4:  BCF    x2F.2
05CA6:  MOVLB  5
05CA8:  CLRF   xC9
05CAA:  CLRF   xC8
05CAC:  CLRF   xCA
05CAE:  CLRF   xCB
05CB0:  CLRF   xCF
05CB2:  CLRF   xCE
05CB4:  CLRF   xCD
05CB6:  CLRF   xCC
05CB8:  CLRF   xD3
05CBA:  CLRF   xD2
05CBC:  CLRF   xD1
05CBE:  CLRF   xD0
05CC0:  MOVF   FC1,W
05CC2:  ANDLW  C0
05CC4:  IORLW  0F
05CC6:  MOVWF  FC1
05CC8:  MOVLW  07
05CCA:  MOVWF  FB4
05CCC:  MOVLB  4
05CCE:  CLRF   x2A
05CD0:  CLRF   x2B
05CD2:  MOVLW  4A
05CD4:  MOVWF  x30
05CD6:  MOVLW  50
05CD8:  MOVWF  x31
05CDA:  MOVLW  20
05CDC:  MOVWF  x32
05CDE:  MOVLW  49
05CE0:  MOVWF  x33
05CE2:  MOVLW  6E
05CE4:  MOVWF  x34
05CE6:  MOVLW  67
05CE8:  MOVWF  x35
05CEA:  MOVLW  6C
05CEC:  MOVWF  x36
05CEE:  MOVLW  6F
05CF0:  MOVWF  x37
05CF2:  MOVLW  62
05CF4:  MOVWF  x38
05CF6:  MOVLW  61
05CF8:  MOVWF  x39
05CFA:  MOVLW  6C
05CFC:  MOVWF  x3A
05CFE:  CLRF   x3B
05D00:  MOVLW  43
05D02:  MOVWF  x3C
05D04:  MOVLW  61
05D06:  MOVWF  x3D
05D08:  MOVLW  62
05D0A:  MOVWF  x3E
05D0C:  MOVLW  69
05D0E:  MOVWF  x3F
05D10:  MOVLW  6E
05D12:  MOVWF  x40
05D14:  MOVLW  61
05D16:  MOVWF  x41
05D18:  MOVLW  20
05D1A:  MOVWF  x42
05D1C:  MOVLW  45
05D1E:  MOVWF  x43
05D20:  MOVLW  78
05D22:  MOVWF  x44
05D24:  MOVLW  74
05D26:  MOVWF  x45
05D28:  MOVLW  72
05D2A:  MOVWF  x46
05D2C:  MOVLW  61
05D2E:  MOVWF  x47
05D30:  MOVLW  63
05D32:  MOVWF  x48
05D34:  MOVLW  74
05D36:  MOVWF  x49
05D38:  MOVLW  6F
05D3A:  MOVWF  x4A
05D3C:  MOVLW  72
05D3E:  MOVWF  x4B
05D40:  MOVLW  61
05D42:  MOVWF  x4C
05D44:  CLRF   x4D
05D46:  MOVLW  3A
05D48:  MOVWF  x4E
05D4A:  CLRF   x4F
05D4C:  MOVLW  55
05D4E:  MOVWF  x50
05D50:  MOVLW  56
05D52:  MOVWF  x51
05D54:  CLRF   x52
05D56:  MOVLW  43
05D58:  MOVWF  x53
05D5A:  MOVLW  6F
05D5C:  MOVWF  x54
05D5E:  MOVLW  6E
05D60:  MOVWF  x55
05D62:  MOVLW  20
05D64:  MOVWF  x56
05D66:  MOVLW  44
05D68:  MOVWF  x57
05D6A:  MOVLW  75
05D6C:  MOVWF  x58
05D6E:  MOVLW  63
05D70:  MOVWF  x59
05D72:  MOVLW  74
05D74:  MOVWF  x5A
05D76:  MOVLW  6F
05D78:  MOVWF  x5B
05D7A:  MOVLW  73
05D7C:  MOVWF  x5C
05D7E:  CLRF   x5D
05D80:  MOVLW  54
05D82:  MOVWF  x5E
05D84:  MOVLW  69
05D86:  MOVWF  x5F
05D88:  MOVLW  65
05D8A:  MOVWF  x60
05D8C:  MOVLW  6D
05D8E:  MOVWF  x61
05D90:  MOVLW  70
05D92:  MOVWF  x62
05D94:  MOVLW  6F
05D96:  MOVWF  x63
05D98:  MOVLW  20
05D9A:  MOVWF  x64
05D9C:  MOVLW  64
05D9E:  MOVWF  x65
05DA0:  MOVLW  65
05DA2:  MOVWF  x66
05DA4:  MOVLW  20
05DA6:  MOVWF  x67
05DA8:  MOVLW  50
05DAA:  MOVWF  x68
05DAC:  MOVLW  75
05DAE:  MOVWF  x69
05DB0:  MOVLW  72
05DB2:  MOVWF  x6A
05DB4:  MOVLW  67
05DB6:  MOVWF  x6B
05DB8:  MOVLW  61
05DBA:  MOVWF  x6C
05DBC:  CLRF   x6D
05DBE:  MOVLW  56
05DC0:  MOVWF  x6E
05DC2:  MOVLW  65
05DC4:  MOVWF  x6F
05DC6:  MOVLW  6C
05DC8:  MOVWF  x70
05DCA:  MOVLW  3A
05DCC:  MOVWF  x71
05DCE:  CLRF   x72
05DD0:  MOVLW  54
05DD2:  MOVWF  x73
05DD4:  MOVLW  65
05DD6:  MOVWF  x74
05DD8:  MOVLW  6D
05DDA:  MOVWF  x75
05DDC:  MOVLW  70
05DDE:  MOVWF  x76
05DE0:  MOVLW  65
05DE2:  MOVWF  x77
05DE4:  MOVLW  72
05DE6:  MOVWF  x78
05DE8:  MOVLW  61
05DEA:  MOVWF  x79
05DEC:  MOVLW  74
05DEE:  MOVWF  x7A
05DF0:  MOVLW  75
05DF2:  MOVWF  x7B
05DF4:  MOVLW  72
05DF6:  MOVWF  x7C
05DF8:  MOVLW  61
05DFA:  MOVWF  x7D
05DFC:  CLRF   x7E
05DFE:  MOVLW  46
05E00:  MOVWF  x7F
05E02:  MOVLW  61
05E04:  MOVWF  x80
05E06:  MOVLW  62
05E08:  MOVWF  x81
05E0A:  MOVLW  72
05E0C:  MOVWF  x82
05E0E:  MOVLW  69
05E10:  MOVWF  x83
05E12:  MOVLW  63
05E14:  MOVWF  x84
05E16:  MOVLW  61
05E18:  MOVWF  x85
05E1A:  MOVLW  3A
05E1C:  MOVWF  x86
05E1E:  MOVLW  32
05E20:  MOVWF  x87
05E22:  MOVLW  30
05E24:  MOVWF  x88
05E26:  MOVLW  38
05E28:  MOVWF  x89
05E2A:  MOVLW  2E
05E2C:  MOVWF  x8A
05E2E:  MOVLW  30
05E30:  MOVWF  x8B
05E32:  CLRF   x8C
05E34:  MOVLW  41
05E36:  MOVWF  x8D
05E38:  MOVLW  63
05E3A:  MOVWF  x8E
05E3C:  MOVLW  74
05E3E:  MOVWF  x8F
05E40:  MOVLW  75
05E42:  MOVWF  x90
05E44:  MOVLW  61
05E46:  MOVWF  x91
05E48:  MOVLW  6C
05E4A:  MOVWF  x92
05E4C:  MOVLW  3A
05E4E:  MOVWF  x93
05E50:  CLRF   x94
05E52:  MOVLW  41
05E54:  MOVWF  x95
05E56:  MOVLW  6A
05E58:  MOVWF  x96
05E5A:  MOVLW  75
05E5C:  MOVWF  x97
05E5E:  MOVLW  73
05E60:  MOVWF  x98
05E62:  MOVLW  74
05E64:  MOVWF  x99
05E66:  MOVLW  65
05E68:  MOVWF  x9A
05E6A:  MOVLW  3A
05E6C:  MOVWF  x9B
05E6E:  CLRF   x9C
05E70:  MOVLW  54
05E72:  MOVWF  x9D
05E74:  MOVLW  2E
05E76:  MOVWF  x9E
05E78:  MOVLW  20
05E7A:  MOVWF  x9F
05E7C:  MOVLW  46
05E7E:  MOVWF  xA0
05E80:  MOVLW  69
05E82:  MOVWF  xA1
05E84:  MOVLW  6C
05E86:  MOVWF  xA2
05E88:  MOVLW  74
05E8A:  MOVWF  xA3
05E8C:  MOVLW  72
05E8E:  MOVWF  xA4
05E90:  MOVLW  6F
05E92:  MOVWF  xA5
05E94:  MOVLW  3A
05E96:  MOVWF  xA6
05E98:  CLRF   xA7
05E9A:  MOVLW  46
05E9C:  MOVWF  xA8
05E9E:  MOVLW  61
05EA0:  MOVWF  xA9
05EA2:  MOVLW  62
05EA4:  MOVWF  xAA
05EA6:  MOVLW  72
05EA8:  MOVWF  xAB
05EAA:  MOVLW  69
05EAC:  MOVWF  xAC
05EAE:  MOVLW  63
05EB0:  MOVWF  xAD
05EB2:  MOVLW  61
05EB4:  MOVWF  xAE
05EB6:  MOVLW  3A
05EB8:  MOVWF  xAF
05EBA:  MOVLW  32
05EBC:  MOVWF  xB0
05EBE:  MOVLW  33
05EC0:  MOVWF  xB1
05EC2:  MOVLW  35
05EC4:  MOVWF  xB2
05EC6:  MOVLW  2E
05EC8:  MOVWF  xB3
05ECA:  MOVLW  30
05ECC:  MOVWF  xB4
05ECE:  CLRF   xB5
05ED0:  MOVLW  21
05ED2:  MOVWF  xB6
05ED4:  MOVLW  46
05ED6:  MOVWF  xB7
05ED8:  MOVLW  69
05EDA:  MOVWF  xB8
05EDC:  MOVLW  6C
05EDE:  MOVWF  xB9
05EE0:  MOVLW  74
05EE2:  MOVWF  xBA
05EE4:  MOVLW  72
05EE6:  MOVWF  xBB
05EE8:  MOVLW  6F
05EEA:  MOVWF  xBC
05EEC:  MOVLW  20
05EEE:  MOVWF  xBD
05EF0:  MOVLW  53
05EF2:  MOVWF  xBE
05EF4:  MOVLW  61
05EF6:  MOVWF  xBF
05EF8:  MOVLW  74
05EFA:  MOVWF  xC0
05EFC:  MOVLW  75
05EFE:  MOVWF  xC1
05F00:  MOVLW  72
05F02:  MOVWF  xC2
05F04:  MOVLW  61
05F06:  MOVWF  xC3
05F08:  MOVLW  64
05F0A:  MOVWF  xC4
05F0C:  MOVLW  6F
05F0E:  MOVWF  xC5
05F10:  MOVLW  21
05F12:  MOVWF  xC6
05F14:  CLRF   xC7
05F16:  CLRF   xE4
05F18:  CLRF   xE5
05F1A:  CLRF   xE6
05F1C:  CLRF   xE7
05F1E:  MOVLW  09
05F20:  MOVWF  xE8
05F22:  CLRF   xE9
05F24:  CLRF   xEA
05F26:  CLRF   xEB
05F28:  CLRF   xEC
05F2A:  CLRF   xED
05F2C:  CLRF   xEE
05F2E:  CLRF   xEF
05F30:  MOVWF  xF0
05F32:  CLRF   xF1
05F34:  CLRF   xF2
05F36:  CLRF   xF3
05F38:  CLRF   xF4
05F3A:  CLRF   xF5
05F3C:  CLRF   xF6
05F3E:  CLRF   xF7
05F40:  CLRF   xF8
05F42:  CLRF   xF9
05F44:  CLRF   xFA
05F46:  CLRF   xFB
05F48:  CLRF   xFC
05F4A:  CLRF   xFD
05F4C:  CLRF   xFE
05F4E:  CLRF   xFF
05F50:  MOVLB  5
05F52:  CLRF   x00
05F54:  CLRF   x01
05F56:  CLRF   x02
05F58:  CLRF   x03
05F5A:  CLRF   x04
05F5C:  CLRF   x05
05F5E:  CLRF   x06
05F60:  CLRF   x07
05F62:  CLRF   x48
05F64:  CLRF   x49
05F66:  CLRF   x4A
05F68:  CLRF   x4B
05F6A:  CLRF   x4C
05F6C:  CLRF   x4D
05F6E:  CLRF   x4E
05F70:  CLRF   x4F
05F72:  CLRF   x50
05F74:  CLRF   x51
05F76:  CLRF   x52
05F78:  CLRF   x53
05F7A:  CLRF   x54
05F7C:  CLRF   x55
05F7E:  CLRF   x56
05F80:  CLRF   x57
05F82:  CLRF   x58
05F84:  CLRF   x59
05F86:  CLRF   x5A
05F88:  CLRF   x5B
05F8A:  CLRF   x5C
05F8C:  CLRF   x5D
05F8E:  CLRF   x5E
05F90:  CLRF   x5F
05F92:  CLRF   x60
05F94:  CLRF   x61
05F96:  CLRF   x62
05F98:  CLRF   x63
05F9A:  CLRF   x64
05F9C:  CLRF   x65
05F9E:  CLRF   x66
05FA0:  CLRF   x67
05FA2:  CLRF   x68
05FA4:  CLRF   x69
05FA6:  CLRF   x6A
05FA8:  CLRF   x6B
05FAA:  CLRF   x6C
05FAC:  CLRF   x6D
05FAE:  CLRF   x6E
05FB0:  CLRF   x6F
05FB2:  CLRF   x70
05FB4:  CLRF   x71
05FB6:  CLRF   x72
05FB8:  CLRF   x73
05FBA:  CLRF   x74
05FBC:  CLRF   x75
05FBE:  CLRF   x76
05FC0:  CLRF   x77
05FC2:  CLRF   x78
05FC4:  CLRF   x79
05FC6:  CLRF   x7A
05FC8:  CLRF   x7B
05FCA:  CLRF   x7C
05FCC:  CLRF   x7D
05FCE:  CLRF   x7E
05FD0:  CLRF   x7F
05FD2:  CLRF   x80
05FD4:  CLRF   x81
05FD6:  CLRF   x82
05FD8:  CLRF   x83
05FDA:  CLRF   x84
05FDC:  CLRF   x85
05FDE:  CLRF   x86
05FE0:  CLRF   x87
05FE2:  CLRF   x88
05FE4:  CLRF   x89
05FE6:  CLRF   x8A
05FE8:  CLRF   x8B
05FEA:  CLRF   x8C
05FEC:  CLRF   x8D
05FEE:  CLRF   x8E
05FF0:  CLRF   x8F
05FF2:  CLRF   x90
05FF4:  CLRF   x91
05FF6:  CLRF   x92
05FF8:  CLRF   x93
05FFA:  CLRF   x94
05FFC:  CLRF   x95
05FFE:  CLRF   x96
06000:  CLRF   x97
06002:  CLRF   x98
06004:  CLRF   x99
06006:  CLRF   x9A
06008:  CLRF   x9B
0600A:  CLRF   x9C
0600C:  CLRF   x9D
0600E:  CLRF   x9E
06010:  CLRF   x9F
06012:  CLRF   xA0
06014:  CLRF   xA1
06016:  CLRF   xA2
06018:  CLRF   xA3
0601A:  CLRF   xA4
0601C:  CLRF   xA5
0601E:  CLRF   xA6
06020:  CLRF   xA7
....................    delay_ms(1000); 
06022:  MOVLW  04
06024:  MOVWF  xD4
06026:  MOVLW  FA
06028:  MOVWF  xDD
0602A:  MOVLB  0
0602C:  CALL   1492
06030:  MOVLB  5
06032:  DECFSZ xD4,F
06034:  BRA    6026
....................    Cruce=OFF; 
06036:  MOVLB  4
06038:  BCF    x2F.1
....................    VelocidadMotor(0); 
0603A:  MOVLB  5
0603C:  CLRF   xD4
0603E:  MOVLB  0
06040:  CALL   14BA
....................    Tcruce2=83; 
06044:  MOVLB  5
06046:  CLRF   xD3
06048:  CLRF   xD2
0604A:  MOVLW  26
0604C:  MOVWF  xD1
0604E:  MOVLW  85
06050:  MOVWF  xD0
....................    Tcruce=8300; 
06052:  CLRF   xCF
06054:  MOVLW  B0
06056:  MOVWF  xCE
06058:  MOVLW  01
0605A:  MOVWF  xCD
0605C:  MOVLW  8C
0605E:  MOVWF  xCC
....................    Motor_off; 
06060:  BCF    F8B.2
06062:  BCF    F94.2
....................    //setup_timer_1(T1_INTERNAL|T1_DIV_BY_1); 
....................    //enable_interrupts(INT_TIMER1); 
....................    enable_interrupts(INT_EXT_L2H); 
06064:  BSF    FF2.4
06066:  BSF    FF1.6
....................    setup_adc_ports(AN0_TO_AN1); 
06068:  MOVF   FC1,W
0606A:  ANDLW  C0
0606C:  IORLW  0D
0606E:  MOVWF  FC1
....................    setup_adc(ADC_CLOCK_DIV_32 ); 
06070:  MOVF   FC0,W
06072:  ANDLW  C0
06074:  IORLW  02
06076:  MOVWF  FC0
06078:  BSF    FC0.7
0607A:  BSF    FC2.0
....................    enable_interrupts(global);   
0607C:  MOVLW  C0
0607E:  IORWF  FF2,F
....................    VelocidadMotor(0); 
06080:  CLRF   xD4
06082:  MOVLB  0
06084:  CALL   14BA
....................    Motor_off; 
06088:  BCF    F8B.2
0608A:  BCF    F94.2
.................... //-------Inicio de Cabina-------------------------------------------------------------------------// 
....................    //Display_on; 
....................    //glcd_init(ON);             //Inicializa la glcd 
....................    //glcd_fillScreen(OFF);      //Limpia la pantalla 
....................    //glcd_text57(0, 0, JP, 2, ON);glcd_text57(5, 20, Cabina, 1, ON);glcd_text57(10, 40, Clase, 2, ON);              
....................    //glcd_update(); 
....................    //delay_ms(3000); 
....................                         
....................    //glcd_filScreen(OFF);      //Limpia la pantalla 
....................    glcd_init(ON); 
0608C:  MOVLW  01
0608E:  MOVLB  5
06090:  MOVWF  xD4
06092:  MOVLB  0
06094:  CALL   1684
....................    Menu=200; 
06098:  MOVLW  C8
0609A:  MOVLB  4
0609C:  MOVWF  xC8
....................    LuzBlanca_off;Alarma_off;Aux_off; 
0609E:  BSF    F8B.1
060A0:  BCF    F94.1
060A2:  BCF    F8B.7
060A4:  BCF    F94.7
060A6:  BSF    F8B.0
060A8:  BCF    F94.0
.................... //-------Inicio de Cabina-------------------------------------------------------------------------// 
....................    VelocidadMotor(0); 
060AA:  MOVLB  5
060AC:  CLRF   xD4
060AE:  MOVLB  0
060B0:  CALL   14BA
....................    Motor_off; 
060B4:  BCF    F8B.2
060B6:  BCF    F94.2
....................    LeeEEPROM(); // Lectura de variables almacenadas en la EEPROM  
060B8:  GOTO   1B38
....................    LimitaValores(); 
060BC:  GOTO   233C
....................    //Menu=2; 
....................    while(true){  
....................    glcd_update(); 
060C0:  CALL   15CC
.................... //**Actualizacin de Lectura de Sensores**//    
....................    if(Lectura==1){ 
060C4:  MOVLB  4
060C6:  BTFSS  x2E.7
060C8:  BRA    60E8
....................       Lectura=0; 
060CA:  BCF    x2E.7
....................       InFlow=LeerFlujoInFlow(8); 
060CC:  MOVLW  08
060CE:  MOVLB  5
060D0:  MOVWF  xD4
060D2:  MOVLB  0
060D4:  GOTO   3FAE
060D8:  MOVFF  03,50B
060DC:  MOVFF  02,50A
060E0:  MOVFF  01,509
060E4:  MOVFF  00,508
....................       //Temperatura=leeTemperatura(5); 
....................    } 
.................... //----------------------------------------// 
....................    cuentaTiempos(); 
060E8:  MOVLB  0
060EA:  CALL   437C
.................... //----------------------------------------//       
....................     
....................    if(Menu!=2){// Si no esta en el menu de estados apaga la alarma 
060EE:  MOVLB  4
060F0:  MOVF   xC8,W
060F2:  SUBLW  02
060F4:  BZ    60FE
....................       Alarma_off; 
060F6:  BCF    F8B.7
060F8:  BCF    F94.7
....................       Alarma=10; 
060FA:  MOVLW  0A
060FC:  MOVWF  xD5
....................    } 
....................     
.................... //_-------------------------------------------------------------------------------------------------------------------------------------------------------- 
....................    if(Menu==0){ //Menu de Contrasea. 
060FE:  MOVF   xC8,F
06100:  BNZ   6138
....................       while(PidePassword(0,0,1,Password[0],Password[1],Password[2],Password[3])==0){ 
06102:  MOVLB  5
06104:  CLRF   xD5
06106:  CLRF   xD6
06108:  MOVLW  01
0610A:  MOVWF  xD7
0610C:  MOVFF  504,5D8
06110:  MOVFF  505,5D9
06114:  MOVFF  506,5DA
06118:  MOVFF  507,5DB
0611C:  MOVLB  0
0611E:  CALL   4D6A
06122:  MOVF   01,F
06124:  BNZ   613A
....................          VelocidadMotor(0); 
06126:  MOVLB  5
06128:  CLRF   xD4
0612A:  MOVLB  0
0612C:  CALL   14BA
....................          glcd_update(); 
06130:  CALL   15CC
....................       }        
06134:  MOVLB  4
06136:  BRA    6102
06138:  MOVLB  0
....................    } 
.................... //_--------------------------------------------------------------------------------------------------------------------------------------------------------        
....................  
.................... //_-------------------------------------------------------------------------------------------------------------------------------------------------------- 
....................       if(Menu==1){//Menu de Purga. 
0613A:  MOVLB  4
0613C:  DECFSZ xC8,W
0613E:  BRA    632C
....................          Purga=ON; 
06140:  BSF    x2F.2
....................          glcd_text57(15, 1, Tiempo, 1, ON); 
06142:  MOVLW  0F
06144:  MOVLB  5
06146:  MOVWF  xED
06148:  MOVLW  01
0614A:  MOVWF  xEE
0614C:  MOVLW  04
0614E:  MOVWF  xF0
06150:  MOVLW  5E
06152:  MOVWF  xEF
06154:  MOVLW  01
06156:  MOVWF  xF1
06158:  MOVWF  xF2
0615A:  MOVLB  0
0615C:  CALL   4A24
....................          tiempo_purga=1;LuzBlanca_off;//Alarma_off; 
06160:  MOVLB  4
06162:  BSF    x2D.5
06164:  BSF    F8B.1
06166:  BCF    F94.1
....................          glcd_rect(9, 54, 120, 64, YES, OFF);          
06168:  MOVLW  09
0616A:  MOVLB  5
0616C:  MOVWF  xED
0616E:  MOVLW  36
06170:  MOVWF  xEE
06172:  MOVLW  78
06174:  MOVWF  xEF
06176:  MOVLW  40
06178:  MOVWF  xF0
0617A:  MOVLW  01
0617C:  MOVWF  xF1
0617E:  CLRF   xF2
06180:  MOVLB  0
06182:  CALL   4962
....................          displayTiempo(Tpurga[3],20,20,0,2);displayTiempo(Tpurga[2],40,20,0,2);glcd_text57(60, 22, Dos_puntos, 2, ON); 
06186:  MOVFF  4E7,5D4
0618A:  MOVLW  14
0618C:  MOVLB  5
0618E:  MOVWF  xD5
06190:  MOVWF  xD6
06192:  CLRF   xD7
06194:  MOVLW  02
06196:  MOVWF  xD8
06198:  MOVLB  0
0619A:  CALL   5430
0619E:  MOVFF  4E6,5D4
061A2:  MOVLW  28
061A4:  MOVLB  5
061A6:  MOVWF  xD5
061A8:  MOVLW  14
061AA:  MOVWF  xD6
061AC:  CLRF   xD7
061AE:  MOVLW  02
061B0:  MOVWF  xD8
061B2:  MOVLB  0
061B4:  CALL   5430
061B8:  MOVLW  3C
061BA:  MOVLB  5
061BC:  MOVWF  xED
061BE:  MOVLW  16
061C0:  MOVWF  xEE
061C2:  MOVLW  04
061C4:  MOVWF  xF0
061C6:  MOVLW  4E
061C8:  MOVWF  xEF
061CA:  MOVLW  02
061CC:  MOVWF  xF1
061CE:  MOVLW  01
061D0:  MOVWF  xF2
061D2:  MOVLB  0
061D4:  CALL   4A24
....................          displayTiempo(Tpurga[1],70,20,0,2);displayTiempo(Tpurga[0],90,20,0,2);         
061D8:  MOVFF  4E5,5D4
061DC:  MOVLW  46
061DE:  MOVLB  5
061E0:  MOVWF  xD5
061E2:  MOVLW  14
061E4:  MOVWF  xD6
061E6:  CLRF   xD7
061E8:  MOVLW  02
061EA:  MOVWF  xD8
061EC:  MOVLB  0
061EE:  CALL   5430
061F2:  MOVFF  4E4,5D4
061F6:  MOVLW  5A
061F8:  MOVLB  5
061FA:  MOVWF  xD5
061FC:  MOVLW  14
061FE:  MOVWF  xD6
06200:  CLRF   xD7
06202:  MOVLW  02
06204:  MOVWF  xD8
06206:  MOVLB  0
06208:  CALL   5430
....................           
....................          VelocidadMotor(VelMotor); 
0620C:  MOVFF  5CB,5D4
06210:  CALL   14BA
....................           
....................          if(RIGHT){ 
06214:  BSF    F96.1
06216:  BTFSC  F84.1
06218:  BRA    6250
....................             delay_ms(500); 
0621A:  MOVLW  02
0621C:  MOVLB  5
0621E:  MOVWF  xD4
06220:  MOVLW  FA
06222:  MOVWF  xDD
06224:  MOVLB  0
06226:  CALL   1492
0622A:  MOVLB  5
0622C:  DECFSZ xD4,F
0622E:  BRA    6220
....................             if(RIGHT){ 
06230:  BSF    F96.1
06232:  BTFSC  F84.1
06234:  BRA    624E
....................                tiempo_purga=0;Menu=2;glcd_fillScreen(OFF);Flanco3=1; 
06236:  MOVLB  4
06238:  BCF    x2D.5
0623A:  MOVLW  02
0623C:  MOVWF  xC8
0623E:  MOVLB  5
06240:  CLRF   xDC
06242:  MOVLB  0
06244:  CALL   1572
06248:  MOVLB  4
0624A:  BSF    x2C.3
0624C:  MOVLB  5
0624E:  MOVLB  0
....................             } 
....................          } 
....................           
....................          if(UP){//Si oprime boton de Toma. 
06250:  BSF    F92.5
06252:  BTFSC  F80.5
06254:  BRA    6278
....................             Flanco1=1; 
06256:  MOVLB  4
06258:  BSF    x2C.1
....................             if(!flagup){ 
0625A:  BTFSC  x2E.5
0625C:  BRA    6274
....................                delay_ms(200); 
0625E:  MOVLW  C8
06260:  MOVLB  5
06262:  MOVWF  xDD
06264:  MOVLB  0
06266:  CALL   1492
....................                if(UP){ 
0626A:  BSF    F92.5
0626C:  BTFSC  F80.5
0626E:  BRA    6276
....................                   flagup=1; 
06270:  MOVLB  4
06272:  BSF    x2E.5
06274:  MOVLB  0
....................                } 
....................             } 
....................          }else{ 
06276:  BRA    6280
....................             flagup=0; 
06278:  MOVLB  4
0627A:  BCF    x2E.5
....................             Flanco1=0; 
0627C:  BCF    x2C.1
0627E:  MOVLB  0
....................          } 
....................        
....................          if(DOWN){//Si oprime boton de Luz Blanca. 
06280:  BSF    F96.0
06282:  BTFSC  F84.0
06284:  BRA    62A8
....................             Flanco5=1; 
06286:  MOVLB  4
06288:  BSF    x2C.5
....................             if(!flagdn){ 
0628A:  BTFSC  x2E.4
0628C:  BRA    62A4
....................                delay_ms(200); 
0628E:  MOVLW  C8
06290:  MOVLB  5
06292:  MOVWF  xDD
06294:  MOVLB  0
06296:  CALL   1492
....................                if(DOWN){ 
0629A:  BSF    F96.0
0629C:  BTFSC  F84.0
0629E:  BRA    62A6
....................                   flagdn=1; 
062A0:  MOVLB  4
062A2:  BSF    x2E.4
062A4:  MOVLB  0
....................                } 
....................             } 
....................          }else{ 
062A6:  BRA    62AE
....................             flagdn=0; 
062A8:  MOVLB  4
062AA:  BCF    x2E.4
....................             Flanco5 = 0; 
062AC:  BCF    x2C.5
....................          } 
....................        
....................          if(flagup){ 
062AE:  MOVLB  4
062B0:  BTFSS  x2E.5
062B2:  BRA    62BE
....................             subirVidrio(); 
062B4:  MOVLB  0
062B6:  CALL   550A
....................          }else{ 
062BA:  BRA    62D2
062BC:  MOVLB  4
....................             if(flagdn){ 
062BE:  BTFSS  x2E.4
062C0:  BRA    62CC
....................                bajarVidrio(); 
062C2:  MOVLB  0
062C4:  CALL   5532
....................             }else{ 
062C8:  BRA    62D2
062CA:  MOVLB  4
....................                detenerVidrio(); 
062CC:  MOVLB  0
062CE:  CALL   555A
....................             } 
....................          } 
....................         
....................          if((Tpurga[0]>=Tpurgap[0])&&(Tpurga[1]>=Tpurgap[1])&&(Tpurga[2]>=Tpurgap[2])&&(Tpurga[3]>=Tpurgap[3])){ 
062D2:  MOVLB  4
062D4:  MOVF   xE8,W
062D6:  XORLW  80
062D8:  MOVWF  00
062DA:  MOVF   xE4,W
062DC:  XORLW  80
062DE:  SUBWF  00,W
062E0:  BZ    62E4
062E2:  BC    632C
062E4:  MOVF   xE9,W
062E6:  XORLW  80
062E8:  MOVWF  00
062EA:  MOVF   xE5,W
062EC:  XORLW  80
062EE:  SUBWF  00,W
062F0:  BZ    62F4
062F2:  BC    632C
062F4:  MOVF   xEA,W
062F6:  XORLW  80
062F8:  MOVWF  00
062FA:  MOVF   xE6,W
062FC:  XORLW  80
062FE:  SUBWF  00,W
06300:  BZ    6304
06302:  BC    632C
06304:  MOVF   xEB,W
06306:  XORLW  80
06308:  MOVWF  00
0630A:  MOVF   xE7,W
0630C:  XORLW  80
0630E:  SUBWF  00,W
06310:  BZ    6314
06312:  BC    632C
....................             tiempo_purga=0;Menu=2;glcd_fillScreen(OFF);flag_luz=!flag_luz;flag_blower=1;flag_toma=1; 
06314:  BCF    x2D.5
06316:  MOVLW  02
06318:  MOVWF  xC8
0631A:  MOVLB  5
0631C:  CLRF   xDC
0631E:  MOVLB  0
06320:  CALL   1572
06324:  MOVLB  4
06326:  BTG    x2D.1
06328:  BSF    x2C.7
0632A:  BSF    x2D.0
....................          }       
....................       } 
.................... //_--------------------------------------------------------------------------------------------------------------------------------------------------------        
....................  
.................... //_-------------------------------------------------------------------------------------------------------------------------------------------------------- 
....................       while(Menu==2){ //Menu General. 
0632C:  MOVF   xC8,W
0632E:  SUBLW  02
06330:  BTFSS  FD8.2
06332:  GOTO   6D7C
....................          glcd_update();   
06336:  MOVLB  0
06338:  CALL   15CC
....................          cuentaTiempos(); 
0633C:  CALL   437C
....................          Purga=OFF; 
06340:  MOVLB  4
06342:  BCF    x2F.2
....................          w=0; 
06344:  BCF    x2D.3
....................          glcd_imagen(4); 
06346:  MOVLW  04
06348:  MOVLB  5
0634A:  MOVWF  xD4
0634C:  MOVLB  0
0634E:  CALL   5586
....................           
....................          if(VelMotor==1){ 
06352:  MOVLB  5
06354:  DECFSZ xCB,W
06356:  BRA    640C
....................             glcd_rect(0, 29, 13, 39, YES, ON); 
06358:  CLRF   xED
0635A:  MOVLW  1D
0635C:  MOVWF  xEE
0635E:  MOVLW  0D
06360:  MOVWF  xEF
06362:  MOVLW  27
06364:  MOVWF  xF0
06366:  MOVLW  01
06368:  MOVWF  xF1
0636A:  MOVWF  xF2
0636C:  MOVLB  0
0636E:  CALL   4962
....................             glcd_rect(15, 26, 28, 39, NO, ON); 
06372:  MOVLW  0F
06374:  MOVLB  5
06376:  MOVWF  xED
06378:  MOVLW  1A
0637A:  MOVWF  xEE
0637C:  MOVLW  1C
0637E:  MOVWF  xEF
06380:  MOVLW  27
06382:  MOVWF  xF0
06384:  CLRF   xF1
06386:  MOVLW  01
06388:  MOVWF  xF2
0638A:  MOVLB  0
0638C:  CALL   4962
....................             glcd_rect(30, 23, 43, 39, NO, ON); 
06390:  MOVLW  1E
06392:  MOVLB  5
06394:  MOVWF  xED
06396:  MOVLW  17
06398:  MOVWF  xEE
0639A:  MOVLW  2B
0639C:  MOVWF  xEF
0639E:  MOVLW  27
063A0:  MOVWF  xF0
063A2:  CLRF   xF1
063A4:  MOVLW  01
063A6:  MOVWF  xF2
063A8:  MOVLB  0
063AA:  CALL   4962
....................             glcd_rect(45, 20, 58, 39, NO, ON); 
063AE:  MOVLW  2D
063B0:  MOVLB  5
063B2:  MOVWF  xED
063B4:  MOVLW  14
063B6:  MOVWF  xEE
063B8:  MOVLW  3A
063BA:  MOVWF  xEF
063BC:  MOVLW  27
063BE:  MOVWF  xF0
063C0:  CLRF   xF1
063C2:  MOVLW  01
063C4:  MOVWF  xF2
063C6:  MOVLB  0
063C8:  CALL   4962
....................             glcd_rect(60, 17, 73, 39, NO, ON); 
063CC:  MOVLW  3C
063CE:  MOVLB  5
063D0:  MOVWF  xED
063D2:  MOVLW  11
063D4:  MOVWF  xEE
063D6:  MOVLW  49
063D8:  MOVWF  xEF
063DA:  MOVLW  27
063DC:  MOVWF  xF0
063DE:  CLRF   xF1
063E0:  MOVLW  01
063E2:  MOVWF  xF2
063E4:  MOVLB  0
063E6:  CALL   4962
....................             glcd_rect(75, 14, 88, 39, NO, ON); 
063EA:  MOVLW  4B
063EC:  MOVLB  5
063EE:  MOVWF  xED
063F0:  MOVLW  0E
063F2:  MOVWF  xEE
063F4:  MOVLW  58
063F6:  MOVWF  xEF
063F8:  MOVLW  27
063FA:  MOVWF  xF0
063FC:  CLRF   xF1
063FE:  MOVLW  01
06400:  MOVWF  xF2
06402:  MOVLB  0
06404:  CALL   4962
....................          }else if(VelMotor==2){ 
06408:  BRA    67AA
0640A:  MOVLB  5
0640C:  MOVF   xCB,W
0640E:  SUBLW  02
06410:  BNZ   64C6
....................             glcd_rect(0, 29, 13, 39, YES, ON); 
06412:  CLRF   xED
06414:  MOVLW  1D
06416:  MOVWF  xEE
06418:  MOVLW  0D
0641A:  MOVWF  xEF
0641C:  MOVLW  27
0641E:  MOVWF  xF0
06420:  MOVLW  01
06422:  MOVWF  xF1
06424:  MOVWF  xF2
06426:  MOVLB  0
06428:  CALL   4962
....................             glcd_rect(15, 26, 28, 39, YES, ON); 
0642C:  MOVLW  0F
0642E:  MOVLB  5
06430:  MOVWF  xED
06432:  MOVLW  1A
06434:  MOVWF  xEE
06436:  MOVLW  1C
06438:  MOVWF  xEF
0643A:  MOVLW  27
0643C:  MOVWF  xF0
0643E:  MOVLW  01
06440:  MOVWF  xF1
06442:  MOVWF  xF2
06444:  MOVLB  0
06446:  CALL   4962
....................             glcd_rect(30, 23, 43, 39, NO, ON); 
0644A:  MOVLW  1E
0644C:  MOVLB  5
0644E:  MOVWF  xED
06450:  MOVLW  17
06452:  MOVWF  xEE
06454:  MOVLW  2B
06456:  MOVWF  xEF
06458:  MOVLW  27
0645A:  MOVWF  xF0
0645C:  CLRF   xF1
0645E:  MOVLW  01
06460:  MOVWF  xF2
06462:  MOVLB  0
06464:  CALL   4962
....................             glcd_rect(45, 20, 58, 39, NO, ON); 
06468:  MOVLW  2D
0646A:  MOVLB  5
0646C:  MOVWF  xED
0646E:  MOVLW  14
06470:  MOVWF  xEE
06472:  MOVLW  3A
06474:  MOVWF  xEF
06476:  MOVLW  27
06478:  MOVWF  xF0
0647A:  CLRF   xF1
0647C:  MOVLW  01
0647E:  MOVWF  xF2
06480:  MOVLB  0
06482:  CALL   4962
....................             glcd_rect(60, 17, 73, 39, NO, ON); 
06486:  MOVLW  3C
06488:  MOVLB  5
0648A:  MOVWF  xED
0648C:  MOVLW  11
0648E:  MOVWF  xEE
06490:  MOVLW  49
06492:  MOVWF  xEF
06494:  MOVLW  27
06496:  MOVWF  xF0
06498:  CLRF   xF1
0649A:  MOVLW  01
0649C:  MOVWF  xF2
0649E:  MOVLB  0
064A0:  CALL   4962
....................             glcd_rect(75, 14, 88, 39, NO, ON); 
064A4:  MOVLW  4B
064A6:  MOVLB  5
064A8:  MOVWF  xED
064AA:  MOVLW  0E
064AC:  MOVWF  xEE
064AE:  MOVLW  58
064B0:  MOVWF  xEF
064B2:  MOVLW  27
064B4:  MOVWF  xF0
064B6:  CLRF   xF1
064B8:  MOVLW  01
064BA:  MOVWF  xF2
064BC:  MOVLB  0
064BE:  CALL   4962
....................          }else if(VelMotor==3){ 
064C2:  BRA    67AA
064C4:  MOVLB  5
064C6:  MOVF   xCB,W
064C8:  SUBLW  03
064CA:  BNZ   6580
....................             glcd_rect(0, 29, 13, 39, YES, ON); 
064CC:  CLRF   xED
064CE:  MOVLW  1D
064D0:  MOVWF  xEE
064D2:  MOVLW  0D
064D4:  MOVWF  xEF
064D6:  MOVLW  27
064D8:  MOVWF  xF0
064DA:  MOVLW  01
064DC:  MOVWF  xF1
064DE:  MOVWF  xF2
064E0:  MOVLB  0
064E2:  CALL   4962
....................             glcd_rect(15, 26, 28, 39, YES, ON); 
064E6:  MOVLW  0F
064E8:  MOVLB  5
064EA:  MOVWF  xED
064EC:  MOVLW  1A
064EE:  MOVWF  xEE
064F0:  MOVLW  1C
064F2:  MOVWF  xEF
064F4:  MOVLW  27
064F6:  MOVWF  xF0
064F8:  MOVLW  01
064FA:  MOVWF  xF1
064FC:  MOVWF  xF2
064FE:  MOVLB  0
06500:  CALL   4962
....................             glcd_rect(30, 23, 43, 39, YES, ON); 
06504:  MOVLW  1E
06506:  MOVLB  5
06508:  MOVWF  xED
0650A:  MOVLW  17
0650C:  MOVWF  xEE
0650E:  MOVLW  2B
06510:  MOVWF  xEF
06512:  MOVLW  27
06514:  MOVWF  xF0
06516:  MOVLW  01
06518:  MOVWF  xF1
0651A:  MOVWF  xF2
0651C:  MOVLB  0
0651E:  CALL   4962
....................             glcd_rect(45, 20, 58, 39, NO, ON); 
06522:  MOVLW  2D
06524:  MOVLB  5
06526:  MOVWF  xED
06528:  MOVLW  14
0652A:  MOVWF  xEE
0652C:  MOVLW  3A
0652E:  MOVWF  xEF
06530:  MOVLW  27
06532:  MOVWF  xF0
06534:  CLRF   xF1
06536:  MOVLW  01
06538:  MOVWF  xF2
0653A:  MOVLB  0
0653C:  CALL   4962
....................             glcd_rect(60, 17, 73, 39, NO, ON); 
06540:  MOVLW  3C
06542:  MOVLB  5
06544:  MOVWF  xED
06546:  MOVLW  11
06548:  MOVWF  xEE
0654A:  MOVLW  49
0654C:  MOVWF  xEF
0654E:  MOVLW  27
06550:  MOVWF  xF0
06552:  CLRF   xF1
06554:  MOVLW  01
06556:  MOVWF  xF2
06558:  MOVLB  0
0655A:  CALL   4962
....................             glcd_rect(75, 14, 88, 39, NO, ON); 
0655E:  MOVLW  4B
06560:  MOVLB  5
06562:  MOVWF  xED
06564:  MOVLW  0E
06566:  MOVWF  xEE
06568:  MOVLW  58
0656A:  MOVWF  xEF
0656C:  MOVLW  27
0656E:  MOVWF  xF0
06570:  CLRF   xF1
06572:  MOVLW  01
06574:  MOVWF  xF2
06576:  MOVLB  0
06578:  CALL   4962
....................          }else if(VelMotor==4){ 
0657C:  BRA    67AA
0657E:  MOVLB  5
06580:  MOVF   xCB,W
06582:  SUBLW  04
06584:  BNZ   663A
....................             glcd_rect(0, 29, 13, 39, YES, ON); 
06586:  CLRF   xED
06588:  MOVLW  1D
0658A:  MOVWF  xEE
0658C:  MOVLW  0D
0658E:  MOVWF  xEF
06590:  MOVLW  27
06592:  MOVWF  xF0
06594:  MOVLW  01
06596:  MOVWF  xF1
06598:  MOVWF  xF2
0659A:  MOVLB  0
0659C:  CALL   4962
....................             glcd_rect(15, 26, 28, 39, YES, ON); 
065A0:  MOVLW  0F
065A2:  MOVLB  5
065A4:  MOVWF  xED
065A6:  MOVLW  1A
065A8:  MOVWF  xEE
065AA:  MOVLW  1C
065AC:  MOVWF  xEF
065AE:  MOVLW  27
065B0:  MOVWF  xF0
065B2:  MOVLW  01
065B4:  MOVWF  xF1
065B6:  MOVWF  xF2
065B8:  MOVLB  0
065BA:  CALL   4962
....................             glcd_rect(30, 23, 43, 39, YES, ON); 
065BE:  MOVLW  1E
065C0:  MOVLB  5
065C2:  MOVWF  xED
065C4:  MOVLW  17
065C6:  MOVWF  xEE
065C8:  MOVLW  2B
065CA:  MOVWF  xEF
065CC:  MOVLW  27
065CE:  MOVWF  xF0
065D0:  MOVLW  01
065D2:  MOVWF  xF1
065D4:  MOVWF  xF2
065D6:  MOVLB  0
065D8:  CALL   4962
....................             glcd_rect(45, 20, 58, 39, YES, ON); 
065DC:  MOVLW  2D
065DE:  MOVLB  5
065E0:  MOVWF  xED
065E2:  MOVLW  14
065E4:  MOVWF  xEE
065E6:  MOVLW  3A
065E8:  MOVWF  xEF
065EA:  MOVLW  27
065EC:  MOVWF  xF0
065EE:  MOVLW  01
065F0:  MOVWF  xF1
065F2:  MOVWF  xF2
065F4:  MOVLB  0
065F6:  CALL   4962
....................             glcd_rect(60, 17, 73, 39, NO, ON); 
065FA:  MOVLW  3C
065FC:  MOVLB  5
065FE:  MOVWF  xED
06600:  MOVLW  11
06602:  MOVWF  xEE
06604:  MOVLW  49
06606:  MOVWF  xEF
06608:  MOVLW  27
0660A:  MOVWF  xF0
0660C:  CLRF   xF1
0660E:  MOVLW  01
06610:  MOVWF  xF2
06612:  MOVLB  0
06614:  CALL   4962
....................             glcd_rect(75, 14, 88, 39, NO, ON); 
06618:  MOVLW  4B
0661A:  MOVLB  5
0661C:  MOVWF  xED
0661E:  MOVLW  0E
06620:  MOVWF  xEE
06622:  MOVLW  58
06624:  MOVWF  xEF
06626:  MOVLW  27
06628:  MOVWF  xF0
0662A:  CLRF   xF1
0662C:  MOVLW  01
0662E:  MOVWF  xF2
06630:  MOVLB  0
06632:  CALL   4962
....................          }else if(VelMotor==5){ 
06636:  BRA    67AA
06638:  MOVLB  5
0663A:  MOVF   xCB,W
0663C:  SUBLW  05
0663E:  BNZ   66F4
....................             glcd_rect(0, 29, 13, 39, YES, ON); 
06640:  CLRF   xED
06642:  MOVLW  1D
06644:  MOVWF  xEE
06646:  MOVLW  0D
06648:  MOVWF  xEF
0664A:  MOVLW  27
0664C:  MOVWF  xF0
0664E:  MOVLW  01
06650:  MOVWF  xF1
06652:  MOVWF  xF2
06654:  MOVLB  0
06656:  CALL   4962
....................             glcd_rect(15, 26, 28, 39, YES, ON); 
0665A:  MOVLW  0F
0665C:  MOVLB  5
0665E:  MOVWF  xED
06660:  MOVLW  1A
06662:  MOVWF  xEE
06664:  MOVLW  1C
06666:  MOVWF  xEF
06668:  MOVLW  27
0666A:  MOVWF  xF0
0666C:  MOVLW  01
0666E:  MOVWF  xF1
06670:  MOVWF  xF2
06672:  MOVLB  0
06674:  CALL   4962
....................             glcd_rect(30, 23, 43, 39, YES, ON); 
06678:  MOVLW  1E
0667A:  MOVLB  5
0667C:  MOVWF  xED
0667E:  MOVLW  17
06680:  MOVWF  xEE
06682:  MOVLW  2B
06684:  MOVWF  xEF
06686:  MOVLW  27
06688:  MOVWF  xF0
0668A:  MOVLW  01
0668C:  MOVWF  xF1
0668E:  MOVWF  xF2
06690:  MOVLB  0
06692:  CALL   4962
....................             glcd_rect(45, 20, 58, 39, YES, ON); 
06696:  MOVLW  2D
06698:  MOVLB  5
0669A:  MOVWF  xED
0669C:  MOVLW  14
0669E:  MOVWF  xEE
066A0:  MOVLW  3A
066A2:  MOVWF  xEF
066A4:  MOVLW  27
066A6:  MOVWF  xF0
066A8:  MOVLW  01
066AA:  MOVWF  xF1
066AC:  MOVWF  xF2
066AE:  MOVLB  0
066B0:  CALL   4962
....................             glcd_rect(60, 17, 73, 39, YES, ON); 
066B4:  MOVLW  3C
066B6:  MOVLB  5
066B8:  MOVWF  xED
066BA:  MOVLW  11
066BC:  MOVWF  xEE
066BE:  MOVLW  49
066C0:  MOVWF  xEF
066C2:  MOVLW  27
066C4:  MOVWF  xF0
066C6:  MOVLW  01
066C8:  MOVWF  xF1
066CA:  MOVWF  xF2
066CC:  MOVLB  0
066CE:  CALL   4962
....................             glcd_rect(75, 14, 88, 39, NO, ON); 
066D2:  MOVLW  4B
066D4:  MOVLB  5
066D6:  MOVWF  xED
066D8:  MOVLW  0E
066DA:  MOVWF  xEE
066DC:  MOVLW  58
066DE:  MOVWF  xEF
066E0:  MOVLW  27
066E2:  MOVWF  xF0
066E4:  CLRF   xF1
066E6:  MOVLW  01
066E8:  MOVWF  xF2
066EA:  MOVLB  0
066EC:  CALL   4962
....................          }else if(VelMotor==6){ 
066F0:  BRA    67AA
066F2:  MOVLB  5
066F4:  MOVF   xCB,W
066F6:  SUBLW  06
066F8:  BNZ   67AA
....................             glcd_rect(0, 29, 13, 39, YES, ON); 
066FA:  CLRF   xED
066FC:  MOVLW  1D
066FE:  MOVWF  xEE
06700:  MOVLW  0D
06702:  MOVWF  xEF
06704:  MOVLW  27
06706:  MOVWF  xF0
06708:  MOVLW  01
0670A:  MOVWF  xF1
0670C:  MOVWF  xF2
0670E:  MOVLB  0
06710:  CALL   4962
....................             glcd_rect(15, 26, 28, 39, YES, ON); 
06714:  MOVLW  0F
06716:  MOVLB  5
06718:  MOVWF  xED
0671A:  MOVLW  1A
0671C:  MOVWF  xEE
0671E:  MOVLW  1C
06720:  MOVWF  xEF
06722:  MOVLW  27
06724:  MOVWF  xF0
06726:  MOVLW  01
06728:  MOVWF  xF1
0672A:  MOVWF  xF2
0672C:  MOVLB  0
0672E:  CALL   4962
....................             glcd_rect(30, 23, 43, 39, YES, ON); 
06732:  MOVLW  1E
06734:  MOVLB  5
06736:  MOVWF  xED
06738:  MOVLW  17
0673A:  MOVWF  xEE
0673C:  MOVLW  2B
0673E:  MOVWF  xEF
06740:  MOVLW  27
06742:  MOVWF  xF0
06744:  MOVLW  01
06746:  MOVWF  xF1
06748:  MOVWF  xF2
0674A:  MOVLB  0
0674C:  CALL   4962
....................             glcd_rect(45, 20, 58, 39, YES, ON); 
06750:  MOVLW  2D
06752:  MOVLB  5
06754:  MOVWF  xED
06756:  MOVLW  14
06758:  MOVWF  xEE
0675A:  MOVLW  3A
0675C:  MOVWF  xEF
0675E:  MOVLW  27
06760:  MOVWF  xF0
06762:  MOVLW  01
06764:  MOVWF  xF1
06766:  MOVWF  xF2
06768:  MOVLB  0
0676A:  CALL   4962
....................             glcd_rect(60, 17, 73, 39, YES, ON); 
0676E:  MOVLW  3C
06770:  MOVLB  5
06772:  MOVWF  xED
06774:  MOVLW  11
06776:  MOVWF  xEE
06778:  MOVLW  49
0677A:  MOVWF  xEF
0677C:  MOVLW  27
0677E:  MOVWF  xF0
06780:  MOVLW  01
06782:  MOVWF  xF1
06784:  MOVWF  xF2
06786:  MOVLB  0
06788:  CALL   4962
....................             glcd_rect(75, 14, 88, 39, YES, ON); 
0678C:  MOVLW  4B
0678E:  MOVLB  5
06790:  MOVWF  xED
06792:  MOVLW  0E
06794:  MOVWF  xEE
06796:  MOVLW  58
06798:  MOVWF  xEF
0679A:  MOVLW  27
0679C:  MOVWF  xF0
0679E:  MOVLW  01
067A0:  MOVWF  xF1
067A2:  MOVWF  xF2
067A4:  MOVLB  0
067A6:  CALL   4962
....................          } 
....................           
....................          if(imprimir==1){ 
067AA:  MOVLB  4
067AC:  BTFSS  x2C.6
067AE:  BRA    68EC
....................             glcd_text57(2, 12, Inflowt, 1, ON); 
067B0:  MOVLW  02
067B2:  MOVLB  5
067B4:  MOVWF  xED
067B6:  MOVLW  0C
067B8:  MOVWF  xEE
067BA:  MOVLW  04
067BC:  MOVWF  xF0
067BE:  MOVLW  6E
067C0:  MOVWF  xEF
067C2:  MOVLW  01
067C4:  MOVWF  xF1
067C6:  MOVWF  xF2
067C8:  MOVLB  0
067CA:  CALL   4A24
....................             displayTiempo(VelMotor,25,11,0,1);   
067CE:  MOVFF  5CB,5D4
067D2:  MOVLW  19
067D4:  MOVLB  5
067D6:  MOVWF  xD5
067D8:  MOVLW  0B
067DA:  MOVWF  xD6
067DC:  CLRF   xD7
067DE:  MOVLW  01
067E0:  MOVWF  xD8
067E2:  MOVLB  0
067E4:  CALL   5430
....................             glcd_rect(0, 10, 95, 63, NO, ON); 
067E8:  MOVLB  5
067EA:  CLRF   xED
067EC:  MOVLW  0A
067EE:  MOVWF  xEE
067F0:  MOVLW  5F
067F2:  MOVWF  xEF
067F4:  MOVLW  3F
067F6:  MOVWF  xF0
067F8:  CLRF   xF1
067FA:  MOVLW  01
067FC:  MOVWF  xF2
067FE:  MOVLB  0
06800:  CALL   4962
....................             glcd_rect(100, 10, 127, 63, NO, ON); 
06804:  MOVLW  64
06806:  MOVLB  5
06808:  MOVWF  xED
0680A:  MOVLW  0A
0680C:  MOVWF  xEE
0680E:  MOVLW  7F
06810:  MOVWF  xEF
06812:  MOVLW  3F
06814:  MOVWF  xF0
06816:  CLRF   xF1
06818:  MOVLW  01
0681A:  MOVWF  xF2
0681C:  MOVLB  0
0681E:  CALL   4962
....................             //glcd_text57(2, 51, Downflowt, 1, ON); 
....................             glcd_text57(2, 41, Vida_Filtro, 1, ON); 
06822:  MOVLW  02
06824:  MOVLB  5
06826:  MOVWF  xED
06828:  MOVLW  29
0682A:  MOVWF  xEE
0682C:  MOVLW  04
0682E:  MOVWF  xF0
06830:  MOVLW  9D
06832:  MOVWF  xEF
06834:  MOVLW  01
06836:  MOVWF  xF1
06838:  MOVWF  xF2
0683A:  MOVLB  0
0683C:  CALL   4A24
....................             displayTiempo(Ttrabajo[3],60,41,0,1);displayTiempo(Ttrabajo[2],67,41,0,1);displayTiempo(Ttrabajo[1],74,41,0,1);displayTiempo(Ttrabajo[0],82,41,0,1); 
06840:  MOVFF  4FF,5D4
06844:  MOVLW  3C
06846:  MOVLB  5
06848:  MOVWF  xD5
0684A:  MOVLW  29
0684C:  MOVWF  xD6
0684E:  CLRF   xD7
06850:  MOVLW  01
06852:  MOVWF  xD8
06854:  MOVLB  0
06856:  CALL   5430
0685A:  MOVFF  4FE,5D4
0685E:  MOVLW  43
06860:  MOVLB  5
06862:  MOVWF  xD5
06864:  MOVLW  29
06866:  MOVWF  xD6
06868:  CLRF   xD7
0686A:  MOVLW  01
0686C:  MOVWF  xD8
0686E:  MOVLB  0
06870:  CALL   5430
06874:  MOVFF  4FD,5D4
06878:  MOVLW  4A
0687A:  MOVLB  5
0687C:  MOVWF  xD5
0687E:  MOVLW  29
06880:  MOVWF  xD6
06882:  CLRF   xD7
06884:  MOVLW  01
06886:  MOVWF  xD8
06888:  MOVLB  0
0688A:  CALL   5430
0688E:  MOVFF  4FC,5D4
06892:  MOVLW  52
06894:  MOVLB  5
06896:  MOVWF  xD5
06898:  MOVLW  29
0689A:  MOVWF  xD6
0689C:  CLRF   xD7
0689E:  MOVLW  01
068A0:  MOVWF  xD8
068A2:  MOVLB  0
068A4:  CALL   5430
....................             strcpy(Menus.Letra,"JPCEGH180-BB"); 
068A8:  MOVLW  04
068AA:  MOVWF  FEA
068AC:  MOVLW  16
068AE:  MOVWF  FE9
068B0:  MOVFF  FF2,5D4
068B4:  BCF    FF2.7
068B6:  MOVLW  00
068B8:  CALL   0F58
068BC:  TBLRD*-
068BE:  TBLRD*+
068C0:  MOVF   FF5,W
068C2:  MOVWF  FEE
068C4:  IORLW  00
068C6:  BNZ   68BE
068C8:  MOVLB  5
068CA:  BTFSC  xD4.7
068CC:  BSF    FF2.7
....................             displayMenu(Menus.Letra,20,0,1,1); 
068CE:  MOVLW  04
068D0:  MOVWF  xDD
068D2:  MOVLW  16
068D4:  MOVWF  xDC
068D6:  MOVLW  14
068D8:  MOVWF  xDE
068DA:  CLRF   xDF
068DC:  MOVLW  01
068DE:  MOVWF  xE0
068E0:  MOVWF  xE1
068E2:  MOVLB  0
068E4:  CALL   4C9E
....................             //displayfloat(Temperatura,69,50,0,1); 
....................             imprimir=0; 
068E8:  MOVLB  4
068EA:  BCF    x2C.6
....................          } 
....................                    
....................          if(flag_blower==1){ 
068EC:  BTFSS  x2C.7
068EE:  BRA    6A94
....................             glcd_imagen(5);tiempo_trabajo=1; 
068F0:  MOVLW  05
068F2:  MOVLB  5
068F4:  MOVWF  xD4
068F6:  MOVLB  0
068F8:  CALL   5586
068FC:  MOVLB  4
068FE:  BSF    x2D.6
....................             if(guardatrabajo==1){ 
06900:  BTFSS  x2E.6
06902:  BRA    6A86
....................                VelocidadMotor(6); 
06904:  MOVLW  06
06906:  MOVLB  5
06908:  MOVWF  xD4
0690A:  MOVLB  0
0690C:  CALL   14BA
....................                guardatrabajo=0; 
06910:  MOVLB  4
06912:  BCF    x2E.6
....................                write_eeprom(33,make8(minutos_trabajo,0)); 
06914:  MOVFF  4E0,5D4
06918:  CLRF   FAA
0691A:  MOVLW  21
0691C:  MOVWF  FA9
0691E:  MOVFF  5D4,FA8
06922:  BCF    FA6.6
06924:  BCF    FA6.7
06926:  BSF    FA6.2
06928:  MOVF   FF2,W
0692A:  MOVWF  00
0692C:  BCF    FF2.7
0692E:  MOVLB  F
06930:  MOVLW  55
06932:  MOVWF  FA7
06934:  MOVLW  AA
06936:  MOVWF  FA7
06938:  BSF    FA6.1
0693A:  BTFSC  FA6.1
0693C:  BRA    693A
0693E:  BCF    FA6.2
06940:  MOVF   00,W
06942:  IORWF  FF2,F
....................                delay_ms(20); 
06944:  MOVLW  14
06946:  MOVLB  5
06948:  MOVWF  xDD
0694A:  MOVLB  0
0694C:  CALL   1492
....................                write_eeprom(34,make8(minutos_trabajo,1)); 
06950:  MOVFF  4E1,5D4
06954:  CLRF   FAA
06956:  MOVLW  22
06958:  MOVWF  FA9
0695A:  MOVFF  5D4,FA8
0695E:  BCF    FA6.6
06960:  BCF    FA6.7
06962:  BSF    FA6.2
06964:  MOVF   FF2,W
06966:  MOVWF  00
06968:  BCF    FF2.7
0696A:  MOVLB  F
0696C:  MOVLW  55
0696E:  MOVWF  FA7
06970:  MOVLW  AA
06972:  MOVWF  FA7
06974:  BSF    FA6.1
06976:  BTFSC  FA6.1
06978:  BRA    6976
0697A:  BCF    FA6.2
0697C:  MOVF   00,W
0697E:  IORWF  FF2,F
....................                delay_ms(20); 
06980:  MOVLW  14
06982:  MOVLB  5
06984:  MOVWF  xDD
06986:  MOVLB  0
06988:  CALL   1492
....................                write_eeprom(16,Ttrabajo[0]); 
0698C:  CLRF   FAA
0698E:  MOVLW  10
06990:  MOVWF  FA9
06992:  MOVFF  4FC,FA8
06996:  BCF    FA6.6
06998:  BCF    FA6.7
0699A:  BSF    FA6.2
0699C:  MOVF   FF2,W
0699E:  MOVWF  00
069A0:  BCF    FF2.7
069A2:  MOVLB  F
069A4:  MOVLW  55
069A6:  MOVWF  FA7
069A8:  MOVLW  AA
069AA:  MOVWF  FA7
069AC:  BSF    FA6.1
069AE:  BTFSC  FA6.1
069B0:  BRA    69AE
069B2:  BCF    FA6.2
069B4:  MOVF   00,W
069B6:  IORWF  FF2,F
....................                delay_ms(20); 
069B8:  MOVLW  14
069BA:  MOVLB  5
069BC:  MOVWF  xDD
069BE:  MOVLB  0
069C0:  CALL   1492
....................                write_eeprom(17,Ttrabajo[1]); 
069C4:  CLRF   FAA
069C6:  MOVLW  11
069C8:  MOVWF  FA9
069CA:  MOVFF  4FD,FA8
069CE:  BCF    FA6.6
069D0:  BCF    FA6.7
069D2:  BSF    FA6.2
069D4:  MOVF   FF2,W
069D6:  MOVWF  00
069D8:  BCF    FF2.7
069DA:  MOVLB  F
069DC:  MOVLW  55
069DE:  MOVWF  FA7
069E0:  MOVLW  AA
069E2:  MOVWF  FA7
069E4:  BSF    FA6.1
069E6:  BTFSC  FA6.1
069E8:  BRA    69E6
069EA:  BCF    FA6.2
069EC:  MOVF   00,W
069EE:  IORWF  FF2,F
....................                delay_ms(20); 
069F0:  MOVLW  14
069F2:  MOVLB  5
069F4:  MOVWF  xDD
069F6:  MOVLB  0
069F8:  CALL   1492
....................                write_eeprom(18,Ttrabajo[2]); 
069FC:  CLRF   FAA
069FE:  MOVLW  12
06A00:  MOVWF  FA9
06A02:  MOVFF  4FE,FA8
06A06:  BCF    FA6.6
06A08:  BCF    FA6.7
06A0A:  BSF    FA6.2
06A0C:  MOVF   FF2,W
06A0E:  MOVWF  00
06A10:  BCF    FF2.7
06A12:  MOVLB  F
06A14:  MOVLW  55
06A16:  MOVWF  FA7
06A18:  MOVLW  AA
06A1A:  MOVWF  FA7
06A1C:  BSF    FA6.1
06A1E:  BTFSC  FA6.1
06A20:  BRA    6A1E
06A22:  BCF    FA6.2
06A24:  MOVF   00,W
06A26:  IORWF  FF2,F
....................                delay_ms(20); 
06A28:  MOVLW  14
06A2A:  MOVLB  5
06A2C:  MOVWF  xDD
06A2E:  MOVLB  0
06A30:  CALL   1492
....................                write_eeprom(19,Ttrabajo[3]); 
06A34:  CLRF   FAA
06A36:  MOVLW  13
06A38:  MOVWF  FA9
06A3A:  MOVFF  4FF,FA8
06A3E:  BCF    FA6.6
06A40:  BCF    FA6.7
06A42:  BSF    FA6.2
06A44:  MOVF   FF2,W
06A46:  MOVWF  00
06A48:  BCF    FF2.7
06A4A:  MOVLB  F
06A4C:  MOVLW  55
06A4E:  MOVWF  FA7
06A50:  MOVLW  AA
06A52:  MOVWF  FA7
06A54:  BSF    FA6.1
06A56:  BTFSC  FA6.1
06A58:  BRA    6A56
06A5A:  BCF    FA6.2
06A5C:  MOVF   00,W
06A5E:  IORWF  FF2,F
....................                delay_ms(20); 
06A60:  MOVLW  14
06A62:  MOVLB  5
06A64:  MOVWF  xDD
06A66:  MOVLB  0
06A68:  CALL   1492
....................                glcd_init(ON);             //Inicializa la glcd 
06A6C:  MOVLW  01
06A6E:  MOVLB  5
06A70:  MOVWF  xD4
06A72:  MOVLB  0
06A74:  CALL   1684
....................                glcd_fillScreen(OFF);      //Limpia la pantalla 
06A78:  MOVLB  5
06A7A:  CLRF   xDC
06A7C:  MOVLB  0
06A7E:  CALL   1572
....................                glcd_update();   
06A82:  CALL   15CC
....................             } 
....................             VelocidadMotor(VelMotor); 
06A86:  MOVFF  5CB,5D4
06A8A:  MOVLB  0
06A8C:  CALL   14BA
....................          }else{ 
06A90:  BRA    6C2C
06A92:  MOVLB  4
....................             Filtro_Downflow=0; 
06A94:  MOVLB  5
06A96:  CLRF   x13
06A98:  CLRF   x12
06A9A:  CLRF   x11
06A9C:  CLRF   x10
....................             glcd_rect(102, 45, 126, 62, YES, OFF);tiempo_trabajo=0;VelocidadMotor(0); 
06A9E:  MOVLW  66
06AA0:  MOVWF  xED
06AA2:  MOVLW  2D
06AA4:  MOVWF  xEE
06AA6:  MOVLW  7E
06AA8:  MOVWF  xEF
06AAA:  MOVLW  3E
06AAC:  MOVWF  xF0
06AAE:  MOVLW  01
06AB0:  MOVWF  xF1
06AB2:  CLRF   xF2
06AB4:  MOVLB  0
06AB6:  CALL   4962
06ABA:  MOVLB  4
06ABC:  BCF    x2D.6
06ABE:  MOVLB  5
06AC0:  CLRF   xD4
06AC2:  MOVLB  0
06AC4:  CALL   14BA
....................             if(guardatrabajo==0){ 
06AC8:  MOVLB  4
06ACA:  BTFSC  x2E.6
06ACC:  BRA    6C2E
....................                guardatrabajo=1; 
06ACE:  BSF    x2E.6
....................                write_eeprom(33,make8(minutos_trabajo,0)); 
06AD0:  MOVFF  4E0,5D4
06AD4:  CLRF   FAA
06AD6:  MOVLW  21
06AD8:  MOVWF  FA9
06ADA:  MOVFF  5D4,FA8
06ADE:  BCF    FA6.6
06AE0:  BCF    FA6.7
06AE2:  BSF    FA6.2
06AE4:  MOVF   FF2,W
06AE6:  MOVWF  00
06AE8:  BCF    FF2.7
06AEA:  MOVLB  F
06AEC:  MOVLW  55
06AEE:  MOVWF  FA7
06AF0:  MOVLW  AA
06AF2:  MOVWF  FA7
06AF4:  BSF    FA6.1
06AF6:  BTFSC  FA6.1
06AF8:  BRA    6AF6
06AFA:  BCF    FA6.2
06AFC:  MOVF   00,W
06AFE:  IORWF  FF2,F
....................                delay_ms(20); 
06B00:  MOVLW  14
06B02:  MOVLB  5
06B04:  MOVWF  xDD
06B06:  MOVLB  0
06B08:  CALL   1492
....................                write_eeprom(34,make8(minutos_trabajo,1)); 
06B0C:  MOVFF  4E1,5D4
06B10:  CLRF   FAA
06B12:  MOVLW  22
06B14:  MOVWF  FA9
06B16:  MOVFF  5D4,FA8
06B1A:  BCF    FA6.6
06B1C:  BCF    FA6.7
06B1E:  BSF    FA6.2
06B20:  MOVF   FF2,W
06B22:  MOVWF  00
06B24:  BCF    FF2.7
06B26:  MOVLB  F
06B28:  MOVLW  55
06B2A:  MOVWF  FA7
06B2C:  MOVLW  AA
06B2E:  MOVWF  FA7
06B30:  BSF    FA6.1
06B32:  BTFSC  FA6.1
06B34:  BRA    6B32
06B36:  BCF    FA6.2
06B38:  MOVF   00,W
06B3A:  IORWF  FF2,F
....................                delay_ms(20); 
06B3C:  MOVLW  14
06B3E:  MOVLB  5
06B40:  MOVWF  xDD
06B42:  MOVLB  0
06B44:  CALL   1492
....................                write_eeprom(16,Ttrabajo[0]); 
06B48:  CLRF   FAA
06B4A:  MOVLW  10
06B4C:  MOVWF  FA9
06B4E:  MOVFF  4FC,FA8
06B52:  BCF    FA6.6
06B54:  BCF    FA6.7
06B56:  BSF    FA6.2
06B58:  MOVF   FF2,W
06B5A:  MOVWF  00
06B5C:  BCF    FF2.7
06B5E:  MOVLB  F
06B60:  MOVLW  55
06B62:  MOVWF  FA7
06B64:  MOVLW  AA
06B66:  MOVWF  FA7
06B68:  BSF    FA6.1
06B6A:  BTFSC  FA6.1
06B6C:  BRA    6B6A
06B6E:  BCF    FA6.2
06B70:  MOVF   00,W
06B72:  IORWF  FF2,F
....................                delay_ms(20); 
06B74:  MOVLW  14
06B76:  MOVLB  5
06B78:  MOVWF  xDD
06B7A:  MOVLB  0
06B7C:  CALL   1492
....................                write_eeprom(17,Ttrabajo[1]); 
06B80:  CLRF   FAA
06B82:  MOVLW  11
06B84:  MOVWF  FA9
06B86:  MOVFF  4FD,FA8
06B8A:  BCF    FA6.6
06B8C:  BCF    FA6.7
06B8E:  BSF    FA6.2
06B90:  MOVF   FF2,W
06B92:  MOVWF  00
06B94:  BCF    FF2.7
06B96:  MOVLB  F
06B98:  MOVLW  55
06B9A:  MOVWF  FA7
06B9C:  MOVLW  AA
06B9E:  MOVWF  FA7
06BA0:  BSF    FA6.1
06BA2:  BTFSC  FA6.1
06BA4:  BRA    6BA2
06BA6:  BCF    FA6.2
06BA8:  MOVF   00,W
06BAA:  IORWF  FF2,F
....................                delay_ms(20); 
06BAC:  MOVLW  14
06BAE:  MOVLB  5
06BB0:  MOVWF  xDD
06BB2:  MOVLB  0
06BB4:  CALL   1492
....................                write_eeprom(18,Ttrabajo[2]); 
06BB8:  CLRF   FAA
06BBA:  MOVLW  12
06BBC:  MOVWF  FA9
06BBE:  MOVFF  4FE,FA8
06BC2:  BCF    FA6.6
06BC4:  BCF    FA6.7
06BC6:  BSF    FA6.2
06BC8:  MOVF   FF2,W
06BCA:  MOVWF  00
06BCC:  BCF    FF2.7
06BCE:  MOVLB  F
06BD0:  MOVLW  55
06BD2:  MOVWF  FA7
06BD4:  MOVLW  AA
06BD6:  MOVWF  FA7
06BD8:  BSF    FA6.1
06BDA:  BTFSC  FA6.1
06BDC:  BRA    6BDA
06BDE:  BCF    FA6.2
06BE0:  MOVF   00,W
06BE2:  IORWF  FF2,F
....................                delay_ms(20); 
06BE4:  MOVLW  14
06BE6:  MOVLB  5
06BE8:  MOVWF  xDD
06BEA:  MOVLB  0
06BEC:  CALL   1492
....................                write_eeprom(19,Ttrabajo[3]); 
06BF0:  CLRF   FAA
06BF2:  MOVLW  13
06BF4:  MOVWF  FA9
06BF6:  MOVFF  4FF,FA8
06BFA:  BCF    FA6.6
06BFC:  BCF    FA6.7
06BFE:  BSF    FA6.2
06C00:  MOVF   FF2,W
06C02:  MOVWF  00
06C04:  BCF    FF2.7
06C06:  MOVLB  F
06C08:  MOVLW  55
06C0A:  MOVWF  FA7
06C0C:  MOVLW  AA
06C0E:  MOVWF  FA7
06C10:  BSF    FA6.1
06C12:  BTFSC  FA6.1
06C14:  BRA    6C12
06C16:  BCF    FA6.2
06C18:  MOVF   00,W
06C1A:  IORWF  FF2,F
....................                delay_ms(20); 
06C1C:  MOVLW  14
06C1E:  MOVLB  5
06C20:  MOVWF  xDD
06C22:  MOVLB  0
06C24:  CALL   1492
....................                //glcd_init(ON);             //Inicializa la glcd 
....................                //glcd_fillScreen(OFF);      //Limpia la pantalla 
....................                glcd_update();   
06C28:  CALL   15CC
06C2C:  MOVLB  4
....................             } 
....................          } 
....................           
....................           
....................       if(LEFT){//Si oprime boton de Luz UV.          
06C2E:  BSF    F96.2
06C30:  BTFSC  F84.2
06C32:  BRA    6C4C
....................          if(Flanco4 == 0){ 
06C34:  BTFSC  x2C.4
06C36:  BRA    6C4A
....................             Flanco4 = 1;delay_ms(3);flag_blower=!flag_blower; 
06C38:  BSF    x2C.4
06C3A:  MOVLW  03
06C3C:  MOVLB  5
06C3E:  MOVWF  xDD
06C40:  MOVLB  0
06C42:  CALL   1492
06C46:  MOVLB  4
06C48:  BTG    x2C.7
....................          } 
....................       }else{ 
06C4A:  BRA    6C4E
....................          Flanco4 = 0; 
06C4C:  BCF    x2C.4
....................       } 
....................           
....................       if(RIGHT){//Si oprime boton de Blower. 
06C4E:  BSF    F96.1
06C50:  BTFSC  F84.1
06C52:  BRA    6C7A
....................          if(Flanco3 == 0){ 
06C54:  BTFSC  x2C.3
06C56:  BRA    6C78
....................             Flanco3 = 1;delay_ms(3);Menu=33;glcd_fillScreen(OFF);      //Limpia la pantalla 
06C58:  BSF    x2C.3
06C5A:  MOVLW  03
06C5C:  MOVLB  5
06C5E:  MOVWF  xDD
06C60:  MOVLB  0
06C62:  CALL   1492
06C66:  MOVLW  21
06C68:  MOVLB  4
06C6A:  MOVWF  xC8
06C6C:  MOVLB  5
06C6E:  CLRF   xDC
06C70:  MOVLB  0
06C72:  CALL   1572
06C76:  MOVLB  4
....................          } 
....................       }else{ 
06C78:  BRA    6C7C
....................          Flanco3 = 0; 
06C7A:  BCF    x2C.3
....................       } 
....................              
....................       if(DOWN){//Si oprime boton de Luz Blanca. 
06C7C:  BSF    F96.0
06C7E:  BTFSC  F84.0
06C80:  BRA    6CB4
....................          Flanco5=1; 
06C82:  BSF    x2C.5
....................          if(!flagdn){ 
06C84:  BTFSC  x2E.4
06C86:  BRA    6CB2
....................             delay_ms(500); 
06C88:  MOVLW  02
06C8A:  MOVLB  5
06C8C:  MOVWF  xD4
06C8E:  MOVLW  FA
06C90:  MOVWF  xDD
06C92:  MOVLB  0
06C94:  CALL   1492
06C98:  MOVLB  5
06C9A:  DECFSZ xD4,F
06C9C:  BRA    6C8E
....................             if(DOWN){ 
06C9E:  BSF    F96.0
06CA0:  BTFSC  F84.0
06CA2:  BRA    6CAC
....................                flagdn=1; 
06CA4:  MOVLB  4
06CA6:  BSF    x2E.4
....................             }else{ 
06CA8:  BRA    6CB2
06CAA:  MOVLB  5
....................                Flanco5 = 1;flag_luz=!flag_luz; 
06CAC:  MOVLB  4
06CAE:  BSF    x2C.5
06CB0:  BTG    x2D.1
....................             } 
....................          } 
....................       }else{ 
06CB2:  BRA    6CB8
....................          flagdn=0; 
06CB4:  BCF    x2E.4
....................          Flanco5 = 0; 
06CB6:  BCF    x2C.5
....................       } 
....................        
....................       if(flag_luz==1){ 
06CB8:  BTFSS  x2D.1
06CBA:  BRA    6CD0
....................          glcd_imagen(3);LuzBlanca_on; 
06CBC:  MOVLW  03
06CBE:  MOVLB  5
06CC0:  MOVWF  xD4
06CC2:  MOVLB  0
06CC4:  CALL   5586
06CC8:  BCF    F8B.1
06CCA:  BCF    F94.1
....................       }else{ 
06CCC:  BRA    6CF2
06CCE:  MOVLB  4
....................          glcd_rect(102, 14, 126, 28, YES, OFF);LuzBlanca_off; 
06CD0:  MOVLW  66
06CD2:  MOVLB  5
06CD4:  MOVWF  xED
06CD6:  MOVLW  0E
06CD8:  MOVWF  xEE
06CDA:  MOVLW  7E
06CDC:  MOVWF  xEF
06CDE:  MOVLW  1C
06CE0:  MOVWF  xF0
06CE2:  MOVLW  01
06CE4:  MOVWF  xF1
06CE6:  CLRF   xF2
06CE8:  MOVLB  0
06CEA:  CALL   4962
06CEE:  BSF    F8B.1
06CF0:  BCF    F94.1
....................       } 
....................        
....................       if(UP){//Si oprime boton de Toma. 
06CF2:  BSF    F92.5
06CF4:  BTFSC  F80.5
06CF6:  BRA    6D4E
....................          Flanco1=1; 
06CF8:  MOVLB  4
06CFA:  BSF    x2C.1
....................          if(!flagup){ 
06CFC:  BTFSC  x2E.5
06CFE:  BRA    6D4A
....................             delay_ms(500); 
06D00:  MOVLW  02
06D02:  MOVLB  5
06D04:  MOVWF  xD4
06D06:  MOVLW  FA
06D08:  MOVWF  xDD
06D0A:  MOVLB  0
06D0C:  CALL   1492
06D10:  MOVLB  5
06D12:  DECFSZ xD4,F
06D14:  BRA    6D06
....................             if(UP){ 
06D16:  BSF    F92.5
06D18:  BTFSC  F80.5
06D1A:  BRA    6D24
....................                flagup=1; 
06D1C:  MOVLB  4
06D1E:  BSF    x2E.5
....................             }else{ 
06D20:  BRA    6D4A
06D22:  MOVLB  5
....................                Menu=3;//glcd_fillScreen(OFF); 
06D24:  MOVLW  03
06D26:  MOVLB  4
06D28:  MOVWF  xC8
....................                glcd_init(ON);             //Inicializa la glcd 
06D2A:  MOVLW  01
06D2C:  MOVLB  5
06D2E:  MOVWF  xD4
06D30:  MOVLB  0
06D32:  CALL   1684
....................                glcd_fillScreen(OFF);      //Limpia la pantalla 
06D36:  MOVLB  5
06D38:  CLRF   xDC
06D3A:  MOVLB  0
06D3C:  CALL   1572
....................                glcd_update();   
06D40:  CALL   15CC
....................                LuzBlanca_off; 
06D44:  BSF    F8B.1
06D46:  BCF    F94.1
06D48:  MOVLB  4
....................             } 
....................          } 
....................       }else{ 
06D4A:  BRA    6D54
06D4C:  MOVLB  0
....................          flagup=0; 
06D4E:  MOVLB  4
06D50:  BCF    x2E.5
....................          Flanco1=0; 
06D52:  BCF    x2C.1
....................       } 
....................        
....................       if(flagup){ 
06D54:  BTFSS  x2E.5
06D56:  BRA    6D62
....................          subirVidrio(); 
06D58:  MOVLB  0
06D5A:  CALL   550A
....................       }else{ 
06D5E:  BRA    6D76
06D60:  MOVLB  4
....................          if(flagdn){ 
06D62:  BTFSS  x2E.4
06D64:  BRA    6D70
....................             bajarVidrio(); 
06D66:  MOVLB  0
06D68:  CALL   5532
....................          }else{ 
06D6C:  BRA    6D76
06D6E:  MOVLB  4
....................             detenerVidrio(); 
06D70:  MOVLB  0
06D72:  CALL   555A
....................          } 
....................       } 
....................              
....................     } 
06D76:  MOVLB  4
06D78:  GOTO   632C
.................... //_--------------------------------------------------------------------------------------------------------------------------------------------------------        
....................  
.................... //_-------------------------------------------------------------------------------------------------------------------------------------------------------- 
....................       if(Menu==3){ //Menu Principal. 
06D7C:  MOVF   xC8,W
06D7E:  SUBLW  03
06D80:  BTFSS  FD8.2
06D82:  BRA    706A
....................              
....................       strcpy(Menus.Letra,"Menu"); 
06D84:  MOVLW  04
06D86:  MOVWF  FEA
06D88:  MOVLW  16
06D8A:  MOVWF  FE9
06D8C:  MOVFF  FF2,5D4
06D90:  BCF    FF2.7
06D92:  MOVLW  00
06D94:  MOVLB  0
06D96:  CALL   0F80
06D9A:  TBLRD*-
06D9C:  TBLRD*+
06D9E:  MOVF   FF5,W
06DA0:  MOVWF  FEE
06DA2:  IORLW  00
06DA4:  BNZ   6D9C
06DA6:  MOVLB  5
06DA8:  BTFSC  xD4.7
06DAA:  BSF    FF2.7
....................       displayMenu(Menus.Letra,40,0,1,2); 
06DAC:  MOVLW  04
06DAE:  MOVWF  xDD
06DB0:  MOVLW  16
06DB2:  MOVWF  xDC
06DB4:  MOVLW  28
06DB6:  MOVWF  xDE
06DB8:  CLRF   xDF
06DBA:  MOVLW  01
06DBC:  MOVWF  xE0
06DBE:  MOVLW  02
06DC0:  MOVWF  xE1
06DC2:  MOVLB  0
06DC4:  CALL   4C9E
....................        
....................       if(Opcion==1){ 
06DC8:  MOVLB  4
06DCA:  DECFSZ xCA,W
06DCC:  BRA    6E14
....................          strcpy(Menus.Letra,"Ajustes"); 
06DCE:  MOVLW  04
06DD0:  MOVWF  FEA
06DD2:  MOVLW  16
06DD4:  MOVWF  FE9
06DD6:  MOVFF  FF2,5D4
06DDA:  BCF    FF2.7
06DDC:  MOVLW  00
06DDE:  MOVLB  0
06DE0:  CALL   0FA0
06DE4:  TBLRD*-
06DE6:  TBLRD*+
06DE8:  MOVF   FF5,W
06DEA:  MOVWF  FEE
06DEC:  IORLW  00
06DEE:  BNZ   6DE6
06DF0:  MOVLB  5
06DF2:  BTFSC  xD4.7
06DF4:  BSF    FF2.7
....................          displayMenu(Menus.Letra,0,19,1,1); 
06DF6:  MOVLW  04
06DF8:  MOVWF  xDD
06DFA:  MOVLW  16
06DFC:  MOVWF  xDC
06DFE:  CLRF   xDE
06E00:  MOVLW  13
06E02:  MOVWF  xDF
06E04:  MOVLW  01
06E06:  MOVWF  xE0
06E08:  MOVWF  xE1
06E0A:  MOVLB  0
06E0C:  CALL   4C9E
....................       }else{ 
06E10:  BRA    6E56
06E12:  MOVLB  4
....................          strcpy(Menus.Letra,"Ajustes"); 
06E14:  MOVLW  04
06E16:  MOVWF  FEA
06E18:  MOVLW  16
06E1A:  MOVWF  FE9
06E1C:  MOVFF  FF2,5D4
06E20:  BCF    FF2.7
06E22:  MOVLW  00
06E24:  MOVLB  0
06E26:  CALL   0FA0
06E2A:  TBLRD*-
06E2C:  TBLRD*+
06E2E:  MOVF   FF5,W
06E30:  MOVWF  FEE
06E32:  IORLW  00
06E34:  BNZ   6E2C
06E36:  MOVLB  5
06E38:  BTFSC  xD4.7
06E3A:  BSF    FF2.7
....................          displayMenu(Menus.Letra,0,19,0,1); 
06E3C:  MOVLW  04
06E3E:  MOVWF  xDD
06E40:  MOVLW  16
06E42:  MOVWF  xDC
06E44:  CLRF   xDE
06E46:  MOVLW  13
06E48:  MOVWF  xDF
06E4A:  CLRF   xE0
06E4C:  MOVLW  01
06E4E:  MOVWF  xE1
06E50:  MOVLB  0
06E52:  CALL   4C9E
....................       } 
....................           
....................       if(Opcion==2){ 
06E56:  MOVLB  4
06E58:  MOVF   xCA,W
06E5A:  SUBLW  02
06E5C:  BNZ   6EA4
....................          strcpy(Menus.Letra,"Cambio de Clave"); 
06E5E:  MOVLW  04
06E60:  MOVWF  FEA
06E62:  MOVLW  16
06E64:  MOVWF  FE9
06E66:  MOVFF  FF2,5D4
06E6A:  BCF    FF2.7
06E6C:  MOVLW  00
06E6E:  MOVLB  0
06E70:  CALL   0FC2
06E74:  TBLRD*-
06E76:  TBLRD*+
06E78:  MOVF   FF5,W
06E7A:  MOVWF  FEE
06E7C:  IORLW  00
06E7E:  BNZ   6E76
06E80:  MOVLB  5
06E82:  BTFSC  xD4.7
06E84:  BSF    FF2.7
....................          displayMenu(Menus.Letra,0,35,1,1); 
06E86:  MOVLW  04
06E88:  MOVWF  xDD
06E8A:  MOVLW  16
06E8C:  MOVWF  xDC
06E8E:  CLRF   xDE
06E90:  MOVLW  23
06E92:  MOVWF  xDF
06E94:  MOVLW  01
06E96:  MOVWF  xE0
06E98:  MOVWF  xE1
06E9A:  MOVLB  0
06E9C:  CALL   4C9E
....................       }else{ 
06EA0:  BRA    6EE6
06EA2:  MOVLB  4
....................          strcpy(Menus.Letra,"Cambio de Clave"); 
06EA4:  MOVLW  04
06EA6:  MOVWF  FEA
06EA8:  MOVLW  16
06EAA:  MOVWF  FE9
06EAC:  MOVFF  FF2,5D4
06EB0:  BCF    FF2.7
06EB2:  MOVLW  00
06EB4:  MOVLB  0
06EB6:  CALL   0FC2
06EBA:  TBLRD*-
06EBC:  TBLRD*+
06EBE:  MOVF   FF5,W
06EC0:  MOVWF  FEE
06EC2:  IORLW  00
06EC4:  BNZ   6EBC
06EC6:  MOVLB  5
06EC8:  BTFSC  xD4.7
06ECA:  BSF    FF2.7
....................          displayMenu(Menus.Letra,0,35,0,1); 
06ECC:  MOVLW  04
06ECE:  MOVWF  xDD
06ED0:  MOVLW  16
06ED2:  MOVWF  xDC
06ED4:  CLRF   xDE
06ED6:  MOVLW  23
06ED8:  MOVWF  xDF
06EDA:  CLRF   xE0
06EDC:  MOVLW  01
06EDE:  MOVWF  xE1
06EE0:  MOVLB  0
06EE2:  CALL   4C9E
....................       } 
....................           
....................       if(Opcion==3){ 
06EE6:  MOVLB  4
06EE8:  MOVF   xCA,W
06EEA:  SUBLW  03
06EEC:  BNZ   6F34
....................          strcpy(Menus.Letra,"Modo"); 
06EEE:  MOVLW  04
06EF0:  MOVWF  FEA
06EF2:  MOVLW  16
06EF4:  MOVWF  FE9
06EF6:  MOVFF  FF2,5D4
06EFA:  BCF    FF2.7
06EFC:  MOVLW  00
06EFE:  MOVLB  0
06F00:  CALL   0FEC
06F04:  TBLRD*-
06F06:  TBLRD*+
06F08:  MOVF   FF5,W
06F0A:  MOVWF  FEE
06F0C:  IORLW  00
06F0E:  BNZ   6F06
06F10:  MOVLB  5
06F12:  BTFSC  xD4.7
06F14:  BSF    FF2.7
....................          displayMenu(Menus.Letra,0,51,1,1); 
06F16:  MOVLW  04
06F18:  MOVWF  xDD
06F1A:  MOVLW  16
06F1C:  MOVWF  xDC
06F1E:  CLRF   xDE
06F20:  MOVLW  33
06F22:  MOVWF  xDF
06F24:  MOVLW  01
06F26:  MOVWF  xE0
06F28:  MOVWF  xE1
06F2A:  MOVLB  0
06F2C:  CALL   4C9E
....................       }else{ 
06F30:  BRA    6F76
06F32:  MOVLB  4
....................          strcpy(Menus.Letra,"Modo"); 
06F34:  MOVLW  04
06F36:  MOVWF  FEA
06F38:  MOVLW  16
06F3A:  MOVWF  FE9
06F3C:  MOVFF  FF2,5D4
06F40:  BCF    FF2.7
06F42:  MOVLW  00
06F44:  MOVLB  0
06F46:  CALL   0FEC
06F4A:  TBLRD*-
06F4C:  TBLRD*+
06F4E:  MOVF   FF5,W
06F50:  MOVWF  FEE
06F52:  IORLW  00
06F54:  BNZ   6F4C
06F56:  MOVLB  5
06F58:  BTFSC  xD4.7
06F5A:  BSF    FF2.7
....................          displayMenu(Menus.Letra,0,51,0,1); 
06F5C:  MOVLW  04
06F5E:  MOVWF  xDD
06F60:  MOVLW  16
06F62:  MOVWF  xDC
06F64:  CLRF   xDE
06F66:  MOVLW  33
06F68:  MOVWF  xDF
06F6A:  CLRF   xE0
06F6C:  MOVLW  01
06F6E:  MOVWF  xE1
06F70:  MOVLB  0
06F72:  CALL   4C9E
....................       } 
....................       glcd_update();  
06F76:  CALL   15CC
....................        
....................       if(w==0){ 
06F7A:  MOVLB  4
06F7C:  BTFSC  x2D.3
06F7E:  BRA    6F9A
....................          delay_ms(500);w=1; 
06F80:  MOVLW  02
06F82:  MOVLB  5
06F84:  MOVWF  xD4
06F86:  MOVLW  FA
06F88:  MOVWF  xDD
06F8A:  MOVLB  0
06F8C:  CALL   1492
06F90:  MOVLB  5
06F92:  DECFSZ xD4,F
06F94:  BRA    6F86
06F96:  MOVLB  4
06F98:  BSF    x2D.3
....................       } 
....................           
....................       if(UP){//Si oprime hacia arriba         
06F9A:  BSF    F92.5
06F9C:  BTFSC  F80.5
06F9E:  BRA    6FB8
....................          if(Flanco == 0){ 
06FA0:  BTFSC  x2C.0
06FA2:  BRA    6FB6
....................             Flanco = 1;delay_ms(30);Opcion--; 
06FA4:  BSF    x2C.0
06FA6:  MOVLW  1E
06FA8:  MOVLB  5
06FAA:  MOVWF  xDD
06FAC:  MOVLB  0
06FAE:  CALL   1492
06FB2:  MOVLB  4
06FB4:  DECF   xCA,F
....................          } 
....................       }else{ 
06FB6:  BRA    6FBA
....................          Flanco = 0; 
06FB8:  BCF    x2C.0
....................       } 
....................              
....................       if(DOWN){//Si oprime hacia abajo 
06FBA:  BSF    F96.0
06FBC:  BTFSC  F84.0
06FBE:  BRA    6FD8
....................          if(Flanco2 == 0){ 
06FC0:  BTFSC  x2C.2
06FC2:  BRA    6FD6
....................             Flanco2 = 1;delay_ms(30);Opcion++; 
06FC4:  BSF    x2C.2
06FC6:  MOVLW  1E
06FC8:  MOVLB  5
06FCA:  MOVWF  xDD
06FCC:  MOVLB  0
06FCE:  CALL   1492
06FD2:  MOVLB  4
06FD4:  INCF   xCA,F
....................          } 
....................       }else{ 
06FD6:  BRA    6FDA
....................          Flanco2 = 0; 
06FD8:  BCF    x2C.2
....................       } 
....................              
....................       if(RIGHT){//Si oprime SET 
06FDA:  BSF    F96.1
06FDC:  BTFSC  F84.1
06FDE:  BRA    7028
....................          if(Flanco1 == 0){ 
06FE0:  BTFSC  x2C.1
06FE2:  BRA    7026
....................             Flanco1 = 1;delay_ms(500);Menu=Opcion+3;Opcion=1;glcd_fillscreen(OFF);unidad=1; 
06FE4:  BSF    x2C.1
06FE6:  MOVLW  02
06FE8:  MOVLB  5
06FEA:  MOVWF  xD4
06FEC:  MOVLW  FA
06FEE:  MOVWF  xDD
06FF0:  MOVLB  0
06FF2:  CALL   1492
06FF6:  MOVLB  5
06FF8:  DECFSZ xD4,F
06FFA:  BRA    6FEC
06FFC:  MOVLW  03
06FFE:  MOVLB  4
07000:  ADDWF  xCA,W
07002:  MOVWF  xC8
07004:  MOVLW  01
07006:  MOVWF  xCA
07008:  MOVLB  5
0700A:  CLRF   xDC
0700C:  MOVLB  0
0700E:  CALL   1572
07012:  MOVLW  01
07014:  MOVLB  4
07016:  MOVWF  xC9
....................             Contrasena[0]=0;Contrasena[1]=0;Contrasena[2]=0;Contrasena[3]=0;n=0; 
07018:  MOVLB  5
0701A:  CLRF   x00
0701C:  CLRF   x01
0701E:  CLRF   x02
07020:  CLRF   x03
07022:  MOVLB  4
07024:  BCF    x2F.0
....................          } 
....................       }else{ 
07026:  BRA    702A
....................          Flanco1 = 0; 
07028:  BCF    x2C.1
....................       } 
....................              
....................       if(LEFT){//Si oprime boton de Toma. 
0702A:  BSF    F96.2
0702C:  BTFSC  F84.2
0702E:  BRA    7058
....................          delay_ms(700);Menu=2;glcd_fillscreen(OFF); 
07030:  MOVLW  04
07032:  MOVLB  5
07034:  MOVWF  xD4
07036:  MOVLW  AF
07038:  MOVWF  xDD
0703A:  MOVLB  0
0703C:  CALL   1492
07040:  MOVLB  5
07042:  DECFSZ xD4,F
07044:  BRA    7036
07046:  MOVLW  02
07048:  MOVLB  4
0704A:  MOVWF  xC8
0704C:  MOVLB  5
0704E:  CLRF   xDC
07050:  MOVLB  0
07052:  CALL   1572
07056:  MOVLB  4
....................       } 
....................              
....................       if(Opcion>3) 
07058:  MOVF   xCA,W
0705A:  SUBLW  03
0705C:  BC    7062
....................          Opcion=1; 
0705E:  MOVLW  01
07060:  MOVWF  xCA
....................       if(Opcion<1) 
07062:  MOVF   xCA,F
07064:  BNZ   706A
....................          Opcion=3; 
07066:  MOVLW  03
07068:  MOVWF  xCA
....................     } 
.................... //_--------------------------------------------------------------------------------------------------------------------------------------------------------        
....................  
.................... //_-------------------------------------------------------------------------------------------------------------------------------------------------------- 
....................       if(Menu==4){ //Menu de Ajustes. 
0706A:  MOVF   xC8,W
0706C:  SUBLW  04
0706E:  BTFSS  FD8.2
07070:  BRA    7320
....................        
....................       strcpy(Menus.Letra,"Ajustes"); 
07072:  MOVLW  04
07074:  MOVWF  FEA
07076:  MOVLW  16
07078:  MOVWF  FE9
0707A:  MOVFF  FF2,5D4
0707E:  BCF    FF2.7
07080:  MOVLW  00
07082:  MOVLB  0
07084:  CALL   0FA0
07088:  TBLRD*-
0708A:  TBLRD*+
0708C:  MOVF   FF5,W
0708E:  MOVWF  FEE
07090:  IORLW  00
07092:  BNZ   708A
07094:  MOVLB  5
07096:  BTFSC  xD4.7
07098:  BSF    FF2.7
....................       displayMenu(Menus.Letra,0,0,1,2); 
0709A:  MOVLW  04
0709C:  MOVWF  xDD
0709E:  MOVLW  16
070A0:  MOVWF  xDC
070A2:  CLRF   xDE
070A4:  CLRF   xDF
070A6:  MOVLW  01
070A8:  MOVWF  xE0
070AA:  MOVLW  02
070AC:  MOVWF  xE1
070AE:  MOVLB  0
070B0:  CALL   4C9E
....................        
....................       if(Opcion==1)    
070B4:  MOVLB  4
070B6:  DECFSZ xCA,W
070B8:  BRA    7100
....................          {strcpy(Menus.Letra,"Tiempo Purga"); 
070BA:  MOVLW  04
070BC:  MOVWF  FEA
070BE:  MOVLW  16
070C0:  MOVWF  FE9
070C2:  MOVFF  FF2,5D4
070C6:  BCF    FF2.7
070C8:  MOVLW  00
070CA:  MOVLB  0
070CC:  CALL   100C
070D0:  TBLRD*-
070D2:  TBLRD*+
070D4:  MOVF   FF5,W
070D6:  MOVWF  FEE
070D8:  IORLW  00
070DA:  BNZ   70D2
070DC:  MOVLB  5
070DE:  BTFSC  xD4.7
070E0:  BSF    FF2.7
....................          displayMenu(Menus.Letra,0,20,1,1);} 
070E2:  MOVLW  04
070E4:  MOVWF  xDD
070E6:  MOVLW  16
070E8:  MOVWF  xDC
070EA:  CLRF   xDE
070EC:  MOVLW  14
070EE:  MOVWF  xDF
070F0:  MOVLW  01
070F2:  MOVWF  xE0
070F4:  MOVWF  xE1
070F6:  MOVLB  0
070F8:  CALL   4C9E
....................       else 
070FC:  BRA    7142
070FE:  MOVLB  4
....................          {strcpy(Menus.Letra,"Tiempo Purga"); 
07100:  MOVLW  04
07102:  MOVWF  FEA
07104:  MOVLW  16
07106:  MOVWF  FE9
07108:  MOVFF  FF2,5D4
0710C:  BCF    FF2.7
0710E:  MOVLW  00
07110:  MOVLB  0
07112:  CALL   100C
07116:  TBLRD*-
07118:  TBLRD*+
0711A:  MOVF   FF5,W
0711C:  MOVWF  FEE
0711E:  IORLW  00
07120:  BNZ   7118
07122:  MOVLB  5
07124:  BTFSC  xD4.7
07126:  BSF    FF2.7
....................          displayMenu(Menus.Letra,0,20,0,1);}              
07128:  MOVLW  04
0712A:  MOVWF  xDD
0712C:  MOVLW  16
0712E:  MOVWF  xDC
07130:  CLRF   xDE
07132:  MOVLW  14
07134:  MOVWF  xDF
07136:  CLRF   xE0
07138:  MOVLW  01
0713A:  MOVWF  xE1
0713C:  MOVLB  0
0713E:  CALL   4C9E
....................        
....................       if(Opcion==2)    
07142:  MOVLB  4
07144:  MOVF   xCA,W
07146:  SUBLW  02
07148:  BNZ   7190
....................          {strcpy(Menus.Letra,"Tiempo Post-Purga"); 
0714A:  MOVLW  04
0714C:  MOVWF  FEA
0714E:  MOVLW  16
07150:  MOVWF  FE9
07152:  MOVFF  FF2,5D4
07156:  BCF    FF2.7
07158:  MOVLW  00
0715A:  MOVLB  0
0715C:  CALL   1034
07160:  TBLRD*-
07162:  TBLRD*+
07164:  MOVF   FF5,W
07166:  MOVWF  FEE
07168:  IORLW  00
0716A:  BNZ   7162
0716C:  MOVLB  5
0716E:  BTFSC  xD4.7
07170:  BSF    FF2.7
....................          displayMenu(Menus.Letra,0,35,1,1);} 
07172:  MOVLW  04
07174:  MOVWF  xDD
07176:  MOVLW  16
07178:  MOVWF  xDC
0717A:  CLRF   xDE
0717C:  MOVLW  23
0717E:  MOVWF  xDF
07180:  MOVLW  01
07182:  MOVWF  xE0
07184:  MOVWF  xE1
07186:  MOVLB  0
07188:  CALL   4C9E
....................       else 
0718C:  BRA    71D2
0718E:  MOVLB  4
....................          {strcpy(Menus.Letra,"Tiempo Post-Purga"); 
07190:  MOVLW  04
07192:  MOVWF  FEA
07194:  MOVLW  16
07196:  MOVWF  FE9
07198:  MOVFF  FF2,5D4
0719C:  BCF    FF2.7
0719E:  MOVLW  00
071A0:  MOVLB  0
071A2:  CALL   1034
071A6:  TBLRD*-
071A8:  TBLRD*+
071AA:  MOVF   FF5,W
071AC:  MOVWF  FEE
071AE:  IORLW  00
071B0:  BNZ   71A8
071B2:  MOVLB  5
071B4:  BTFSC  xD4.7
071B6:  BSF    FF2.7
....................          displayMenu(Menus.Letra,0,35,0,1);} 
071B8:  MOVLW  04
071BA:  MOVWF  xDD
071BC:  MOVLW  16
071BE:  MOVWF  xDC
071C0:  CLRF   xDE
071C2:  MOVLW  23
071C4:  MOVWF  xDF
071C6:  CLRF   xE0
071C8:  MOVLW  01
071CA:  MOVWF  xE1
071CC:  MOVLB  0
071CE:  CALL   4C9E
....................        
....................       if(Opcion==3)    
071D2:  MOVLB  4
071D4:  MOVF   xCA,W
071D6:  SUBLW  03
071D8:  BNZ   7220
....................          {strcpy(Menus.Letra,"Luz UV"); 
071DA:  MOVLW  04
071DC:  MOVWF  FEA
071DE:  MOVLW  16
071E0:  MOVWF  FE9
071E2:  MOVFF  FF2,5D4
071E6:  BCF    FF2.7
071E8:  MOVLW  00
071EA:  MOVLB  0
071EC:  CALL   1060
071F0:  TBLRD*-
071F2:  TBLRD*+
071F4:  MOVF   FF5,W
071F6:  MOVWF  FEE
071F8:  IORLW  00
071FA:  BNZ   71F2
071FC:  MOVLB  5
071FE:  BTFSC  xD4.7
07200:  BSF    FF2.7
....................          displayMenu(Menus.Letra,0,50,1,1);} 
07202:  MOVLW  04
07204:  MOVWF  xDD
07206:  MOVLW  16
07208:  MOVWF  xDC
0720A:  CLRF   xDE
0720C:  MOVLW  32
0720E:  MOVWF  xDF
07210:  MOVLW  01
07212:  MOVWF  xE0
07214:  MOVWF  xE1
07216:  MOVLB  0
07218:  CALL   4C9E
....................       else 
0721C:  BRA    7262
0721E:  MOVLB  4
....................          {strcpy(Menus.Letra,"Luz UV"); 
07220:  MOVLW  04
07222:  MOVWF  FEA
07224:  MOVLW  16
07226:  MOVWF  FE9
07228:  MOVFF  FF2,5D4
0722C:  BCF    FF2.7
0722E:  MOVLW  00
07230:  MOVLB  0
07232:  CALL   1060
07236:  TBLRD*-
07238:  TBLRD*+
0723A:  MOVF   FF5,W
0723C:  MOVWF  FEE
0723E:  IORLW  00
07240:  BNZ   7238
07242:  MOVLB  5
07244:  BTFSC  xD4.7
07246:  BSF    FF2.7
....................          displayMenu(Menus.Letra,0,50,0,1);}    
07248:  MOVLW  04
0724A:  MOVWF  xDD
0724C:  MOVLW  16
0724E:  MOVWF  xDC
07250:  CLRF   xDE
07252:  MOVLW  32
07254:  MOVWF  xDF
07256:  CLRF   xE0
07258:  MOVLW  01
0725A:  MOVWF  xE1
0725C:  MOVLB  0
0725E:  CALL   4C9E
....................           
....................       if(UP)//Si oprime hacia arriba 
07262:  BSF    F92.5
07264:  BTFSC  F80.5
07266:  BRA    7282
....................       {  if(Flanco == 0)  
07268:  MOVLB  4
0726A:  BTFSC  x2C.0
0726C:  BRA    7280
....................             {Flanco = 1;delay_ms(30);Opcion--; 
0726E:  BSF    x2C.0
07270:  MOVLW  1E
07272:  MOVLB  5
07274:  MOVWF  xDD
07276:  MOVLB  0
07278:  CALL   1492
0727C:  MOVLB  4
0727E:  DECF   xCA,F
....................             } 
....................       } 
....................          else 
07280:  BRA    7286
....................             {Flanco = 0;} 
07282:  MOVLB  4
07284:  BCF    x2C.0
....................              
....................       if(DOWN)//Si oprime hacia abajo 
07286:  BSF    F96.0
07288:  BTFSC  F84.0
0728A:  BRA    72A4
....................       {  if(Flanco2 == 0)  
0728C:  BTFSC  x2C.2
0728E:  BRA    72A2
....................             {Flanco2 = 1;delay_ms(30);Opcion++; 
07290:  BSF    x2C.2
07292:  MOVLW  1E
07294:  MOVLB  5
07296:  MOVWF  xDD
07298:  MOVLB  0
0729A:  CALL   1492
0729E:  MOVLB  4
072A0:  INCF   xCA,F
....................             }      
....................       } 
....................          else 
072A2:  BRA    72A6
....................             {Flanco2 = 0;}   
072A4:  BCF    x2C.2
....................              
....................       if(RIGHT)//Si oprime SET 
072A6:  BSF    F96.1
072A8:  BTFSC  F84.1
072AA:  BRA    72DE
....................       {  if(Flanco1 == 0)  
072AC:  BTFSC  x2C.1
072AE:  BRA    72DC
....................             {Flanco1 = 1;delay_ms(500);Menu=Opcion+10;glcd_fillScreen(OFF); 
072B0:  BSF    x2C.1
072B2:  MOVLW  02
072B4:  MOVLB  5
072B6:  MOVWF  xD4
072B8:  MOVLW  FA
072BA:  MOVWF  xDD
072BC:  MOVLB  0
072BE:  CALL   1492
072C2:  MOVLB  5
072C4:  DECFSZ xD4,F
072C6:  BRA    72B8
072C8:  MOVLW  0A
072CA:  MOVLB  4
072CC:  ADDWF  xCA,W
072CE:  MOVWF  xC8
072D0:  MOVLB  5
072D2:  CLRF   xDC
072D4:  MOVLB  0
072D6:  CALL   1572
072DA:  MOVLB  4
....................             } 
....................       } 
....................          else 
072DC:  BRA    72E0
....................             {Flanco1 = 0;}   
072DE:  BCF    x2C.1
....................              
....................       if(LEFT)//Si oprime boton de Toma. 
072E0:  BSF    F96.2
072E2:  BTFSC  F84.2
072E4:  BRA    730E
....................         {delay_ms(700);Menu=3;glcd_fillscreen(OFF);} 
072E6:  MOVLW  04
072E8:  MOVLB  5
072EA:  MOVWF  xD4
072EC:  MOVLW  AF
072EE:  MOVWF  xDD
072F0:  MOVLB  0
072F2:  CALL   1492
072F6:  MOVLB  5
072F8:  DECFSZ xD4,F
072FA:  BRA    72EC
072FC:  MOVLW  03
072FE:  MOVLB  4
07300:  MOVWF  xC8
07302:  MOVLB  5
07304:  CLRF   xDC
07306:  MOVLB  0
07308:  CALL   1572
0730C:  MOVLB  4
....................        
....................       if(Opcion>3) 
0730E:  MOVF   xCA,W
07310:  SUBLW  03
07312:  BC    7318
....................       {Opcion=1;} 
07314:  MOVLW  01
07316:  MOVWF  xCA
....................       if(Opcion<1) 
07318:  MOVF   xCA,F
0731A:  BNZ   7320
....................       {Opcion=3;} 
0731C:  MOVLW  03
0731E:  MOVWF  xCA
....................      
....................     } 
.................... //_--------------------------------------------------------------------------------------------------------------------------------------------------------        
....................  
.................... //_-------------------------------------------------------------------------------------------------------------------------------------------------------- 
....................       if(Menu==6){ //Menu de Modo. 
07320:  MOVF   xC8,W
07322:  SUBLW  06
07324:  BTFSS  FD8.2
07326:  BRA    754E
....................        
....................       strcpy(Menus.Letra,"Modo"); 
07328:  MOVLW  04
0732A:  MOVWF  FEA
0732C:  MOVLW  16
0732E:  MOVWF  FE9
07330:  MOVFF  FF2,5D4
07334:  BCF    FF2.7
07336:  MOVLW  00
07338:  MOVLB  0
0733A:  CALL   0FEC
0733E:  TBLRD*-
07340:  TBLRD*+
07342:  MOVF   FF5,W
07344:  MOVWF  FEE
07346:  IORLW  00
07348:  BNZ   7340
0734A:  MOVLB  5
0734C:  BTFSC  xD4.7
0734E:  BSF    FF2.7
....................       displayMenu(Menus.Letra,40,0,1,2); 
07350:  MOVLW  04
07352:  MOVWF  xDD
07354:  MOVLW  16
07356:  MOVWF  xDC
07358:  MOVLW  28
0735A:  MOVWF  xDE
0735C:  CLRF   xDF
0735E:  MOVLW  01
07360:  MOVWF  xE0
07362:  MOVLW  02
07364:  MOVWF  xE1
07366:  MOVLB  0
07368:  CALL   4C9E
....................           
....................       if(Opcion==1)    
0736C:  MOVLB  4
0736E:  DECFSZ xCA,W
07370:  BRA    73B8
....................          {strcpy(Menus.Letra,"Mantenimiento"); 
07372:  MOVLW  04
07374:  MOVWF  FEA
07376:  MOVLW  16
07378:  MOVWF  FE9
0737A:  MOVFF  FF2,5D4
0737E:  BCF    FF2.7
07380:  MOVLW  00
07382:  MOVLB  0
07384:  CALL   1082
07388:  TBLRD*-
0738A:  TBLRD*+
0738C:  MOVF   FF5,W
0738E:  MOVWF  FEE
07390:  IORLW  00
07392:  BNZ   738A
07394:  MOVLB  5
07396:  BTFSC  xD4.7
07398:  BSF    FF2.7
....................          displayMenu(Menus.Letra,0,19,1,1);} 
0739A:  MOVLW  04
0739C:  MOVWF  xDD
0739E:  MOVLW  16
073A0:  MOVWF  xDC
073A2:  CLRF   xDE
073A4:  MOVLW  13
073A6:  MOVWF  xDF
073A8:  MOVLW  01
073AA:  MOVWF  xE0
073AC:  MOVWF  xE1
073AE:  MOVLB  0
073B0:  CALL   4C9E
....................       else 
073B4:  BRA    73FA
073B6:  MOVLB  4
....................          {strcpy(Menus.Letra,"Mantenimiento"); 
073B8:  MOVLW  04
073BA:  MOVWF  FEA
073BC:  MOVLW  16
073BE:  MOVWF  FE9
073C0:  MOVFF  FF2,5D4
073C4:  BCF    FF2.7
073C6:  MOVLW  00
073C8:  MOVLB  0
073CA:  CALL   1082
073CE:  TBLRD*-
073D0:  TBLRD*+
073D2:  MOVF   FF5,W
073D4:  MOVWF  FEE
073D6:  IORLW  00
073D8:  BNZ   73D0
073DA:  MOVLB  5
073DC:  BTFSC  xD4.7
073DE:  BSF    FF2.7
....................          displayMenu(Menus.Letra,0,19,0,1);}    
073E0:  MOVLW  04
073E2:  MOVWF  xDD
073E4:  MOVLW  16
073E6:  MOVWF  xDC
073E8:  CLRF   xDE
073EA:  MOVLW  13
073EC:  MOVWF  xDF
073EE:  CLRF   xE0
073F0:  MOVLW  01
073F2:  MOVWF  xE1
073F4:  MOVLB  0
073F6:  CALL   4C9E
....................           
....................       if(Opcion==2)    
073FA:  MOVLB  4
073FC:  MOVF   xCA,W
073FE:  SUBLW  02
07400:  BNZ   7448
....................          {strcpy(Menus.Letra,"Servicio"); 
07402:  MOVLW  04
07404:  MOVWF  FEA
07406:  MOVLW  16
07408:  MOVWF  FE9
0740A:  MOVFF  FF2,5D4
0740E:  BCF    FF2.7
07410:  MOVLW  00
07412:  MOVLB  0
07414:  CALL   10AA
07418:  TBLRD*-
0741A:  TBLRD*+
0741C:  MOVF   FF5,W
0741E:  MOVWF  FEE
07420:  IORLW  00
07422:  BNZ   741A
07424:  MOVLB  5
07426:  BTFSC  xD4.7
07428:  BSF    FF2.7
....................          displayMenu(Menus.Letra,0,35,1,1);} 
0742A:  MOVLW  04
0742C:  MOVWF  xDD
0742E:  MOVLW  16
07430:  MOVWF  xDC
07432:  CLRF   xDE
07434:  MOVLW  23
07436:  MOVWF  xDF
07438:  MOVLW  01
0743A:  MOVWF  xE0
0743C:  MOVWF  xE1
0743E:  MOVLB  0
07440:  CALL   4C9E
....................       else 
07444:  BRA    748A
07446:  MOVLB  4
....................          {strcpy(Menus.Letra,"Servicio"); 
07448:  MOVLW  04
0744A:  MOVWF  FEA
0744C:  MOVLW  16
0744E:  MOVWF  FE9
07450:  MOVFF  FF2,5D4
07454:  BCF    FF2.7
07456:  MOVLW  00
07458:  MOVLB  0
0745A:  CALL   10AA
0745E:  TBLRD*-
07460:  TBLRD*+
07462:  MOVF   FF5,W
07464:  MOVWF  FEE
07466:  IORLW  00
07468:  BNZ   7460
0746A:  MOVLB  5
0746C:  BTFSC  xD4.7
0746E:  BSF    FF2.7
....................          displayMenu(Menus.Letra,0,35,0,1);} 
07470:  MOVLW  04
07472:  MOVWF  xDD
07474:  MOVLW  16
07476:  MOVWF  xDC
07478:  CLRF   xDE
0747A:  MOVLW  23
0747C:  MOVWF  xDF
0747E:  CLRF   xE0
07480:  MOVLW  01
07482:  MOVWF  xE1
07484:  MOVLB  0
07486:  CALL   4C9E
....................           
....................       if(UP)//Si oprime hacia arriba 
0748A:  BSF    F92.5
0748C:  BTFSC  F80.5
0748E:  BRA    74AA
....................       {  if(Flanco == 0)  
07490:  MOVLB  4
07492:  BTFSC  x2C.0
07494:  BRA    74A8
....................             {Flanco = 1;delay_ms(30);Opcion--; 
07496:  BSF    x2C.0
07498:  MOVLW  1E
0749A:  MOVLB  5
0749C:  MOVWF  xDD
0749E:  MOVLB  0
074A0:  CALL   1492
074A4:  MOVLB  4
074A6:  DECF   xCA,F
....................             } 
....................       } 
....................          else 
074A8:  BRA    74AE
....................             {Flanco = 0;} 
074AA:  MOVLB  4
074AC:  BCF    x2C.0
....................              
....................       if(DOWN)//Si oprime hacia abajo 
074AE:  BSF    F96.0
074B0:  BTFSC  F84.0
074B2:  BRA    74CC
....................       {  if(Flanco2 == 0)  
074B4:  BTFSC  x2C.2
074B6:  BRA    74CA
....................             {Flanco2 = 1;delay_ms(30);Opcion++; 
074B8:  BSF    x2C.2
074BA:  MOVLW  1E
074BC:  MOVLB  5
074BE:  MOVWF  xDD
074C0:  MOVLB  0
074C2:  CALL   1492
074C6:  MOVLB  4
074C8:  INCF   xCA,F
....................             }      
....................       } 
....................          else 
074CA:  BRA    74CE
....................             {Flanco2 = 0;}   
074CC:  BCF    x2C.2
....................              
....................       if(RIGHT)//Si oprime SET 
074CE:  BSF    F96.1
074D0:  BTFSC  F84.1
074D2:  BRA    750C
....................       {  if(Flanco1 == 0)  
074D4:  BTFSC  x2C.1
074D6:  BRA    750A
....................             {Flanco1 = 1;delay_ms(500);Menu=Opcion+30;glcd_fillScreen(OFF);Opcion=1;unidad=1; 
074D8:  BSF    x2C.1
074DA:  MOVLW  02
074DC:  MOVLB  5
074DE:  MOVWF  xD4
074E0:  MOVLW  FA
074E2:  MOVWF  xDD
074E4:  MOVLB  0
074E6:  CALL   1492
074EA:  MOVLB  5
074EC:  DECFSZ xD4,F
074EE:  BRA    74E0
074F0:  MOVLW  1E
074F2:  MOVLB  4
074F4:  ADDWF  xCA,W
074F6:  MOVWF  xC8
074F8:  MOVLB  5
074FA:  CLRF   xDC
074FC:  MOVLB  0
074FE:  CALL   1572
07502:  MOVLW  01
07504:  MOVLB  4
07506:  MOVWF  xCA
07508:  MOVWF  xC9
....................             } 
....................       } 
....................          else 
0750A:  BRA    750E
....................             {Flanco1 = 0;}   
0750C:  BCF    x2C.1
....................              
....................       if(LEFT)//Si oprime boton de Toma. 
0750E:  BSF    F96.2
07510:  BTFSC  F84.2
07512:  BRA    753C
....................         {delay_ms(700);Menu=3;glcd_fillscreen(OFF);} 
07514:  MOVLW  04
07516:  MOVLB  5
07518:  MOVWF  xD4
0751A:  MOVLW  AF
0751C:  MOVWF  xDD
0751E:  MOVLB  0
07520:  CALL   1492
07524:  MOVLB  5
07526:  DECFSZ xD4,F
07528:  BRA    751A
0752A:  MOVLW  03
0752C:  MOVLB  4
0752E:  MOVWF  xC8
07530:  MOVLB  5
07532:  CLRF   xDC
07534:  MOVLB  0
07536:  CALL   1572
0753A:  MOVLB  4
....................       if(Opcion>2) 
0753C:  MOVF   xCA,W
0753E:  SUBLW  02
07540:  BC    7546
....................       {Opcion=1;} 
07542:  MOVLW  01
07544:  MOVWF  xCA
....................       if(Opcion<1) 
07546:  MOVF   xCA,F
07548:  BNZ   754E
....................       {Opcion=2;} 
0754A:  MOVLW  02
0754C:  MOVWF  xCA
....................      
....................     } 
.................... //_--------------------------------------------------------------------------------------------------------------------------------------------------------        
....................  
.................... //_-------------------------------------------------------------------------------------------------------------------------------------------------------- 
....................       if(Menu==13){ //Menu de Tempo UV. 
0754E:  MOVF   xC8,W
07550:  SUBLW  0D
07552:  BTFSS  FD8.2
07554:  BRA    76B4
....................        
....................       strcpy(Menus.Letra,"Luz UV"); 
07556:  MOVLW  04
07558:  MOVWF  FEA
0755A:  MOVLW  16
0755C:  MOVWF  FE9
0755E:  MOVFF  FF2,5D4
07562:  BCF    FF2.7
07564:  MOVLW  00
07566:  MOVLB  0
07568:  CALL   1060
0756C:  TBLRD*-
0756E:  TBLRD*+
07570:  MOVF   FF5,W
07572:  MOVWF  FEE
07574:  IORLW  00
07576:  BNZ   756E
07578:  MOVLB  5
0757A:  BTFSC  xD4.7
0757C:  BSF    FF2.7
....................       displayMenu(Menus.Letra,30,0,1,2); 
0757E:  MOVLW  04
07580:  MOVWF  xDD
07582:  MOVLW  16
07584:  MOVWF  xDC
07586:  MOVLW  1E
07588:  MOVWF  xDE
0758A:  CLRF   xDF
0758C:  MOVLW  01
0758E:  MOVWF  xE0
07590:  MOVLW  02
07592:  MOVWF  xE1
07594:  MOVLB  0
07596:  CALL   4C9E
....................        
....................       if(!flag_uv){ 
0759A:  MOVLB  4
0759C:  BTFSC  x2D.4
0759E:  BRA    75EC
....................          strcpy(Menus.Letra,"UV Off"); 
075A0:  MOVLW  04
075A2:  MOVWF  FEA
075A4:  MOVLW  16
075A6:  MOVWF  FE9
075A8:  MOVFF  FF2,5D4
075AC:  BCF    FF2.7
075AE:  MOVLW  00
075B0:  MOVLB  0
075B2:  CALL   10CE
075B6:  TBLRD*-
075B8:  TBLRD*+
075BA:  MOVF   FF5,W
075BC:  MOVWF  FEE
075BE:  IORLW  00
075C0:  BNZ   75B8
075C2:  MOVLB  5
075C4:  BTFSC  xD4.7
075C6:  BSF    FF2.7
....................          displayMenu(Menus.Letra,30,30,1,2); 
075C8:  MOVLW  04
075CA:  MOVWF  xDD
075CC:  MOVLW  16
075CE:  MOVWF  xDC
075D0:  MOVLW  1E
075D2:  MOVWF  xDE
075D4:  MOVWF  xDF
075D6:  MOVLW  01
075D8:  MOVWF  xE0
075DA:  MOVLW  02
075DC:  MOVWF  xE1
075DE:  MOVLB  0
075E0:  CALL   4C9E
....................          Aux_off; 
075E4:  BSF    F8B.0
075E6:  BCF    F94.0
....................       }else if(VIDRIODN){ 
075E8:  BRA    763A
075EA:  MOVLB  4
075EC:  BSF    F92.4
075EE:  BTFSC  F80.4
075F0:  BRA    763C
....................          strcpy(Menus.Letra,"UV On"); 
075F2:  MOVLW  04
075F4:  MOVWF  FEA
075F6:  MOVLW  16
075F8:  MOVWF  FE9
075FA:  MOVFF  FF2,5D4
075FE:  BCF    FF2.7
07600:  MOVLW  00
07602:  MOVLB  0
07604:  CALL   10F0
07608:  TBLRD*-
0760A:  TBLRD*+
0760C:  MOVF   FF5,W
0760E:  MOVWF  FEE
07610:  IORLW  00
07612:  BNZ   760A
07614:  MOVLB  5
07616:  BTFSC  xD4.7
07618:  BSF    FF2.7
....................          displayMenu(Menus.Letra,30,30,1,2); 
0761A:  MOVLW  04
0761C:  MOVWF  xDD
0761E:  MOVLW  16
07620:  MOVWF  xDC
07622:  MOVLW  1E
07624:  MOVWF  xDE
07626:  MOVWF  xDF
07628:  MOVLW  01
0762A:  MOVWF  xE0
0762C:  MOVLW  02
0762E:  MOVWF  xE1
07630:  MOVLB  0
07632:  CALL   4C9E
....................          Aux_on; 
07636:  BCF    F8B.0
07638:  BCF    F94.0
0763A:  MOVLB  4
....................       } 
....................          
....................       if(UP)//Si oprime hacia arriba 
0763C:  BSF    F92.5
0763E:  BTFSC  F80.5
07640:  BRA    765A
....................       {  if(Flanco == 0)  
07642:  BTFSC  x2C.0
07644:  BRA    7658
....................             {Flanco = 1;delay_ms(30);flag_uv=1; 
07646:  BSF    x2C.0
07648:  MOVLW  1E
0764A:  MOVLB  5
0764C:  MOVWF  xDD
0764E:  MOVLB  0
07650:  CALL   1492
07654:  MOVLB  4
07656:  BSF    x2D.4
....................             } 
....................       }else{ 
07658:  BRA    765C
....................          Flanco = 0; 
0765A:  BCF    x2C.0
....................       } 
....................              
....................       if(DOWN )//Si oprime hacia abajo 
0765C:  BSF    F96.0
0765E:  BTFSC  F84.0
07660:  BRA    767A
....................       {  if(Flanco2 == 0)  
07662:  BTFSC  x2C.2
07664:  BRA    7678
....................             {Flanco2 = 1;delay_ms(30);flag_uv=0; 
07666:  BSF    x2C.2
07668:  MOVLW  1E
0766A:  MOVLB  5
0766C:  MOVWF  xDD
0766E:  MOVLB  0
07670:  CALL   1492
07674:  MOVLB  4
07676:  BCF    x2D.4
....................             }      
....................       }else{ 
07678:  BRA    767C
....................          Flanco2 = 0; 
0767A:  BCF    x2C.2
....................       } 
....................              
....................       if(LEFT)//Si oprime boton de Toma. 
0767C:  BSF    F96.2
0767E:  BTFSC  F84.2
07680:  BRA    76B4
....................       { 
....................          delay_ms(700);Menu=4;glcd_fillscreen(OFF);Opcion=1;unidad=1;Aux_off; 
07682:  MOVLW  04
07684:  MOVLB  5
07686:  MOVWF  xD4
07688:  MOVLW  AF
0768A:  MOVWF  xDD
0768C:  MOVLB  0
0768E:  CALL   1492
07692:  MOVLB  5
07694:  DECFSZ xD4,F
07696:  BRA    7688
07698:  MOVLW  04
0769A:  MOVLB  4
0769C:  MOVWF  xC8
0769E:  MOVLB  5
076A0:  CLRF   xDC
076A2:  MOVLB  0
076A4:  CALL   1572
076A8:  MOVLW  01
076AA:  MOVLB  4
076AC:  MOVWF  xCA
076AE:  MOVWF  xC9
076B0:  BSF    F8B.0
076B2:  BCF    F94.0
....................       } 
....................      
....................     } 
.................... //_--------------------------------------------------------------------------------------------------------------------------------------------------------        
....................  
.................... //_-------------------------------------------------------------------------------------------------------------------------------------------------------- 
....................       if(Menu==11){ //Menu de Purga. 
076B4:  MOVF   xC8,W
076B6:  SUBLW  0B
076B8:  BTFSS  FD8.2
076BA:  BRA    7A7E
....................        
....................       strcpy(Menus.Letra,"T. Purga"); 
076BC:  MOVLW  04
076BE:  MOVWF  FEA
076C0:  MOVLW  16
076C2:  MOVWF  FE9
076C4:  MOVFF  FF2,5D4
076C8:  BCF    FF2.7
076CA:  MOVLW  00
076CC:  MOVLB  0
076CE:  CALL   1110
076D2:  TBLRD*-
076D4:  TBLRD*+
076D6:  MOVF   FF5,W
076D8:  MOVWF  FEE
076DA:  IORLW  00
076DC:  BNZ   76D4
076DE:  MOVLB  5
076E0:  BTFSC  xD4.7
076E2:  BSF    FF2.7
....................       displayMenu(Menus.Letra,10,0,1,2); 
076E4:  MOVLW  04
076E6:  MOVWF  xDD
076E8:  MOVLW  16
076EA:  MOVWF  xDC
076EC:  MOVLW  0A
076EE:  MOVWF  xDE
076F0:  CLRF   xDF
076F2:  MOVLW  01
076F4:  MOVWF  xE0
076F6:  MOVLW  02
076F8:  MOVWF  xE1
076FA:  MOVLB  0
076FC:  CALL   4C9E
....................        
....................       if(unidad==4) 
07700:  MOVLB  4
07702:  MOVF   xC9,W
07704:  SUBLW  04
07706:  BNZ   7726
....................       {displayTiempo(Tpurgap[3],20,40,1,2);} 
07708:  MOVFF  4EB,5D4
0770C:  MOVLW  14
0770E:  MOVLB  5
07710:  MOVWF  xD5
07712:  MOVLW  28
07714:  MOVWF  xD6
07716:  MOVLW  01
07718:  MOVWF  xD7
0771A:  MOVLW  02
0771C:  MOVWF  xD8
0771E:  MOVLB  0
07720:  CALL   5430
....................       else 
07724:  BRA    7740
....................       {displayTiempo(Tpurgap[3],20,40,0,2);} 
07726:  MOVFF  4EB,5D4
0772A:  MOVLW  14
0772C:  MOVLB  5
0772E:  MOVWF  xD5
07730:  MOVLW  28
07732:  MOVWF  xD6
07734:  CLRF   xD7
07736:  MOVLW  02
07738:  MOVWF  xD8
0773A:  MOVLB  0
0773C:  CALL   5430
....................        
....................       if(unidad==3) 
07740:  MOVLB  4
07742:  MOVF   xC9,W
07744:  SUBLW  03
07746:  BNZ   7764
....................       {displayTiempo(Tpurgap[2],40,40,1,2);} 
07748:  MOVFF  4EA,5D4
0774C:  MOVLW  28
0774E:  MOVLB  5
07750:  MOVWF  xD5
07752:  MOVWF  xD6
07754:  MOVLW  01
07756:  MOVWF  xD7
07758:  MOVLW  02
0775A:  MOVWF  xD8
0775C:  MOVLB  0
0775E:  CALL   5430
....................       else 
07762:  BRA    777C
....................       {displayTiempo(Tpurgap[2],40,40,0,2);} 
07764:  MOVFF  4EA,5D4
07768:  MOVLW  28
0776A:  MOVLB  5
0776C:  MOVWF  xD5
0776E:  MOVWF  xD6
07770:  CLRF   xD7
07772:  MOVLW  02
07774:  MOVWF  xD8
07776:  MOVLB  0
07778:  CALL   5430
....................        
....................       if(unidad==2) 
0777C:  MOVLB  4
0777E:  MOVF   xC9,W
07780:  SUBLW  02
07782:  BNZ   77A2
....................       {displayTiempo(Tpurgap[1],70,40,1,2);} 
07784:  MOVFF  4E9,5D4
07788:  MOVLW  46
0778A:  MOVLB  5
0778C:  MOVWF  xD5
0778E:  MOVLW  28
07790:  MOVWF  xD6
07792:  MOVLW  01
07794:  MOVWF  xD7
07796:  MOVLW  02
07798:  MOVWF  xD8
0779A:  MOVLB  0
0779C:  CALL   5430
....................       else 
077A0:  BRA    77BC
....................       {displayTiempo(Tpurgap[1],70,40,0,2);} 
077A2:  MOVFF  4E9,5D4
077A6:  MOVLW  46
077A8:  MOVLB  5
077AA:  MOVWF  xD5
077AC:  MOVLW  28
077AE:  MOVWF  xD6
077B0:  CLRF   xD7
077B2:  MOVLW  02
077B4:  MOVWF  xD8
077B6:  MOVLB  0
077B8:  CALL   5430
....................        
....................       if(unidad==1) 
077BC:  MOVLB  4
077BE:  DECFSZ xC9,W
077C0:  BRA    77E0
....................       {displayTiempo(Tpurgap[0],90,40,1,2);} 
077C2:  MOVFF  4E8,5D4
077C6:  MOVLW  5A
077C8:  MOVLB  5
077CA:  MOVWF  xD5
077CC:  MOVLW  28
077CE:  MOVWF  xD6
077D0:  MOVLW  01
077D2:  MOVWF  xD7
077D4:  MOVLW  02
077D6:  MOVWF  xD8
077D8:  MOVLB  0
077DA:  CALL   5430
....................       else 
077DE:  BRA    77FA
....................       {displayTiempo(Tpurgap[0],90,40,0,2);} 
077E0:  MOVFF  4E8,5D4
077E4:  MOVLW  5A
077E6:  MOVLB  5
077E8:  MOVWF  xD5
077EA:  MOVLW  28
077EC:  MOVWF  xD6
077EE:  CLRF   xD7
077F0:  MOVLW  02
077F2:  MOVWF  xD8
077F4:  MOVLB  0
077F6:  CALL   5430
....................        
....................       glcd_text57(60, 42, Dos_puntos, 2, ON); 
077FA:  MOVLW  3C
077FC:  MOVLB  5
077FE:  MOVWF  xED
07800:  MOVLW  2A
07802:  MOVWF  xEE
07804:  MOVLW  04
07806:  MOVWF  xF0
07808:  MOVLW  4E
0780A:  MOVWF  xEF
0780C:  MOVLW  02
0780E:  MOVWF  xF1
07810:  MOVLW  01
07812:  MOVWF  xF2
07814:  MOVLB  0
07816:  CALL   4A24
....................           
....................          
....................       if(UP)//Si oprime hacia arriba 
0781A:  BSF    F92.5
0781C:  BTFSC  F80.5
0781E:  BRA    784A
....................       {  if(Flanco == 0)  
07820:  MOVLB  4
07822:  BTFSC  x2C.0
07824:  BRA    7848
....................             {Flanco = 1;delay_ms(30);Tpurgap[unidad-1]++; 
07826:  BSF    x2C.0
07828:  MOVLW  1E
0782A:  MOVLB  5
0782C:  MOVWF  xDD
0782E:  MOVLB  0
07830:  CALL   1492
07834:  MOVLW  01
07836:  MOVLB  4
07838:  SUBWF  xC9,W
0783A:  CLRF   03
0783C:  ADDLW  E8
0783E:  MOVWF  FE9
07840:  MOVLW  04
07842:  ADDWFC 03,W
07844:  MOVWF  FEA
07846:  INCF   FEF,F
....................             } 
....................       } 
....................          else 
07848:  BRA    784E
....................             {Flanco = 0;} 
0784A:  MOVLB  4
0784C:  BCF    x2C.0
....................              
....................       if(DOWN)//Si oprime hacia abajo 
0784E:  BSF    F96.0
07850:  BTFSC  F84.0
07852:  BRA    787C
....................       {  if(Flanco2 == 0)  
07854:  BTFSC  x2C.2
07856:  BRA    787A
....................             {Flanco2 = 1;delay_ms(30);Tpurgap[unidad-1]--; 
07858:  BSF    x2C.2
0785A:  MOVLW  1E
0785C:  MOVLB  5
0785E:  MOVWF  xDD
07860:  MOVLB  0
07862:  CALL   1492
07866:  MOVLW  01
07868:  MOVLB  4
0786A:  SUBWF  xC9,W
0786C:  CLRF   03
0786E:  ADDLW  E8
07870:  MOVWF  FE9
07872:  MOVLW  04
07874:  ADDWFC 03,W
07876:  MOVWF  FEA
07878:  DECF   FEF,F
....................             }      
....................       } 
....................          else 
0787A:  BRA    787E
....................             {Flanco2 = 0;}   
0787C:  BCF    x2C.2
....................              
....................       if(RIGHT)//Si oprime SET 
0787E:  BSF    F96.1
07880:  BTFSC  F84.1
07882:  BRA    789C
....................       {  if(Flanco1 == 0)  
07884:  BTFSC  x2C.1
07886:  BRA    789A
....................             {Flanco1 = 1;delay_ms(30);unidad--; 
07888:  BSF    x2C.1
0788A:  MOVLW  1E
0788C:  MOVLB  5
0788E:  MOVWF  xDD
07890:  MOVLB  0
07892:  CALL   1492
07896:  MOVLB  4
07898:  DECF   xC9,F
....................             } 
....................       } 
....................          else 
0789A:  BRA    789E
....................             {Flanco1 = 0;}   
0789C:  BCF    x2C.1
....................              
....................       if(LEFT)//Si oprime boton de Toma. 
0789E:  BSF    F96.2
078A0:  BTFSC  F84.2
078A2:  BRA    79B2
....................       { 
....................          delay_ms(700);Menu=4;glcd_fillscreen(OFF);Opcion=1;unidad=1; 
078A4:  MOVLW  04
078A6:  MOVLB  5
078A8:  MOVWF  xD4
078AA:  MOVLW  AF
078AC:  MOVWF  xDD
078AE:  MOVLB  0
078B0:  CALL   1492
078B4:  MOVLB  5
078B6:  DECFSZ xD4,F
078B8:  BRA    78AA
078BA:  MOVLW  04
078BC:  MOVLB  4
078BE:  MOVWF  xC8
078C0:  MOVLB  5
078C2:  CLRF   xDC
078C4:  MOVLB  0
078C6:  CALL   1572
078CA:  MOVLW  01
078CC:  MOVLB  4
078CE:  MOVWF  xCA
078D0:  MOVWF  xC9
....................          write_eeprom(4,Tpurgap[0]); 
078D2:  CLRF   FAA
078D4:  MOVLW  04
078D6:  MOVWF  FA9
078D8:  MOVFF  4E8,FA8
078DC:  BCF    FA6.6
078DE:  BCF    FA6.7
078E0:  BSF    FA6.2
078E2:  MOVF   FF2,W
078E4:  MOVWF  00
078E6:  BCF    FF2.7
078E8:  MOVLB  F
078EA:  MOVLW  55
078EC:  MOVWF  FA7
078EE:  MOVLW  AA
078F0:  MOVWF  FA7
078F2:  BSF    FA6.1
078F4:  BTFSC  FA6.1
078F6:  BRA    78F4
078F8:  BCF    FA6.2
078FA:  MOVF   00,W
078FC:  IORWF  FF2,F
....................          delay_ms(20); 
078FE:  MOVLW  14
07900:  MOVLB  5
07902:  MOVWF  xDD
07904:  MOVLB  0
07906:  CALL   1492
....................          write_eeprom(5,Tpurgap[1]); 
0790A:  CLRF   FAA
0790C:  MOVLW  05
0790E:  MOVWF  FA9
07910:  MOVFF  4E9,FA8
07914:  BCF    FA6.6
07916:  BCF    FA6.7
07918:  BSF    FA6.2
0791A:  MOVF   FF2,W
0791C:  MOVWF  00
0791E:  BCF    FF2.7
07920:  MOVLB  F
07922:  MOVLW  55
07924:  MOVWF  FA7
07926:  MOVLW  AA
07928:  MOVWF  FA7
0792A:  BSF    FA6.1
0792C:  BTFSC  FA6.1
0792E:  BRA    792C
07930:  BCF    FA6.2
07932:  MOVF   00,W
07934:  IORWF  FF2,F
....................          delay_ms(20); 
07936:  MOVLW  14
07938:  MOVLB  5
0793A:  MOVWF  xDD
0793C:  MOVLB  0
0793E:  CALL   1492
....................          write_eeprom(6,Tpurgap[2]); 
07942:  CLRF   FAA
07944:  MOVLW  06
07946:  MOVWF  FA9
07948:  MOVFF  4EA,FA8
0794C:  BCF    FA6.6
0794E:  BCF    FA6.7
07950:  BSF    FA6.2
07952:  MOVF   FF2,W
07954:  MOVWF  00
07956:  BCF    FF2.7
07958:  MOVLB  F
0795A:  MOVLW  55
0795C:  MOVWF  FA7
0795E:  MOVLW  AA
07960:  MOVWF  FA7
07962:  BSF    FA6.1
07964:  BTFSC  FA6.1
07966:  BRA    7964
07968:  BCF    FA6.2
0796A:  MOVF   00,W
0796C:  IORWF  FF2,F
....................          delay_ms(20); 
0796E:  MOVLW  14
07970:  MOVLB  5
07972:  MOVWF  xDD
07974:  MOVLB  0
07976:  CALL   1492
....................          write_eeprom(7,Tpurgap[3]); 
0797A:  CLRF   FAA
0797C:  MOVLW  07
0797E:  MOVWF  FA9
07980:  MOVFF  4EB,FA8
07984:  BCF    FA6.6
07986:  BCF    FA6.7
07988:  BSF    FA6.2
0798A:  MOVF   FF2,W
0798C:  MOVWF  00
0798E:  BCF    FF2.7
07990:  MOVLB  F
07992:  MOVLW  55
07994:  MOVWF  FA7
07996:  MOVLW  AA
07998:  MOVWF  FA7
0799A:  BSF    FA6.1
0799C:  BTFSC  FA6.1
0799E:  BRA    799C
079A0:  BCF    FA6.2
079A2:  MOVF   00,W
079A4:  IORWF  FF2,F
....................          delay_ms(20); 
079A6:  MOVLW  14
079A8:  MOVLB  5
079AA:  MOVWF  xDD
079AC:  MOVLB  0
079AE:  CALL   1492
....................       } 
....................        
....................       for(i=0;i<4;i++) 
079B2:  MOVLB  5
079B4:  CLRF   xC4
079B6:  MOVF   xC4,W
079B8:  SUBLW  03
079BA:  BNC   7A0E
....................       { 
....................          if(Tpurgap[i]>9) 
079BC:  CLRF   03
079BE:  MOVF   xC4,W
079C0:  ADDLW  E8
079C2:  MOVWF  FE9
079C4:  MOVLW  04
079C6:  ADDWFC 03,W
079C8:  MOVWF  FEA
079CA:  BTFSC  FEF.7
079CC:  BRA    79E4
079CE:  MOVF   FEF,W
079D0:  SUBLW  09
079D2:  BC    79E4
....................          {Tpurgap[i]=0;} 
079D4:  CLRF   03
079D6:  MOVF   xC4,W
079D8:  ADDLW  E8
079DA:  MOVWF  FE9
079DC:  MOVLW  04
079DE:  ADDWFC 03,W
079E0:  MOVWF  FEA
079E2:  CLRF   FEF
....................           
....................          if(Tpurgap[i]<0) 
079E4:  CLRF   03
079E6:  MOVF   xC4,W
079E8:  ADDLW  E8
079EA:  MOVWF  FE9
079EC:  MOVLW  04
079EE:  ADDWFC 03,W
079F0:  MOVWF  FEA
079F2:  BTFSC  FEF.7
079F4:  BRA    79F8
079F6:  BRA    7A0A
....................          {Tpurgap[i]=9;} 
079F8:  CLRF   03
079FA:  MOVF   xC4,W
079FC:  ADDLW  E8
079FE:  MOVWF  FE9
07A00:  MOVLW  04
07A02:  ADDWFC 03,W
07A04:  MOVWF  FEA
07A06:  MOVLW  09
07A08:  MOVWF  FEF
....................       }       
07A0A:  INCF   xC4,F
07A0C:  BRA    79B6
....................       for(i=1;i<4;i++) 
07A0E:  MOVLW  01
07A10:  MOVWF  xC4
07A12:  MOVF   xC4,W
07A14:  SUBLW  03
07A16:  BNC   7A6C
....................       { 
....................          if(Tpurgap[i]>5) 
07A18:  CLRF   03
07A1A:  MOVF   xC4,W
07A1C:  ADDLW  E8
07A1E:  MOVWF  FE9
07A20:  MOVLW  04
07A22:  ADDWFC 03,W
07A24:  MOVWF  FEA
07A26:  BTFSC  FEF.7
07A28:  BRA    7A40
07A2A:  MOVF   FEF,W
07A2C:  SUBLW  05
07A2E:  BC    7A40
....................          {Tpurgap[i]=0;} 
07A30:  CLRF   03
07A32:  MOVF   xC4,W
07A34:  ADDLW  E8
07A36:  MOVWF  FE9
07A38:  MOVLW  04
07A3A:  ADDWFC 03,W
07A3C:  MOVWF  FEA
07A3E:  CLRF   FEF
....................           
....................          if(Tpurgap[i]<0) 
07A40:  CLRF   03
07A42:  MOVF   xC4,W
07A44:  ADDLW  E8
07A46:  MOVWF  FE9
07A48:  MOVLW  04
07A4A:  ADDWFC 03,W
07A4C:  MOVWF  FEA
07A4E:  BTFSC  FEF.7
07A50:  BRA    7A54
07A52:  BRA    7A66
....................          {Tpurgap[i]=5;} 
07A54:  CLRF   03
07A56:  MOVF   xC4,W
07A58:  ADDLW  E8
07A5A:  MOVWF  FE9
07A5C:  MOVLW  04
07A5E:  ADDWFC 03,W
07A60:  MOVWF  FEA
07A62:  MOVLW  05
07A64:  MOVWF  FEF
....................         i++;  
07A66:  INCF   xC4,F
....................       } 
07A68:  INCF   xC4,F
07A6A:  BRA    7A12
....................       if(unidad<1) 
07A6C:  MOVLB  4
07A6E:  MOVF   xC9,F
07A70:  BNZ   7A76
....................       {unidad=4;} 
07A72:  MOVLW  04
07A74:  MOVWF  xC9
....................       if(Opcion<1) 
07A76:  MOVF   xCA,F
07A78:  BNZ   7A7E
....................       {Opcion=4;} 
07A7A:  MOVLW  04
07A7C:  MOVWF  xCA
....................      
....................     } 
.................... //_--------------------------------------------------------------------------------------------------------------------------------------------------------        
....................  
.................... //_-------------------------------------------------------------------------------------------------------------------------------------------------------- 
....................       if(Menu==12){ //Menu de Post-Purga. 
07A7E:  MOVF   xC8,W
07A80:  SUBLW  0C
07A82:  BTFSS  FD8.2
07A84:  BRA    7E46
....................        
....................       strcpy(Menus.Letra,"T. Post-Purga"); 
07A86:  MOVLW  04
07A88:  MOVWF  FEA
07A8A:  MOVLW  16
07A8C:  MOVWF  FE9
07A8E:  MOVFF  FF2,5D4
07A92:  BCF    FF2.7
07A94:  MOVLW  00
07A96:  MOVLB  0
07A98:  CALL   1134
07A9C:  TBLRD*-
07A9E:  TBLRD*+
07AA0:  MOVF   FF5,W
07AA2:  MOVWF  FEE
07AA4:  IORLW  00
07AA6:  BNZ   7A9E
07AA8:  MOVLB  5
07AAA:  BTFSC  xD4.7
07AAC:  BSF    FF2.7
....................       displayMenu(Menus.Letra,0,0,1,2); 
07AAE:  MOVLW  04
07AB0:  MOVWF  xDD
07AB2:  MOVLW  16
07AB4:  MOVWF  xDC
07AB6:  CLRF   xDE
07AB8:  CLRF   xDF
07ABA:  MOVLW  01
07ABC:  MOVWF  xE0
07ABE:  MOVLW  02
07AC0:  MOVWF  xE1
07AC2:  MOVLB  0
07AC4:  CALL   4C9E
....................        
....................       if(unidad==4) 
07AC8:  MOVLB  4
07ACA:  MOVF   xC9,W
07ACC:  SUBLW  04
07ACE:  BNZ   7AEE
....................       {displayTiempo(Tppurgap[3],20,40,1,2);} 
07AD0:  MOVFF  4F3,5D4
07AD4:  MOVLW  14
07AD6:  MOVLB  5
07AD8:  MOVWF  xD5
07ADA:  MOVLW  28
07ADC:  MOVWF  xD6
07ADE:  MOVLW  01
07AE0:  MOVWF  xD7
07AE2:  MOVLW  02
07AE4:  MOVWF  xD8
07AE6:  MOVLB  0
07AE8:  CALL   5430
....................       else 
07AEC:  BRA    7B08
....................       {displayTiempo(Tppurgap[3],20,40,0,2);} 
07AEE:  MOVFF  4F3,5D4
07AF2:  MOVLW  14
07AF4:  MOVLB  5
07AF6:  MOVWF  xD5
07AF8:  MOVLW  28
07AFA:  MOVWF  xD6
07AFC:  CLRF   xD7
07AFE:  MOVLW  02
07B00:  MOVWF  xD8
07B02:  MOVLB  0
07B04:  CALL   5430
....................        
....................       if(unidad==3) 
07B08:  MOVLB  4
07B0A:  MOVF   xC9,W
07B0C:  SUBLW  03
07B0E:  BNZ   7B2C
....................       {displayTiempo(Tppurgap[2],40,40,1,2);} 
07B10:  MOVFF  4F2,5D4
07B14:  MOVLW  28
07B16:  MOVLB  5
07B18:  MOVWF  xD5
07B1A:  MOVWF  xD6
07B1C:  MOVLW  01
07B1E:  MOVWF  xD7
07B20:  MOVLW  02
07B22:  MOVWF  xD8
07B24:  MOVLB  0
07B26:  CALL   5430
....................       else 
07B2A:  BRA    7B44
....................       {displayTiempo(Tppurgap[2],40,40,0,2);} 
07B2C:  MOVFF  4F2,5D4
07B30:  MOVLW  28
07B32:  MOVLB  5
07B34:  MOVWF  xD5
07B36:  MOVWF  xD6
07B38:  CLRF   xD7
07B3A:  MOVLW  02
07B3C:  MOVWF  xD8
07B3E:  MOVLB  0
07B40:  CALL   5430
....................        
....................       if(unidad==2) 
07B44:  MOVLB  4
07B46:  MOVF   xC9,W
07B48:  SUBLW  02
07B4A:  BNZ   7B6A
....................       {displayTiempo(Tppurgap[1],70,40,1,2);} 
07B4C:  MOVFF  4F1,5D4
07B50:  MOVLW  46
07B52:  MOVLB  5
07B54:  MOVWF  xD5
07B56:  MOVLW  28
07B58:  MOVWF  xD6
07B5A:  MOVLW  01
07B5C:  MOVWF  xD7
07B5E:  MOVLW  02
07B60:  MOVWF  xD8
07B62:  MOVLB  0
07B64:  CALL   5430
....................       else 
07B68:  BRA    7B84
....................       {displayTiempo(Tppurgap[1],70,40,0,2);} 
07B6A:  MOVFF  4F1,5D4
07B6E:  MOVLW  46
07B70:  MOVLB  5
07B72:  MOVWF  xD5
07B74:  MOVLW  28
07B76:  MOVWF  xD6
07B78:  CLRF   xD7
07B7A:  MOVLW  02
07B7C:  MOVWF  xD8
07B7E:  MOVLB  0
07B80:  CALL   5430
....................        
....................       if(unidad==1) 
07B84:  MOVLB  4
07B86:  DECFSZ xC9,W
07B88:  BRA    7BA8
....................       {displayTiempo(Tppurgap[0],90,40,1,2);} 
07B8A:  MOVFF  4F0,5D4
07B8E:  MOVLW  5A
07B90:  MOVLB  5
07B92:  MOVWF  xD5
07B94:  MOVLW  28
07B96:  MOVWF  xD6
07B98:  MOVLW  01
07B9A:  MOVWF  xD7
07B9C:  MOVLW  02
07B9E:  MOVWF  xD8
07BA0:  MOVLB  0
07BA2:  CALL   5430
....................       else 
07BA6:  BRA    7BC2
....................       {displayTiempo(Tppurgap[0],90,40,0,2);} 
07BA8:  MOVFF  4F0,5D4
07BAC:  MOVLW  5A
07BAE:  MOVLB  5
07BB0:  MOVWF  xD5
07BB2:  MOVLW  28
07BB4:  MOVWF  xD6
07BB6:  CLRF   xD7
07BB8:  MOVLW  02
07BBA:  MOVWF  xD8
07BBC:  MOVLB  0
07BBE:  CALL   5430
....................        
....................       glcd_text57(60, 42, Dos_puntos, 2, ON); 
07BC2:  MOVLW  3C
07BC4:  MOVLB  5
07BC6:  MOVWF  xED
07BC8:  MOVLW  2A
07BCA:  MOVWF  xEE
07BCC:  MOVLW  04
07BCE:  MOVWF  xF0
07BD0:  MOVLW  4E
07BD2:  MOVWF  xEF
07BD4:  MOVLW  02
07BD6:  MOVWF  xF1
07BD8:  MOVLW  01
07BDA:  MOVWF  xF2
07BDC:  MOVLB  0
07BDE:  CALL   4A24
....................           
....................          
....................       if(UP)//Si oprime hacia arriba 
07BE2:  BSF    F92.5
07BE4:  BTFSC  F80.5
07BE6:  BRA    7C12
....................       {  if(Flanco == 0)  
07BE8:  MOVLB  4
07BEA:  BTFSC  x2C.0
07BEC:  BRA    7C10
....................             {Flanco = 1;delay_ms(30);Tppurgap[unidad-1]++; 
07BEE:  BSF    x2C.0
07BF0:  MOVLW  1E
07BF2:  MOVLB  5
07BF4:  MOVWF  xDD
07BF6:  MOVLB  0
07BF8:  CALL   1492
07BFC:  MOVLW  01
07BFE:  MOVLB  4
07C00:  SUBWF  xC9,W
07C02:  CLRF   03
07C04:  ADDLW  F0
07C06:  MOVWF  FE9
07C08:  MOVLW  04
07C0A:  ADDWFC 03,W
07C0C:  MOVWF  FEA
07C0E:  INCF   FEF,F
....................             } 
....................       } 
....................          else 
07C10:  BRA    7C16
....................             {Flanco = 0;} 
07C12:  MOVLB  4
07C14:  BCF    x2C.0
....................              
....................       if(DOWN)//Si oprime hacia abajo 
07C16:  BSF    F96.0
07C18:  BTFSC  F84.0
07C1A:  BRA    7C44
....................       {  if(Flanco2 == 0)  
07C1C:  BTFSC  x2C.2
07C1E:  BRA    7C42
....................             {Flanco2 = 1;delay_ms(30);Tppurgap[unidad-1]--; 
07C20:  BSF    x2C.2
07C22:  MOVLW  1E
07C24:  MOVLB  5
07C26:  MOVWF  xDD
07C28:  MOVLB  0
07C2A:  CALL   1492
07C2E:  MOVLW  01
07C30:  MOVLB  4
07C32:  SUBWF  xC9,W
07C34:  CLRF   03
07C36:  ADDLW  F0
07C38:  MOVWF  FE9
07C3A:  MOVLW  04
07C3C:  ADDWFC 03,W
07C3E:  MOVWF  FEA
07C40:  DECF   FEF,F
....................             }      
....................       } 
....................          else 
07C42:  BRA    7C46
....................             {Flanco2 = 0;}   
07C44:  BCF    x2C.2
....................              
....................       if(RIGHT)//Si oprime SET 
07C46:  BSF    F96.1
07C48:  BTFSC  F84.1
07C4A:  BRA    7C64
....................       {  if(Flanco1 == 0)  
07C4C:  BTFSC  x2C.1
07C4E:  BRA    7C62
....................             {Flanco1 = 1;delay_ms(30);unidad--; 
07C50:  BSF    x2C.1
07C52:  MOVLW  1E
07C54:  MOVLB  5
07C56:  MOVWF  xDD
07C58:  MOVLB  0
07C5A:  CALL   1492
07C5E:  MOVLB  4
07C60:  DECF   xC9,F
....................             } 
....................       } 
....................          else 
07C62:  BRA    7C66
....................             {Flanco1 = 0;}   
07C64:  BCF    x2C.1
....................              
....................       if(LEFT)//Si oprime boton de Toma. 
07C66:  BSF    F96.2
07C68:  BTFSC  F84.2
07C6A:  BRA    7D7A
....................       { 
....................          delay_ms(700);Menu=4;glcd_fillscreen(OFF);Opcion=1;unidad=1; 
07C6C:  MOVLW  04
07C6E:  MOVLB  5
07C70:  MOVWF  xD4
07C72:  MOVLW  AF
07C74:  MOVWF  xDD
07C76:  MOVLB  0
07C78:  CALL   1492
07C7C:  MOVLB  5
07C7E:  DECFSZ xD4,F
07C80:  BRA    7C72
07C82:  MOVLW  04
07C84:  MOVLB  4
07C86:  MOVWF  xC8
07C88:  MOVLB  5
07C8A:  CLRF   xDC
07C8C:  MOVLB  0
07C8E:  CALL   1572
07C92:  MOVLW  01
07C94:  MOVLB  4
07C96:  MOVWF  xCA
07C98:  MOVWF  xC9
....................          write_eeprom(8,Tppurgap[0]); 
07C9A:  CLRF   FAA
07C9C:  MOVLW  08
07C9E:  MOVWF  FA9
07CA0:  MOVFF  4F0,FA8
07CA4:  BCF    FA6.6
07CA6:  BCF    FA6.7
07CA8:  BSF    FA6.2
07CAA:  MOVF   FF2,W
07CAC:  MOVWF  00
07CAE:  BCF    FF2.7
07CB0:  MOVLB  F
07CB2:  MOVLW  55
07CB4:  MOVWF  FA7
07CB6:  MOVLW  AA
07CB8:  MOVWF  FA7
07CBA:  BSF    FA6.1
07CBC:  BTFSC  FA6.1
07CBE:  BRA    7CBC
07CC0:  BCF    FA6.2
07CC2:  MOVF   00,W
07CC4:  IORWF  FF2,F
....................          delay_ms(20); 
07CC6:  MOVLW  14
07CC8:  MOVLB  5
07CCA:  MOVWF  xDD
07CCC:  MOVLB  0
07CCE:  CALL   1492
....................          write_eeprom(9,Tppurgap[1]); 
07CD2:  CLRF   FAA
07CD4:  MOVLW  09
07CD6:  MOVWF  FA9
07CD8:  MOVFF  4F1,FA8
07CDC:  BCF    FA6.6
07CDE:  BCF    FA6.7
07CE0:  BSF    FA6.2
07CE2:  MOVF   FF2,W
07CE4:  MOVWF  00
07CE6:  BCF    FF2.7
07CE8:  MOVLB  F
07CEA:  MOVLW  55
07CEC:  MOVWF  FA7
07CEE:  MOVLW  AA
07CF0:  MOVWF  FA7
07CF2:  BSF    FA6.1
07CF4:  BTFSC  FA6.1
07CF6:  BRA    7CF4
07CF8:  BCF    FA6.2
07CFA:  MOVF   00,W
07CFC:  IORWF  FF2,F
....................          delay_ms(20); 
07CFE:  MOVLW  14
07D00:  MOVLB  5
07D02:  MOVWF  xDD
07D04:  MOVLB  0
07D06:  CALL   1492
....................          write_eeprom(10,Tppurgap[2]); 
07D0A:  CLRF   FAA
07D0C:  MOVLW  0A
07D0E:  MOVWF  FA9
07D10:  MOVFF  4F2,FA8
07D14:  BCF    FA6.6
07D16:  BCF    FA6.7
07D18:  BSF    FA6.2
07D1A:  MOVF   FF2,W
07D1C:  MOVWF  00
07D1E:  BCF    FF2.7
07D20:  MOVLB  F
07D22:  MOVLW  55
07D24:  MOVWF  FA7
07D26:  MOVLW  AA
07D28:  MOVWF  FA7
07D2A:  BSF    FA6.1
07D2C:  BTFSC  FA6.1
07D2E:  BRA    7D2C
07D30:  BCF    FA6.2
07D32:  MOVF   00,W
07D34:  IORWF  FF2,F
....................          delay_ms(20); 
07D36:  MOVLW  14
07D38:  MOVLB  5
07D3A:  MOVWF  xDD
07D3C:  MOVLB  0
07D3E:  CALL   1492
....................          write_eeprom(11,Tppurgap[3]); 
07D42:  CLRF   FAA
07D44:  MOVLW  0B
07D46:  MOVWF  FA9
07D48:  MOVFF  4F3,FA8
07D4C:  BCF    FA6.6
07D4E:  BCF    FA6.7
07D50:  BSF    FA6.2
07D52:  MOVF   FF2,W
07D54:  MOVWF  00
07D56:  BCF    FF2.7
07D58:  MOVLB  F
07D5A:  MOVLW  55
07D5C:  MOVWF  FA7
07D5E:  MOVLW  AA
07D60:  MOVWF  FA7
07D62:  BSF    FA6.1
07D64:  BTFSC  FA6.1
07D66:  BRA    7D64
07D68:  BCF    FA6.2
07D6A:  MOVF   00,W
07D6C:  IORWF  FF2,F
....................          delay_ms(20); 
07D6E:  MOVLW  14
07D70:  MOVLB  5
07D72:  MOVWF  xDD
07D74:  MOVLB  0
07D76:  CALL   1492
....................       } 
....................              
....................       for(i=0;i<4;i++) 
07D7A:  MOVLB  5
07D7C:  CLRF   xC4
07D7E:  MOVF   xC4,W
07D80:  SUBLW  03
07D82:  BNC   7DD6
....................       { 
....................          if(Tppurgap[i]>9) 
07D84:  CLRF   03
07D86:  MOVF   xC4,W
07D88:  ADDLW  F0
07D8A:  MOVWF  FE9
07D8C:  MOVLW  04
07D8E:  ADDWFC 03,W
07D90:  MOVWF  FEA
07D92:  BTFSC  FEF.7
07D94:  BRA    7DAC
07D96:  MOVF   FEF,W
07D98:  SUBLW  09
07D9A:  BC    7DAC
....................          {Tppurgap[i]=0;} 
07D9C:  CLRF   03
07D9E:  MOVF   xC4,W
07DA0:  ADDLW  F0
07DA2:  MOVWF  FE9
07DA4:  MOVLW  04
07DA6:  ADDWFC 03,W
07DA8:  MOVWF  FEA
07DAA:  CLRF   FEF
....................           
....................          if(Tppurgap[i]<0) 
07DAC:  CLRF   03
07DAE:  MOVF   xC4,W
07DB0:  ADDLW  F0
07DB2:  MOVWF  FE9
07DB4:  MOVLW  04
07DB6:  ADDWFC 03,W
07DB8:  MOVWF  FEA
07DBA:  BTFSC  FEF.7
07DBC:  BRA    7DC0
07DBE:  BRA    7DD2
....................          {Tppurgap[i]=9;} 
07DC0:  CLRF   03
07DC2:  MOVF   xC4,W
07DC4:  ADDLW  F0
07DC6:  MOVWF  FE9
07DC8:  MOVLW  04
07DCA:  ADDWFC 03,W
07DCC:  MOVWF  FEA
07DCE:  MOVLW  09
07DD0:  MOVWF  FEF
....................       } 
07DD2:  INCF   xC4,F
07DD4:  BRA    7D7E
....................        
....................       for(i=1;i<4;i++) 
07DD6:  MOVLW  01
07DD8:  MOVWF  xC4
07DDA:  MOVF   xC4,W
07DDC:  SUBLW  03
07DDE:  BNC   7E34
....................       { 
....................          if(Tppurgap[i]>5) 
07DE0:  CLRF   03
07DE2:  MOVF   xC4,W
07DE4:  ADDLW  F0
07DE6:  MOVWF  FE9
07DE8:  MOVLW  04
07DEA:  ADDWFC 03,W
07DEC:  MOVWF  FEA
07DEE:  BTFSC  FEF.7
07DF0:  BRA    7E08
07DF2:  MOVF   FEF,W
07DF4:  SUBLW  05
07DF6:  BC    7E08
....................          {Tppurgap[i]=0;} 
07DF8:  CLRF   03
07DFA:  MOVF   xC4,W
07DFC:  ADDLW  F0
07DFE:  MOVWF  FE9
07E00:  MOVLW  04
07E02:  ADDWFC 03,W
07E04:  MOVWF  FEA
07E06:  CLRF   FEF
....................           
....................          if(Tppurgap[i]<0) 
07E08:  CLRF   03
07E0A:  MOVF   xC4,W
07E0C:  ADDLW  F0
07E0E:  MOVWF  FE9
07E10:  MOVLW  04
07E12:  ADDWFC 03,W
07E14:  MOVWF  FEA
07E16:  BTFSC  FEF.7
07E18:  BRA    7E1C
07E1A:  BRA    7E2E
....................          {Tppurgap[i]=5;} 
07E1C:  CLRF   03
07E1E:  MOVF   xC4,W
07E20:  ADDLW  F0
07E22:  MOVWF  FE9
07E24:  MOVLW  04
07E26:  ADDWFC 03,W
07E28:  MOVWF  FEA
07E2A:  MOVLW  05
07E2C:  MOVWF  FEF
....................         i++;  
07E2E:  INCF   xC4,F
....................       } 
07E30:  INCF   xC4,F
07E32:  BRA    7DDA
....................       if(unidad<1) 
07E34:  MOVLB  4
07E36:  MOVF   xC9,F
07E38:  BNZ   7E3E
....................       {unidad=4;} 
07E3A:  MOVLW  04
07E3C:  MOVWF  xC9
....................       if(Opcion<1) 
07E3E:  MOVF   xCA,F
07E40:  BNZ   7E46
....................       {Opcion=4;} 
07E42:  MOVLW  04
07E44:  MOVWF  xCA
....................      
....................     } 
.................... //_--------------------------------------------------------------------------------------------------------------------------------------------------------        
....................  
.................... //_-------------------------------------------------------------------------------------------------------------------------------------------------------- 
....................       if(Menu==5){ //Menu de Clave. 
07E46:  MOVF   xC8,W
07E48:  SUBLW  05
07E4A:  BNZ   7EAA
....................  
....................       PidePassword(3,5,211,Password[0],Password[1],Password[2],Password[3]); 
07E4C:  MOVLW  03
07E4E:  MOVLB  5
07E50:  MOVWF  xD5
07E52:  MOVLW  05
07E54:  MOVWF  xD6
07E56:  MOVLW  D3
07E58:  MOVWF  xD7
07E5A:  MOVFF  504,5D8
07E5E:  MOVFF  505,5D9
07E62:  MOVFF  506,5DA
07E66:  MOVFF  507,5DB
07E6A:  MOVLB  0
07E6C:  CALL   4D6A
....................              
....................       if(LEFT)//Si oprime boton de Toma. 
07E70:  BSF    F96.2
07E72:  BTFSC  F84.2
07E74:  BRA    7EAC
....................       { 
....................          delay_ms(200); 
07E76:  MOVLW  C8
07E78:  MOVLB  5
07E7A:  MOVWF  xDD
07E7C:  MOVLB  0
07E7E:  CALL   1492
....................          if(unidad==1){ 
07E82:  MOVLB  4
07E84:  DECFSZ xC9,W
07E86:  BRA    7EAA
....................             Menu=3;glcd_fillscreen(OFF);Opcion=1;unidad=1;Contrasena[0]=0;Contrasena[1]=0;Contrasena[2]=0;Contrasena[3]=0; 
07E88:  MOVLW  03
07E8A:  MOVWF  xC8
07E8C:  MOVLB  5
07E8E:  CLRF   xDC
07E90:  MOVLB  0
07E92:  CALL   1572
07E96:  MOVLW  01
07E98:  MOVLB  4
07E9A:  MOVWF  xCA
07E9C:  MOVWF  xC9
07E9E:  MOVLB  5
07EA0:  CLRF   x00
07EA2:  CLRF   x01
07EA4:  CLRF   x02
07EA6:  CLRF   x03
07EA8:  MOVLB  4
07EAA:  MOVLB  0
....................          } 
....................       }  
....................     } 
.................... //_--------------------------------------------------------------------------------------------------------------------------------------------------------        
....................  
.................... //_-------------------------------------------------------------------------------------------------------------------------------------------------------- 
....................       if(Menu==211){ //Menu de Cambio Clave. 
07EAC:  MOVLB  4
07EAE:  MOVF   xC8,W
07EB0:  SUBLW  D3
07EB2:  BTFSS  FD8.2
07EB4:  BRA    833C
....................        
....................       if(n==0) 
07EB6:  BTFSC  x2F.0
07EB8:  BRA    7F18
....................       { 
....................          displayContrasena(Contrasena[0],20,30,1);displayContrasena(Contrasena[1],40,30,0); 
07EBA:  MOVFF  500,5DE
07EBE:  MOVLW  14
07EC0:  MOVLB  5
07EC2:  MOVWF  xDF
07EC4:  MOVLW  1E
07EC6:  MOVWF  xE0
07EC8:  MOVLW  01
07ECA:  MOVWF  xE1
07ECC:  MOVLB  0
07ECE:  CALL   4BE6
07ED2:  MOVFF  501,5DE
07ED6:  MOVLW  28
07ED8:  MOVLB  5
07EDA:  MOVWF  xDF
07EDC:  MOVLW  1E
07EDE:  MOVWF  xE0
07EE0:  CLRF   xE1
07EE2:  MOVLB  0
07EE4:  CALL   4BE6
....................          displayContrasena(Contrasena[2],60,30,0);displayContrasena(Contrasena[0],80,30,0); 
07EE8:  MOVFF  502,5DE
07EEC:  MOVLW  3C
07EEE:  MOVLB  5
07EF0:  MOVWF  xDF
07EF2:  MOVLW  1E
07EF4:  MOVWF  xE0
07EF6:  CLRF   xE1
07EF8:  MOVLB  0
07EFA:  CALL   4BE6
07EFE:  MOVFF  500,5DE
07F02:  MOVLW  50
07F04:  MOVLB  5
07F06:  MOVWF  xDF
07F08:  MOVLW  1E
07F0A:  MOVWF  xE0
07F0C:  CLRF   xE1
07F0E:  MOVLB  0
07F10:  CALL   4BE6
....................          n=1; 
07F14:  MOVLB  4
07F16:  BSF    x2F.0
....................       } 
....................       strcpy(Menus.Letra,"Clave Nueva"); 
07F18:  MOVLW  04
07F1A:  MOVWF  FEA
07F1C:  MOVLW  16
07F1E:  MOVWF  FE9
07F20:  MOVFF  FF2,5D4
07F24:  BCF    FF2.7
07F26:  MOVLW  00
07F28:  MOVLB  0
07F2A:  CALL   115C
07F2E:  TBLRD*-
07F30:  TBLRD*+
07F32:  MOVF   FF5,W
07F34:  MOVWF  FEE
07F36:  IORLW  00
07F38:  BNZ   7F30
07F3A:  MOVLB  5
07F3C:  BTFSC  xD4.7
07F3E:  BSF    FF2.7
....................       displayMenu(Menus.Letra,0,0,1,2); 
07F40:  MOVLW  04
07F42:  MOVWF  xDD
07F44:  MOVLW  16
07F46:  MOVWF  xDC
07F48:  CLRF   xDE
07F4A:  CLRF   xDF
07F4C:  MOVLW  01
07F4E:  MOVWF  xE0
07F50:  MOVLW  02
07F52:  MOVWF  xE1
07F54:  MOVLB  0
07F56:  CALL   4C9E
....................          
....................        
....................       if(UP)//Si oprime hacia arriba 
07F5A:  BSF    F92.5
07F5C:  BTFSC  F80.5
07F5E:  BRA    802E
....................       {  if(Flanco == 0)  
07F60:  MOVLB  4
07F62:  BTFSC  x2C.0
07F64:  BRA    802C
....................             {Flanco = 1;delay_ms(30); 
07F66:  BSF    x2C.0
07F68:  MOVLW  1E
07F6A:  MOVLB  5
07F6C:  MOVWF  xDD
07F6E:  MOVLB  0
07F70:  CALL   1492
....................             for(i=1;i<=4;i++) 
07F74:  MOVLW  01
07F76:  MOVLB  5
07F78:  MOVWF  xC4
07F7A:  MOVF   xC4,W
07F7C:  SUBLW  04
07F7E:  BNC   802A
....................                { 
....................                   if(unidad==i) 
07F80:  MOVF   xC4,W
07F82:  MOVLB  4
07F84:  SUBWF  xC9,W
07F86:  BNZ   7FF4
....................                   {Contrasena[i-1]++; 
07F88:  MOVLW  01
07F8A:  MOVLB  5
07F8C:  SUBWF  xC4,W
07F8E:  CLRF   03
07F90:  MOVWF  FE9
07F92:  MOVLW  05
07F94:  ADDWF  03,W
07F96:  MOVWF  FEA
07F98:  INCF   FEF,F
....................                   if(Contrasena[i-1]>9) 
07F9A:  MOVLW  01
07F9C:  SUBWF  xC4,W
07F9E:  CLRF   03
07FA0:  MOVWF  FE9
07FA2:  MOVLW  05
07FA4:  ADDWF  03,W
07FA6:  MOVWF  FEA
07FA8:  BTFSC  FEF.7
07FAA:  BRA    7FC2
07FAC:  MOVF   FEF,W
07FAE:  SUBLW  09
07FB0:  BC    7FC2
....................                         {Contrasena[i-1]=0;} 
07FB2:  MOVLW  01
07FB4:  SUBWF  xC4,W
07FB6:  CLRF   03
07FB8:  MOVWF  FE9
07FBA:  MOVLW  05
07FBC:  ADDWF  03,W
07FBE:  MOVWF  FEA
07FC0:  CLRF   FEF
....................                   displayContrasena(Contrasena[i-1],i*20,30,1);} 
07FC2:  MOVLW  01
07FC4:  SUBWF  xC4,W
07FC6:  CLRF   03
07FC8:  MOVWF  FE9
07FCA:  MOVLW  05
07FCC:  ADDWF  03,W
07FCE:  MOVWF  FEA
07FD0:  MOVFF  FEF,5D4
07FD4:  MOVF   xC4,W
07FD6:  MULLW  14
07FD8:  MOVFF  FF3,5D5
07FDC:  MOVFF  5D4,5DE
07FE0:  MOVFF  5D5,5DF
07FE4:  MOVLW  1E
07FE6:  MOVWF  xE0
07FE8:  MOVLW  01
07FEA:  MOVWF  xE1
07FEC:  MOVLB  0
07FEE:  CALL   4BE6
....................                   else 
07FF2:  BRA    8024
....................                   {displayContrasena(Contrasena[i-1],i*20,30,0);} 
07FF4:  MOVLW  01
07FF6:  MOVLB  5
07FF8:  SUBWF  xC4,W
07FFA:  CLRF   03
07FFC:  MOVWF  FE9
07FFE:  MOVLW  05
08000:  ADDWF  03,W
08002:  MOVWF  FEA
08004:  MOVFF  FEF,5D4
08008:  MOVF   xC4,W
0800A:  MULLW  14
0800C:  MOVFF  FF3,5D5
08010:  MOVFF  5D4,5DE
08014:  MOVFF  5D5,5DF
08018:  MOVLW  1E
0801A:  MOVWF  xE0
0801C:  CLRF   xE1
0801E:  MOVLB  0
08020:  CALL   4BE6
....................                } 
08024:  MOVLB  5
08026:  INCF   xC4,F
08028:  BRA    7F7A
0802A:  MOVLB  4
....................             } 
....................       } 
....................          else 
0802C:  BRA    8032
....................             {Flanco = 0;} 
0802E:  MOVLB  4
08030:  BCF    x2C.0
....................              
....................       if(DOWN )//Si oprime hacia abajo 
08032:  BSF    F96.0
08034:  BTFSC  F84.0
08036:  BRA    8102
....................       {  if(Flanco2 == 0)  
08038:  BTFSC  x2C.2
0803A:  BRA    8100
....................             {Flanco2 = 1;delay_ms(30); 
0803C:  BSF    x2C.2
0803E:  MOVLW  1E
08040:  MOVLB  5
08042:  MOVWF  xDD
08044:  MOVLB  0
08046:  CALL   1492
....................                for(i=1;i<=4;i++) 
0804A:  MOVLW  01
0804C:  MOVLB  5
0804E:  MOVWF  xC4
08050:  MOVF   xC4,W
08052:  SUBLW  04
08054:  BNC   80FE
....................                { 
....................                   if(unidad==i) 
08056:  MOVF   xC4,W
08058:  MOVLB  4
0805A:  SUBWF  xC9,W
0805C:  BNZ   80C8
....................                   {Contrasena[i-1]--;  
0805E:  MOVLW  01
08060:  MOVLB  5
08062:  SUBWF  xC4,W
08064:  CLRF   03
08066:  MOVWF  FE9
08068:  MOVLW  05
0806A:  ADDWF  03,W
0806C:  MOVWF  FEA
0806E:  DECF   FEF,F
....................                      if(Contrasena[i-1]<0) 
08070:  MOVLW  01
08072:  SUBWF  xC4,W
08074:  CLRF   03
08076:  MOVWF  FE9
08078:  MOVLW  05
0807A:  ADDWF  03,W
0807C:  MOVWF  FEA
0807E:  BTFSC  FEF.7
08080:  BRA    8084
08082:  BRA    8096
....................                         {Contrasena[i-1]=9;} 
08084:  MOVLW  01
08086:  SUBWF  xC4,W
08088:  CLRF   03
0808A:  MOVWF  FE9
0808C:  MOVLW  05
0808E:  ADDWF  03,W
08090:  MOVWF  FEA
08092:  MOVLW  09
08094:  MOVWF  FEF
....................                    displayContrasena(Contrasena[i-1],i*20,30,1);} 
08096:  MOVLW  01
08098:  SUBWF  xC4,W
0809A:  CLRF   03
0809C:  MOVWF  FE9
0809E:  MOVLW  05
080A0:  ADDWF  03,W
080A2:  MOVWF  FEA
080A4:  MOVFF  FEF,5D4
080A8:  MOVF   xC4,W
080AA:  MULLW  14
080AC:  MOVFF  FF3,5D5
080B0:  MOVFF  5D4,5DE
080B4:  MOVFF  5D5,5DF
080B8:  MOVLW  1E
080BA:  MOVWF  xE0
080BC:  MOVLW  01
080BE:  MOVWF  xE1
080C0:  MOVLB  0
080C2:  CALL   4BE6
....................                   else 
080C6:  BRA    80F8
....................                   {displayContrasena(Contrasena[i-1],i*20,30,0);} 
080C8:  MOVLW  01
080CA:  MOVLB  5
080CC:  SUBWF  xC4,W
080CE:  CLRF   03
080D0:  MOVWF  FE9
080D2:  MOVLW  05
080D4:  ADDWF  03,W
080D6:  MOVWF  FEA
080D8:  MOVFF  FEF,5D4
080DC:  MOVF   xC4,W
080DE:  MULLW  14
080E0:  MOVFF  FF3,5D5
080E4:  MOVFF  5D4,5DE
080E8:  MOVFF  5D5,5DF
080EC:  MOVLW  1E
080EE:  MOVWF  xE0
080F0:  CLRF   xE1
080F2:  MOVLB  0
080F4:  CALL   4BE6
....................                }       
080F8:  MOVLB  5
080FA:  INCF   xC4,F
080FC:  BRA    8050
080FE:  MOVLB  4
....................             }      
....................       } 
....................          else 
08100:  BRA    8104
....................             {Flanco2 = 0;}   
08102:  BCF    x2C.2
....................              
....................       if(RIGHT)//Si oprime SET 
08104:  BSF    F96.1
08106:  BTFSC  F84.1
08108:  BRA    81A2
....................       {  if(Flanco1 == 0)  
0810A:  BTFSC  x2C.1
0810C:  BRA    81A0
....................             {Flanco1 = 1;delay_ms(30);unidad++; 
0810E:  BSF    x2C.1
08110:  MOVLW  1E
08112:  MOVLB  5
08114:  MOVWF  xDD
08116:  MOVLB  0
08118:  CALL   1492
0811C:  MOVLB  4
0811E:  INCF   xC9,F
....................                for(i=1;i<=4;i++) 
08120:  MOVLW  01
08122:  MOVLB  5
08124:  MOVWF  xC4
08126:  MOVF   xC4,W
08128:  SUBLW  04
0812A:  BNC   819E
....................                { 
....................                   if(unidad==i) 
0812C:  MOVF   xC4,W
0812E:  MOVLB  4
08130:  SUBWF  xC9,W
08132:  BNZ   8168
....................                   {displayContrasena(Contrasena[i-1],i*20,30,1);} 
08134:  MOVLW  01
08136:  MOVLB  5
08138:  SUBWF  xC4,W
0813A:  CLRF   03
0813C:  MOVWF  FE9
0813E:  MOVLW  05
08140:  ADDWF  03,W
08142:  MOVWF  FEA
08144:  MOVFF  FEF,5D4
08148:  MOVF   xC4,W
0814A:  MULLW  14
0814C:  MOVFF  FF3,5D5
08150:  MOVFF  5D4,5DE
08154:  MOVFF  5D5,5DF
08158:  MOVLW  1E
0815A:  MOVWF  xE0
0815C:  MOVLW  01
0815E:  MOVWF  xE1
08160:  MOVLB  0
08162:  CALL   4BE6
....................                   else 
08166:  BRA    8198
....................                   {displayContrasena(Contrasena[i-1],i*20,30,0);} 
08168:  MOVLW  01
0816A:  MOVLB  5
0816C:  SUBWF  xC4,W
0816E:  CLRF   03
08170:  MOVWF  FE9
08172:  MOVLW  05
08174:  ADDWF  03,W
08176:  MOVWF  FEA
08178:  MOVFF  FEF,5D4
0817C:  MOVF   xC4,W
0817E:  MULLW  14
08180:  MOVFF  FF3,5D5
08184:  MOVFF  5D4,5DE
08188:  MOVFF  5D5,5DF
0818C:  MOVLW  1E
0818E:  MOVWF  xE0
08190:  CLRF   xE1
08192:  MOVLB  0
08194:  CALL   4BE6
....................                } 
08198:  MOVLB  5
0819A:  INCF   xC4,F
0819C:  BRA    8126
0819E:  MOVLB  4
....................             } 
....................       } 
....................          else 
081A0:  BRA    81A4
....................             {Flanco1 = 0;}   
081A2:  BCF    x2C.1
....................              
....................       if(LEFT)//Si oprime boton de Toma. 
081A4:  BSF    F96.2
081A6:  BTFSC  F84.2
081A8:  BRA    81E8
....................       { 
....................          
....................          delay_ms(700); 
081AA:  MOVLW  04
081AC:  MOVLB  5
081AE:  MOVWF  xD4
081B0:  MOVLW  AF
081B2:  MOVWF  xDD
081B4:  MOVLB  0
081B6:  CALL   1492
081BA:  MOVLB  5
081BC:  DECFSZ xD4,F
081BE:  BRA    81B0
....................          if(unidad==1){ 
081C0:  MOVLB  4
081C2:  DECFSZ xC9,W
081C4:  BRA    81E8
....................             Menu=3;glcd_fillscreen(OFF);Opcion=1;unidad=1;Contrasena[0]=0;Contrasena[1]=0;Contrasena[2]=0;Contrasena[3]=0; 
081C6:  MOVLW  03
081C8:  MOVWF  xC8
081CA:  MOVLB  5
081CC:  CLRF   xDC
081CE:  MOVLB  0
081D0:  CALL   1572
081D4:  MOVLW  01
081D6:  MOVLB  4
081D8:  MOVWF  xCA
081DA:  MOVWF  xC9
081DC:  MOVLB  5
081DE:  CLRF   x00
081E0:  CLRF   x01
081E2:  CLRF   x02
081E4:  CLRF   x03
081E6:  MOVLB  4
....................          } 
....................       } 
....................        
....................       if(unidad>4) 
081E8:  MOVF   xC9,W
081EA:  SUBLW  04
081EC:  BTFSC  FD8.0
081EE:  BRA    833C
....................       { 
....................          Opcion=1;glcd_fillscreen(OFF);unidad=1;n=0; 
081F0:  MOVLW  01
081F2:  MOVWF  xCA
081F4:  MOVLB  5
081F6:  CLRF   xDC
081F8:  MOVLB  0
081FA:  CALL   1572
081FE:  MOVLW  01
08200:  MOVLB  4
08202:  MOVWF  xC9
08204:  BCF    x2F.0
....................          Password[0]=Contrasena[0];Password[1]=Contrasena[1];Password[2]=Contrasena[2];Password[3]=Contrasena[3]; 
08206:  MOVFF  500,504
0820A:  MOVFF  501,505
0820E:  MOVFF  502,506
08212:  MOVFF  503,507
....................          write_eeprom(0,Password[0]); 
08216:  CLRF   FAA
08218:  CLRF   FA9
0821A:  MOVFF  504,FA8
0821E:  BCF    FA6.6
08220:  BCF    FA6.7
08222:  BSF    FA6.2
08224:  MOVF   FF2,W
08226:  MOVWF  00
08228:  BCF    FF2.7
0822A:  MOVLB  F
0822C:  MOVLW  55
0822E:  MOVWF  FA7
08230:  MOVLW  AA
08232:  MOVWF  FA7
08234:  BSF    FA6.1
08236:  BTFSC  FA6.1
08238:  BRA    8236
0823A:  BCF    FA6.2
0823C:  MOVF   00,W
0823E:  IORWF  FF2,F
....................          delay_ms(20); 
08240:  MOVLW  14
08242:  MOVLB  5
08244:  MOVWF  xDD
08246:  MOVLB  0
08248:  CALL   1492
....................          write_eeprom(1,Password[1]); 
0824C:  CLRF   FAA
0824E:  MOVLW  01
08250:  MOVWF  FA9
08252:  MOVFF  505,FA8
08256:  BCF    FA6.6
08258:  BCF    FA6.7
0825A:  BSF    FA6.2
0825C:  MOVF   FF2,W
0825E:  MOVWF  00
08260:  BCF    FF2.7
08262:  MOVLB  F
08264:  MOVLW  55
08266:  MOVWF  FA7
08268:  MOVLW  AA
0826A:  MOVWF  FA7
0826C:  BSF    FA6.1
0826E:  BTFSC  FA6.1
08270:  BRA    826E
08272:  BCF    FA6.2
08274:  MOVF   00,W
08276:  IORWF  FF2,F
....................          delay_ms(20); 
08278:  MOVLW  14
0827A:  MOVLB  5
0827C:  MOVWF  xDD
0827E:  MOVLB  0
08280:  CALL   1492
....................          write_eeprom(2,Password[2]); 
08284:  CLRF   FAA
08286:  MOVLW  02
08288:  MOVWF  FA9
0828A:  MOVFF  506,FA8
0828E:  BCF    FA6.6
08290:  BCF    FA6.7
08292:  BSF    FA6.2
08294:  MOVF   FF2,W
08296:  MOVWF  00
08298:  BCF    FF2.7
0829A:  MOVLB  F
0829C:  MOVLW  55
0829E:  MOVWF  FA7
082A0:  MOVLW  AA
082A2:  MOVWF  FA7
082A4:  BSF    FA6.1
082A6:  BTFSC  FA6.1
082A8:  BRA    82A6
082AA:  BCF    FA6.2
082AC:  MOVF   00,W
082AE:  IORWF  FF2,F
....................          delay_ms(20); 
082B0:  MOVLW  14
082B2:  MOVLB  5
082B4:  MOVWF  xDD
082B6:  MOVLB  0
082B8:  CALL   1492
....................          write_eeprom(3,Password[3]); 
082BC:  CLRF   FAA
082BE:  MOVLW  03
082C0:  MOVWF  FA9
082C2:  MOVFF  507,FA8
082C6:  BCF    FA6.6
082C8:  BCF    FA6.7
082CA:  BSF    FA6.2
082CC:  MOVF   FF2,W
082CE:  MOVWF  00
082D0:  BCF    FF2.7
082D2:  MOVLB  F
082D4:  MOVLW  55
082D6:  MOVWF  FA7
082D8:  MOVLW  AA
082DA:  MOVWF  FA7
082DC:  BSF    FA6.1
082DE:  BTFSC  FA6.1
082E0:  BRA    82DE
082E2:  BCF    FA6.2
082E4:  MOVF   00,W
082E6:  IORWF  FF2,F
....................          delay_ms(20); 
082E8:  MOVLW  14
082EA:  MOVLB  5
082EC:  MOVWF  xDD
082EE:  MOVLB  0
082F0:  CALL   1492
....................          glcd_imagen(1);glcd_update();Menu=211;delay_ms(1000);glcd_fillScreen(OFF);Menu=3; 
082F4:  MOVLW  01
082F6:  MOVLB  5
082F8:  MOVWF  xD4
082FA:  MOVLB  0
082FC:  CALL   5586
08300:  CALL   15CC
08304:  MOVLW  D3
08306:  MOVLB  4
08308:  MOVWF  xC8
0830A:  MOVLW  04
0830C:  MOVLB  5
0830E:  MOVWF  xD4
08310:  MOVLW  FA
08312:  MOVWF  xDD
08314:  MOVLB  0
08316:  CALL   1492
0831A:  MOVLB  5
0831C:  DECFSZ xD4,F
0831E:  BRA    8310
08320:  CLRF   xDC
08322:  MOVLB  0
08324:  CALL   1572
08328:  MOVLW  03
0832A:  MOVLB  4
0832C:  MOVWF  xC8
....................          n=0; 
0832E:  BCF    x2F.0
....................          Contrasena[0]=0;Contrasena[1]=0;Contrasena[2]=0;Contrasena[3]=0; 
08330:  MOVLB  5
08332:  CLRF   x00
08334:  CLRF   x01
08336:  CLRF   x02
08338:  CLRF   x03
0833A:  MOVLB  4
....................       } 
....................      
....................     } 
.................... //_--------------------------------------------------------------------------------------------------------------------------------------------------------        
....................  
.................... //_-------------------------------------------------------------------------------------------------------------------------------------------------------- 
....................       if(Menu==31){ //Menu de Mantenimiento. 
0833C:  MOVF   xC8,W
0833E:  SUBLW  1F
08340:  BTFSS  FD8.2
08342:  BRA    869E
....................        
....................          strcpy(Menus.Letra,"Manteniento"); 
08344:  MOVLW  04
08346:  MOVWF  FEA
08348:  MOVLW  16
0834A:  MOVWF  FE9
0834C:  MOVFF  FF2,5D4
08350:  BCF    FF2.7
08352:  MOVLW  00
08354:  MOVLB  0
08356:  CALL   1182
0835A:  TBLRD*-
0835C:  TBLRD*+
0835E:  MOVF   FF5,W
08360:  MOVWF  FEE
08362:  IORLW  00
08364:  BNZ   835C
08366:  MOVLB  5
08368:  BTFSC  xD4.7
0836A:  BSF    FF2.7
....................          displayMenu(Menus.Letra,0,0,1,2); 
0836C:  MOVLW  04
0836E:  MOVWF  xDD
08370:  MOVLW  16
08372:  MOVWF  xDC
08374:  CLRF   xDE
08376:  CLRF   xDF
08378:  MOVLW  01
0837A:  MOVWF  xE0
0837C:  MOVLW  02
0837E:  MOVWF  xE1
08380:  MOVLB  0
08382:  CALL   4C9E
....................           
....................          strcpy(Menus.Letra,"Trabajo Filtro(h):"); 
08386:  MOVLW  04
08388:  MOVWF  FEA
0838A:  MOVLW  16
0838C:  MOVWF  FE9
0838E:  MOVFF  FF2,5D4
08392:  BCF    FF2.7
08394:  MOVLW  00
08396:  CALL   11A8
0839A:  TBLRD*-
0839C:  TBLRD*+
0839E:  MOVF   FF5,W
083A0:  MOVWF  FEE
083A2:  IORLW  00
083A4:  BNZ   839C
083A6:  MOVLB  5
083A8:  BTFSC  xD4.7
083AA:  BSF    FF2.7
....................          displayMenu(Menus.Letra,10,20,1,1); 
083AC:  MOVLW  04
083AE:  MOVWF  xDD
083B0:  MOVLW  16
083B2:  MOVWF  xDC
083B4:  MOVLW  0A
083B6:  MOVWF  xDE
083B8:  MOVLW  14
083BA:  MOVWF  xDF
083BC:  MOVLW  01
083BE:  MOVWF  xE0
083C0:  MOVWF  xE1
083C2:  MOVLB  0
083C4:  CALL   4C9E
....................          glcd_text57(0, 31, Vida_Filtro, 1, ON); 
083C8:  MOVLB  5
083CA:  CLRF   xED
083CC:  MOVLW  1F
083CE:  MOVWF  xEE
083D0:  MOVLW  04
083D2:  MOVWF  xF0
083D4:  MOVLW  9D
083D6:  MOVWF  xEF
083D8:  MOVLW  01
083DA:  MOVWF  xF1
083DC:  MOVWF  xF2
083DE:  MOVLB  0
083E0:  CALL   4A24
....................          displayTiempo(Ttrabajo[3],60,30,0,1);displayTiempo(Ttrabajo[2],67,30,0,1);displayTiempo(Ttrabajo[1],74,30,0,1);displayTiempo(Ttrabajo[0],82,30,0,1); 
083E4:  MOVFF  4FF,5D4
083E8:  MOVLW  3C
083EA:  MOVLB  5
083EC:  MOVWF  xD5
083EE:  MOVLW  1E
083F0:  MOVWF  xD6
083F2:  CLRF   xD7
083F4:  MOVLW  01
083F6:  MOVWF  xD8
083F8:  MOVLB  0
083FA:  CALL   5430
083FE:  MOVFF  4FE,5D4
08402:  MOVLW  43
08404:  MOVLB  5
08406:  MOVWF  xD5
08408:  MOVLW  1E
0840A:  MOVWF  xD6
0840C:  CLRF   xD7
0840E:  MOVLW  01
08410:  MOVWF  xD8
08412:  MOVLB  0
08414:  CALL   5430
08418:  MOVFF  4FD,5D4
0841C:  MOVLW  4A
0841E:  MOVLB  5
08420:  MOVWF  xD5
08422:  MOVLW  1E
08424:  MOVWF  xD6
08426:  CLRF   xD7
08428:  MOVLW  01
0842A:  MOVWF  xD8
0842C:  MOVLB  0
0842E:  CALL   5430
08432:  MOVFF  4FC,5D4
08436:  MOVLW  52
08438:  MOVLB  5
0843A:  MOVWF  xD5
0843C:  MOVLW  1E
0843E:  MOVWF  xD6
08440:  CLRF   xD7
08442:  MOVLW  01
08444:  MOVWF  xD8
08446:  MOVLB  0
08448:  CALL   5430
....................           
....................          LuzBlanca_on; 
0844C:  BCF    F8B.1
0844E:  BCF    F94.1
....................           
....................             if(UP && RIGHT) // Reinicia Tiempo de Luz UV 
08450:  BSF    F92.5
08452:  BTFSC  F80.5
08454:  BRA    8566
08456:  BSF    F96.1
08458:  BTFSC  F84.1
0845A:  BRA    8566
....................             { 
....................                   delay_ms(2000); 
0845C:  MOVLW  08
0845E:  MOVLB  5
08460:  MOVWF  xD4
08462:  MOVLW  FA
08464:  MOVWF  xDD
08466:  MOVLB  0
08468:  CALL   1492
0846C:  MOVLB  5
0846E:  DECFSZ xD4,F
08470:  BRA    8462
....................                   write_eeprom(12,0); 
08472:  CLRF   FAA
08474:  MOVLW  0C
08476:  MOVWF  FA9
08478:  CLRF   FA8
0847A:  BCF    FA6.6
0847C:  BCF    FA6.7
0847E:  BSF    FA6.2
08480:  MOVF   FF2,W
08482:  MOVWF  00
08484:  BCF    FF2.7
08486:  MOVLB  F
08488:  MOVLW  55
0848A:  MOVWF  FA7
0848C:  MOVLW  AA
0848E:  MOVWF  FA7
08490:  BSF    FA6.1
08492:  BTFSC  FA6.1
08494:  BRA    8492
08496:  BCF    FA6.2
08498:  MOVF   00,W
0849A:  IORWF  FF2,F
....................                   delay_ms(20); 
0849C:  MOVLW  14
0849E:  MOVLB  5
084A0:  MOVWF  xDD
084A2:  MOVLB  0
084A4:  CALL   1492
....................                   write_eeprom(13,0); 
084A8:  CLRF   FAA
084AA:  MOVLW  0D
084AC:  MOVWF  FA9
084AE:  CLRF   FA8
084B0:  BCF    FA6.6
084B2:  BCF    FA6.7
084B4:  BSF    FA6.2
084B6:  MOVF   FF2,W
084B8:  MOVWF  00
084BA:  BCF    FF2.7
084BC:  MOVLB  F
084BE:  MOVLW  55
084C0:  MOVWF  FA7
084C2:  MOVLW  AA
084C4:  MOVWF  FA7
084C6:  BSF    FA6.1
084C8:  BTFSC  FA6.1
084CA:  BRA    84C8
084CC:  BCF    FA6.2
084CE:  MOVF   00,W
084D0:  IORWF  FF2,F
....................                   delay_ms(20); 
084D2:  MOVLW  14
084D4:  MOVLB  5
084D6:  MOVWF  xDD
084D8:  MOVLB  0
084DA:  CALL   1492
....................                   write_eeprom(14,0); 
084DE:  CLRF   FAA
084E0:  MOVLW  0E
084E2:  MOVWF  FA9
084E4:  CLRF   FA8
084E6:  BCF    FA6.6
084E8:  BCF    FA6.7
084EA:  BSF    FA6.2
084EC:  MOVF   FF2,W
084EE:  MOVWF  00
084F0:  BCF    FF2.7
084F2:  MOVLB  F
084F4:  MOVLW  55
084F6:  MOVWF  FA7
084F8:  MOVLW  AA
084FA:  MOVWF  FA7
084FC:  BSF    FA6.1
084FE:  BTFSC  FA6.1
08500:  BRA    84FE
08502:  BCF    FA6.2
08504:  MOVF   00,W
08506:  IORWF  FF2,F
....................                   delay_ms(20); 
08508:  MOVLW  14
0850A:  MOVLB  5
0850C:  MOVWF  xDD
0850E:  MOVLB  0
08510:  CALL   1492
....................                   write_eeprom(15,0); 
08514:  CLRF   FAA
08516:  MOVLW  0F
08518:  MOVWF  FA9
0851A:  CLRF   FA8
0851C:  BCF    FA6.6
0851E:  BCF    FA6.7
08520:  BSF    FA6.2
08522:  MOVF   FF2,W
08524:  MOVWF  00
08526:  BCF    FF2.7
08528:  MOVLB  F
0852A:  MOVLW  55
0852C:  MOVWF  FA7
0852E:  MOVLW  AA
08530:  MOVWF  FA7
08532:  BSF    FA6.1
08534:  BTFSC  FA6.1
08536:  BRA    8534
08538:  BCF    FA6.2
0853A:  MOVF   00,W
0853C:  IORWF  FF2,F
....................                   delay_ms(20); 
0853E:  MOVLW  14
08540:  MOVLB  5
08542:  MOVWF  xDD
08544:  MOVLB  0
08546:  CALL   1492
....................                   Tuv[3]=0;Tuv[2]=0;Tuv[1]=0;Tuv[0]=0; 
0854A:  MOVLB  4
0854C:  CLRF   xF7
0854E:  CLRF   xF6
08550:  CLRF   xF5
08552:  CLRF   xF4
....................                   Menu=3;glcd_fillscreen(OFF);LuzBlanca_off; 
08554:  MOVLW  03
08556:  MOVWF  xC8
08558:  MOVLB  5
0855A:  CLRF   xDC
0855C:  MOVLB  0
0855E:  CALL   1572
08562:  BSF    F8B.1
08564:  BCF    F94.1
....................                 
....................             } 
....................             if(DOWN && RIGHT) // Reinicia Tiempo de Trabajo 
08566:  BSF    F96.0
08568:  BTFSC  F84.0
0856A:  BRA    867C
0856C:  BSF    F96.1
0856E:  BTFSC  F84.1
08570:  BRA    867C
....................             { 
....................                   delay_ms(2000); 
08572:  MOVLW  08
08574:  MOVLB  5
08576:  MOVWF  xD4
08578:  MOVLW  FA
0857A:  MOVWF  xDD
0857C:  MOVLB  0
0857E:  CALL   1492
08582:  MOVLB  5
08584:  DECFSZ xD4,F
08586:  BRA    8578
....................                   write_eeprom(16,0); 
08588:  CLRF   FAA
0858A:  MOVLW  10
0858C:  MOVWF  FA9
0858E:  CLRF   FA8
08590:  BCF    FA6.6
08592:  BCF    FA6.7
08594:  BSF    FA6.2
08596:  MOVF   FF2,W
08598:  MOVWF  00
0859A:  BCF    FF2.7
0859C:  MOVLB  F
0859E:  MOVLW  55
085A0:  MOVWF  FA7
085A2:  MOVLW  AA
085A4:  MOVWF  FA7
085A6:  BSF    FA6.1
085A8:  BTFSC  FA6.1
085AA:  BRA    85A8
085AC:  BCF    FA6.2
085AE:  MOVF   00,W
085B0:  IORWF  FF2,F
....................                   delay_ms(20); 
085B2:  MOVLW  14
085B4:  MOVLB  5
085B6:  MOVWF  xDD
085B8:  MOVLB  0
085BA:  CALL   1492
....................                   write_eeprom(17,0); 
085BE:  CLRF   FAA
085C0:  MOVLW  11
085C2:  MOVWF  FA9
085C4:  CLRF   FA8
085C6:  BCF    FA6.6
085C8:  BCF    FA6.7
085CA:  BSF    FA6.2
085CC:  MOVF   FF2,W
085CE:  MOVWF  00
085D0:  BCF    FF2.7
085D2:  MOVLB  F
085D4:  MOVLW  55
085D6:  MOVWF  FA7
085D8:  MOVLW  AA
085DA:  MOVWF  FA7
085DC:  BSF    FA6.1
085DE:  BTFSC  FA6.1
085E0:  BRA    85DE
085E2:  BCF    FA6.2
085E4:  MOVF   00,W
085E6:  IORWF  FF2,F
....................                   delay_ms(20); 
085E8:  MOVLW  14
085EA:  MOVLB  5
085EC:  MOVWF  xDD
085EE:  MOVLB  0
085F0:  CALL   1492
....................                   write_eeprom(18,0); 
085F4:  CLRF   FAA
085F6:  MOVLW  12
085F8:  MOVWF  FA9
085FA:  CLRF   FA8
085FC:  BCF    FA6.6
085FE:  BCF    FA6.7
08600:  BSF    FA6.2
08602:  MOVF   FF2,W
08604:  MOVWF  00
08606:  BCF    FF2.7
08608:  MOVLB  F
0860A:  MOVLW  55
0860C:  MOVWF  FA7
0860E:  MOVLW  AA
08610:  MOVWF  FA7
08612:  BSF    FA6.1
08614:  BTFSC  FA6.1
08616:  BRA    8614
08618:  BCF    FA6.2
0861A:  MOVF   00,W
0861C:  IORWF  FF2,F
....................                   delay_ms(20); 
0861E:  MOVLW  14
08620:  MOVLB  5
08622:  MOVWF  xDD
08624:  MOVLB  0
08626:  CALL   1492
....................                   write_eeprom(19,0); 
0862A:  CLRF   FAA
0862C:  MOVLW  13
0862E:  MOVWF  FA9
08630:  CLRF   FA8
08632:  BCF    FA6.6
08634:  BCF    FA6.7
08636:  BSF    FA6.2
08638:  MOVF   FF2,W
0863A:  MOVWF  00
0863C:  BCF    FF2.7
0863E:  MOVLB  F
08640:  MOVLW  55
08642:  MOVWF  FA7
08644:  MOVLW  AA
08646:  MOVWF  FA7
08648:  BSF    FA6.1
0864A:  BTFSC  FA6.1
0864C:  BRA    864A
0864E:  BCF    FA6.2
08650:  MOVF   00,W
08652:  IORWF  FF2,F
....................                   delay_ms(20); 
08654:  MOVLW  14
08656:  MOVLB  5
08658:  MOVWF  xDD
0865A:  MOVLB  0
0865C:  CALL   1492
....................                   Ttrabajo[3]=0;Ttrabajo[2]=0;Ttrabajo[1]=0;Ttrabajo[0]=0; 
08660:  MOVLB  4
08662:  CLRF   xFF
08664:  CLRF   xFE
08666:  CLRF   xFD
08668:  CLRF   xFC
....................                   Menu=3;glcd_fillscreen(OFF);LuzBlanca_off; 
0866A:  MOVLW  03
0866C:  MOVWF  xC8
0866E:  MOVLB  5
08670:  CLRF   xDC
08672:  MOVLB  0
08674:  CALL   1572
08678:  BSF    F8B.1
0867A:  BCF    F94.1
....................             } 
....................              
....................             if(LEFT) 
0867C:  BSF    F96.2
0867E:  BTFSC  F84.2
08680:  BRA    86A0
....................             { 
....................                Menu=6;glcd_fillscreen(OFF);LuzBlanca_off;Opcion=1;unidad=1; 
08682:  MOVLW  06
08684:  MOVLB  4
08686:  MOVWF  xC8
08688:  MOVLB  5
0868A:  CLRF   xDC
0868C:  MOVLB  0
0868E:  CALL   1572
08692:  BSF    F8B.1
08694:  BCF    F94.1
08696:  MOVLW  01
08698:  MOVLB  4
0869A:  MOVWF  xCA
0869C:  MOVWF  xC9
0869E:  MOVLB  0
....................             } 
....................     } 
.................... //_--------------------------------------------------------------------------------------------------------------------------------------------------------        
....................  
.................... //_-------------------------------------------------------------------------------------------------------------------------------------------------------- 
....................       if(Menu==32){ //Menu de Servicio 
086A0:  MOVLB  4
086A2:  MOVF   xC8,W
086A4:  SUBLW  20
086A6:  BTFSS  FD8.2
086A8:  BRA    89C0
....................        
....................       strcpy(Menus.Letra,"Servicio"); 
086AA:  MOVLW  04
086AC:  MOVWF  FEA
086AE:  MOVLW  16
086B0:  MOVWF  FE9
086B2:  MOVFF  FF2,5D4
086B6:  BCF    FF2.7
086B8:  MOVLW  00
086BA:  MOVLB  0
086BC:  CALL   10AA
086C0:  TBLRD*-
086C2:  TBLRD*+
086C4:  MOVF   FF5,W
086C6:  MOVWF  FEE
086C8:  IORLW  00
086CA:  BNZ   86C2
086CC:  MOVLB  5
086CE:  BTFSC  xD4.7
086D0:  BSF    FF2.7
....................       displayMenu(Menus.Letra,10,0,1,2); 
086D2:  MOVLW  04
086D4:  MOVWF  xDD
086D6:  MOVLW  16
086D8:  MOVWF  xDC
086DA:  MOVLW  0A
086DC:  MOVWF  xDE
086DE:  CLRF   xDF
086E0:  MOVLW  01
086E2:  MOVWF  xE0
086E4:  MOVLW  02
086E6:  MOVWF  xE1
086E8:  MOVLB  0
086EA:  CALL   4C9E
....................        
....................       if(Opcion==1)    
086EE:  MOVLB  4
086F0:  DECFSZ xCA,W
086F2:  BRA    873A
....................          {strcpy(Menus.Letra,"Sensor de Flujo"); 
086F4:  MOVLW  04
086F6:  MOVWF  FEA
086F8:  MOVLW  16
086FA:  MOVWF  FE9
086FC:  MOVFF  FF2,5D4
08700:  BCF    FF2.7
08702:  MOVLW  00
08704:  MOVLB  0
08706:  CALL   11D6
0870A:  TBLRD*-
0870C:  TBLRD*+
0870E:  MOVF   FF5,W
08710:  MOVWF  FEE
08712:  IORLW  00
08714:  BNZ   870C
08716:  MOVLB  5
08718:  BTFSC  xD4.7
0871A:  BSF    FF2.7
....................          displayMenu(Menus.Letra,0,18,1,1);} 
0871C:  MOVLW  04
0871E:  MOVWF  xDD
08720:  MOVLW  16
08722:  MOVWF  xDC
08724:  CLRF   xDE
08726:  MOVLW  12
08728:  MOVWF  xDF
0872A:  MOVLW  01
0872C:  MOVWF  xE0
0872E:  MOVWF  xE1
08730:  MOVLB  0
08732:  CALL   4C9E
....................       else 
08736:  BRA    877C
08738:  MOVLB  4
....................          {strcpy(Menus.Letra,"Sensor de Flujo"); 
0873A:  MOVLW  04
0873C:  MOVWF  FEA
0873E:  MOVLW  16
08740:  MOVWF  FE9
08742:  MOVFF  FF2,5D4
08746:  BCF    FF2.7
08748:  MOVLW  00
0874A:  MOVLB  0
0874C:  CALL   11D6
08750:  TBLRD*-
08752:  TBLRD*+
08754:  MOVF   FF5,W
08756:  MOVWF  FEE
08758:  IORLW  00
0875A:  BNZ   8752
0875C:  MOVLB  5
0875E:  BTFSC  xD4.7
08760:  BSF    FF2.7
....................          displayMenu(Menus.Letra,0,18,0,1);}  
08762:  MOVLW  04
08764:  MOVWF  xDD
08766:  MOVLW  16
08768:  MOVWF  xDC
0876A:  CLRF   xDE
0876C:  MOVLW  12
0876E:  MOVWF  xDF
08770:  CLRF   xE0
08772:  MOVLW  01
08774:  MOVWF  xE1
08776:  MOVLB  0
08778:  CALL   4C9E
....................           
....................       if(Opcion==2)    
0877C:  MOVLB  4
0877E:  MOVF   xCA,W
08780:  SUBLW  02
08782:  BNZ   87CA
....................          {strcpy(Menus.Letra,"Sensor de Presion"); 
08784:  MOVLW  04
08786:  MOVWF  FEA
08788:  MOVLW  16
0878A:  MOVWF  FE9
0878C:  MOVFF  FF2,5D4
08790:  BCF    FF2.7
08792:  MOVLW  00
08794:  MOVLB  0
08796:  CALL   1200
0879A:  TBLRD*-
0879C:  TBLRD*+
0879E:  MOVF   FF5,W
087A0:  MOVWF  FEE
087A2:  IORLW  00
087A4:  BNZ   879C
087A6:  MOVLB  5
087A8:  BTFSC  xD4.7
087AA:  BSF    FF2.7
....................          displayMenu(Menus.Letra,0,29,1,1);} 
087AC:  MOVLW  04
087AE:  MOVWF  xDD
087B0:  MOVLW  16
087B2:  MOVWF  xDC
087B4:  CLRF   xDE
087B6:  MOVLW  1D
087B8:  MOVWF  xDF
087BA:  MOVLW  01
087BC:  MOVWF  xE0
087BE:  MOVWF  xE1
087C0:  MOVLB  0
087C2:  CALL   4C9E
....................       else 
087C6:  BRA    880C
087C8:  MOVLB  4
....................          {strcpy(Menus.Letra,"Sensor de Presion"); 
087CA:  MOVLW  04
087CC:  MOVWF  FEA
087CE:  MOVLW  16
087D0:  MOVWF  FE9
087D2:  MOVFF  FF2,5D4
087D6:  BCF    FF2.7
087D8:  MOVLW  00
087DA:  MOVLB  0
087DC:  CALL   1200
087E0:  TBLRD*-
087E2:  TBLRD*+
087E4:  MOVF   FF5,W
087E6:  MOVWF  FEE
087E8:  IORLW  00
087EA:  BNZ   87E2
087EC:  MOVLB  5
087EE:  BTFSC  xD4.7
087F0:  BSF    FF2.7
....................          displayMenu(Menus.Letra,0,29,0,1);}   
087F2:  MOVLW  04
087F4:  MOVWF  xDD
087F6:  MOVLW  16
087F8:  MOVWF  xDC
087FA:  CLRF   xDE
087FC:  MOVLW  1D
087FE:  MOVWF  xDF
08800:  CLRF   xE0
08802:  MOVLW  01
08804:  MOVWF  xE1
08806:  MOVLB  0
08808:  CALL   4C9E
....................        
....................       if(Opcion==3)    
0880C:  MOVLB  4
0880E:  MOVF   xCA,W
08810:  SUBLW  03
08812:  BNZ   885A
....................          {strcpy(Menus.Letra,"Velocidad Ventilador"); 
08814:  MOVLW  04
08816:  MOVWF  FEA
08818:  MOVLW  16
0881A:  MOVWF  FE9
0881C:  MOVFF  FF2,5D4
08820:  BCF    FF2.7
08822:  MOVLW  00
08824:  MOVLB  0
08826:  CALL   122C
0882A:  TBLRD*-
0882C:  TBLRD*+
0882E:  MOVF   FF5,W
08830:  MOVWF  FEE
08832:  IORLW  00
08834:  BNZ   882C
08836:  MOVLB  5
08838:  BTFSC  xD4.7
0883A:  BSF    FF2.7
....................          displayMenu(Menus.Letra,0,40,1,1);} 
0883C:  MOVLW  04
0883E:  MOVWF  xDD
08840:  MOVLW  16
08842:  MOVWF  xDC
08844:  CLRF   xDE
08846:  MOVLW  28
08848:  MOVWF  xDF
0884A:  MOVLW  01
0884C:  MOVWF  xE0
0884E:  MOVWF  xE1
08850:  MOVLB  0
08852:  CALL   4C9E
....................       else 
08856:  BRA    889C
08858:  MOVLB  4
....................          {strcpy(Menus.Letra,"Velocidad Ventilador"); 
0885A:  MOVLW  04
0885C:  MOVWF  FEA
0885E:  MOVLW  16
08860:  MOVWF  FE9
08862:  MOVFF  FF2,5D4
08866:  BCF    FF2.7
08868:  MOVLW  00
0886A:  MOVLB  0
0886C:  CALL   122C
08870:  TBLRD*-
08872:  TBLRD*+
08874:  MOVF   FF5,W
08876:  MOVWF  FEE
08878:  IORLW  00
0887A:  BNZ   8872
0887C:  MOVLB  5
0887E:  BTFSC  xD4.7
08880:  BSF    FF2.7
....................          displayMenu(Menus.Letra,0,40,0,1);}  
08882:  MOVLW  04
08884:  MOVWF  xDD
08886:  MOVLW  16
08888:  MOVWF  xDC
0888A:  CLRF   xDE
0888C:  MOVLW  28
0888E:  MOVWF  xDF
08890:  CLRF   xE0
08892:  MOVLW  01
08894:  MOVWF  xE1
08896:  MOVLB  0
08898:  CALL   4C9E
....................        
....................          
....................       if(UP)//Si oprime hacia arriba 
0889C:  BSF    F92.5
0889E:  BTFSC  F80.5
088A0:  BRA    88BC
....................       {  if(Flanco == 0)  
088A2:  MOVLB  4
088A4:  BTFSC  x2C.0
088A6:  BRA    88BA
....................             {Flanco = 1;delay_ms(30);Opcion--; 
088A8:  BSF    x2C.0
088AA:  MOVLW  1E
088AC:  MOVLB  5
088AE:  MOVWF  xDD
088B0:  MOVLB  0
088B2:  CALL   1492
088B6:  MOVLB  4
088B8:  DECF   xCA,F
....................             } 
....................       } 
....................          else 
088BA:  BRA    88C0
....................             {Flanco = 0;} 
088BC:  MOVLB  4
088BE:  BCF    x2C.0
....................              
....................       if(DOWN)//Si oprime hacia abajo 
088C0:  BSF    F96.0
088C2:  BTFSC  F84.0
088C4:  BRA    88DE
....................       {  if(Flanco2 == 0)  
088C6:  BTFSC  x2C.2
088C8:  BRA    88DC
....................             {Flanco2 = 1;delay_ms(30);Opcion++; 
088CA:  BSF    x2C.2
088CC:  MOVLW  1E
088CE:  MOVLB  5
088D0:  MOVWF  xDD
088D2:  MOVLB  0
088D4:  CALL   1492
088D8:  MOVLB  4
088DA:  INCF   xCA,F
....................             }      
....................       } 
....................          else 
088DC:  BRA    88E0
....................             {Flanco2 = 0;}   
088DE:  BCF    x2C.2
....................              
....................       if(RIGHT)//Si oprime SET 
088E0:  BSF    F96.1
088E2:  BTFSC  F84.1
088E4:  BRA    8976
....................       {   
....................          delay_ms(20); 
088E6:  MOVLW  14
088E8:  MOVLB  5
088EA:  MOVWF  xDD
088EC:  MOVLB  0
088EE:  CALL   1492
....................          if(RIGHT){ 
088F2:  BSF    F96.1
088F4:  BTFSC  F84.1
088F6:  BRA    8978
....................             delay_ms(100); 
088F8:  MOVLW  64
088FA:  MOVLB  5
088FC:  MOVWF  xDD
088FE:  MOVLB  0
08900:  CALL   1492
....................             glcd_fillScreen(OFF); 
08904:  MOVLB  5
08906:  CLRF   xDC
08908:  MOVLB  0
0890A:  CALL   1572
....................             while(!PidePassword(6,32,Opcion+40,4,4,4,4)){ 
0890E:  MOVLW  28
08910:  MOVLB  4
08912:  ADDWF  xCA,W
08914:  MOVLB  5
08916:  MOVWF  xD4
08918:  MOVLW  06
0891A:  MOVWF  xD5
0891C:  MOVLW  20
0891E:  MOVWF  xD6
08920:  MOVFF  5D4,5D7
08924:  MOVLW  04
08926:  MOVWF  xD8
08928:  MOVWF  xD9
0892A:  MOVWF  xDA
0892C:  MOVWF  xDB
0892E:  MOVLB  0
08930:  CALL   4D6A
08934:  MOVF   01,F
08936:  BNZ   8964
....................                PidePassword(6,32,Opcion+40,4,4,4,4);glcd_update(); 
08938:  MOVLW  28
0893A:  MOVLB  4
0893C:  ADDWF  xCA,W
0893E:  MOVLB  5
08940:  MOVWF  xD4
08942:  MOVLW  06
08944:  MOVWF  xD5
08946:  MOVLW  20
08948:  MOVWF  xD6
0894A:  MOVFF  5D4,5D7
0894E:  MOVLW  04
08950:  MOVWF  xD8
08952:  MOVWF  xD9
08954:  MOVWF  xDA
08956:  MOVWF  xDB
08958:  MOVLB  0
0895A:  CALL   4D6A
0895E:  CALL   15CC
....................             }             
08962:  BRA    890E
....................             glcd_fillScreen(OFF);Opcion=1;unidad=1; 
08964:  MOVLB  5
08966:  CLRF   xDC
08968:  MOVLB  0
0896A:  CALL   1572
0896E:  MOVLW  01
08970:  MOVLB  4
08972:  MOVWF  xCA
08974:  MOVWF  xC9
08976:  MOVLB  0
....................          } 
....................       } 
....................              
....................       if(LEFT)//Si oprime boton de Toma. 
08978:  BSF    F96.2
0897A:  BTFSC  F84.2
0897C:  BRA    89AC
....................         {delay_ms(700);Menu=6;glcd_fillscreen(OFF);Opcion=1;unidad=1;} 
0897E:  MOVLW  04
08980:  MOVLB  5
08982:  MOVWF  xD4
08984:  MOVLW  AF
08986:  MOVWF  xDD
08988:  MOVLB  0
0898A:  CALL   1492
0898E:  MOVLB  5
08990:  DECFSZ xD4,F
08992:  BRA    8984
08994:  MOVLW  06
08996:  MOVLB  4
08998:  MOVWF  xC8
0899A:  MOVLB  5
0899C:  CLRF   xDC
0899E:  MOVLB  0
089A0:  CALL   1572
089A4:  MOVLW  01
089A6:  MOVLB  4
089A8:  MOVWF  xCA
089AA:  MOVWF  xC9
....................          
....................       if(Opcion>3) 
089AC:  MOVLB  4
089AE:  MOVF   xCA,W
089B0:  SUBLW  03
089B2:  BC    89B8
....................       {Opcion=1;} 
089B4:  MOVLW  01
089B6:  MOVWF  xCA
....................       if(Opcion<1) 
089B8:  MOVF   xCA,F
089BA:  BNZ   89C0
....................       {Opcion=3;} 
089BC:  MOVLW  03
089BE:  MOVWF  xCA
....................     } 
.................... //_--------------------------------------------------------------------------------------------------------------------------------------------------------        
....................  
.................... //_-------------------------------------------------------------------------------------------------------------------------------------------------------- 
....................       if(Menu==33){ //Menu de Apagado de Cabina. 
089C0:  MOVF   xC8,W
089C2:  SUBLW  21
089C4:  BTFSS  FD8.2
089C6:  BRA    8D32
....................        
....................       strcpy(Menus.Letra,"  Apagar?"); 
089C8:  MOVLW  04
089CA:  MOVWF  FEA
089CC:  MOVLW  16
089CE:  MOVWF  FE9
089D0:  MOVFF  FF2,5D4
089D4:  BCF    FF2.7
089D6:  MOVLW  00
089D8:  MOVLB  0
089DA:  CALL   125C
089DE:  TBLRD*-
089E0:  TBLRD*+
089E2:  MOVF   FF5,W
089E4:  MOVWF  FEE
089E6:  IORLW  00
089E8:  BNZ   89E0
089EA:  MOVLB  5
089EC:  BTFSC  xD4.7
089EE:  BSF    FF2.7
....................       displayMenu(Menus.Letra,10,0,1,2); 
089F0:  MOVLW  04
089F2:  MOVWF  xDD
089F4:  MOVLW  16
089F6:  MOVWF  xDC
089F8:  MOVLW  0A
089FA:  MOVWF  xDE
089FC:  CLRF   xDF
089FE:  MOVLW  01
08A00:  MOVWF  xE0
08A02:  MOVLW  02
08A04:  MOVWF  xE1
08A06:  MOVLB  0
08A08:  CALL   4C9E
....................        
....................       if(unidad==1) 
08A0C:  MOVLB  4
08A0E:  DECFSZ xC9,W
08A10:  BRA    8A9E
....................       {strcpy(Menus.Letra,"SI"); 
08A12:  MOVLW  04
08A14:  MOVWF  FEA
08A16:  MOVLW  16
08A18:  MOVWF  FE9
08A1A:  MOVFF  FF2,5D4
08A1E:  BCF    FF2.7
08A20:  MOVLW  00
08A22:  MOVLB  0
08A24:  CALL   1280
08A28:  TBLRD*-
08A2A:  TBLRD*+
08A2C:  MOVF   FF5,W
08A2E:  MOVWF  FEE
08A30:  IORLW  00
08A32:  BNZ   8A2A
08A34:  MOVLB  5
08A36:  BTFSC  xD4.7
08A38:  BSF    FF2.7
....................       displayMenu(Menus.Letra,50,25,1,2); 
08A3A:  MOVLW  04
08A3C:  MOVWF  xDD
08A3E:  MOVLW  16
08A40:  MOVWF  xDC
08A42:  MOVLW  32
08A44:  MOVWF  xDE
08A46:  MOVLW  19
08A48:  MOVWF  xDF
08A4A:  MOVLW  01
08A4C:  MOVWF  xE0
08A4E:  MOVLW  02
08A50:  MOVWF  xE1
08A52:  MOVLB  0
08A54:  CALL   4C9E
....................       strcpy(Menus.Letra,"NO"); 
08A58:  MOVLW  04
08A5A:  MOVWF  FEA
08A5C:  MOVLW  16
08A5E:  MOVWF  FE9
08A60:  MOVFF  FF2,5D4
08A64:  BCF    FF2.7
08A66:  MOVLW  00
08A68:  CALL   129E
08A6C:  TBLRD*-
08A6E:  TBLRD*+
08A70:  MOVF   FF5,W
08A72:  MOVWF  FEE
08A74:  IORLW  00
08A76:  BNZ   8A6E
08A78:  MOVLB  5
08A7A:  BTFSC  xD4.7
08A7C:  BSF    FF2.7
....................       displayMenu(Menus.Letra,50,45,0,2);} 
08A7E:  MOVLW  04
08A80:  MOVWF  xDD
08A82:  MOVLW  16
08A84:  MOVWF  xDC
08A86:  MOVLW  32
08A88:  MOVWF  xDE
08A8A:  MOVLW  2D
08A8C:  MOVWF  xDF
08A8E:  CLRF   xE0
08A90:  MOVLW  02
08A92:  MOVWF  xE1
08A94:  MOVLB  0
08A96:  CALL   4C9E
....................       else 
08A9A:  BRA    8B26
08A9C:  MOVLB  4
....................       {strcpy(Menus.Letra,"SI"); 
08A9E:  MOVLW  04
08AA0:  MOVWF  FEA
08AA2:  MOVLW  16
08AA4:  MOVWF  FE9
08AA6:  MOVFF  FF2,5D4
08AAA:  BCF    FF2.7
08AAC:  MOVLW  00
08AAE:  MOVLB  0
08AB0:  CALL   1280
08AB4:  TBLRD*-
08AB6:  TBLRD*+
08AB8:  MOVF   FF5,W
08ABA:  MOVWF  FEE
08ABC:  IORLW  00
08ABE:  BNZ   8AB6
08AC0:  MOVLB  5
08AC2:  BTFSC  xD4.7
08AC4:  BSF    FF2.7
....................       displayMenu(Menus.Letra,50,25,0,2); 
08AC6:  MOVLW  04
08AC8:  MOVWF  xDD
08ACA:  MOVLW  16
08ACC:  MOVWF  xDC
08ACE:  MOVLW  32
08AD0:  MOVWF  xDE
08AD2:  MOVLW  19
08AD4:  MOVWF  xDF
08AD6:  CLRF   xE0
08AD8:  MOVLW  02
08ADA:  MOVWF  xE1
08ADC:  MOVLB  0
08ADE:  CALL   4C9E
....................       strcpy(Menus.Letra,"NO"); 
08AE2:  MOVLW  04
08AE4:  MOVWF  FEA
08AE6:  MOVLW  16
08AE8:  MOVWF  FE9
08AEA:  MOVFF  FF2,5D4
08AEE:  BCF    FF2.7
08AF0:  MOVLW  00
08AF2:  CALL   129E
08AF6:  TBLRD*-
08AF8:  TBLRD*+
08AFA:  MOVF   FF5,W
08AFC:  MOVWF  FEE
08AFE:  IORLW  00
08B00:  BNZ   8AF8
08B02:  MOVLB  5
08B04:  BTFSC  xD4.7
08B06:  BSF    FF2.7
....................       displayMenu(Menus.Letra,50,45,1,2);} 
08B08:  MOVLW  04
08B0A:  MOVWF  xDD
08B0C:  MOVLW  16
08B0E:  MOVWF  xDC
08B10:  MOVLW  32
08B12:  MOVWF  xDE
08B14:  MOVLW  2D
08B16:  MOVWF  xDF
08B18:  MOVLW  01
08B1A:  MOVWF  xE0
08B1C:  MOVLW  02
08B1E:  MOVWF  xE1
08B20:  MOVLB  0
08B22:  CALL   4C9E
....................        
....................        
....................          
....................       if(UP)//Si oprime hacia arriba 
08B26:  BSF    F92.5
08B28:  BTFSC  F80.5
08B2A:  BRA    8B3E
....................       {   
....................          delay_ms(90);unidad++; 
08B2C:  MOVLW  5A
08B2E:  MOVLB  5
08B30:  MOVWF  xDD
08B32:  MOVLB  0
08B34:  CALL   1492
08B38:  MOVLB  4
08B3A:  INCF   xC9,F
08B3C:  MOVLB  0
....................       } 
....................              
....................       if(DOWN)//Si oprime hacia abajo 
08B3E:  BSF    F96.0
08B40:  BTFSC  F84.0
08B42:  BRA    8B56
....................       { 
....................          delay_ms(90);unidad--; 
08B44:  MOVLW  5A
08B46:  MOVLB  5
08B48:  MOVWF  xDD
08B4A:  MOVLB  0
08B4C:  CALL   1492
08B50:  MOVLB  4
08B52:  DECF   xC9,F
08B54:  MOVLB  0
....................       } 
....................              
....................       if(RIGHT){//Si oprime SET 
08B56:  BSF    F96.1
08B58:  BTFSC  F84.1
08B5A:  BRA    8CF2
....................          delay_ms(30); 
08B5C:  MOVLW  1E
08B5E:  MOVLB  5
08B60:  MOVWF  xDD
08B62:  MOVLB  0
08B64:  CALL   1492
....................          if(Flanco3==0){ 
08B68:  MOVLB  4
08B6A:  BTFSC  x2C.3
08B6C:  BRA    8CEE
....................             if(unidad==1){ 
08B6E:  DECFSZ xC9,W
08B70:  BRA    8CDC
....................                glcd_fillscreen(OFF); 
08B72:  MOVLB  5
08B74:  CLRF   xDC
08B76:  MOVLB  0
08B78:  CALL   1572
....................                write_eeprom(33,make8(minutos_trabajo,0)); 
08B7C:  MOVFF  4E0,5D4
08B80:  CLRF   FAA
08B82:  MOVLW  21
08B84:  MOVWF  FA9
08B86:  MOVFF  5D4,FA8
08B8A:  BCF    FA6.6
08B8C:  BCF    FA6.7
08B8E:  BSF    FA6.2
08B90:  MOVF   FF2,W
08B92:  MOVWF  00
08B94:  BCF    FF2.7
08B96:  MOVLB  F
08B98:  MOVLW  55
08B9A:  MOVWF  FA7
08B9C:  MOVLW  AA
08B9E:  MOVWF  FA7
08BA0:  BSF    FA6.1
08BA2:  BTFSC  FA6.1
08BA4:  BRA    8BA2
08BA6:  BCF    FA6.2
08BA8:  MOVF   00,W
08BAA:  IORWF  FF2,F
....................                delay_ms(20); 
08BAC:  MOVLW  14
08BAE:  MOVLB  5
08BB0:  MOVWF  xDD
08BB2:  MOVLB  0
08BB4:  CALL   1492
....................                write_eeprom(34,make8(minutos_trabajo,1)); 
08BB8:  MOVFF  4E1,5D4
08BBC:  CLRF   FAA
08BBE:  MOVLW  22
08BC0:  MOVWF  FA9
08BC2:  MOVFF  5D4,FA8
08BC6:  BCF    FA6.6
08BC8:  BCF    FA6.7
08BCA:  BSF    FA6.2
08BCC:  MOVF   FF2,W
08BCE:  MOVWF  00
08BD0:  BCF    FF2.7
08BD2:  MOVLB  F
08BD4:  MOVLW  55
08BD6:  MOVWF  FA7
08BD8:  MOVLW  AA
08BDA:  MOVWF  FA7
08BDC:  BSF    FA6.1
08BDE:  BTFSC  FA6.1
08BE0:  BRA    8BDE
08BE2:  BCF    FA6.2
08BE4:  MOVF   00,W
08BE6:  IORWF  FF2,F
....................                delay_ms(20); 
08BE8:  MOVLW  14
08BEA:  MOVLB  5
08BEC:  MOVWF  xDD
08BEE:  MOVLB  0
08BF0:  CALL   1492
....................                write_eeprom(16,Ttrabajo[0]); 
08BF4:  CLRF   FAA
08BF6:  MOVLW  10
08BF8:  MOVWF  FA9
08BFA:  MOVFF  4FC,FA8
08BFE:  BCF    FA6.6
08C00:  BCF    FA6.7
08C02:  BSF    FA6.2
08C04:  MOVF   FF2,W
08C06:  MOVWF  00
08C08:  BCF    FF2.7
08C0A:  MOVLB  F
08C0C:  MOVLW  55
08C0E:  MOVWF  FA7
08C10:  MOVLW  AA
08C12:  MOVWF  FA7
08C14:  BSF    FA6.1
08C16:  BTFSC  FA6.1
08C18:  BRA    8C16
08C1A:  BCF    FA6.2
08C1C:  MOVF   00,W
08C1E:  IORWF  FF2,F
....................                delay_ms(20); 
08C20:  MOVLW  14
08C22:  MOVLB  5
08C24:  MOVWF  xDD
08C26:  MOVLB  0
08C28:  CALL   1492
....................                write_eeprom(17,Ttrabajo[1]); 
08C2C:  CLRF   FAA
08C2E:  MOVLW  11
08C30:  MOVWF  FA9
08C32:  MOVFF  4FD,FA8
08C36:  BCF    FA6.6
08C38:  BCF    FA6.7
08C3A:  BSF    FA6.2
08C3C:  MOVF   FF2,W
08C3E:  MOVWF  00
08C40:  BCF    FF2.7
08C42:  MOVLB  F
08C44:  MOVLW  55
08C46:  MOVWF  FA7
08C48:  MOVLW  AA
08C4A:  MOVWF  FA7
08C4C:  BSF    FA6.1
08C4E:  BTFSC  FA6.1
08C50:  BRA    8C4E
08C52:  BCF    FA6.2
08C54:  MOVF   00,W
08C56:  IORWF  FF2,F
....................                delay_ms(20); 
08C58:  MOVLW  14
08C5A:  MOVLB  5
08C5C:  MOVWF  xDD
08C5E:  MOVLB  0
08C60:  CALL   1492
....................                write_eeprom(18,Ttrabajo[2]); 
08C64:  CLRF   FAA
08C66:  MOVLW  12
08C68:  MOVWF  FA9
08C6A:  MOVFF  4FE,FA8
08C6E:  BCF    FA6.6
08C70:  BCF    FA6.7
08C72:  BSF    FA6.2
08C74:  MOVF   FF2,W
08C76:  MOVWF  00
08C78:  BCF    FF2.7
08C7A:  MOVLB  F
08C7C:  MOVLW  55
08C7E:  MOVWF  FA7
08C80:  MOVLW  AA
08C82:  MOVWF  FA7
08C84:  BSF    FA6.1
08C86:  BTFSC  FA6.1
08C88:  BRA    8C86
08C8A:  BCF    FA6.2
08C8C:  MOVF   00,W
08C8E:  IORWF  FF2,F
....................                delay_ms(20); 
08C90:  MOVLW  14
08C92:  MOVLB  5
08C94:  MOVWF  xDD
08C96:  MOVLB  0
08C98:  CALL   1492
....................                write_eeprom(19,Ttrabajo[3]); 
08C9C:  CLRF   FAA
08C9E:  MOVLW  13
08CA0:  MOVWF  FA9
08CA2:  MOVFF  4FF,FA8
08CA6:  BCF    FA6.6
08CA8:  BCF    FA6.7
08CAA:  BSF    FA6.2
08CAC:  MOVF   FF2,W
08CAE:  MOVWF  00
08CB0:  BCF    FF2.7
08CB2:  MOVLB  F
08CB4:  MOVLW  55
08CB6:  MOVWF  FA7
08CB8:  MOVLW  AA
08CBA:  MOVWF  FA7
08CBC:  BSF    FA6.1
08CBE:  BTFSC  FA6.1
08CC0:  BRA    8CBE
08CC2:  BCF    FA6.2
08CC4:  MOVF   00,W
08CC6:  IORWF  FF2,F
....................                delay_ms(20); 
08CC8:  MOVLW  14
08CCA:  MOVLB  5
08CCC:  MOVWF  xDD
08CCE:  MOVLB  0
08CD0:  CALL   1492
....................                Menu=120; 
08CD4:  MOVLW  78
08CD6:  MOVLB  4
08CD8:  MOVWF  xC8
....................                //reset_cpu(); 
....................             } 
....................             else{ 
08CDA:  BRA    8CEC
....................                Menu=2;glcd_fillscreen(OFF); 
08CDC:  MOVLW  02
08CDE:  MOVWF  xC8
08CE0:  MOVLB  5
08CE2:  CLRF   xDC
08CE4:  MOVLB  0
08CE6:  CALL   1572
08CEA:  MOVLB  4
....................             } 
....................             Flanco3=1; 
08CEC:  BSF    x2C.3
....................          } 
....................       }else{ 
08CEE:  BRA    8CF6
08CF0:  MOVLB  0
....................          Flanco3=0; 
08CF2:  MOVLB  4
08CF4:  BCF    x2C.3
....................       } 
....................              
....................       if(LEFT)//Si oprime boton de Toma. 
08CF6:  BSF    F96.2
08CF8:  BTFSC  F84.2
08CFA:  BRA    8D20
....................       { 
....................          delay_ms(30);Menu=2;glcd_fillscreen(OFF);Opcion=1;unidad=1; 
08CFC:  MOVLW  1E
08CFE:  MOVLB  5
08D00:  MOVWF  xDD
08D02:  MOVLB  0
08D04:  CALL   1492
08D08:  MOVLW  02
08D0A:  MOVLB  4
08D0C:  MOVWF  xC8
08D0E:  MOVLB  5
08D10:  CLRF   xDC
08D12:  MOVLB  0
08D14:  CALL   1572
08D18:  MOVLW  01
08D1A:  MOVLB  4
08D1C:  MOVWF  xCA
08D1E:  MOVWF  xC9
....................       } 
....................        
....................       if(unidad>2) 
08D20:  MOVF   xC9,W
08D22:  SUBLW  02
08D24:  BC    8D2A
....................       {unidad=1;} 
08D26:  MOVLW  01
08D28:  MOVWF  xC9
....................       if(unidad<1) 
08D2A:  MOVF   xC9,F
08D2C:  BNZ   8D32
....................       {unidad=2;} 
08D2E:  MOVLW  02
08D30:  MOVWF  xC9
....................      
....................     } 
.................... //_--------------------------------------------------------------------------------------------------------------------------------------------------------        
....................  
.................... //_-------------------------------------------------------------------------------------------------------------------------------------------------------- 
....................       if(Menu==41){ //Menu de Sensor de Flujo. 
08D32:  MOVF   xC8,W
08D34:  SUBLW  29
08D36:  BTFSS  FD8.2
08D38:  BRA    92FC
....................        
....................       if(Ajuste1>10.0) 
08D3A:  MOVLB  6
08D3C:  CLRF   x08
08D3E:  CLRF   x07
08D40:  MOVLW  20
08D42:  MOVWF  x06
08D44:  MOVLW  82
08D46:  MOVWF  x05
08D48:  MOVFF  52B,60C
08D4C:  MOVFF  52A,60B
08D50:  MOVFF  529,60A
08D54:  MOVFF  528,609
08D58:  MOVLB  0
08D5A:  CALL   22C2
08D5E:  BNC   8D6C
....................          Ajuste1=0.0; 
08D60:  MOVLB  5
08D62:  CLRF   x2B
08D64:  CLRF   x2A
08D66:  CLRF   x29
08D68:  CLRF   x28
08D6A:  MOVLB  0
....................        
....................       strcpy(Menus.Letra,"Sensor de Flujo"); 
08D6C:  MOVLW  04
08D6E:  MOVWF  FEA
08D70:  MOVLW  16
08D72:  MOVWF  FE9
08D74:  MOVFF  FF2,5D4
08D78:  BCF    FF2.7
08D7A:  MOVLW  00
08D7C:  CALL   11D6
08D80:  TBLRD*-
08D82:  TBLRD*+
08D84:  MOVF   FF5,W
08D86:  MOVWF  FEE
08D88:  IORLW  00
08D8A:  BNZ   8D82
08D8C:  MOVLB  5
08D8E:  BTFSC  xD4.7
08D90:  BSF    FF2.7
....................       displayMenu(Menus.Letra,10,0,1,1); 
08D92:  MOVLW  04
08D94:  MOVWF  xDD
08D96:  MOVLW  16
08D98:  MOVWF  xDC
08D9A:  MOVLW  0A
08D9C:  MOVWF  xDE
08D9E:  CLRF   xDF
08DA0:  MOVLW  01
08DA2:  MOVWF  xE0
08DA4:  MOVWF  xE1
08DA6:  MOVLB  0
08DA8:  CALL   4C9E
....................        
....................       glcd_text57(0, 12, ZF, 1, ON); 
08DAC:  MOVLB  5
08DAE:  CLRF   xED
08DB0:  MOVLW  0C
08DB2:  MOVWF  xEE
08DB4:  MOVLW  04
08DB6:  MOVWF  xF0
08DB8:  MOVLW  7F
08DBA:  MOVWF  xEF
08DBC:  MOVLW  01
08DBE:  MOVWF  xF1
08DC0:  MOVWF  xF2
08DC2:  MOVLB  0
08DC4:  CALL   4A24
....................        
....................       glcd_text57(0, 20, ZA, 1, ON); 
08DC8:  MOVLB  5
08DCA:  CLRF   xED
08DCC:  MOVLW  14
08DCE:  MOVWF  xEE
08DD0:  MOVLW  04
08DD2:  MOVWF  xF0
08DD4:  MOVLW  8D
08DD6:  MOVWF  xEF
08DD8:  MOVLW  01
08DDA:  MOVWF  xF1
08DDC:  MOVWF  xF2
08DDE:  MOVLB  0
08DE0:  CALL   4A24
....................        
....................       glcd_text57(0, 30, AJ, 1, ON);            
08DE4:  MOVLB  5
08DE6:  CLRF   xED
08DE8:  MOVLW  1E
08DEA:  MOVWF  xEE
08DEC:  MOVLW  04
08DEE:  MOVWF  xF0
08DF0:  MOVLW  95
08DF2:  MOVWF  xEF
08DF4:  MOVLW  01
08DF6:  MOVWF  xF1
08DF8:  MOVWF  xF2
08DFA:  MOVLB  0
08DFC:  CALL   4A24
....................        
....................       displayfloat(zero_actual,44,20,0,1); 
08E00:  MOVFF  5B3,5DB
08E04:  MOVFF  5B2,5DA
08E08:  MOVFF  5B1,5D9
08E0C:  MOVFF  5B0,5D8
08E10:  MOVLW  2C
08E12:  MOVLB  5
08E14:  MOVWF  xDC
08E16:  MOVLW  14
08E18:  MOVWF  xDD
08E1A:  CLRF   xDE
08E1C:  MOVLW  01
08E1E:  MOVWF  xDF
08E20:  MOVLB  0
08E22:  CALL   5A3E
....................       displayfloat(Ajuste1,44,30,0,1); 
08E26:  MOVFF  52B,5DB
08E2A:  MOVFF  52A,5DA
08E2E:  MOVFF  529,5D9
08E32:  MOVFF  528,5D8
08E36:  MOVLW  2C
08E38:  MOVLB  5
08E3A:  MOVWF  xDC
08E3C:  MOVLW  1E
08E3E:  MOVWF  xDD
08E40:  CLRF   xDE
08E42:  MOVLW  01
08E44:  MOVWF  xDF
08E46:  MOVLB  0
08E48:  CALL   5A3E
....................       displayfloat(Inflow_adc,0,40,0,1); 
08E4C:  MOVFF  4D7,60A
08E50:  MOVFF  4D6,609
08E54:  CALL   172C
08E58:  MOVFF  00,5D4
08E5C:  MOVFF  01,5D5
08E60:  MOVFF  02,5D6
08E64:  MOVFF  03,5D7
08E68:  MOVFF  03,5DB
08E6C:  MOVFF  02,5DA
08E70:  MOVFF  01,5D9
08E74:  MOVFF  00,5D8
08E78:  MOVLB  5
08E7A:  CLRF   xDC
08E7C:  MOVLW  28
08E7E:  MOVWF  xDD
08E80:  CLRF   xDE
08E82:  MOVLW  01
08E84:  MOVWF  xDF
08E86:  MOVLB  0
08E88:  CALL   5A3E
.................... //      displayfloat(Diferencia,0,50,0,1); 
....................        
....................       if(UP)//Si oprime hacia arriba 
08E8C:  BSF    F92.5
08E8E:  BTFSC  F80.5
08E90:  BRA    8ED8
....................       {   
....................          delay_ms(30);Ajuste1+=0.01; 
08E92:  MOVLW  1E
08E94:  MOVLB  5
08E96:  MOVWF  xDD
08E98:  MOVLB  0
08E9A:  CALL   1492
08E9E:  BCF    FD8.1
08EA0:  MOVFF  52B,60C
08EA4:  MOVFF  52A,60B
08EA8:  MOVFF  529,60A
08EAC:  MOVFF  528,609
08EB0:  MOVLW  0A
08EB2:  MOVLB  6
08EB4:  MOVWF  x10
08EB6:  MOVLW  D7
08EB8:  MOVWF  x0F
08EBA:  MOVLW  23
08EBC:  MOVWF  x0E
08EBE:  MOVLW  78
08EC0:  MOVWF  x0D
08EC2:  MOVLB  0
08EC4:  CALL   18C0
08EC8:  MOVFF  03,52B
08ECC:  MOVFF  02,52A
08ED0:  MOVFF  01,529
08ED4:  MOVFF  00,528
....................       } 
....................              
....................       if(DOWN)//Si oprime hacia abajo 
08ED8:  BSF    F96.0
08EDA:  BTFSC  F84.0
08EDC:  BRA    8F24
....................       {    
....................          delay_ms(30);Ajuste1-=0.01; 
08EDE:  MOVLW  1E
08EE0:  MOVLB  5
08EE2:  MOVWF  xDD
08EE4:  MOVLB  0
08EE6:  CALL   1492
08EEA:  BSF    FD8.1
08EEC:  MOVFF  52B,60C
08EF0:  MOVFF  52A,60B
08EF4:  MOVFF  529,60A
08EF8:  MOVFF  528,609
08EFC:  MOVLW  0A
08EFE:  MOVLB  6
08F00:  MOVWF  x10
08F02:  MOVLW  D7
08F04:  MOVWF  x0F
08F06:  MOVLW  23
08F08:  MOVWF  x0E
08F0A:  MOVLW  78
08F0C:  MOVWF  x0D
08F0E:  MOVLB  0
08F10:  CALL   18C0
08F14:  MOVFF  03,52B
08F18:  MOVFF  02,52A
08F1C:  MOVFF  01,529
08F20:  MOVFF  00,528
....................       } 
....................              
....................       if(RIGHT)//Si oprime SET 
08F24:  BSF    F96.1
08F26:  BTFSC  F84.1
08F28:  BRA    9196
....................       {   
....................          zero_actual=Inflow_adc; 
08F2A:  MOVFF  4D7,60A
08F2E:  MOVFF  4D6,609
08F32:  CALL   172C
08F36:  MOVFF  03,5B3
08F3A:  MOVFF  02,5B2
08F3E:  MOVFF  01,5B1
08F42:  MOVFF  00,5B0
....................          Diferencia=zero_fabrica-Inflow_adc; 
08F46:  MOVFF  4D7,60A
08F4A:  MOVFF  4D6,609
08F4E:  CALL   172C
08F52:  BSF    FD8.1
08F54:  MOVFF  5AF,60C
08F58:  MOVFF  5AE,60B
08F5C:  MOVFF  5AD,60A
08F60:  MOVFF  5AC,609
08F64:  MOVFF  03,610
08F68:  MOVFF  02,60F
08F6C:  MOVFF  01,60E
08F70:  MOVFF  00,60D
08F74:  CALL   18C0
08F78:  MOVFF  03,517
08F7C:  MOVFF  02,516
08F80:  MOVFF  01,515
08F84:  MOVFF  00,514
....................              
....................          if(Diferencia>=0) 
08F88:  MOVLB  6
08F8A:  CLRF   x08
08F8C:  CLRF   x07
08F8E:  CLRF   x06
08F90:  CLRF   x05
08F92:  MOVFF  517,60C
08F96:  MOVFF  516,60B
08F9A:  MOVFF  515,60A
08F9E:  MOVFF  514,609
08FA2:  MOVLB  0
08FA4:  CALL   22C2
08FA8:  BC    8FAC
08FAA:  BNZ   8FEA
....................          { 
....................             negativo=10;write_eeprom(50,negativo);delay_ms(20); 
08FAC:  MOVLW  0A
08FAE:  MOVLB  4
08FB0:  MOVWF  xCB
08FB2:  CLRF   FAA
08FB4:  MOVLW  32
08FB6:  MOVWF  FA9
08FB8:  MOVFF  4CB,FA8
08FBC:  BCF    FA6.6
08FBE:  BCF    FA6.7
08FC0:  BSF    FA6.2
08FC2:  MOVF   FF2,W
08FC4:  MOVWF  00
08FC6:  BCF    FF2.7
08FC8:  MOVLB  F
08FCA:  MOVLW  55
08FCC:  MOVWF  FA7
08FCE:  MOVLW  AA
08FD0:  MOVWF  FA7
08FD2:  BSF    FA6.1
08FD4:  BTFSC  FA6.1
08FD6:  BRA    8FD4
08FD8:  BCF    FA6.2
08FDA:  MOVF   00,W
08FDC:  IORWF  FF2,F
08FDE:  MOVLW  14
08FE0:  MOVLB  5
08FE2:  MOVWF  xDD
08FE4:  MOVLB  0
08FE6:  CALL   1492
....................          } 
....................          if(Diferencia<0) 
08FEA:  MOVFF  517,608
08FEE:  MOVFF  516,607
08FF2:  MOVFF  515,606
08FF6:  MOVFF  514,605
08FFA:  MOVLB  6
08FFC:  CLRF   x0C
08FFE:  CLRF   x0B
09000:  CLRF   x0A
09002:  CLRF   x09
09004:  MOVLB  0
09006:  CALL   22C2
0900A:  BNC   904A
....................          { 
....................             negativo=20;write_eeprom(50,negativo);delay_ms(20); 
0900C:  MOVLW  14
0900E:  MOVLB  4
09010:  MOVWF  xCB
09012:  CLRF   FAA
09014:  MOVLW  32
09016:  MOVWF  FA9
09018:  MOVFF  4CB,FA8
0901C:  BCF    FA6.6
0901E:  BCF    FA6.7
09020:  BSF    FA6.2
09022:  MOVF   FF2,W
09024:  MOVWF  00
09026:  BCF    FF2.7
09028:  MOVLB  F
0902A:  MOVLW  55
0902C:  MOVWF  FA7
0902E:  MOVLW  AA
09030:  MOVWF  FA7
09032:  BSF    FA6.1
09034:  BTFSC  FA6.1
09036:  BRA    9034
09038:  BCF    FA6.2
0903A:  MOVF   00,W
0903C:  IORWF  FF2,F
0903E:  MOVLW  14
09040:  MOVLB  5
09042:  MOVWF  xDD
09044:  MOVLB  0
09046:  CALL   1492
....................          } 
....................          Diferencia=abs(Diferencia); 
0904A:  MOVFF  514,00
0904E:  MOVFF  515,01
09052:  MOVFF  516,02
09056:  MOVFF  517,03
0905A:  BCF    01.7
0905C:  MOVFF  517,517
09060:  MOVFF  516,516
09064:  MOVFF  01,515
09068:  MOVFF  514,514
....................          Temporal1=(int16)Diferencia; 
0906C:  MOVFF  517,608
09070:  MOVFF  516,607
09074:  MOVFF  515,606
09078:  MOVFF  514,605
0907C:  CALL   2D0C
09080:  MOVFF  02,4DB
09084:  MOVFF  01,4DA
....................          write_eeprom(60,make8(Temporal1,0)); 
09088:  MOVFF  4DA,5D4
0908C:  CLRF   FAA
0908E:  MOVLW  3C
09090:  MOVWF  FA9
09092:  MOVFF  5D4,FA8
09096:  BCF    FA6.6
09098:  BCF    FA6.7
0909A:  BSF    FA6.2
0909C:  MOVF   FF2,W
0909E:  MOVWF  00
090A0:  BCF    FF2.7
090A2:  MOVLB  F
090A4:  MOVLW  55
090A6:  MOVWF  FA7
090A8:  MOVLW  AA
090AA:  MOVWF  FA7
090AC:  BSF    FA6.1
090AE:  BTFSC  FA6.1
090B0:  BRA    90AE
090B2:  BCF    FA6.2
090B4:  MOVF   00,W
090B6:  IORWF  FF2,F
....................          delay_ms(20); 
090B8:  MOVLW  14
090BA:  MOVLB  5
090BC:  MOVWF  xDD
090BE:  MOVLB  0
090C0:  CALL   1492
....................          write_eeprom(61,make8(Temporal1,1));//Guardar valor de Setpoint en eeprom 
090C4:  MOVFF  4DB,5D4
090C8:  CLRF   FAA
090CA:  MOVLW  3D
090CC:  MOVWF  FA9
090CE:  MOVFF  5D4,FA8
090D2:  BCF    FA6.6
090D4:  BCF    FA6.7
090D6:  BSF    FA6.2
090D8:  MOVF   FF2,W
090DA:  MOVWF  00
090DC:  BCF    FF2.7
090DE:  MOVLB  F
090E0:  MOVLW  55
090E2:  MOVWF  FA7
090E4:  MOVLW  AA
090E6:  MOVWF  FA7
090E8:  BSF    FA6.1
090EA:  BTFSC  FA6.1
090EC:  BRA    90EA
090EE:  BCF    FA6.2
090F0:  MOVF   00,W
090F2:  IORWF  FF2,F
....................          delay_ms(20); 
090F4:  MOVLW  14
090F6:  MOVLB  5
090F8:  MOVWF  xDD
090FA:  MOVLB  0
090FC:  CALL   1492
....................  
....................          Temporal1=(int16)zero_actual; 
09100:  MOVFF  5B3,608
09104:  MOVFF  5B2,607
09108:  MOVFF  5B1,606
0910C:  MOVFF  5B0,605
09110:  CALL   2D0C
09114:  MOVFF  02,4DB
09118:  MOVFF  01,4DA
....................          write_eeprom(29,make8(Temporal1,0)); 
0911C:  MOVFF  4DA,5D4
09120:  CLRF   FAA
09122:  MOVLW  1D
09124:  MOVWF  FA9
09126:  MOVFF  5D4,FA8
0912A:  BCF    FA6.6
0912C:  BCF    FA6.7
0912E:  BSF    FA6.2
09130:  MOVF   FF2,W
09132:  MOVWF  00
09134:  BCF    FF2.7
09136:  MOVLB  F
09138:  MOVLW  55
0913A:  MOVWF  FA7
0913C:  MOVLW  AA
0913E:  MOVWF  FA7
09140:  BSF    FA6.1
09142:  BTFSC  FA6.1
09144:  BRA    9142
09146:  BCF    FA6.2
09148:  MOVF   00,W
0914A:  IORWF  FF2,F
....................          delay_ms(20); 
0914C:  MOVLW  14
0914E:  MOVLB  5
09150:  MOVWF  xDD
09152:  MOVLB  0
09154:  CALL   1492
....................          write_eeprom(30,make8(Temporal1,1));//Guardar valor de Setpoint en eeprom 
09158:  MOVFF  4DB,5D4
0915C:  CLRF   FAA
0915E:  MOVLW  1E
09160:  MOVWF  FA9
09162:  MOVFF  5D4,FA8
09166:  BCF    FA6.6
09168:  BCF    FA6.7
0916A:  BSF    FA6.2
0916C:  MOVF   FF2,W
0916E:  MOVWF  00
09170:  BCF    FF2.7
09172:  MOVLB  F
09174:  MOVLW  55
09176:  MOVWF  FA7
09178:  MOVLW  AA
0917A:  MOVWF  FA7
0917C:  BSF    FA6.1
0917E:  BTFSC  FA6.1
09180:  BRA    917E
09182:  BCF    FA6.2
09184:  MOVF   00,W
09186:  IORWF  FF2,F
....................          delay_ms(20); 
09188:  MOVLW  14
0918A:  MOVLB  5
0918C:  MOVWF  xDD
0918E:  MOVLB  0
09190:  CALL   1492
....................       } 
....................          else 
09194:  BRA    919C
....................             {Flanco1 = 0;}   
09196:  MOVLB  4
09198:  BCF    x2C.1
0919A:  MOVLB  0
....................              
....................       if(LEFT)//Si oprime boton de Toma. 
0919C:  BSF    F96.2
0919E:  BTFSC  F84.2
091A0:  BRA    92FA
....................       { 
....................          delay_ms(700);Menu=32;glcd_fillscreen(OFF);Opcion=1;unidad=1; 
091A2:  MOVLW  04
091A4:  MOVLB  5
091A6:  MOVWF  xD4
091A8:  MOVLW  AF
091AA:  MOVWF  xDD
091AC:  MOVLB  0
091AE:  CALL   1492
091B2:  MOVLB  5
091B4:  DECFSZ xD4,F
091B6:  BRA    91A8
091B8:  MOVLW  20
091BA:  MOVLB  4
091BC:  MOVWF  xC8
091BE:  MOVLB  5
091C0:  CLRF   xDC
091C2:  MOVLB  0
091C4:  CALL   1572
091C8:  MOVLW  01
091CA:  MOVLB  4
091CC:  MOVWF  xCA
091CE:  MOVWF  xC9
....................          Temporal=Ajuste1; 
091D0:  MOVFF  52B,533
091D4:  MOVFF  52A,532
091D8:  MOVFF  529,531
091DC:  MOVFF  528,530
....................          Entero=(int)Ajuste1; 
091E0:  MOVFF  52B,608
091E4:  MOVFF  52A,607
091E8:  MOVFF  529,606
091EC:  MOVFF  528,605
091F0:  MOVLB  0
091F2:  CALL   2D0C
091F6:  MOVFF  01,4D3
....................          Temporal=Temporal-Entero; 
091FA:  MOVLB  6
091FC:  CLRF   x0A
091FE:  MOVFF  4D3,609
09202:  MOVLB  0
09204:  CALL   172C
09208:  BSF    FD8.1
0920A:  MOVFF  533,60C
0920E:  MOVFF  532,60B
09212:  MOVFF  531,60A
09216:  MOVFF  530,609
0921A:  MOVFF  03,610
0921E:  MOVFF  02,60F
09222:  MOVFF  01,60E
09226:  MOVFF  00,60D
0922A:  CALL   18C0
0922E:  MOVFF  03,533
09232:  MOVFF  02,532
09236:  MOVFF  01,531
0923A:  MOVFF  00,530
....................          Temporal2=Temporal*10.0; 
0923E:  MOVFF  533,608
09242:  MOVFF  532,607
09246:  MOVFF  531,606
0924A:  MOVFF  530,605
0924E:  MOVLB  6
09250:  CLRF   x0C
09252:  CLRF   x0B
09254:  MOVLW  20
09256:  MOVWF  x0A
09258:  MOVLW  82
0925A:  MOVWF  x09
0925C:  MOVLB  0
0925E:  CALL   2D48
09262:  MOVFF  03,537
09266:  MOVFF  02,536
0926A:  MOVFF  01,535
0926E:  MOVFF  00,534
....................          Decimal1=(int8)Temporal2; 
09272:  MOVFF  537,608
09276:  MOVFF  536,607
0927A:  MOVFF  535,606
0927E:  MOVFF  534,605
09282:  CALL   2D0C
09286:  MOVFF  01,4D4
....................          write_eeprom(25,Entero); 
0928A:  CLRF   FAA
0928C:  MOVLW  19
0928E:  MOVWF  FA9
09290:  MOVFF  4D3,FA8
09294:  BCF    FA6.6
09296:  BCF    FA6.7
09298:  BSF    FA6.2
0929A:  MOVF   FF2,W
0929C:  MOVWF  00
0929E:  BCF    FF2.7
092A0:  MOVLB  F
092A2:  MOVLW  55
092A4:  MOVWF  FA7
092A6:  MOVLW  AA
092A8:  MOVWF  FA7
092AA:  BSF    FA6.1
092AC:  BTFSC  FA6.1
092AE:  BRA    92AC
092B0:  BCF    FA6.2
092B2:  MOVF   00,W
092B4:  IORWF  FF2,F
....................          delay_ms(20); 
092B6:  MOVLW  14
092B8:  MOVLB  5
092BA:  MOVWF  xDD
092BC:  MOVLB  0
092BE:  CALL   1492
....................          write_eeprom(26,Decimal1); 
092C2:  CLRF   FAA
092C4:  MOVLW  1A
092C6:  MOVWF  FA9
092C8:  MOVFF  4D4,FA8
092CC:  BCF    FA6.6
092CE:  BCF    FA6.7
092D0:  BSF    FA6.2
092D2:  MOVF   FF2,W
092D4:  MOVWF  00
092D6:  BCF    FF2.7
092D8:  MOVLB  F
092DA:  MOVLW  55
092DC:  MOVWF  FA7
092DE:  MOVLW  AA
092E0:  MOVWF  FA7
092E2:  BSF    FA6.1
092E4:  BTFSC  FA6.1
092E6:  BRA    92E4
092E8:  BCF    FA6.2
092EA:  MOVF   00,W
092EC:  IORWF  FF2,F
....................          delay_ms(20); 
092EE:  MOVLW  14
092F0:  MOVLB  5
092F2:  MOVWF  xDD
092F4:  MOVLB  0
092F6:  CALL   1492
092FA:  MOVLB  4
....................       } 
....................     } 
.................... //_--------------------------------------------------------------------------------------------------------------------------------------------------------        
....................  
.................... //_-------------------------------------------------------------------------------------------------------------------------------------------------------- 
....................       if(Menu==42){ //Menu de Sensor de Presin. 
092FC:  MOVF   xC8,W
092FE:  SUBLW  2A
09300:  BTFSS  FD8.2
09302:  BRA    9730
....................        
....................       if(Ajuste2>10.0) 
09304:  MOVLB  6
09306:  CLRF   x08
09308:  CLRF   x07
0930A:  MOVLW  20
0930C:  MOVWF  x06
0930E:  MOVLW  82
09310:  MOVWF  x05
09312:  MOVFF  52F,60C
09316:  MOVFF  52E,60B
0931A:  MOVFF  52D,60A
0931E:  MOVFF  52C,609
09322:  MOVLB  0
09324:  CALL   22C2
09328:  BNC   9336
....................          Ajuste2=0.0; 
0932A:  MOVLB  5
0932C:  CLRF   x2F
0932E:  CLRF   x2E
09330:  CLRF   x2D
09332:  CLRF   x2C
09334:  MOVLB  0
....................        
....................       strcpy(Menus.Letra,"Sensor de Presion"); 
09336:  MOVLW  04
09338:  MOVWF  FEA
0933A:  MOVLW  16
0933C:  MOVWF  FE9
0933E:  MOVFF  FF2,5D4
09342:  BCF    FF2.7
09344:  MOVLW  00
09346:  CALL   1200
0934A:  TBLRD*-
0934C:  TBLRD*+
0934E:  MOVF   FF5,W
09350:  MOVWF  FEE
09352:  IORLW  00
09354:  BNZ   934C
09356:  MOVLB  5
09358:  BTFSC  xD4.7
0935A:  BSF    FF2.7
....................       displayMenu(Menus.Letra,10,0,1,1); 
0935C:  MOVLW  04
0935E:  MOVWF  xDD
09360:  MOVLW  16
09362:  MOVWF  xDC
09364:  MOVLW  0A
09366:  MOVWF  xDE
09368:  CLRF   xDF
0936A:  MOVLW  01
0936C:  MOVWF  xE0
0936E:  MOVWF  xE1
09370:  MOVLB  0
09372:  CALL   4C9E
....................        
....................       glcd_text57(0, 12, ZFP, 1, ON); 
09376:  MOVLB  5
09378:  CLRF   xED
0937A:  MOVLW  0C
0937C:  MOVWF  xEE
0937E:  MOVLW  04
09380:  MOVWF  xF0
09382:  MOVLW  A8
09384:  MOVWF  xEF
09386:  MOVLW  01
09388:  MOVWF  xF1
0938A:  MOVWF  xF2
0938C:  MOVLB  0
0938E:  CALL   4A24
....................        
....................       glcd_text57(0, 20, ZA, 1, ON); 
09392:  MOVLB  5
09394:  CLRF   xED
09396:  MOVLW  14
09398:  MOVWF  xEE
0939A:  MOVLW  04
0939C:  MOVWF  xF0
0939E:  MOVLW  8D
093A0:  MOVWF  xEF
093A2:  MOVLW  01
093A4:  MOVWF  xF1
093A6:  MOVWF  xF2
093A8:  MOVLB  0
093AA:  CALL   4A24
....................        
....................       glcd_text57(0, 30, AJ, 1, ON);            
093AE:  MOVLB  5
093B0:  CLRF   xED
093B2:  MOVLW  1E
093B4:  MOVWF  xEE
093B6:  MOVLW  04
093B8:  MOVWF  xF0
093BA:  MOVLW  95
093BC:  MOVWF  xEF
093BE:  MOVLW  01
093C0:  MOVWF  xF1
093C2:  MOVWF  xF2
093C4:  MOVLB  0
093C6:  CALL   4A24
....................        
....................       displayfloat(G,44,20,0,1); 
093CA:  MOVFF  5BF,5DB
093CE:  MOVFF  5BE,5DA
093D2:  MOVFF  5BD,5D9
093D6:  MOVFF  5BC,5D8
093DA:  MOVLW  2C
093DC:  MOVLB  5
093DE:  MOVWF  xDC
093E0:  MOVLW  14
093E2:  MOVWF  xDD
093E4:  CLRF   xDE
093E6:  MOVLW  01
093E8:  MOVWF  xDF
093EA:  MOVLB  0
093EC:  CALL   5A3E
....................       displayfloat(Ajuste2,44,30,0,1); 
093F0:  MOVFF  52F,5DB
093F4:  MOVFF  52E,5DA
093F8:  MOVFF  52D,5D9
093FC:  MOVFF  52C,5D8
09400:  MOVLW  2C
09402:  MOVLB  5
09404:  MOVWF  xDC
09406:  MOVLW  1E
09408:  MOVWF  xDD
0940A:  CLRF   xDE
0940C:  MOVLW  01
0940E:  MOVWF  xDF
09410:  MOVLB  0
09412:  CALL   5A3E
....................       displayfloat(Filtro_DownFlow_adc,0,40,0,1); 
09416:  MOVFF  4D9,60A
0941A:  MOVFF  4D8,609
0941E:  CALL   172C
09422:  MOVFF  00,5D4
09426:  MOVFF  01,5D5
0942A:  MOVFF  02,5D6
0942E:  MOVFF  03,5D7
09432:  MOVFF  03,5DB
09436:  MOVFF  02,5DA
0943A:  MOVFF  01,5D9
0943E:  MOVFF  00,5D8
09442:  MOVLB  5
09444:  CLRF   xDC
09446:  MOVLW  28
09448:  MOVWF  xDD
0944A:  CLRF   xDE
0944C:  MOVLW  01
0944E:  MOVWF  xDF
09450:  MOVLB  0
09452:  CALL   5A3E
....................       displayfloat(Filtro_DownFlow,0,50,0,1); 
09456:  MOVFF  513,5DB
0945A:  MOVFF  512,5DA
0945E:  MOVFF  511,5D9
09462:  MOVFF  510,5D8
09466:  MOVLB  5
09468:  CLRF   xDC
0946A:  MOVLW  32
0946C:  MOVWF  xDD
0946E:  CLRF   xDE
09470:  MOVLW  01
09472:  MOVWF  xDF
09474:  MOVLB  0
09476:  CALL   5A3E
....................        
....................       if(UP)//Si oprime hacia arriba 
0947A:  BSF    F92.5
0947C:  BTFSC  F80.5
0947E:  BRA    94C6
....................       {   
....................          delay_ms(30);Ajuste2+=0.01; 
09480:  MOVLW  1E
09482:  MOVLB  5
09484:  MOVWF  xDD
09486:  MOVLB  0
09488:  CALL   1492
0948C:  BCF    FD8.1
0948E:  MOVFF  52F,60C
09492:  MOVFF  52E,60B
09496:  MOVFF  52D,60A
0949A:  MOVFF  52C,609
0949E:  MOVLW  0A
094A0:  MOVLB  6
094A2:  MOVWF  x10
094A4:  MOVLW  D7
094A6:  MOVWF  x0F
094A8:  MOVLW  23
094AA:  MOVWF  x0E
094AC:  MOVLW  78
094AE:  MOVWF  x0D
094B0:  MOVLB  0
094B2:  CALL   18C0
094B6:  MOVFF  03,52F
094BA:  MOVFF  02,52E
094BE:  MOVFF  01,52D
094C2:  MOVFF  00,52C
....................       } 
....................              
....................       if(DOWN)//Si oprime hacia abajo 
094C6:  BSF    F96.0
094C8:  BTFSC  F84.0
094CA:  BRA    9512
....................       {   
....................          delay_ms(30);Ajuste2-=0.01; 
094CC:  MOVLW  1E
094CE:  MOVLB  5
094D0:  MOVWF  xDD
094D2:  MOVLB  0
094D4:  CALL   1492
094D8:  BSF    FD8.1
094DA:  MOVFF  52F,60C
094DE:  MOVFF  52E,60B
094E2:  MOVFF  52D,60A
094E6:  MOVFF  52C,609
094EA:  MOVLW  0A
094EC:  MOVLB  6
094EE:  MOVWF  x10
094F0:  MOVLW  D7
094F2:  MOVWF  x0F
094F4:  MOVLW  23
094F6:  MOVWF  x0E
094F8:  MOVLW  78
094FA:  MOVWF  x0D
094FC:  MOVLB  0
094FE:  CALL   18C0
09502:  MOVFF  03,52F
09506:  MOVFF  02,52E
0950A:  MOVFF  01,52D
0950E:  MOVFF  00,52C
....................       } 
....................              
....................       if(RIGHT)//Si oprime SET 
09512:  BSF    F96.1
09514:  BTFSC  F84.1
09516:  BRA    95CA
....................       {            
....................          G=Filtro_Downflow_adc; 
09518:  MOVFF  4D9,60A
0951C:  MOVFF  4D8,609
09520:  CALL   172C
09524:  MOVFF  03,5BF
09528:  MOVFF  02,5BE
0952C:  MOVFF  01,5BD
09530:  MOVFF  00,5BC
....................          G16=(int16)G; 
09534:  MOVFF  5BF,608
09538:  MOVFF  5BE,607
0953C:  MOVFF  5BD,606
09540:  MOVFF  5BC,605
09544:  CALL   2D0C
09548:  MOVFF  02,4E3
0954C:  MOVFF  01,4E2
....................          G_l=G16; G_h=(G16>>8); 
09550:  MOVFF  4E2,4CC
09554:  MOVFF  4E3,4CD
....................              
....................          write_eeprom(62,G_l); 
09558:  CLRF   FAA
0955A:  MOVLW  3E
0955C:  MOVWF  FA9
0955E:  MOVFF  4CC,FA8
09562:  BCF    FA6.6
09564:  BCF    FA6.7
09566:  BSF    FA6.2
09568:  MOVF   FF2,W
0956A:  MOVWF  00
0956C:  BCF    FF2.7
0956E:  MOVLB  F
09570:  MOVLW  55
09572:  MOVWF  FA7
09574:  MOVLW  AA
09576:  MOVWF  FA7
09578:  BSF    FA6.1
0957A:  BTFSC  FA6.1
0957C:  BRA    957A
0957E:  BCF    FA6.2
09580:  MOVF   00,W
09582:  IORWF  FF2,F
....................          delay_ms(20); 
09584:  MOVLW  14
09586:  MOVLB  5
09588:  MOVWF  xDD
0958A:  MOVLB  0
0958C:  CALL   1492
....................          write_eeprom(63,G_h);//Guardar valor de Setpoint en eeprom 
09590:  CLRF   FAA
09592:  MOVLW  3F
09594:  MOVWF  FA9
09596:  MOVFF  4CD,FA8
0959A:  BCF    FA6.6
0959C:  BCF    FA6.7
0959E:  BSF    FA6.2
095A0:  MOVF   FF2,W
095A2:  MOVWF  00
095A4:  BCF    FF2.7
095A6:  MOVLB  F
095A8:  MOVLW  55
095AA:  MOVWF  FA7
095AC:  MOVLW  AA
095AE:  MOVWF  FA7
095B0:  BSF    FA6.1
095B2:  BTFSC  FA6.1
095B4:  BRA    95B2
095B6:  BCF    FA6.2
095B8:  MOVF   00,W
095BA:  IORWF  FF2,F
....................          delay_ms(20); 
095BC:  MOVLW  14
095BE:  MOVLB  5
095C0:  MOVWF  xDD
095C2:  MOVLB  0
095C4:  CALL   1492
....................       } 
....................          else 
095C8:  BRA    95D0
....................             {Flanco1 = 0;}   
095CA:  MOVLB  4
095CC:  BCF    x2C.1
095CE:  MOVLB  0
....................              
....................       if(LEFT)//Si oprime boton de Toma. 
095D0:  BSF    F96.2
095D2:  BTFSC  F84.2
095D4:  BRA    972E
....................       {                   
....................          delay_ms(700);Menu=32;glcd_fillscreen(OFF);Opcion=1;unidad=1; 
095D6:  MOVLW  04
095D8:  MOVLB  5
095DA:  MOVWF  xD4
095DC:  MOVLW  AF
095DE:  MOVWF  xDD
095E0:  MOVLB  0
095E2:  CALL   1492
095E6:  MOVLB  5
095E8:  DECFSZ xD4,F
095EA:  BRA    95DC
095EC:  MOVLW  20
095EE:  MOVLB  4
095F0:  MOVWF  xC8
095F2:  MOVLB  5
095F4:  CLRF   xDC
095F6:  MOVLB  0
095F8:  CALL   1572
095FC:  MOVLW  01
095FE:  MOVLB  4
09600:  MOVWF  xCA
09602:  MOVWF  xC9
....................          Temporal=Ajuste2; 
09604:  MOVFF  52F,533
09608:  MOVFF  52E,532
0960C:  MOVFF  52D,531
09610:  MOVFF  52C,530
....................          Entero=(int)Ajuste2; 
09614:  MOVFF  52F,608
09618:  MOVFF  52E,607
0961C:  MOVFF  52D,606
09620:  MOVFF  52C,605
09624:  MOVLB  0
09626:  CALL   2D0C
0962A:  MOVFF  01,4D3
....................          Temporal=Temporal-Entero; 
0962E:  MOVLB  6
09630:  CLRF   x0A
09632:  MOVFF  4D3,609
09636:  MOVLB  0
09638:  CALL   172C
0963C:  BSF    FD8.1
0963E:  MOVFF  533,60C
09642:  MOVFF  532,60B
09646:  MOVFF  531,60A
0964A:  MOVFF  530,609
0964E:  MOVFF  03,610
09652:  MOVFF  02,60F
09656:  MOVFF  01,60E
0965A:  MOVFF  00,60D
0965E:  CALL   18C0
09662:  MOVFF  03,533
09666:  MOVFF  02,532
0966A:  MOVFF  01,531
0966E:  MOVFF  00,530
....................          Temporal2=Temporal*10.0; 
09672:  MOVFF  533,608
09676:  MOVFF  532,607
0967A:  MOVFF  531,606
0967E:  MOVFF  530,605
09682:  MOVLB  6
09684:  CLRF   x0C
09686:  CLRF   x0B
09688:  MOVLW  20
0968A:  MOVWF  x0A
0968C:  MOVLW  82
0968E:  MOVWF  x09
09690:  MOVLB  0
09692:  CALL   2D48
09696:  MOVFF  03,537
0969A:  MOVFF  02,536
0969E:  MOVFF  01,535
096A2:  MOVFF  00,534
....................          Decimal1=(int8)Temporal2; 
096A6:  MOVFF  537,608
096AA:  MOVFF  536,607
096AE:  MOVFF  535,606
096B2:  MOVFF  534,605
096B6:  CALL   2D0C
096BA:  MOVFF  01,4D4
....................          write_eeprom(27,Entero); 
096BE:  CLRF   FAA
096C0:  MOVLW  1B
096C2:  MOVWF  FA9
096C4:  MOVFF  4D3,FA8
096C8:  BCF    FA6.6
096CA:  BCF    FA6.7
096CC:  BSF    FA6.2
096CE:  MOVF   FF2,W
096D0:  MOVWF  00
096D2:  BCF    FF2.7
096D4:  MOVLB  F
096D6:  MOVLW  55
096D8:  MOVWF  FA7
096DA:  MOVLW  AA
096DC:  MOVWF  FA7
096DE:  BSF    FA6.1
096E0:  BTFSC  FA6.1
096E2:  BRA    96E0
096E4:  BCF    FA6.2
096E6:  MOVF   00,W
096E8:  IORWF  FF2,F
....................          delay_ms(20); 
096EA:  MOVLW  14
096EC:  MOVLB  5
096EE:  MOVWF  xDD
096F0:  MOVLB  0
096F2:  CALL   1492
....................          write_eeprom(28,Decimal1); 
096F6:  CLRF   FAA
096F8:  MOVLW  1C
096FA:  MOVWF  FA9
096FC:  MOVFF  4D4,FA8
09700:  BCF    FA6.6
09702:  BCF    FA6.7
09704:  BSF    FA6.2
09706:  MOVF   FF2,W
09708:  MOVWF  00
0970A:  BCF    FF2.7
0970C:  MOVLB  F
0970E:  MOVLW  55
09710:  MOVWF  FA7
09712:  MOVLW  AA
09714:  MOVWF  FA7
09716:  BSF    FA6.1
09718:  BTFSC  FA6.1
0971A:  BRA    9718
0971C:  BCF    FA6.2
0971E:  MOVF   00,W
09720:  IORWF  FF2,F
....................          delay_ms(20); 
09722:  MOVLW  14
09724:  MOVLB  5
09726:  MOVWF  xDD
09728:  MOVLB  0
0972A:  CALL   1492
0972E:  MOVLB  4
....................       } 
....................     } 
.................... //_--------------------------------------------------------------------------------------------------------------------------------------------------------        
....................  
.................... //_-------------------------------------------------------------------------------------------------------------------------------------------------------- 
....................       if(Menu==43){ //Menu de Velocidad de Motor 
09730:  MOVF   xC8,W
09732:  SUBLW  2B
09734:  BTFSS  FD8.2
09736:  BRA    9902
....................        
....................       if(VelMotor>6)VelMotor=6; 
09738:  MOVLB  5
0973A:  MOVF   xCB,W
0973C:  SUBLW  06
0973E:  BC    9744
09740:  MOVLW  06
09742:  MOVWF  xCB
....................        
....................       strcpy(Menus.Letra,"Seleccion Vel"); 
09744:  MOVLW  04
09746:  MOVWF  FEA
09748:  MOVLW  16
0974A:  MOVWF  FE9
0974C:  MOVFF  FF2,5D4
09750:  BCF    FF2.7
09752:  MOVLW  00
09754:  MOVLB  0
09756:  CALL   12BC
0975A:  TBLRD*-
0975C:  TBLRD*+
0975E:  MOVF   FF5,W
09760:  MOVWF  FEE
09762:  IORLW  00
09764:  BNZ   975C
09766:  MOVLB  5
09768:  BTFSC  xD4.7
0976A:  BSF    FF2.7
....................       displayMenu(Menus.Letra,10,0,1,1); 
0976C:  MOVLW  04
0976E:  MOVWF  xDD
09770:  MOVLW  16
09772:  MOVWF  xDC
09774:  MOVLW  0A
09776:  MOVWF  xDE
09778:  CLRF   xDF
0977A:  MOVLW  01
0977C:  MOVWF  xE0
0977E:  MOVWF  xE1
09780:  MOVLB  0
09782:  CALL   4C9E
....................        
....................       displayTiempo(VelMotor,50,40,1,2); 
09786:  MOVFF  5CB,5D4
0978A:  MOVLW  32
0978C:  MOVLB  5
0978E:  MOVWF  xD5
09790:  MOVLW  28
09792:  MOVWF  xD6
09794:  MOVLW  01
09796:  MOVWF  xD7
09798:  MOVLW  02
0979A:  MOVWF  xD8
0979C:  MOVLB  0
0979E:  CALL   5430
....................        
....................       if(UP && VelMotor<6)//Si oprime hacia arriba 
097A2:  BSF    F92.5
097A4:  BTFSC  F80.5
097A6:  BRA    97C6
097A8:  MOVLB  5
097AA:  MOVF   xCB,W
097AC:  SUBLW  05
097AE:  BTFSC  FD8.0
097B0:  BRA    97B6
097B2:  MOVLB  0
097B4:  BRA    97C6
....................       {   
....................          delay_ms(200);VelMotor++; 
097B6:  MOVLW  C8
097B8:  MOVWF  xDD
097BA:  MOVLB  0
097BC:  CALL   1492
097C0:  MOVLB  5
097C2:  INCF   xCB,F
097C4:  MOVLB  0
....................       } 
....................              
....................       if(DOWN && VelMotor>0)//Si oprime hacia abajo 
097C6:  BSF    F96.0
097C8:  BTFSC  F84.0
097CA:  BRA    97E8
097CC:  MOVLB  5
097CE:  MOVF   xCB,F
097D0:  BTFSS  FD8.2
097D2:  BRA    97D8
097D4:  MOVLB  0
097D6:  BRA    97E8
....................       {   
....................          delay_ms(200);VelMotor--; 
097D8:  MOVLW  C8
097DA:  MOVWF  xDD
097DC:  MOVLB  0
097DE:  CALL   1492
097E2:  MOVLB  5
097E4:  DECF   xCB,F
097E6:  MOVLB  0
....................       } 
....................              
....................       if(RIGHT)//Si oprime SET 
097E8:  BSF    F96.1
097EA:  BTFSC  F84.1
097EC:  BRA    97F6
....................       {            
....................          VelocidadMotor(VelMotor); 
097EE:  MOVFF  5CB,5D4
097F2:  CALL   14BA
....................       }  
....................              
....................       if(LEFT)//Si oprime boton de Toma. 
097F6:  BSF    F96.2
097F8:  BTFSC  F84.2
097FA:  BRA    9904
....................       {                   
....................          delay_ms(100);glcd_fillscreen(OFF);Opcion=1;unidad=1; 
097FC:  MOVLW  64
097FE:  MOVLB  5
09800:  MOVWF  xDD
09802:  MOVLB  0
09804:  CALL   1492
09808:  MOVLB  5
0980A:  CLRF   xDC
0980C:  MOVLB  0
0980E:  CALL   1572
09812:  MOVLW  01
09814:  MOVLB  4
09816:  MOVWF  xCA
09818:  MOVWF  xC9
....................          write_eeprom(32,VelMotor);//Guardar valor de Setpoint en eeprom 
0981A:  CLRF   FAA
0981C:  MOVLW  20
0981E:  MOVWF  FA9
09820:  MOVFF  5CB,FA8
09824:  BCF    FA6.6
09826:  BCF    FA6.7
09828:  BSF    FA6.2
0982A:  MOVF   FF2,W
0982C:  MOVWF  00
0982E:  BCF    FF2.7
09830:  MOVLB  F
09832:  MOVLW  55
09834:  MOVWF  FA7
09836:  MOVLW  AA
09838:  MOVWF  FA7
0983A:  BSF    FA6.1
0983C:  BTFSC  FA6.1
0983E:  BRA    983C
09840:  BCF    FA6.2
09842:  MOVF   00,W
09844:  IORWF  FF2,F
....................          delay_ms(20); 
09846:  MOVLW  14
09848:  MOVLB  5
0984A:  MOVWF  xDD
0984C:  MOVLB  0
0984E:  CALL   1492
....................          glcd_fillScreen(OFF); 
09852:  MOVLB  5
09854:  CLRF   xDC
09856:  MOVLB  0
09858:  CALL   1572
....................          strcpy(Menus.Letra,"Velocidad"); 
0985C:  MOVLW  04
0985E:  MOVWF  FEA
09860:  MOVLW  16
09862:  MOVWF  FE9
09864:  MOVFF  FF2,5D4
09868:  BCF    FF2.7
0986A:  MOVLW  00
0986C:  CALL   12E4
09870:  TBLRD*-
09872:  TBLRD*+
09874:  MOVF   FF5,W
09876:  MOVWF  FEE
09878:  IORLW  00
0987A:  BNZ   9872
0987C:  MOVLB  5
0987E:  BTFSC  xD4.7
09880:  BSF    FF2.7
....................          displayMenu(Menus.Letra,0,0,0,2); 
09882:  MOVLW  04
09884:  MOVWF  xDD
09886:  MOVLW  16
09888:  MOVWF  xDC
0988A:  CLRF   xDE
0988C:  CLRF   xDF
0988E:  CLRF   xE0
09890:  MOVLW  02
09892:  MOVWF  xE1
09894:  MOVLB  0
09896:  CALL   4C9E
....................          strcpy(Menus.Letra,"Guardada"); 
0989A:  MOVLW  04
0989C:  MOVWF  FEA
0989E:  MOVLW  16
098A0:  MOVWF  FE9
098A2:  MOVFF  FF2,5D4
098A6:  BCF    FF2.7
098A8:  MOVLW  00
098AA:  CALL   1308
098AE:  TBLRD*-
098B0:  TBLRD*+
098B2:  MOVF   FF5,W
098B4:  MOVWF  FEE
098B6:  IORLW  00
098B8:  BNZ   98B0
098BA:  MOVLB  5
098BC:  BTFSC  xD4.7
098BE:  BSF    FF2.7
....................          displayMenu(Menus.Letra,0,30,0,2); 
098C0:  MOVLW  04
098C2:  MOVWF  xDD
098C4:  MOVLW  16
098C6:  MOVWF  xDC
098C8:  CLRF   xDE
098CA:  MOVLW  1E
098CC:  MOVWF  xDF
098CE:  CLRF   xE0
098D0:  MOVLW  02
098D2:  MOVWF  xE1
098D4:  MOVLB  0
098D6:  CALL   4C9E
....................          glcd_update(); 
098DA:  CALL   15CC
....................          delay_ms(1000); 
098DE:  MOVLW  04
098E0:  MOVLB  5
098E2:  MOVWF  xD4
098E4:  MOVLW  FA
098E6:  MOVWF  xDD
098E8:  MOVLB  0
098EA:  CALL   1492
098EE:  MOVLB  5
098F0:  DECFSZ xD4,F
098F2:  BRA    98E4
....................          glcd_fillScreen(OFF); 
098F4:  CLRF   xDC
098F6:  MOVLB  0
098F8:  CALL   1572
....................          Menu=32; 
098FC:  MOVLW  20
098FE:  MOVLB  4
09900:  MOVWF  xC8
09902:  MOVLB  0
....................       } 
....................     } 
.................... //_--------------------------------------------------------------------------------------------------------------------------------------------------------        
....................  
.................... //_-------------------------------------------------------------------------------------------------------------------------------------------------------- 
....................       if(Menu==120){ //Menu de Post-Purga. 
09904:  MOVLB  4
09906:  MOVF   xC8,W
09908:  SUBLW  78
0990A:  BTFSS  FD8.2
0990C:  BRA    9B1A
....................        
....................       // Para que inicie el tiempo de Post-Purga se debe oprimir el boton de encendido en el Microcontrolador esclavo. 
....................       strcpy(Menus.Letra,"Tiempo"); 
0990E:  MOVLW  04
09910:  MOVWF  FEA
09912:  MOVLW  16
09914:  MOVWF  FE9
09916:  MOVFF  FF2,5D4
0991A:  BCF    FF2.7
0991C:  MOVLW  00
0991E:  MOVLB  0
09920:  CALL   132C
09924:  TBLRD*-
09926:  TBLRD*+
09928:  MOVF   FF5,W
0992A:  MOVWF  FEE
0992C:  IORLW  00
0992E:  BNZ   9926
09930:  MOVLB  5
09932:  BTFSC  xD4.7
09934:  BSF    FF2.7
....................       displayMenu(Menus.Letra,30,0,1,2); 
09936:  MOVLW  04
09938:  MOVWF  xDD
0993A:  MOVLW  16
0993C:  MOVWF  xDC
0993E:  MOVLW  1E
09940:  MOVWF  xDE
09942:  CLRF   xDF
09944:  MOVLW  01
09946:  MOVWF  xE0
09948:  MOVLW  02
0994A:  MOVWF  xE1
0994C:  MOVLB  0
0994E:  CALL   4C9E
....................       strcpy(Menus.Letra,"Post-Purga"); 
09952:  MOVLW  04
09954:  MOVWF  FEA
09956:  MOVLW  16
09958:  MOVWF  FE9
0995A:  MOVFF  FF2,5D4
0995E:  BCF    FF2.7
09960:  MOVLW  00
09962:  CALL   134E
09966:  TBLRD*-
09968:  TBLRD*+
0996A:  MOVF   FF5,W
0996C:  MOVWF  FEE
0996E:  IORLW  00
09970:  BNZ   9968
09972:  MOVLB  5
09974:  BTFSC  xD4.7
09976:  BSF    FF2.7
....................       displayMenu(Menus.Letra,10,17,1,2); 
09978:  MOVLW  04
0997A:  MOVWF  xDD
0997C:  MOVLW  16
0997E:  MOVWF  xDC
09980:  MOVLW  0A
09982:  MOVWF  xDE
09984:  MOVLW  11
09986:  MOVWF  xDF
09988:  MOVLW  01
0998A:  MOVWF  xE0
0998C:  MOVLW  02
0998E:  MOVWF  xE1
09990:  MOVLB  0
09992:  CALL   4C9E
....................        
....................       tiempo_postpurga=1; 
09996:  MOVLB  4
09998:  BSF    x2E.0
....................       LuzBlanca_off;  
0999A:  BSF    F8B.1
0999C:  BCF    F94.1
....................       Aux_off; 
0999E:  BSF    F8B.0
099A0:  BCF    F94.0
....................       VelocidadMotor(VelMotor); 
099A2:  MOVFF  5CB,5D4
099A6:  MOVLB  0
099A8:  CALL   14BA
....................       flag_blower=1; 
099AC:  MOVLB  4
099AE:  BSF    x2C.7
....................        
....................        displayTiempo(Tppurga[3],20,40,0,2);displayTiempo(Tppurga[2],40,40,0,2);glcd_text57(60, 42, Dos_puntos, 2, ON); 
099B0:  MOVFF  4EF,5D4
099B4:  MOVLW  14
099B6:  MOVLB  5
099B8:  MOVWF  xD5
099BA:  MOVLW  28
099BC:  MOVWF  xD6
099BE:  CLRF   xD7
099C0:  MOVLW  02
099C2:  MOVWF  xD8
099C4:  MOVLB  0
099C6:  CALL   5430
099CA:  MOVFF  4EE,5D4
099CE:  MOVLW  28
099D0:  MOVLB  5
099D2:  MOVWF  xD5
099D4:  MOVWF  xD6
099D6:  CLRF   xD7
099D8:  MOVLW  02
099DA:  MOVWF  xD8
099DC:  MOVLB  0
099DE:  CALL   5430
099E2:  MOVLW  3C
099E4:  MOVLB  5
099E6:  MOVWF  xED
099E8:  MOVLW  2A
099EA:  MOVWF  xEE
099EC:  MOVLW  04
099EE:  MOVWF  xF0
099F0:  MOVLW  4E
099F2:  MOVWF  xEF
099F4:  MOVLW  02
099F6:  MOVWF  xF1
099F8:  MOVLW  01
099FA:  MOVWF  xF2
099FC:  MOVLB  0
099FE:  CALL   4A24
....................        displayTiempo(Tppurga[1],70,40,0,2);displayTiempo(Tppurga[0],90,40,0,2);  
09A02:  MOVFF  4ED,5D4
09A06:  MOVLW  46
09A08:  MOVLB  5
09A0A:  MOVWF  xD5
09A0C:  MOVLW  28
09A0E:  MOVWF  xD6
09A10:  CLRF   xD7
09A12:  MOVLW  02
09A14:  MOVWF  xD8
09A16:  MOVLB  0
09A18:  CALL   5430
09A1C:  MOVFF  4EC,5D4
09A20:  MOVLW  5A
09A22:  MOVLB  5
09A24:  MOVWF  xD5
09A26:  MOVLW  28
09A28:  MOVWF  xD6
09A2A:  CLRF   xD7
09A2C:  MOVLW  02
09A2E:  MOVWF  xD8
09A30:  MOVLB  0
09A32:  CALL   5430
....................        
....................          if(UP){//Si oprime boton de Toma. 
09A36:  BSF    F92.5
09A38:  BTFSC  F80.5
09A3A:  BRA    9A5E
....................             Flanco1=1; 
09A3C:  MOVLB  4
09A3E:  BSF    x2C.1
....................             if(!flagup){ 
09A40:  BTFSC  x2E.5
09A42:  BRA    9A5A
....................                delay_ms(200); 
09A44:  MOVLW  C8
09A46:  MOVLB  5
09A48:  MOVWF  xDD
09A4A:  MOVLB  0
09A4C:  CALL   1492
....................                if(UP){ 
09A50:  BSF    F92.5
09A52:  BTFSC  F80.5
09A54:  BRA    9A5C
....................                   flagup=1; 
09A56:  MOVLB  4
09A58:  BSF    x2E.5
09A5A:  MOVLB  0
....................                } 
....................             } 
....................          }else{ 
09A5C:  BRA    9A66
....................             flagup=0; 
09A5E:  MOVLB  4
09A60:  BCF    x2E.5
....................             Flanco1=0; 
09A62:  BCF    x2C.1
09A64:  MOVLB  0
....................          } 
....................        
....................          if(DOWN){//Si oprime boton de Luz Blanca. 
09A66:  BSF    F96.0
09A68:  BTFSC  F84.0
09A6A:  BRA    9A8E
....................             Flanco5=1; 
09A6C:  MOVLB  4
09A6E:  BSF    x2C.5
....................             if(!flagdn){ 
09A70:  BTFSC  x2E.4
09A72:  BRA    9A8A
....................                delay_ms(200); 
09A74:  MOVLW  C8
09A76:  MOVLB  5
09A78:  MOVWF  xDD
09A7A:  MOVLB  0
09A7C:  CALL   1492
....................                if(DOWN){ 
09A80:  BSF    F96.0
09A82:  BTFSC  F84.0
09A84:  BRA    9A8C
....................                   flagdn=1; 
09A86:  MOVLB  4
09A88:  BSF    x2E.4
09A8A:  MOVLB  0
....................                } 
....................             } 
....................          }else{ 
09A8C:  BRA    9A94
....................             flagdn=0; 
09A8E:  MOVLB  4
09A90:  BCF    x2E.4
....................             Flanco5 = 0; 
09A92:  BCF    x2C.5
....................          } 
....................        
....................          if(flagup){ 
09A94:  MOVLB  4
09A96:  BTFSS  x2E.5
09A98:  BRA    9AA4
....................             subirVidrio(); 
09A9A:  MOVLB  0
09A9C:  CALL   550A
....................          }else{ 
09AA0:  BRA    9AB8
09AA2:  MOVLB  4
....................             if(flagdn){ 
09AA4:  BTFSS  x2E.4
09AA6:  BRA    9AB2
....................                bajarVidrio(); 
09AA8:  MOVLB  0
09AAA:  CALL   5532
....................             }else{ 
09AAE:  BRA    9AB8
09AB0:  MOVLB  4
....................                detenerVidrio(); 
09AB2:  MOVLB  0
09AB4:  CALL   555A
....................             } 
....................          } 
....................        
....................       if(RIGHT) 
09AB8:  BSF    F96.1
09ABA:  BTFSC  F84.1
09ABC:  BRA    9AF0
....................       { 
....................          delay_ms(1000); 
09ABE:  MOVLW  04
09AC0:  MOVLB  5
09AC2:  MOVWF  xD4
09AC4:  MOVLW  FA
09AC6:  MOVWF  xDD
09AC8:  MOVLB  0
09ACA:  CALL   1492
09ACE:  MOVLB  5
09AD0:  DECFSZ xD4,F
09AD2:  BRA    9AC4
....................          if(RIGHT ) 
09AD4:  BSF    F96.1
09AD6:  BTFSC  F84.1
09AD8:  BRA    9AF0
....................          { 
....................             delay_ms(1500); 
09ADA:  MOVLW  06
09ADC:  MOVWF  xD4
09ADE:  MOVLW  FA
09AE0:  MOVWF  xDD
09AE2:  MOVLB  0
09AE4:  CALL   1492
09AE8:  MOVLB  5
09AEA:  DECFSZ xD4,F
09AEC:  BRA    9ADE
....................             reset_cpu(); 
09AEE:  RESET
....................          } 
....................       } 
....................        
....................       if((Tppurga[0]==Tppurgap[0])&&(Tppurga[1]==Tppurgap[1])&&(Tppurga[2]==Tppurgap[2])&&(Tppurga[3]==Tppurgap[3])) 
09AF0:  MOVLB  4
09AF2:  MOVF   xF0,W
09AF4:  SUBWF  xEC,W
09AF6:  BNZ   9B1A
09AF8:  MOVF   xF1,W
09AFA:  SUBWF  xED,W
09AFC:  BNZ   9B1A
09AFE:  MOVF   xF2,W
09B00:  SUBWF  xEE,W
09B02:  BNZ   9B1A
09B04:  MOVF   xF3,W
09B06:  SUBWF  xEF,W
09B08:  BNZ   9B1A
....................       {tiempo_postpurga=0;glcd_fillScreen(OFF);reset_cpu();} 
09B0A:  BCF    x2E.0
09B0C:  MOVLB  5
09B0E:  CLRF   xDC
09B10:  MOVLB  0
09B12:  CALL   1572
09B16:  RESET
09B18:  MOVLB  4
....................       
....................     } 
.................... //_--------------------------------------------------------------------------------------------------------------------------------------------------------        
....................  
.................... //_-------------------------------------------------------------------------------------------------------------------------------------------------------- 
....................       if(Menu==200){ //Menu de Inicio. 
09B1A:  MOVF   xC8,W
09B1C:  SUBLW  C8
09B1E:  BTFSS  FD8.2
09B20:  BRA    9CBC
....................           
....................       if(RIGHT){ 
09B22:  BSF    F96.1
09B24:  BTFSC  F84.1
09B26:  BRA    9C98
....................          delay_ms(1000); 
09B28:  MOVLW  04
09B2A:  MOVLB  5
09B2C:  MOVWF  xD4
09B2E:  MOVLW  FA
09B30:  MOVWF  xDD
09B32:  MOVLB  0
09B34:  CALL   1492
09B38:  MOVLB  5
09B3A:  DECFSZ xD4,F
09B3C:  BRA    9B2E
....................          if(RIGHT){  
09B3E:  BSF    F96.1
09B40:  BTFSC  F84.1
09B42:  BRA    9C94
....................             Display_on; 
09B44:  BSF    F8A.1
09B46:  BCF    F93.1
....................             glcd_init(ON);             //Inicializa la glcd 
09B48:  MOVLW  01
09B4A:  MOVWF  xD4
09B4C:  MOVLB  0
09B4E:  CALL   1684
....................             glcd_fillScreen(OFF);      //Limpia la pantalla 
09B52:  MOVLB  5
09B54:  CLRF   xDC
09B56:  MOVLB  0
09B58:  CALL   1572
....................             glcd_text57(0, 0, JP, 2, ON);glcd_text57(5, 20, Cabina, 1, ON);glcd_text57(10, 40, Clase, 2, ON);              
09B5C:  MOVLB  5
09B5E:  CLRF   xED
09B60:  CLRF   xEE
09B62:  MOVLW  04
09B64:  MOVWF  xF0
09B66:  MOVLW  30
09B68:  MOVWF  xEF
09B6A:  MOVLW  02
09B6C:  MOVWF  xF1
09B6E:  MOVLW  01
09B70:  MOVWF  xF2
09B72:  MOVLB  0
09B74:  CALL   4A24
09B78:  MOVLW  05
09B7A:  MOVLB  5
09B7C:  MOVWF  xED
09B7E:  MOVLW  14
09B80:  MOVWF  xEE
09B82:  MOVLW  04
09B84:  MOVWF  xF0
09B86:  MOVLW  3C
09B88:  MOVWF  xEF
09B8A:  MOVLW  01
09B8C:  MOVWF  xF1
09B8E:  MOVWF  xF2
09B90:  MOVLB  0
09B92:  CALL   4A24
09B96:  MOVLW  0A
09B98:  MOVLB  5
09B9A:  MOVWF  xED
09B9C:  MOVLW  28
09B9E:  MOVWF  xEE
09BA0:  MOVLW  04
09BA2:  MOVWF  xF0
09BA4:  MOVLW  53
09BA6:  MOVWF  xEF
09BA8:  MOVLW  02
09BAA:  MOVWF  xF1
09BAC:  MOVLW  01
09BAE:  MOVWF  xF2
09BB0:  MOVLB  0
09BB2:  CALL   4A24
....................             glcd_update();    
09BB6:  CALL   15CC
....................             delay_ms(3000); 
09BBA:  MOVLW  0C
09BBC:  MOVLB  5
09BBE:  MOVWF  xD4
09BC0:  MOVLW  FA
09BC2:  MOVWF  xDD
09BC4:  MOVLB  0
09BC6:  CALL   1492
09BCA:  MOVLB  5
09BCC:  DECFSZ xD4,F
09BCE:  BRA    9BC0
....................                         
....................             glcd_fillScreen(OFF);      //Limpia la pantalla 
09BD0:  CLRF   xDC
09BD2:  MOVLB  0
09BD4:  CALL   1572
....................             displayContrasena(Contrasena[0],20,30,1);displayContrasena(Contrasena[1],40,30,0); 
09BD8:  MOVFF  500,5DE
09BDC:  MOVLW  14
09BDE:  MOVLB  5
09BE0:  MOVWF  xDF
09BE2:  MOVLW  1E
09BE4:  MOVWF  xE0
09BE6:  MOVLW  01
09BE8:  MOVWF  xE1
09BEA:  MOVLB  0
09BEC:  CALL   4BE6
09BF0:  MOVFF  501,5DE
09BF4:  MOVLW  28
09BF6:  MOVLB  5
09BF8:  MOVWF  xDF
09BFA:  MOVLW  1E
09BFC:  MOVWF  xE0
09BFE:  CLRF   xE1
09C00:  MOVLB  0
09C02:  CALL   4BE6
....................             displayContrasena(Contrasena[2],60,30,0);displayContrasena(Contrasena[0],80,30,0); 
09C06:  MOVFF  502,5DE
09C0A:  MOVLW  3C
09C0C:  MOVLB  5
09C0E:  MOVWF  xDF
09C10:  MOVLW  1E
09C12:  MOVWF  xE0
09C14:  CLRF   xE1
09C16:  MOVLB  0
09C18:  CALL   4BE6
09C1C:  MOVFF  500,5DE
09C20:  MOVLW  50
09C22:  MOVLB  5
09C24:  MOVWF  xDF
09C26:  MOVLW  1E
09C28:  MOVWF  xE0
09C2A:  CLRF   xE1
09C2C:  MOVLB  0
09C2E:  CALL   4BE6
....................             glcd_rect(0, 0, 127, 25, YES, ON);strcpy(Menus.Letra,"Clave");glcd_text57(25, 1, Menus.Letra, 3, OFF);    
09C32:  MOVLB  5
09C34:  CLRF   xED
09C36:  CLRF   xEE
09C38:  MOVLW  7F
09C3A:  MOVWF  xEF
09C3C:  MOVLW  19
09C3E:  MOVWF  xF0
09C40:  MOVLW  01
09C42:  MOVWF  xF1
09C44:  MOVWF  xF2
09C46:  MOVLB  0
09C48:  CALL   4962
09C4C:  MOVLW  04
09C4E:  MOVWF  FEA
09C50:  MOVLW  16
09C52:  MOVWF  FE9
09C54:  MOVFF  FF2,5D4
09C58:  BCF    FF2.7
09C5A:  MOVLW  00
09C5C:  CALL   0EEE
09C60:  TBLRD*-
09C62:  TBLRD*+
09C64:  MOVF   FF5,W
09C66:  MOVWF  FEE
09C68:  IORLW  00
09C6A:  BNZ   9C62
09C6C:  MOVLB  5
09C6E:  BTFSC  xD4.7
09C70:  BSF    FF2.7
09C72:  MOVLW  19
09C74:  MOVWF  xED
09C76:  MOVLW  01
09C78:  MOVWF  xEE
09C7A:  MOVLW  04
09C7C:  MOVWF  xF0
09C7E:  MOVLW  16
09C80:  MOVWF  xEF
09C82:  MOVLW  03
09C84:  MOVWF  xF1
09C86:  CLRF   xF2
09C88:  MOVLB  0
09C8A:  CALL   4A24
....................             Menu=0; 
09C8E:  MOVLB  4
09C90:  CLRF   xC8
09C92:  MOVLB  5
....................          } 
....................       } 
....................       else 
09C94:  BRA    9CBA
09C96:  MOVLB  4
....................       { 
....................          Display_off;VelocidadMotor(0);LuzBlanca_off;Aux_off;glcd_fillScreen(OFF);      //Limpia la pantalla 
09C98:  BCF    F8A.1
09C9A:  BCF    F93.1
09C9C:  MOVLB  5
09C9E:  CLRF   xD4
09CA0:  MOVLB  0
09CA2:  CALL   14BA
09CA6:  BSF    F8B.1
09CA8:  BCF    F94.1
09CAA:  BSF    F8B.0
09CAC:  BCF    F94.0
09CAE:  MOVLB  5
09CB0:  CLRF   xDC
09CB2:  MOVLB  0
09CB4:  CALL   1572
09CB8:  MOVLB  5
09CBA:  MOVLB  4
....................       } 
....................     } 
.................... //_--------------------------------------------------------------------------------------------------------------------------------------------------------        
....................    if(tiemporeset>=60) 
09CBC:  MOVF   xCE,W
09CBE:  SUBLW  3B
09CC0:  BC    9CD8
....................    { 
....................       if(Menu!=200){ 
09CC2:  MOVF   xC8,W
09CC4:  SUBLW  C8
09CC6:  BZ    9CD8
....................          glcd_init(ON); 
09CC8:  MOVLW  01
09CCA:  MOVLB  5
09CCC:  MOVWF  xD4
09CCE:  MOVLB  0
09CD0:  CALL   1684
....................          tiemporeset=0; 
09CD4:  MOVLB  4
09CD6:  CLRF   xCE
....................       } 
....................    }  
.................... } 
09CD8:  MOVLB  0
09CDA:  GOTO   60C0
....................  
.................... } 
....................  
09CDE:  SLEEP 

Configuration Fuses:
   Word  1: 0200   HS NOIESO NOFCMEN
   Word  2: 1E1F   BROWNOUT NOWDT BORV21 NOPUT WDT32768
   Word  3: 0000   NOPBADEN NOLPT1OSC NOMCLR
   Word  4: 00B0   NOSTVREN NODEBUG NOLVP NOXINST BBSIZ4K
   Word  5: C00F   NOPROTECT NOCPD NOCPB
   Word  6: E00F   NOWRT NOWRTD NOWRTC NOWRTB
   Word  7: 400F   NOEBTR NOEBTRB
