CCS PCH C Compiler, Version 4.104, 5967               15-ago.-19 13:26

               Filename: H:\JP\JP\Laboratorio\Cabina Extractora de Gases y  Humos\2019\Cabina Extractora Sin Ductos Avantika  #004587976 OP201977\Firmware\CEGH_GLCD.lst

               ROM used: 35938 bytes (37%)
                         Largest free fragment is 32768
               RAM used: 1665 (50%) at main() level
                         1732 (52%) worst case
               Stack:    8 worst case (6 in main + 2 for interrupts)

*
00000:  GOTO   58E4
*
00008:  MOVWF  04
0000A:  MOVFF  FD8,05
0000E:  MOVFF  FE0,06
00012:  MOVLB  0
00014:  MOVFF  FE9,0C
00018:  MOVFF  FEA,07
0001C:  MOVFF  FE1,08
00020:  MOVFF  FE2,09
00024:  MOVFF  FD9,0A
00028:  MOVFF  FDA,0B
0002C:  MOVFF  FF3,12
00030:  MOVFF  FF4,13
00034:  MOVFF  FFA,14
00038:  MOVFF  FFB,15
0003C:  MOVFF  00,0E
00040:  MOVFF  01,0F
00044:  MOVFF  02,10
00048:  MOVFF  03,11
0004C:  BTFSS  FF2.4
0004E:  GOTO   0058
00052:  BTFSC  FF2.1
00054:  GOTO   1278
00058:  MOVFF  0E,00
0005C:  MOVFF  0F,01
00060:  MOVFF  10,02
00064:  MOVFF  11,03
00068:  MOVFF  0C,FE9
0006C:  MOVFF  07,FEA
00070:  BSF    07.7
00072:  MOVFF  08,FE1
00076:  MOVFF  09,FE2
0007A:  MOVFF  0A,FD9
0007E:  MOVFF  0B,FDA
00082:  MOVFF  12,FF3
00086:  MOVFF  13,FF4
0008A:  MOVFF  14,FFA
0008E:  MOVFF  15,FFB
00092:  MOVF   04,W
00094:  MOVFF  06,FE0
00098:  MOVFF  05,FD8
0009C:  RETFIE 0
.................... //Programa para Cabina de Bioseguridad 
....................  
.................... #include <18F4685.h> 
.................... //////// Standard Header file for the PIC18F4685 device //////////////// 
.................... #device PIC18F4685 
.................... #list 
....................  
.................... #device adc=10 
.................... #fuses HS,NOWDT,NOPROTECT,NOLVP,NODEBUG,NOSTVREN,NOPUT,NOCPD,NOWRT,NOIESO,NOFCMEN,NOPBADEN,NOWRTC,NOWRTB,NOEBTR,NOEBTRB,NOCPB,NOXINST,NOLPT1OSC,NOMCLR 
.................... #use delay(clock=20000000) 
*
01258:  MOVLW  03
0125A:  MOVLB  6
0125C:  SUBWF  xC3,F
0125E:  BNC   1274
01260:  MOVLW  06
01262:  MOVWF  FEA
01264:  MOVLW  C3
01266:  MOVWF  FE9
01268:  MOVF   FEF,W
0126A:  BZ    1274
0126C:  BRA    1270
0126E:  BRA    1270
01270:  DECFSZ FEF,F
01272:  BRA    126E
01274:  MOVLB  0
01276:  RETLW  00
*
01346:  MOVLW  06
01348:  MOVWF  FEA
0134A:  MOVLW  86
0134C:  MOVWF  FE9
0134E:  MOVF   FEF,W
01350:  BZ    136C
01352:  MOVLW  06
01354:  MOVWF  01
01356:  CLRF   00
01358:  DECFSZ 00,F
0135A:  BRA    1358
0135C:  DECFSZ 01,F
0135E:  BRA    1356
01360:  MOVLW  7B
01362:  MOVWF  00
01364:  DECFSZ 00,F
01366:  BRA    1364
01368:  DECFSZ FEF,F
0136A:  BRA    1352
0136C:  RETLW  00
.................... #include <MATH.h> 
.................... //////////////////////////////////////////////////////////////////////////// 
.................... ////        (C) Copyright 1996,2008 Custom Computer Services            //// 
.................... //// This source code may only be used by licensed users of the CCS C   //// 
.................... //// compiler.  This source code may only be distributed to other       //// 
.................... //// licensed users of the CCS C compiler.  No other use, reproduction  //// 
.................... //// or distribution is permitted without written permission.           //// 
.................... //// Derivative programs created using this software in object code     //// 
.................... //// form are not restricted in any way.                                //// 
.................... //////////////////////////////////////////////////////////////////////////// 
.................... ////                                                                    //// 
.................... //// History:                                                           //// 
.................... ////  * 9/20/2001 :  Improvments are made to sin/cos code.              //// 
.................... ////                 The code now is small, much faster,                //// 
.................... ////                 and more accurate.                                 //// 
.................... ////  * 2/21/2007 :  Compiler handles & operator differently and does 
.................... ////                 not return generic (int8 *) so type cast is done   //// 
.................... ////                                                                    //// 
.................... //////////////////////////////////////////////////////////////////////////// 
....................  
.................... #ifndef MATH_H 
.................... #define MATH_H 
....................  
.................... #ifdef PI 
.................... #undef  PI 
.................... #endif 
.................... #define PI     3.1415926535897932 
....................  
....................  
.................... #define SQRT2  1.4142135623730950 
....................  
.................... //float const ps[4] = {5.9304945, 21.125224, 8.9403076, 0.29730279}; 
.................... //float const qs[4] = {1.0000000, 15.035723, 17.764134, 2.4934718}; 
....................  
.................... ///////////////////////////// Round Functions ////////////////////////////// 
....................  
.................... float32 CEIL_FLOOR(float32 x, unsigned int8 n) 
.................... { 
....................    float32 y, res; 
....................    unsigned int16 l; 
....................    int1 s; 
....................  
....................    s = 0; 
*
02F9E:  MOVLB  6
02FA0:  BCF    xAD.0
....................    y = x; 
02FA2:  MOVFF  6A1,6A6
02FA6:  MOVFF  6A0,6A5
02FAA:  MOVFF  69F,6A4
02FAE:  MOVFF  69E,6A3
....................  
....................    if (x < 0) 
02FB2:  MOVFF  6A1,6B1
02FB6:  MOVFF  6A0,6B0
02FBA:  MOVFF  69F,6AF
02FBE:  MOVFF  69E,6AE
02FC2:  CLRF   xB5
02FC4:  CLRF   xB4
02FC6:  CLRF   xB3
02FC8:  CLRF   xB2
02FCA:  MOVLB  0
02FCC:  CALL   2424
02FD0:  BNC   2FDC
....................    { 
....................       s = 1; 
02FD2:  MOVLB  6
02FD4:  BSF    xAD.0
....................       y = -y; 
02FD6:  MOVF   xA4,W
02FD8:  XORLW  80
02FDA:  MOVWF  xA4
....................    } 
....................  
....................    if (y <= 32768.0) 
02FDC:  MOVFF  6A6,6B1
02FE0:  MOVFF  6A5,6B0
02FE4:  MOVFF  6A4,6AF
02FE8:  MOVFF  6A3,6AE
02FEC:  MOVLB  6
02FEE:  CLRF   xB5
02FF0:  CLRF   xB4
02FF2:  CLRF   xB3
02FF4:  MOVLW  8E
02FF6:  MOVWF  xB2
02FF8:  MOVLB  0
02FFA:  CALL   2424
02FFE:  BC    3002
03000:  BNZ   3032
....................   res = (float32)(unsigned int16)y; 
03002:  MOVFF  6A6,6B1
03006:  MOVFF  6A5,6B0
0300A:  MOVFF  6A4,6AF
0300E:  MOVFF  6A3,6AE
03012:  RCALL  2E6C
03014:  MOVFF  02,6B3
03018:  MOVFF  01,6B2
0301C:  CALL   1870
03020:  MOVFF  03,6AA
03024:  MOVFF  02,6A9
03028:  MOVFF  01,6A8
0302C:  MOVFF  00,6A7
....................  
....................  else if (y < 10000000.0) 
03030:  BRA    31D0
03032:  MOVFF  6A6,6B1
03036:  MOVFF  6A5,6B0
0303A:  MOVFF  6A4,6AF
0303E:  MOVFF  6A3,6AE
03042:  MOVLW  80
03044:  MOVLB  6
03046:  MOVWF  xB5
03048:  MOVLW  96
0304A:  MOVWF  xB4
0304C:  MOVLW  18
0304E:  MOVWF  xB3
03050:  MOVLW  96
03052:  MOVWF  xB2
03054:  MOVLB  0
03056:  CALL   2424
0305A:  BTFSS  FD8.0
0305C:  BRA    31C0
....................    { 
....................   l = (unsigned int16)(y/32768.0); 
0305E:  MOVFF  6A6,6B1
03062:  MOVFF  6A5,6B0
03066:  MOVFF  6A4,6AF
0306A:  MOVFF  6A3,6AE
0306E:  MOVLB  6
03070:  CLRF   xB5
03072:  CLRF   xB4
03074:  CLRF   xB3
03076:  MOVLW  8E
03078:  MOVWF  xB2
0307A:  MOVLB  0
0307C:  CALL   18A6
03080:  MOVFF  03,6B1
03084:  MOVFF  02,6B0
03088:  MOVFF  01,6AF
0308C:  MOVFF  00,6AE
03090:  RCALL  2E6C
03092:  MOVFF  02,6AC
03096:  MOVFF  01,6AB
....................       y = 32768.0*(y/32768.0 - (float32)l); 
0309A:  MOVFF  6A6,6B1
0309E:  MOVFF  6A5,6B0
030A2:  MOVFF  6A4,6AF
030A6:  MOVFF  6A3,6AE
030AA:  MOVLB  6
030AC:  CLRF   xB5
030AE:  CLRF   xB4
030B0:  CLRF   xB3
030B2:  MOVLW  8E
030B4:  MOVWF  xB2
030B6:  MOVLB  0
030B8:  CALL   18A6
030BC:  MOVFF  00,6AE
030C0:  MOVFF  01,6AF
030C4:  MOVFF  02,6B0
030C8:  MOVFF  03,6B1
030CC:  MOVFF  6AC,6B3
030D0:  MOVFF  6AB,6B2
030D4:  CALL   1870
030D8:  BSF    FD8.1
030DA:  MOVFF  6B1,6B5
030DE:  MOVFF  6B0,6B4
030E2:  MOVFF  6AF,6B3
030E6:  MOVFF  6AE,6B2
030EA:  MOVFF  03,6B9
030EE:  MOVFF  02,6B8
030F2:  MOVFF  01,6B7
030F6:  MOVFF  00,6B6
030FA:  CALL   1A04
030FE:  MOVLB  6
03100:  CLRF   xB1
03102:  CLRF   xB0
03104:  CLRF   xAF
03106:  MOVLW  8E
03108:  MOVWF  xAE
0310A:  MOVFF  03,6B5
0310E:  MOVFF  02,6B4
03112:  MOVFF  01,6B3
03116:  MOVFF  00,6B2
0311A:  MOVLB  0
0311C:  RCALL  2EA8
0311E:  MOVFF  03,6A6
03122:  MOVFF  02,6A5
03126:  MOVFF  01,6A4
0312A:  MOVFF  00,6A3
....................   res = 32768.0*(float32)l; 
0312E:  MOVFF  6AC,6B3
03132:  MOVFF  6AB,6B2
03136:  CALL   1870
0313A:  MOVLB  6
0313C:  CLRF   xB1
0313E:  CLRF   xB0
03140:  CLRF   xAF
03142:  MOVLW  8E
03144:  MOVWF  xAE
03146:  MOVFF  03,6B5
0314A:  MOVFF  02,6B4
0314E:  MOVFF  01,6B3
03152:  MOVFF  00,6B2
03156:  MOVLB  0
03158:  RCALL  2EA8
0315A:  MOVFF  03,6AA
0315E:  MOVFF  02,6A9
03162:  MOVFF  01,6A8
03166:  MOVFF  00,6A7
....................   res += (float32)(unsigned int16)y; 
0316A:  MOVFF  6A6,6B1
0316E:  MOVFF  6A5,6B0
03172:  MOVFF  6A4,6AF
03176:  MOVFF  6A3,6AE
0317A:  RCALL  2E6C
0317C:  MOVFF  02,6B3
03180:  MOVFF  01,6B2
03184:  CALL   1870
03188:  BCF    FD8.1
0318A:  MOVFF  6AA,6B5
0318E:  MOVFF  6A9,6B4
03192:  MOVFF  6A8,6B3
03196:  MOVFF  6A7,6B2
0319A:  MOVFF  03,6B9
0319E:  MOVFF  02,6B8
031A2:  MOVFF  01,6B7
031A6:  MOVFF  00,6B6
031AA:  CALL   1A04
031AE:  MOVFF  03,6AA
031B2:  MOVFF  02,6A9
031B6:  MOVFF  01,6A8
031BA:  MOVFF  00,6A7
....................  } 
....................  
....................  else 
031BE:  BRA    31D0
....................   res = y; 
031C0:  MOVFF  6A6,6AA
031C4:  MOVFF  6A5,6A9
031C8:  MOVFF  6A4,6A8
031CC:  MOVFF  6A3,6A7
....................  
....................  y = y - (float32)(unsigned int16)y; 
031D0:  MOVFF  6A6,6B1
031D4:  MOVFF  6A5,6B0
031D8:  MOVFF  6A4,6AF
031DC:  MOVFF  6A3,6AE
031E0:  RCALL  2E6C
031E2:  MOVFF  02,6B3
031E6:  MOVFF  01,6B2
031EA:  CALL   1870
031EE:  BSF    FD8.1
031F0:  MOVFF  6A6,6B5
031F4:  MOVFF  6A5,6B4
031F8:  MOVFF  6A4,6B3
031FC:  MOVFF  6A3,6B2
03200:  MOVFF  03,6B9
03204:  MOVFF  02,6B8
03208:  MOVFF  01,6B7
0320C:  MOVFF  00,6B6
03210:  CALL   1A04
03214:  MOVFF  03,6A6
03218:  MOVFF  02,6A5
0321C:  MOVFF  01,6A4
03220:  MOVFF  00,6A3
....................  
....................  if (s) 
03224:  MOVLB  6
03226:  BTFSS  xAD.0
03228:  BRA    3230
....................   res = -res; 
0322A:  MOVF   xA8,W
0322C:  XORLW  80
0322E:  MOVWF  xA8
....................  
....................  if (y != 0) 
03230:  MOVFF  6A6,6B1
03234:  MOVFF  6A5,6B0
03238:  MOVFF  6A4,6AF
0323C:  MOVFF  6A3,6AE
03240:  CLRF   xB5
03242:  CLRF   xB4
03244:  CLRF   xB3
03246:  CLRF   xB2
03248:  MOVLB  0
0324A:  CALL   2424
0324E:  BZ    32C8
....................  { 
....................   if (s == 1 && n == 0) 
03250:  MOVLB  6
03252:  BTFSS  xAD.0
03254:  BRA    328E
03256:  MOVF   xA2,F
03258:  BNZ   328E
....................    res -= 1.0; 
0325A:  BSF    FD8.1
0325C:  MOVFF  6AA,6B5
03260:  MOVFF  6A9,6B4
03264:  MOVFF  6A8,6B3
03268:  MOVFF  6A7,6B2
0326C:  CLRF   xB9
0326E:  CLRF   xB8
03270:  CLRF   xB7
03272:  MOVLW  7F
03274:  MOVWF  xB6
03276:  MOVLB  0
03278:  CALL   1A04
0327C:  MOVFF  03,6AA
03280:  MOVFF  02,6A9
03284:  MOVFF  01,6A8
03288:  MOVFF  00,6A7
0328C:  MOVLB  6
....................  
....................   if (s == 0 && n == 1) 
0328E:  BTFSC  xAD.0
03290:  BRA    32CA
03292:  DECFSZ xA2,W
03294:  BRA    32CA
....................    res += 1.0; 
03296:  BCF    FD8.1
03298:  MOVFF  6AA,6B5
0329C:  MOVFF  6A9,6B4
032A0:  MOVFF  6A8,6B3
032A4:  MOVFF  6A7,6B2
032A8:  CLRF   xB9
032AA:  CLRF   xB8
032AC:  CLRF   xB7
032AE:  MOVLW  7F
032B0:  MOVWF  xB6
032B2:  MOVLB  0
032B4:  CALL   1A04
032B8:  MOVFF  03,6AA
032BC:  MOVFF  02,6A9
032C0:  MOVFF  01,6A8
032C4:  MOVFF  00,6A7
032C8:  MOVLB  6
....................  } 
....................  if (x == 0) 
032CA:  MOVFF  6A1,6B1
032CE:  MOVFF  6A0,6B0
032D2:  MOVFF  69F,6AF
032D6:  MOVFF  69E,6AE
032DA:  CLRF   xB5
032DC:  CLRF   xB4
032DE:  CLRF   xB3
032E0:  CLRF   xB2
032E2:  MOVLB  0
032E4:  CALL   2424
032E8:  BNZ   32F6
....................     res = 0; 
032EA:  MOVLB  6
032EC:  CLRF   xAA
032EE:  CLRF   xA9
032F0:  CLRF   xA8
032F2:  CLRF   xA7
032F4:  MOVLB  0
....................  
....................  return (res); 
032F6:  MOVFF  6A7,00
032FA:  MOVFF  6A8,01
032FE:  MOVFF  6A9,02
03302:  MOVFF  6AA,03
.................... } 
03306:  RETLW  00
....................  
.................... // Overloaded Functions to take care for new Data types in PCD 
.................... // Overloaded function CEIL_FLOOR() for data type - Float48 
.................... #if defined(__PCD__) 
.................... float48 CEIL_FLOOR(float48 x, unsigned int8 n) 
.................... { 
....................    float48 y, res; 
....................    unsigned int16 l; 
....................    int1 s; 
....................  
....................    s = 0; 
....................    y = x; 
....................  
....................    if (x < 0) 
....................    { 
....................       s = 1; 
....................       y = -y; 
....................    } 
....................  
....................    if (y <= 32768.0) 
....................   res = (float48)(unsigned int16)y; 
....................  
....................  else if (y < 10000000.0) 
....................    { 
....................   l = (unsigned int16)(y/32768.0); 
....................       y = 32768.0*(y/32768.0 - (float48)l); 
....................   res = 32768.0*(float32)l; 
....................   res += (float48)(unsigned int16)y; 
....................  } 
....................  
....................  else 
....................   res = y; 
....................  
....................  y = y - (float48)(unsigned int16)y; 
....................  
....................  if (s) 
....................   res = -res; 
....................  
....................  if (y != 0) 
....................  { 
....................   if (s == 1 && n == 0) 
....................    res -= 1.0; 
....................  
....................   if (s == 0 && n == 1) 
....................    res += 1.0; 
....................  } 
....................  if (x == 0) 
....................     res = 0; 
....................  
....................  return (res); 
.................... } 
....................  
....................  
.................... // Overloaded function CEIL_FLOOR() for data type - Float64 
.................... float64 CEIL_FLOOR(float64 x, unsigned int8 n) 
.................... { 
....................    float64 y, res; 
....................    unsigned int16 l; 
....................    int1 s; 
....................  
....................    s = 0; 
....................    y = x; 
....................  
....................    if (x < 0) 
....................    { 
....................       s = 1; 
....................       y = -y; 
....................    } 
....................  
....................    if (y <= 32768.0) 
....................   res = (float64)(unsigned int16)y; 
....................  
....................  else if (y < 10000000.0) 
....................    { 
....................   l = (unsigned int16)(y/32768.0); 
....................       y = 32768.0*(y/32768.0 - (float64)l); 
....................   res = 32768.0*(float64)l; 
....................   res += (float64)(unsigned int16)y; 
....................  } 
....................  
....................  else 
....................   res = y; 
....................  
....................  y = y - (float64)(unsigned int16)y; 
....................  
....................  if (s) 
....................   res = -res; 
....................  
....................  if (y != 0) 
....................  { 
....................   if (s == 1 && n == 0) 
....................    res -= 1.0; 
....................  
....................   if (s == 0 && n == 1) 
....................    res += 1.0; 
....................  } 
....................  if (x == 0) 
....................     res = 0; 
....................  
....................  return (res); 
.................... } 
.................... #endif 
....................  
.................... //////////////////////////////////////////////////////////////////////////// 
.................... //   float floor(float x) 
.................... //////////////////////////////////////////////////////////////////////////// 
.................... // Description : rounds down the number x. 
.................... // Date : N/A 
.................... // 
.................... float32 floor(float32 x) 
.................... { 
....................    return CEIL_FLOOR(x, 0); 
*
03326:  MOVFF  69D,6A1
0332A:  MOVFF  69C,6A0
0332E:  MOVFF  69B,69F
03332:  MOVFF  69A,69E
03336:  MOVLB  6
03338:  CLRF   xA2
0333A:  MOVLB  0
0333C:  RCALL  2F9E
.................... } 
0333E:  GOTO   344A (RETURN)
.................... // Following 2 functions are overloaded functions of floor() for PCD 
.................... // Overloaded function floor() for data type - Float48 
.................... #if defined(__PCD__) 
.................... float48 floor(float48 x) 
.................... { 
....................    return CEIL_FLOOR(x, 0); 
.................... } 
....................  
.................... // Overloaded function floor() for data type - Float64 
.................... float64 floor(float64 x) 
.................... { 
....................    return CEIL_FLOOR(x, 0); 
.................... } 
.................... #endif 
....................  
....................  
.................... //////////////////////////////////////////////////////////////////////////// 
.................... //   float ceil(float x) 
.................... //////////////////////////////////////////////////////////////////////////// 
.................... // Description : rounds up the number x. 
.................... // Date : N/A 
.................... // 
.................... float32 ceil(float32 x) 
.................... { 
....................    return CEIL_FLOOR(x, 1); 
*
03308:  MOVFF  69D,6A1
0330C:  MOVFF  69C,6A0
03310:  MOVFF  69B,69F
03314:  MOVFF  69A,69E
03318:  MOVLW  01
0331A:  MOVLB  6
0331C:  MOVWF  xA2
0331E:  MOVLB  0
03320:  RCALL  2F9E
.................... } 
03322:  GOTO   3402 (RETURN)
.................... // Following 2 functions are overloaded functions of ceil() for PCD 
.................... // Overloaded function ceil() for data type - Float48 
.................... #if defined(__PCD__) 
.................... float48 ceil(float48 x) 
.................... { 
....................    return CEIL_FLOOR(x, 1); 
.................... } 
....................  
.................... // Overloaded function ceil() for data type - Float64 
.................... float64 ceil(float64 x) 
.................... { 
....................    return CEIL_FLOOR(x, 1); 
.................... } 
.................... #endif 
....................  
....................  //////////////////////////////////////////////////////////////////////////// 
.................... //   float fabs(float x) 
.................... //////////////////////////////////////////////////////////////////////////// 
.................... // Description : Computes the absolute value of floating point number x 
.................... // Returns : returns the absolute value of x 
.................... // Date : N/A 
.................... // 
.................... #define fabs abs 
....................  
.................... //////////////////////////////////////////////////////////////////////////// 
.................... //   float fmod(float x) 
.................... //////////////////////////////////////////////////////////////////////////// 
.................... // Description : Computes the floating point remainder of x/y 
.................... // Returns : returns the value of x= i*y, for some integer i such that, if y 
.................... // is non zero, the result has the same isgn of x na dmagnitude less than the 
.................... // magnitude of y. If y is zero then a domain error occurs. 
.................... // Date : N/A 
.................... // 
....................  
.................... float fmod(float32 x,float32 y) 
.................... { 
....................    float32 i; 
....................    if (y!=0.0) 
*
03342:  MOVFF  691,6B1
03346:  MOVFF  690,6B0
0334A:  MOVFF  68F,6AF
0334E:  MOVFF  68E,6AE
03352:  MOVLB  6
03354:  CLRF   xB5
03356:  CLRF   xB4
03358:  CLRF   xB3
0335A:  CLRF   xB2
0335C:  MOVLB  0
0335E:  CALL   2424
03362:  BTFSC  FD8.2
03364:  BRA    34A6
....................    { 
....................       i=(x/y < 0.0)? ceil(x/y): floor(x/y); 
03366:  MOVFF  68D,6B1
0336A:  MOVFF  68C,6B0
0336E:  MOVFF  68B,6AF
03372:  MOVFF  68A,6AE
03376:  MOVFF  691,6B5
0337A:  MOVFF  690,6B4
0337E:  MOVFF  68F,6B3
03382:  MOVFF  68E,6B2
03386:  CALL   18A6
0338A:  MOVFF  00,696
0338E:  MOVFF  01,697
03392:  MOVFF  02,698
03396:  MOVFF  03,699
0339A:  MOVFF  03,6B1
0339E:  MOVFF  02,6B0
033A2:  MOVFF  01,6AF
033A6:  MOVFF  00,6AE
033AA:  MOVLB  6
033AC:  CLRF   xB5
033AE:  CLRF   xB4
033B0:  CLRF   xB3
033B2:  CLRF   xB2
033B4:  MOVLB  0
033B6:  CALL   2424
033BA:  BNC   3404
033BC:  MOVFF  68D,6B1
033C0:  MOVFF  68C,6B0
033C4:  MOVFF  68B,6AF
033C8:  MOVFF  68A,6AE
033CC:  MOVFF  691,6B5
033D0:  MOVFF  690,6B4
033D4:  MOVFF  68F,6B3
033D8:  MOVFF  68E,6B2
033DC:  CALL   18A6
033E0:  MOVFF  00,696
033E4:  MOVFF  01,697
033E8:  MOVFF  02,698
033EC:  MOVFF  03,699
033F0:  MOVFF  03,69D
033F4:  MOVFF  02,69C
033F8:  MOVFF  01,69B
033FC:  MOVFF  00,69A
03400:  BRA    3308
03402:  BRA    344A
03404:  MOVFF  68D,6B1
03408:  MOVFF  68C,6B0
0340C:  MOVFF  68B,6AF
03410:  MOVFF  68A,6AE
03414:  MOVFF  691,6B5
03418:  MOVFF  690,6B4
0341C:  MOVFF  68F,6B3
03420:  MOVFF  68E,6B2
03424:  CALL   18A6
03428:  MOVFF  00,696
0342C:  MOVFF  01,697
03430:  MOVFF  02,698
03434:  MOVFF  03,699
03438:  MOVFF  03,69D
0343C:  MOVFF  02,69C
03440:  MOVFF  01,69B
03444:  MOVFF  00,69A
03448:  BRA    3326
0344A:  MOVFF  03,695
0344E:  MOVFF  02,694
03452:  MOVFF  01,693
03456:  MOVFF  00,692
....................       return(x-(i*y)); 
0345A:  MOVFF  695,6B1
0345E:  MOVFF  694,6B0
03462:  MOVFF  693,6AF
03466:  MOVFF  692,6AE
0346A:  MOVFF  691,6B5
0346E:  MOVFF  690,6B4
03472:  MOVFF  68F,6B3
03476:  MOVFF  68E,6B2
0347A:  RCALL  2EA8
0347C:  BSF    FD8.1
0347E:  MOVFF  68D,6B5
03482:  MOVFF  68C,6B4
03486:  MOVFF  68B,6B3
0348A:  MOVFF  68A,6B2
0348E:  MOVFF  03,6B9
03492:  MOVFF  02,6B8
03496:  MOVFF  01,6B7
0349A:  MOVFF  00,6B6
0349E:  CALL   1A04
034A2:  BRA    34A6
....................    } 
....................    else 
034A4:  BRA    34A6
....................    { 
....................    #ifdef _ERRNO 
....................    { 
....................       errno=EDOM; 
....................    } 
....................    #endif 
....................    } 
.................... } 
034A6:  RETLW  00
.................... //Overloaded function for fmod() for PCD 
.................... // Overloaded function fmod() for data type - Float48 
.................... #if defined(__PCD__) 
.................... float48 fmod(float48 x,float48 y) 
.................... { 
....................    float48 i; 
....................    if (y!=0.0) 
....................    { 
....................       i=(x/y < 0.0)? ceil(x/y): floor(x/y); 
....................       return(x-(i*y)); 
....................    } 
....................    else 
....................    { 
....................    #ifdef _ERRNO 
....................    { 
....................       errno=EDOM; 
....................    } 
....................    #endif 
....................    } 
.................... } 
.................... // Overloaded function fmod() for data type - Float64 
.................... float64 fmod(float64 x,float64 y) 
.................... { 
....................    float64 i; 
....................    if (y!=0.0) 
....................    { 
....................       i=(x/y < 0.0)? ceil(x/y): floor(x/y); 
....................       return(x-(i*y)); 
....................    } 
....................    else 
....................    { 
....................    #ifdef _ERRNO 
....................    { 
....................       errno=EDOM; 
....................    } 
....................    #endif 
....................    } 
.................... } 
.................... #endif 
.................... //////////////////// Exponential and logarithmic functions //////////////////// 
.................... //////////////////////////////////////////////////////////////////////////// 
.................... //   float exp(float x) 
.................... //////////////////////////////////////////////////////////////////////////// 
.................... // Description : returns the value (e^x) 
.................... // Date : N/A 
.................... // 
.................... #define LN2 0.6931471805599453 
....................  
.................... float const pe[6] = {0.000207455774, 0.00127100575, 0.00965065093, 
....................                      0.0554965651,  0.240227138,  0.693147172}; 
....................  
....................  
.................... float32 exp(float32 x) 
.................... { 
....................    float32 y, res, r; 
....................    #if defined(__PCD__) 
....................    int8 data1; 
....................    #endif 
....................    signed int8 n; 
....................    int1 s; 
....................    #ifdef _ERRNO 
....................    if(x > 88.722838) 
....................    { 
....................       errno=ERANGE; 
....................       return(0); 
....................    } 
....................    #endif 
....................    n = (signed int16)(x/LN2); 
*
039D2:  MOVFF  691,6B1
039D6:  MOVFF  690,6B0
039DA:  MOVFF  68F,6AF
039DE:  MOVFF  68E,6AE
039E2:  MOVLW  18
039E4:  MOVLB  6
039E6:  MOVWF  xB5
039E8:  MOVLW  72
039EA:  MOVWF  xB4
039EC:  MOVLW  31
039EE:  MOVWF  xB3
039F0:  MOVLW  7E
039F2:  MOVWF  xB2
039F4:  MOVLB  0
039F6:  CALL   18A6
039FA:  MOVFF  03,6B1
039FE:  MOVFF  02,6B0
03A02:  MOVFF  01,6AF
03A06:  MOVFF  00,6AE
03A0A:  CALL   2E6C
03A0E:  MOVFF  01,69E
....................    s = 0; 
03A12:  MOVLB  6
03A14:  BCF    x9F.0
....................    y = x; 
03A16:  MOVFF  691,695
03A1A:  MOVFF  690,694
03A1E:  MOVFF  68F,693
03A22:  MOVFF  68E,692
....................  
....................    if (x < 0) 
03A26:  MOVFF  691,6B1
03A2A:  MOVFF  690,6B0
03A2E:  MOVFF  68F,6AF
03A32:  MOVFF  68E,6AE
03A36:  CLRF   xB5
03A38:  CLRF   xB4
03A3A:  CLRF   xB3
03A3C:  CLRF   xB2
03A3E:  MOVLB  0
03A40:  CALL   2424
03A44:  BNC   3A52
....................    { 
....................       s = 1; 
03A46:  MOVLB  6
03A48:  BSF    x9F.0
....................       n = -n; 
03A4A:  NEGF   x9E
....................       y = -y; 
03A4C:  MOVF   x93,W
03A4E:  XORLW  80
03A50:  MOVWF  x93
....................    } 
....................  
....................    res = 0.0; 
03A52:  MOVLB  6
03A54:  CLRF   x99
03A56:  CLRF   x98
03A58:  CLRF   x97
03A5A:  CLRF   x96
.................... #if !defined(__PCD__) 
....................    *((unsigned int8 *)(&res)) = n + 0x7F; 
03A5C:  MOVLW  06
03A5E:  MOVWF  xA1
03A60:  MOVLW  96
03A62:  MOVWF  FE9
03A64:  MOVFF  6A1,FEA
03A68:  MOVLW  7F
03A6A:  ADDWF  x9E,W
03A6C:  MOVWF  FEF
.................... #endif 
....................  
.................... #if defined(__PCD__)  // Takes care of IEEE format for PCD 
....................    data1 = n+0x7F; 
....................    if(bit_test(data1,0)) 
....................    bit_set(*(((unsigned int8 *)(&res)+2)),7); 
....................    rotate_right(&data1,1); 
....................    bit_clear(data1,7); 
....................    *(((unsigned int8 *)(&res)+3)) = data1; 
.................... #endif 
....................  
....................    y = y/LN2 - (float32)n; 
03A6E:  MOVFF  695,6B1
03A72:  MOVFF  694,6B0
03A76:  MOVFF  693,6AF
03A7A:  MOVFF  692,6AE
03A7E:  MOVLW  18
03A80:  MOVWF  xB5
03A82:  MOVLW  72
03A84:  MOVWF  xB4
03A86:  MOVLW  31
03A88:  MOVWF  xB3
03A8A:  MOVLW  7E
03A8C:  MOVWF  xB2
03A8E:  MOVLB  0
03A90:  CALL   18A6
03A94:  MOVFF  00,6A0
03A98:  MOVFF  01,6A1
03A9C:  MOVFF  02,6A2
03AA0:  MOVFF  03,6A3
03AA4:  MOVLB  6
03AA6:  CLRF   xA5
03AA8:  MOVFF  69E,6A4
03AAC:  BTFSC  xA4.7
03AAE:  DECF   xA5,F
03AB0:  MOVLB  0
03AB2:  RCALL  34A8
03AB4:  BSF    FD8.1
03AB6:  MOVFF  6A3,6B5
03ABA:  MOVFF  6A2,6B4
03ABE:  MOVFF  6A1,6B3
03AC2:  MOVFF  6A0,6B2
03AC6:  MOVFF  03,6B9
03ACA:  MOVFF  02,6B8
03ACE:  MOVFF  01,6B7
03AD2:  MOVFF  00,6B6
03AD6:  CALL   1A04
03ADA:  MOVFF  03,695
03ADE:  MOVFF  02,694
03AE2:  MOVFF  01,693
03AE6:  MOVFF  00,692
....................  
....................    r = pe[0]*y + pe[1]; 
03AEA:  MOVLW  7C
03AEC:  MOVLB  6
03AEE:  MOVWF  xB1
03AF0:  MOVLW  88
03AF2:  MOVWF  xB0
03AF4:  MOVLW  59
03AF6:  MOVWF  xAF
03AF8:  MOVLW  72
03AFA:  MOVWF  xAE
03AFC:  MOVFF  695,6B5
03B00:  MOVFF  694,6B4
03B04:  MOVFF  693,6B3
03B08:  MOVFF  692,6B2
03B0C:  MOVLB  0
03B0E:  CALL   2EA8
03B12:  MOVFF  00,6A0
03B16:  MOVFF  01,6A1
03B1A:  MOVFF  02,6A2
03B1E:  MOVFF  03,6A3
03B22:  BCF    FD8.1
03B24:  MOVFF  03,6B5
03B28:  MOVFF  02,6B4
03B2C:  MOVFF  01,6B3
03B30:  MOVFF  00,6B2
03B34:  MOVLW  E0
03B36:  MOVLB  6
03B38:  MOVWF  xB9
03B3A:  MOVLW  97
03B3C:  MOVWF  xB8
03B3E:  MOVLW  26
03B40:  MOVWF  xB7
03B42:  MOVLW  75
03B44:  MOVWF  xB6
03B46:  MOVLB  0
03B48:  CALL   1A04
03B4C:  MOVFF  03,69D
03B50:  MOVFF  02,69C
03B54:  MOVFF  01,69B
03B58:  MOVFF  00,69A
....................    r = r*y + pe[2]; 
03B5C:  MOVFF  69D,6B1
03B60:  MOVFF  69C,6B0
03B64:  MOVFF  69B,6AF
03B68:  MOVFF  69A,6AE
03B6C:  MOVFF  695,6B5
03B70:  MOVFF  694,6B4
03B74:  MOVFF  693,6B3
03B78:  MOVFF  692,6B2
03B7C:  CALL   2EA8
03B80:  MOVFF  00,6A0
03B84:  MOVFF  01,6A1
03B88:  MOVFF  02,6A2
03B8C:  MOVFF  03,6A3
03B90:  BCF    FD8.1
03B92:  MOVFF  03,6B5
03B96:  MOVFF  02,6B4
03B9A:  MOVFF  01,6B3
03B9E:  MOVFF  00,6B2
03BA2:  MOVLW  C4
03BA4:  MOVLB  6
03BA6:  MOVWF  xB9
03BA8:  MOVLW  1D
03BAA:  MOVWF  xB8
03BAC:  MOVLW  1E
03BAE:  MOVWF  xB7
03BB0:  MOVLW  78
03BB2:  MOVWF  xB6
03BB4:  MOVLB  0
03BB6:  CALL   1A04
03BBA:  MOVFF  03,69D
03BBE:  MOVFF  02,69C
03BC2:  MOVFF  01,69B
03BC6:  MOVFF  00,69A
....................    r = r*y + pe[3]; 
03BCA:  MOVFF  69D,6B1
03BCE:  MOVFF  69C,6B0
03BD2:  MOVFF  69B,6AF
03BD6:  MOVFF  69A,6AE
03BDA:  MOVFF  695,6B5
03BDE:  MOVFF  694,6B4
03BE2:  MOVFF  693,6B3
03BE6:  MOVFF  692,6B2
03BEA:  CALL   2EA8
03BEE:  MOVFF  00,6A0
03BF2:  MOVFF  01,6A1
03BF6:  MOVFF  02,6A2
03BFA:  MOVFF  03,6A3
03BFE:  BCF    FD8.1
03C00:  MOVFF  03,6B5
03C04:  MOVFF  02,6B4
03C08:  MOVFF  01,6B3
03C0C:  MOVFF  00,6B2
03C10:  MOVLW  5E
03C12:  MOVLB  6
03C14:  MOVWF  xB9
03C16:  MOVLW  50
03C18:  MOVWF  xB8
03C1A:  MOVLW  63
03C1C:  MOVWF  xB7
03C1E:  MOVLW  7A
03C20:  MOVWF  xB6
03C22:  MOVLB  0
03C24:  CALL   1A04
03C28:  MOVFF  03,69D
03C2C:  MOVFF  02,69C
03C30:  MOVFF  01,69B
03C34:  MOVFF  00,69A
....................    r = r*y + pe[4]; 
03C38:  MOVFF  69D,6B1
03C3C:  MOVFF  69C,6B0
03C40:  MOVFF  69B,6AF
03C44:  MOVFF  69A,6AE
03C48:  MOVFF  695,6B5
03C4C:  MOVFF  694,6B4
03C50:  MOVFF  693,6B3
03C54:  MOVFF  692,6B2
03C58:  CALL   2EA8
03C5C:  MOVFF  00,6A0
03C60:  MOVFF  01,6A1
03C64:  MOVFF  02,6A2
03C68:  MOVFF  03,6A3
03C6C:  BCF    FD8.1
03C6E:  MOVFF  03,6B5
03C72:  MOVFF  02,6B4
03C76:  MOVFF  01,6B3
03C7A:  MOVFF  00,6B2
03C7E:  MOVLW  1A
03C80:  MOVLB  6
03C82:  MOVWF  xB9
03C84:  MOVLW  FE
03C86:  MOVWF  xB8
03C88:  MOVLW  75
03C8A:  MOVWF  xB7
03C8C:  MOVLW  7C
03C8E:  MOVWF  xB6
03C90:  MOVLB  0
03C92:  CALL   1A04
03C96:  MOVFF  03,69D
03C9A:  MOVFF  02,69C
03C9E:  MOVFF  01,69B
03CA2:  MOVFF  00,69A
....................    r = r*y + pe[5]; 
03CA6:  MOVFF  69D,6B1
03CAA:  MOVFF  69C,6B0
03CAE:  MOVFF  69B,6AF
03CB2:  MOVFF  69A,6AE
03CB6:  MOVFF  695,6B5
03CBA:  MOVFF  694,6B4
03CBE:  MOVFF  693,6B3
03CC2:  MOVFF  692,6B2
03CC6:  CALL   2EA8
03CCA:  MOVFF  00,6A0
03CCE:  MOVFF  01,6A1
03CD2:  MOVFF  02,6A2
03CD6:  MOVFF  03,6A3
03CDA:  BCF    FD8.1
03CDC:  MOVFF  03,6B5
03CE0:  MOVFF  02,6B4
03CE4:  MOVFF  01,6B3
03CE8:  MOVFF  00,6B2
03CEC:  MOVLW  18
03CEE:  MOVLB  6
03CF0:  MOVWF  xB9
03CF2:  MOVLW  72
03CF4:  MOVWF  xB8
03CF6:  MOVLW  31
03CF8:  MOVWF  xB7
03CFA:  MOVLW  7E
03CFC:  MOVWF  xB6
03CFE:  MOVLB  0
03D00:  CALL   1A04
03D04:  MOVFF  03,69D
03D08:  MOVFF  02,69C
03D0C:  MOVFF  01,69B
03D10:  MOVFF  00,69A
....................  
....................    res = res*(1.0 + y*r); 
03D14:  MOVFF  695,6B1
03D18:  MOVFF  694,6B0
03D1C:  MOVFF  693,6AF
03D20:  MOVFF  692,6AE
03D24:  MOVFF  69D,6B5
03D28:  MOVFF  69C,6B4
03D2C:  MOVFF  69B,6B3
03D30:  MOVFF  69A,6B2
03D34:  CALL   2EA8
03D38:  BCF    FD8.1
03D3A:  MOVLB  6
03D3C:  CLRF   xB5
03D3E:  CLRF   xB4
03D40:  CLRF   xB3
03D42:  MOVLW  7F
03D44:  MOVWF  xB2
03D46:  MOVFF  03,6B9
03D4A:  MOVFF  02,6B8
03D4E:  MOVFF  01,6B7
03D52:  MOVFF  00,6B6
03D56:  MOVLB  0
03D58:  CALL   1A04
03D5C:  MOVFF  699,6B1
03D60:  MOVFF  698,6B0
03D64:  MOVFF  697,6AF
03D68:  MOVFF  696,6AE
03D6C:  MOVFF  03,6B5
03D70:  MOVFF  02,6B4
03D74:  MOVFF  01,6B3
03D78:  MOVFF  00,6B2
03D7C:  CALL   2EA8
03D80:  MOVFF  03,699
03D84:  MOVFF  02,698
03D88:  MOVFF  01,697
03D8C:  MOVFF  00,696
....................  
....................    if (s) 
03D90:  MOVLB  6
03D92:  BTFSS  x9F.0
03D94:  BRA    3DC8
....................       res = 1.0/res; 
03D96:  CLRF   xB1
03D98:  CLRF   xB0
03D9A:  CLRF   xAF
03D9C:  MOVLW  7F
03D9E:  MOVWF  xAE
03DA0:  MOVFF  699,6B5
03DA4:  MOVFF  698,6B4
03DA8:  MOVFF  697,6B3
03DAC:  MOVFF  696,6B2
03DB0:  MOVLB  0
03DB2:  CALL   18A6
03DB6:  MOVFF  03,699
03DBA:  MOVFF  02,698
03DBE:  MOVFF  01,697
03DC2:  MOVFF  00,696
03DC6:  MOVLB  6
....................    return(res); 
03DC8:  MOVFF  696,00
03DCC:  MOVFF  697,01
03DD0:  MOVFF  698,02
03DD4:  MOVFF  699,03
.................... } 
03DD8:  MOVLB  0
03DDA:  RETLW  00
....................  
....................  
.................... //Overloaded function for exp() for PCD 
.................... // Overloaded function exp() for data type - Float48 
.................... #if defined(__PCD__) 
.................... float48 exp(float48 x) 
.................... { 
....................    float48 y, res, r; 
....................    int8 data1; 
....................    signed int8 n; 
....................    int1 s; 
....................    #ifdef _ERRNO 
....................    if(x > 88.722838) 
....................    { 
....................       errno=ERANGE; 
....................       return(0); 
....................    } 
....................    #endif 
....................    n = (signed int16)(x/LN2); 
....................    s = 0; 
....................    y = x; 
....................  
....................    if (x < 0) 
....................    { 
....................       s = 1; 
....................       n = -n; 
....................       y = -y; 
....................    } 
....................  
....................    res = 0.0; 
....................  
....................    data1 = n+0x7F; 
....................    if(bit_test(data1,0)) 
....................    bit_set(*(((unsigned int8 *)(&res)+4)),7); 
....................    rotate_right(&data1,1); 
....................    bit_clear(data1,7); 
....................    *(((unsigned int8 *)(&res)+5)) = data1; 
....................  
....................    y = y/LN2 - (float48)n; 
....................  
....................    r = pe[0]*y + pe[1]; 
....................    r = r*y + pe[2]; 
....................    r = r*y + pe[3]; 
....................    r = r*y + pe[4]; 
....................    r = r*y + pe[5]; 
....................  
....................    res = res*(1.0 + y*r); 
....................  
....................    if (s) 
....................       res = 1.0/res; 
....................    return(res); 
.................... } 
....................  
.................... // Overloaded function exp() for data type - Float64 
.................... float64 exp(float64 x) 
.................... { 
....................    float64 y, res, r; 
....................    unsigned int16 data1, data2; 
....................    unsigned int16 *p; 
....................    signed int16 n; 
....................    int1 s; 
....................    #ifdef _ERRNO 
....................    if(x > 709.7827128) 
....................    { 
....................       errno=ERANGE; 
....................       return(0); 
....................    } 
....................    #endif 
....................    n = (signed int16)(x/LN2); 
....................    s = 0; 
....................    y = x; 
....................  
....................    if (x < 0) 
....................    { 
....................       s = 1; 
....................       n = -n; 
....................       y = -y; 
....................    } 
....................  
....................    res = 0.0; 
....................  
.................... #if !defined(__PCD__) 
....................    *((unsigned int16 *)(&res)) = n + 0x7F; 
.................... #endif 
....................    p= (((unsigned int16 *)(&res))+3); 
....................    data1 = *p; 
....................    data2 = *p;    
....................    data1 = n + 0x3FF; 
....................    data1 = data1 <<4; 
....................    if(bit_test(data2,15)) 
....................    bit_set(data1,15); 
....................    data2 = data2 & 0x000F; 
....................    data1 ^= data2; 
....................  
....................    *(((unsigned int16 *)(&res)+3)) = data1; 
....................  
....................  
....................    y = y/LN2 - (float64)n; 
....................  
....................    r = pe[0]*y + pe[1]; 
....................    r = r*y + pe[2]; 
....................    r = r*y + pe[3]; 
....................    r = r*y + pe[4]; 
....................    r = r*y + pe[5]; 
....................  
....................    res = res*(1.0 + y*r); 
....................  
....................    if (s) 
....................       res = 1.0/res; 
....................    return(res); 
.................... } 
....................  
.................... #ENDIF 
....................  
....................  
.................... /************************************************************/ 
....................  
.................... float32 const pl[4] = {0.45145214, -9.0558803, 26.940971, -19.860189}; 
.................... float32 const ql[4] = {1.0000000,  -8.1354259, 16.780517, -9.9300943}; 
....................  
.................... //////////////////////////////////////////////////////////////////////////// 
.................... //   float log(float x) 
.................... //////////////////////////////////////////////////////////////////////////// 
.................... // Description : returns the the natural log of x 
.................... // Date : N/A 
.................... // 
.................... float32 log(float32 x) 
.................... { 
....................    float32 y, res, r, y2; 
....................    #if defined(__PCD__) 
....................    unsigned int8  data1,data2; 
....................    #endif 
....................    signed int8 n; 
....................    #ifdef _ERRNO 
....................    if(x <0) 
....................    { 
....................       errno=EDOM; 
....................    } 
....................    if(x ==0) 
....................    { 
....................       errno=ERANGE; 
....................       return(0); 
....................    } 
....................    #endif 
....................    y = x; 
*
034F8:  MOVFF  691,695
034FC:  MOVFF  690,694
03500:  MOVFF  68F,693
03504:  MOVFF  68E,692
....................  
....................    if (y != 1.0) 
03508:  MOVFF  695,6B1
0350C:  MOVFF  694,6B0
03510:  MOVFF  693,6AF
03514:  MOVFF  692,6AE
03518:  MOVLB  6
0351A:  CLRF   xB5
0351C:  CLRF   xB4
0351E:  CLRF   xB3
03520:  MOVLW  7F
03522:  MOVWF  xB2
03524:  MOVLB  0
03526:  CALL   2424
0352A:  BTFSC  FD8.2
0352C:  BRA    39B4
....................    { 
.................... #if !defined(__PCD__) 
....................     *((unsigned int8 *)(&y)) = 0x7E;  
0352E:  MOVLW  06
03530:  MOVLB  6
03532:  MOVWF  xA4
03534:  MOVLW  92
03536:  MOVWF  FE9
03538:  MOVFF  6A4,FEA
0353C:  MOVLW  7E
0353E:  MOVWF  FEF
.................... #endif 
....................  
.................... #if defined(__PCD__) // Takes care of IEEE format 
....................    data2 = *(((unsigned int8 *)(&y))+3); 
....................    *(((unsigned int8 *)(&y))+3) = 0x3F; 
....................    data1 = *(((unsigned int8 *)(&y))+2); 
....................    bit_clear(data1,7); 
....................    *(((unsigned int8 *)(&y))+2) = data1; 
....................    if(bit_test(data2,7)) 
....................    bit_set(*(((unsigned int8 *)(&y))+3),7); 
.................... #endif 
....................  
....................       y = (y - 1.0)/(y + 1.0); 
03540:  BSF    FD8.1
03542:  MOVFF  695,6B5
03546:  MOVFF  694,6B4
0354A:  MOVFF  693,6B3
0354E:  MOVFF  692,6B2
03552:  CLRF   xB9
03554:  CLRF   xB8
03556:  CLRF   xB7
03558:  MOVLW  7F
0355A:  MOVWF  xB6
0355C:  MOVLB  0
0355E:  CALL   1A04
03562:  MOVFF  00,6A3
03566:  MOVFF  01,6A4
0356A:  MOVFF  02,6A5
0356E:  MOVFF  03,6A6
03572:  BCF    FD8.1
03574:  MOVFF  695,6B5
03578:  MOVFF  694,6B4
0357C:  MOVFF  693,6B3
03580:  MOVFF  692,6B2
03584:  MOVLB  6
03586:  CLRF   xB9
03588:  CLRF   xB8
0358A:  CLRF   xB7
0358C:  MOVLW  7F
0358E:  MOVWF  xB6
03590:  MOVLB  0
03592:  CALL   1A04
03596:  MOVFF  6A6,6B1
0359A:  MOVFF  6A5,6B0
0359E:  MOVFF  6A4,6AF
035A2:  MOVFF  6A3,6AE
035A6:  MOVFF  03,6B5
035AA:  MOVFF  02,6B4
035AE:  MOVFF  01,6B3
035B2:  MOVFF  00,6B2
035B6:  CALL   18A6
035BA:  MOVFF  03,695
035BE:  MOVFF  02,694
035C2:  MOVFF  01,693
035C6:  MOVFF  00,692
....................  
....................       y2=y*y; 
035CA:  MOVFF  695,6B1
035CE:  MOVFF  694,6B0
035D2:  MOVFF  693,6AF
035D6:  MOVFF  692,6AE
035DA:  MOVFF  695,6B5
035DE:  MOVFF  694,6B4
035E2:  MOVFF  693,6B3
035E6:  MOVFF  692,6B2
035EA:  RCALL  2EA8
035EC:  MOVFF  03,6A1
035F0:  MOVFF  02,6A0
035F4:  MOVFF  01,69F
035F8:  MOVFF  00,69E
....................  
....................       res = pl[0]*y2 + pl[1]; 
035FC:  MOVLW  BC
035FE:  MOVLB  6
03600:  MOVWF  xB1
03602:  MOVLW  24
03604:  MOVWF  xB0
03606:  MOVLW  67
03608:  MOVWF  xAF
0360A:  MOVLW  7D
0360C:  MOVWF  xAE
0360E:  MOVFF  6A1,6B5
03612:  MOVFF  6A0,6B4
03616:  MOVFF  69F,6B3
0361A:  MOVFF  69E,6B2
0361E:  MOVLB  0
03620:  RCALL  2EA8
03622:  MOVFF  00,6A3
03626:  MOVFF  01,6A4
0362A:  MOVFF  02,6A5
0362E:  MOVFF  03,6A6
03632:  BCF    FD8.1
03634:  MOVFF  03,6B5
03638:  MOVFF  02,6B4
0363C:  MOVFF  01,6B3
03640:  MOVFF  00,6B2
03644:  MOVLW  E3
03646:  MOVLB  6
03648:  MOVWF  xB9
0364A:  MOVLW  E4
0364C:  MOVWF  xB8
0364E:  MOVLW  90
03650:  MOVWF  xB7
03652:  MOVLW  82
03654:  MOVWF  xB6
03656:  MOVLB  0
03658:  CALL   1A04
0365C:  MOVFF  03,699
03660:  MOVFF  02,698
03664:  MOVFF  01,697
03668:  MOVFF  00,696
....................       res = res*y2 + pl[2]; 
0366C:  MOVFF  699,6B1
03670:  MOVFF  698,6B0
03674:  MOVFF  697,6AF
03678:  MOVFF  696,6AE
0367C:  MOVFF  6A1,6B5
03680:  MOVFF  6A0,6B4
03684:  MOVFF  69F,6B3
03688:  MOVFF  69E,6B2
0368C:  RCALL  2EA8
0368E:  MOVFF  00,6A3
03692:  MOVFF  01,6A4
03696:  MOVFF  02,6A5
0369A:  MOVFF  03,6A6
0369E:  BCF    FD8.1
036A0:  MOVFF  03,6B5
036A4:  MOVFF  02,6B4
036A8:  MOVFF  01,6B3
036AC:  MOVFF  00,6B2
036B0:  MOVLW  1C
036B2:  MOVLB  6
036B4:  MOVWF  xB9
036B6:  MOVLW  87
036B8:  MOVWF  xB8
036BA:  MOVLW  57
036BC:  MOVWF  xB7
036BE:  MOVLW  83
036C0:  MOVWF  xB6
036C2:  MOVLB  0
036C4:  CALL   1A04
036C8:  MOVFF  03,699
036CC:  MOVFF  02,698
036D0:  MOVFF  01,697
036D4:  MOVFF  00,696
....................       res = res*y2 + pl[3]; 
036D8:  MOVFF  699,6B1
036DC:  MOVFF  698,6B0
036E0:  MOVFF  697,6AF
036E4:  MOVFF  696,6AE
036E8:  MOVFF  6A1,6B5
036EC:  MOVFF  6A0,6B4
036F0:  MOVFF  69F,6B3
036F4:  MOVFF  69E,6B2
036F8:  CALL   2EA8
036FC:  MOVFF  00,6A3
03700:  MOVFF  01,6A4
03704:  MOVFF  02,6A5
03708:  MOVFF  03,6A6
0370C:  BCF    FD8.1
0370E:  MOVFF  03,6B5
03712:  MOVFF  02,6B4
03716:  MOVFF  01,6B3
0371A:  MOVFF  00,6B2
0371E:  MOVLW  AB
03720:  MOVLB  6
03722:  MOVWF  xB9
03724:  MOVLW  E1
03726:  MOVWF  xB8
03728:  MOVLW  9E
0372A:  MOVWF  xB7
0372C:  MOVLW  83
0372E:  MOVWF  xB6
03730:  MOVLB  0
03732:  CALL   1A04
03736:  MOVFF  03,699
0373A:  MOVFF  02,698
0373E:  MOVFF  01,697
03742:  MOVFF  00,696
....................  
....................       r = ql[0]*y2 + ql[1]; 
03746:  MOVLB  6
03748:  CLRF   xB1
0374A:  CLRF   xB0
0374C:  CLRF   xAF
0374E:  MOVLW  7F
03750:  MOVWF  xAE
03752:  MOVFF  6A1,6B5
03756:  MOVFF  6A0,6B4
0375A:  MOVFF  69F,6B3
0375E:  MOVFF  69E,6B2
03762:  MOVLB  0
03764:  CALL   2EA8
03768:  MOVFF  00,6A3
0376C:  MOVFF  01,6A4
03770:  MOVFF  02,6A5
03774:  MOVFF  03,6A6
03778:  BCF    FD8.1
0377A:  MOVFF  03,6B5
0377E:  MOVFF  02,6B4
03782:  MOVFF  01,6B3
03786:  MOVFF  00,6B2
0378A:  MOVLW  B4
0378C:  MOVLB  6
0378E:  MOVWF  xB9
03790:  MOVLW  2A
03792:  MOVWF  xB8
03794:  MOVLW  82
03796:  MOVWF  xB7
03798:  MOVWF  xB6
0379A:  MOVLB  0
0379C:  CALL   1A04
037A0:  MOVFF  03,69D
037A4:  MOVFF  02,69C
037A8:  MOVFF  01,69B
037AC:  MOVFF  00,69A
....................       r = r*y2 + ql[2]; 
037B0:  MOVFF  69D,6B1
037B4:  MOVFF  69C,6B0
037B8:  MOVFF  69B,6AF
037BC:  MOVFF  69A,6AE
037C0:  MOVFF  6A1,6B5
037C4:  MOVFF  6A0,6B4
037C8:  MOVFF  69F,6B3
037CC:  MOVFF  69E,6B2
037D0:  CALL   2EA8
037D4:  MOVFF  00,6A3
037D8:  MOVFF  01,6A4
037DC:  MOVFF  02,6A5
037E0:  MOVFF  03,6A6
037E4:  BCF    FD8.1
037E6:  MOVFF  03,6B5
037EA:  MOVFF  02,6B4
037EE:  MOVFF  01,6B3
037F2:  MOVFF  00,6B2
037F6:  MOVLW  80
037F8:  MOVLB  6
037FA:  MOVWF  xB9
037FC:  MOVLW  3E
037FE:  MOVWF  xB8
03800:  MOVLW  06
03802:  MOVWF  xB7
03804:  MOVLW  83
03806:  MOVWF  xB6
03808:  MOVLB  0
0380A:  CALL   1A04
0380E:  MOVFF  03,69D
03812:  MOVFF  02,69C
03816:  MOVFF  01,69B
0381A:  MOVFF  00,69A
....................       r = r*y2 + ql[3]; 
0381E:  MOVFF  69D,6B1
03822:  MOVFF  69C,6B0
03826:  MOVFF  69B,6AF
0382A:  MOVFF  69A,6AE
0382E:  MOVFF  6A1,6B5
03832:  MOVFF  6A0,6B4
03836:  MOVFF  69F,6B3
0383A:  MOVFF  69E,6B2
0383E:  CALL   2EA8
03842:  MOVFF  00,6A3
03846:  MOVFF  01,6A4
0384A:  MOVFF  02,6A5
0384E:  MOVFF  03,6A6
03852:  BCF    FD8.1
03854:  MOVFF  03,6B5
03858:  MOVFF  02,6B4
0385C:  MOVFF  01,6B3
03860:  MOVFF  00,6B2
03864:  MOVLW  AB
03866:  MOVLB  6
03868:  MOVWF  xB9
0386A:  MOVLW  E1
0386C:  MOVWF  xB8
0386E:  MOVLW  9E
03870:  MOVWF  xB7
03872:  MOVLW  82
03874:  MOVWF  xB6
03876:  MOVLB  0
03878:  CALL   1A04
0387C:  MOVFF  03,69D
03880:  MOVFF  02,69C
03884:  MOVFF  01,69B
03888:  MOVFF  00,69A
....................  
....................       res = y*res/r; 
0388C:  MOVFF  695,6B1
03890:  MOVFF  694,6B0
03894:  MOVFF  693,6AF
03898:  MOVFF  692,6AE
0389C:  MOVFF  699,6B5
038A0:  MOVFF  698,6B4
038A4:  MOVFF  697,6B3
038A8:  MOVFF  696,6B2
038AC:  CALL   2EA8
038B0:  MOVFF  00,6A3
038B4:  MOVFF  01,6A4
038B8:  MOVFF  02,6A5
038BC:  MOVFF  03,6A6
038C0:  MOVFF  03,6B1
038C4:  MOVFF  02,6B0
038C8:  MOVFF  01,6AF
038CC:  MOVFF  00,6AE
038D0:  MOVFF  69D,6B5
038D4:  MOVFF  69C,6B4
038D8:  MOVFF  69B,6B3
038DC:  MOVFF  69A,6B2
038E0:  CALL   18A6
038E4:  MOVFF  03,699
038E8:  MOVFF  02,698
038EC:  MOVFF  01,697
038F0:  MOVFF  00,696
.................... #if !defined(__PCD__) 
....................       n = *((unsigned int8 *)(&x)) - 0x7E; 
038F4:  MOVLW  06
038F6:  MOVLB  6
038F8:  MOVWF  xA4
038FA:  MOVLW  8E
038FC:  MOVWF  FE9
038FE:  MOVFF  6A4,FEA
03902:  MOVLW  7E
03904:  SUBWF  FEF,W
03906:  MOVWF  xA2
.................... #endif 
.................... #if defined(__PCD__)  
....................     data1 = *(((unsigned int8 *)(&x)+3)); 
....................     rotate_left(&data1,1); 
....................     data2 = *(((unsigned int8 *)(&x)+2)); 
....................     if(bit_test (data2,7)) 
....................       bit_set(data1,0); 
....................     n = data1 - 0x7E; 
.................... #endif 
....................  
....................       if (n<0)  
03908:  BTFSC  xA2.7
0390A:  BRA    390E
0390C:  BRA    3936
....................          r = -(float32)-n; 
0390E:  MOVLW  00
03910:  BSF    FD8.0
03912:  SUBFWB xA2,W
03914:  CLRF   xA5
03916:  MOVWF  xA4
03918:  BTFSC  xA4.7
0391A:  DECF   xA5,F
0391C:  MOVLB  0
0391E:  RCALL  34A8
03920:  MOVFF  00,69A
03924:  MOVF   01,W
03926:  XORLW  80
03928:  MOVLB  6
0392A:  MOVWF  x9B
0392C:  MOVFF  02,69C
03930:  MOVFF  03,69D
....................       else 
03934:  BRA    3956
....................          r = (float32)n; 
03936:  CLRF   xA5
03938:  MOVFF  6A2,6A4
0393C:  BTFSC  xA4.7
0393E:  DECF   xA5,F
03940:  MOVLB  0
03942:  RCALL  34A8
03944:  MOVFF  03,69D
03948:  MOVFF  02,69C
0394C:  MOVFF  01,69B
03950:  MOVFF  00,69A
03954:  MOVLB  6
....................  
....................       res += r*LN2; 
03956:  MOVFF  69D,6B1
0395A:  MOVFF  69C,6B0
0395E:  MOVFF  69B,6AF
03962:  MOVFF  69A,6AE
03966:  MOVLW  18
03968:  MOVWF  xB5
0396A:  MOVLW  72
0396C:  MOVWF  xB4
0396E:  MOVLW  31
03970:  MOVWF  xB3
03972:  MOVLW  7E
03974:  MOVWF  xB2
03976:  MOVLB  0
03978:  CALL   2EA8
0397C:  BCF    FD8.1
0397E:  MOVFF  699,6B5
03982:  MOVFF  698,6B4
03986:  MOVFF  697,6B3
0398A:  MOVFF  696,6B2
0398E:  MOVFF  03,6B9
03992:  MOVFF  02,6B8
03996:  MOVFF  01,6B7
0399A:  MOVFF  00,6B6
0399E:  CALL   1A04
039A2:  MOVFF  03,699
039A6:  MOVFF  02,698
039AA:  MOVFF  01,697
039AE:  MOVFF  00,696
....................    } 
....................  
....................    else 
039B2:  BRA    39C0
....................       res = 0.0; 
039B4:  MOVLB  6
039B6:  CLRF   x99
039B8:  CLRF   x98
039BA:  CLRF   x97
039BC:  CLRF   x96
039BE:  MOVLB  0
....................  
....................    return(res); 
039C0:  MOVFF  696,00
039C4:  MOVFF  697,01
039C8:  MOVFF  698,02
039CC:  MOVFF  699,03
.................... } 
039D0:  RETLW  00
....................  
.................... //Overloaded function for log() for PCD 
.................... // Overloaded function log() for data type - Float48 
.................... #if defined(__PCD__) 
.................... float48 log(float48 x) 
.................... { 
....................    float48 y, res, r, y2; 
....................    unsigned int8  data1,data2; 
....................    signed int8 n; 
....................    #ifdef _ERRNO 
....................    if(x <0) 
....................    { 
....................       errno=EDOM; 
....................    } 
....................    if(x ==0) 
....................    { 
....................       errno=ERANGE; 
....................       return(0); 
....................    } 
....................    #endif 
....................    y = x; 
....................  
....................    if (y != 1.0) 
....................    { 
....................     
....................    #if !defined(__PCD__) 
....................        *((unsigned int8 *)(&y)) = 0x7E;  
....................    #endif 
....................       data2 = *(((unsigned int8 *)(&y))+5); 
....................       *(((unsigned int8 *)(&y))+5) = 0x3F; 
....................       data1 = *(((unsigned int8 *)(&y))+4); 
....................       bit_clear(data1,7); 
....................       *(((unsigned int8 *)(&y))+4) = data1; 
....................    
....................       if(bit_test(data2,7)) 
....................          bit_set(*(((unsigned int8 *)(&y))+4),7); 
....................       y = (y - 1.0)/(y + 1.0); 
....................  
....................       y2=y*y; 
....................  
....................       res = pl[0]*y2 + pl[1]; 
....................       res = res*y2 + pl[2]; 
....................       res = res*y2 + pl[3]; 
....................  
....................       r = ql[0]*y2 + ql[1]; 
....................       r = r*y2 + ql[2]; 
....................       r = r*y2 + ql[3]; 
....................  
....................       res = y*res/r; 
....................  
....................     data1 = *(((unsigned int8 *)(&x)+5)); 
....................     rotate_left(&data1,1); 
....................     data2 = *(((unsigned int8 *)(&x)+4)); 
....................     if(bit_test (data2,7)) 
....................        bit_set(data1,0); 
....................       
....................     n = data1 - 0x7E; 
....................  
....................       if (n<0) 
....................          r = -(float48)-n; 
....................       else 
....................          r = (float48)n; 
....................  
....................       res += r*LN2; 
....................    } 
....................  
....................    else 
....................       res = 0.0; 
....................  
....................    return(res); 
.................... } 
....................  
.................... // Overloaded function log() for data type - Float48 
.................... #if defined(__PCD__) 
.................... float32 const pl_64[4] = {0.45145214, -9.0558803, 26.940971, -19.860189}; 
.................... float32 const ql_64[4] = {1.0000000,  -8.1354259, 16.780517, -9.9300943}; 
.................... #endif 
.................... float64 log(float64 x) 
.................... { 
....................    float64 y, res, r, y2; 
....................    unsigned int16  data1,data2; 
....................    unsigned int16 *p; 
....................    signed int16 n; 
....................    #ifdef _ERRNO 
....................    if(x <0) 
....................    { 
....................       errno=EDOM; 
....................    } 
....................    if(x ==0) 
....................    { 
....................       errno=ERANGE; 
....................       return(0); 
....................    } 
....................    #endif 
....................    y = x; 
....................  
....................    if (y != 1.0) 
....................    { 
....................    #if !defined(__PCD__) 
....................        *((unsigned int8 *)(&y)) = 0x7E;  
....................    #endif 
....................       p= (((unsigned int16 *)(&y))+3); 
....................       data1 = *p; 
....................       data2 = *p; 
....................       data1 = 0x3FE; 
....................       data1 = data1 <<4; 
....................       if(bit_test (data2,15)) 
....................       bit_set(data1,15); 
....................       data2 = data2 & 0x000F; 
....................       data1 ^=data2; 
....................  
....................       *p = data1; 
....................  
....................       y = (y - 1.0)/(y + 1.0); 
....................  
....................       y2=y*y; 
....................  
....................       res = pl_64[0]*y2 + pl_64[1]; 
....................       res = res*y2 + pl_64[2]; 
....................       res = res*y2 + pl_64[3]; 
....................  
....................       r = ql_64[0]*y2 + ql_64[1]; 
....................       r = r*y2 + ql_64[2]; 
....................       r = r*y2 + ql_64[3]; 
....................  
....................       res = y*res/r; 
....................   
....................       p= (((unsigned int16 *)(&x))+3); 
....................       data1 = *p; 
....................       bit_clear(data1,15); 
....................       data1 = data1 >>4;     
....................       n = data1 - 0x3FE; 
....................  
....................  
....................       if (n<0) 
....................          r = -(float64)-n; 
....................       else 
....................          r = (float64)n; 
....................  
....................       res += r*LN2; 
....................    } 
....................  
....................    else 
....................       res = 0.0; 
....................  
....................    return(res); 
.................... } 
.................... #endif 
....................  
....................  
.................... #define LN10 2.3025850929940456 
....................  
.................... //////////////////////////////////////////////////////////////////////////// 
.................... //   float log10(float x) 
.................... //////////////////////////////////////////////////////////////////////////// 
.................... // Description : returns the the log base 10 of x 
.................... // Date : N/A 
.................... // 
.................... float32 log10(float32 x) 
.................... { 
....................    float32 r; 
....................  
....................    r = log(x); 
....................    r = r/LN10; 
....................    return(r); 
.................... } 
....................  
.................... //Overloaded functions for log10() for PCD 
.................... // Overloaded function log10() for data type - Float48 
.................... #if defined(__PCD__) 
.................... float48 log10(float48 x) 
.................... { 
....................    float48 r; 
....................  
....................    r = log(x); 
....................    r = r/LN10; 
....................    return(r); 
.................... } 
....................  
.................... // Overloaded function log10() for data type - Float64 
.................... float64 log10(float64 x) 
.................... { 
....................    float64 r; 
....................  
....................    r = log(x); 
....................    r = r/LN10; 
....................    return(r); 
.................... } 
.................... #endif 
.................... //////////////////////////////////////////////////////////////////////////// 
.................... //   float modf(float x) 
.................... //////////////////////////////////////////////////////////////////////////// 
.................... // Description :breaks the argument value int integral and fractional parts, 
.................... // ach of which have the same sign as the argument.  It stores the integral part 
.................... // as a float in the object pointed to by the iptr 
.................... // Returns : returns the signed fractional part of value. 
.................... // Date : N/A 
.................... // 
....................  
.................... float32 modf(float32 value,float32 *iptr) 
.................... { 
....................    *iptr=(value < 0.0)? ceil(value): floor(value); 
....................    return(value - *iptr); 
.................... } 
.................... //Overloaded functions for modf() for PCD 
.................... // Overloaded function modf() for data type - Float48 
.................... #if defined(__PCD__) 
.................... float48 modf(float48 value,float48 *iptr) 
.................... { 
....................    *iptr=(value < 0.0)? ceil(value): floor(value); 
....................    return(value - *iptr); 
.................... } 
.................... // Overloaded function modf() for data type - Float64 
.................... float64 modf(float64 value,float64 *iptr) 
.................... { 
....................    *iptr=(value < 0.0)? ceil(value): floor(value); 
....................    return(value - *iptr); 
.................... } 
.................... #endif 
....................  
.................... //////////////////////////////////////////////////////////////////////////// 
.................... //   float pwr(float x,float y) 
.................... //////////////////////////////////////////////////////////////////////////// 
.................... // Description : returns the value (x^y) 
.................... // Date : N/A 
.................... // Note : 0 is returned when the function will generate an imaginary number 
.................... // 
.................... float32 pwr(float32 x,float32 y) 
.................... { 
....................    if(0 > x && fmod(y, 1) == 0) { 
....................       if(fmod(y, 2) == 0) { 
....................          return (exp(log(-x) * y)); 
....................       } else { 
....................          return (-exp(log(-x) * y)); 
....................       } 
....................    } else if(0 > x && fmod(y, 1) != 0) { 
....................       return 0; 
....................    } else { 
....................       if(x != 0 || 0 >= y) { 
....................          return (exp(log(x) * y)); 
....................       } 
....................    } 
.................... } 
.................... //Overloaded functions for pwr() for PCD 
.................... // Overloaded function pwr() for data type - Float48 
.................... #if defined(__PCD__) 
.................... float48 pwr(float48 x,float48 y) 
.................... { 
....................    if(0 > x && fmod(y, 1) == 0) { 
....................       if(fmod(y, 2) == 0) { 
....................          return (exp(log(-x) * y)); 
....................       } else { 
....................          return (-exp(log(-x) * y)); 
....................       } 
....................    } else if(0 > x && fmod(y, 1) != 0) { 
....................       return 0; 
....................    } else { 
....................       if(x != 0 || 0 >= y) { 
....................          return (exp(log(x) * y)); 
....................       } 
....................    } 
.................... } 
.................... // Overloaded function pwr() for data type - Float64 
.................... float64 pwr(float64 x,float64 y) 
.................... { 
....................    if(0 > x && fmod(y, 1) == 0) { 
....................       if(fmod(y, 2) == 0) { 
....................          return (exp(log(-x) * y)); 
....................       } else { 
....................          return (-exp(log(-x) * y)); 
....................       } 
....................    } else if(0 > x && fmod(y, 1) != 0) { 
....................       return 0; 
....................    } else { 
....................       if(x != 0 || 0 >= y) { 
....................          return (exp(log(x) * y)); 
....................       } 
....................    } 
.................... } 
.................... #endif 
....................  
.................... //////////////////// Power functions //////////////////// 
....................  
.................... //////////////////////////////////////////////////////////////////////////// 
.................... //   float pow(float x,float y) 
.................... //////////////////////////////////////////////////////////////////////////// 
.................... // Description : returns the value (x^y) 
.................... // Date : N/A 
.................... // Note : 0 is returned when the function will generate an imaginary number 
.................... // 
.................... float32 pow(float32 x,float32 y) 
.................... { 
....................    if(0 > x && fmod(y, 1) == 0) { 
*
03DDC:  MOVFF  685,6B1
03DE0:  MOVFF  684,6B0
03DE4:  MOVFF  683,6AF
03DE8:  MOVFF  682,6AE
03DEC:  MOVLB  6
03DEE:  CLRF   xB5
03DF0:  CLRF   xB4
03DF2:  CLRF   xB3
03DF4:  CLRF   xB2
03DF6:  MOVLB  0
03DF8:  CALL   2424
03DFC:  BTFSS  FD8.0
03DFE:  BRA    3FB2
03E00:  MOVFF  689,68D
03E04:  MOVFF  688,68C
03E08:  MOVFF  687,68B
03E0C:  MOVFF  686,68A
03E10:  MOVLB  6
03E12:  CLRF   x91
03E14:  CLRF   x90
03E16:  CLRF   x8F
03E18:  MOVLW  7F
03E1A:  MOVWF  x8E
03E1C:  MOVLB  0
03E1E:  CALL   3342
03E22:  MOVFF  00,68A
03E26:  MOVFF  01,68B
03E2A:  MOVFF  02,68C
03E2E:  MOVFF  03,68D
03E32:  MOVFF  03,6B1
03E36:  MOVFF  02,6B0
03E3A:  MOVFF  01,6AF
03E3E:  MOVFF  00,6AE
03E42:  MOVLB  6
03E44:  CLRF   xB5
03E46:  CLRF   xB4
03E48:  CLRF   xB3
03E4A:  CLRF   xB2
03E4C:  MOVLB  0
03E4E:  CALL   2424
03E52:  BTFSS  FD8.2
03E54:  BRA    3FB2
....................       if(fmod(y, 2) == 0) { 
03E56:  MOVFF  689,68D
03E5A:  MOVFF  688,68C
03E5E:  MOVFF  687,68B
03E62:  MOVFF  686,68A
03E66:  MOVLB  6
03E68:  CLRF   x91
03E6A:  CLRF   x90
03E6C:  CLRF   x8F
03E6E:  MOVLW  80
03E70:  MOVWF  x8E
03E72:  MOVLB  0
03E74:  CALL   3342
03E78:  MOVFF  00,68A
03E7C:  MOVFF  01,68B
03E80:  MOVFF  02,68C
03E84:  MOVFF  03,68D
03E88:  MOVFF  03,6B1
03E8C:  MOVFF  02,6B0
03E90:  MOVFF  01,6AF
03E94:  MOVFF  00,6AE
03E98:  MOVLB  6
03E9A:  CLRF   xB5
03E9C:  CLRF   xB4
03E9E:  CLRF   xB3
03EA0:  CLRF   xB2
03EA2:  MOVLB  0
03EA4:  CALL   2424
03EA8:  BNZ   3F2C
....................          return (exp(log(-x) * y)); 
03EAA:  MOVFF  682,68A
03EAE:  MOVLB  6
03EB0:  MOVF   x83,W
03EB2:  XORLW  80
03EB4:  MOVWF  x8B
03EB6:  MOVFF  684,68C
03EBA:  MOVFF  685,68D
03EBE:  MOVFF  685,691
03EC2:  MOVFF  684,690
03EC6:  MOVWF  x8F
03EC8:  MOVFF  682,68E
03ECC:  MOVLB  0
03ECE:  CALL   34F8
03ED2:  MOVFF  00,68A
03ED6:  MOVFF  01,68B
03EDA:  MOVFF  02,68C
03EDE:  MOVFF  03,68D
03EE2:  MOVFF  03,6B1
03EE6:  MOVFF  02,6B0
03EEA:  MOVFF  01,6AF
03EEE:  MOVFF  00,6AE
03EF2:  MOVFF  689,6B5
03EF6:  MOVFF  688,6B4
03EFA:  MOVFF  687,6B3
03EFE:  MOVFF  686,6B2
03F02:  CALL   2EA8
03F06:  MOVFF  00,68A
03F0A:  MOVFF  01,68B
03F0E:  MOVFF  02,68C
03F12:  MOVFF  03,68D
03F16:  MOVFF  03,691
03F1A:  MOVFF  02,690
03F1E:  MOVFF  01,68F
03F22:  MOVFF  00,68E
03F26:  RCALL  39D2
03F28:  BRA    40E6
....................       } else { 
03F2A:  BRA    3FB0
....................          return (-exp(log(-x) * y)); 
03F2C:  MOVFF  682,68A
03F30:  MOVLB  6
03F32:  MOVF   x83,W
03F34:  XORLW  80
03F36:  MOVWF  x8B
03F38:  MOVFF  684,68C
03F3C:  MOVFF  685,68D
03F40:  MOVFF  685,691
03F44:  MOVFF  684,690
03F48:  MOVWF  x8F
03F4A:  MOVFF  682,68E
03F4E:  MOVLB  0
03F50:  CALL   34F8
03F54:  MOVFF  00,68A
03F58:  MOVFF  01,68B
03F5C:  MOVFF  02,68C
03F60:  MOVFF  03,68D
03F64:  MOVFF  03,6B1
03F68:  MOVFF  02,6B0
03F6C:  MOVFF  01,6AF
03F70:  MOVFF  00,6AE
03F74:  MOVFF  689,6B5
03F78:  MOVFF  688,6B4
03F7C:  MOVFF  687,6B3
03F80:  MOVFF  686,6B2
03F84:  CALL   2EA8
03F88:  MOVFF  00,68A
03F8C:  MOVFF  01,68B
03F90:  MOVFF  02,68C
03F94:  MOVFF  03,68D
03F98:  MOVFF  03,691
03F9C:  MOVFF  02,690
03FA0:  MOVFF  01,68F
03FA4:  MOVFF  00,68E
03FA8:  RCALL  39D2
03FAA:  MOVLW  80
03FAC:  XORWF  01,F
03FAE:  BRA    40E6
....................       } 
....................    } else if(0 > x && fmod(y, 1) != 0) { 
03FB0:  BRA    40E6
03FB2:  MOVFF  685,6B1
03FB6:  MOVFF  684,6B0
03FBA:  MOVFF  683,6AF
03FBE:  MOVFF  682,6AE
03FC2:  MOVLB  6
03FC4:  CLRF   xB5
03FC6:  CLRF   xB4
03FC8:  CLRF   xB3
03FCA:  CLRF   xB2
03FCC:  MOVLB  0
03FCE:  CALL   2424
03FD2:  BNC   4034
03FD4:  MOVFF  689,68D
03FD8:  MOVFF  688,68C
03FDC:  MOVFF  687,68B
03FE0:  MOVFF  686,68A
03FE4:  MOVLB  6
03FE6:  CLRF   x91
03FE8:  CLRF   x90
03FEA:  CLRF   x8F
03FEC:  MOVLW  7F
03FEE:  MOVWF  x8E
03FF0:  MOVLB  0
03FF2:  CALL   3342
03FF6:  MOVFF  00,68A
03FFA:  MOVFF  01,68B
03FFE:  MOVFF  02,68C
04002:  MOVFF  03,68D
04006:  MOVFF  03,6B1
0400A:  MOVFF  02,6B0
0400E:  MOVFF  01,6AF
04012:  MOVFF  00,6AE
04016:  MOVLB  6
04018:  CLRF   xB5
0401A:  CLRF   xB4
0401C:  CLRF   xB3
0401E:  CLRF   xB2
04020:  MOVLB  0
04022:  CALL   2424
04026:  BZ    4034
....................       return 0; 
04028:  CLRF   00
0402A:  CLRF   01
0402C:  CLRF   02
0402E:  CLRF   03
04030:  BRA    40E6
....................    } else { 
04032:  BRA    40E6
....................       if(x != 0 || 0 >= y) { 
04034:  MOVFF  685,6B1
04038:  MOVFF  684,6B0
0403C:  MOVFF  683,6AF
04040:  MOVFF  682,6AE
04044:  MOVLB  6
04046:  CLRF   xB5
04048:  CLRF   xB4
0404A:  CLRF   xB3
0404C:  CLRF   xB2
0404E:  MOVLB  0
04050:  CALL   2424
04054:  BNZ   407A
04056:  MOVFF  689,6B1
0405A:  MOVFF  688,6B0
0405E:  MOVFF  687,6AF
04062:  MOVFF  686,6AE
04066:  MOVLB  6
04068:  CLRF   xB5
0406A:  CLRF   xB4
0406C:  CLRF   xB3
0406E:  CLRF   xB2
04070:  MOVLB  0
04072:  CALL   2424
04076:  BC    407A
04078:  BNZ   40E6
....................          return (exp(log(x) * y)); 
0407A:  MOVFF  685,691
0407E:  MOVFF  684,690
04082:  MOVFF  683,68F
04086:  MOVFF  682,68E
0408A:  CALL   34F8
0408E:  MOVFF  00,68A
04092:  MOVFF  01,68B
04096:  MOVFF  02,68C
0409A:  MOVFF  03,68D
0409E:  MOVFF  03,6B1
040A2:  MOVFF  02,6B0
040A6:  MOVFF  01,6AF
040AA:  MOVFF  00,6AE
040AE:  MOVFF  689,6B5
040B2:  MOVFF  688,6B4
040B6:  MOVFF  687,6B3
040BA:  MOVFF  686,6B2
040BE:  CALL   2EA8
040C2:  MOVFF  00,68A
040C6:  MOVFF  01,68B
040CA:  MOVFF  02,68C
040CE:  MOVFF  03,68D
040D2:  MOVFF  03,691
040D6:  MOVFF  02,690
040DA:  MOVFF  01,68F
040DE:  MOVFF  00,68E
040E2:  RCALL  39D2
040E4:  BRA    40E6
....................       } 
....................    } 
.................... } 
040E6:  RETLW  00
.................... //Overloaded functions for pow() for PCD 
.................... // Overloaded function for pow() data type - Float48 
.................... #if defined(__PCD__) 
.................... float48 pow(float48 x,float48 y) 
.................... { 
....................    if(0 > x && fmod(y, 1) == 0) { 
....................       if(fmod(y, 2) == 0) { 
....................          return (exp(log(-x) * y)); 
....................       } else { 
....................          return (-exp(log(-x) * y)); 
....................       } 
....................    } else if(0 > x && fmod(y, 1) != 0) { 
....................       return 0; 
....................    } else { 
....................       if(x != 0 || 0 >= y) { 
....................          return (exp(log(x) * y)); 
....................       } 
....................    } 
.................... } 
....................  
.................... // Overloaded function pow() for data type - Float64 
.................... float64 pow(float64 x,float64 y) 
.................... { 
....................    if(0 > x && fmod(y, 1) == 0) { 
....................       if(fmod(y, 2) == 0) { 
....................          return (exp(log(-x) * y)); 
....................       } else { 
....................          return (-exp(log(-x) * y)); 
....................       } 
....................    } else if(0 > x && fmod(y, 1) != 0) { 
....................       return 0; 
....................    } else { 
....................       if(x != 0 || 0 >= y) { 
....................          return (exp(log(x) * y)); 
....................       } 
....................    } 
.................... } 
.................... #endif 
....................  
.................... //////////////////////////////////////////////////////////////////////////// 
.................... //   float sqrt(float x) 
.................... //////////////////////////////////////////////////////////////////////////// 
.................... // Description : returns the square root of x 
.................... // Date : N/A 
.................... // 
.................... float32 sqrt(float32 x) 
.................... { 
....................    float32 y, res; 
....................    #if defined(__PCD__) 
....................    unsigned int16 data1,data2; 
....................    #endif 
....................    BYTE *p; 
....................  
....................    #ifdef _ERRNO 
....................    if(x < 0) 
....................    { 
....................       errno=EDOM; 
....................    } 
....................    #endif 
....................  
....................    if( x<=0.0) 
....................       return(0.0); 
....................  
....................    y=x; 
....................     
....................    #if !defined(__PCD__) 
....................     p=&y; 
....................    (*p)=(BYTE)((((unsigned int16)(*p)) + 127) >> 1); 
....................    #endif 
....................     
....................    #if defined(__PCD__) 
....................     p = (((unsigned int8 *)(&y))+3); 
....................     data1 = *(((unsigned int8 *)(&y))+3); 
....................     data2 = *(((unsigned int8 *)(&y))+2); 
....................     rotate_left(&data1,1);     
....................     if(bit_test(data2,7))     
....................     bit_set(data1,0);     
....................     data1 = ((data1+127) >>1); 
....................     bit_clear(data2,7); 
....................     if(bit_test(data1,0)) 
....................     bit_set(data2,7); 
....................     data1 = data1 >>1; 
....................     *(((unsigned int8 *)(&y))+3) = data1; 
....................     *(((unsigned int8 *)(&y))+2) = data2; 
....................      
....................   #endif 
....................  
....................    do { 
....................       res=y; 
....................       y+=(x/y); 
....................  
....................       #if !defined(__PCD__) 
....................      (*p)--; 
....................    #endif 
....................     
....................    #if defined(__PCD__) 
....................     data1 = *(((unsigned int8 *)(&y))+3); 
....................     data2 = *(((unsigned int8 *)(&y))+2); 
....................     rotate_left(&data1,1); 
....................     if(bit_test(data2,7)) 
....................     bit_set(data1,0);     
....................     data1--; 
....................     bit_clear(data2,7); 
....................     if(bit_test(data1,0)) 
....................     bit_set(data2,7); 
....................     data1 = data1 >>1; 
....................     *(((unsigned int8 *)(&y))+3) = data1; 
....................     *(((unsigned int8 *)(&y))+2) = data2; 
....................      
....................   #endif 
....................    } while(res != y); 
....................  
....................    return(res); 
.................... } 
.................... //Overloaded functions for sqrt() for PCD 
.................... // Overloaded function sqrt() for data type - Float48 
.................... #if defined(__PCD__) 
.................... float48 sqrt(float48 x) 
.................... { 
....................    float48 y, res; 
....................    unsigned int16 data1,data2; 
....................    BYTE *p; 
....................  
....................    #ifdef _ERRNO 
....................    if(x < 0) 
....................    { 
....................       errno=EDOM; 
....................    } 
....................    #endif 
....................  
....................    if( x<=0.0) 
....................       return(0.0); 
....................  
....................    y=x; 
....................     
....................    #if !defined(__PCD__) 
....................     p=&y; 
....................    (*p)=(BYTE)((((unsigned int16)(*p)) + 127) >> 1); 
....................    #endif 
....................     
....................    #if defined(__PCD__) 
....................     p = (((unsigned int8 *)(&y))+5); 
....................     data1 = *(((unsigned int8 *)(&y))+5); 
....................     data2 = *(((unsigned int8 *)(&y))+4); 
....................     rotate_left(&data1,1); 
....................     if(bit_test(data2,7)) 
....................     bit_set(data1,0);     
....................     data1 = ((data1+127) >>1); 
....................     bit_clear(data2,7); 
....................     if(bit_test(data1,0)) 
....................     bit_set(data2,7); 
....................     data1 = data1 >>1; 
....................     *(((unsigned int8 *)(&y))+5) = data1; 
....................     *(((unsigned int8 *)(&y))+4) = data2; 
....................      
....................   #endif 
....................  
....................    do { 
....................       res=y; 
....................       y+=(x/y); 
....................  
....................       #if !defined(__PCD__) 
....................      (*p)--; 
....................    #endif 
....................     
....................     data1 = *(((unsigned int8 *)(&y))+5); 
....................     data2 = *(((unsigned int8 *)(&y))+4); 
....................     rotate_left(&data1,1); 
....................     if(bit_test(data2,7)) 
....................     bit_set(data1,0);     
....................     data1--; 
....................     bit_clear(data2,7); 
....................     if(bit_test(data1,0)) 
....................     bit_set(data2,7); 
....................     data1 = data1 >>1; 
....................     *(((unsigned int8 *)(&y))+5) = data1; 
....................     *(((unsigned int8 *)(&y))+4) = data2; 
....................      
....................    } while(res != y); 
....................  
....................    return(res); 
.................... } 
....................  
.................... // Overloaded function sqrt() for data type - Float64 
.................... float64 sqrt(float64 x) 
.................... { 
....................    float64 y, res; 
....................    unsigned int16 *p; 
....................    unsigned int16 temp1,temp2; 
....................  
....................    #ifdef _ERRNO 
....................    if(x < 0) 
....................    { 
....................       errno=EDOM; 
....................    } 
....................    #endif 
....................  
....................    if( x<=0.0) 
....................       return(0.0); 
....................  
....................    y=x; 
....................    p= (((unsigned int16 *)(&y))+3); 
....................    temp1 = *p; 
....................    temp2 = *p; 
....................    bit_clear(temp1,15); 
....................    temp1 = (temp1>>4)+1023; 
....................    temp1 = temp1 >> 1; 
....................    temp1 = (temp1<<4) & 0xFFF0; 
....................    if(bit_test(temp2,15)) 
....................    bit_set(temp1,15); 
....................    temp2 = temp2 & 0x000F; 
....................    temp1 ^= temp2; 
....................     
....................    (*p) = temp1; 
....................     
....................    do { 
....................       res=y; 
....................       y+=(x/y); 
....................      temp1 = *p; 
....................      temp2 = *p; 
....................      bit_clear(temp1,15); 
....................      temp1 = (temp1>>4); 
....................      temp1--; 
....................      temp1 = (temp1<<4) & 0xFFF0; 
....................      if(bit_test(temp2,15)) 
....................      bit_set(temp1,15); 
....................      temp2 = temp2 & 0x000F; 
....................      temp1 ^= temp2; 
....................      (*p) = temp1; 
....................  
....................    } while(res != y); 
....................  
....................    return(res); 
.................... } 
.................... #endif 
....................  
.................... ////////////////////////////// Trig Functions ////////////////////////////// 
.................... #ifdef PI_DIV_BY_TWO 
.................... #undef PI_DIV_BY_TWO 
.................... #endif 
.................... #define PI_DIV_BY_TWO   1.5707963267948966 
.................... #ifdef TWOBYPI 
.................... #undef TWOBYPI 
.................... #define TWOBYPI          0.6366197723675813 
.................... #endif 
.................... //////////////////////////////////////////////////////////////////////////// 
.................... //   float cos(float x) 
.................... //////////////////////////////////////////////////////////////////////////// 
.................... // Description : returns the cosine value of the angle x, which is in radian 
.................... // Date : 9/20/2001 
.................... // 
.................... float32 cos(float32 x) 
.................... { 
....................    float32 y, t, t2 = 1.0; 
....................    unsigned int8 quad, i; 
....................    float32 frac; 
....................    float32 p[6] = {                    //by the series definition for cosine 
....................       -0.5,                            // sum ( ( (-1)^n * x^2n )/(2n)! ) 
....................        0.04166666666667, 
....................       -0.00138888888889, 
....................        0.00002480158730, 
....................       -0.00000027557319, 
....................        0.00000000208767, 
....................       //-0.00000000001147, 
....................       // 0.00000000000005 
....................    }; 
....................  
....................    if (x < 0) x = -x;                  // absolute value of input 
....................  
....................    quad = (unsigned int8)(x / PI_DIV_BY_TWO);    // quadrant 
....................    frac = (x / PI_DIV_BY_TWO) - quad;  // fractional part of input 
....................    quad = quad % 4;                    // quadrant (0 to 3) 
....................  
....................    if (quad == 0 || quad == 2) 
....................       t = frac * PI_DIV_BY_TWO; 
....................    else if (quad == 1) 
....................       t = (1-frac) * PI_DIV_BY_TWO; 
....................    else // should be 3 
....................       t = (frac-1) * PI_DIV_BY_TWO; 
....................  
....................    y = 1.0; 
....................    t = t * t; 
....................    for (i = 0; i <= 5; i++) 
....................    { 
....................       t2 = t2 * t; 
....................       y = y + p[i] * t2; 
....................    } 
....................  
....................    if (quad == 2 || quad == 1) 
....................       y = -y;  // correct sign 
....................  
....................    return (y); 
.................... } 
....................  
....................  
.................... //Overloaded functions for cos() for PCD 
.................... // Overloaded function cos() for data type - Float48 
.................... #if defined(__PCD__) 
.................... float48 cos(float48 x) 
.................... { 
....................    float48 y, t, t2 = 1.0; 
....................    unsigned int8 quad, i; 
....................    float48 frac; 
....................    float48 p[6] = {                    //by the series definition for cosine 
....................       -0.5,                            // sum ( ( (-1)^n * x^2n )/(2n)! ) 
....................        0.04166666666667, 
....................       -0.00138888888889, 
....................        0.00002480158730, 
....................       -0.00000027557319, 
....................        0.00000000208767, 
....................       //-0.00000000001147, 
....................       // 0.00000000000005 
....................    }; 
....................  
....................    if (x < 0) x = -x;                  // absolute value of input 
....................  
....................    quad = (unsigned int8)(x / PI_DIV_BY_TWO);    // quadrant 
....................    frac = (x / PI_DIV_BY_TWO) - quad;  // fractional part of input 
....................    quad = quad % 4;                    // quadrant (0 to 3) 
....................  
....................    if (quad == 0 || quad == 2) 
....................       t = frac * PI_DIV_BY_TWO; 
....................    else if (quad == 1) 
....................       t = (1-frac) * PI_DIV_BY_TWO; 
....................    else // should be 3 
....................       t = (frac-1) * PI_DIV_BY_TWO; 
....................  
....................    y = 0.999999999781; 
....................    t = t * t; 
....................    for (i = 0; i <= 5; i++) 
....................    { 
....................       t2 = t2 * t; 
....................       y = y + p[i] * t2; 
....................    } 
....................  
....................    if (quad == 2 || quad == 1) 
....................       y = -y;  // correct sign 
....................  
....................    return (y); 
.................... } 
....................  
.................... // Overloaded function cos() for data type - Float48 
.................... float64 cos(float64 x) 
.................... { 
....................    float64 y, t, t2 = 1.0; 
....................    unsigned int8 quad, i; 
....................    float64 frac; 
....................    float64 p[6] = {                    //by the series definition for cosine 
....................       -0.5,                            // sum ( ( (-1)^n * x^2n )/(2n)! ) 
....................        0.04166666666667, 
....................       -0.00138888888889, 
....................        0.00002480158730, 
....................       -0.00000027557319, 
....................        0.00000000208767, 
....................       //-0.00000000001147, 
....................       // 0.00000000000005 
....................    }; 
....................  
....................    if (x < 0) x = -x;                  // absolute value of input 
....................  
....................    quad = (unsigned int8)(x / PI_DIV_BY_TWO);    // quadrant 
....................    frac = (x / PI_DIV_BY_TWO) - quad;  // fractional part of input 
....................    quad = quad % 4;                    // quadrant (0 to 3) 
....................  
....................    if (quad == 0 || quad == 2) 
....................       t = frac * PI_DIV_BY_TWO; 
....................    else if (quad == 1) 
....................       t = (1-frac) * PI_DIV_BY_TWO; 
....................    else // should be 3 
....................       t = (frac-1) * PI_DIV_BY_TWO; 
....................  
....................    y = 0.999999999781; 
....................    t = t * t; 
....................    for (i = 0; i <= 5; i++) 
....................    { 
....................       t2 = t2 * t; 
....................       y = y + p[i] * t2; 
....................    } 
....................  
....................    if (quad == 2 || quad == 1) 
....................       y = -y;  // correct sign 
....................  
....................    return (y); 
.................... } 
....................  
.................... #endif 
....................  
.................... //////////////////////////////////////////////////////////////////////////// 
.................... //   float sin(float x) 
.................... //////////////////////////////////////////////////////////////////////////// 
.................... // Description : returns the sine value of the angle x, which is in radian 
.................... // Date : 9/20/2001 
.................... // 
.................... float32 sin(float32 x) 
.................... { 
....................    return cos(x - PI_DIV_BY_TWO); 
.................... } 
....................  
.................... //Overloaded functions for sin() for PCD 
.................... // Overloaded function sin() for data type - Float48 
.................... #if defined(__PCD__) 
.................... float48 sin(float48 x) 
.................... { 
....................    return cos(x - PI_DIV_BY_TWO); 
.................... } 
....................  
.................... // Overloaded function sin() for data type - Float48 
.................... float64 sin(float64 x) 
.................... { 
....................    return cos(x - PI_DIV_BY_TWO); 
.................... } 
.................... #endif 
....................  
.................... //////////////////////////////////////////////////////////////////////////// 
.................... //   float tan(float x) 
.................... //////////////////////////////////////////////////////////////////////////// 
.................... // Description : returns the tangent value of the angle x, which is in radian 
.................... // Date : 9/20/2001 
.................... // 
.................... float32 tan(float32 x) 
.................... { 
....................    float32 c, s; 
....................  
....................    c = cos(x); 
....................    if (c == 0.0) 
....................       return (1.0e+36); 
....................  
....................    s = sin(x); 
....................    return(s/c); 
.................... } 
.................... //Overloaded functions for tan() for PCD 
.................... // Overloaded function tan() for data type - Float48 
.................... #if defined(__PCD__) 
.................... float48 tan(float48 x) 
.................... { 
....................    float48 c, s; 
....................  
....................    c = cos(x); 
....................    if (c == 0.0) 
....................       return (1.0e+36); 
....................  
....................    s = sin(x); 
....................    return(s/c); 
.................... } 
....................  
.................... // Overloaded function tan() for data type - Float48 
.................... float64 tan(float64 x) 
.................... { 
....................    float64 c, s; 
....................  
....................    c = cos(x); 
....................    if (c == 0.0) 
....................       return (1.0e+36); 
....................  
....................    s = sin(x); 
....................    return(s/c); 
.................... } 
.................... #endif 
....................  
.................... float32 const pas[3] = {0.49559947, -4.6145309, 5.6036290}; 
.................... float32 const qas[3] = {1.0000000,  -5.5484666, 5.6036290}; 
....................  
.................... float32 ASIN_COS(float32 x, unsigned int8 n) 
.................... { 
....................    float32 y, res, r, y2; 
....................    int1 s; 
....................    #ifdef _ERRNO 
....................    if(x <-1 || x > 1) 
....................    { 
....................       errno=EDOM; 
....................    } 
....................    #endif 
....................    s = 0; 
....................    y = x; 
....................  
....................    if (x < 0) 
....................    { 
....................       s = 1; 
....................       y = -y; 
....................    } 
....................  
....................    if (y > 0.5) 
....................    { 
....................       y = sqrt((1.0 - y)/2.0); 
....................       n += 2; 
....................    } 
....................  
....................    y2=y*y; 
....................  
....................    res = pas[0]*y2 + pas[1]; 
....................    res = res*y2 + pas[2]; 
....................  
....................    r = qas[0]*y2 + qas[1]; 
....................    r = r*y2 + qas[2]; 
....................  
....................    res = y*res/r; 
....................  
....................    if (n & 2)     // |x| > 0.5 
....................       res = PI_DIV_BY_TWO - 2.0*res; 
....................    if (s) 
....................       res = -res; 
....................    if (n & 1)           // take arccos 
....................       res = PI_DIV_BY_TWO - res; 
....................  
....................    return(res); 
.................... } 
....................  
.................... //Overloaded functions for ASIN_COS() for PCD 
.................... // Overloaded function ASIN_COS() for data type - Float48 
.................... #if defined(__PCD__) 
.................... float48 ASIN_COS(float48 x, unsigned int8 n) 
.................... { 
....................    float48 y, res, r, y2; 
....................    int1 s; 
....................    #ifdef _ERRNO 
....................    if(x <-1 || x > 1) 
....................    { 
....................       errno=EDOM; 
....................    } 
....................    #endif 
....................    s = 0; 
....................    y = x; 
....................  
....................    if (x < 0) 
....................    { 
....................       s = 1; 
....................       y = -y; 
....................    } 
....................  
....................    if (y > 0.5) 
....................    { 
....................       y = sqrt((1.0 - y)/2.0); 
....................       n += 2; 
....................    } 
....................  
....................    y2=y*y; 
....................  
....................    res = pas[0]*y2 + pas[1]; 
....................    res = res*y2 + pas[2]; 
....................  
....................    r = qas[0]*y2 + qas[1]; 
....................    r = r*y2 + qas[2]; 
....................  
....................    res = y*res/r; 
....................  
....................    if (n & 2)     // |x| > 0.5 
....................       res = PI_DIV_BY_TWO - 2.0*res; 
....................    if (s) 
....................       res = -res; 
....................    if (n & 1)           // take arccos 
....................       res = PI_DIV_BY_TWO - res; 
....................  
....................    return(res); 
.................... } 
....................  
.................... // Overloaded function ASIN_COS() for data type - Float64 
.................... float64 ASIN_COS(float64 x, unsigned int8 n) 
.................... { 
....................    float64 y, res, r, y2; 
....................    int1 s; 
....................    #ifdef _ERRNO 
....................    if(x <-1 || x > 1) 
....................    { 
....................       errno=EDOM; 
....................    } 
....................    #endif 
....................    s = 0; 
....................    y = x; 
....................  
....................    if (x < 0) 
....................    { 
....................       s = 1; 
....................       y = -y; 
....................    } 
....................  
....................    if (y > 0.5) 
....................    { 
....................       y = sqrt((1.0 - y)/2.0); 
....................       n += 2; 
....................    } 
....................  
....................    y2=y*y; 
....................  
....................    res = pas[0]*y2 + pas[1]; 
....................    res = res*y2 + pas[2]; 
....................  
....................    r = qas[0]*y2 + qas[1]; 
....................    r = r*y2 + qas[2]; 
....................  
....................    res = y*res/r; 
....................  
....................    if (n & 2)     // |x| > 0.5 
....................       res = PI_DIV_BY_TWO - 2.0*res; 
....................    if (s) 
....................       res = -res; 
....................    if (n & 1)           // take arccos 
....................       res = PI_DIV_BY_TWO - res; 
....................  
....................    return(res); 
.................... } 
.................... #endif 
....................  
.................... //////////////////////////////////////////////////////////////////////////// 
.................... //   float asin(float x) 
.................... //////////////////////////////////////////////////////////////////////////// 
.................... // Description : returns the arcsine value of the value x. 
.................... // Date : N/A 
.................... // 
.................... float32 asin(float32 x) 
.................... { 
....................    float32 r; 
....................  
....................    r = ASIN_COS(x, 0); 
....................    return(r); 
.................... } 
.................... //Overloaded functions for asin() for PCD 
.................... // Overloaded function asin() for data type - Float48 
.................... #if defined(__PCD__) 
.................... float48 asin(float48 x) 
.................... { 
....................    float48 r; 
....................  
....................    r = ASIN_COS(x, 0); 
....................    return(r); 
.................... } 
....................  
.................... // Overloaded function asin() for data type - Float64 
.................... float64 asin(float64 x) 
.................... { 
....................    float64 r; 
....................  
....................    r = ASIN_COS(x, 0); 
....................    return(r); 
.................... } 
.................... #endif 
....................  
.................... //////////////////////////////////////////////////////////////////////////// 
.................... //   float acos(float x) 
.................... //////////////////////////////////////////////////////////////////////////// 
.................... // Description : returns the arccosine value of the value x. 
.................... // Date : N/A 
.................... // 
.................... float32 acos(float32 x) 
.................... { 
....................    float32 r; 
....................  
....................    r = ASIN_COS(x, 1); 
....................    return(r); 
.................... } 
.................... //Overloaded functions for acos() for PCD 
.................... // Overloaded function acos() for data type - Float48 
.................... #if defined(__PCD__) 
.................... float48 acos(float48 x) 
.................... { 
....................    float48 r; 
....................  
....................    r = ASIN_COS(x, 1); 
....................    return(r); 
.................... } 
....................  
.................... // Overloaded function acos() for data type - Float64 
.................... float64 acos(float64 x) 
.................... { 
....................    float64 r; 
....................  
....................    r = ASIN_COS(x, 1); 
....................    return(r); 
.................... } 
.................... #endif 
....................  
.................... float32 const pat[4] = {0.17630401, 5.6710795, 22.376096, 19.818457}; 
.................... float32 const qat[4] = {1.0000000,  11.368190, 28.982246, 19.818457}; 
....................  
.................... //////////////////////////////////////////////////////////////////////////// 
.................... //   float atan(float x) 
.................... //////////////////////////////////////////////////////////////////////////// 
.................... // Description : returns the arctangent value of the value x. 
.................... // Date : N/A 
.................... // 
.................... float32 atan(float32 x) 
.................... { 
....................    float32 y, res, r; 
....................    int1 s, flag; 
....................  
....................    s = 0; 
....................    flag = 0; 
....................    y = x; 
....................  
....................    if (x < 0) 
....................    { 
....................       s = 1; 
....................       y = -y; 
....................    } 
....................  
....................    if (y > 1.0) 
....................    { 
....................       y = 1.0/y; 
....................       flag = 1; 
....................    } 
....................  
....................    res = pat[0]*y*y + pat[1]; 
....................    res = res*y*y + pat[2]; 
....................    res = res*y*y + pat[3]; 
....................  
....................    r = qat[0]*y*y + qat[1]; 
....................    r = r*y*y + qat[2]; 
....................    r = r*y*y + qat[3]; 
....................  
....................    res = y*res/r; 
....................  
....................  
....................    if (flag)                              // for |x| > 1 
....................       res = PI_DIV_BY_TWO - res; 
....................    if (s) 
....................       res = -res; 
....................  
....................    return(res); 
.................... } 
.................... //Overloaded functions for atan() for PCD 
.................... // Overloaded function atan() for data type - Float48 
.................... #if defined(__PCD__) 
.................... float48 atan(float48 x) 
.................... { 
....................    float48 y, res, r; 
....................    int1 s, flag; 
....................  
....................    s = 0; 
....................    flag = 0; 
....................    y = x; 
....................  
....................    if (x < 0) 
....................    { 
....................       s = 1; 
....................       y = -y; 
....................    } 
....................  
....................    if (y > 1.0) 
....................    { 
....................       y = 1.0/y; 
....................       flag = 1; 
....................    } 
....................  
....................    res = pat[0]*y*y + pat[1]; 
....................    res = res*y*y + pat[2]; 
....................    res = res*y*y + pat[3]; 
....................  
....................    r = qat[0]*y*y + qat[1]; 
....................    r = r*y*y + qat[2]; 
....................    r = r*y*y + qat[3]; 
....................  
....................    res = y*res/r; 
....................  
....................  
....................    if (flag)                              // for |x| > 1 
....................       res = PI_DIV_BY_TWO - res; 
....................    if (s) 
....................       res = -res; 
....................  
....................    return(res); 
.................... } 
....................  
.................... // Overloaded function atan() for data type - Float64 
.................... float64 atan(float64 x) 
.................... { 
....................    float64 y, res, r; 
....................    int1 s, flag; 
....................  
....................    s = 0; 
....................    flag = 0; 
....................    y = x; 
....................  
....................    if (x < 0) 
....................    { 
....................       s = 1; 
....................       y = -y; 
....................    } 
....................  
....................    if (y > 1.0) 
....................    { 
....................       y = 1.0/y; 
....................       flag = 1; 
....................    } 
....................  
....................    res = pat[0]*y*y + pat[1]; 
....................    res = res*y*y + pat[2]; 
....................    res = res*y*y + pat[3]; 
....................  
....................    r = qat[0]*y*y + qat[1]; 
....................    r = r*y*y + qat[2]; 
....................    r = r*y*y + qat[3]; 
....................  
....................    res = y*res/r; 
....................  
....................  
....................    if (flag)                              // for |x| > 1 
....................       res = PI_DIV_BY_TWO - res; 
....................    if (s) 
....................       res = -res; 
....................  
....................    return(res); 
.................... } 
.................... #endif 
....................  
.................... ///////////////////////////////////////////////////////////////////////////// 
.................... //   float atan2(float y, float x) 
.................... ///////////////////////////////////////////////////////////////////////////// 
.................... // Description :computes the principal value of arc tangent of y/x, using the 
.................... // signs of both the arguments to determine the quadrant of the return value 
.................... // Returns : returns the arc tangent of y/x. 
.................... // Date : N/A 
.................... // 
....................  
.................... float32 atan2(float32 y,float32 x) 
.................... { 
....................    float32 z; 
....................    int1 sign; 
....................    unsigned int8 quad; 
....................    sign=0; 
....................    quad=0; //quadrant 
....................    quad=((y<=0.0)?((x<=0.0)?3:4):((x<0.0)?2:1)); 
....................    if(y<0.0) 
....................    { 
....................       sign=1; 
....................       y=-y; 
....................    } 
....................    if(x<0.0) 
....................    { 
....................       x=-x; 
....................    } 
....................    if (x==0.0) 
....................    { 
....................       if(y==0.0) 
....................       { 
....................       #ifdef _ERRNO 
....................       { 
....................          errno=EDOM; 
....................       } 
....................       #endif 
....................       } 
....................       else 
....................       { 
....................          if(sign) 
....................          { 
....................          return (-(PI_DIV_BY_TWO)); 
....................          } 
....................          else 
....................          { 
....................          return (PI_DIV_BY_TWO); 
....................          } 
....................       } 
....................    } 
....................    else 
....................    { 
....................       z=y/x; 
....................       switch(quad) 
....................       { 
....................          case 1: 
....................          { 
....................             return atan(z); 
....................             break; 
....................          } 
....................          case 2: 
....................          { 
.................... //            return (atan(z)+PI_DIV_BY_TWO);  //2L3122 
....................             return (PI-atan(z)); 
....................             break; 
....................          } 
....................          case 3: 
....................          { 
....................             return (atan(z)-PI); 
....................             break; 
....................          } 
....................          case 4: 
....................          { 
....................             return (-atan(z)); 
....................             break; 
....................          } 
....................       } 
....................    } 
.................... } 
....................  
.................... //Overloaded functions for atan2() for PCD 
.................... // Overloaded function atan2() for data type - Float48 
.................... #if defined(__PCD__) 
.................... float48 atan2(float48 y,float48 x) 
.................... { 
....................    float48 z; 
....................    int1 sign; 
....................    unsigned int8 quad; 
....................    sign=0; 
....................    quad=0; //quadrant 
....................    quad=((y<=0.0)?((x<=0.0)?3:4):((x<0.0)?2:1)); 
....................    if(y<0.0) 
....................    { 
....................       sign=1; 
....................       y=-y; 
....................    } 
....................    if(x<0.0) 
....................    { 
....................       x=-x; 
....................    } 
....................    if (x==0.0) 
....................    { 
....................       if(y==0.0) 
....................       { 
....................       #ifdef _ERRNO 
....................       { 
....................          errno=EDOM; 
....................       } 
....................       #endif 
....................       } 
....................       else 
....................       { 
....................          if(sign) 
....................          { 
....................          return (-(PI_DIV_BY_TWO)); 
....................          } 
....................          else 
....................          { 
....................          return (PI_DIV_BY_TWO); 
....................          } 
....................       } 
....................    } 
....................    else 
....................    { 
....................       z=y/x; 
....................       switch(quad) 
....................       { 
....................          case 1: 
....................          { 
....................             return atan(z); 
....................             break; 
....................          } 
....................          case 2: 
....................          { 
.................... //            return (atan(z)+PI_DIV_BY_TWO);  //2L3122 
....................             return (PI-atan(z)); 
....................             break; 
....................          } 
....................          case 3: 
....................          { 
....................             return (atan(z)-PI); 
....................             break; 
....................          } 
....................          case 4: 
....................          { 
....................             return (-atan(z)); 
....................             break; 
....................          } 
....................       } 
....................    } 
.................... } 
....................  
.................... // Overloaded function atan2() for data type - Float64 
.................... float64 atan2(float64 y,float64 x) 
.................... { 
....................    float64 z; 
....................    int1 sign; 
....................    unsigned int8 quad; 
....................    sign=0; 
....................    quad=0; //quadrant 
....................    quad=((y<=0.0)?((x<=0.0)?3:4):((x<0.0)?2:1)); 
....................    if(y<0.0) 
....................    { 
....................       sign=1; 
....................       y=-y; 
....................    } 
....................    if(x<0.0) 
....................    { 
....................       x=-x; 
....................    } 
....................    if (x==0.0) 
....................    { 
....................       if(y==0.0) 
....................       { 
....................       #ifdef _ERRNO 
....................       { 
....................          errno=EDOM; 
....................       } 
....................       #endif 
....................       } 
....................       else 
....................       { 
....................          if(sign) 
....................          { 
....................          return (-(PI_DIV_BY_TWO)); 
....................          } 
....................          else 
....................          { 
....................          return (PI_DIV_BY_TWO); 
....................          } 
....................       } 
....................    } 
....................    else 
....................    { 
....................       z=y/x; 
....................       switch(quad) 
....................       { 
....................          case 1: 
....................          { 
....................             return atan(z); 
....................             break; 
....................          } 
....................          case 2: 
....................          { 
.................... //            return (atan(z)+PI_DIV_BY_TWO);  //2L3122 
....................             return (PI-atan(z)); 
....................             break; 
....................          } 
....................          case 3: 
....................          { 
....................             return (atan(z)-PI); 
....................             break; 
....................          } 
....................          case 4: 
....................          { 
....................             return (-atan(z)); 
....................             break; 
....................          } 
....................       } 
....................    } 
.................... } 
.................... #endif 
....................  
.................... //////////////////// Hyperbolic functions //////////////////// 
....................  
.................... //////////////////////////////////////////////////////////////////////////// 
.................... //   float cosh(float x) 
.................... //////////////////////////////////////////////////////////////////////////// 
.................... // Description : Computes the hyperbolic cosine value of x 
.................... // Returns : returns the hyperbolic cosine value of x 
.................... // Date : N/A 
.................... // 
....................  
.................... float32 cosh(float32 x) 
.................... { 
....................    return ((exp(x)+exp(-x))/2); 
.................... } 
.................... //Overloaded functions for cosh() for PCD 
.................... // Overloaded function cosh() for data type - Float48 
.................... #if defined(__PCD__) 
.................... float48 cosh(float48 x) 
.................... { 
....................    return ((exp(x)+exp(-x))/2); 
.................... } 
....................  
.................... // Overloaded function cosh() for data type - Float64 
.................... float64 cosh(float64 x) 
.................... { 
....................    return ((exp(x)+exp(-x))/2); 
.................... } 
.................... #endif 
....................  
.................... //////////////////////////////////////////////////////////////////////////// 
.................... //   float sinh(float x) 
.................... //////////////////////////////////////////////////////////////////////////// 
.................... // Description : Computes the hyperbolic sine value of x 
.................... // Returns : returns the hyperbolic sine value of x 
.................... // Date : N/A 
.................... // 
....................  
.................... float32 sinh(float32 x) 
.................... { 
....................  
....................    return ((exp(x) - exp(-x))/2); 
.................... } 
.................... //Overloaded functions for sinh() for PCD 
.................... // Overloaded function sinh() for data type - Float48 
.................... #if defined(__PCD__) 
.................... float48 sinh(float48 x) 
.................... { 
....................  
....................    return ((exp(x) - exp(-x))/2); 
.................... } 
....................  
.................... // Overloaded function sinh() for data type - Float48 
.................... float64 sinh(float64 x) 
.................... { 
....................  
....................    return ((exp(x) - exp(-x))/2); 
.................... } 
.................... #endif 
....................  
.................... //////////////////////////////////////////////////////////////////////////// 
.................... //   float tanh(float x) 
.................... //////////////////////////////////////////////////////////////////////////// 
.................... // Description : Computes the hyperbolic tangent value of x 
.................... // Returns : returns the hyperbolic tangent value of x 
.................... // Date : N/A 
.................... // 
....................  
.................... float32 tanh(float32 x) 
.................... { 
....................    return(sinh(x)/cosh(x)); 
.................... } 
.................... //Overloaded functions for tanh() for PCD 
.................... // Overloaded function tanh() for data type - Float48 
.................... #if defined(__PCD__) 
.................... float48 tanh(float48 x) 
.................... { 
....................    return(sinh(x)/cosh(x)); 
.................... } 
....................  
.................... // Overloaded function tanh() for data type - Float64 
.................... float64 tanh(float64 x) 
.................... { 
....................    return(sinh(x)/cosh(x)); 
.................... } 
.................... #endif 
....................  
.................... //////////////////////////////////////////////////////////////////////////// 
.................... //   float frexp(float x, signed int *exp) 
.................... //////////////////////////////////////////////////////////////////////////// 
.................... // Description : breaks a floating point number into a normalized fraction and an integral 
.................... // power of 2. It stores the integer in the signed int object pointed to by exp. 
.................... // Returns : returns the value x, such that x is a double with magnitude in the interval 
.................... // [1/2,1) or zero, and value equals x times 2 raised to the power *exp.If value is zero, 
.................... // both parts of the result are zero. 
.................... // Date : N/A 
.................... // 
....................  
.................... #define LOG2 .30102999566398119521 
.................... float32 frexp(float32 x, signed int8 *exp) 
.................... { 
....................    float32 res; 
....................    int1 sign = 0; 
....................    if(x == 0.0) 
....................    { 
....................       *exp=0; 
....................       return (0.0); 
....................    } 
....................    if(x < 0.0) 
....................    { 
....................      x=-x; 
....................      sign=1; 
....................    } 
....................    if (x > 1.0) 
....................    { 
....................       *exp=(ceil(log10(x)/LOG2)); 
....................       res=x/(pow(2, *exp)); 
....................       if (res == 1) 
....................       { 
....................          *exp=*exp+1; 
....................           res=.5; 
....................       } 
....................    } 
....................    else 
....................    { 
....................       if(x < 0.5) 
....................       { 
....................          *exp=-1; 
....................          res=x*2; 
....................       } 
....................       else 
....................       { 
....................          *exp=0; 
....................           res=x; 
....................       } 
....................    } 
....................    if(sign) 
....................    { 
....................       res=-res; 
....................    } 
....................    return res; 
.................... } 
....................  
.................... //Overloaded functions for frexp() for PCD 
.................... // Overloaded function frexp() for data type - Float48 
.................... #if defined(__PCD__) 
.................... float48 frexp(float48 x, signed int8 *exp) 
.................... { 
....................    float48 res; 
....................    int1 sign = 0; 
....................    if(x == 0.0) 
....................    { 
....................       *exp=0; 
....................       return (0.0); 
....................    } 
....................    if(x < 0.0) 
....................    { 
....................      x=-x; 
....................      sign=1; 
....................    } 
....................    if (x > 1.0) 
....................    { 
....................       *exp=(ceil(log10(x)/LOG2)); 
....................       res=x/(pow(2, *exp)); 
....................       if (res == 1) 
....................       { 
....................          *exp=*exp+1; 
....................           res=.5; 
....................       } 
....................    } 
....................    else 
....................    { 
....................       if(x < 0.5) 
....................       { 
....................          *exp=-1; 
....................          res=x*2; 
....................       } 
....................       else 
....................       { 
....................          *exp=0; 
....................           res=x; 
....................       } 
....................    } 
....................    if(sign) 
....................    { 
....................       res=-res; 
....................    } 
....................    return res; 
.................... } 
....................  
.................... // Overloaded function frexp() for data type - Float64 
.................... float64 frexp(float64 x, signed int8 *exp) 
.................... { 
....................    float64 res; 
....................    int1 sign = 0; 
....................    if(x == 0.0) 
....................    { 
....................       *exp=0; 
....................       return (0.0); 
....................    } 
....................    if(x < 0.0) 
....................    { 
....................      x=-x; 
....................      sign=1; 
....................    } 
....................    if (x > 1.0) 
....................    { 
....................       *exp=(ceil(log10(x)/LOG2)); 
....................       res=x/(pow(2, *exp)); 
....................       if (res == 1) 
....................       { 
....................          *exp=*exp+1; 
....................           res=.5; 
....................       } 
....................    } 
....................    else 
....................    { 
....................       if(x < 0.5) 
....................       { 
....................          *exp=-1; 
....................          res=x*2; 
....................       } 
....................       else 
....................       { 
....................          *exp=0; 
....................           res=x; 
....................       } 
....................    } 
....................    if(sign) 
....................    { 
....................       res=-res; 
....................    } 
....................    return res; 
.................... } 
.................... #endif 
....................  
.................... ////////////////////////////////////////////////////////////////////////////// 
.................... //   float ldexp(float x, signed int *exp) 
.................... ////////////////////////////////////////////////////////////////////////////// 
.................... // Description : multiplies a floating point number by an integral power of 2. 
.................... // Returns : returns the value of x times 2 raised to the power exp. 
.................... // Date : N/A 
.................... // 
....................  
.................... float32 ldexp(float32 value, signed int8 exp) 
.................... { 
....................    return (value * pow(2,exp)); 
.................... } 
.................... //Overloaded functions for ldexp() for PCD 
.................... // Overloaded function ldexp() for data type - Float48 
....................  
.................... #if defined(__PCD__) 
.................... float48 ldexp(float48 value, signed int8 exp) 
.................... { 
....................    return (value * pow(2,exp)); 
.................... } 
.................... // Overloaded function ldexp() for data type - Float64 
.................... float64 ldexp(float64 value, signed int8 exp) 
.................... { 
....................    return (value * pow(2,exp)); 
.................... } 
.................... #endif 
....................  
.................... #endif 
....................  
.................... #include "HDM64GS12.c" 
.................... ///////////////////////////////////////////////////////////////////////// 
.................... ////                           HDM64GS12.c                           //// 
.................... ////                                                                 //// 
.................... //// This file contains drivers for using a Hantronix HDM64GS12 with //// 
.................... //// a KS0108 display controller. The HDM64GS12 is 128 by 64 pixels. //// 
.................... //// The driver treats the upper left pixel as (0,0).                //// 
.................... ////                                                                 //// 
.................... //// Use #define FAST_GLCD if the target chip has at least 1k of RAM //// 
.................... //// to decrease the time it takes to update the display.            //// 
.................... //// glcd_update() must then be called to update the display after   //// 
.................... //// changing the pixel information.                                 //// 
.................... //// See ex_glcd.c for suggested usage.                              //// 
.................... //// See KS0108.c for controlling a single 64 by 64 display          //// 
.................... ///////////////////////////////////////////////////////////////////////// 
.................... ////                                                                 //// 
.................... //// LCD Pin connections:                                            //// 
.................... //// (These can be changed as needed in the following defines).      //// 
.................... ////  * 1: VSS is connected to GND                                   //// 
.................... ////  * 2: VDD is connected to +5V                                   //// 
.................... ////  * 3: V0  - LCD operating voltage (Constrast adjustment)        //// 
.................... ////  * 4: D/I - Data or Instruction is connected to B2              //// 
.................... ////  * 5: R/W - Read or Write is connected to B4                    //// 
.................... ////  * 6: Enable is connected to B5                                 //// 
.................... ////  *7-14: Data Bus 0 to 7 is connected to port d                  //// 
.................... ////  *15: Chip Select 1 is connected to B0                          //// 
.................... ////  *16: Chip Select 2 is connected to B1                          //// 
.................... ////  *17: Reset is connected to C0                                  //// 
.................... ////  *18: Negative voltage is also connected to the 20k Ohm POT     //// 
.................... ////  *19: Positive voltage for LED backlight is connected to +5V    //// 
.................... ////  *20: Negavtive voltage for LED backlight is connected to GND   //// 
.................... ////                                                                 //// 
.................... ///////////////////////////////////////////////////////////////////////// 
.................... ////                                                                 //// 
.................... ////  glcd_init(mode)                                                //// 
.................... ////     * Must be called before any other function.                 //// 
.................... ////       - mode can be ON or OFF to turn the LCD on or off         //// 
.................... ////                                                                 //// 
.................... ////  glcd_pixel(x,y,color)                                          //// 
.................... ////     * Sets the pixel to the given color.                        //// 
.................... ////       - color can be ON or OFF                                  //// 
.................... ////                                                                 //// 
.................... ////  glcd_fillScreen(color)                                         //// 
.................... ////     * Fills the entire LCD with the given color.                //// 
.................... ////       - color can be ON or OFF                                  //// 
.................... ////                                                                 //// 
.................... ////  glcd_update()                                                  //// 
.................... ////     * Write the display data stored in RAM to the LCD           //// 
.................... ////     * Only available if FAST_GLCD is defined                    //// 
.................... ////                                                                 //// 
.................... ///////////////////////////////////////////////////////////////////////// 
.................... ////        (C) Copyright 1996, 2004 Custom Computer Services        //// 
.................... //// This source code may only be used by licensed users of the CCS  //// 
.................... //// C compiler.  This source code may only be distributed to other  //// 
.................... //// licensed users of the CCS C compiler.  No other use,            //// 
.................... //// reproduction or distribution is permitted without written       //// 
.................... //// permission.  Derivative programs created using this software    //// 
.................... //// in object code form are not restricted in any way.              //// 
.................... ///////////////////////////////////////////////////////////////////////// 
....................  
....................  
....................  
.................... #ifndef HDM64GS12 
.................... #define HDM64GS12 
....................  
.................... #ifndef FAST_GLCD 
.................... #define FAST_GLCD 
....................  
.................... #ifndef GLCD_WIDTH 
.................... #define GLCD_WIDTH   128 
.................... #endif 
....................  
.................... #ifndef GLCD_CS1 
.................... #define GLCD_CS1     PIN_B2   // Chip Selection 1 
.................... #endif 
....................  
.................... #ifndef GLCD_CS2 
.................... #define GLCD_CS2     PIN_B3   // Chip Selection 2 
.................... #endif 
....................  
.................... #ifndef GLCD_DI 
.................... #define GLCD_DI      PIN_B5   // Data or Instruction input 
.................... #endif 
....................  
.................... #ifndef GLCD_RW 
.................... #define GLCD_RW      PIN_B6   // Read/Write 
.................... #endif 
....................  
.................... #ifndef GLCD_E 
.................... #define GLCD_E       PIN_B7   // Enable 
.................... #endif 
....................  
.................... #ifndef GLCD_RST 
.................... #define GLCD_RST     PIN_B4   // Reset 
.................... #endif 
....................  
.................... #define GLCD_LEFT    0 
.................... #define GLCD_RIGHT   1 
....................  
.................... #ifndef ON 
.................... #define ON           1 
.................... #endif 
....................  
.................... #ifndef OFF 
.................... #define OFF          0 
.................... #endif 
....................  
.................... ///////////////////////////////////////////////////////////////////////// 
.................... // Function Prototypes 
.................... ///////////////////////////////////////////////////////////////////////// 
.................... void glcd_init(int1 mode); 
.................... void glcd_pixel(int8 x, int8 y, int1 color); 
.................... void glcd_fillScreen(int1 color); 
.................... void glcd_writeByte(int1 side, BYTE data); 
.................... BYTE glcd_readByte(int1 side); 
.................... void glcd_update(); 
.................... ///////////////////////////////////////////////////////////////////////// 
....................  
.................... #ifdef FAST_GLCD 
.................... struct 
.................... { 
....................    int8 left[512]; 
....................    int8 right[512]; 
.................... } displayData; 
.................... #endif 
....................  
....................  
.................... // Purpose:       Initialize the LCD. 
.................... //                Call before using any other LCD function. 
.................... // Inputs:        OFF - Turns the LCD off 
.................... //                ON  - Turns the LCD on 
.................... void glcd_init(int1 mode) 
.................... { 
....................    // Initialze some pins 
....................    output_high(GLCD_RST); 
*
01554:  BCF    F93.4
01556:  BSF    F8A.4
....................    output_low(GLCD_E); 
01558:  BCF    F93.7
0155A:  BCF    F8A.7
....................    output_low(GLCD_CS1); 
0155C:  BCF    F93.2
0155E:  BCF    F8A.2
....................    output_low(GLCD_CS2); 
01560:  BCF    F93.3
01562:  BCF    F8A.3
....................  
....................    output_low(GLCD_DI);                 // Set for instruction 
01564:  BCF    F93.5
01566:  BCF    F8A.5
....................    glcd_writeByte(GLCD_LEFT,  0xC0);    // Specify first RAM line at the top 
01568:  MOVLB  6
0156A:  CLRF   x8C
0156C:  MOVLW  C0
0156E:  MOVWF  x8D
01570:  MOVLB  0
01572:  RCALL  140C
....................    glcd_writeByte(GLCD_RIGHT, 0xC0);    //   of the screen 
01574:  MOVLW  01
01576:  MOVLB  6
01578:  MOVWF  x8C
0157A:  MOVLW  C0
0157C:  MOVWF  x8D
0157E:  MOVLB  0
01580:  RCALL  140C
....................    glcd_writeByte(GLCD_LEFT,  0x40);    // Set the column address to 0 
01582:  MOVLB  6
01584:  CLRF   x8C
01586:  MOVLW  40
01588:  MOVWF  x8D
0158A:  MOVLB  0
0158C:  RCALL  140C
....................    glcd_writeByte(GLCD_RIGHT, 0x40); 
0158E:  MOVLW  01
01590:  MOVLB  6
01592:  MOVWF  x8C
01594:  MOVLW  40
01596:  MOVWF  x8D
01598:  MOVLB  0
0159A:  RCALL  140C
....................    glcd_writeByte(GLCD_LEFT,  0xB8);    // Set the page address to 0 
0159C:  MOVLB  6
0159E:  CLRF   x8C
015A0:  MOVLW  B8
015A2:  MOVWF  x8D
015A4:  MOVLB  0
015A6:  RCALL  140C
....................    glcd_writeByte(GLCD_RIGHT, 0xB8); 
015A8:  MOVLW  01
015AA:  MOVLB  6
015AC:  MOVWF  x8C
015AE:  MOVLW  B8
015B0:  MOVWF  x8D
015B2:  MOVLB  0
015B4:  RCALL  140C
....................  
....................    if(mode == ON) 
015B6:  MOVLB  6
015B8:  DECFSZ x7D,W
015BA:  BRA    15D8
....................    { 
....................       glcd_writeByte(GLCD_LEFT,  0x3F); // Turn the display on 
015BC:  CLRF   x8C
015BE:  MOVLW  3F
015C0:  MOVWF  x8D
015C2:  MOVLB  0
015C4:  RCALL  140C
....................       glcd_writeByte(GLCD_RIGHT, 0x3F); 
015C6:  MOVLW  01
015C8:  MOVLB  6
015CA:  MOVWF  x8C
015CC:  MOVLW  3F
015CE:  MOVWF  x8D
015D0:  MOVLB  0
015D2:  RCALL  140C
....................    } 
....................    else 
015D4:  BRA    15F0
015D6:  MOVLB  6
....................    { 
....................       glcd_writeByte(GLCD_LEFT,  0x3E); // Turn the display off 
015D8:  CLRF   x8C
015DA:  MOVLW  3E
015DC:  MOVWF  x8D
015DE:  MOVLB  0
015E0:  RCALL  140C
....................       glcd_writeByte(GLCD_RIGHT, 0x3E); 
015E2:  MOVLW  01
015E4:  MOVLB  6
015E6:  MOVWF  x8C
015E8:  MOVLW  3E
015EA:  MOVWF  x8D
015EC:  MOVLB  0
015EE:  RCALL  140C
....................    } 
....................  
....................    glcd_fillScreen(OFF);                // Clear the display 
015F0:  MOVLB  6
015F2:  CLRF   x85
015F4:  MOVLB  0
015F6:  RCALL  1442
....................  
....................    #ifdef FAST_GLCD 
....................    glcd_update(); 
015F8:  RCALL  149C
....................    #endif 
.................... } 
015FA:  RETLW  00
....................  
....................  
.................... // Purpose:    Update the LCD with data from the display arrays 
.................... #ifdef FAST_GLCD 
.................... void glcd_update() 
.................... { 
....................    int8 i, j; 
....................    int8 *p1, *p2; 
....................  
....................    p1 = displayData.left; 
*
0149C:  MOVLB  6
0149E:  CLRF   x88
014A0:  MOVLW  17
014A2:  MOVWF  x87
....................    p2 = displayData.right; 
014A4:  MOVLW  02
014A6:  MOVWF  x8A
014A8:  MOVLW  17
014AA:  MOVWF  x89
....................  
....................    // Loop through the vertical pages 
....................    for(i = 0; i < 8; ++i) 
014AC:  CLRF   x85
014AE:  MOVF   x85,W
014B0:  SUBLW  07
014B2:  BNC   1550
....................    { 
....................       output_low(GLCD_DI);                      // Set for instruction 
014B4:  BCF    F93.5
014B6:  BCF    F8A.5
....................       glcd_writeByte(GLCD_LEFT, 0x40);          // Set horizontal address to 0 
014B8:  CLRF   x8C
014BA:  MOVLW  40
014BC:  MOVWF  x8D
014BE:  MOVLB  0
014C0:  RCALL  140C
....................       glcd_writeByte(GLCD_RIGHT, 0x40); 
014C2:  MOVLW  01
014C4:  MOVLB  6
014C6:  MOVWF  x8C
014C8:  MOVLW  40
014CA:  MOVWF  x8D
014CC:  MOVLB  0
014CE:  RCALL  140C
....................       glcd_writeByte(GLCD_LEFT, i | 0xB8);      // Set page address 
014D0:  MOVLB  6
014D2:  MOVF   x85,W
014D4:  IORLW  B8
014D6:  MOVWF  x8B
014D8:  CLRF   x8C
014DA:  MOVWF  x8D
014DC:  MOVLB  0
014DE:  RCALL  140C
....................       glcd_writeByte(GLCD_RIGHT, i | 0xB8); 
014E0:  MOVLB  6
014E2:  MOVF   x85,W
014E4:  IORLW  B8
014E6:  MOVWF  x8B
014E8:  MOVLW  01
014EA:  MOVWF  x8C
014EC:  MOVFF  68B,68D
014F0:  MOVLB  0
014F2:  RCALL  140C
....................       output_high(GLCD_DI);                     // Set for data 
014F4:  BCF    F93.5
014F6:  BSF    F8A.5
....................  
....................       // Loop through the horizontal sections 
....................       for(j = 0; j < 64; ++j) 
014F8:  MOVLB  6
014FA:  CLRF   x86
014FC:  MOVF   x86,W
014FE:  SUBLW  3F
01500:  BNC   154C
....................       { 
....................          glcd_writeByte(GLCD_LEFT, *p1++);      // Turn pixels on or off 
01502:  MOVFF  688,03
01506:  MOVF   x87,W
01508:  INCF   x87,F
0150A:  BTFSC  FD8.2
0150C:  INCF   x88,F
0150E:  MOVWF  FE9
01510:  MOVFF  03,FEA
01514:  MOVFF  FEF,68B
01518:  CLRF   x8C
0151A:  MOVFF  68B,68D
0151E:  MOVLB  0
01520:  RCALL  140C
....................          glcd_writeByte(GLCD_RIGHT, *p2++);     // Turn pixels on or off 
01522:  MOVLB  6
01524:  MOVFF  68A,03
01528:  MOVF   x89,W
0152A:  INCF   x89,F
0152C:  BTFSC  FD8.2
0152E:  INCF   x8A,F
01530:  MOVWF  FE9
01532:  MOVFF  03,FEA
01536:  MOVFF  FEF,68B
0153A:  MOVLW  01
0153C:  MOVWF  x8C
0153E:  MOVFF  68B,68D
01542:  MOVLB  0
01544:  RCALL  140C
....................       } 
01546:  MOVLB  6
01548:  INCF   x86,F
0154A:  BRA    14FC
....................    } 
0154C:  INCF   x85,F
0154E:  BRA    14AE
.................... } 
01550:  MOVLB  0
01552:  RETLW  00
.................... #endif 
....................  
....................  
.................... // Purpose:    Turn a pixel on a graphic LCD on or off 
.................... // Inputs:     1) x - the x coordinate of the pixel 
.................... //             2) y - the y coordinate of the pixel 
.................... //             3) color - ON or OFF 
.................... void glcd_pixel(int8 x, int8 y, int1 color) 
.................... #ifdef FAST_GLCD 
.................... { 
....................    int8* p; 
....................    int16 temp; 
....................    temp =  y/8; 
*
015FC:  MOVLB  6
015FE:  CLRF   xB7
01600:  RRCF   xB2,W
01602:  MOVWF  xB6
01604:  RRCF   xB6,F
01606:  RRCF   xB6,F
01608:  MOVLW  1F
0160A:  ANDWF  xB6,F
....................    temp *= 64; 
0160C:  RLCF   xB6,F
0160E:  RLCF   xB7,F
01610:  RLCF   xB6,F
01612:  RLCF   xB7,F
01614:  RLCF   xB6,F
01616:  RLCF   xB7,F
01618:  RLCF   xB6,F
0161A:  RLCF   xB7,F
0161C:  RLCF   xB6,F
0161E:  RLCF   xB7,F
01620:  RLCF   xB6,F
01622:  RLCF   xB7,F
01624:  MOVLW  C0
01626:  ANDWF  xB6,F
....................    temp += x; 
01628:  MOVF   xB1,W
0162A:  ADDWF  xB6,F
0162C:  MOVLW  00
0162E:  ADDWFC xB7,F
....................  
....................    if(x > 63) 
01630:  MOVF   xB1,W
01632:  SUBLW  3F
01634:  BC    1650
....................    { 
....................       p = displayData.right + temp - 64; 
01636:  MOVLW  17
01638:  ADDWF  xB6,W
0163A:  MOVWF  xB8
0163C:  MOVLW  02
0163E:  ADDWFC xB7,W
01640:  MOVWF  xB9
01642:  MOVLW  40
01644:  SUBWF  xB8,W
01646:  MOVWF  xB4
01648:  MOVLW  00
0164A:  SUBWFB xB9,W
0164C:  MOVWF  xB5
....................    } 
....................    else 
0164E:  BRA    165C
....................    { 
....................       p = displayData.left + temp; 
01650:  MOVLW  17
01652:  ADDWF  xB6,W
01654:  MOVWF  xB4
01656:  MOVLW  00
01658:  ADDWFC xB7,W
0165A:  MOVWF  xB5
....................    } 
....................  
....................    if(color) 
0165C:  MOVF   xB3,F
0165E:  BZ    168A
....................    { 
....................       bit_set(*p, y%8); 
01660:  MOVFF  6B5,03
01664:  MOVFF  6B4,FE9
01668:  MOVFF  6B5,FEA
0166C:  MOVF   xB2,W
0166E:  ANDLW  07
01670:  MOVWF  xB8
01672:  MOVLW  01
01674:  MOVWF  00
01676:  MOVF   xB8,W
01678:  MOVWF  01
0167A:  BZ    1684
0167C:  BCF    FD8.0
0167E:  RLCF   00,F
01680:  DECFSZ 01,F
01682:  BRA    167C
01684:  MOVF   00,W
01686:  IORWF  FEF,F
....................    } 
....................    else 
01688:  BRA    16B4
....................    { 
....................       bit_clear(*p, y%8); 
0168A:  MOVFF  6B5,03
0168E:  MOVFF  6B4,FE9
01692:  MOVFF  6B5,FEA
01696:  MOVF   xB2,W
01698:  ANDLW  07
0169A:  MOVWF  xB8
0169C:  MOVLW  01
0169E:  MOVWF  00
016A0:  MOVF   xB8,W
016A2:  MOVWF  01
016A4:  BZ    16AE
016A6:  BCF    FD8.0
016A8:  RLCF   00,F
016AA:  DECFSZ 01,F
016AC:  BRA    16A6
016AE:  MOVF   00,W
016B0:  XORLW  FF
016B2:  ANDWF  FEF,F
....................    } 
.................... } 
016B4:  MOVLB  0
016B6:  RETLW  00
.................... #else 
.................... { 
....................    BYTE data; 
....................    int1 side = GLCD_LEFT;  // Stores which chip to use on the LCD 
....................  
....................    if(x > 63)              // Check for first or second display area 
....................    { 
....................       x -= 64; 
....................       side = GLCD_RIGHT; 
....................    } 
....................  
....................    output_low(GLCD_DI);                         // Set for instruction 
....................    bit_clear(x,7);                              // Clear the MSB. Part of an instruction code 
....................    bit_set(x,6);                                // Set bit 6. Also part of an instruction code 
....................    glcd_writeByte(side, x);                     // Set the horizontal address 
....................    glcd_writeByte(side, (y/8 & 0xBF) | 0xB8);   // Set the vertical page address 
....................    output_high(GLCD_DI);                        // Set for data 
....................    glcd_readByte(side);                         // Need two reads to get data 
....................    data = glcd_readByte(side);                  //  at new address 
....................  
....................    if(color == ON) 
....................       bit_set(data, y%8);        // Turn the pixel on 
....................    else                          // or 
....................       bit_clear(data, y%8);      // turn the pixel off 
....................  
....................    output_low(GLCD_DI);          // Set for instruction 
....................    glcd_writeByte(side, x);      // Set the horizontal address 
....................    output_high(GLCD_DI);         // Set for data 
....................    glcd_writeByte(side, data);   // Write the pixel data 
.................... } 
.................... #endif 
....................  
....................  
.................... // Purpose:    Fill the LCD screen with the passed in color 
.................... // Inputs:     ON  - turn all the pixels on 
.................... //             OFF - turn all the pixels off 
.................... void glcd_fillScreen(int1 color) 
.................... #ifdef FAST_GLCD 
.................... { 
....................    int8  data; 
....................    int8  *p1, *p2; 
....................    int16 i; 
....................  
....................    p1 = displayData.left; 
*
01442:  MOVLB  6
01444:  CLRF   x88
01446:  MOVLW  17
01448:  MOVWF  x87
....................    p2 = displayData.right; 
0144A:  MOVLW  02
0144C:  MOVWF  x8A
0144E:  MOVLW  17
01450:  MOVWF  x89
....................    data = 0xFF * color; 
01452:  MOVF   x85,W
01454:  MULLW  FF
01456:  MOVFF  FF3,686
....................  
....................    for(i=0; i<512; ++i) 
0145A:  CLRF   x8C
0145C:  CLRF   x8B
0145E:  MOVF   x8C,W
01460:  SUBLW  01
01462:  BNC   1498
....................    { 
....................       *p1++ = data; 
01464:  MOVFF  688,03
01468:  MOVF   x87,W
0146A:  INCF   x87,F
0146C:  BTFSC  FD8.2
0146E:  INCF   x88,F
01470:  MOVWF  FE9
01472:  MOVFF  03,FEA
01476:  MOVFF  686,FEF
....................       *p2++ = data; 
0147A:  MOVFF  68A,03
0147E:  MOVF   x89,W
01480:  INCF   x89,F
01482:  BTFSC  FD8.2
01484:  INCF   x8A,F
01486:  MOVWF  FE9
01488:  MOVFF  03,FEA
0148C:  MOVFF  686,FEF
....................    } 
01490:  INCF   x8B,F
01492:  BTFSC  FD8.2
01494:  INCF   x8C,F
01496:  BRA    145E
.................... } 
01498:  MOVLB  0
0149A:  RETLW  00
.................... #else 
.................... { 
....................    int8 i, j; 
....................  
....................    // Loop through the vertical pages 
....................    for(i = 0; i < 8; ++i) 
....................    { 
....................       output_low(GLCD_DI);                      // Set for instruction 
....................       glcd_writeByte(GLCD_LEFT, 0b01000000);    // Set horizontal address to 0 
....................       glcd_writeByte(GLCD_RIGHT, 0b01000000); 
....................       glcd_writeByte(GLCD_LEFT, i | 0b10111000);// Set page address 
....................       glcd_writeByte(GLCD_RIGHT, i | 0b10111000); 
....................       output_high(GLCD_DI);                     // Set for data 
....................  
....................       // Loop through the horizontal sections 
....................       for(j = 0; j < 64; ++j) 
....................       { 
....................          glcd_writeByte(GLCD_LEFT, 0xFF*color);  // Turn pixels on or off 
....................          glcd_writeByte(GLCD_RIGHT, 0xFF*color); // Turn pixels on or off 
....................       } 
....................    } 
.................... } 
.................... #endif 
....................  
....................  
.................... // Purpose:    Write a byte of data to the specified chip 
.................... // Inputs:     1) chipSelect - which chip to write the data to 
.................... //             2) data - the byte of data to write 
.................... void glcd_writeByte(int1 side, BYTE data) 
.................... { 
....................    if(side)                   // Choose which side to write to 
*
0140C:  MOVLB  6
0140E:  MOVF   x8C,F
01410:  BZ    1418
....................       output_high(GLCD_CS2); 
01412:  BCF    F93.3
01414:  BSF    F8A.3
....................    else 
01416:  BRA    141C
....................       output_high(GLCD_CS1); 
01418:  BCF    F93.2
0141A:  BSF    F8A.2
....................  
....................    output_low(GLCD_RW);       // Set for writing 
0141C:  BCF    F93.6
0141E:  BCF    F8A.6
....................    output_d(data);            // Put the data on the port 
01420:  CLRF   F95
01422:  MOVFF  68D,F8C
....................    delay_cycles(1); 
01426:  NOP   
....................    output_high(GLCD_E);       // Pulse the enable pin 
01428:  BCF    F93.7
0142A:  BSF    F8A.7
....................    delay_cycles(5); 
0142C:  BRA    142E
0142E:  BRA    1430
01430:  NOP   
....................    output_low(GLCD_E); 
01432:  BCF    F93.7
01434:  BCF    F8A.7
....................  
....................    output_low(GLCD_CS1);      // Reset the chip select lines 
01436:  BCF    F93.2
01438:  BCF    F8A.2
....................    output_low(GLCD_CS2); 
0143A:  BCF    F93.3
0143C:  BCF    F8A.3
.................... } 
0143E:  MOVLB  0
01440:  RETLW  00
....................  
....................  
.................... // Purpose:    Reads a byte of data from the specified chip 
.................... // Ouputs:     A byte of data read from the chip 
.................... BYTE glcd_readByte(int1 side) 
.................... { 
....................    BYTE data;                 // Stores the data read from the LCD 
....................  
....................    set_tris_d(0xFF);          // Set port d to input 
....................    output_high(GLCD_RW);      // Set for reading 
....................  
....................    if(side)                   // Choose which side to write to 
....................       output_high(GLCD_CS2); 
....................    else 
....................       output_high(GLCD_CS1); 
....................  
....................    delay_cycles(1); 
....................    output_high(GLCD_E);       // Pulse the enable pin 
....................    delay_cycles(4); 
....................    data = input_d();          // Get the data from the display's output register 
....................    output_low(GLCD_E); 
....................  
....................    output_low(GLCD_CS1);      // Reset the chip select lines 
....................    output_low(GLCD_CS2); 
....................    return data;               // Return the read data 
.................... } 
....................  
.................... #endif 
....................  
.................... #include "GRAPHICS.c" 
.................... ///////////////////////////////////////////////////////////////////////// 
.................... ////                          graphics.c                             //// 
.................... ////                                                                 //// 
.................... ////   This file contains functions to draw lines, rectangles, bars, //// 
.................... ////   circles and text to a display. A function which draws a       //// 
.................... ////   single pixel must be defined before calling the functions in  //// 
.................... ////   this file. Call it glcd_pixel(x, y, color) where x is the     //// 
.................... ////   horizontal coordinate, y is the vertical coordinate, and      //// 
.................... ////   color is 1 bit to turn the pixel on or off.                   //// 
.................... ////                                                                 //// 
.................... ////   * Note: (0, 0) is treated as the upper left corner            //// 
.................... ////                                                                 //// 
.................... ///////////////////////////////////////////////////////////////////////// 
.................... ////                                                                 //// 
.................... ////  glcd_line(x1, y1, x2, y2, color)                               //// 
.................... ////     * Draws a line from the first point to the second point     //// 
.................... ////       with the given color                                      //// 
.................... ////       - color can be ON or OFF                                  //// 
.................... ////                                                                 //// 
.................... ////  glcd_rect(x1, y1, x2, y2, fill, color)                         //// 
.................... ////     * Draws a rectangle with one corner at point (x1,y1) and    //// 
.................... ////       the other corner at point (x2,y2)                         //// 
.................... ////       - fill can be YES or NO                                   //// 
.................... ////       - color can be ON or OFF                                  //// 
.................... ////                                                                 //// 
.................... ////  glcd_bar(x1, y1, x2, y2, width, color)                         //// 
.................... ////     * Draws a bar (wide line) from the first point to the       //// 
.................... ////       second point                                              //// 
.................... ////       - width is the number of pixels wide                      //// 
.................... ////       - color is ON or OFF                                      //// 
.................... ////                                                                 //// 
.................... ////  glcd_circle(x, y, radius, fill, color)                         //// 
.................... ////     * Draws a circle with center at (x,y)                       //// 
.................... ////       - fill can be YES or NO                                   //// 
.................... ////       - color can be ON or OFF                                  //// 
.................... ////                                                                 //// 
.................... ////  glcd_text57(x, y, textptr, size, color)                        //// 
.................... ////     * Write the null terminated text pointed to by textptr with //// 
.................... ////       the upper left coordinate of the first character at (x,y) //// 
.................... ////       Characters are 5 pixels wide and 7 pixels tall            //// 
.................... ////       - size is an integer that scales the size of the text     //// 
.................... ////       - color is ON or OFF                                      //// 
.................... ////     * Note - This function wraps characters to the next line    //// 
.................... ////              use #define GLCD_WIDTH to specify a display width  //// 
.................... ////                                                                 //// 
.................... ///////////////////////////////////////////////////////////////////////// 
.................... ////        (C) Copyright 1996, 2004 Custom Computer Services        //// 
.................... //// This source code may only be used by licensed users of the CCS  //// 
.................... //// C compiler.  This source code may only be distributed to other  //// 
.................... //// licensed users of the CCS C compiler.  No other use,            //// 
.................... //// reproduction or distribution is permitted without written       //// 
.................... //// permission.  Derivative programs created using this software    //// 
.................... //// in object code form are not restricted in any way.              //// 
.................... ///////////////////////////////////////////////////////////////////////// 
....................  
....................  
.................... ///////////////////////////////////////////////////////////////////////// 
.................... #ifndef GRAPHICS_DRAWING_FUNCTIONS 
.................... #define GRAPHICS_DRAWING_FUNCTIONS 
.................... ///////////////////////////////////////////////////////////////////////// 
....................  
....................  
.................... ///////////////////////////////////////////////////////////////////////// 
.................... #ifndef ON 
.................... #define ON  1 
.................... #endif 
....................  
.................... #ifndef OFF 
.................... #define OFF 0 
.................... #endif 
....................  
.................... #ifndef YES 
.................... #define YES 1 
.................... #endif 
....................  
.................... #ifndef NO 
.................... #define NO  0 
.................... #endif 
.................... ///////////////////////////////////////////////////////////////////////// 
....................  
....................  
.................... ///////////////////////////////////////////////////////////////////////// 
.................... //// Defines a 5x7 font 
.................... ///////////////////////////////////////////////////////////////////////// 
.................... const int8 FONT[51][5] ={0x00, 0x00, 0x00, 0x00, 0x00, // SPACE 
....................                          0x00, 0x00, 0x5F, 0x00, 0x00, // ! 
....................                          0x00, 0x03, 0x00, 0x03, 0x00, // " 
....................                          0x14, 0x3E, 0x14, 0x3E, 0x14, // # 
....................                          0x24, 0x2A, 0x7F, 0x2A, 0x12, // $ 
....................                          0x43, 0x33, 0x08, 0x66, 0x61, // % 
....................                          0x36, 0x49, 0x55, 0x22, 0x50, // & 
....................                          0x00, 0x05, 0x03, 0x00, 0x00, // ' 
....................                          0x00, 0x1C, 0x22, 0x41, 0x00, // ( 
....................                          0x00, 0x41, 0x22, 0x1C, 0x00, // ) 
....................                          0x14, 0x08, 0x3E, 0x08, 0x14, // * 
....................                          0x08, 0x08, 0x3E, 0x08, 0x08, // + 
....................                          0x00, 0x50, 0x30, 0x00, 0x00, // , 
....................                          0x08, 0x08, 0x08, 0x08, 0x08, // - 
....................                          0x00, 0x60, 0x60, 0x00, 0x00, // . 
....................                          0x20, 0x10, 0x08, 0x04, 0x02, // / 
....................                          0x3E, 0x51, 0x49, 0x45, 0x3E, // 0 
....................                          0x00, 0x04, 0x02, 0x7F, 0x00, // 1 
....................                          0x42, 0x61, 0x51, 0x49, 0x46, // 2 
....................                          0x22, 0x41, 0x49, 0x49, 0x36, // 3 
....................                          0x18, 0x14, 0x12, 0x7F, 0x10, // 4 
....................                          0x27, 0x45, 0x45, 0x45, 0x39, // 5 
....................                          0x3E, 0x49, 0x49, 0x49, 0x32, // 6 
....................                          0x01, 0x01, 0x71, 0x09, 0x07, // 7 
....................                          0x36, 0x49, 0x49, 0x49, 0x36, // 8 
....................                          0x26, 0x49, 0x49, 0x49, 0x3E, // 9 
....................                          0x00, 0x36, 0x36, 0x00, 0x00, // : 
....................                          0x00, 0x56, 0x36, 0x00, 0x00, // ; 
....................                          0x08, 0x14, 0x22, 0x41, 0x00, // < 
....................                          0x14, 0x14, 0x14, 0x14, 0x14, // = 
....................                          0x00, 0x41, 0x22, 0x14, 0x08, // > 
....................                          0x02, 0x01, 0x51, 0x09, 0x06, // ? 
....................                          0x3E, 0x41, 0x59, 0x55, 0x5E, // @ 
....................                          0x7E, 0x09, 0x09, 0x09, 0x7E, // A 
....................                          0x7F, 0x49, 0x49, 0x49, 0x36, // B 
....................                          0x3E, 0x41, 0x41, 0x41, 0x22, // C 
....................                          0x7F, 0x41, 0x41, 0x41, 0x3E, // D 
....................                          0x7F, 0x49, 0x49, 0x49, 0x41, // E 
....................                          0x7F, 0x09, 0x09, 0x09, 0x01, // F 
....................                          0x3E, 0x41, 0x41, 0x49, 0x3A, // G 
....................                          0x7F, 0x08, 0x08, 0x08, 0x7F, // H 
....................                          0x00, 0x41, 0x7F, 0x41, 0x00, // I 
....................                          0x30, 0x40, 0x40, 0x40, 0x3F, // J 
....................                          0x7F, 0x08, 0x14, 0x22, 0x41, // K 
....................                          0x7F, 0x40, 0x40, 0x40, 0x40, // L 
....................                          0x7F, 0x02, 0x0C, 0x02, 0x7F, // M 
....................                          0x7F, 0x02, 0x04, 0x08, 0x7F, // N 
....................                          0x3E, 0x41, 0x41, 0x41, 0x3E, // O 
....................                          0x7F, 0x09, 0x09, 0x09, 0x06, // P 
....................                          0x1E, 0x21, 0x21, 0x21, 0x5E, // Q 
....................                          0x7F, 0x09, 0x09, 0x09, 0x76};// R 
....................  
.................... const int8 FONT2[44][5]={0x26, 0x49, 0x49, 0x49, 0x32, // S 
....................                          0x01, 0x01, 0x7F, 0x01, 0x01, // T 
....................                          0x3F, 0x40, 0x40, 0x40, 0x3F, // U 
....................                          0x1F, 0x20, 0x40, 0x20, 0x1F, // V 
....................                          0x7F, 0x20, 0x10, 0x20, 0x7F, // W 
....................                          0x41, 0x22, 0x1C, 0x22, 0x41, // X 
....................                          0x07, 0x08, 0x70, 0x08, 0x07, // Y 
....................                          0x61, 0x51, 0x49, 0x45, 0x43, // Z 
....................                          0x00, 0x7F, 0x41, 0x00, 0x00, // [ 
....................                          0x02, 0x04, 0x08, 0x10, 0x20, // \ 
....................                          0x00, 0x00, 0x41, 0x7F, 0x00, // ] 
....................                          0x04, 0x02, 0x01, 0x02, 0x04, // ^ 
....................                          0x40, 0x40, 0x40, 0x40, 0x40, // _ 
....................                          0x00, 0x01, 0x02, 0x04, 0x00, // ` 
....................                          0x20, 0x54, 0x54, 0x54, 0x78, // a 
....................                          0x7F, 0x44, 0x44, 0x44, 0x38, // b 
....................                          0x38, 0x44, 0x44, 0x44, 0x44, // c 
....................                          0x38, 0x44, 0x44, 0x44, 0x7F, // d 
....................                          0x38, 0x54, 0x54, 0x54, 0x18, // e 
....................                          0x04, 0x04, 0x7E, 0x05, 0x05, // f 
....................                          0x08, 0x54, 0x54, 0x54, 0x3C, // g 
....................                          0x7F, 0x08, 0x04, 0x04, 0x78, // h 
....................                          0x00, 0x44, 0x7D, 0x40, 0x00, // i 
....................                          0x20, 0x40, 0x44, 0x3D, 0x00, // j 
....................                          0x7F, 0x10, 0x28, 0x44, 0x00, // k 
....................                          0x00, 0x41, 0x7F, 0x40, 0x00, // l 
....................                          0x7C, 0x04, 0x78, 0x04, 0x78, // m 
....................                          0x7C, 0x08, 0x04, 0x04, 0x78, // n 
....................                          0x38, 0x44, 0x44, 0x44, 0x38, // o 
....................                          0x7C, 0x14, 0x14, 0x14, 0x08, // p 
....................                          0x08, 0x14, 0x14, 0x14, 0x7C, // q 
....................                          0x00, 0x7C, 0x08, 0x04, 0x04, // r 
....................                          0x48, 0x54, 0x54, 0x54, 0x20, // s 
....................                          0x04, 0x04, 0x3F, 0x44, 0x44, // t 
....................                          0x3C, 0x40, 0x40, 0x20, 0x7C, // u 
....................                          0x1C, 0x20, 0x40, 0x20, 0x1C, // v 
....................                          0x3C, 0x40, 0x30, 0x40, 0x3C, // w 
....................                          0x44, 0x28, 0x10, 0x28, 0x44, // x 
....................                          0x0C, 0x50, 0x50, 0x50, 0x3C, // y 
....................                          0x44, 0x64, 0x54, 0x4C, 0x44, // z 
....................                          0x00, 0x08, 0x36, 0x41, 0x41, // { 
....................                          0x00, 0x00, 0x7F, 0x00, 0x00, // | 
....................                          0x41, 0x41, 0x36, 0x08, 0x00, // } 
....................                          0x02, 0x01, 0x02, 0x04, 0x02};// ~ 
.................... ///////////////////////////////////////////////////////////////////////// 
....................  
....................  
.................... ///////////////////////////////////////////////////////////////////////// 
.................... // Purpose:       Draw a line on a graphic LCD using Bresenham's 
.................... //                line drawing algorithm 
.................... // Inputs:        (x1, y1) - the start coordinate 
.................... //                (x2, y2) - the end coordinate 
.................... //                color - ON or OFF 
.................... // Dependencies:  glcd_pixel() 
.................... ///////////////////////////////////////////////////////////////////////// 
.................... #ifdef LARGE_LCD 
.................... void glcd_line(int16 x1, int16 y1, int16 x2, int16 y2, int1 color) 
.................... #else 
.................... void glcd_line(int8 x1, int8 y1, int8 x2, int8 y2, int1 color) 
.................... #endif 
.................... { 
*
047DE:  MOVLW  01
047E0:  MOVLB  6
047E2:  MOVWF  xAA
047E4:  MOVWF  xAB
047E6:  CLRF   xB0
....................    int16        dy, dx; 
....................    signed int8  addx=1, addy=1; 
....................    signed int16 P, diff; 
....................  
....................    #ifdef LARGE_LCD 
....................    int16 i=0; 
....................    dx = abs((signed int16)(x2 - x1)); 
....................    dy = abs((signed int16)(y2 - y1)); 
....................    #else 
....................    int8 i=0; 
....................    dx = abs((signed int8)(x2 - x1)); 
047E8:  MOVF   xA1,W
047EA:  SUBWF  xA3,W
047EC:  MOVWF  xB1
047EE:  MOVF   xB1,W
047F0:  BTFSS  xB1.7
047F2:  BRA    47FA
047F4:  MOVLW  00
047F6:  BSF    FD8.0
047F8:  SUBFWB xB1,W
047FA:  CLRF   03
047FC:  MOVWF  xA8
047FE:  MOVFF  03,6A9
....................    dy = abs((signed int8)(y2 - y1)); 
04802:  MOVF   xA2,W
04804:  SUBWF  xA4,W
04806:  MOVWF  xB1
04808:  MOVF   xB1,W
0480A:  BTFSS  xB1.7
0480C:  BRA    4814
0480E:  MOVLW  00
04810:  BSF    FD8.0
04812:  SUBFWB xB1,W
04814:  CLRF   03
04816:  MOVWF  xA6
04818:  MOVFF  03,6A7
....................    #endif 
....................  
....................    if(x1 > x2) 
0481C:  MOVF   xA1,W
0481E:  SUBWF  xA3,W
04820:  BC    4826
....................       addx = -1; 
04822:  MOVLW  FF
04824:  MOVWF  xAA
....................    if(y1 > y2) 
04826:  MOVF   xA2,W
04828:  SUBWF  xA4,W
0482A:  BC    4830
....................       addy = -1; 
0482C:  MOVLW  FF
0482E:  MOVWF  xAB
....................  
....................    if(dx >= dy) 
04830:  MOVF   xA7,W
04832:  SUBWF  xA9,W
04834:  BNC   48AE
04836:  BNZ   483E
04838:  MOVF   xA6,W
0483A:  SUBWF  xA8,W
0483C:  BNC   48AE
....................    { 
....................       dy *= 2; 
0483E:  BCF    FD8.0
04840:  RLCF   xA6,F
04842:  RLCF   xA7,F
....................       P = dy - dx; 
04844:  MOVF   xA8,W
04846:  SUBWF  xA6,W
04848:  MOVWF  00
0484A:  MOVF   xA9,W
0484C:  SUBWFB xA7,W
0484E:  MOVFF  00,6AC
04852:  MOVWF  xAD
....................       diff = P - dx; 
04854:  MOVF   xA8,W
04856:  SUBWF  xAC,W
04858:  MOVWF  xAE
0485A:  MOVF   xA9,W
0485C:  SUBWFB xAD,W
0485E:  MOVWF  xAF
....................  
....................       for(; i<=dx; ++i) 
04860:  MOVF   xA9,F
04862:  BNZ   486A
04864:  MOVF   xB0,W
04866:  SUBWF  xA8,W
04868:  BNC   48AC
....................       { 
....................          glcd_pixel(x1, y1, color); 
0486A:  MOVFF  6A1,6B1
0486E:  MOVFF  6A2,6B2
04872:  MOVFF  6A5,6B3
04876:  MOVLB  0
04878:  CALL   15FC
....................  
....................          if(P < 0) 
0487C:  MOVLB  6
0487E:  BTFSC  xAD.7
04880:  BRA    4884
04882:  BRA    4894
....................          { 
....................             P  += dy; 
04884:  MOVF   xA6,W
04886:  ADDWF  xAC,F
04888:  MOVF   xA7,W
0488A:  ADDWFC xAD,F
....................             x1 += addx; 
0488C:  MOVF   xAA,W
0488E:  ADDWF  xA1,W
04890:  MOVWF  xA1
....................          } 
....................          else 
04892:  BRA    48A8
....................          { 
....................             P  += diff; 
04894:  MOVF   xAE,W
04896:  ADDWF  xAC,F
04898:  MOVF   xAF,W
0489A:  ADDWFC xAD,F
....................             x1 += addx; 
0489C:  MOVF   xAA,W
0489E:  ADDWF  xA1,W
048A0:  MOVWF  xA1
....................             y1 += addy; 
048A2:  MOVF   xAB,W
048A4:  ADDWF  xA2,W
048A6:  MOVWF  xA2
....................          } 
....................       } 
048A8:  INCF   xB0,F
048AA:  BRA    4860
....................    } 
....................    else 
048AC:  BRA    491C
....................    { 
....................       dx *= 2; 
048AE:  BCF    FD8.0
048B0:  RLCF   xA8,F
048B2:  RLCF   xA9,F
....................       P = dx - dy; 
048B4:  MOVF   xA6,W
048B6:  SUBWF  xA8,W
048B8:  MOVWF  00
048BA:  MOVF   xA7,W
048BC:  SUBWFB xA9,W
048BE:  MOVFF  00,6AC
048C2:  MOVWF  xAD
....................       diff = P - dy; 
048C4:  MOVF   xA6,W
048C6:  SUBWF  xAC,W
048C8:  MOVWF  xAE
048CA:  MOVF   xA7,W
048CC:  SUBWFB xAD,W
048CE:  MOVWF  xAF
....................  
....................       for(; i<=dy; ++i) 
048D0:  MOVF   xA7,F
048D2:  BNZ   48DA
048D4:  MOVF   xB0,W
048D6:  SUBWF  xA6,W
048D8:  BNC   491C
....................       { 
....................          glcd_pixel(x1, y1, color); 
048DA:  MOVFF  6A1,6B1
048DE:  MOVFF  6A2,6B2
048E2:  MOVFF  6A5,6B3
048E6:  MOVLB  0
048E8:  CALL   15FC
....................  
....................          if(P < 0) 
048EC:  MOVLB  6
048EE:  BTFSC  xAD.7
048F0:  BRA    48F4
048F2:  BRA    4904
....................          { 
....................             P  += dx; 
048F4:  MOVF   xA8,W
048F6:  ADDWF  xAC,F
048F8:  MOVF   xA9,W
048FA:  ADDWFC xAD,F
....................             y1 += addy; 
048FC:  MOVF   xAB,W
048FE:  ADDWF  xA2,W
04900:  MOVWF  xA2
....................          } 
....................          else 
04902:  BRA    4918
....................          { 
....................             P  += diff; 
04904:  MOVF   xAE,W
04906:  ADDWF  xAC,F
04908:  MOVF   xAF,W
0490A:  ADDWFC xAD,F
....................             x1 += addx; 
0490C:  MOVF   xAA,W
0490E:  ADDWF  xA1,W
04910:  MOVWF  xA1
....................             y1 += addy; 
04912:  MOVF   xAB,W
04914:  ADDWF  xA2,W
04916:  MOVWF  xA2
....................          } 
....................       } 
04918:  INCF   xB0,F
0491A:  BRA    48D0
....................    } 
.................... } 
0491C:  MOVLB  0
0491E:  RETLW  00
....................  
....................  
.................... ///////////////////////////////////////////////////////////////////////// 
.................... // Purpose:       Draw a rectangle on a graphic LCD 
.................... // Inputs:        (x1, y1) - the start coordinate 
.................... //                (x2, y2) - the end coordinate 
.................... //                fill  - YES or NO 
.................... //                color - ON or OFF 
.................... // Dependencies:  glcd_pixel(), glcd_line() 
.................... ///////////////////////////////////////////////////////////////////////// 
.................... #ifdef LARGE_LCD 
.................... void glcd_rect(int16 x1, int16 y1, int16 x2, int16 y2, int1 fill, int1 color) 
.................... #else 
.................... void glcd_rect(int8 x1, int8 y1, int8 x2, int8 y2, int1 fill, int1 color) 
.................... #endif 
.................... { 
....................    if(fill) 
04920:  MOVLB  6
04922:  MOVF   x9A,F
04924:  BZ    4984
....................    { 
....................       #ifdef LARGE_LCD 
....................       int16 i, xmin, xmax, ymin, ymax; 
....................       #else 
....................       int8  i, xmin, xmax, ymin, ymax; 
....................       #endif 
....................  
....................       if(x1 < x2)                            //  Find x min and max 
04926:  MOVF   x98,W
04928:  SUBWF  x96,W
0492A:  BC    4936
....................       { 
....................          xmin = x1; 
0492C:  MOVFF  696,69D
....................          xmax = x2; 
04930:  MOVFF  698,69E
....................       } 
....................       else 
04934:  BRA    493E
....................       { 
....................          xmin = x2; 
04936:  MOVFF  698,69D
....................          xmax = x1; 
0493A:  MOVFF  696,69E
....................       } 
....................  
....................       if(y1 < y2)                            // Find the y min and max 
0493E:  MOVF   x99,W
04940:  SUBWF  x97,W
04942:  BC    494E
....................       { 
....................          ymin = y1; 
04944:  MOVFF  697,69F
....................          ymax = y2; 
04948:  MOVFF  699,6A0
....................       } 
....................       else 
0494C:  BRA    4956
....................       { 
....................          ymin = y2; 
0494E:  MOVFF  699,69F
....................          ymax = y1; 
04952:  MOVFF  697,6A0
....................       } 
....................  
....................       for(; xmin <= xmax; ++xmin) 
04956:  MOVF   x9D,W
04958:  SUBWF  x9E,W
0495A:  BNC   4982
....................       { 
....................          for(i=ymin; i<=ymax; ++i) 
0495C:  MOVFF  69F,69C
04960:  MOVF   x9C,W
04962:  SUBWF  xA0,W
04964:  BNC   497E
....................          { 
....................             glcd_pixel(xmin, i, color); 
04966:  MOVFF  69D,6B1
0496A:  MOVFF  69C,6B2
0496E:  MOVFF  69B,6B3
04972:  MOVLB  0
04974:  CALL   15FC
....................          } 
04978:  MOVLB  6
0497A:  INCF   x9C,F
0497C:  BRA    4960
....................       } 
0497E:  INCF   x9D,F
04980:  BRA    4956
....................    } 
....................    else 
04982:  BRA    49E0
....................    { 
....................       glcd_line(x1, y1, x2, y1, color);      // Draw the 4 sides 
04984:  MOVFF  696,6A1
04988:  MOVFF  697,6A2
0498C:  MOVFF  698,6A3
04990:  MOVFF  697,6A4
04994:  MOVFF  69B,6A5
04998:  MOVLB  0
0499A:  RCALL  47DE
....................       glcd_line(x1, y2, x2, y2, color); 
0499C:  MOVFF  696,6A1
049A0:  MOVFF  699,6A2
049A4:  MOVFF  698,6A3
049A8:  MOVFF  699,6A4
049AC:  MOVFF  69B,6A5
049B0:  RCALL  47DE
....................       glcd_line(x1, y1, x1, y2, color); 
049B2:  MOVFF  696,6A1
049B6:  MOVFF  697,6A2
049BA:  MOVFF  696,6A3
049BE:  MOVFF  699,6A4
049C2:  MOVFF  69B,6A5
049C6:  RCALL  47DE
....................       glcd_line(x2, y1, x2, y2, color); 
049C8:  MOVFF  698,6A1
049CC:  MOVFF  697,6A2
049D0:  MOVFF  698,6A3
049D4:  MOVFF  699,6A4
049D8:  MOVFF  69B,6A5
049DC:  RCALL  47DE
049DE:  MOVLB  6
....................    } 
.................... } 
049E0:  MOVLB  0
049E2:  RETLW  00
....................  
.................... ///////////////////////////////////////////////////////////////////////// 
.................... // Purpose:       Draw a bar (wide line) on a graphic LCD 
.................... // Inputs:        (x1, y1) - the start coordinate 
.................... //                (x2, y2) - the end coordinate 
.................... //                width  - The number of pixels wide 
.................... //                color - ON or OFF 
.................... ///////////////////////////////////////////////////////////////////////// 
.................... #ifdef LARGE_LCD 
.................... void glcd_bar(int16 x1, int16 y1, int16 x2, int16 y2, int8 width, int1 color) 
.................... #else 
.................... void glcd_bar(int8 x1, int8 y1, int8 x2, int8 y2, int8 width, int1 color) 
.................... #endif 
.................... { 
....................    int8         half_width; 
....................    signed int16 dy, dx; 
....................    signed int8  addx=1, addy=1, j; 
....................    signed int16 P, diff, c1, c2; 
....................  
....................    #ifdef LARGE_LCD 
....................    int16 i=0; 
....................    dx = abs((signed int16)(x2 - x1)); 
....................    dy = abs((signed int16)(y2 - y1)); 
....................    #else 
....................    int8 i=0; 
....................    dx = abs((signed int8)(x2 - x1)); 
....................    dy = abs((signed int8)(y2 - y1)); 
....................    #endif 
....................  
....................    half_width = width/2; 
....................    c1 = -(dx*x1 + dy*y1); 
....................    c2 = -(dx*x2 + dy*y2); 
....................  
....................    if(x1 > x2) 
....................    { 
....................       signed int16 temp; 
....................       temp = c1; 
....................       c1 = c2; 
....................       c2 = temp; 
....................       addx = -1; 
....................    } 
....................    if(y1 > y2) 
....................    { 
....................       signed int16 temp; 
....................       temp = c1; 
....................       c1 = c2; 
....................       c2 = temp; 
....................       addy = -1; 
....................    } 
....................  
....................    if(dx >= dy) 
....................    { 
....................       P = 2*dy - dx; 
....................       diff = P - dx; 
....................  
....................       for(i=0; i<=dx; ++i) 
....................       { 
....................          for(j=-half_width; j<half_width+width%2; ++j) 
....................          { 
....................             #ifdef LARGE_LCD 
....................             int16 temp; 
....................             #else 
....................             int8 temp; 
....................             #endif 
....................  
....................             temp = dx*x1+dy*(y1+j);    // Use more RAM to increase speed 
....................             if(temp+c1 >= 0 && temp+c2 <=0) 
....................                glcd_pixel(x1, y1+j, color); 
....................          } 
....................          if(P < 0) 
....................          { 
....................             P  += 2*dy; 
....................             x1 += addx; 
....................          } 
....................          else 
....................          { 
....................             P  += diff; 
....................             x1 += addx; 
....................             y1 += addy; 
....................          } 
....................       } 
....................    } 
....................    else 
....................    { 
....................       P = 2*dx - dy; 
....................       diff = P - dy; 
....................  
....................       for(i=0; i<=dy; ++i) 
....................       { 
....................          if(P < 0) 
....................          { 
....................             P  += 2*dx; 
....................             y1 += addy; 
....................          } 
....................          else 
....................          { 
....................             P  += diff; 
....................             x1 += addx; 
....................             y1 += addy; 
....................          } 
....................          for(j=-half_width; j<half_width+width%2; ++j) 
....................          { 
....................             #ifdef LARGE_LCD 
....................             int16 temp; 
....................             #else 
....................             int8 temp; 
....................             #endif 
....................  
....................             temp = dx*x1+dy*(y1+j);    // Use more RAM to increase speed 
....................             if(temp+c1 >= 0 && temp+c2 <=0) 
....................                glcd_pixel(x1+j, y1, color); 
....................          } 
....................       } 
....................    } 
.................... } 
....................  
....................  
.................... ///////////////////////////////////////////////////////////////////////// 
.................... // Purpose:       Draw a circle on a graphic LCD 
.................... // Inputs:        (x,y) - the center of the circle 
.................... //                radius - the radius of the circle 
.................... //                fill - YES or NO 
.................... //                color - ON or OFF 
.................... ///////////////////////////////////////////////////////////////////////// 
.................... #ifdef LARGE_LCD 
.................... void glcd_circle(int16 x, int16 y, int16 radius, int1 fill, int1 color) 
.................... #else 
.................... void glcd_circle(int8 x, int8 y, int8 radius, int1 fill, int1 color) 
.................... #endif 
.................... { 
....................    #ifdef LARGE_LCD 
....................    signed int16 a, b, P; 
....................    #else 
....................    signed int8  a, b, P; 
....................    #endif 
....................  
....................    a = 0; 
....................    b = radius; 
....................    P = 1 - radius; 
....................  
....................    do 
....................    { 
....................       if(fill) 
....................       { 
....................          glcd_line(x-a, y+b, x+a, y+b, color); 
....................          glcd_line(x-a, y-b, x+a, y-b, color); 
....................          glcd_line(x-b, y+a, x+b, y+a, color); 
....................          glcd_line(x-b, y-a, x+b, y-a, color); 
....................       } 
....................       else 
....................       { 
....................          glcd_pixel(a+x, b+y, color); 
....................          glcd_pixel(b+x, a+y, color); 
....................          glcd_pixel(x-a, b+y, color); 
....................          glcd_pixel(x-b, a+y, color); 
....................          glcd_pixel(b+x, y-a, color); 
....................          glcd_pixel(a+x, y-b, color); 
....................          glcd_pixel(x-a, y-b, color); 
....................          glcd_pixel(x-b, y-a, color); 
....................       } 
....................  
....................       if(P < 0) 
....................          P += 3 + 2 * a++; 
....................       else 
....................          P += 5 + 2 * (a++ - b--); 
....................     } while(a <= b); 
.................... } 
....................  
....................  
.................... ///////////////////////////////////////////////////////////////////////// 
.................... // Purpose:       Write text on a graphic LCD 
.................... // Inputs:        (x,y) - The upper left coordinate of the first letter 
.................... //                textptr - A pointer to an array of text to display 
.................... //                size - The size of the text: 1 = 5x7, 2 = 10x14, ... 
.................... //                color - ON or OFF 
.................... ///////////////////////////////////////////////////////////////////////// 
.................... #ifdef LARGE_LCD 
.................... void glcd_text57(int16 x, int16 y, char* textptr, int8 size, int1 color) 
.................... #else 
.................... void glcd_text57(int8 x, int8 y, char* textptr, int8 size, int1 color) 
.................... #endif 
.................... { 
....................    int8 j, k, l, m;                       // Loop counters 
....................    int8 pixelData[5];                     // Stores character data 
....................  
....................    for(; *textptr != '\0'; ++textptr, ++x)// Loop through the passed string 
*
016B8:  MOVFF  699,03
016BC:  MOVLB  6
016BE:  MOVFF  698,FE9
016C2:  MOVFF  699,FEA
016C6:  MOVF   FEF,F
016C8:  BTFSC  FD8.2
016CA:  BRA    186C
....................    { 
....................       if(*textptr < 'S') // Checks if the letter is in the first font array 
016CC:  MOVFF  699,03
016D0:  MOVFF  698,FE9
016D4:  MOVFF  699,FEA
016D8:  MOVF   FEF,W
016DA:  SUBLW  52
016DC:  BNC   172C
....................          memcpy(pixelData, FONT[*textptr - ' '], 5); 
016DE:  MOVFF  699,03
016E2:  MOVFF  698,FE9
016E6:  MOVFF  699,FEA
016EA:  MOVLW  20
016EC:  SUBWF  FEF,W
016EE:  MULLW  05
016F0:  MOVF   FF3,W
016F2:  CLRF   03
016F4:  MOVWF  xA5
016F6:  MOVLW  06
016F8:  MOVWF  FEA
016FA:  MOVLW  A0
016FC:  MOVWF  FE9
016FE:  CLRF   xA9
01700:  MOVFF  6A5,6A8
01704:  MOVFF  FF2,6A6
01708:  BCF    FF2.7
0170A:  MOVLW  05
0170C:  MOVWF  01
0170E:  CLRF   FF7
01710:  MOVF   xA5,W
01712:  MOVLB  0
01714:  CALL   009E
01718:  TBLRD*-
0171A:  TBLRD*+
0171C:  MOVFF  FF5,FEE
01720:  DECFSZ 01,F
01722:  BRA    171A
01724:  MOVLB  6
01726:  BTFSC  xA6.7
01728:  BSF    FF2.7
....................       else if(*textptr <= '~') // Check if the letter is in the second font array 
0172A:  BRA    1796
0172C:  MOVFF  699,03
01730:  MOVFF  698,FE9
01734:  MOVFF  699,FEA
01738:  MOVF   FEF,W
0173A:  SUBLW  7E
0173C:  BNC   178C
....................          memcpy(pixelData, FONT2[*textptr - 'S'], 5); 
0173E:  MOVFF  699,03
01742:  MOVFF  698,FE9
01746:  MOVFF  699,FEA
0174A:  MOVLW  53
0174C:  SUBWF  FEF,W
0174E:  MULLW  05
01750:  MOVF   FF3,W
01752:  CLRF   03
01754:  MOVWF  xA5
01756:  MOVLW  06
01758:  MOVWF  FEA
0175A:  MOVLW  A0
0175C:  MOVWF  FE9
0175E:  CLRF   xA9
01760:  MOVFF  6A5,6A8
01764:  MOVFF  FF2,6A6
01768:  BCF    FF2.7
0176A:  MOVLW  05
0176C:  MOVWF  01
0176E:  CLRF   FF7
01770:  MOVF   xA5,W
01772:  MOVLB  0
01774:  CALL   01BC
01778:  TBLRD*-
0177A:  TBLRD*+
0177C:  MOVFF  FF5,FEE
01780:  DECFSZ 01,F
01782:  BRA    177A
01784:  MOVLB  6
01786:  BTFSC  xA6.7
01788:  BSF    FF2.7
....................       else 
0178A:  BRA    1796
....................          memcpy(pixelData, FONT[0], 5);   // Default to space 
0178C:  CLRF   xA0
0178E:  CLRF   xA1
01790:  CLRF   xA2
01792:  CLRF   xA3
01794:  CLRF   xA4
....................  
....................       // Handles newline and carriage returns 
....................       switch(*textptr) 
....................       { 
01796:  MOVFF  699,03
0179A:  MOVF   x98,W
0179C:  MOVWF  FE9
0179E:  MOVFF  03,FEA
017A2:  MOVF   FEF,W
017A4:  XORLW  0A
017A6:  MOVLB  0
017A8:  BZ    17B0
017AA:  XORLW  07
017AC:  BZ    17C0
017AE:  BRA    17C6
....................          case '\n': 
....................             y += 7*size + 1; 
017B0:  MOVLB  6
017B2:  MOVF   x9A,W
017B4:  MULLW  07
017B6:  MOVF   FF3,W
017B8:  ADDLW  01
017BA:  ADDWF  x97,F
....................             continue; 
017BC:  BRA    185E
017BE:  MOVLB  0
....................          case '\r': 
....................             x = 0; 
017C0:  MOVLB  6
017C2:  CLRF   x96
....................             continue; 
017C4:  BRA    185E
....................       } 
....................  
....................       if(x+5*size >= GLCD_WIDTH)          // Performs character wrapping 
017C6:  MOVLB  6
017C8:  MOVF   x9A,W
017CA:  MULLW  05
017CC:  MOVF   FF3,W
017CE:  ADDWF  x96,W
017D0:  SUBLW  7F
017D2:  BC    17E0
....................       { 
....................          x = 0;                           // Set x at far left position 
017D4:  CLRF   x96
....................          y += 7*size + 1;                 // Set y at next position down 
017D6:  MOVF   x9A,W
017D8:  MULLW  07
017DA:  MOVF   FF3,W
017DC:  ADDLW  01
017DE:  ADDWF  x97,F
....................       } 
....................       for(j=0; j<5; ++j, x+=size)         // Loop through character byte data 
017E0:  CLRF   x9C
017E2:  MOVF   x9C,W
017E4:  SUBLW  04
017E6:  BNC   185E
....................       { 
....................          for(k=0; k < 7; ++k)             // Loop through the vertical pixels 
017E8:  CLRF   x9D
017EA:  MOVF   x9D,W
017EC:  SUBLW  06
017EE:  BNC   1856
....................          { 
....................             if(bit_test(pixelData[j], k)) // Check if the pixel should be set 
017F0:  CLRF   03
017F2:  MOVF   x9C,W
017F4:  ADDLW  A0
017F6:  MOVWF  FE9
017F8:  MOVLW  06
017FA:  ADDWFC 03,W
017FC:  MOVWF  FEA
017FE:  MOVFF  FEF,6A5
01802:  MOVFF  6A5,00
01806:  MOVF   x9D,W
01808:  MOVWF  01
0180A:  BZ    1814
0180C:  BCF    FD8.0
0180E:  RRCF   00,F
01810:  DECFSZ 01,F
01812:  BRA    180C
01814:  BTFSS  00.0
01816:  BRA    1852
....................             { 
....................                for(l=0; l < size; ++l)    // These two loops change the 
01818:  CLRF   x9E
0181A:  MOVF   x9A,W
0181C:  SUBWF  x9E,W
0181E:  BC    1852
....................                {                          // character's size 
....................                   for(m=0; m < size; ++m) 
01820:  CLRF   x9F
01822:  MOVF   x9A,W
01824:  SUBWF  x9F,W
01826:  BC    184E
....................                   { 
....................                      glcd_pixel(x+m, y+k*size+l, color); // Draws the pixel 
01828:  MOVF   x9F,W
0182A:  ADDWF  x96,W
0182C:  MOVWF  xA5
0182E:  MOVF   x9D,W
01830:  MULWF  x9A
01832:  MOVF   FF3,W
01834:  ADDWF  x97,W
01836:  ADDWF  x9E,W
01838:  MOVWF  xA6
0183A:  MOVFF  6A5,6B1
0183E:  MOVWF  xB2
01840:  MOVFF  69B,6B3
01844:  MOVLB  0
01846:  RCALL  15FC
....................                   } 
01848:  MOVLB  6
0184A:  INCF   x9F,F
0184C:  BRA    1822
....................                } 
0184E:  INCF   x9E,F
01850:  BRA    181A
....................             } 
....................          } 
01852:  INCF   x9D,F
01854:  BRA    17EA
....................       } 
01856:  INCF   x9C,F
01858:  MOVF   x9A,W
0185A:  ADDWF  x96,F
0185C:  BRA    17E2
....................    } 
0185E:  INCF   x98,F
01860:  BTFSC  FD8.2
01862:  INCF   x99,F
01864:  INCF   x96,F
01866:  MOVLB  0
01868:  BRA    16B8
0186A:  MOVLB  6
.................... } 
0186C:  MOVLB  0
0186E:  RETLW  00
....................  
.................... #endif 
....................  
.................... #include "imagen.h" 
.................... const int8 Bombillo [64][16] = { 
.................... 0x00, 0x00, 0x00, 0x00, 0x00, 0x00, 0x00, 0x00, 0x00, 0x00, 0x00, 0x00, 0x00, 0x00, 0x00, 0x00, 
.................... 0x00, 0x00, 0x00, 0x00, 0x00, 0x00, 0x00, 0x00, 0x00, 0x00, 0x00, 0x00, 0x00, 0x00, 0x00, 0x00, 
.................... 0x00, 0x00, 0x00, 0x00, 0x00, 0x00, 0x00, 0x00, 0x00, 0x00, 0x00, 0x00, 0x00, 0x00, 0x00, 0x00, 
.................... 0x00, 0x00, 0x00, 0x00, 0x00, 0x00, 0x00, 0x00, 0x00, 0x00, 0x00, 0x00, 0x00, 0x00, 0x00, 0x00, 
.................... 0x00, 0x00, 0x00, 0x00, 0x00, 0x00, 0x00, 0x00, 0x00, 0x00, 0x00, 0x00, 0x00, 0x00, 0x00, 0x00, 
.................... 0x00, 0x00, 0x00, 0x00, 0x00, 0x00, 0x00, 0x00, 0x00, 0x00, 0x00, 0x00, 0x00, 0x00, 0x00, 0x00, 
.................... 0x00, 0x00, 0x00, 0x00, 0x00, 0x00, 0x00, 0x00, 0x00, 0x00, 0x00, 0x00, 0x00, 0x00, 0x00, 0x00, 
.................... 0x00, 0x00, 0x00, 0x00, 0x00, 0x00, 0x00, 0x00, 0x00, 0x00, 0x00, 0x00, 0x00, 0x00, 0x00, 0x00, 
.................... 0x00, 0x00, 0x00, 0x00, 0x00, 0x00, 0x00, 0x00, 0x00, 0x00, 0x00, 0x00, 0x00, 0x00, 0x00, 0x00, 
.................... 0x00, 0x00, 0x00, 0x00, 0x00, 0x00, 0x00, 0x00, 0x00, 0x00, 0x00, 0x00, 0x00, 0x00, 0x00, 0x00, 
.................... 0x00, 0x00, 0x00, 0x00, 0x00, 0x00, 0x00, 0x00, 0x00, 0x00, 0x00, 0x00, 0x00, 0x00, 0x00, 0x00, 
.................... 0x00, 0x00, 0x00, 0x00, 0x00, 0x00, 0x00, 0x00, 0x00, 0x00, 0x00, 0x00, 0x00, 0x00, 0x00, 0x00, 
.................... 0x00, 0x00, 0x00, 0x00, 0x00, 0x00, 0x00, 0x00, 0x00, 0x00, 0x00, 0x00, 0x00, 0x00, 0x00, 0x00, 
.................... 0x00, 0x00, 0x00, 0x00, 0x00, 0x00, 0x00, 0x00, 0x00, 0x00, 0x00, 0x00, 0x00, 0x00, 0x00, 0x00, 
.................... 0x00, 0x00, 0x00, 0x00, 0x00, 0x00, 0x00, 0x00, 0x00, 0x00, 0x00, 0x00, 0x00, 0x00, 0x00, 0x00, 
.................... 0x00, 0x00, 0x00, 0x00, 0x00, 0x00, 0x00, 0x00, 0x00, 0x00, 0x00, 0x00, 0x00, 0x08, 0x00, 0x80, 
.................... 0x00, 0x00, 0x00, 0x00, 0x00, 0x00, 0x00, 0x00, 0x00, 0x00, 0x00, 0x00, 0x00, 0x04, 0x01, 0x00, 
.................... 0x00, 0x00, 0x00, 0x00, 0x00, 0x00, 0x00, 0x00, 0x00, 0x00, 0x00, 0x00, 0x00, 0x02, 0x02, 0x00, 
.................... 0x00, 0x00, 0x00, 0x00, 0x00, 0x00, 0x00, 0x00, 0x00, 0x00, 0x00, 0x00, 0x00, 0x00, 0x78, 0x00, 
.................... 0x00, 0x00, 0x00, 0x00, 0x00, 0x00, 0x00, 0x00, 0x00, 0x00, 0x00, 0x00, 0x00, 0x00, 0x84, 0x00, 
.................... 0x00, 0x00, 0x00, 0x00, 0x00, 0x00, 0x00, 0x00, 0x00, 0x00, 0x00, 0x00, 0x00, 0x01, 0x02, 0x00, 
.................... 0x00, 0x00, 0x00, 0x00, 0x00, 0x00, 0x00, 0x00, 0x00, 0x00, 0x00, 0x00, 0x00, 0xF9, 0x02, 0xF8, 
.................... 0x00, 0x00, 0x00, 0x00, 0x00, 0x00, 0x00, 0x00, 0x00, 0x00, 0x00, 0x00, 0x00, 0x01, 0x02, 0x00, 
.................... 0x00, 0x00, 0x00, 0x00, 0x00, 0x00, 0x00, 0x00, 0x00, 0x00, 0x00, 0x00, 0x00, 0x01, 0x02, 0x00, 
.................... 0x00, 0x00, 0x00, 0x00, 0x00, 0x00, 0x00, 0x00, 0x00, 0x00, 0x00, 0x00, 0x00, 0x04, 0x84, 0x80, 
.................... 0x00, 0x00, 0x00, 0x00, 0x00, 0x00, 0x00, 0x00, 0x00, 0x00, 0x00, 0x00, 0x00, 0x08, 0x78, 0x40, 
.................... 0x00, 0x00, 0x00, 0x00, 0x00, 0x00, 0x00, 0x00, 0x00, 0x00, 0x00, 0x00, 0x00, 0x10, 0x48, 0x20, 
.................... 0x00, 0x00, 0x00, 0x00, 0x00, 0x00, 0x00, 0x00, 0x00, 0x00, 0x00, 0x00, 0x00, 0x20, 0x48, 0x10, 
.................... 0x00, 0x00, 0x00, 0x00, 0x00, 0x00, 0x00, 0x00, 0x00, 0x00, 0x00, 0x00, 0x00, 0x00, 0x78, 0x00, 
.................... 0x00, 0x00, 0x00, 0x00, 0x00, 0x00, 0x00, 0x00, 0x00, 0x00, 0x00, 0x00, 0x00, 0x00, 0x00, 0x00, 
.................... 0x00, 0x00, 0x00, 0x00, 0x00, 0x00, 0x00, 0x00, 0x00, 0x00, 0x00, 0x00, 0x00, 0x00, 0x00, 0x00, 
.................... 0x00, 0x00, 0x00, 0x00, 0x00, 0x00, 0x00, 0x00, 0x00, 0x00, 0x00, 0x00, 0x00, 0x00, 0x00, 0x00, 
.................... 0x00, 0x00, 0x00, 0x00, 0x00, 0x00, 0x00, 0x00, 0x00, 0x00, 0x00, 0x00, 0x00, 0x00, 0x00, 0x00, 
.................... 0x00, 0x00, 0x00, 0x00, 0x00, 0x00, 0x00, 0x00, 0x00, 0x00, 0x00, 0x00, 0x00, 0x00, 0x00, 0x00, 
.................... 0x00, 0x00, 0x00, 0x00, 0x00, 0x00, 0x00, 0x00, 0x00, 0x00, 0x00, 0x00, 0x00, 0x00, 0x00, 0x00, 
.................... 0x00, 0x00, 0x00, 0x00, 0x00, 0x00, 0x00, 0x00, 0x00, 0x00, 0x00, 0x00, 0x00, 0x00, 0x00, 0x00, 
.................... 0x00, 0x00, 0x00, 0x00, 0x00, 0x00, 0x00, 0x00, 0x00, 0x00, 0x00, 0x00, 0x00, 0x00, 0x00, 0x00, 
.................... 0x00, 0x00, 0x00, 0x00, 0x00, 0x00, 0x00, 0x00, 0x00, 0x00, 0x00, 0x00, 0x00, 0x00, 0x00, 0x00, 
.................... 0x00, 0x00, 0x00, 0x00, 0x00, 0x00, 0x00, 0x00, 0x00, 0x00, 0x00, 0x00, 0x00, 0x00, 0x00, 0x00, 
.................... 0x00, 0x00, 0x00, 0x00, 0x00, 0x00, 0x00, 0x00, 0x00, 0x00, 0x00, 0x00, 0x00, 0x00, 0x00, 0x00, 
.................... 0x00, 0x00, 0x00, 0x00, 0x00, 0x00, 0x00, 0x00, 0x00, 0x00, 0x00, 0x00, 0x00, 0x00, 0x00, 0x00, 
.................... 0x00, 0x00, 0x00, 0x00, 0x00, 0x00, 0x00, 0x00, 0x00, 0x00, 0x00, 0x00, 0x00, 0x00, 0x00, 0x00, 
.................... 0x00, 0x00, 0x00, 0x00, 0x00, 0x00, 0x00, 0x00, 0x00, 0x00, 0x00, 0x00, 0x00, 0x00, 0x00, 0x00, 
.................... 0x00, 0x00, 0x00, 0x00, 0x00, 0x00, 0x00, 0x00, 0x00, 0x00, 0x00, 0x00, 0x00, 0x00, 0x00, 0x00, 
.................... 0x00, 0x00, 0x00, 0x00, 0x00, 0x00, 0x00, 0x00, 0x00, 0x00, 0x00, 0x00, 0x00, 0x00, 0x00, 0x00, 
.................... 0x00, 0x00, 0x00, 0x00, 0x00, 0x00, 0x00, 0x00, 0x00, 0x00, 0x00, 0x00, 0x00, 0x00, 0x00, 0x00, 
.................... 0x00, 0x00, 0x00, 0x00, 0x00, 0x00, 0x00, 0x00, 0x00, 0x00, 0x00, 0x00, 0x00, 0x00, 0x00, 0x00, 
.................... 0x00, 0x00, 0x00, 0x00, 0x00, 0x00, 0x00, 0x00, 0x00, 0x00, 0x00, 0x00, 0x00, 0x00, 0x00, 0x00, 
.................... 0x00, 0x00, 0x00, 0x00, 0x00, 0x00, 0x00, 0x00, 0x00, 0x00, 0x00, 0x00, 0x00, 0x00, 0x00, 0x00, 
.................... 0x00, 0x00, 0x00, 0x00, 0x00, 0x00, 0x00, 0x00, 0x00, 0x00, 0x00, 0x00, 0x00, 0x00, 0x00, 0x00, 
.................... 0x00, 0x00, 0x00, 0x00, 0x00, 0x00, 0x00, 0x00, 0x00, 0x00, 0x00, 0x00, 0x00, 0x00, 0x00, 0x00, 
.................... 0x00, 0x00, 0x00, 0x00, 0x00, 0x00, 0x00, 0x00, 0x00, 0x00, 0x00, 0x00, 0x00, 0x00, 0x00, 0x00, 
.................... 0x00, 0x00, 0x00, 0x00, 0x00, 0x00, 0x00, 0x00, 0x00, 0x00, 0x00, 0x00, 0x00, 0x00, 0x00, 0x00, 
.................... 0x00, 0x00, 0x00, 0x00, 0x00, 0x00, 0x00, 0x00, 0x00, 0x00, 0x00, 0x00, 0x00, 0x00, 0x00, 0x00, 
.................... 0x00, 0x00, 0x00, 0x00, 0x00, 0x00, 0x00, 0x00, 0x00, 0x00, 0x00, 0x00, 0x00, 0x00, 0x00, 0x00, 
.................... 0x00, 0x00, 0x00, 0x00, 0x00, 0x00, 0x00, 0x00, 0x00, 0x00, 0x00, 0x00, 0x00, 0x00, 0x00, 0x00, 
.................... 0x00, 0x00, 0x00, 0x00, 0x00, 0x00, 0x00, 0x00, 0x00, 0x00, 0x00, 0x00, 0x00, 0x00, 0x00, 0x00, 
.................... 0x00, 0x00, 0x00, 0x00, 0x00, 0x00, 0x00, 0x00, 0x00, 0x00, 0x00, 0x00, 0x00, 0x00, 0x00, 0x00, 
.................... 0x00, 0x00, 0x00, 0x00, 0x00, 0x00, 0x00, 0x00, 0x00, 0x00, 0x00, 0x00, 0x00, 0x00, 0x00, 0x00, 
.................... 0x00, 0x00, 0x00, 0x00, 0x00, 0x00, 0x00, 0x00, 0x00, 0x00, 0x00, 0x00, 0x00, 0x00, 0x00, 0x00, 
.................... 0x00, 0x00, 0x00, 0x00, 0x00, 0x00, 0x00, 0x00, 0x00, 0x00, 0x00, 0x00, 0x00, 0x00, 0x00, 0x00, 
.................... 0x00, 0x00, 0x00, 0x00, 0x00, 0x00, 0x00, 0x00, 0x00, 0x00, 0x00, 0x00, 0x00, 0x00, 0x00, 0x00, 
.................... 0x00, 0x00, 0x00, 0x00, 0x00, 0x00, 0x00, 0x00, 0x00, 0x00, 0x00, 0x00, 0x00, 0x00, 0x00, 0x00, 
.................... 0x00, 0x00, 0x00, 0x00, 0x00, 0x00, 0x00, 0x00, 0x00, 0x00, 0x00, 0x00, 0x00, 0x00, 0x00, 0x00 
.................... }; 
....................  
.................... const int8 Tomai [64][16] = { 
.................... 0x00, 0x00, 0x00, 0x00, 0x00, 0x00, 0x00, 0x00, 0x00, 0x00, 0x00, 0x00, 0x00, 0x00, 0x00, 0x00, 
.................... 0x00, 0x00, 0x00, 0x00, 0x00, 0x00, 0x00, 0x00, 0x00, 0x00, 0x00, 0x00, 0x00, 0x00, 0x00, 0x00, 
.................... 0x00, 0x00, 0x00, 0x00, 0x00, 0x00, 0x00, 0x00, 0x00, 0x00, 0x00, 0x00, 0x00, 0x00, 0x00, 0x00, 
.................... 0x00, 0x00, 0x00, 0x00, 0x00, 0x00, 0x00, 0x00, 0x00, 0x00, 0x00, 0x00, 0x00, 0x00, 0x00, 0x00, 
.................... 0x00, 0x00, 0x00, 0x00, 0x00, 0x00, 0x00, 0x00, 0x00, 0x00, 0x00, 0x00, 0x00, 0x00, 0x00, 0x00, 
.................... 0x00, 0x00, 0x00, 0x00, 0x00, 0x00, 0x00, 0x00, 0x00, 0x00, 0x00, 0x00, 0x00, 0x00, 0x00, 0x00, 
.................... 0x00, 0x00, 0x00, 0x00, 0x00, 0x00, 0x00, 0x00, 0x00, 0x00, 0x00, 0x00, 0x00, 0x00, 0x00, 0x00, 
.................... 0x00, 0x00, 0x00, 0x00, 0x00, 0x00, 0x00, 0x00, 0x00, 0x00, 0x00, 0x00, 0x00, 0x00, 0x00, 0x00, 
.................... 0x00, 0x00, 0x00, 0x00, 0x00, 0x00, 0x00, 0x00, 0x00, 0x00, 0x00, 0x00, 0x00, 0x00, 0x00, 0x00, 
.................... 0x00, 0x00, 0x00, 0x00, 0x00, 0x00, 0x00, 0x00, 0x00, 0x00, 0x00, 0x00, 0x00, 0x00, 0x00, 0x00, 
.................... 0x00, 0x00, 0x00, 0x00, 0x00, 0x00, 0x00, 0x00, 0x00, 0x00, 0x00, 0x00, 0x00, 0x00, 0x00, 0x00, 
.................... 0x00, 0x00, 0x00, 0x00, 0x00, 0x00, 0x00, 0x00, 0x00, 0x00, 0x00, 0x00, 0x00, 0x00, 0x00, 0x00, 
.................... 0x00, 0x00, 0x00, 0x00, 0x00, 0x00, 0x00, 0x00, 0x00, 0x00, 0x00, 0x00, 0x00, 0x00, 0x00, 0x00, 
.................... 0x00, 0x00, 0x00, 0x00, 0x00, 0x00, 0x00, 0x00, 0x00, 0x00, 0x00, 0x00, 0x00, 0x00, 0x00, 0x00, 
.................... 0x00, 0x00, 0x00, 0x00, 0x00, 0x00, 0x00, 0x00, 0x00, 0x00, 0x00, 0x00, 0x00, 0x00, 0x00, 0x00, 
.................... 0x00, 0x00, 0x00, 0x00, 0x00, 0x00, 0x00, 0x00, 0x00, 0x00, 0x00, 0x00, 0x00, 0x00, 0x00, 0x00, 
.................... 0x00, 0x00, 0x00, 0x00, 0x00, 0x00, 0x00, 0x00, 0x00, 0x00, 0x00, 0x00, 0x00, 0x00, 0x00, 0x00, 
.................... 0x00, 0x00, 0x00, 0x00, 0x00, 0x00, 0x00, 0x00, 0x00, 0x00, 0x00, 0x00, 0x00, 0x00, 0x00, 0x00, 
.................... 0x00, 0x00, 0x00, 0x00, 0x00, 0x00, 0x00, 0x00, 0x00, 0x00, 0x00, 0x00, 0x00, 0x00, 0x00, 0x00, 
.................... 0x00, 0x00, 0x00, 0x00, 0x00, 0x00, 0x00, 0x00, 0x00, 0x00, 0x00, 0x00, 0x00, 0x00, 0x00, 0x00, 
.................... 0x00, 0x00, 0x00, 0x00, 0x00, 0x00, 0x00, 0x00, 0x00, 0x00, 0x00, 0x00, 0x00, 0x00, 0x00, 0x00, 
.................... 0x00, 0x00, 0x00, 0x00, 0x00, 0x00, 0x00, 0x00, 0x00, 0x00, 0x00, 0x00, 0x00, 0x00, 0x00, 0x00, 
.................... 0x00, 0x00, 0x00, 0x00, 0x00, 0x00, 0x00, 0x00, 0x00, 0x00, 0x00, 0x00, 0x00, 0x00, 0x00, 0x00, 
.................... 0x00, 0x00, 0x00, 0x00, 0x00, 0x00, 0x00, 0x00, 0x00, 0x00, 0x00, 0x00, 0x00, 0x00, 0x00, 0x00, 
.................... 0x00, 0x00, 0x00, 0x00, 0x00, 0x00, 0x00, 0x00, 0x00, 0x00, 0x00, 0x00, 0x00, 0x00, 0x00, 0x00, 
.................... 0x00, 0x00, 0x00, 0x00, 0x00, 0x00, 0x00, 0x00, 0x00, 0x00, 0x00, 0x00, 0x00, 0x00, 0x00, 0x00, 
.................... 0x00, 0x00, 0x00, 0x00, 0x00, 0x00, 0x00, 0x00, 0x00, 0x00, 0x00, 0x00, 0x00, 0x00, 0x00, 0x00, 
.................... 0x00, 0x00, 0x00, 0x00, 0x00, 0x00, 0x00, 0x00, 0x00, 0x00, 0x00, 0x00, 0x00, 0x00, 0x00, 0x00, 
.................... 0x00, 0x00, 0x00, 0x00, 0x00, 0x00, 0x00, 0x00, 0x00, 0x00, 0x00, 0x00, 0x00, 0x00, 0x00, 0x00, 
.................... 0x00, 0x00, 0x00, 0x00, 0x00, 0x00, 0x00, 0x00, 0x00, 0x00, 0x00, 0x00, 0x00, 0x00, 0x00, 0x00, 
.................... 0x00, 0x00, 0x00, 0x00, 0x00, 0x00, 0x00, 0x00, 0x00, 0x00, 0x00, 0x00, 0x00, 0x7F, 0xFF, 0xF8, 
.................... 0x00, 0x00, 0x00, 0x00, 0x00, 0x00, 0x00, 0x00, 0x00, 0x00, 0x00, 0x00, 0x00, 0x40, 0x00, 0x08, 
.................... 0x00, 0x00, 0x00, 0x00, 0x00, 0x00, 0x00, 0x00, 0x00, 0x00, 0x00, 0x00, 0x00, 0x47, 0x03, 0x88, 
.................... 0x00, 0x00, 0x00, 0x00, 0x00, 0x00, 0x00, 0x00, 0x00, 0x00, 0x00, 0x00, 0x00, 0x45, 0x02, 0x88, 
.................... 0x00, 0x00, 0x00, 0x00, 0x00, 0x00, 0x00, 0x00, 0x00, 0x00, 0x00, 0x00, 0x00, 0x45, 0x02, 0x88, 
.................... 0x00, 0x00, 0x00, 0x00, 0x00, 0x00, 0x00, 0x00, 0x00, 0x00, 0x00, 0x00, 0x00, 0x45, 0x02, 0x88, 
.................... 0x00, 0x00, 0x00, 0x00, 0x00, 0x00, 0x00, 0x00, 0x00, 0x00, 0x00, 0x00, 0x00, 0x45, 0x02, 0x88, 
.................... 0x00, 0x00, 0x00, 0x00, 0x00, 0x00, 0x00, 0x00, 0x00, 0x00, 0x00, 0x00, 0x00, 0x47, 0x03, 0x88, 
.................... 0x00, 0x00, 0x00, 0x00, 0x00, 0x00, 0x00, 0x00, 0x00, 0x00, 0x00, 0x00, 0x00, 0x40, 0x00, 0x08, 
.................... 0x00, 0x00, 0x00, 0x00, 0x00, 0x00, 0x00, 0x00, 0x00, 0x00, 0x00, 0x00, 0x00, 0x40, 0xFC, 0x08, 
.................... 0x00, 0x00, 0x00, 0x00, 0x00, 0x00, 0x00, 0x00, 0x00, 0x00, 0x00, 0x00, 0x00, 0x40, 0x84, 0x08, 
.................... 0x00, 0x00, 0x00, 0x00, 0x00, 0x00, 0x00, 0x00, 0x00, 0x00, 0x00, 0x00, 0x00, 0x40, 0x84, 0x08, 
.................... 0x00, 0x00, 0x00, 0x00, 0x00, 0x00, 0x00, 0x00, 0x00, 0x00, 0x00, 0x00, 0x00, 0x40, 0xFC, 0x08, 
.................... 0x00, 0x00, 0x00, 0x00, 0x00, 0x00, 0x00, 0x00, 0x00, 0x00, 0x00, 0x00, 0x00, 0x40, 0x00, 0x08, 
.................... 0x00, 0x00, 0x00, 0x00, 0x00, 0x00, 0x00, 0x00, 0x00, 0x00, 0x00, 0x00, 0x00, 0x7F, 0xFF, 0xF8, 
.................... 0x00, 0x00, 0x00, 0x00, 0x00, 0x00, 0x00, 0x00, 0x00, 0x00, 0x00, 0x00, 0x00, 0x00, 0x00, 0x00, 
.................... 0x00, 0x00, 0x00, 0x00, 0x00, 0x00, 0x00, 0x00, 0x00, 0x00, 0x00, 0x00, 0x00, 0x00, 0x00, 0x00, 
.................... 0x00, 0x00, 0x00, 0x00, 0x00, 0x00, 0x00, 0x00, 0x00, 0x00, 0x00, 0x00, 0x00, 0x00, 0x00, 0x00, 
.................... 0x00, 0x00, 0x00, 0x00, 0x00, 0x00, 0x00, 0x00, 0x00, 0x00, 0x00, 0x00, 0x00, 0x00, 0x00, 0x00, 
.................... 0x00, 0x00, 0x00, 0x00, 0x00, 0x00, 0x00, 0x00, 0x00, 0x00, 0x00, 0x00, 0x00, 0x00, 0x00, 0x00, 
.................... 0x00, 0x00, 0x00, 0x00, 0x00, 0x00, 0x00, 0x00, 0x00, 0x00, 0x00, 0x00, 0x00, 0x00, 0x00, 0x00, 
.................... 0x00, 0x00, 0x00, 0x00, 0x00, 0x00, 0x00, 0x00, 0x00, 0x00, 0x00, 0x00, 0x00, 0x00, 0x00, 0x00, 
.................... 0x00, 0x00, 0x00, 0x00, 0x00, 0x00, 0x00, 0x00, 0x00, 0x00, 0x00, 0x00, 0x00, 0x00, 0x00, 0x00, 
.................... 0x00, 0x00, 0x00, 0x00, 0x00, 0x00, 0x00, 0x00, 0x00, 0x00, 0x00, 0x00, 0x00, 0x00, 0x00, 0x00, 
.................... 0x00, 0x00, 0x00, 0x00, 0x00, 0x00, 0x00, 0x00, 0x00, 0x00, 0x00, 0x00, 0x00, 0x00, 0x00, 0x00, 
.................... 0x00, 0x00, 0x00, 0x00, 0x00, 0x00, 0x00, 0x00, 0x00, 0x00, 0x00, 0x00, 0x00, 0x00, 0x00, 0x00, 
.................... 0x00, 0x00, 0x00, 0x00, 0x00, 0x00, 0x00, 0x00, 0x00, 0x00, 0x00, 0x00, 0x00, 0x00, 0x00, 0x00, 
.................... 0x00, 0x00, 0x00, 0x00, 0x00, 0x00, 0x00, 0x00, 0x00, 0x00, 0x00, 0x00, 0x00, 0x00, 0x00, 0x00, 
.................... 0x00, 0x00, 0x00, 0x00, 0x00, 0x00, 0x00, 0x00, 0x00, 0x00, 0x00, 0x00, 0x00, 0x00, 0x00, 0x00, 
.................... 0x00, 0x00, 0x00, 0x00, 0x00, 0x00, 0x00, 0x00, 0x00, 0x00, 0x00, 0x00, 0x00, 0x00, 0x00, 0x00, 
.................... 0x00, 0x00, 0x00, 0x00, 0x00, 0x00, 0x00, 0x00, 0x00, 0x00, 0x00, 0x00, 0x00, 0x00, 0x00, 0x00, 
.................... 0x00, 0x00, 0x00, 0x00, 0x00, 0x00, 0x00, 0x00, 0x00, 0x00, 0x00, 0x00, 0x00, 0x00, 0x00, 0x00, 
.................... 0x00, 0x00, 0x00, 0x00, 0x00, 0x00, 0x00, 0x00, 0x00, 0x00, 0x00, 0x00, 0x00, 0x00, 0x00, 0x00, 
.................... 0x00, 0x00, 0x00, 0x00, 0x00, 0x00, 0x00, 0x00, 0x00, 0x00, 0x00, 0x00, 0x00, 0x00, 0x00, 0x00 
.................... }; 
....................  
.................... const int8 Ventilador [64][16] = { 
.................... 0x00, 0x00, 0x00, 0x00, 0x00, 0x00, 0x00, 0x00, 0x00, 0x00, 0x00, 0x00, 0x00, 0x00, 0x00, 0x00, 
.................... 0x00, 0x00, 0x00, 0x00, 0x00, 0x00, 0x00, 0x00, 0x00, 0x00, 0x00, 0x00, 0x00, 0x00, 0x00, 0x00, 
.................... 0x00, 0x00, 0x00, 0x00, 0x00, 0x00, 0x00, 0x00, 0x00, 0x00, 0x00, 0x00, 0x00, 0x00, 0x00, 0x00, 
.................... 0x00, 0x00, 0x00, 0x00, 0x00, 0x00, 0x00, 0x00, 0x00, 0x00, 0x00, 0x00, 0x00, 0x00, 0x00, 0x00, 
.................... 0x00, 0x00, 0x00, 0x00, 0x00, 0x00, 0x00, 0x00, 0x00, 0x00, 0x00, 0x00, 0x00, 0x00, 0x00, 0x00, 
.................... 0x00, 0x00, 0x00, 0x00, 0x00, 0x00, 0x00, 0x00, 0x00, 0x00, 0x00, 0x00, 0x00, 0x00, 0x00, 0x00, 
.................... 0x00, 0x00, 0x00, 0x00, 0x00, 0x00, 0x00, 0x00, 0x00, 0x00, 0x00, 0x00, 0x00, 0x00, 0x00, 0x00, 
.................... 0x00, 0x00, 0x00, 0x00, 0x00, 0x00, 0x00, 0x00, 0x00, 0x00, 0x00, 0x00, 0x00, 0x00, 0x00, 0x00, 
.................... 0x00, 0x00, 0x00, 0x00, 0x00, 0x00, 0x00, 0x00, 0x00, 0x00, 0x00, 0x00, 0x00, 0x00, 0x00, 0x00, 
.................... 0x00, 0x00, 0x00, 0x00, 0x00, 0x00, 0x00, 0x00, 0x00, 0x00, 0x00, 0x00, 0x00, 0x00, 0x00, 0x00, 
.................... 0x00, 0x00, 0x00, 0x00, 0x00, 0x00, 0x00, 0x00, 0x00, 0x00, 0x00, 0x00, 0x00, 0x00, 0x00, 0x00, 
.................... 0x00, 0x00, 0x00, 0x00, 0x00, 0x00, 0x00, 0x00, 0x00, 0x00, 0x00, 0x00, 0x00, 0x00, 0x00, 0x00, 
.................... 0x00, 0x00, 0x00, 0x00, 0x00, 0x00, 0x00, 0x00, 0x00, 0x00, 0x00, 0x00, 0x00, 0x00, 0x00, 0x00, 
.................... 0x00, 0x00, 0x00, 0x00, 0x00, 0x00, 0x00, 0x00, 0x00, 0x00, 0x00, 0x00, 0x00, 0x00, 0x00, 0x00, 
.................... 0x00, 0x00, 0x00, 0x00, 0x00, 0x00, 0x00, 0x00, 0x00, 0x00, 0x00, 0x00, 0x00, 0x00, 0x00, 0x00, 
.................... 0x00, 0x00, 0x00, 0x00, 0x00, 0x00, 0x00, 0x00, 0x00, 0x00, 0x00, 0x00, 0x00, 0x00, 0x00, 0x00, 
.................... 0x00, 0x00, 0x00, 0x00, 0x00, 0x00, 0x00, 0x00, 0x00, 0x00, 0x00, 0x00, 0x00, 0x00, 0x00, 0x00, 
.................... 0x00, 0x00, 0x00, 0x00, 0x00, 0x00, 0x00, 0x00, 0x00, 0x00, 0x00, 0x00, 0x00, 0x00, 0x00, 0x00, 
.................... 0x00, 0x00, 0x00, 0x00, 0x00, 0x00, 0x00, 0x00, 0x00, 0x00, 0x00, 0x00, 0x00, 0x00, 0x00, 0x00, 
.................... 0x00, 0x00, 0x00, 0x00, 0x00, 0x00, 0x00, 0x00, 0x00, 0x00, 0x00, 0x00, 0x00, 0x00, 0x00, 0x00, 
.................... 0x00, 0x00, 0x00, 0x00, 0x00, 0x00, 0x00, 0x00, 0x00, 0x00, 0x00, 0x00, 0x00, 0x00, 0x00, 0x00, 
.................... 0x00, 0x00, 0x00, 0x00, 0x00, 0x00, 0x00, 0x00, 0x00, 0x00, 0x00, 0x00, 0x00, 0x00, 0x00, 0x00, 
.................... 0x00, 0x00, 0x00, 0x00, 0x00, 0x00, 0x00, 0x00, 0x00, 0x00, 0x00, 0x00, 0x00, 0x00, 0x00, 0x00, 
.................... 0x00, 0x00, 0x00, 0x00, 0x00, 0x00, 0x00, 0x00, 0x00, 0x00, 0x00, 0x00, 0x00, 0x00, 0x00, 0x00, 
.................... 0x00, 0x00, 0x00, 0x00, 0x00, 0x00, 0x00, 0x00, 0x00, 0x00, 0x00, 0x00, 0x00, 0x00, 0x00, 0x00, 
.................... 0x00, 0x00, 0x00, 0x00, 0x00, 0x00, 0x00, 0x00, 0x00, 0x00, 0x00, 0x00, 0x00, 0x00, 0x00, 0x00, 
.................... 0x00, 0x00, 0x00, 0x00, 0x00, 0x00, 0x00, 0x00, 0x00, 0x00, 0x00, 0x00, 0x00, 0x00, 0x00, 0x00, 
.................... 0x00, 0x00, 0x00, 0x00, 0x00, 0x00, 0x00, 0x00, 0x00, 0x00, 0x00, 0x00, 0x00, 0x00, 0x00, 0x00, 
.................... 0x00, 0x00, 0x00, 0x00, 0x00, 0x00, 0x00, 0x00, 0x00, 0x00, 0x00, 0x00, 0x00, 0x00, 0x00, 0x00, 
.................... 0x00, 0x00, 0x00, 0x00, 0x00, 0x00, 0x00, 0x00, 0x00, 0x00, 0x00, 0x00, 0x00, 0x00, 0x00, 0x00, 
.................... 0x00, 0x00, 0x00, 0x00, 0x00, 0x00, 0x00, 0x00, 0x00, 0x00, 0x00, 0x00, 0x00, 0x00, 0x00, 0x00, 
.................... 0x00, 0x00, 0x00, 0x00, 0x00, 0x00, 0x00, 0x00, 0x00, 0x00, 0x00, 0x00, 0x00, 0x00, 0x00, 0x00, 
.................... 0x00, 0x00, 0x00, 0x00, 0x00, 0x00, 0x00, 0x00, 0x00, 0x00, 0x00, 0x00, 0x00, 0x00, 0x00, 0x00, 
.................... 0x00, 0x00, 0x00, 0x00, 0x00, 0x00, 0x00, 0x00, 0x00, 0x00, 0x00, 0x00, 0x00, 0x00, 0x00, 0x00, 
.................... 0x00, 0x00, 0x00, 0x00, 0x00, 0x00, 0x00, 0x00, 0x00, 0x00, 0x00, 0x00, 0x00, 0x00, 0x00, 0x00, 
.................... 0x00, 0x00, 0x00, 0x00, 0x00, 0x00, 0x00, 0x00, 0x00, 0x00, 0x00, 0x00, 0x00, 0x00, 0x00, 0x00, 
.................... 0x00, 0x00, 0x00, 0x00, 0x00, 0x00, 0x00, 0x00, 0x00, 0x00, 0x00, 0x00, 0x00, 0x00, 0x00, 0x00, 
.................... 0x00, 0x00, 0x00, 0x00, 0x00, 0x00, 0x00, 0x00, 0x00, 0x00, 0x00, 0x00, 0x00, 0x00, 0x00, 0x00, 
.................... 0x00, 0x00, 0x00, 0x00, 0x00, 0x00, 0x00, 0x00, 0x00, 0x00, 0x00, 0x00, 0x00, 0x00, 0x00, 0x00, 
.................... 0x00, 0x00, 0x00, 0x00, 0x00, 0x00, 0x00, 0x00, 0x00, 0x00, 0x00, 0x00, 0x00, 0x00, 0x00, 0x00, 
.................... 0x00, 0x00, 0x00, 0x00, 0x00, 0x00, 0x00, 0x00, 0x00, 0x00, 0x00, 0x00, 0x00, 0x00, 0x00, 0x00, 
.................... 0x00, 0x00, 0x00, 0x00, 0x00, 0x00, 0x00, 0x00, 0x00, 0x00, 0x00, 0x00, 0x00, 0x00, 0x00, 0x00, 
.................... 0x00, 0x00, 0x00, 0x00, 0x00, 0x00, 0x00, 0x00, 0x00, 0x00, 0x00, 0x00, 0x00, 0x00, 0x00, 0x00, 
.................... 0x00, 0x00, 0x00, 0x00, 0x00, 0x00, 0x00, 0x00, 0x00, 0x00, 0x00, 0x00, 0x00, 0x00, 0x00, 0x00, 
.................... 0x00, 0x00, 0x00, 0x00, 0x00, 0x00, 0x00, 0x00, 0x00, 0x00, 0x00, 0x00, 0x00, 0x00, 0x00, 0x00, 
.................... 0x00, 0x00, 0x00, 0x00, 0x00, 0x00, 0x00, 0x00, 0x00, 0x00, 0x00, 0x00, 0x00, 0x00, 0x00, 0x00, 
.................... 0x00, 0x00, 0x00, 0x00, 0x00, 0x00, 0x00, 0x00, 0x00, 0x00, 0x00, 0x00, 0x00, 0x00, 0x60, 0x00, 
.................... 0x00, 0x00, 0x00, 0x00, 0x00, 0x00, 0x00, 0x00, 0x00, 0x00, 0x00, 0x00, 0x00, 0x00, 0xF0, 0x00, 
.................... 0x00, 0x00, 0x00, 0x00, 0x00, 0x00, 0x00, 0x00, 0x00, 0x00, 0x00, 0x00, 0x00, 0x01, 0xF8, 0x00, 
.................... 0x00, 0x00, 0x00, 0x00, 0x00, 0x00, 0x00, 0x00, 0x00, 0x00, 0x00, 0x00, 0x00, 0x01, 0xF8, 0x00, 
.................... 0x00, 0x00, 0x00, 0x00, 0x00, 0x00, 0x00, 0x00, 0x00, 0x00, 0x00, 0x00, 0x00, 0x01, 0xF8, 0x00, 
.................... 0x00, 0x00, 0x00, 0x00, 0x00, 0x00, 0x00, 0x00, 0x00, 0x00, 0x00, 0x00, 0x00, 0x00, 0xF0, 0x00, 
.................... 0x00, 0x00, 0x00, 0x00, 0x00, 0x00, 0x00, 0x00, 0x00, 0x00, 0x00, 0x00, 0x00, 0x38, 0x71, 0xC0, 
.................... 0x00, 0x00, 0x00, 0x00, 0x00, 0x00, 0x00, 0x00, 0x00, 0x00, 0x00, 0x00, 0x00, 0x7C, 0x93, 0xE0, 
.................... 0x00, 0x00, 0x00, 0x00, 0x00, 0x00, 0x00, 0x00, 0x00, 0x00, 0x00, 0x00, 0x00, 0xFF, 0x0F, 0xF0, 
.................... 0x00, 0x00, 0x00, 0x00, 0x00, 0x00, 0x00, 0x00, 0x00, 0x00, 0x00, 0x00, 0x00, 0xFF, 0x0F, 0xF0, 
.................... 0x00, 0x00, 0x00, 0x00, 0x00, 0x00, 0x00, 0x00, 0x00, 0x00, 0x00, 0x00, 0x00, 0x7D, 0x93, 0xE0, 
.................... 0x00, 0x00, 0x00, 0x00, 0x00, 0x00, 0x00, 0x00, 0x00, 0x00, 0x00, 0x00, 0x00, 0x38, 0x61, 0xC0, 
.................... 0x00, 0x00, 0x00, 0x00, 0x00, 0x00, 0x00, 0x00, 0x00, 0x00, 0x00, 0x00, 0x00, 0x00, 0xF0, 0x00, 
.................... 0x00, 0x00, 0x00, 0x00, 0x00, 0x00, 0x00, 0x00, 0x00, 0x00, 0x00, 0x00, 0x00, 0x01, 0xF8, 0x00, 
.................... 0x00, 0x00, 0x00, 0x00, 0x00, 0x00, 0x00, 0x00, 0x00, 0x00, 0x00, 0x00, 0x00, 0x01, 0xF8, 0x00, 
.................... 0x00, 0x00, 0x00, 0x00, 0x00, 0x00, 0x00, 0x00, 0x00, 0x00, 0x00, 0x00, 0x00, 0x01, 0xF8, 0x00, 
.................... 0x00, 0x00, 0x00, 0x00, 0x00, 0x00, 0x00, 0x00, 0x00, 0x00, 0x00, 0x00, 0x00, 0x00, 0xF0, 0x00, 
.................... 0x00, 0x00, 0x00, 0x00, 0x00, 0x00, 0x00, 0x00, 0x00, 0x00, 0x00, 0x00, 0x00, 0x00, 0x60, 0x00 
.................... }; 
....................  
.................... #include "FuncionesDisplay.h" 
....................  
.................... typedef struct{ 
....................    char Letra[20]; 
.................... }MENUU; 
....................  
.................... MENUU Menus; 
....................   
.................... void displayContrasena(int digito, int x, int y, int sombreado) 
.................... { 
....................    char voltage[9]; 
....................    sprintf(voltage, "%i", digito); 
*
049E4:  MOVLW  06
049E6:  MOVLB  4
049E8:  MOVWF  x2C
049EA:  MOVLW  8B
049EC:  MOVWF  x2B
049EE:  MOVFF  687,694
049F2:  MOVLW  1F
049F4:  MOVLB  6
049F6:  MOVWF  x95
049F8:  MOVLB  0
049FA:  RCALL  4700
....................     
....................    if(sombreado==1) 
049FC:  MOVLB  6
049FE:  DECFSZ x8A,W
04A00:  BRA    4A52
....................       {glcd_rect(x, y, x+18, y+24, YES, ON);glcd_text57(x+2, y+1, voltage, 2, OFF);} 
04A02:  MOVLW  12
04A04:  ADDWF  x88,W
04A06:  MOVWF  x94
04A08:  MOVLW  18
04A0A:  ADDWF  x89,W
04A0C:  MOVWF  x95
04A0E:  MOVFF  688,696
04A12:  MOVFF  689,697
04A16:  MOVFF  694,698
04A1A:  MOVWF  x99
04A1C:  MOVLW  01
04A1E:  MOVWF  x9A
04A20:  MOVWF  x9B
04A22:  MOVLB  0
04A24:  RCALL  4920
04A26:  MOVLW  02
04A28:  MOVLB  6
04A2A:  ADDWF  x88,W
04A2C:  MOVWF  x94
04A2E:  MOVLW  01
04A30:  ADDWF  x89,W
04A32:  MOVWF  x95
04A34:  MOVFF  694,696
04A38:  MOVWF  x97
04A3A:  MOVLW  06
04A3C:  MOVWF  x99
04A3E:  MOVLW  8B
04A40:  MOVWF  x98
04A42:  MOVLW  02
04A44:  MOVWF  x9A
04A46:  CLRF   x9B
04A48:  MOVLB  0
04A4A:  CALL   16B8
....................    else    
04A4E:  BRA    4A9E
04A50:  MOVLB  6
....................       {glcd_rect(x, y, x+18, y+24, NO, OFF);glcd_text57(x+2, y+1, voltage, 2, ON);} 
04A52:  MOVLW  12
04A54:  ADDWF  x88,W
04A56:  MOVWF  x94
04A58:  MOVLW  18
04A5A:  ADDWF  x89,W
04A5C:  MOVWF  x95
04A5E:  MOVFF  688,696
04A62:  MOVFF  689,697
04A66:  MOVFF  694,698
04A6A:  MOVWF  x99
04A6C:  CLRF   x9A
04A6E:  CLRF   x9B
04A70:  MOVLB  0
04A72:  RCALL  4920
04A74:  MOVLW  02
04A76:  MOVLB  6
04A78:  ADDWF  x88,W
04A7A:  MOVWF  x94
04A7C:  MOVLW  01
04A7E:  ADDWF  x89,W
04A80:  MOVWF  x95
04A82:  MOVFF  694,696
04A86:  MOVWF  x97
04A88:  MOVLW  06
04A8A:  MOVWF  x99
04A8C:  MOVLW  8B
04A8E:  MOVWF  x98
04A90:  MOVLW  02
04A92:  MOVWF  x9A
04A94:  MOVLW  01
04A96:  MOVWF  x9B
04A98:  MOVLB  0
04A9A:  CALL   16B8
....................  
.................... } 
04A9E:  RETLW  00
....................  
.................... void displayTiempo(int digito, int x, int y, int sombreado, int tamano) 
.................... { 
....................    char voltage[9]; 
....................    sprintf(voltage, "%i", digito); 
*
0528A:  MOVLW  06
0528C:  MOVLB  4
0528E:  MOVWF  x2C
05290:  MOVLW  82
05292:  MOVWF  x2B
05294:  MOVFF  67D,694
05298:  MOVLW  1F
0529A:  MOVLB  6
0529C:  MOVWF  x95
0529E:  MOVLB  0
052A0:  CALL   4700
....................     
....................    if(sombreado==1) 
052A4:  MOVLB  6
052A6:  DECFSZ x80,W
052A8:  BRA    5302
....................       {glcd_rect(x, y, x+(tamano*6), y+(tamano*8), YES, ON);glcd_text57(x+2, y+1, voltage, tamano, OFF);} 
052AA:  MOVF   x81,W
052AC:  MULLW  06
052AE:  MOVF   FF3,W
052B0:  ADDWF  x7E,W
052B2:  MOVWF  x8B
052B4:  MOVF   x81,W
052B6:  MULLW  08
052B8:  MOVF   FF3,W
052BA:  ADDWF  x7F,W
052BC:  MOVWF  x8C
052BE:  MOVFF  67E,696
052C2:  MOVFF  67F,697
052C6:  MOVFF  68B,698
052CA:  MOVWF  x99
052CC:  MOVLW  01
052CE:  MOVWF  x9A
052D0:  MOVWF  x9B
052D2:  MOVLB  0
052D4:  CALL   4920
052D8:  MOVLW  02
052DA:  MOVLB  6
052DC:  ADDWF  x7E,W
052DE:  MOVWF  x8B
052E0:  MOVLW  01
052E2:  ADDWF  x7F,W
052E4:  MOVWF  x8C
052E6:  MOVFF  68B,696
052EA:  MOVWF  x97
052EC:  MOVLW  06
052EE:  MOVWF  x99
052F0:  MOVLW  82
052F2:  MOVWF  x98
052F4:  MOVFF  681,69A
052F8:  CLRF   x9B
052FA:  MOVLB  0
052FC:  CALL   16B8
05300:  MOVLB  6
....................    if(sombreado==0) 
05302:  MOVF   x80,F
05304:  BNZ   5360
....................       {glcd_rect(x, y, x+(tamano*6), y+(tamano*8), YES, OFF);glcd_text57(x+2, y+1, voltage, tamano, ON);} 
05306:  MOVF   x81,W
05308:  MULLW  06
0530A:  MOVF   FF3,W
0530C:  ADDWF  x7E,W
0530E:  MOVWF  x8B
05310:  MOVF   x81,W
05312:  MULLW  08
05314:  MOVF   FF3,W
05316:  ADDWF  x7F,W
05318:  MOVWF  x8C
0531A:  MOVFF  67E,696
0531E:  MOVFF  67F,697
05322:  MOVFF  68B,698
05326:  MOVWF  x99
05328:  MOVLW  01
0532A:  MOVWF  x9A
0532C:  CLRF   x9B
0532E:  MOVLB  0
05330:  CALL   4920
05334:  MOVLW  02
05336:  MOVLB  6
05338:  ADDWF  x7E,W
0533A:  MOVWF  x8B
0533C:  MOVLW  01
0533E:  ADDWF  x7F,W
05340:  MOVWF  x8C
05342:  MOVFF  68B,696
05346:  MOVWF  x97
05348:  MOVLW  06
0534A:  MOVWF  x99
0534C:  MOVLW  82
0534E:  MOVWF  x98
05350:  MOVFF  681,69A
05354:  MOVLW  01
05356:  MOVWF  x9B
05358:  MOVLB  0
0535A:  CALL   16B8
0535E:  MOVLB  6
....................  
.................... } 
05360:  MOVLB  0
05362:  RETLW  00
....................  
.................... void displayMenu(char palabra[100], int x, int y, int sombreado, int tamano) 
.................... { 
....................    strcpy(Menus.Letra,palabra); 
*
04AA0:  MOVLB  6
04AA2:  MOVFF  685,01
04AA6:  MOVFF  686,03
04AAA:  MOVFF  685,68B
04AAE:  MOVFF  686,68C
04AB2:  MOVLW  04
04AB4:  MOVWF  FEA
04AB6:  MOVLW  17
04AB8:  MOVWF  FE9
04ABA:  MOVFF  686,FE2
04ABE:  MOVFF  685,FE1
04AC2:  MOVF   FE7,F
04AC4:  MOVFF  FE6,FEE
04AC8:  BNZ   4AC2
....................    if(sombreado==1) 
04ACA:  DECFSZ x89,W
04ACC:  BRA    4B1A
....................       {glcd_rect(0, y, 127, y+(tamano*8), YES, ON);glcd_text57(x+1, y+1, Menus.Letra, tamano, OFF);} 
04ACE:  MOVF   x8A,W
04AD0:  MULLW  08
04AD2:  MOVF   FF3,W
04AD4:  ADDWF  x88,W
04AD6:  MOVWF  x8B
04AD8:  CLRF   x96
04ADA:  MOVFF  688,697
04ADE:  MOVLW  7F
04AE0:  MOVWF  x98
04AE2:  MOVFF  68B,699
04AE6:  MOVLW  01
04AE8:  MOVWF  x9A
04AEA:  MOVWF  x9B
04AEC:  MOVLB  0
04AEE:  RCALL  4920
04AF0:  MOVLW  01
04AF2:  MOVLB  6
04AF4:  ADDWF  x87,W
04AF6:  MOVWF  x8B
04AF8:  MOVLW  01
04AFA:  ADDWF  x88,W
04AFC:  MOVWF  x8C
04AFE:  MOVFF  68B,696
04B02:  MOVWF  x97
04B04:  MOVLW  04
04B06:  MOVWF  x99
04B08:  MOVLW  17
04B0A:  MOVWF  x98
04B0C:  MOVFF  68A,69A
04B10:  CLRF   x9B
04B12:  MOVLB  0
04B14:  CALL   16B8
04B18:  MOVLB  6
....................    if(sombreado==0) 
04B1A:  MOVF   x89,F
04B1C:  BNZ   4B6C
....................       {glcd_rect(0, y, 127, y+(tamano*8), YES, OFF);glcd_text57(x+1, y+1, Menus.Letra, tamano, ON);} 
04B1E:  MOVF   x8A,W
04B20:  MULLW  08
04B22:  MOVF   FF3,W
04B24:  ADDWF  x88,W
04B26:  MOVWF  x8B
04B28:  CLRF   x96
04B2A:  MOVFF  688,697
04B2E:  MOVLW  7F
04B30:  MOVWF  x98
04B32:  MOVFF  68B,699
04B36:  MOVLW  01
04B38:  MOVWF  x9A
04B3A:  CLRF   x9B
04B3C:  MOVLB  0
04B3E:  RCALL  4920
04B40:  MOVLW  01
04B42:  MOVLB  6
04B44:  ADDWF  x87,W
04B46:  MOVWF  x8B
04B48:  MOVLW  01
04B4A:  ADDWF  x88,W
04B4C:  MOVWF  x8C
04B4E:  MOVFF  68B,696
04B52:  MOVWF  x97
04B54:  MOVLW  04
04B56:  MOVWF  x99
04B58:  MOVLW  17
04B5A:  MOVWF  x98
04B5C:  MOVFF  68A,69A
04B60:  MOVLW  01
04B62:  MOVWF  x9B
04B64:  MOVLB  0
04B66:  CALL   16B8
04B6A:  MOVLB  6
....................  
.................... } 
04B6C:  MOVLB  0
04B6E:  RETLW  00
....................  
.................... void displayfloat(float adc,int x,int y,int sombreado, int tamano) { 
....................    char voltage[9];     
....................       sprintf(voltage, "%1.2f",adc); // Converts adc to text 
*
057FE:  MOVLW  06
05800:  MOVLB  4
05802:  MOVWF  x2C
05804:  MOVLW  89
05806:  MOVWF  x2B
05808:  MOVWF  FE9
0580A:  MOVFF  684,695
0580E:  MOVFF  683,694
05812:  MOVFF  682,693
05816:  MOVFF  681,692
0581A:  MOVLW  02
0581C:  MOVLB  6
0581E:  MOVWF  x96
05820:  MOVLB  0
05822:  BRA    5648
....................        
....................    if(sombreado==1) 
05824:  MOVLB  6
05826:  DECFSZ x87,W
05828:  BRA    5882
....................       {glcd_rect(x, y, x+(tamano*48), y+(tamano*8), YES, ON);glcd_text57(x+2, y+1, voltage, tamano, OFF);} 
0582A:  MOVF   x88,W
0582C:  MULLW  30
0582E:  MOVF   FF3,W
05830:  ADDWF  x85,W
05832:  MOVWF  x92
05834:  MOVF   x88,W
05836:  MULLW  08
05838:  MOVF   FF3,W
0583A:  ADDWF  x86,W
0583C:  MOVWF  x93
0583E:  MOVFF  685,696
05842:  MOVFF  686,697
05846:  MOVFF  692,698
0584A:  MOVWF  x99
0584C:  MOVLW  01
0584E:  MOVWF  x9A
05850:  MOVWF  x9B
05852:  MOVLB  0
05854:  CALL   4920
05858:  MOVLW  02
0585A:  MOVLB  6
0585C:  ADDWF  x85,W
0585E:  MOVWF  x92
05860:  MOVLW  01
05862:  ADDWF  x86,W
05864:  MOVWF  x93
05866:  MOVFF  692,696
0586A:  MOVWF  x97
0586C:  MOVLW  06
0586E:  MOVWF  x99
05870:  MOVLW  89
05872:  MOVWF  x98
05874:  MOVFF  688,69A
05878:  CLRF   x9B
0587A:  MOVLB  0
0587C:  CALL   16B8
05880:  MOVLB  6
....................    if(sombreado==0) 
05882:  MOVF   x87,F
05884:  BNZ   58E0
....................       {glcd_rect(x, y, x+(tamano*48), y+(tamano*8), YES, OFF);glcd_text57(x+2, y+1, voltage, tamano, ON);} 
05886:  MOVF   x88,W
05888:  MULLW  30
0588A:  MOVF   FF3,W
0588C:  ADDWF  x85,W
0588E:  MOVWF  x92
05890:  MOVF   x88,W
05892:  MULLW  08
05894:  MOVF   FF3,W
05896:  ADDWF  x86,W
05898:  MOVWF  x93
0589A:  MOVFF  685,696
0589E:  MOVFF  686,697
058A2:  MOVFF  692,698
058A6:  MOVWF  x99
058A8:  MOVLW  01
058AA:  MOVWF  x9A
058AC:  CLRF   x9B
058AE:  MOVLB  0
058B0:  CALL   4920
058B4:  MOVLW  02
058B6:  MOVLB  6
058B8:  ADDWF  x85,W
058BA:  MOVWF  x92
058BC:  MOVLW  01
058BE:  ADDWF  x86,W
058C0:  MOVWF  x93
058C2:  MOVFF  692,696
058C6:  MOVWF  x97
058C8:  MOVLW  06
058CA:  MOVWF  x99
058CC:  MOVLW  89
058CE:  MOVWF  x98
058D0:  MOVFF  688,69A
058D4:  MOVLW  01
058D6:  MOVWF  x9B
058D8:  MOVLB  0
058DA:  CALL   16B8
058DE:  MOVLB  6
....................        
.................... } 
058E0:  MOVLB  0
058E2:  RETLW  00
....................  
.................... // Funcion para conversor analogo-digital 
.................... unsigned int16 sensores(int x){ 
.................... unsigned int16 y;set_adc_channel(x);delay_ms(1);y=read_adc();return (y); 
*
02E2E:  MOVLB  6
02E30:  RLCF   x82,W
02E32:  MOVWF  00
02E34:  RLCF   00,F
02E36:  MOVLW  FC
02E38:  ANDWF  00,F
02E3A:  MOVFF  00,01
02E3E:  MOVF   FC2,W
02E40:  ANDLW  C3
02E42:  IORWF  00,W
02E44:  MOVWF  FC2
02E46:  MOVLW  01
02E48:  MOVWF  x86
02E4A:  MOVLB  0
02E4C:  CALL   1346
02E50:  BSF    FC2.1
02E52:  BTFSC  FC2.1
02E54:  BRA    2E52
02E56:  MOVFF  FC4,684
02E5A:  MOVLB  6
02E5C:  MOVFF  FC3,683
02E60:  MOVFF  683,01
02E64:  MOVFF  684,02
.................... } 
02E68:  MOVLB  0
02E6A:  RETLW  00
....................  
....................  
.................... #define   UP               !input(PIN_A5) 
.................... #define   DOWN             !input(PIN_E0) 
.................... #define   RIGHT            !input(PIN_E1) 
.................... #define   LEFT             !input(PIN_E2) 
.................... #define   VIDRIOUP         input(PIN_A3) 
.................... #define   VIDRIODN         input(PIN_A4) 
....................  
.................... #define   Alarma_on           output_bit(PIN_C7,1) 
.................... #define   Alarma_off          output_bit(PIN_C7,0) 
.................... #define   LuzBlanca_on        output_bit(PIN_C0,1) 
.................... #define   LuzBlanca_off       output_bit(PIN_C0,0) 
.................... #define   Aux_on              output_bit(PIN_C1,1) 
.................... #define   Aux_off             output_bit(PIN_C1,0) 
.................... #define   Motor_on            output_bit(PIN_C2,1) 
.................... #define   Motor_off           output_bit(PIN_C2,0) 
.................... #define   Display_on          output_bit(PIN_B1,1) 
.................... #define   Display_off         output_bit(PIN_B1,0) 
....................  
.................... int16 tiempos=0,pulsos=0,delay=0,retardo=0; 
.................... int8 i=0; 
.................... short Cruce=OFF,flagEnciendeMotor=OFF,Purga=OFF; 
.................... int16 tiempocruce=0; 
.................... int8 Porcentaje=0,VelMotor=0; 
.................... float Tcruce=0.0,Tcruce2=0; 
....................  
.................... short Flanco=0,Flanco1=0,Flanco2=0,Flanco3=0,Flanco4=0,Flanco5=0,Flanco6=0,imprimir=0,flag_uv=0,flag_blower=0,flag_toma=0,flag_luz=0,flag_alarma=0,w=0; 
.................... short tiempo_purga=0,tiempo_uv=0,tiempo_trabajo=0,tiempo_postpurga=0,Latencia=0,flag_latencia=0; 
.................... short guardauv=0,guardatrabajo=0,Lectura=0,n=0,flag_alarma2=0; 
.................... char  JP[] = "JP Inglobal", Cabina[] = "Cabina Extractora",tiempo_est[]="T est=", Dos_puntos[]=":"; 
.................... char  Clase[] = "Sin Ductos", Tiempo[] = "Tiempo de Purga", UV[]="UV"; 
.................... char  Baje_Vidrio[] = "!!Ubique Vidrio!!",Inflowt[] = "JPCEGH-F-A",Downflowt[] = "Pres(inH2O):", ZF[] = "Fabrica:208.0", ZA[] = "Actual:",AJ[]="Ajuste:"; 
.................... char  Vida_UV[] = "UVLife:",Vida_Filtro[] = "Filter:",ZFP[] = "Fabrica:235.0", Perdida[]="!Filtro Saturado!"; 
.................... int8 Menu=200, unidad=1, Opcion=1,inicie=0,negativo=10,G_l=0,G_h=0,tiemporeset=0; 
.................... int8 q=0,r=0,l=0,h=0,Entero=0,Decimal1=0,LuzUV=10,Motor=10,Alarma=10,UV2=0,e=0,m=0,l2=0,h2=0; 
....................  
.................... unsigned int16 Inflow_adc=0,Filtro_Downflow_adc=0,Temporal1=0; 
....................  
.................... int16 t_latencia=0,minutos_uv=0,minutos_trabajo=0,G16=0; 
.................... signed int  Tpurga[4]={0,0,0,0};       // Tiempo de Purga transcurrido 
.................... signed int  Tpurgap[4]={9,0,0,0};      // Tiempo de Purga programado 
.................... signed int  Tppurga[4]={0,0,0,0};      // Tiempo de Post-Purga transcurrido 
.................... signed int  Tppurgap[4]={9,0,0,0};     // Tiempo de Post-Purga programado 
.................... signed int  Tuv[4]={0,0,0,0};          // Tiempo de UV transcurrido(en Horas) 
.................... signed int  Tempouv[4]={0,0,0,0};         // Tiempo de UV transcurrido 
.................... signed int  Tempouvp[4]={0,0,0,0};        // Tiempo de UV transcurrido 
.................... signed int  Ttrabajo[4]={0,0,0,0};        // Tiempo de trabajo transcurrido (en Horas) 
.................... signed int  Contrasena[4]={0,0,0,0};      // Contrasena de 4 digitos 
.................... signed int  Password[4]={0,0,0,0};        // Contrasena Almacenada de 4 digitos 
.................... float Inflow=0.0,Downflow=0.0,Filtro_Downflow=0.0,Diferencia=0.0,barra=0.0,barra_old=0.0,barra2=0.0,barra_old2=0.0; 
.................... float Velocidad=0.0,x_uno=0.0,x_cuadrado=0.0,x_cubo=0.0,Ajuste1=0.0,Ajuste2=0.0; 
.................... float ADC=0,Temporal=0.0,Temporal2=0.0; 
.................... float a=0.00000957915546738639,b=-0.00727819571978831,c= 1.85375754678451,d= -156.816806902063; 
.................... //float t=378.463968402560,f=-18275.0402762787;//Sensor 2 Posible bueno 
....................  
.................... float promedio[8]={0.0,0.0,0.0,0.0,0.0,0.0,0.0,0.0}; 
.................... float promedio2[8]={0.0,0.0,0.0,0.0,0.0,0.0,0.0,0.0}; 
.................... float PromPresion[8]={0.0,0.0,0.0,0.0,0.0,0.0,0.0,0.0}; 
.................... float Flujo=0.0,zero_fabrica=208.0,zero_actual=0.0; 
.................... float V1=0.0,Presion=0.0,G=2.0,UVTime=0.0; 
....................  
.................... int16 Vector[40]; 
....................  
.................... int1 BITS[32]; 
.................... int16 Ta,Tb,TICK=0; 
.................... Int1 BIT_START, NUEVO_DATO=0; 
.................... int BYTE_IR[4]; 
.................... int8 BIT_BYTE(int1 D7, int1 D6, int1 D5, int1 D4, int1 D3, int1 D2, int1 D1, int1 D0); 
....................  
.................... #include "Funciones.h" 
.................... float leeTemperatura(int8 media){ 
....................    float ADC=0,V=0,T=0,Tempera=0; 
....................    ADC=sensores(0); 
....................    V=5*ADC/1023; 
....................    T=V/0.01; 
....................    if(l2>media) 
....................       l2=0; 
....................        
....................    promedio2[l2]=T;l2++; 
....................    Tempera=0; 
....................       
....................      for(h2=0;h2<=(media-1);h2++){ 
....................         Tempera+=promedio2[h2]; 
....................      }       
....................    return Tempera/media; 
.................... } 
....................  
.................... void LeeEEPROM(void){ 
....................    Password[0]=read_eeprom(0); 
*
01C7C:  MOVFF  FF2,67D
01C80:  BCF    FF2.7
01C82:  CLRF   FAA
01C84:  CLRF   FA9
01C86:  BCF    FA6.6
01C88:  BCF    FA6.7
01C8A:  BSF    FA6.0
01C8C:  MOVF   FA8,W
01C8E:  MOVLB  6
01C90:  BTFSC  x7D.7
01C92:  BSF    FF2.7
01C94:  MOVLB  5
01C96:  MOVWF  x4B
....................    delay_ms(10); 
01C98:  MOVLW  0A
01C9A:  MOVLB  6
01C9C:  MOVWF  x86
01C9E:  MOVLB  0
01CA0:  CALL   1346
....................    Password[1]=read_eeprom(1); 
01CA4:  MOVFF  FF2,67D
01CA8:  BCF    FF2.7
01CAA:  CLRF   FAA
01CAC:  MOVLW  01
01CAE:  MOVWF  FA9
01CB0:  BCF    FA6.6
01CB2:  BCF    FA6.7
01CB4:  BSF    FA6.0
01CB6:  MOVF   FA8,W
01CB8:  MOVLB  6
01CBA:  BTFSC  x7D.7
01CBC:  BSF    FF2.7
01CBE:  MOVLB  5
01CC0:  MOVWF  x4C
....................    delay_ms(10); 
01CC2:  MOVLW  0A
01CC4:  MOVLB  6
01CC6:  MOVWF  x86
01CC8:  MOVLB  0
01CCA:  CALL   1346
....................    Password[2]=read_eeprom(2); 
01CCE:  MOVFF  FF2,67D
01CD2:  BCF    FF2.7
01CD4:  CLRF   FAA
01CD6:  MOVLW  02
01CD8:  MOVWF  FA9
01CDA:  BCF    FA6.6
01CDC:  BCF    FA6.7
01CDE:  BSF    FA6.0
01CE0:  MOVF   FA8,W
01CE2:  MOVLB  6
01CE4:  BTFSC  x7D.7
01CE6:  BSF    FF2.7
01CE8:  MOVLB  5
01CEA:  MOVWF  x4D
....................    delay_ms(10); 
01CEC:  MOVLW  0A
01CEE:  MOVLB  6
01CF0:  MOVWF  x86
01CF2:  MOVLB  0
01CF4:  CALL   1346
....................    Password[3]=read_eeprom(3); 
01CF8:  MOVFF  FF2,67D
01CFC:  BCF    FF2.7
01CFE:  CLRF   FAA
01D00:  MOVLW  03
01D02:  MOVWF  FA9
01D04:  BCF    FA6.6
01D06:  BCF    FA6.7
01D08:  BSF    FA6.0
01D0A:  MOVF   FA8,W
01D0C:  MOVLB  6
01D0E:  BTFSC  x7D.7
01D10:  BSF    FF2.7
01D12:  MOVLB  5
01D14:  MOVWF  x4E
....................    delay_ms(10); 
01D16:  MOVLW  0A
01D18:  MOVLB  6
01D1A:  MOVWF  x86
01D1C:  MOVLB  0
01D1E:  CALL   1346
....................    Tpurgap[0]=read_eeprom(4); 
01D22:  MOVFF  FF2,67D
01D26:  BCF    FF2.7
01D28:  CLRF   FAA
01D2A:  MOVLW  04
01D2C:  MOVWF  FA9
01D2E:  BCF    FA6.6
01D30:  BCF    FA6.7
01D32:  BSF    FA6.0
01D34:  MOVF   FA8,W
01D36:  MOVLB  6
01D38:  BTFSC  x7D.7
01D3A:  BSF    FF2.7
01D3C:  MOVLB  5
01D3E:  MOVWF  x2B
....................    delay_ms(10); 
01D40:  MOVLW  0A
01D42:  MOVLB  6
01D44:  MOVWF  x86
01D46:  MOVLB  0
01D48:  CALL   1346
....................    Tpurgap[1]=read_eeprom(5); 
01D4C:  MOVFF  FF2,67D
01D50:  BCF    FF2.7
01D52:  CLRF   FAA
01D54:  MOVLW  05
01D56:  MOVWF  FA9
01D58:  BCF    FA6.6
01D5A:  BCF    FA6.7
01D5C:  BSF    FA6.0
01D5E:  MOVF   FA8,W
01D60:  MOVLB  6
01D62:  BTFSC  x7D.7
01D64:  BSF    FF2.7
01D66:  MOVLB  5
01D68:  MOVWF  x2C
....................    delay_ms(10); 
01D6A:  MOVLW  0A
01D6C:  MOVLB  6
01D6E:  MOVWF  x86
01D70:  MOVLB  0
01D72:  CALL   1346
....................    Tpurgap[2]=read_eeprom(6); 
01D76:  MOVFF  FF2,67D
01D7A:  BCF    FF2.7
01D7C:  CLRF   FAA
01D7E:  MOVLW  06
01D80:  MOVWF  FA9
01D82:  BCF    FA6.6
01D84:  BCF    FA6.7
01D86:  BSF    FA6.0
01D88:  MOVF   FA8,W
01D8A:  MOVLB  6
01D8C:  BTFSC  x7D.7
01D8E:  BSF    FF2.7
01D90:  MOVLB  5
01D92:  MOVWF  x2D
....................    delay_ms(10); 
01D94:  MOVLW  0A
01D96:  MOVLB  6
01D98:  MOVWF  x86
01D9A:  MOVLB  0
01D9C:  CALL   1346
....................    Tpurgap[3]=read_eeprom(7); 
01DA0:  MOVFF  FF2,67D
01DA4:  BCF    FF2.7
01DA6:  CLRF   FAA
01DA8:  MOVLW  07
01DAA:  MOVWF  FA9
01DAC:  BCF    FA6.6
01DAE:  BCF    FA6.7
01DB0:  BSF    FA6.0
01DB2:  MOVF   FA8,W
01DB4:  MOVLB  6
01DB6:  BTFSC  x7D.7
01DB8:  BSF    FF2.7
01DBA:  MOVLB  5
01DBC:  MOVWF  x2E
....................    delay_ms(10); 
01DBE:  MOVLW  0A
01DC0:  MOVLB  6
01DC2:  MOVWF  x86
01DC4:  MOVLB  0
01DC6:  CALL   1346
....................    Tppurgap[0]=read_eeprom(8); 
01DCA:  MOVFF  FF2,67D
01DCE:  BCF    FF2.7
01DD0:  CLRF   FAA
01DD2:  MOVLW  08
01DD4:  MOVWF  FA9
01DD6:  BCF    FA6.6
01DD8:  BCF    FA6.7
01DDA:  BSF    FA6.0
01DDC:  MOVF   FA8,W
01DDE:  MOVLB  6
01DE0:  BTFSC  x7D.7
01DE2:  BSF    FF2.7
01DE4:  MOVLB  5
01DE6:  MOVWF  x33
....................    delay_ms(10); 
01DE8:  MOVLW  0A
01DEA:  MOVLB  6
01DEC:  MOVWF  x86
01DEE:  MOVLB  0
01DF0:  CALL   1346
....................    Tppurgap[1]=read_eeprom(9); 
01DF4:  MOVFF  FF2,67D
01DF8:  BCF    FF2.7
01DFA:  CLRF   FAA
01DFC:  MOVLW  09
01DFE:  MOVWF  FA9
01E00:  BCF    FA6.6
01E02:  BCF    FA6.7
01E04:  BSF    FA6.0
01E06:  MOVF   FA8,W
01E08:  MOVLB  6
01E0A:  BTFSC  x7D.7
01E0C:  BSF    FF2.7
01E0E:  MOVLB  5
01E10:  MOVWF  x34
....................    delay_ms(10); 
01E12:  MOVLW  0A
01E14:  MOVLB  6
01E16:  MOVWF  x86
01E18:  MOVLB  0
01E1A:  CALL   1346
....................    Tppurgap[2]=read_eeprom(10); 
01E1E:  MOVFF  FF2,67D
01E22:  BCF    FF2.7
01E24:  CLRF   FAA
01E26:  MOVLW  0A
01E28:  MOVWF  FA9
01E2A:  BCF    FA6.6
01E2C:  BCF    FA6.7
01E2E:  BSF    FA6.0
01E30:  MOVF   FA8,W
01E32:  MOVLB  6
01E34:  BTFSC  x7D.7
01E36:  BSF    FF2.7
01E38:  MOVLB  5
01E3A:  MOVWF  x35
....................    delay_ms(10); 
01E3C:  MOVLW  0A
01E3E:  MOVLB  6
01E40:  MOVWF  x86
01E42:  MOVLB  0
01E44:  CALL   1346
....................    Tppurgap[3]=read_eeprom(11); 
01E48:  MOVFF  FF2,67D
01E4C:  BCF    FF2.7
01E4E:  CLRF   FAA
01E50:  MOVLW  0B
01E52:  MOVWF  FA9
01E54:  BCF    FA6.6
01E56:  BCF    FA6.7
01E58:  BSF    FA6.0
01E5A:  MOVF   FA8,W
01E5C:  MOVLB  6
01E5E:  BTFSC  x7D.7
01E60:  BSF    FF2.7
01E62:  MOVLB  5
01E64:  MOVWF  x36
....................    delay_ms(10); 
01E66:  MOVLW  0A
01E68:  MOVLB  6
01E6A:  MOVWF  x86
01E6C:  MOVLB  0
01E6E:  CALL   1346
....................    Tuv[0]=read_eeprom(12); 
01E72:  MOVFF  FF2,67D
01E76:  BCF    FF2.7
01E78:  CLRF   FAA
01E7A:  MOVLW  0C
01E7C:  MOVWF  FA9
01E7E:  BCF    FA6.6
01E80:  BCF    FA6.7
01E82:  BSF    FA6.0
01E84:  MOVF   FA8,W
01E86:  MOVLB  6
01E88:  BTFSC  x7D.7
01E8A:  BSF    FF2.7
01E8C:  MOVLB  5
01E8E:  MOVWF  x37
....................    delay_ms(10); 
01E90:  MOVLW  0A
01E92:  MOVLB  6
01E94:  MOVWF  x86
01E96:  MOVLB  0
01E98:  CALL   1346
....................    Tuv[1]=read_eeprom(13); 
01E9C:  MOVFF  FF2,67D
01EA0:  BCF    FF2.7
01EA2:  CLRF   FAA
01EA4:  MOVLW  0D
01EA6:  MOVWF  FA9
01EA8:  BCF    FA6.6
01EAA:  BCF    FA6.7
01EAC:  BSF    FA6.0
01EAE:  MOVF   FA8,W
01EB0:  MOVLB  6
01EB2:  BTFSC  x7D.7
01EB4:  BSF    FF2.7
01EB6:  MOVLB  5
01EB8:  MOVWF  x38
....................    delay_ms(10); 
01EBA:  MOVLW  0A
01EBC:  MOVLB  6
01EBE:  MOVWF  x86
01EC0:  MOVLB  0
01EC2:  CALL   1346
....................    Tuv[2]=read_eeprom(14); 
01EC6:  MOVFF  FF2,67D
01ECA:  BCF    FF2.7
01ECC:  CLRF   FAA
01ECE:  MOVLW  0E
01ED0:  MOVWF  FA9
01ED2:  BCF    FA6.6
01ED4:  BCF    FA6.7
01ED6:  BSF    FA6.0
01ED8:  MOVF   FA8,W
01EDA:  MOVLB  6
01EDC:  BTFSC  x7D.7
01EDE:  BSF    FF2.7
01EE0:  MOVLB  5
01EE2:  MOVWF  x39
....................    delay_ms(10); 
01EE4:  MOVLW  0A
01EE6:  MOVLB  6
01EE8:  MOVWF  x86
01EEA:  MOVLB  0
01EEC:  CALL   1346
....................    Tuv[3]=read_eeprom(15); 
01EF0:  MOVFF  FF2,67D
01EF4:  BCF    FF2.7
01EF6:  CLRF   FAA
01EF8:  MOVLW  0F
01EFA:  MOVWF  FA9
01EFC:  BCF    FA6.6
01EFE:  BCF    FA6.7
01F00:  BSF    FA6.0
01F02:  MOVF   FA8,W
01F04:  MOVLB  6
01F06:  BTFSC  x7D.7
01F08:  BSF    FF2.7
01F0A:  MOVLB  5
01F0C:  MOVWF  x3A
....................    delay_ms(10); 
01F0E:  MOVLW  0A
01F10:  MOVLB  6
01F12:  MOVWF  x86
01F14:  MOVLB  0
01F16:  CALL   1346
....................    Ttrabajo[0]=read_eeprom(16); 
01F1A:  MOVFF  FF2,67D
01F1E:  BCF    FF2.7
01F20:  CLRF   FAA
01F22:  MOVLW  10
01F24:  MOVWF  FA9
01F26:  BCF    FA6.6
01F28:  BCF    FA6.7
01F2A:  BSF    FA6.0
01F2C:  MOVF   FA8,W
01F2E:  MOVLB  6
01F30:  BTFSC  x7D.7
01F32:  BSF    FF2.7
01F34:  MOVLB  5
01F36:  MOVWF  x43
....................    delay_ms(10); 
01F38:  MOVLW  0A
01F3A:  MOVLB  6
01F3C:  MOVWF  x86
01F3E:  MOVLB  0
01F40:  CALL   1346
....................    Ttrabajo[1]=read_eeprom(17); 
01F44:  MOVFF  FF2,67D
01F48:  BCF    FF2.7
01F4A:  CLRF   FAA
01F4C:  MOVLW  11
01F4E:  MOVWF  FA9
01F50:  BCF    FA6.6
01F52:  BCF    FA6.7
01F54:  BSF    FA6.0
01F56:  MOVF   FA8,W
01F58:  MOVLB  6
01F5A:  BTFSC  x7D.7
01F5C:  BSF    FF2.7
01F5E:  MOVLB  5
01F60:  MOVWF  x44
....................    delay_ms(10); 
01F62:  MOVLW  0A
01F64:  MOVLB  6
01F66:  MOVWF  x86
01F68:  MOVLB  0
01F6A:  CALL   1346
....................    Ttrabajo[2]=read_eeprom(18); 
01F6E:  MOVFF  FF2,67D
01F72:  BCF    FF2.7
01F74:  CLRF   FAA
01F76:  MOVLW  12
01F78:  MOVWF  FA9
01F7A:  BCF    FA6.6
01F7C:  BCF    FA6.7
01F7E:  BSF    FA6.0
01F80:  MOVF   FA8,W
01F82:  MOVLB  6
01F84:  BTFSC  x7D.7
01F86:  BSF    FF2.7
01F88:  MOVLB  5
01F8A:  MOVWF  x45
....................    delay_ms(10); 
01F8C:  MOVLW  0A
01F8E:  MOVLB  6
01F90:  MOVWF  x86
01F92:  MOVLB  0
01F94:  CALL   1346
....................    Ttrabajo[3]=read_eeprom(19); 
01F98:  MOVFF  FF2,67D
01F9C:  BCF    FF2.7
01F9E:  CLRF   FAA
01FA0:  MOVLW  13
01FA2:  MOVWF  FA9
01FA4:  BCF    FA6.6
01FA6:  BCF    FA6.7
01FA8:  BSF    FA6.0
01FAA:  MOVF   FA8,W
01FAC:  MOVLB  6
01FAE:  BTFSC  x7D.7
01FB0:  BSF    FF2.7
01FB2:  MOVLB  5
01FB4:  MOVWF  x46
....................    delay_ms(10); 
01FB6:  MOVLW  0A
01FB8:  MOVLB  6
01FBA:  MOVWF  x86
01FBC:  MOVLB  0
01FBE:  CALL   1346
....................    //flag_alarma=read_eeprom(20); 
....................    //delay_ms(10); 
....................    Tempouvp[0]=read_eeprom(21); 
01FC2:  MOVFF  FF2,67D
01FC6:  BCF    FF2.7
01FC8:  CLRF   FAA
01FCA:  MOVLW  15
01FCC:  MOVWF  FA9
01FCE:  BCF    FA6.6
01FD0:  BCF    FA6.7
01FD2:  BSF    FA6.0
01FD4:  MOVF   FA8,W
01FD6:  MOVLB  6
01FD8:  BTFSC  x7D.7
01FDA:  BSF    FF2.7
01FDC:  MOVLB  5
01FDE:  MOVWF  x3F
....................    delay_ms(10); 
01FE0:  MOVLW  0A
01FE2:  MOVLB  6
01FE4:  MOVWF  x86
01FE6:  MOVLB  0
01FE8:  CALL   1346
....................    Tempouvp[1]=read_eeprom(22); 
01FEC:  MOVFF  FF2,67D
01FF0:  BCF    FF2.7
01FF2:  CLRF   FAA
01FF4:  MOVLW  16
01FF6:  MOVWF  FA9
01FF8:  BCF    FA6.6
01FFA:  BCF    FA6.7
01FFC:  BSF    FA6.0
01FFE:  MOVF   FA8,W
02000:  MOVLB  6
02002:  BTFSC  x7D.7
02004:  BSF    FF2.7
02006:  MOVLB  5
02008:  MOVWF  x40
....................    delay_ms(10); 
0200A:  MOVLW  0A
0200C:  MOVLB  6
0200E:  MOVWF  x86
02010:  MOVLB  0
02012:  CALL   1346
....................    Tempouvp[2]=read_eeprom(23); 
02016:  MOVFF  FF2,67D
0201A:  BCF    FF2.7
0201C:  CLRF   FAA
0201E:  MOVLW  17
02020:  MOVWF  FA9
02022:  BCF    FA6.6
02024:  BCF    FA6.7
02026:  BSF    FA6.0
02028:  MOVF   FA8,W
0202A:  MOVLB  6
0202C:  BTFSC  x7D.7
0202E:  BSF    FF2.7
02030:  MOVLB  5
02032:  MOVWF  x41
....................    delay_ms(10); 
02034:  MOVLW  0A
02036:  MOVLB  6
02038:  MOVWF  x86
0203A:  MOVLB  0
0203C:  CALL   1346
....................    Tempouvp[3]=read_eeprom(24); 
02040:  MOVFF  FF2,67D
02044:  BCF    FF2.7
02046:  CLRF   FAA
02048:  MOVLW  18
0204A:  MOVWF  FA9
0204C:  BCF    FA6.6
0204E:  BCF    FA6.7
02050:  BSF    FA6.0
02052:  MOVF   FA8,W
02054:  MOVLB  6
02056:  BTFSC  x7D.7
02058:  BSF    FF2.7
0205A:  MOVLB  5
0205C:  MOVWF  x42
....................     
....................    delay_ms(10); 
0205E:  MOVLW  0A
02060:  MOVLB  6
02062:  MOVWF  x86
02064:  MOVLB  0
02066:  CALL   1346
....................    Entero=read_eeprom(25);//Decimal1=read_eeprom(26); 
0206A:  MOVFF  FF2,67D
0206E:  BCF    FF2.7
02070:  CLRF   FAA
02072:  MOVLW  19
02074:  MOVWF  FA9
02076:  BCF    FA6.6
02078:  BCF    FA6.7
0207A:  BSF    FA6.0
0207C:  MOVF   FA8,W
0207E:  MOVLB  6
02080:  BTFSC  x7D.7
02082:  BSF    FF2.7
02084:  MOVLB  5
02086:  MOVWF  x0F
....................    delay_ms(10); 
02088:  MOVLW  0A
0208A:  MOVLB  6
0208C:  MOVWF  x86
0208E:  MOVLB  0
02090:  CALL   1346
....................    Temporal=read_eeprom(26); 
02094:  MOVFF  FF2,67D
02098:  BCF    FF2.7
0209A:  CLRF   FAA
0209C:  MOVLW  1A
0209E:  MOVWF  FA9
020A0:  BCF    FA6.6
020A2:  BCF    FA6.7
020A4:  BSF    FA6.0
020A6:  MOVF   FA8,W
020A8:  MOVLB  6
020AA:  BTFSC  x7D.7
020AC:  BSF    FF2.7
020AE:  CLRF   xB3
020B0:  MOVWF  xB2
020B2:  MOVLB  0
020B4:  CALL   1870
020B8:  MOVFF  03,58E
020BC:  MOVFF  02,58D
020C0:  MOVFF  01,58C
020C4:  MOVFF  00,58B
....................    delay_ms(10); 
020C8:  MOVLW  0A
020CA:  MOVLB  6
020CC:  MOVWF  x86
020CE:  MOVLB  0
020D0:  CALL   1346
....................    Temporal=Temporal/10.0; 
020D4:  MOVFF  58E,6B1
020D8:  MOVFF  58D,6B0
020DC:  MOVFF  58C,6AF
020E0:  MOVFF  58B,6AE
020E4:  MOVLB  6
020E6:  CLRF   xB5
020E8:  CLRF   xB4
020EA:  MOVLW  20
020EC:  MOVWF  xB3
020EE:  MOVLW  82
020F0:  MOVWF  xB2
020F2:  MOVLB  0
020F4:  CALL   18A6
020F8:  MOVFF  03,58E
020FC:  MOVFF  02,58D
02100:  MOVFF  01,58C
02104:  MOVFF  00,58B
....................    Ajuste1=Entero+Temporal; 
02108:  MOVLB  6
0210A:  CLRF   xB3
0210C:  MOVFF  50F,6B2
02110:  MOVLB  0
02112:  CALL   1870
02116:  BCF    FD8.1
02118:  MOVFF  03,6B5
0211C:  MOVFF  02,6B4
02120:  MOVFF  01,6B3
02124:  MOVFF  00,6B2
02128:  MOVFF  58E,6B9
0212C:  MOVFF  58D,6B8
02130:  MOVFF  58C,6B7
02134:  MOVFF  58B,6B6
02138:  RCALL  1A04
0213A:  MOVFF  03,582
0213E:  MOVFF  02,581
02142:  MOVFF  01,580
02146:  MOVFF  00,57F
....................     
....................     
....................    Entero=read_eeprom(27);//Decimal1=read_eeprom(26); 
0214A:  MOVFF  FF2,67D
0214E:  BCF    FF2.7
02150:  CLRF   FAA
02152:  MOVLW  1B
02154:  MOVWF  FA9
02156:  BCF    FA6.6
02158:  BCF    FA6.7
0215A:  BSF    FA6.0
0215C:  MOVF   FA8,W
0215E:  MOVLB  6
02160:  BTFSC  x7D.7
02162:  BSF    FF2.7
02164:  MOVLB  5
02166:  MOVWF  x0F
....................    delay_ms(10); 
02168:  MOVLW  0A
0216A:  MOVLB  6
0216C:  MOVWF  x86
0216E:  MOVLB  0
02170:  CALL   1346
....................    Temporal=read_eeprom(28); 
02174:  MOVFF  FF2,67D
02178:  BCF    FF2.7
0217A:  CLRF   FAA
0217C:  MOVLW  1C
0217E:  MOVWF  FA9
02180:  BCF    FA6.6
02182:  BCF    FA6.7
02184:  BSF    FA6.0
02186:  MOVF   FA8,W
02188:  MOVLB  6
0218A:  BTFSC  x7D.7
0218C:  BSF    FF2.7
0218E:  CLRF   xB3
02190:  MOVWF  xB2
02192:  MOVLB  0
02194:  CALL   1870
02198:  MOVFF  03,58E
0219C:  MOVFF  02,58D
021A0:  MOVFF  01,58C
021A4:  MOVFF  00,58B
....................    delay_ms(10); 
021A8:  MOVLW  0A
021AA:  MOVLB  6
021AC:  MOVWF  x86
021AE:  MOVLB  0
021B0:  CALL   1346
....................    Temporal=Temporal/10.0; 
021B4:  MOVFF  58E,6B1
021B8:  MOVFF  58D,6B0
021BC:  MOVFF  58C,6AF
021C0:  MOVFF  58B,6AE
021C4:  MOVLB  6
021C6:  CLRF   xB5
021C8:  CLRF   xB4
021CA:  MOVLW  20
021CC:  MOVWF  xB3
021CE:  MOVLW  82
021D0:  MOVWF  xB2
021D2:  MOVLB  0
021D4:  CALL   18A6
021D8:  MOVFF  03,58E
021DC:  MOVFF  02,58D
021E0:  MOVFF  01,58C
021E4:  MOVFF  00,58B
....................    Ajuste2=Entero+Temporal; 
021E8:  MOVLB  6
021EA:  CLRF   xB3
021EC:  MOVFF  50F,6B2
021F0:  MOVLB  0
021F2:  CALL   1870
021F6:  BCF    FD8.1
021F8:  MOVFF  03,6B5
021FC:  MOVFF  02,6B4
02200:  MOVFF  01,6B3
02204:  MOVFF  00,6B2
02208:  MOVFF  58E,6B9
0220C:  MOVFF  58D,6B8
02210:  MOVFF  58C,6B7
02214:  MOVFF  58B,6B6
02218:  CALL   1A04
0221C:  MOVFF  03,586
02220:  MOVFF  02,585
02224:  MOVFF  01,584
02228:  MOVFF  00,583
....................     
....................    zero_actual=make16(read_eeprom(30),read_eeprom(29)); 
0222C:  MOVFF  FF2,67D
02230:  BCF    FF2.7
02232:  CLRF   FAA
02234:  MOVLW  1E
02236:  MOVWF  FA9
02238:  BCF    FA6.6
0223A:  BCF    FA6.7
0223C:  BSF    FA6.0
0223E:  MOVF   FA8,W
02240:  MOVLB  6
02242:  BTFSC  x7D.7
02244:  BSF    FF2.7
02246:  MOVWF  x7E
02248:  MOVFF  FF2,67F
0224C:  BCF    FF2.7
0224E:  CLRF   FAA
02250:  MOVLW  1D
02252:  MOVWF  FA9
02254:  BCF    FA6.6
02256:  BCF    FA6.7
02258:  BSF    FA6.0
0225A:  MOVF   FA8,W
0225C:  BTFSC  x7F.7
0225E:  BSF    FF2.7
02260:  MOVWF  x80
02262:  MOVFF  67E,03
02266:  MOVF   x80,W
02268:  MOVWF  xB2
0226A:  MOVFF  03,6B3
0226E:  MOVLB  0
02270:  CALL   1870
02274:  MOVFF  03,60E
02278:  MOVFF  02,60D
0227C:  MOVFF  01,60C
02280:  MOVFF  00,60B
....................    delay_ms(10); 
02284:  MOVLW  0A
02286:  MOVLB  6
02288:  MOVWF  x86
0228A:  MOVLB  0
0228C:  CALL   1346
....................    minutos_trabajo=make16(read_eeprom(34),read_eeprom(33)); 
02290:  MOVFF  FF2,67D
02294:  BCF    FF2.7
02296:  CLRF   FAA
02298:  MOVLW  22
0229A:  MOVWF  FA9
0229C:  BCF    FA6.6
0229E:  BCF    FA6.7
022A0:  BSF    FA6.0
022A2:  MOVF   FA8,W
022A4:  MOVLB  6
022A6:  BTFSC  x7D.7
022A8:  BSF    FF2.7
022AA:  MOVWF  x7E
022AC:  MOVFF  FF2,67F
022B0:  BCF    FF2.7
022B2:  CLRF   FAA
022B4:  MOVLW  21
022B6:  MOVWF  FA9
022B8:  BCF    FA6.6
022BA:  BCF    FA6.7
022BC:  BSF    FA6.0
022BE:  MOVF   FA8,W
022C0:  BTFSC  x7F.7
022C2:  BSF    FF2.7
022C4:  MOVWF  x80
022C6:  MOVFF  67E,524
022CA:  MOVFF  680,523
....................    delay_ms(10); 
022CE:  MOVLW  0A
022D0:  MOVWF  x86
022D2:  MOVLB  0
022D4:  CALL   1346
....................    minutos_uv=read_eeprom(31); 
022D8:  MOVFF  FF2,67D
022DC:  BCF    FF2.7
022DE:  CLRF   FAA
022E0:  MOVLW  1F
022E2:  MOVWF  FA9
022E4:  BCF    FA6.6
022E6:  BCF    FA6.7
022E8:  BSF    FA6.0
022EA:  MOVF   FA8,W
022EC:  MOVLB  6
022EE:  BTFSC  x7D.7
022F0:  BSF    FF2.7
022F2:  MOVLB  5
022F4:  CLRF   x22
022F6:  MOVWF  x21
....................    delay_ms(10); 
022F8:  MOVLW  0A
022FA:  MOVLB  6
022FC:  MOVWF  x86
022FE:  MOVLB  0
02300:  CALL   1346
....................    VelMotor=read_eeprom(32); 
02304:  MOVFF  FF2,67D
02308:  BCF    FF2.7
0230A:  CLRF   FAA
0230C:  MOVLW  20
0230E:  MOVWF  FA9
02310:  BCF    FA6.6
02312:  BCF    FA6.7
02314:  BSF    FA6.0
02316:  MOVF   FA8,W
02318:  MOVLB  6
0231A:  BTFSC  x7D.7
0231C:  BSF    FF2.7
0231E:  MOVLB  4
02320:  MOVWF  x3A
....................    delay_ms(10); 
02322:  MOVLW  0A
02324:  MOVLB  6
02326:  MOVWF  x86
02328:  MOVLB  0
0232A:  CALL   1346
....................     
....................    Diferencia=make16(read_eeprom(61),read_eeprom(60)); 
0232E:  MOVFF  FF2,67D
02332:  BCF    FF2.7
02334:  CLRF   FAA
02336:  MOVLW  3D
02338:  MOVWF  FA9
0233A:  BCF    FA6.6
0233C:  BCF    FA6.7
0233E:  BSF    FA6.0
02340:  MOVF   FA8,W
02342:  MOVLB  6
02344:  BTFSC  x7D.7
02346:  BSF    FF2.7
02348:  MOVWF  x7E
0234A:  MOVFF  FF2,67F
0234E:  BCF    FF2.7
02350:  CLRF   FAA
02352:  MOVLW  3C
02354:  MOVWF  FA9
02356:  BCF    FA6.6
02358:  BCF    FA6.7
0235A:  BSF    FA6.0
0235C:  MOVF   FA8,W
0235E:  BTFSC  x7F.7
02360:  BSF    FF2.7
02362:  MOVWF  x80
02364:  MOVFF  67E,03
02368:  MOVF   x80,W
0236A:  MOVWF  xB2
0236C:  MOVFF  03,6B3
02370:  MOVLB  0
02372:  CALL   1870
02376:  MOVFF  03,55E
0237A:  MOVFF  02,55D
0237E:  MOVFF  01,55C
02382:  MOVFF  00,55B
....................    delay_ms(10); 
02386:  MOVLW  0A
02388:  MOVLB  6
0238A:  MOVWF  x86
0238C:  MOVLB  0
0238E:  CALL   1346
....................    G=make16(read_eeprom(63),read_eeprom(62)); 
02392:  MOVFF  FF2,67D
02396:  BCF    FF2.7
02398:  CLRF   FAA
0239A:  MOVLW  3F
0239C:  MOVWF  FA9
0239E:  BCF    FA6.6
023A0:  BCF    FA6.7
023A2:  BSF    FA6.0
023A4:  MOVF   FA8,W
023A6:  MOVLB  6
023A8:  BTFSC  x7D.7
023AA:  BSF    FF2.7
023AC:  MOVWF  x7E
023AE:  MOVFF  FF2,67F
023B2:  BCF    FF2.7
023B4:  CLRF   FAA
023B6:  MOVLW  3E
023B8:  MOVWF  FA9
023BA:  BCF    FA6.6
023BC:  BCF    FA6.7
023BE:  BSF    FA6.0
023C0:  MOVF   FA8,W
023C2:  BTFSC  x7F.7
023C4:  BSF    FF2.7
023C6:  MOVWF  x80
023C8:  MOVFF  67E,03
023CC:  MOVF   x80,W
023CE:  MOVWF  xB2
023D0:  MOVFF  03,6B3
023D4:  MOVLB  0
023D6:  CALL   1870
023DA:  MOVFF  03,61A
023DE:  MOVFF  02,619
023E2:  MOVFF  01,618
023E6:  MOVFF  00,617
....................    delay_ms(10); 
023EA:  MOVLW  0A
023EC:  MOVLB  6
023EE:  MOVWF  x86
023F0:  MOVLB  0
023F2:  CALL   1346
....................    negativo=read_eeprom(50); 
023F6:  MOVFF  FF2,67D
023FA:  BCF    FF2.7
023FC:  CLRF   FAA
023FE:  MOVLW  32
02400:  MOVWF  FA9
02402:  BCF    FA6.6
02404:  BCF    FA6.7
02406:  BSF    FA6.0
02408:  MOVF   FA8,W
0240A:  MOVLB  6
0240C:  BTFSC  x7D.7
0240E:  BSF    FF2.7
02410:  MOVLB  5
02412:  MOVWF  x07
....................    delay_ms(10); 
02414:  MOVLW  0A
02416:  MOVLB  6
02418:  MOVWF  x86
0241A:  MOVLB  0
0241C:  CALL   1346
....................  
.................... } 
02420:  GOTO   5FC6 (RETURN)
....................  
.................... void LimitaValores(void){ 
....................    if(Password[0]>9 || Password[0]<0){ 
*
0249E:  MOVLB  5
024A0:  BTFSC  x4B.7
024A2:  BRA    24AA
024A4:  MOVF   x4B,W
024A6:  SUBLW  09
024A8:  BNC   24B0
024AA:  BTFSC  x4B.7
024AC:  BRA    24B0
024AE:  BRA    24DC
....................       Password[0]=0;write_eeprom(0,0); 
024B0:  CLRF   x4B
024B2:  CLRF   FAA
024B4:  CLRF   FA9
024B6:  CLRF   FA8
024B8:  BCF    FA6.6
024BA:  BCF    FA6.7
024BC:  BSF    FA6.2
024BE:  MOVF   FF2,W
024C0:  MOVWF  00
024C2:  BCF    FF2.7
024C4:  MOVLB  F
024C6:  MOVLW  55
024C8:  MOVWF  FA7
024CA:  MOVLW  AA
024CC:  MOVWF  FA7
024CE:  BSF    FA6.1
024D0:  BTFSC  FA6.1
024D2:  BRA    24D0
024D4:  BCF    FA6.2
024D6:  MOVF   00,W
024D8:  IORWF  FF2,F
024DA:  MOVLB  5
....................    } 
....................    if(Password[1]>9 || Password[1]<0){ 
024DC:  BTFSC  x4C.7
024DE:  BRA    24E6
024E0:  MOVF   x4C,W
024E2:  SUBLW  09
024E4:  BNC   24EC
024E6:  BTFSC  x4C.7
024E8:  BRA    24EC
024EA:  BRA    251A
....................       Password[1]=0;write_eeprom(1,0); 
024EC:  CLRF   x4C
024EE:  CLRF   FAA
024F0:  MOVLW  01
024F2:  MOVWF  FA9
024F4:  CLRF   FA8
024F6:  BCF    FA6.6
024F8:  BCF    FA6.7
024FA:  BSF    FA6.2
024FC:  MOVF   FF2,W
024FE:  MOVWF  00
02500:  BCF    FF2.7
02502:  MOVLB  F
02504:  MOVLW  55
02506:  MOVWF  FA7
02508:  MOVLW  AA
0250A:  MOVWF  FA7
0250C:  BSF    FA6.1
0250E:  BTFSC  FA6.1
02510:  BRA    250E
02512:  BCF    FA6.2
02514:  MOVF   00,W
02516:  IORWF  FF2,F
02518:  MOVLB  5
....................    } 
....................    if(Password[2]>9 || Password[2]<0){ 
0251A:  BTFSC  x4D.7
0251C:  BRA    2524
0251E:  MOVF   x4D,W
02520:  SUBLW  09
02522:  BNC   252A
02524:  BTFSC  x4D.7
02526:  BRA    252A
02528:  BRA    2558
....................       Password[2]=0;write_eeprom(2,0); 
0252A:  CLRF   x4D
0252C:  CLRF   FAA
0252E:  MOVLW  02
02530:  MOVWF  FA9
02532:  CLRF   FA8
02534:  BCF    FA6.6
02536:  BCF    FA6.7
02538:  BSF    FA6.2
0253A:  MOVF   FF2,W
0253C:  MOVWF  00
0253E:  BCF    FF2.7
02540:  MOVLB  F
02542:  MOVLW  55
02544:  MOVWF  FA7
02546:  MOVLW  AA
02548:  MOVWF  FA7
0254A:  BSF    FA6.1
0254C:  BTFSC  FA6.1
0254E:  BRA    254C
02550:  BCF    FA6.2
02552:  MOVF   00,W
02554:  IORWF  FF2,F
02556:  MOVLB  5
....................    } 
....................    if(Password[3]>9 || Password[3]<0){ 
02558:  BTFSC  x4E.7
0255A:  BRA    2562
0255C:  MOVF   x4E,W
0255E:  SUBLW  09
02560:  BNC   2568
02562:  BTFSC  x4E.7
02564:  BRA    2568
02566:  BRA    2596
....................       Password[3]=0;write_eeprom(3,0); 
02568:  CLRF   x4E
0256A:  CLRF   FAA
0256C:  MOVLW  03
0256E:  MOVWF  FA9
02570:  CLRF   FA8
02572:  BCF    FA6.6
02574:  BCF    FA6.7
02576:  BSF    FA6.2
02578:  MOVF   FF2,W
0257A:  MOVWF  00
0257C:  BCF    FF2.7
0257E:  MOVLB  F
02580:  MOVLW  55
02582:  MOVWF  FA7
02584:  MOVLW  AA
02586:  MOVWF  FA7
02588:  BSF    FA6.1
0258A:  BTFSC  FA6.1
0258C:  BRA    258A
0258E:  BCF    FA6.2
02590:  MOVF   00,W
02592:  IORWF  FF2,F
02594:  MOVLB  5
....................    } 
....................    if(Tpurgap[0]>9 || Tpurgap[0]<0){ 
02596:  BTFSC  x2B.7
02598:  BRA    25A0
0259A:  MOVF   x2B,W
0259C:  SUBLW  09
0259E:  BNC   25A6
025A0:  BTFSC  x2B.7
025A2:  BRA    25A6
025A4:  BRA    25D4
....................       Tpurgap[0]=0;write_eeprom(4,0); 
025A6:  CLRF   x2B
025A8:  CLRF   FAA
025AA:  MOVLW  04
025AC:  MOVWF  FA9
025AE:  CLRF   FA8
025B0:  BCF    FA6.6
025B2:  BCF    FA6.7
025B4:  BSF    FA6.2
025B6:  MOVF   FF2,W
025B8:  MOVWF  00
025BA:  BCF    FF2.7
025BC:  MOVLB  F
025BE:  MOVLW  55
025C0:  MOVWF  FA7
025C2:  MOVLW  AA
025C4:  MOVWF  FA7
025C6:  BSF    FA6.1
025C8:  BTFSC  FA6.1
025CA:  BRA    25C8
025CC:  BCF    FA6.2
025CE:  MOVF   00,W
025D0:  IORWF  FF2,F
025D2:  MOVLB  5
....................    } 
....................    if(Tpurgap[1]>9 || Tpurgap[1]<0){ 
025D4:  BTFSC  x2C.7
025D6:  BRA    25DE
025D8:  MOVF   x2C,W
025DA:  SUBLW  09
025DC:  BNC   25E4
025DE:  BTFSC  x2C.7
025E0:  BRA    25E4
025E2:  BRA    2612
....................       Tpurgap[1]=0;write_eeprom(5,0); 
025E4:  CLRF   x2C
025E6:  CLRF   FAA
025E8:  MOVLW  05
025EA:  MOVWF  FA9
025EC:  CLRF   FA8
025EE:  BCF    FA6.6
025F0:  BCF    FA6.7
025F2:  BSF    FA6.2
025F4:  MOVF   FF2,W
025F6:  MOVWF  00
025F8:  BCF    FF2.7
025FA:  MOVLB  F
025FC:  MOVLW  55
025FE:  MOVWF  FA7
02600:  MOVLW  AA
02602:  MOVWF  FA7
02604:  BSF    FA6.1
02606:  BTFSC  FA6.1
02608:  BRA    2606
0260A:  BCF    FA6.2
0260C:  MOVF   00,W
0260E:  IORWF  FF2,F
02610:  MOVLB  5
....................    } 
....................    if(Tpurgap[2]>9 || Tpurgap[2]<0){ 
02612:  BTFSC  x2D.7
02614:  BRA    261C
02616:  MOVF   x2D,W
02618:  SUBLW  09
0261A:  BNC   2622
0261C:  BTFSC  x2D.7
0261E:  BRA    2622
02620:  BRA    2654
....................       Tpurgap[2]=2;write_eeprom(6,2); 
02622:  MOVLW  02
02624:  MOVWF  x2D
02626:  CLRF   FAA
02628:  MOVLW  06
0262A:  MOVWF  FA9
0262C:  MOVLW  02
0262E:  MOVWF  FA8
02630:  BCF    FA6.6
02632:  BCF    FA6.7
02634:  BSF    FA6.2
02636:  MOVF   FF2,W
02638:  MOVWF  00
0263A:  BCF    FF2.7
0263C:  MOVLB  F
0263E:  MOVLW  55
02640:  MOVWF  FA7
02642:  MOVLW  AA
02644:  MOVWF  FA7
02646:  BSF    FA6.1
02648:  BTFSC  FA6.1
0264A:  BRA    2648
0264C:  BCF    FA6.2
0264E:  MOVF   00,W
02650:  IORWF  FF2,F
02652:  MOVLB  5
....................    } 
....................    if(Tpurgap[3]>9 || Tpurgap[3]<0){ 
02654:  BTFSC  x2E.7
02656:  BRA    265E
02658:  MOVF   x2E,W
0265A:  SUBLW  09
0265C:  BNC   2664
0265E:  BTFSC  x2E.7
02660:  BRA    2664
02662:  BRA    2692
....................       Tpurgap[3]=0;write_eeprom(7,0); 
02664:  CLRF   x2E
02666:  CLRF   FAA
02668:  MOVLW  07
0266A:  MOVWF  FA9
0266C:  CLRF   FA8
0266E:  BCF    FA6.6
02670:  BCF    FA6.7
02672:  BSF    FA6.2
02674:  MOVF   FF2,W
02676:  MOVWF  00
02678:  BCF    FF2.7
0267A:  MOVLB  F
0267C:  MOVLW  55
0267E:  MOVWF  FA7
02680:  MOVLW  AA
02682:  MOVWF  FA7
02684:  BSF    FA6.1
02686:  BTFSC  FA6.1
02688:  BRA    2686
0268A:  BCF    FA6.2
0268C:  MOVF   00,W
0268E:  IORWF  FF2,F
02690:  MOVLB  5
....................    } 
....................    if(Tppurgap[0]>9 || Tppurgap[0]<0){ 
02692:  BTFSC  x33.7
02694:  BRA    269C
02696:  MOVF   x33,W
02698:  SUBLW  09
0269A:  BNC   26A2
0269C:  BTFSC  x33.7
0269E:  BRA    26A2
026A0:  BRA    26D0
....................       Tppurgap[0]=0;write_eeprom(8,0); 
026A2:  CLRF   x33
026A4:  CLRF   FAA
026A6:  MOVLW  08
026A8:  MOVWF  FA9
026AA:  CLRF   FA8
026AC:  BCF    FA6.6
026AE:  BCF    FA6.7
026B0:  BSF    FA6.2
026B2:  MOVF   FF2,W
026B4:  MOVWF  00
026B6:  BCF    FF2.7
026B8:  MOVLB  F
026BA:  MOVLW  55
026BC:  MOVWF  FA7
026BE:  MOVLW  AA
026C0:  MOVWF  FA7
026C2:  BSF    FA6.1
026C4:  BTFSC  FA6.1
026C6:  BRA    26C4
026C8:  BCF    FA6.2
026CA:  MOVF   00,W
026CC:  IORWF  FF2,F
026CE:  MOVLB  5
....................    } 
....................    if(Tppurgap[1]>9 || Tppurgap[1]<0){ 
026D0:  BTFSC  x34.7
026D2:  BRA    26DA
026D4:  MOVF   x34,W
026D6:  SUBLW  09
026D8:  BNC   26E0
026DA:  BTFSC  x34.7
026DC:  BRA    26E0
026DE:  BRA    270E
....................       Tppurgap[1]=0;write_eeprom(9,0); 
026E0:  CLRF   x34
026E2:  CLRF   FAA
026E4:  MOVLW  09
026E6:  MOVWF  FA9
026E8:  CLRF   FA8
026EA:  BCF    FA6.6
026EC:  BCF    FA6.7
026EE:  BSF    FA6.2
026F0:  MOVF   FF2,W
026F2:  MOVWF  00
026F4:  BCF    FF2.7
026F6:  MOVLB  F
026F8:  MOVLW  55
026FA:  MOVWF  FA7
026FC:  MOVLW  AA
026FE:  MOVWF  FA7
02700:  BSF    FA6.1
02702:  BTFSC  FA6.1
02704:  BRA    2702
02706:  BCF    FA6.2
02708:  MOVF   00,W
0270A:  IORWF  FF2,F
0270C:  MOVLB  5
....................    } 
....................    if(Tppurgap[2]>9 || Tppurgap[2]<0){ 
0270E:  BTFSC  x35.7
02710:  BRA    2718
02712:  MOVF   x35,W
02714:  SUBLW  09
02716:  BNC   271E
02718:  BTFSC  x35.7
0271A:  BRA    271E
0271C:  BRA    2750
....................       Tppurgap[2]=2;write_eeprom(10,2); 
0271E:  MOVLW  02
02720:  MOVWF  x35
02722:  CLRF   FAA
02724:  MOVLW  0A
02726:  MOVWF  FA9
02728:  MOVLW  02
0272A:  MOVWF  FA8
0272C:  BCF    FA6.6
0272E:  BCF    FA6.7
02730:  BSF    FA6.2
02732:  MOVF   FF2,W
02734:  MOVWF  00
02736:  BCF    FF2.7
02738:  MOVLB  F
0273A:  MOVLW  55
0273C:  MOVWF  FA7
0273E:  MOVLW  AA
02740:  MOVWF  FA7
02742:  BSF    FA6.1
02744:  BTFSC  FA6.1
02746:  BRA    2744
02748:  BCF    FA6.2
0274A:  MOVF   00,W
0274C:  IORWF  FF2,F
0274E:  MOVLB  5
....................    } 
....................    if(Tppurgap[3]>9 || Tppurgap[3]<0){ 
02750:  BTFSC  x36.7
02752:  BRA    275A
02754:  MOVF   x36,W
02756:  SUBLW  09
02758:  BNC   2760
0275A:  BTFSC  x36.7
0275C:  BRA    2760
0275E:  BRA    278E
....................       Tppurgap[3]=0;write_eeprom(11,0); 
02760:  CLRF   x36
02762:  CLRF   FAA
02764:  MOVLW  0B
02766:  MOVWF  FA9
02768:  CLRF   FA8
0276A:  BCF    FA6.6
0276C:  BCF    FA6.7
0276E:  BSF    FA6.2
02770:  MOVF   FF2,W
02772:  MOVWF  00
02774:  BCF    FF2.7
02776:  MOVLB  F
02778:  MOVLW  55
0277A:  MOVWF  FA7
0277C:  MOVLW  AA
0277E:  MOVWF  FA7
02780:  BSF    FA6.1
02782:  BTFSC  FA6.1
02784:  BRA    2782
02786:  BCF    FA6.2
02788:  MOVF   00,W
0278A:  IORWF  FF2,F
0278C:  MOVLB  5
....................    } 
....................    if(Tuv[0]>9 || Tuv[0]<0){ 
0278E:  BTFSC  x37.7
02790:  BRA    2798
02792:  MOVF   x37,W
02794:  SUBLW  09
02796:  BNC   279E
02798:  BTFSC  x37.7
0279A:  BRA    279E
0279C:  BRA    27CC
....................       Tuv[0]=0;write_eeprom(12,0); 
0279E:  CLRF   x37
027A0:  CLRF   FAA
027A2:  MOVLW  0C
027A4:  MOVWF  FA9
027A6:  CLRF   FA8
027A8:  BCF    FA6.6
027AA:  BCF    FA6.7
027AC:  BSF    FA6.2
027AE:  MOVF   FF2,W
027B0:  MOVWF  00
027B2:  BCF    FF2.7
027B4:  MOVLB  F
027B6:  MOVLW  55
027B8:  MOVWF  FA7
027BA:  MOVLW  AA
027BC:  MOVWF  FA7
027BE:  BSF    FA6.1
027C0:  BTFSC  FA6.1
027C2:  BRA    27C0
027C4:  BCF    FA6.2
027C6:  MOVF   00,W
027C8:  IORWF  FF2,F
027CA:  MOVLB  5
....................    } 
....................    if(Tuv[1]>9 || Tuv[1]<0){ 
027CC:  BTFSC  x38.7
027CE:  BRA    27D6
027D0:  MOVF   x38,W
027D2:  SUBLW  09
027D4:  BNC   27DC
027D6:  BTFSC  x38.7
027D8:  BRA    27DC
027DA:  BRA    280A
....................       Tuv[1]=0;write_eeprom(13,0); 
027DC:  CLRF   x38
027DE:  CLRF   FAA
027E0:  MOVLW  0D
027E2:  MOVWF  FA9
027E4:  CLRF   FA8
027E6:  BCF    FA6.6
027E8:  BCF    FA6.7
027EA:  BSF    FA6.2
027EC:  MOVF   FF2,W
027EE:  MOVWF  00
027F0:  BCF    FF2.7
027F2:  MOVLB  F
027F4:  MOVLW  55
027F6:  MOVWF  FA7
027F8:  MOVLW  AA
027FA:  MOVWF  FA7
027FC:  BSF    FA6.1
027FE:  BTFSC  FA6.1
02800:  BRA    27FE
02802:  BCF    FA6.2
02804:  MOVF   00,W
02806:  IORWF  FF2,F
02808:  MOVLB  5
....................    } 
....................    if(Tuv[2]>9 || Tuv[2]<0){ 
0280A:  BTFSC  x39.7
0280C:  BRA    2814
0280E:  MOVF   x39,W
02810:  SUBLW  09
02812:  BNC   281A
02814:  BTFSC  x39.7
02816:  BRA    281A
02818:  BRA    2848
....................       Tuv[2]=0;write_eeprom(14,0); 
0281A:  CLRF   x39
0281C:  CLRF   FAA
0281E:  MOVLW  0E
02820:  MOVWF  FA9
02822:  CLRF   FA8
02824:  BCF    FA6.6
02826:  BCF    FA6.7
02828:  BSF    FA6.2
0282A:  MOVF   FF2,W
0282C:  MOVWF  00
0282E:  BCF    FF2.7
02830:  MOVLB  F
02832:  MOVLW  55
02834:  MOVWF  FA7
02836:  MOVLW  AA
02838:  MOVWF  FA7
0283A:  BSF    FA6.1
0283C:  BTFSC  FA6.1
0283E:  BRA    283C
02840:  BCF    FA6.2
02842:  MOVF   00,W
02844:  IORWF  FF2,F
02846:  MOVLB  5
....................    } 
....................    if(Tuv[3]>9 || Tuv[3]<0){ 
02848:  BTFSC  x3A.7
0284A:  BRA    2852
0284C:  MOVF   x3A,W
0284E:  SUBLW  09
02850:  BNC   2858
02852:  BTFSC  x3A.7
02854:  BRA    2858
02856:  BRA    2886
....................       Tuv[3]=0;write_eeprom(15,0); 
02858:  CLRF   x3A
0285A:  CLRF   FAA
0285C:  MOVLW  0F
0285E:  MOVWF  FA9
02860:  CLRF   FA8
02862:  BCF    FA6.6
02864:  BCF    FA6.7
02866:  BSF    FA6.2
02868:  MOVF   FF2,W
0286A:  MOVWF  00
0286C:  BCF    FF2.7
0286E:  MOVLB  F
02870:  MOVLW  55
02872:  MOVWF  FA7
02874:  MOVLW  AA
02876:  MOVWF  FA7
02878:  BSF    FA6.1
0287A:  BTFSC  FA6.1
0287C:  BRA    287A
0287E:  BCF    FA6.2
02880:  MOVF   00,W
02882:  IORWF  FF2,F
02884:  MOVLB  5
....................    } 
....................    if(Ttrabajo[0]>9 || Ttrabajo[0]<0){ 
02886:  BTFSC  x43.7
02888:  BRA    2890
0288A:  MOVF   x43,W
0288C:  SUBLW  09
0288E:  BNC   2896
02890:  BTFSC  x43.7
02892:  BRA    2896
02894:  BRA    28C4
....................       Ttrabajo[0]=0;write_eeprom(16,0); 
02896:  CLRF   x43
02898:  CLRF   FAA
0289A:  MOVLW  10
0289C:  MOVWF  FA9
0289E:  CLRF   FA8
028A0:  BCF    FA6.6
028A2:  BCF    FA6.7
028A4:  BSF    FA6.2
028A6:  MOVF   FF2,W
028A8:  MOVWF  00
028AA:  BCF    FF2.7
028AC:  MOVLB  F
028AE:  MOVLW  55
028B0:  MOVWF  FA7
028B2:  MOVLW  AA
028B4:  MOVWF  FA7
028B6:  BSF    FA6.1
028B8:  BTFSC  FA6.1
028BA:  BRA    28B8
028BC:  BCF    FA6.2
028BE:  MOVF   00,W
028C0:  IORWF  FF2,F
028C2:  MOVLB  5
....................    } 
....................    if(Ttrabajo[1]>9 || Ttrabajo[1]<0){ 
028C4:  BTFSC  x44.7
028C6:  BRA    28CE
028C8:  MOVF   x44,W
028CA:  SUBLW  09
028CC:  BNC   28D4
028CE:  BTFSC  x44.7
028D0:  BRA    28D4
028D2:  BRA    2902
....................       Ttrabajo[1]=0;write_eeprom(17,0); 
028D4:  CLRF   x44
028D6:  CLRF   FAA
028D8:  MOVLW  11
028DA:  MOVWF  FA9
028DC:  CLRF   FA8
028DE:  BCF    FA6.6
028E0:  BCF    FA6.7
028E2:  BSF    FA6.2
028E4:  MOVF   FF2,W
028E6:  MOVWF  00
028E8:  BCF    FF2.7
028EA:  MOVLB  F
028EC:  MOVLW  55
028EE:  MOVWF  FA7
028F0:  MOVLW  AA
028F2:  MOVWF  FA7
028F4:  BSF    FA6.1
028F6:  BTFSC  FA6.1
028F8:  BRA    28F6
028FA:  BCF    FA6.2
028FC:  MOVF   00,W
028FE:  IORWF  FF2,F
02900:  MOVLB  5
....................    } 
....................    if(Ttrabajo[2]>9 || Ttrabajo[2]<0){ 
02902:  BTFSC  x45.7
02904:  BRA    290C
02906:  MOVF   x45,W
02908:  SUBLW  09
0290A:  BNC   2912
0290C:  BTFSC  x45.7
0290E:  BRA    2912
02910:  BRA    2940
....................       Ttrabajo[2]=0;write_eeprom(18,0); 
02912:  CLRF   x45
02914:  CLRF   FAA
02916:  MOVLW  12
02918:  MOVWF  FA9
0291A:  CLRF   FA8
0291C:  BCF    FA6.6
0291E:  BCF    FA6.7
02920:  BSF    FA6.2
02922:  MOVF   FF2,W
02924:  MOVWF  00
02926:  BCF    FF2.7
02928:  MOVLB  F
0292A:  MOVLW  55
0292C:  MOVWF  FA7
0292E:  MOVLW  AA
02930:  MOVWF  FA7
02932:  BSF    FA6.1
02934:  BTFSC  FA6.1
02936:  BRA    2934
02938:  BCF    FA6.2
0293A:  MOVF   00,W
0293C:  IORWF  FF2,F
0293E:  MOVLB  5
....................    } 
....................    if(Ttrabajo[3]>9 || Ttrabajo[3]<0){ 
02940:  BTFSC  x46.7
02942:  BRA    294A
02944:  MOVF   x46,W
02946:  SUBLW  09
02948:  BNC   2950
0294A:  BTFSC  x46.7
0294C:  BRA    2950
0294E:  BRA    297E
....................       Ttrabajo[3]=0;write_eeprom(19,0); 
02950:  CLRF   x46
02952:  CLRF   FAA
02954:  MOVLW  13
02956:  MOVWF  FA9
02958:  CLRF   FA8
0295A:  BCF    FA6.6
0295C:  BCF    FA6.7
0295E:  BSF    FA6.2
02960:  MOVF   FF2,W
02962:  MOVWF  00
02964:  BCF    FF2.7
02966:  MOVLB  F
02968:  MOVLW  55
0296A:  MOVWF  FA7
0296C:  MOVLW  AA
0296E:  MOVWF  FA7
02970:  BSF    FA6.1
02972:  BTFSC  FA6.1
02974:  BRA    2972
02976:  BCF    FA6.2
02978:  MOVF   00,W
0297A:  IORWF  FF2,F
0297C:  MOVLB  5
....................    } 
....................    if(Tempouvp[0]>9 || Tempouvp[0]<0){ 
0297E:  BTFSC  x3F.7
02980:  BRA    2988
02982:  MOVF   x3F,W
02984:  SUBLW  09
02986:  BNC   298E
02988:  BTFSC  x3F.7
0298A:  BRA    298E
0298C:  BRA    29BC
....................       Tempouvp[0]=0;write_eeprom(21,0); 
0298E:  CLRF   x3F
02990:  CLRF   FAA
02992:  MOVLW  15
02994:  MOVWF  FA9
02996:  CLRF   FA8
02998:  BCF    FA6.6
0299A:  BCF    FA6.7
0299C:  BSF    FA6.2
0299E:  MOVF   FF2,W
029A0:  MOVWF  00
029A2:  BCF    FF2.7
029A4:  MOVLB  F
029A6:  MOVLW  55
029A8:  MOVWF  FA7
029AA:  MOVLW  AA
029AC:  MOVWF  FA7
029AE:  BSF    FA6.1
029B0:  BTFSC  FA6.1
029B2:  BRA    29B0
029B4:  BCF    FA6.2
029B6:  MOVF   00,W
029B8:  IORWF  FF2,F
029BA:  MOVLB  5
....................    } 
....................    if(Tempouvp[1]>9 || Tempouvp[1]<0){ 
029BC:  BTFSC  x40.7
029BE:  BRA    29C6
029C0:  MOVF   x40,W
029C2:  SUBLW  09
029C4:  BNC   29CC
029C6:  BTFSC  x40.7
029C8:  BRA    29CC
029CA:  BRA    29FA
....................       Tempouvp[1]=0;write_eeprom(22,0); 
029CC:  CLRF   x40
029CE:  CLRF   FAA
029D0:  MOVLW  16
029D2:  MOVWF  FA9
029D4:  CLRF   FA8
029D6:  BCF    FA6.6
029D8:  BCF    FA6.7
029DA:  BSF    FA6.2
029DC:  MOVF   FF2,W
029DE:  MOVWF  00
029E0:  BCF    FF2.7
029E2:  MOVLB  F
029E4:  MOVLW  55
029E6:  MOVWF  FA7
029E8:  MOVLW  AA
029EA:  MOVWF  FA7
029EC:  BSF    FA6.1
029EE:  BTFSC  FA6.1
029F0:  BRA    29EE
029F2:  BCF    FA6.2
029F4:  MOVF   00,W
029F6:  IORWF  FF2,F
029F8:  MOVLB  5
....................    } 
....................    if(Tempouvp[2]>9 || Tempouvp[2]<0){ 
029FA:  BTFSC  x41.7
029FC:  BRA    2A04
029FE:  MOVF   x41,W
02A00:  SUBLW  09
02A02:  BNC   2A0A
02A04:  BTFSC  x41.7
02A06:  BRA    2A0A
02A08:  BRA    2A38
....................       Tempouvp[2]=0;write_eeprom(23,0); 
02A0A:  CLRF   x41
02A0C:  CLRF   FAA
02A0E:  MOVLW  17
02A10:  MOVWF  FA9
02A12:  CLRF   FA8
02A14:  BCF    FA6.6
02A16:  BCF    FA6.7
02A18:  BSF    FA6.2
02A1A:  MOVF   FF2,W
02A1C:  MOVWF  00
02A1E:  BCF    FF2.7
02A20:  MOVLB  F
02A22:  MOVLW  55
02A24:  MOVWF  FA7
02A26:  MOVLW  AA
02A28:  MOVWF  FA7
02A2A:  BSF    FA6.1
02A2C:  BTFSC  FA6.1
02A2E:  BRA    2A2C
02A30:  BCF    FA6.2
02A32:  MOVF   00,W
02A34:  IORWF  FF2,F
02A36:  MOVLB  5
....................    } 
....................    if(Tempouvp[3]>9 || Tempouvp[3]<0){ 
02A38:  BTFSC  x42.7
02A3A:  BRA    2A42
02A3C:  MOVF   x42,W
02A3E:  SUBLW  09
02A40:  BNC   2A48
02A42:  BTFSC  x42.7
02A44:  BRA    2A48
02A46:  BRA    2A78
....................       Tempouvp[3]=1;write_eeprom(24,1); 
02A48:  MOVLW  01
02A4A:  MOVWF  x42
02A4C:  CLRF   FAA
02A4E:  MOVLW  18
02A50:  MOVWF  FA9
02A52:  MOVLW  01
02A54:  MOVWF  FA8
02A56:  BCF    FA6.6
02A58:  BCF    FA6.7
02A5A:  BSF    FA6.2
02A5C:  MOVF   FF2,W
02A5E:  MOVWF  00
02A60:  BCF    FF2.7
02A62:  MOVLB  F
02A64:  MOVLW  55
02A66:  MOVWF  FA7
02A68:  MOVLW  AA
02A6A:  MOVWF  FA7
02A6C:  BSF    FA6.1
02A6E:  BTFSC  FA6.1
02A70:  BRA    2A6E
02A72:  BCF    FA6.2
02A74:  MOVF   00,W
02A76:  IORWF  FF2,F
....................    } 
....................    if(Ajuste1>25.0){ 
02A78:  MOVLB  6
02A7A:  CLRF   xB1
02A7C:  CLRF   xB0
02A7E:  MOVLW  48
02A80:  MOVWF  xAF
02A82:  MOVLW  83
02A84:  MOVWF  xAE
02A86:  MOVFF  582,6B5
02A8A:  MOVFF  581,6B4
02A8E:  MOVFF  580,6B3
02A92:  MOVFF  57F,6B2
02A96:  MOVLB  0
02A98:  RCALL  2424
02A9A:  BNC   2B00
....................       Ajuste1=1.5;write_eeprom(25,1);write_eeprom(26,5); 
02A9C:  MOVLB  5
02A9E:  CLRF   x82
02AA0:  CLRF   x81
02AA2:  MOVLW  40
02AA4:  MOVWF  x80
02AA6:  MOVLW  7F
02AA8:  MOVWF  x7F
02AAA:  CLRF   FAA
02AAC:  MOVLW  19
02AAE:  MOVWF  FA9
02AB0:  MOVLW  01
02AB2:  MOVWF  FA8
02AB4:  BCF    FA6.6
02AB6:  BCF    FA6.7
02AB8:  BSF    FA6.2
02ABA:  MOVF   FF2,W
02ABC:  MOVWF  00
02ABE:  BCF    FF2.7
02AC0:  MOVLB  F
02AC2:  MOVLW  55
02AC4:  MOVWF  FA7
02AC6:  MOVLW  AA
02AC8:  MOVWF  FA7
02ACA:  BSF    FA6.1
02ACC:  BTFSC  FA6.1
02ACE:  BRA    2ACC
02AD0:  BCF    FA6.2
02AD2:  MOVF   00,W
02AD4:  IORWF  FF2,F
02AD6:  CLRF   FAA
02AD8:  MOVLW  1A
02ADA:  MOVWF  FA9
02ADC:  MOVLW  05
02ADE:  MOVWF  FA8
02AE0:  BCF    FA6.6
02AE2:  BCF    FA6.7
02AE4:  BSF    FA6.2
02AE6:  MOVF   FF2,W
02AE8:  MOVWF  00
02AEA:  BCF    FF2.7
02AEC:  MOVLW  55
02AEE:  MOVWF  FA7
02AF0:  MOVLW  AA
02AF2:  MOVWF  FA7
02AF4:  BSF    FA6.1
02AF6:  BTFSC  FA6.1
02AF8:  BRA    2AF6
02AFA:  BCF    FA6.2
02AFC:  MOVF   00,W
02AFE:  IORWF  FF2,F
....................    } 
....................    if(Ajuste2>25.0){ 
02B00:  MOVLB  6
02B02:  CLRF   xB1
02B04:  CLRF   xB0
02B06:  MOVLW  48
02B08:  MOVWF  xAF
02B0A:  MOVLW  83
02B0C:  MOVWF  xAE
02B0E:  MOVFF  586,6B5
02B12:  MOVFF  585,6B4
02B16:  MOVFF  584,6B3
02B1A:  MOVFF  583,6B2
02B1E:  MOVLB  0
02B20:  RCALL  2424
02B22:  BNC   2B84
....................       Ajuste2=1.0;write_eeprom(27,1);write_eeprom(28,0); 
02B24:  MOVLB  5
02B26:  CLRF   x86
02B28:  CLRF   x85
02B2A:  CLRF   x84
02B2C:  MOVLW  7F
02B2E:  MOVWF  x83
02B30:  CLRF   FAA
02B32:  MOVLW  1B
02B34:  MOVWF  FA9
02B36:  MOVLW  01
02B38:  MOVWF  FA8
02B3A:  BCF    FA6.6
02B3C:  BCF    FA6.7
02B3E:  BSF    FA6.2
02B40:  MOVF   FF2,W
02B42:  MOVWF  00
02B44:  BCF    FF2.7
02B46:  MOVLB  F
02B48:  MOVLW  55
02B4A:  MOVWF  FA7
02B4C:  MOVLW  AA
02B4E:  MOVWF  FA7
02B50:  BSF    FA6.1
02B52:  BTFSC  FA6.1
02B54:  BRA    2B52
02B56:  BCF    FA6.2
02B58:  MOVF   00,W
02B5A:  IORWF  FF2,F
02B5C:  CLRF   FAA
02B5E:  MOVLW  1C
02B60:  MOVWF  FA9
02B62:  CLRF   FA8
02B64:  BCF    FA6.6
02B66:  BCF    FA6.7
02B68:  BSF    FA6.2
02B6A:  MOVF   FF2,W
02B6C:  MOVWF  00
02B6E:  BCF    FF2.7
02B70:  MOVLW  55
02B72:  MOVWF  FA7
02B74:  MOVLW  AA
02B76:  MOVWF  FA7
02B78:  BSF    FA6.1
02B7A:  BTFSC  FA6.1
02B7C:  BRA    2B7A
02B7E:  BCF    FA6.2
02B80:  MOVF   00,W
02B82:  IORWF  FF2,F
....................    } 
....................    if(zero_actual>300){ 
02B84:  MOVLB  6
02B86:  CLRF   xB1
02B88:  CLRF   xB0
02B8A:  MOVLW  16
02B8C:  MOVWF  xAF
02B8E:  MOVLW  87
02B90:  MOVWF  xAE
02B92:  MOVFF  60E,6B5
02B96:  MOVFF  60D,6B4
02B9A:  MOVFF  60C,6B3
02B9E:  MOVFF  60B,6B2
02BA2:  MOVLB  0
02BA4:  RCALL  2424
02BA6:  BNC   2C0A
....................       zero_actual=203;write_eeprom(29,203);write_eeprom(30,0); 
02BA8:  MOVLB  6
02BAA:  CLRF   x0E
02BAC:  CLRF   x0D
02BAE:  MOVLW  4B
02BB0:  MOVWF  x0C
02BB2:  MOVLW  86
02BB4:  MOVWF  x0B
02BB6:  CLRF   FAA
02BB8:  MOVLW  1D
02BBA:  MOVWF  FA9
02BBC:  MOVLW  CB
02BBE:  MOVWF  FA8
02BC0:  BCF    FA6.6
02BC2:  BCF    FA6.7
02BC4:  BSF    FA6.2
02BC6:  MOVF   FF2,W
02BC8:  MOVWF  00
02BCA:  BCF    FF2.7
02BCC:  MOVLB  F
02BCE:  MOVLW  55
02BD0:  MOVWF  FA7
02BD2:  MOVLW  AA
02BD4:  MOVWF  FA7
02BD6:  BSF    FA6.1
02BD8:  BTFSC  FA6.1
02BDA:  BRA    2BD8
02BDC:  BCF    FA6.2
02BDE:  MOVF   00,W
02BE0:  IORWF  FF2,F
02BE2:  CLRF   FAA
02BE4:  MOVLW  1E
02BE6:  MOVWF  FA9
02BE8:  CLRF   FA8
02BEA:  BCF    FA6.6
02BEC:  BCF    FA6.7
02BEE:  BSF    FA6.2
02BF0:  MOVF   FF2,W
02BF2:  MOVWF  00
02BF4:  BCF    FF2.7
02BF6:  MOVLW  55
02BF8:  MOVWF  FA7
02BFA:  MOVLW  AA
02BFC:  MOVWF  FA7
02BFE:  BSF    FA6.1
02C00:  BTFSC  FA6.1
02C02:  BRA    2C00
02C04:  BCF    FA6.2
02C06:  MOVF   00,W
02C08:  IORWF  FF2,F
....................    } 
....................    if(minutos_uv>60){ 
02C0A:  MOVLB  5
02C0C:  MOVF   x22,F
02C0E:  BNZ   2C16
02C10:  MOVF   x21,W
02C12:  SUBLW  3C
02C14:  BC    2C44
....................       minutos_uv=0;write_eeprom(31,0); 
02C16:  CLRF   x22
02C18:  CLRF   x21
02C1A:  CLRF   FAA
02C1C:  MOVLW  1F
02C1E:  MOVWF  FA9
02C20:  CLRF   FA8
02C22:  BCF    FA6.6
02C24:  BCF    FA6.7
02C26:  BSF    FA6.2
02C28:  MOVF   FF2,W
02C2A:  MOVWF  00
02C2C:  BCF    FF2.7
02C2E:  MOVLB  F
02C30:  MOVLW  55
02C32:  MOVWF  FA7
02C34:  MOVLW  AA
02C36:  MOVWF  FA7
02C38:  BSF    FA6.1
02C3A:  BTFSC  FA6.1
02C3C:  BRA    2C3A
02C3E:  BCF    FA6.2
02C40:  MOVF   00,W
02C42:  IORWF  FF2,F
....................    } 
....................    if(VelMotor>6){ 
02C44:  MOVLB  4
02C46:  MOVF   x3A,W
02C48:  SUBLW  06
02C4A:  BC    2C7C
....................       VelMotor=2;write_eeprom(32,2); 
02C4C:  MOVLW  02
02C4E:  MOVWF  x3A
02C50:  CLRF   FAA
02C52:  MOVLW  20
02C54:  MOVWF  FA9
02C56:  MOVLW  02
02C58:  MOVWF  FA8
02C5A:  BCF    FA6.6
02C5C:  BCF    FA6.7
02C5E:  BSF    FA6.2
02C60:  MOVF   FF2,W
02C62:  MOVWF  00
02C64:  BCF    FF2.7
02C66:  MOVLB  F
02C68:  MOVLW  55
02C6A:  MOVWF  FA7
02C6C:  MOVLW  AA
02C6E:  MOVWF  FA7
02C70:  BSF    FA6.1
02C72:  BTFSC  FA6.1
02C74:  BRA    2C72
02C76:  BCF    FA6.2
02C78:  MOVF   00,W
02C7A:  IORWF  FF2,F
....................    }    
....................    if(minutos_trabajo>3600){ 
02C7C:  MOVLB  5
02C7E:  MOVF   x24,W
02C80:  SUBLW  0D
02C82:  BC    2CE4
02C84:  XORLW  FF
02C86:  BNZ   2C8E
02C88:  MOVF   x23,W
02C8A:  SUBLW  10
02C8C:  BC    2CE4
....................       minutos_trabajo=0;write_eeprom(33,0);write_eeprom(34,0); 
02C8E:  CLRF   x24
02C90:  CLRF   x23
02C92:  CLRF   FAA
02C94:  MOVLW  21
02C96:  MOVWF  FA9
02C98:  CLRF   FA8
02C9A:  BCF    FA6.6
02C9C:  BCF    FA6.7
02C9E:  BSF    FA6.2
02CA0:  MOVF   FF2,W
02CA2:  MOVWF  00
02CA4:  BCF    FF2.7
02CA6:  MOVLB  F
02CA8:  MOVLW  55
02CAA:  MOVWF  FA7
02CAC:  MOVLW  AA
02CAE:  MOVWF  FA7
02CB0:  BSF    FA6.1
02CB2:  BTFSC  FA6.1
02CB4:  BRA    2CB2
02CB6:  BCF    FA6.2
02CB8:  MOVF   00,W
02CBA:  IORWF  FF2,F
02CBC:  CLRF   FAA
02CBE:  MOVLW  22
02CC0:  MOVWF  FA9
02CC2:  CLRF   FA8
02CC4:  BCF    FA6.6
02CC6:  BCF    FA6.7
02CC8:  BSF    FA6.2
02CCA:  MOVF   FF2,W
02CCC:  MOVWF  00
02CCE:  BCF    FF2.7
02CD0:  MOVLW  55
02CD2:  MOVWF  FA7
02CD4:  MOVLW  AA
02CD6:  MOVWF  FA7
02CD8:  BSF    FA6.1
02CDA:  BTFSC  FA6.1
02CDC:  BRA    2CDA
02CDE:  BCF    FA6.2
02CE0:  MOVF   00,W
02CE2:  IORWF  FF2,F
....................    } 
....................    //if(Relacion>2.0){ 
....................       //Relacion=0.57;write_eeprom(35,0);write_eeprom(36,57); 
....................    //} 
....................    if(Diferencia>200){ 
02CE4:  MOVLB  6
02CE6:  CLRF   xB1
02CE8:  CLRF   xB0
02CEA:  MOVLW  48
02CEC:  MOVWF  xAF
02CEE:  MOVLW  86
02CF0:  MOVWF  xAE
02CF2:  MOVFF  55E,6B5
02CF6:  MOVFF  55D,6B4
02CFA:  MOVFF  55C,6B3
02CFE:  MOVFF  55B,6B2
02D02:  MOVLB  0
02D04:  CALL   2424
02D08:  BNC   2D66
....................       Diferencia=0;write_eeprom(60,0);write_eeprom(61,0); 
02D0A:  MOVLB  5
02D0C:  CLRF   x5E
02D0E:  CLRF   x5D
02D10:  CLRF   x5C
02D12:  CLRF   x5B
02D14:  CLRF   FAA
02D16:  MOVLW  3C
02D18:  MOVWF  FA9
02D1A:  CLRF   FA8
02D1C:  BCF    FA6.6
02D1E:  BCF    FA6.7
02D20:  BSF    FA6.2
02D22:  MOVF   FF2,W
02D24:  MOVWF  00
02D26:  BCF    FF2.7
02D28:  MOVLB  F
02D2A:  MOVLW  55
02D2C:  MOVWF  FA7
02D2E:  MOVLW  AA
02D30:  MOVWF  FA7
02D32:  BSF    FA6.1
02D34:  BTFSC  FA6.1
02D36:  BRA    2D34
02D38:  BCF    FA6.2
02D3A:  MOVF   00,W
02D3C:  IORWF  FF2,F
02D3E:  CLRF   FAA
02D40:  MOVLW  3D
02D42:  MOVWF  FA9
02D44:  CLRF   FA8
02D46:  BCF    FA6.6
02D48:  BCF    FA6.7
02D4A:  BSF    FA6.2
02D4C:  MOVF   FF2,W
02D4E:  MOVWF  00
02D50:  BCF    FF2.7
02D52:  MOVLW  55
02D54:  MOVWF  FA7
02D56:  MOVLW  AA
02D58:  MOVWF  FA7
02D5A:  BSF    FA6.1
02D5C:  BTFSC  FA6.1
02D5E:  BRA    2D5C
02D60:  BCF    FA6.2
02D62:  MOVF   00,W
02D64:  IORWF  FF2,F
....................    } 
....................    if(G>900){ 
02D66:  MOVLB  6
02D68:  CLRF   xB1
02D6A:  CLRF   xB0
02D6C:  MOVLW  61
02D6E:  MOVWF  xAF
02D70:  MOVLW  88
02D72:  MOVWF  xAE
02D74:  MOVFF  61A,6B5
02D78:  MOVFF  619,6B4
02D7C:  MOVFF  618,6B3
02D80:  MOVFF  617,6B2
02D84:  MOVLB  0
02D86:  CALL   2424
02D8A:  BNC   2DEE
....................       G=240;write_eeprom(62,240);write_eeprom(63,0); 
02D8C:  MOVLB  6
02D8E:  CLRF   x1A
02D90:  CLRF   x19
02D92:  MOVLW  70
02D94:  MOVWF  x18
02D96:  MOVLW  86
02D98:  MOVWF  x17
02D9A:  CLRF   FAA
02D9C:  MOVLW  3E
02D9E:  MOVWF  FA9
02DA0:  MOVLW  F0
02DA2:  MOVWF  FA8
02DA4:  BCF    FA6.6
02DA6:  BCF    FA6.7
02DA8:  BSF    FA6.2
02DAA:  MOVF   FF2,W
02DAC:  MOVWF  00
02DAE:  BCF    FF2.7
02DB0:  MOVLB  F
02DB2:  MOVLW  55
02DB4:  MOVWF  FA7
02DB6:  MOVLW  AA
02DB8:  MOVWF  FA7
02DBA:  BSF    FA6.1
02DBC:  BTFSC  FA6.1
02DBE:  BRA    2DBC
02DC0:  BCF    FA6.2
02DC2:  MOVF   00,W
02DC4:  IORWF  FF2,F
02DC6:  CLRF   FAA
02DC8:  MOVLW  3F
02DCA:  MOVWF  FA9
02DCC:  CLRF   FA8
02DCE:  BCF    FA6.6
02DD0:  BCF    FA6.7
02DD2:  BSF    FA6.2
02DD4:  MOVF   FF2,W
02DD6:  MOVWF  00
02DD8:  BCF    FF2.7
02DDA:  MOVLW  55
02DDC:  MOVWF  FA7
02DDE:  MOVLW  AA
02DE0:  MOVWF  FA7
02DE2:  BSF    FA6.1
02DE4:  BTFSC  FA6.1
02DE6:  BRA    2DE4
02DE8:  BCF    FA6.2
02DEA:  MOVF   00,W
02DEC:  IORWF  FF2,F
....................    } 
....................    if(negativo>20){ 
02DEE:  MOVLB  5
02DF0:  MOVF   x07,W
02DF2:  SUBLW  14
02DF4:  BC    2E28
....................       negativo=10;write_eeprom(50,10); 
02DF6:  MOVLW  0A
02DF8:  MOVWF  x07
02DFA:  CLRF   FAA
02DFC:  MOVLW  32
02DFE:  MOVWF  FA9
02E00:  MOVLW  0A
02E02:  MOVWF  FA8
02E04:  BCF    FA6.6
02E06:  BCF    FA6.7
02E08:  BSF    FA6.2
02E0A:  MOVF   FF2,W
02E0C:  MOVWF  00
02E0E:  BCF    FF2.7
02E10:  MOVLB  F
02E12:  MOVLW  55
02E14:  MOVWF  FA7
02E16:  MOVLW  AA
02E18:  MOVWF  FA7
02E1A:  BSF    FA6.1
02E1C:  BTFSC  FA6.1
02E1E:  BRA    2E1C
02E20:  BCF    FA6.2
02E22:  MOVF   00,W
02E24:  IORWF  FF2,F
02E26:  MOVLB  5
....................    } 
.................... } 
02E28:  MOVLB  0
02E2A:  GOTO   5FCA (RETURN)
....................  
.................... void VelocidadMotor(int8 Vel){ 
....................    if(Vel==6){ 
*
0136E:  MOVLB  6
01370:  MOVF   x7D,W
01372:  SUBLW  06
01374:  BNZ   1386
....................       Porcentaje=0; 
01376:  MOVLB  4
01378:  CLRF   x39
....................       retardo=1000; 
0137A:  MOVLW  03
0137C:  MOVWF  x34
0137E:  MOVLW  E8
01380:  MOVWF  x33
....................    }else if(Vel==5){ 
01382:  BRA    1406
01384:  MOVLB  6
01386:  MOVF   x7D,W
01388:  SUBLW  05
0138A:  BNZ   139E
....................       Porcentaje=15; 
0138C:  MOVLW  0F
0138E:  MOVLB  4
01390:  MOVWF  x39
....................       retardo=2000; 
01392:  MOVLW  07
01394:  MOVWF  x34
01396:  MOVLW  D0
01398:  MOVWF  x33
....................    }else if(Vel==4){ 
0139A:  BRA    1406
0139C:  MOVLB  6
0139E:  MOVF   x7D,W
013A0:  SUBLW  04
013A2:  BNZ   13B6
....................       Porcentaje=25; 
013A4:  MOVLW  19
013A6:  MOVLB  4
013A8:  MOVWF  x39
....................       retardo=3000; 
013AA:  MOVLW  0B
013AC:  MOVWF  x34
013AE:  MOVLW  B8
013B0:  MOVWF  x33
....................    }else if(Vel==3){ 
013B2:  BRA    1406
013B4:  MOVLB  6
013B6:  MOVF   x7D,W
013B8:  SUBLW  03
013BA:  BNZ   13CE
....................       Porcentaje=35; 
013BC:  MOVLW  23
013BE:  MOVLB  4
013C0:  MOVWF  x39
....................       retardo=3600; 
013C2:  MOVLW  0E
013C4:  MOVWF  x34
013C6:  MOVLW  10
013C8:  MOVWF  x33
....................    }else if(Vel==2){ 
013CA:  BRA    1406
013CC:  MOVLB  6
013CE:  MOVF   x7D,W
013D0:  SUBLW  02
013D2:  BNZ   13E6
....................       Porcentaje=45; 
013D4:  MOVLW  2D
013D6:  MOVLB  4
013D8:  MOVWF  x39
....................       retardo=4300; 
013DA:  MOVLW  10
013DC:  MOVWF  x34
013DE:  MOVLW  CC
013E0:  MOVWF  x33
....................    }else if(Vel==1){ 
013E2:  BRA    1406
013E4:  MOVLB  6
013E6:  DECFSZ x7D,W
013E8:  BRA    13FC
....................       Porcentaje=50; 
013EA:  MOVLW  32
013EC:  MOVLB  4
013EE:  MOVWF  x39
....................       retardo=5000; 
013F0:  MOVLW  13
013F2:  MOVWF  x34
013F4:  MOVLW  88
013F6:  MOVWF  x33
....................    }else if(Vel==0){ 
013F8:  BRA    1406
013FA:  MOVLB  6
013FC:  MOVF   x7D,F
013FE:  BNZ   1408
....................       Porcentaje=100; 
01400:  MOVLW  64
01402:  MOVLB  4
01404:  MOVWF  x39
01406:  MOVLB  6
....................    } 
.................... } 
01408:  MOVLB  0
0140A:  RETLW  00
....................  
.................... short PidePassword(int8 MenuAnt, int8 MenuActual, int8 MenuPost, int8 clave0,int8 clave1, int8 clave2,int8 clave3){ 
....................       if(n==0) 
*
04B70:  MOVLB  4
04B72:  BTFSC  x45.2
04B74:  BRA    4C0C
....................       { 
....................          displayContrasena(Contrasena[0],20,30,1);displayContrasena(Contrasena[1],40,30,0); 
04B76:  MOVFF  547,687
04B7A:  MOVLW  14
04B7C:  MOVLB  6
04B7E:  MOVWF  x88
04B80:  MOVLW  1E
04B82:  MOVWF  x89
04B84:  MOVLW  01
04B86:  MOVWF  x8A
04B88:  MOVLB  0
04B8A:  RCALL  49E4
04B8C:  MOVFF  548,687
04B90:  MOVLW  28
04B92:  MOVLB  6
04B94:  MOVWF  x88
04B96:  MOVLW  1E
04B98:  MOVWF  x89
04B9A:  CLRF   x8A
04B9C:  MOVLB  0
04B9E:  RCALL  49E4
....................          displayContrasena(Contrasena[2],60,30,0);displayContrasena(Contrasena[0],80,30,0); 
04BA0:  MOVFF  549,687
04BA4:  MOVLW  3C
04BA6:  MOVLB  6
04BA8:  MOVWF  x88
04BAA:  MOVLW  1E
04BAC:  MOVWF  x89
04BAE:  CLRF   x8A
04BB0:  MOVLB  0
04BB2:  RCALL  49E4
04BB4:  MOVFF  547,687
04BB8:  MOVLW  50
04BBA:  MOVLB  6
04BBC:  MOVWF  x88
04BBE:  MOVLW  1E
04BC0:  MOVWF  x89
04BC2:  CLRF   x8A
04BC4:  MOVLB  0
04BC6:  RCALL  49E4
....................          strcpy(Menus.Letra,"Clave"); 
04BC8:  MOVLW  04
04BCA:  MOVWF  FEA
04BCC:  MOVLW  17
04BCE:  MOVWF  FE9
04BD0:  MOVFF  FF2,685
04BD4:  BCF    FF2.7
04BD6:  MOVLW  00
04BD8:  CALL   0F0A
04BDC:  TBLRD*-
04BDE:  TBLRD*+
04BE0:  MOVF   FF5,W
04BE2:  MOVWF  FEE
04BE4:  IORLW  00
04BE6:  BNZ   4BDE
04BE8:  MOVLB  6
04BEA:  BTFSC  x85.7
04BEC:  BSF    FF2.7
....................          displayMenu(Menus.Letra,20,0,1,3); 
04BEE:  MOVLW  04
04BF0:  MOVWF  x86
04BF2:  MOVLW  17
04BF4:  MOVWF  x85
04BF6:  MOVLW  14
04BF8:  MOVWF  x87
04BFA:  CLRF   x88
04BFC:  MOVLW  01
04BFE:  MOVWF  x89
04C00:  MOVLW  03
04C02:  MOVWF  x8A
04C04:  MOVLB  0
04C06:  RCALL  4AA0
....................          n=1; 
04C08:  MOVLB  4
04C0A:  BSF    x45.2
....................       } 
....................        
....................       if(UP){ 
04C0C:  BSF    F92.5
04C0E:  BTFSC  F80.5
04C10:  BRA    4CF2
....................          flag_latencia=0;t_latencia=0; 
04C12:  BCF    x44.6
04C14:  MOVLB  5
04C16:  CLRF   x20
04C18:  CLRF   x1F
....................          if(Flanco == 0){ 
04C1A:  MOVLB  4
04C1C:  BTFSC  x36.3
04C1E:  BRA    4CF0
....................             Flanco = 1;delay_ms(5); 
04C20:  BSF    x36.3
04C22:  MOVLW  05
04C24:  MOVLB  6
04C26:  MOVWF  x86
04C28:  MOVLB  0
04C2A:  CALL   1346
....................             for(i=1;i<=4;i++){ 
04C2E:  MOVLW  01
04C30:  MOVLB  4
04C32:  MOVWF  x35
04C34:  MOVF   x35,W
04C36:  SUBLW  04
04C38:  BNC   4CF0
....................                if(unidad==i){ 
04C3A:  MOVF   x35,W
04C3C:  MOVLB  5
04C3E:  SUBWF  x04,W
04C40:  BNZ   4CB8
....................                   Contrasena[i-1]++; 
04C42:  MOVLW  01
04C44:  MOVLB  4
04C46:  SUBWF  x35,W
04C48:  CLRF   03
04C4A:  ADDLW  47
04C4C:  MOVWF  FE9
04C4E:  MOVLW  05
04C50:  ADDWFC 03,W
04C52:  MOVWF  FEA
04C54:  INCF   FEF,F
....................                   if(Contrasena[i-1]>9){ 
04C56:  MOVLW  01
04C58:  SUBWF  x35,W
04C5A:  CLRF   03
04C5C:  ADDLW  47
04C5E:  MOVWF  FE9
04C60:  MOVLW  05
04C62:  ADDWFC 03,W
04C64:  MOVWF  FEA
04C66:  BTFSC  FEF.7
04C68:  BRA    4C82
04C6A:  MOVF   FEF,W
04C6C:  SUBLW  09
04C6E:  BC    4C82
....................                      Contrasena[i-1]=0; 
04C70:  MOVLW  01
04C72:  SUBWF  x35,W
04C74:  CLRF   03
04C76:  ADDLW  47
04C78:  MOVWF  FE9
04C7A:  MOVLW  05
04C7C:  ADDWFC 03,W
04C7E:  MOVWF  FEA
04C80:  CLRF   FEF
....................                   } 
....................                   displayContrasena(Contrasena[i-1],i*20,30,1); 
04C82:  MOVLW  01
04C84:  SUBWF  x35,W
04C86:  CLRF   03
04C88:  ADDLW  47
04C8A:  MOVWF  FE9
04C8C:  MOVLW  05
04C8E:  ADDWFC 03,W
04C90:  MOVWF  FEA
04C92:  MOVFF  FEF,685
04C96:  MOVF   x35,W
04C98:  MULLW  14
04C9A:  MOVFF  FF3,686
04C9E:  MOVLB  6
04CA0:  MOVFF  685,687
04CA4:  MOVFF  686,688
04CA8:  MOVLW  1E
04CAA:  MOVWF  x89
04CAC:  MOVLW  01
04CAE:  MOVWF  x8A
04CB0:  MOVLB  0
04CB2:  RCALL  49E4
....................                }else{ 
04CB4:  BRA    4CEA
04CB6:  MOVLB  5
....................                   displayContrasena(Contrasena[i-1],i*20,30,0); 
04CB8:  MOVLW  01
04CBA:  MOVLB  4
04CBC:  SUBWF  x35,W
04CBE:  CLRF   03
04CC0:  ADDLW  47
04CC2:  MOVWF  FE9
04CC4:  MOVLW  05
04CC6:  ADDWFC 03,W
04CC8:  MOVWF  FEA
04CCA:  MOVFF  FEF,685
04CCE:  MOVF   x35,W
04CD0:  MULLW  14
04CD2:  MOVFF  FF3,686
04CD6:  MOVLB  6
04CD8:  MOVFF  685,687
04CDC:  MOVFF  686,688
04CE0:  MOVLW  1E
04CE2:  MOVWF  x89
04CE4:  CLRF   x8A
04CE6:  MOVLB  0
04CE8:  RCALL  49E4
....................                } 
....................             } 
04CEA:  MOVLB  4
04CEC:  INCF   x35,F
04CEE:  BRA    4C34
....................          } 
....................       }else{ 
04CF0:  BRA    4CF4
....................          Flanco = 0; 
04CF2:  BCF    x36.3
....................       } 
....................              
....................       if(DOWN){ 
04CF4:  BSF    F96.0
04CF6:  BTFSC  F84.0
04CF8:  BRA    4DD8
....................          flag_latencia=0;t_latencia=0; 
04CFA:  BCF    x44.6
04CFC:  MOVLB  5
04CFE:  CLRF   x20
04D00:  CLRF   x1F
....................          if(Flanco2 == 0){ 
04D02:  MOVLB  4
04D04:  BTFSC  x36.5
04D06:  BRA    4DD6
....................             Flanco2 = 1;delay_ms(5); 
04D08:  BSF    x36.5
04D0A:  MOVLW  05
04D0C:  MOVLB  6
04D0E:  MOVWF  x86
04D10:  MOVLB  0
04D12:  CALL   1346
....................             for(i=1;i<=4;i++){ 
04D16:  MOVLW  01
04D18:  MOVLB  4
04D1A:  MOVWF  x35
04D1C:  MOVF   x35,W
04D1E:  SUBLW  04
04D20:  BNC   4DD6
....................                if(unidad==i){ 
04D22:  MOVF   x35,W
04D24:  MOVLB  5
04D26:  SUBWF  x04,W
04D28:  BNZ   4D9E
....................                   Contrasena[i-1]--; 
04D2A:  MOVLW  01
04D2C:  MOVLB  4
04D2E:  SUBWF  x35,W
04D30:  CLRF   03
04D32:  ADDLW  47
04D34:  MOVWF  FE9
04D36:  MOVLW  05
04D38:  ADDWFC 03,W
04D3A:  MOVWF  FEA
04D3C:  DECF   FEF,F
....................                   if(Contrasena[i-1]<0){ 
04D3E:  MOVLW  01
04D40:  SUBWF  x35,W
04D42:  CLRF   03
04D44:  ADDLW  47
04D46:  MOVWF  FE9
04D48:  MOVLW  05
04D4A:  ADDWFC 03,W
04D4C:  MOVWF  FEA
04D4E:  BTFSC  FEF.7
04D50:  BRA    4D54
04D52:  BRA    4D68
....................                      Contrasena[i-1]=9; 
04D54:  MOVLW  01
04D56:  SUBWF  x35,W
04D58:  CLRF   03
04D5A:  ADDLW  47
04D5C:  MOVWF  FE9
04D5E:  MOVLW  05
04D60:  ADDWFC 03,W
04D62:  MOVWF  FEA
04D64:  MOVLW  09
04D66:  MOVWF  FEF
....................                   } 
....................                   displayContrasena(Contrasena[i-1],i*20,30,1); 
04D68:  MOVLW  01
04D6A:  SUBWF  x35,W
04D6C:  CLRF   03
04D6E:  ADDLW  47
04D70:  MOVWF  FE9
04D72:  MOVLW  05
04D74:  ADDWFC 03,W
04D76:  MOVWF  FEA
04D78:  MOVFF  FEF,685
04D7C:  MOVF   x35,W
04D7E:  MULLW  14
04D80:  MOVFF  FF3,686
04D84:  MOVLB  6
04D86:  MOVFF  685,687
04D8A:  MOVFF  686,688
04D8E:  MOVLW  1E
04D90:  MOVWF  x89
04D92:  MOVLW  01
04D94:  MOVWF  x8A
04D96:  MOVLB  0
04D98:  RCALL  49E4
....................                }else{ 
04D9A:  BRA    4DD0
04D9C:  MOVLB  5
....................                   displayContrasena(Contrasena[i-1],i*20,30,0); 
04D9E:  MOVLW  01
04DA0:  MOVLB  4
04DA2:  SUBWF  x35,W
04DA4:  CLRF   03
04DA6:  ADDLW  47
04DA8:  MOVWF  FE9
04DAA:  MOVLW  05
04DAC:  ADDWFC 03,W
04DAE:  MOVWF  FEA
04DB0:  MOVFF  FEF,685
04DB4:  MOVF   x35,W
04DB6:  MULLW  14
04DB8:  MOVFF  FF3,686
04DBC:  MOVLB  6
04DBE:  MOVFF  685,687
04DC2:  MOVFF  686,688
04DC6:  MOVLW  1E
04DC8:  MOVWF  x89
04DCA:  CLRF   x8A
04DCC:  MOVLB  0
04DCE:  RCALL  49E4
....................                } 
....................             }       
04DD0:  MOVLB  4
04DD2:  INCF   x35,F
04DD4:  BRA    4D1C
....................          }      
....................       }else{ 
04DD6:  BRA    4DDA
....................          Flanco2 = 0; 
04DD8:  BCF    x36.5
....................       } 
....................              
....................       if(RIGHT){ 
04DDA:  BSF    F96.1
04DDC:  BTFSC  F84.1
04DDE:  BRA    4E86
....................          flag_latencia=0;t_latencia=0; 
04DE0:  BCF    x44.6
04DE2:  MOVLB  5
04DE4:  CLRF   x20
04DE6:  CLRF   x1F
....................          if(Flanco1 == 0){ 
04DE8:  MOVLB  4
04DEA:  BTFSC  x36.4
04DEC:  BRA    4E84
....................             Flanco1 = 1;delay_ms(5);unidad++; 
04DEE:  BSF    x36.4
04DF0:  MOVLW  05
04DF2:  MOVLB  6
04DF4:  MOVWF  x86
04DF6:  MOVLB  0
04DF8:  CALL   1346
04DFC:  MOVLB  5
04DFE:  INCF   x04,F
....................             for(i=1;i<=4;i++){ 
04E00:  MOVLW  01
04E02:  MOVLB  4
04E04:  MOVWF  x35
04E06:  MOVF   x35,W
04E08:  SUBLW  04
04E0A:  BNC   4E84
....................                if(unidad==i){ 
04E0C:  MOVF   x35,W
04E0E:  MOVLB  5
04E10:  SUBWF  x04,W
04E12:  BNZ   4E4C
....................                   displayContrasena(Contrasena[i-1],i*20,30,1); 
04E14:  MOVLW  01
04E16:  MOVLB  4
04E18:  SUBWF  x35,W
04E1A:  CLRF   03
04E1C:  ADDLW  47
04E1E:  MOVWF  FE9
04E20:  MOVLW  05
04E22:  ADDWFC 03,W
04E24:  MOVWF  FEA
04E26:  MOVFF  FEF,685
04E2A:  MOVF   x35,W
04E2C:  MULLW  14
04E2E:  MOVFF  FF3,686
04E32:  MOVLB  6
04E34:  MOVFF  685,687
04E38:  MOVFF  686,688
04E3C:  MOVLW  1E
04E3E:  MOVWF  x89
04E40:  MOVLW  01
04E42:  MOVWF  x8A
04E44:  MOVLB  0
04E46:  RCALL  49E4
....................                }else{ 
04E48:  BRA    4E7E
04E4A:  MOVLB  5
....................                   displayContrasena(Contrasena[i-1],i*20,30,0); 
04E4C:  MOVLW  01
04E4E:  MOVLB  4
04E50:  SUBWF  x35,W
04E52:  CLRF   03
04E54:  ADDLW  47
04E56:  MOVWF  FE9
04E58:  MOVLW  05
04E5A:  ADDWFC 03,W
04E5C:  MOVWF  FEA
04E5E:  MOVFF  FEF,685
04E62:  MOVF   x35,W
04E64:  MULLW  14
04E66:  MOVFF  FF3,686
04E6A:  MOVLB  6
04E6C:  MOVFF  685,687
04E70:  MOVFF  686,688
04E74:  MOVLW  1E
04E76:  MOVWF  x89
04E78:  CLRF   x8A
04E7A:  MOVLB  0
04E7C:  RCALL  49E4
....................                } 
....................             } 
04E7E:  MOVLB  4
04E80:  INCF   x35,F
04E82:  BRA    4E06
....................          } 
....................       }else{ 
04E84:  BRA    4E88
....................          Flanco1 = 0; 
04E86:  BCF    x36.4
....................       } 
....................        
....................       if(LEFT){ 
04E88:  BSF    F96.2
04E8A:  BTFSC  F84.2
04E8C:  BRA    4ED6
....................          delay_ms(100); 
04E8E:  MOVLW  64
04E90:  MOVLB  6
04E92:  MOVWF  x86
04E94:  MOVLB  0
04E96:  CALL   1346
....................          if(LEFT){ 
04E9A:  BSF    F96.2
04E9C:  BTFSC  F84.2
04E9E:  BRA    4ED6
....................             Menu=MenuAnt;glcd_fillScreen(OFF);n=0;Opcion=1;unidad=1; 
04EA0:  MOVFF  67E,503
04EA4:  MOVLB  6
04EA6:  CLRF   x85
04EA8:  MOVLB  0
04EAA:  CALL   1442
04EAE:  MOVLB  4
04EB0:  BCF    x45.2
04EB2:  MOVLW  01
04EB4:  MOVLB  5
04EB6:  MOVWF  x05
04EB8:  MOVWF  x04
....................             Contrasena[0]=0;Contrasena[1]=0;Contrasena[2]=0;Contrasena[3]=0; 
04EBA:  CLRF   x47
04EBC:  CLRF   x48
04EBE:  CLRF   x49
04EC0:  CLRF   x4A
....................             glcd_fillScreen(OFF);glcd_update(); 
04EC2:  MOVLB  6
04EC4:  CLRF   x85
04EC6:  MOVLB  0
04EC8:  CALL   1442
04ECC:  CALL   149C
....................             return 1; 
04ED0:  MOVLW  01
04ED2:  MOVWF  01
04ED4:  BRA    5284
....................          } 
....................       } 
....................      
....................       if(unidad>4){ 
04ED6:  MOVLB  5
04ED8:  MOVF   x04,W
04EDA:  SUBLW  04
04EDC:  BTFSC  FD8.0
04EDE:  BRA    5286
....................          glcd_fillScreen(OFF);unidad=1;flag_latencia=0;t_latencia=0; 
04EE0:  MOVLB  6
04EE2:  CLRF   x85
04EE4:  MOVLB  0
04EE6:  CALL   1442
04EEA:  MOVLW  01
04EEC:  MOVLB  5
04EEE:  MOVWF  x04
04EF0:  MOVLB  4
04EF2:  BCF    x44.6
04EF4:  MOVLB  5
04EF6:  CLRF   x20
04EF8:  CLRF   x1F
....................           
....................          if(Contrasena[0]==3&&Contrasena[1]==8&&Contrasena[2]==9&&Contrasena[3]==2 && MenuActual==0){ // Si Ingresa clave para reset general del sistema. 
04EFA:  MOVF   x47,W
04EFC:  SUBLW  03
04EFE:  BTFSS  FD8.2
04F00:  BRA    4FFA
04F02:  MOVF   x48,W
04F04:  SUBLW  08
04F06:  BTFSS  FD8.2
04F08:  BRA    4FFA
04F0A:  MOVF   x49,W
04F0C:  SUBLW  09
04F0E:  BNZ   4FFA
04F10:  MOVF   x4A,W
04F12:  SUBLW  02
04F14:  BNZ   4FFA
04F16:  MOVLB  6
04F18:  MOVF   x7F,F
04F1A:  BTFSC  FD8.2
04F1C:  BRA    4F22
04F1E:  MOVLB  5
04F20:  BRA    4FFA
....................             write_eeprom(0,0);delay_ms(20);write_eeprom(1,0);delay_ms(20);// Reestablece a contrasea de Fabrica y reinicia Programa. 
04F22:  CLRF   FAA
04F24:  CLRF   FA9
04F26:  CLRF   FA8
04F28:  BCF    FA6.6
04F2A:  BCF    FA6.7
04F2C:  BSF    FA6.2
04F2E:  MOVF   FF2,W
04F30:  MOVWF  00
04F32:  BCF    FF2.7
04F34:  MOVLB  F
04F36:  MOVLW  55
04F38:  MOVWF  FA7
04F3A:  MOVLW  AA
04F3C:  MOVWF  FA7
04F3E:  BSF    FA6.1
04F40:  BTFSC  FA6.1
04F42:  BRA    4F40
04F44:  BCF    FA6.2
04F46:  MOVF   00,W
04F48:  IORWF  FF2,F
04F4A:  MOVLW  14
04F4C:  MOVLB  6
04F4E:  MOVWF  x86
04F50:  MOVLB  0
04F52:  CALL   1346
04F56:  CLRF   FAA
04F58:  MOVLW  01
04F5A:  MOVWF  FA9
04F5C:  CLRF   FA8
04F5E:  BCF    FA6.6
04F60:  BCF    FA6.7
04F62:  BSF    FA6.2
04F64:  MOVF   FF2,W
04F66:  MOVWF  00
04F68:  BCF    FF2.7
04F6A:  MOVLB  F
04F6C:  MOVLW  55
04F6E:  MOVWF  FA7
04F70:  MOVLW  AA
04F72:  MOVWF  FA7
04F74:  BSF    FA6.1
04F76:  BTFSC  FA6.1
04F78:  BRA    4F76
04F7A:  BCF    FA6.2
04F7C:  MOVF   00,W
04F7E:  IORWF  FF2,F
04F80:  MOVLW  14
04F82:  MOVLB  6
04F84:  MOVWF  x86
04F86:  MOVLB  0
04F88:  CALL   1346
....................             write_eeprom(2,0);delay_ms(20);write_eeprom(3,0);delay_ms(20); 
04F8C:  CLRF   FAA
04F8E:  MOVLW  02
04F90:  MOVWF  FA9
04F92:  CLRF   FA8
04F94:  BCF    FA6.6
04F96:  BCF    FA6.7
04F98:  BSF    FA6.2
04F9A:  MOVF   FF2,W
04F9C:  MOVWF  00
04F9E:  BCF    FF2.7
04FA0:  MOVLB  F
04FA2:  MOVLW  55
04FA4:  MOVWF  FA7
04FA6:  MOVLW  AA
04FA8:  MOVWF  FA7
04FAA:  BSF    FA6.1
04FAC:  BTFSC  FA6.1
04FAE:  BRA    4FAC
04FB0:  BCF    FA6.2
04FB2:  MOVF   00,W
04FB4:  IORWF  FF2,F
04FB6:  MOVLW  14
04FB8:  MOVLB  6
04FBA:  MOVWF  x86
04FBC:  MOVLB  0
04FBE:  CALL   1346
04FC2:  CLRF   FAA
04FC4:  MOVLW  03
04FC6:  MOVWF  FA9
04FC8:  CLRF   FA8
04FCA:  BCF    FA6.6
04FCC:  BCF    FA6.7
04FCE:  BSF    FA6.2
04FD0:  MOVF   FF2,W
04FD2:  MOVWF  00
04FD4:  BCF    FF2.7
04FD6:  MOVLB  F
04FD8:  MOVLW  55
04FDA:  MOVWF  FA7
04FDC:  MOVLW  AA
04FDE:  MOVWF  FA7
04FE0:  BSF    FA6.1
04FE2:  BTFSC  FA6.1
04FE4:  BRA    4FE2
04FE6:  BCF    FA6.2
04FE8:  MOVF   00,W
04FEA:  IORWF  FF2,F
04FEC:  MOVLW  14
04FEE:  MOVLB  6
04FF0:  MOVWF  x86
04FF2:  MOVLB  0
04FF4:  CALL   1346
....................             reset_cpu(); 
04FF8:  RESET
....................          } 
....................        
....................          if((Contrasena[0]==clave0)&&(Contrasena[1]==clave1)&&(Contrasena[2]==clave2)&&(Contrasena[3]==clave3)){ 
04FFA:  MOVLB  6
04FFC:  MOVF   x81,W
04FFE:  MOVLB  5
05000:  SUBWF  x47,W
05002:  BTFSS  FD8.2
05004:  BRA    50F8
05006:  MOVLB  6
05008:  MOVF   x82,W
0500A:  MOVLB  5
0500C:  SUBWF  x48,W
0500E:  BTFSS  FD8.2
05010:  BRA    50F8
05012:  MOVLB  6
05014:  MOVF   x83,W
05016:  MOVLB  5
05018:  SUBWF  x49,W
0501A:  BNZ   50F8
0501C:  MOVLB  6
0501E:  MOVF   x84,W
05020:  MOVLB  5
05022:  SUBWF  x4A,W
05024:  BNZ   50F8
....................             glcd_fillScreen(OFF); 
05026:  MOVLB  6
05028:  CLRF   x85
0502A:  MOVLB  0
0502C:  CALL   1442
....................             strcpy(Menus.Letra,"Clave"); 
05030:  MOVLW  04
05032:  MOVWF  FEA
05034:  MOVLW  17
05036:  MOVWF  FE9
05038:  MOVFF  FF2,685
0503C:  BCF    FF2.7
0503E:  MOVLW  00
05040:  CALL   0F0A
05044:  TBLRD*-
05046:  TBLRD*+
05048:  MOVF   FF5,W
0504A:  MOVWF  FEE
0504C:  IORLW  00
0504E:  BNZ   5046
05050:  MOVLB  6
05052:  BTFSC  x85.7
05054:  BSF    FF2.7
....................             displayMenu(Menus.Letra,30,0,0,2); 
05056:  MOVLW  04
05058:  MOVWF  x86
0505A:  MOVLW  17
0505C:  MOVWF  x85
0505E:  MOVLW  1E
05060:  MOVWF  x87
05062:  CLRF   x88
05064:  CLRF   x89
05066:  MOVLW  02
05068:  MOVWF  x8A
0506A:  MOVLB  0
0506C:  RCALL  4AA0
....................             strcpy(Menus.Letra,"Correcta"); 
0506E:  MOVLW  04
05070:  MOVWF  FEA
05072:  MOVLW  17
05074:  MOVWF  FE9
05076:  MOVFF  FF2,685
0507A:  BCF    FF2.7
0507C:  MOVLW  00
0507E:  CALL   0F2E
05082:  TBLRD*-
05084:  TBLRD*+
05086:  MOVF   FF5,W
05088:  MOVWF  FEE
0508A:  IORLW  00
0508C:  BNZ   5084
0508E:  MOVLB  6
05090:  BTFSC  x85.7
05092:  BSF    FF2.7
....................             displayMenu(Menus.Letra,15,30,0,2); 
05094:  MOVLW  04
05096:  MOVWF  x86
05098:  MOVLW  17
0509A:  MOVWF  x85
0509C:  MOVLW  0F
0509E:  MOVWF  x87
050A0:  MOVLW  1E
050A2:  MOVWF  x88
050A4:  CLRF   x89
050A6:  MOVLW  02
050A8:  MOVWF  x8A
050AA:  MOVLB  0
050AC:  RCALL  4AA0
....................             Menu=MenuPost;glcd_update();delay_ms(1000);glcd_fillScreen(OFF); 
050AE:  MOVFF  680,503
050B2:  CALL   149C
050B6:  MOVLW  04
050B8:  MOVLB  6
050BA:  MOVWF  x85
050BC:  MOVLW  FA
050BE:  MOVWF  x86
050C0:  MOVLB  0
050C2:  CALL   1346
050C6:  MOVLB  6
050C8:  DECFSZ x85,F
050CA:  BRA    50BC
050CC:  CLRF   x85
050CE:  MOVLB  0
050D0:  CALL   1442
....................             Contrasena[0]=0;Contrasena[1]=0;Contrasena[2]=0;Contrasena[3]=0; 
050D4:  MOVLB  5
050D6:  CLRF   x47
050D8:  CLRF   x48
050DA:  CLRF   x49
050DC:  CLRF   x4A
....................             if(MenuActual==0)tiempo_purga=1;n=0; 
050DE:  MOVLB  6
050E0:  MOVF   x7F,F
050E2:  BNZ   50E8
050E4:  MOVLB  4
050E6:  BSF    x44.1
050E8:  MOVLB  4
050EA:  BCF    x45.2
....................             return 1; 
050EC:  MOVLW  01
050EE:  MOVWF  01
050F0:  MOVLB  0
050F2:  BRA    5284
....................          }else{ 
050F4:  BRA    5284
050F6:  MOVLB  5
....................             glcd_fillScreen(OFF); 
050F8:  MOVLB  6
050FA:  CLRF   x85
050FC:  MOVLB  0
050FE:  CALL   1442
....................             strcpy(Menus.Letra,"Clave"); 
05102:  MOVLW  04
05104:  MOVWF  FEA
05106:  MOVLW  17
05108:  MOVWF  FE9
0510A:  MOVFF  FF2,685
0510E:  BCF    FF2.7
05110:  MOVLW  00
05112:  CALL   0F0A
05116:  TBLRD*-
05118:  TBLRD*+
0511A:  MOVF   FF5,W
0511C:  MOVWF  FEE
0511E:  IORLW  00
05120:  BNZ   5118
05122:  MOVLB  6
05124:  BTFSC  x85.7
05126:  BSF    FF2.7
....................             displayMenu(Menus.Letra,30,0,0,2); 
05128:  MOVLW  04
0512A:  MOVWF  x86
0512C:  MOVLW  17
0512E:  MOVWF  x85
05130:  MOVLW  1E
05132:  MOVWF  x87
05134:  CLRF   x88
05136:  CLRF   x89
05138:  MOVLW  02
0513A:  MOVWF  x8A
0513C:  MOVLB  0
0513E:  RCALL  4AA0
....................             strcpy(Menus.Letra,"Incorrecta"); 
05140:  MOVLW  04
05142:  MOVWF  FEA
05144:  MOVLW  17
05146:  MOVWF  FE9
05148:  MOVFF  FF2,685
0514C:  BCF    FF2.7
0514E:  MOVLW  00
05150:  CALL   0F56
05154:  TBLRD*-
05156:  TBLRD*+
05158:  MOVF   FF5,W
0515A:  MOVWF  FEE
0515C:  IORLW  00
0515E:  BNZ   5156
05160:  MOVLB  6
05162:  BTFSC  x85.7
05164:  BSF    FF2.7
....................             displayMenu(Menus.Letra,0,30,0,2); 
05166:  MOVLW  04
05168:  MOVWF  x86
0516A:  MOVLW  17
0516C:  MOVWF  x85
0516E:  CLRF   x87
05170:  MOVLW  1E
05172:  MOVWF  x88
05174:  CLRF   x89
05176:  MOVLW  02
05178:  MOVWF  x8A
0517A:  MOVLB  0
0517C:  RCALL  4AA0
....................             unidad=1;glcd_update();delay_ms(1000);Contrasena[0]=0;Contrasena[1]=0;Contrasena[2]=0;Contrasena[3]=0;glcd_fillScreen(OFF); 
0517E:  MOVLW  01
05180:  MOVLB  5
05182:  MOVWF  x04
05184:  MOVLB  0
05186:  CALL   149C
0518A:  MOVLW  04
0518C:  MOVLB  6
0518E:  MOVWF  x85
05190:  MOVLW  FA
05192:  MOVWF  x86
05194:  MOVLB  0
05196:  CALL   1346
0519A:  MOVLB  6
0519C:  DECFSZ x85,F
0519E:  BRA    5190
051A0:  MOVLB  5
051A2:  CLRF   x47
051A4:  CLRF   x48
051A6:  CLRF   x49
051A8:  CLRF   x4A
051AA:  MOVLB  6
051AC:  CLRF   x85
051AE:  MOVLB  0
051B0:  CALL   1442
....................             glcd_rect(0, 0, 127, 25, YES, ON);strcpy(Menus.Letra,"Clave");glcd_text57(25, 1, Menus.Letra, 3, OFF);displayContrasena(Contrasena[0],20,30,1); 
051B4:  MOVLB  6
051B6:  CLRF   x96
051B8:  CLRF   x97
051BA:  MOVLW  7F
051BC:  MOVWF  x98
051BE:  MOVLW  19
051C0:  MOVWF  x99
051C2:  MOVLW  01
051C4:  MOVWF  x9A
051C6:  MOVWF  x9B
051C8:  MOVLB  0
051CA:  CALL   4920
051CE:  MOVLW  04
051D0:  MOVWF  FEA
051D2:  MOVLW  17
051D4:  MOVWF  FE9
051D6:  MOVFF  FF2,685
051DA:  BCF    FF2.7
051DC:  MOVLW  00
051DE:  CALL   0F0A
051E2:  TBLRD*-
051E4:  TBLRD*+
051E6:  MOVF   FF5,W
051E8:  MOVWF  FEE
051EA:  IORLW  00
051EC:  BNZ   51E4
051EE:  MOVLB  6
051F0:  BTFSC  x85.7
051F2:  BSF    FF2.7
051F4:  MOVLW  19
051F6:  MOVWF  x96
051F8:  MOVLW  01
051FA:  MOVWF  x97
051FC:  MOVLW  04
051FE:  MOVWF  x99
05200:  MOVLW  17
05202:  MOVWF  x98
05204:  MOVLW  03
05206:  MOVWF  x9A
05208:  CLRF   x9B
0520A:  MOVLB  0
0520C:  CALL   16B8
05210:  MOVFF  547,687
05214:  MOVLW  14
05216:  MOVLB  6
05218:  MOVWF  x88
0521A:  MOVLW  1E
0521C:  MOVWF  x89
0521E:  MOVLW  01
05220:  MOVWF  x8A
05222:  MOVLB  0
05224:  CALL   49E4
....................             displayContrasena(Contrasena[1],40,30,0);displayContrasena(Contrasena[2],60,30,0);displayContrasena(Contrasena[0],80,30,0); 
05228:  MOVFF  548,687
0522C:  MOVLW  28
0522E:  MOVLB  6
05230:  MOVWF  x88
05232:  MOVLW  1E
05234:  MOVWF  x89
05236:  CLRF   x8A
05238:  MOVLB  0
0523A:  CALL   49E4
0523E:  MOVFF  549,687
05242:  MOVLW  3C
05244:  MOVLB  6
05246:  MOVWF  x88
05248:  MOVLW  1E
0524A:  MOVWF  x89
0524C:  CLRF   x8A
0524E:  MOVLB  0
05250:  CALL   49E4
05254:  MOVFF  547,687
05258:  MOVLW  50
0525A:  MOVLB  6
0525C:  MOVWF  x88
0525E:  MOVLW  1E
05260:  MOVWF  x89
05262:  CLRF   x8A
05264:  MOVLB  0
05266:  CALL   49E4
....................             Menu=MenuAnt;glcd_fillScreen(OFF);n=0; 
0526A:  MOVFF  67E,503
0526E:  MOVLB  6
05270:  CLRF   x85
05272:  MOVLB  0
05274:  CALL   1442
05278:  MOVLB  4
0527A:  BCF    x45.2
....................             return 0; 
0527C:  MOVLW  00
0527E:  MOVWF  01
05280:  MOVLB  0
05282:  BRA    5284
05284:  MOVLB  5
....................          } 
....................       } 
.................... } 
05286:  MOVLB  0
05288:  RETLW  00
....................  
....................  
.................... /*#int_TIMER1 HIGH 
.................... void temp1s(void){ 
....................    set_timer1(15536); //10ms 
....................    //set_timer1(65036); //100us 
....................    tiempos++; 
....................    
....................    if(tiempos>=100){ 
....................    //if(tiempos>=10000){ 
....................       tiempos=0;imprimir=1;inicie++;Lectura=1;tiemporeset++; 
....................        
....................       if(Alarma==5) 
....................       { 
....................          if(flag_alarma2==0) 
....................          { 
....................             Alarma_on; 
....................             flag_alarma2=1; 
....................          } 
....................          else 
....................          { 
....................             Alarma_off; 
....................             flag_alarma2=0; 
....................          } 
....................       } 
....................     
....................       if(flag_blower==1) 
....................          minutos_trabajo++;  
....................    
....................       if(tiempo_purga==1){                   
....................          Tpurga[0]++; 
....................          if(Tpurga[0]>9){ 
....................             Tpurga[0]=0; 
....................             Tpurga[1]++; 
....................          } 
....................          if(Tpurga[1]>5){ 
....................             Tpurga[1]=0; 
....................             Tpurga[2]++; 
....................          } 
....................          if(Tpurga[2]>9){ 
....................             Tpurga[2]=0; 
....................             Tpurga[3]++; 
....................          } 
....................          if(Tpurga[3]>5){ 
....................             Tpurga[3]=0; 
....................          } 
....................       }  
....................    } 
.................... } 
.................... */ 
.................... #int_EXT            // Interrupcin de encoder para control. 
.................... void ext0() {       // 6 pulsos por vuelta. 
....................    pulsos++; 
*
01278:  MOVLB  4
0127A:  INCF   x2F,F
0127C:  BTFSC  FD8.2
0127E:  INCF   x30,F
....................    if(pulsos>=120){ 
01280:  MOVF   x30,F
01282:  BNZ   128A
01284:  MOVF   x2F,W
01286:  SUBLW  77
01288:  BC    12F8
....................       pulsos=0; 
0128A:  CLRF   x30
0128C:  CLRF   x2F
....................       tiempos=0;imprimir=1;inicie++;Lectura=1;tiemporeset++; 
0128E:  CLRF   x2E
01290:  CLRF   x2D
01292:  BSF    x43.2
01294:  MOVLB  5
01296:  INCF   x06,F
01298:  MOVLB  4
0129A:  BSF    x45.1
0129C:  MOVLB  5
0129E:  INCF   x0A,F
....................     
....................       if(flag_blower==1) 
012A0:  MOVLB  4
012A2:  BTFSS  x43.4
012A4:  BRA    12B0
....................          minutos_trabajo++;  
012A6:  MOVLB  5
012A8:  INCF   x23,F
012AA:  BTFSC  FD8.2
012AC:  INCF   x24,F
012AE:  MOVLB  4
....................    
....................       if(tiempo_purga==1 || Purga){                   
012B0:  BTFSC  x44.1
012B2:  BRA    12B8
012B4:  BTFSS  x36.2
012B6:  BRA    12F4
....................          Tpurga[0]++; 
012B8:  MOVLB  5
012BA:  INCF   x27,F
....................          if(Tpurga[0]>9){ 
012BC:  BTFSC  x27.7
012BE:  BRA    12CA
012C0:  MOVF   x27,W
012C2:  SUBLW  09
012C4:  BC    12CA
....................             Tpurga[0]=0; 
012C6:  CLRF   x27
....................             Tpurga[1]++; 
012C8:  INCF   x28,F
....................          } 
....................          if(Tpurga[1]>5){ 
012CA:  BTFSC  x28.7
012CC:  BRA    12D8
012CE:  MOVF   x28,W
012D0:  SUBLW  05
012D2:  BC    12D8
....................             Tpurga[1]=0; 
012D4:  CLRF   x28
....................             Tpurga[2]++; 
012D6:  INCF   x29,F
....................          } 
....................          if(Tpurga[2]>9){ 
012D8:  BTFSC  x29.7
012DA:  BRA    12E6
012DC:  MOVF   x29,W
012DE:  SUBLW  09
012E0:  BC    12E6
....................             Tpurga[2]=0; 
012E2:  CLRF   x29
....................             Tpurga[3]++; 
012E4:  INCF   x2A,F
....................          } 
....................          if(Tpurga[3]>5){ 
012E6:  BTFSC  x2A.7
012E8:  BRA    12F2
012EA:  MOVF   x2A,W
012EC:  SUBLW  05
012EE:  BC    12F2
....................             Tpurga[3]=0; 
012F0:  CLRF   x2A
012F2:  MOVLB  4
....................          } 
....................       }  
....................       output_toggle(PIN_C7); 
012F4:  BCF    F94.7
012F6:  BTG    F8B.7
....................    } 
....................    tiempocruce=0; 
012F8:  CLRF   x38
012FA:  CLRF   x37
....................    Cruce=ON; 
012FC:  BSF    x36.0
....................    if(VelMotor>0 && Porcentaje<100){ 
012FE:  MOVF   x3A,F
01300:  BZ    133A
01302:  MOVF   x39,W
01304:  SUBLW  63
01306:  BNC   133A
....................       delay_us(retardo);       
01308:  MOVFF  434,6C2
0130C:  MOVLB  6
0130E:  INCF   xC2,F
01310:  DECF   xC2,F
01312:  BTFSC  FD8.2
01314:  BRA    1322
01316:  MOVLW  FF
01318:  MOVWF  xC3
0131A:  MOVLB  0
0131C:  RCALL  1258
0131E:  MOVLB  6
01320:  BRA    1310
01322:  MOVFF  433,6C3
01326:  MOVLB  0
01328:  RCALL  1258
....................       Motor_on; 
0132A:  BSF    F8B.2
0132C:  BCF    F94.2
....................       delay_us(100);       
0132E:  MOVLW  A6
01330:  MOVWF  00
01332:  DECFSZ 00,F
01334:  BRA    1332
01336:  NOP   
01338:  MOVLB  4
....................    } 
....................    Motor_off; 
0133A:  BCF    F8B.2
0133C:  BCF    F94.2
.................... } 
....................  
0133E:  BCF    FF2.1
01340:  MOVLB  0
01342:  GOTO   0058
.................... void glcd_imagen(int8 x) 
.................... { 
....................    char i,j; 
....................    signed char k;  
....................       
....................    if(x==3){ 
*
05386:  MOVLB  6
05388:  MOVF   x7D,W
0538A:  SUBLW  03
0538C:  BNZ   5430
....................    for( i = 0 ; i < 64 ; i ++ ) 
0538E:  CLRF   x7E
05390:  MOVF   x7E,W
05392:  SUBLW  3F
05394:  BNC   5430
....................    {  for( j = 0 ; j < 16 ; j ++) 
05396:  CLRF   x7F
05398:  MOVF   x7F,W
0539A:  SUBLW  0F
0539C:  BNC   542C
....................       {  for(k=7;k>-1;k--) 
0539E:  MOVLW  07
053A0:  MOVWF  x80
053A2:  MOVF   x80,W
053A4:  XORLW  80
053A6:  SUBLW  7F
053A8:  BC    5428
....................          {       
....................             if( bit_test(Bombillo[i][j] ,7-k ))  
053AA:  CLRF   x82
053AC:  MOVFF  67E,681
053B0:  CLRF   x84
053B2:  MOVLW  10
053B4:  MOVWF  x83
053B6:  MOVLB  0
053B8:  RCALL  5364
053BA:  MOVFF  02,682
053BE:  MOVFF  01,681
053C2:  MOVLB  6
053C4:  MOVF   x7F,W
053C6:  ADDWF  01,W
053C8:  MOVWF  01
053CA:  MOVLW  00
053CC:  ADDWFC 02,W
053CE:  MOVWF  03
053D0:  MOVF   01,W
053D2:  MOVFF  FF2,681
053D6:  BCF    FF2.7
053D8:  MOVFF  03,FF7
053DC:  MOVLB  0
053DE:  CALL   02B6
053E2:  MOVLB  6
053E4:  BTFSC  x81.7
053E6:  BSF    FF2.7
053E8:  MOVWF  x81
053EA:  MOVLW  07
053EC:  BSF    FD8.0
053EE:  SUBFWB x80,W
053F0:  MOVWF  x82
053F2:  MOVFF  681,00
053F6:  MOVF   x82,W
053F8:  MOVWF  01
053FA:  BZ    5404
053FC:  BCF    FD8.0
053FE:  RRCF   00,F
05400:  DECFSZ 01,F
05402:  BRA    53FC
05404:  BTFSS  00.0
05406:  BRA    5424
....................                glcd_pixel( j*8+k,i, ON ); 
05408:  MOVF   x7F,W
0540A:  MULLW  08
0540C:  MOVF   FF3,W
0540E:  ADDWF  x80,W
05410:  MOVWF  x81
05412:  MOVWF  xB1
05414:  MOVFF  67E,6B2
05418:  MOVLW  01
0541A:  MOVWF  xB3
0541C:  MOVLB  0
0541E:  CALL   15FC
05422:  MOVLB  6
....................          }   
05424:  DECF   x80,F
05426:  BRA    53A2
....................       } 
05428:  INCF   x7F,F
0542A:  BRA    5398
....................    } 
0542C:  INCF   x7E,F
0542E:  BRA    5390
....................    } 
....................     
....................    if(x==4){ 
05430:  MOVF   x7D,W
05432:  SUBLW  04
05434:  BNZ   54D8
....................    for( i = 0 ; i < 64 ; i ++ ) 
05436:  CLRF   x7E
05438:  MOVF   x7E,W
0543A:  SUBLW  3F
0543C:  BNC   54D8
....................    {  for( j = 0 ; j < 16 ; j ++) 
0543E:  CLRF   x7F
05440:  MOVF   x7F,W
05442:  SUBLW  0F
05444:  BNC   54D4
....................       {  for(k=7;k>-1;k--) 
05446:  MOVLW  07
05448:  MOVWF  x80
0544A:  MOVF   x80,W
0544C:  XORLW  80
0544E:  SUBLW  7F
05450:  BC    54D0
....................          {       
....................             if( bit_test(Tomai[i][j] ,7-k ))  
05452:  CLRF   x82
05454:  MOVFF  67E,681
05458:  CLRF   x84
0545A:  MOVLW  10
0545C:  MOVWF  x83
0545E:  MOVLB  0
05460:  RCALL  5364
05462:  MOVFF  02,682
05466:  MOVFF  01,681
0546A:  MOVLB  6
0546C:  MOVF   x7F,W
0546E:  ADDWF  01,W
05470:  MOVWF  01
05472:  MOVLW  00
05474:  ADDWFC 02,W
05476:  MOVWF  03
05478:  MOVF   01,W
0547A:  MOVFF  FF2,681
0547E:  BCF    FF2.7
05480:  MOVFF  03,FF7
05484:  MOVLB  0
05486:  CALL   06D2
0548A:  MOVLB  6
0548C:  BTFSC  x81.7
0548E:  BSF    FF2.7
05490:  MOVWF  x81
05492:  MOVLW  07
05494:  BSF    FD8.0
05496:  SUBFWB x80,W
05498:  MOVWF  x82
0549A:  MOVFF  681,00
0549E:  MOVF   x82,W
054A0:  MOVWF  01
054A2:  BZ    54AC
054A4:  BCF    FD8.0
054A6:  RRCF   00,F
054A8:  DECFSZ 01,F
054AA:  BRA    54A4
054AC:  BTFSS  00.0
054AE:  BRA    54CC
....................                glcd_pixel( j*8+k,i, ON ); 
054B0:  MOVF   x7F,W
054B2:  MULLW  08
054B4:  MOVF   FF3,W
054B6:  ADDWF  x80,W
054B8:  MOVWF  x81
054BA:  MOVWF  xB1
054BC:  MOVFF  67E,6B2
054C0:  MOVLW  01
054C2:  MOVWF  xB3
054C4:  MOVLB  0
054C6:  CALL   15FC
054CA:  MOVLB  6
....................          }   
054CC:  DECF   x80,F
054CE:  BRA    544A
....................       } 
054D0:  INCF   x7F,F
054D2:  BRA    5440
....................    } 
054D4:  INCF   x7E,F
054D6:  BRA    5438
....................    } 
....................     
....................    if(x==5){ 
054D8:  MOVF   x7D,W
054DA:  SUBLW  05
054DC:  BNZ   5580
....................    for( i = 0 ; i < 64 ; i ++ ) 
054DE:  CLRF   x7E
054E0:  MOVF   x7E,W
054E2:  SUBLW  3F
054E4:  BNC   5580
....................    {  for( j = 0 ; j < 16 ; j ++) 
054E6:  CLRF   x7F
054E8:  MOVF   x7F,W
054EA:  SUBLW  0F
054EC:  BNC   557C
....................       {  for(k=7;k>-1;k--) 
054EE:  MOVLW  07
054F0:  MOVWF  x80
054F2:  MOVF   x80,W
054F4:  XORLW  80
054F6:  SUBLW  7F
054F8:  BC    5578
....................          {       
....................             if( bit_test(Ventilador[i][j] ,7-k ))  
054FA:  CLRF   x82
054FC:  MOVFF  67E,681
05500:  CLRF   x84
05502:  MOVLW  10
05504:  MOVWF  x83
05506:  MOVLB  0
05508:  RCALL  5364
0550A:  MOVFF  02,682
0550E:  MOVFF  01,681
05512:  MOVLB  6
05514:  MOVF   x7F,W
05516:  ADDWF  01,W
05518:  MOVWF  01
0551A:  MOVLW  00
0551C:  ADDWFC 02,W
0551E:  MOVWF  03
05520:  MOVF   01,W
05522:  MOVFF  FF2,681
05526:  BCF    FF2.7
05528:  MOVFF  03,FF7
0552C:  MOVLB  0
0552E:  CALL   0AEE
05532:  MOVLB  6
05534:  BTFSC  x81.7
05536:  BSF    FF2.7
05538:  MOVWF  x81
0553A:  MOVLW  07
0553C:  BSF    FD8.0
0553E:  SUBFWB x80,W
05540:  MOVWF  x82
05542:  MOVFF  681,00
05546:  MOVF   x82,W
05548:  MOVWF  01
0554A:  BZ    5554
0554C:  BCF    FD8.0
0554E:  RRCF   00,F
05550:  DECFSZ 01,F
05552:  BRA    554C
05554:  BTFSS  00.0
05556:  BRA    5574
....................                glcd_pixel( j*8+k,i, ON ); 
05558:  MOVF   x7F,W
0555A:  MULLW  08
0555C:  MOVF   FF3,W
0555E:  ADDWF  x80,W
05560:  MOVWF  x81
05562:  MOVWF  xB1
05564:  MOVFF  67E,6B2
05568:  MOVLW  01
0556A:  MOVWF  xB3
0556C:  MOVLB  0
0556E:  CALL   15FC
05572:  MOVLB  6
....................          }   
05574:  DECF   x80,F
05576:  BRA    54F2
....................       } 
05578:  INCF   x7F,F
0557A:  BRA    54E8
....................    } 
0557C:  INCF   x7E,F
0557E:  BRA    54E0
....................    } 
.................... } 
05580:  MOVLB  0
05582:  RETLW  00
....................  
....................  
.................... Float LeerFlujoInFlow(int media) 
.................... { 
....................     InFlow_adc=sensores(0); 
*
040E8:  MOVLB  6
040EA:  CLRF   x82
040EC:  MOVLB  0
040EE:  CALL   2E2E
040F2:  MOVFF  02,51A
040F6:  MOVFF  01,519
....................        
....................     if(negativo==10) 
040FA:  MOVLB  5
040FC:  MOVF   x07,W
040FE:  SUBLW  0A
04100:  BNZ   4148
....................     { 
....................       x_uno=Inflow_adc+Diferencia; 
04102:  MOVFF  51A,6B3
04106:  MOVFF  519,6B2
0410A:  MOVLB  0
0410C:  CALL   1870
04110:  BCF    FD8.1
04112:  MOVFF  03,6B5
04116:  MOVFF  02,6B4
0411A:  MOVFF  01,6B3
0411E:  MOVFF  00,6B2
04122:  MOVFF  55E,6B9
04126:  MOVFF  55D,6B8
0412A:  MOVFF  55C,6B7
0412E:  MOVFF  55B,6B6
04132:  CALL   1A04
04136:  MOVFF  03,576
0413A:  MOVFF  02,575
0413E:  MOVFF  01,574
04142:  MOVFF  00,573
04146:  MOVLB  5
....................     } 
....................     if(negativo==20) 
04148:  MOVF   x07,W
0414A:  SUBLW  14
0414C:  BNZ   4192
....................     { 
....................       x_uno=Inflow_adc-Diferencia; 
0414E:  MOVFF  51A,6B3
04152:  MOVFF  519,6B2
04156:  MOVLB  0
04158:  CALL   1870
0415C:  BSF    FD8.1
0415E:  MOVFF  03,6B5
04162:  MOVFF  02,6B4
04166:  MOVFF  01,6B3
0416A:  MOVFF  00,6B2
0416E:  MOVFF  55E,6B9
04172:  MOVFF  55D,6B8
04176:  MOVFF  55C,6B7
0417A:  MOVFF  55B,6B6
0417E:  CALL   1A04
04182:  MOVFF  03,576
04186:  MOVFF  02,575
0418A:  MOVFF  01,574
0418E:  MOVFF  00,573
....................     } 
....................     Velocidad=(pow(x_uno,3)*a)+(pow(x_uno,2)*b)+(x_uno*c)+(d); 
04192:  MOVFF  576,685
04196:  MOVFF  575,684
0419A:  MOVFF  574,683
0419E:  MOVFF  573,682
041A2:  MOVLB  6
041A4:  CLRF   x89
041A6:  CLRF   x88
041A8:  MOVLW  40
041AA:  MOVWF  x87
041AC:  MOVLW  80
041AE:  MOVWF  x86
041B0:  MOVLB  0
041B2:  RCALL  3DDC
041B4:  MOVFF  00,67E
041B8:  MOVFF  01,67F
041BC:  MOVFF  02,680
041C0:  MOVFF  03,681
041C4:  MOVFF  03,6B1
041C8:  MOVFF  02,6B0
041CC:  MOVFF  01,6AF
041D0:  MOVFF  00,6AE
041D4:  MOVFF  596,6B5
041D8:  MOVFF  595,6B4
041DC:  MOVFF  594,6B3
041E0:  MOVFF  593,6B2
041E4:  CALL   2EA8
041E8:  MOVFF  00,67E
041EC:  MOVFF  01,67F
041F0:  MOVFF  02,680
041F4:  MOVFF  03,681
041F8:  MOVFF  576,685
041FC:  MOVFF  575,684
04200:  MOVFF  574,683
04204:  MOVFF  573,682
04208:  MOVLB  6
0420A:  CLRF   x89
0420C:  CLRF   x88
0420E:  CLRF   x87
04210:  MOVLW  80
04212:  MOVWF  x86
04214:  MOVLB  0
04216:  RCALL  3DDC
04218:  MOVFF  00,682
0421C:  MOVFF  01,683
04220:  MOVFF  02,684
04224:  MOVFF  03,685
04228:  MOVFF  03,6B1
0422C:  MOVFF  02,6B0
04230:  MOVFF  01,6AF
04234:  MOVFF  00,6AE
04238:  MOVFF  59A,6B5
0423C:  MOVFF  599,6B4
04240:  MOVFF  598,6B3
04244:  MOVFF  597,6B2
04248:  CALL   2EA8
0424C:  MOVFF  FEA,683
04250:  MOVFF  FE9,682
04254:  BCF    FD8.1
04256:  MOVFF  681,6B5
0425A:  MOVFF  680,6B4
0425E:  MOVFF  67F,6B3
04262:  MOVFF  67E,6B2
04266:  MOVFF  03,6B9
0426A:  MOVFF  02,6B8
0426E:  MOVFF  01,6B7
04272:  MOVFF  00,6B6
04276:  CALL   1A04
0427A:  MOVFF  683,FEA
0427E:  MOVFF  682,FE9
04282:  MOVFF  00,67E
04286:  MOVFF  01,67F
0428A:  MOVFF  02,680
0428E:  MOVFF  03,681
04292:  MOVFF  576,6B1
04296:  MOVFF  575,6B0
0429A:  MOVFF  574,6AF
0429E:  MOVFF  573,6AE
042A2:  MOVFF  59E,6B5
042A6:  MOVFF  59D,6B4
042AA:  MOVFF  59C,6B3
042AE:  MOVFF  59B,6B2
042B2:  CALL   2EA8
042B6:  MOVFF  FEA,685
042BA:  MOVFF  FE9,684
042BE:  BCF    FD8.1
042C0:  MOVFF  681,6B5
042C4:  MOVFF  680,6B4
042C8:  MOVFF  67F,6B3
042CC:  MOVFF  67E,6B2
042D0:  MOVFF  03,6B9
042D4:  MOVFF  02,6B8
042D8:  MOVFF  01,6B7
042DC:  MOVFF  00,6B6
042E0:  CALL   1A04
042E4:  MOVFF  685,FEA
042E8:  MOVFF  684,FE9
042EC:  MOVFF  00,67E
042F0:  MOVFF  01,67F
042F4:  MOVFF  02,680
042F8:  MOVFF  03,681
042FC:  MOVFF  FEA,687
04300:  MOVFF  FE9,686
04304:  BCF    FD8.1
04306:  MOVFF  03,6B5
0430A:  MOVFF  02,6B4
0430E:  MOVFF  01,6B3
04312:  MOVFF  00,6B2
04316:  MOVFF  5A2,6B9
0431A:  MOVFF  5A1,6B8
0431E:  MOVFF  5A0,6B7
04322:  MOVFF  59F,6B6
04326:  CALL   1A04
0432A:  MOVFF  687,FEA
0432E:  MOVFF  686,FE9
04332:  MOVFF  03,572
04336:  MOVFF  02,571
0433A:  MOVFF  01,570
0433E:  MOVFF  00,56F
....................     //Velocidad=Velocidad*correccion;//Ajuste de Temperatura 
....................      
....................     if(Velocidad<0.0) 
04342:  MOVFF  572,6B1
04346:  MOVFF  571,6B0
0434A:  MOVFF  570,6AF
0434E:  MOVFF  56F,6AE
04352:  MOVLB  6
04354:  CLRF   xB5
04356:  CLRF   xB4
04358:  CLRF   xB3
0435A:  CLRF   xB2
0435C:  MOVLB  0
0435E:  CALL   2424
04362:  BNC   436E
....................      {Velocidad=0.0;} 
04364:  MOVLB  5
04366:  CLRF   x72
04368:  CLRF   x71
0436A:  CLRF   x70
0436C:  CLRF   x6F
....................       
....................      if(l>=media) 
0436E:  MOVLB  6
04370:  MOVF   x7D,W
04372:  MOVLB  5
04374:  SUBWF  x0D,W
04376:  BNC   437A
....................        {l=0;} 
04378:  CLRF   x0D
....................       
....................      promedio[l]=Velocidad;l++; 
0437A:  MOVF   x0D,W
0437C:  MULLW  04
0437E:  MOVF   FF3,W
04380:  CLRF   03
04382:  ADDLW  A3
04384:  MOVWF  FE9
04386:  MOVLW  05
04388:  ADDWFC 03,W
0438A:  MOVWF  FEA
0438C:  MOVFF  56F,FEF
04390:  MOVFF  570,FEC
04394:  MOVFF  571,FEC
04398:  MOVFF  572,FEC
0439C:  INCF   x0D,F
....................      Flujo=0; 
0439E:  MOVLB  6
043A0:  CLRF   x06
043A2:  CLRF   x05
043A4:  CLRF   x04
043A6:  CLRF   x03
....................         for(h=0;h<=(media-1);h++) 
043A8:  MOVLB  5
043AA:  CLRF   x0E
043AC:  MOVLW  01
043AE:  MOVLB  6
043B0:  SUBWF  x7D,W
043B2:  MOVLB  5
043B4:  SUBWF  x0E,W
043B6:  BZ    43BA
043B8:  BC    442A
....................         { 
....................            Flujo+=promedio[h]; 
043BA:  MOVF   x0E,W
043BC:  MULLW  04
043BE:  MOVF   FF3,W
043C0:  CLRF   03
043C2:  ADDLW  A3
043C4:  MOVWF  FE9
043C6:  MOVLW  05
043C8:  ADDWFC 03,W
043CA:  MOVWF  FEA
043CC:  MOVFF  FEF,00
043D0:  MOVFF  FEC,01
043D4:  MOVFF  FEC,02
043D8:  MOVFF  FEC,03
043DC:  MOVFF  FEA,67F
043E0:  MOVFF  FE9,67E
043E4:  BCF    FD8.1
043E6:  MOVFF  606,6B5
043EA:  MOVFF  605,6B4
043EE:  MOVFF  604,6B3
043F2:  MOVFF  603,6B2
043F6:  MOVFF  03,6B9
043FA:  MOVFF  02,6B8
043FE:  MOVFF  01,6B7
04402:  MOVFF  00,6B6
04406:  MOVLB  0
04408:  CALL   1A04
0440C:  MOVFF  67F,FEA
04410:  MOVFF  67E,FE9
04414:  MOVFF  03,606
04418:  MOVFF  02,605
0441C:  MOVFF  01,604
04420:  MOVFF  00,603
....................         }  
04424:  MOVLB  5
04426:  INCF   x0E,F
04428:  BRA    43AC
....................            Flujo=(Flujo/media)*Ajuste1;  
0442A:  MOVLB  6
0442C:  CLRF   xB3
0442E:  MOVFF  67D,6B2
04432:  MOVLB  0
04434:  CALL   1870
04438:  MOVFF  606,6B1
0443C:  MOVFF  605,6B0
04440:  MOVFF  604,6AF
04444:  MOVFF  603,6AE
04448:  MOVFF  03,6B5
0444C:  MOVFF  02,6B4
04450:  MOVFF  01,6B3
04454:  MOVFF  00,6B2
04458:  CALL   18A6
0445C:  MOVFF  00,67E
04460:  MOVFF  01,67F
04464:  MOVFF  02,680
04468:  MOVFF  03,681
0446C:  MOVFF  03,6B1
04470:  MOVFF  02,6B0
04474:  MOVFF  01,6AF
04478:  MOVFF  00,6AE
0447C:  MOVFF  582,6B5
04480:  MOVFF  581,6B4
04484:  MOVFF  580,6B3
04488:  MOVFF  57F,6B2
0448C:  CALL   2EA8
04490:  MOVFF  03,606
04494:  MOVFF  02,605
04498:  MOVFF  01,604
0449C:  MOVFF  00,603
....................            return Flujo; 
044A0:  MOVFF  603,00
044A4:  MOVFF  604,01
044A8:  MOVFF  605,02
044AC:  MOVFF  606,03
.................... } 
044B0:  GOTO   60C4 (RETURN)
....................  
.................... float Leer_Sensor_Presion(int media){ 
044B4:  MOVLB  6
044B6:  CLRF   x81
044B8:  CLRF   x80
044BA:  CLRF   x7F
044BC:  CLRF   x7E
....................    float promediopresion=0.0; 
....................     
....................    Filtro_Downflow_adc=sensores(2); 
044BE:  MOVLW  02
044C0:  MOVWF  x82
044C2:  MOVLB  0
044C4:  CALL   2E2E
044C8:  MOVFF  02,51C
044CC:  MOVFF  01,51B
....................    V1=Filtro_Downflow_adc;  
044D0:  MOVFF  51C,6B3
044D4:  MOVFF  51B,6B2
044D8:  CALL   1870
044DC:  MOVFF  03,612
044E0:  MOVFF  02,611
044E4:  MOVFF  01,610
044E8:  MOVFF  00,60F
....................    //V1 = (x_uno*5.0)/1023.0;   //Lectura de Divisor de Voltaje de PT100 con resistencia de 1k (+-10%) 
....................    Presion=(V1/G)-1.0;// Presion=(Voltaje/Ganancia)-1 
044EC:  MOVFF  612,6B1
044F0:  MOVFF  611,6B0
044F4:  MOVFF  610,6AF
044F8:  MOVFF  60F,6AE
044FC:  MOVFF  61A,6B5
04500:  MOVFF  619,6B4
04504:  MOVFF  618,6B3
04508:  MOVFF  617,6B2
0450C:  CALL   18A6
04510:  MOVFF  00,682
04514:  MOVFF  01,683
04518:  MOVFF  02,684
0451C:  MOVFF  03,685
04520:  BSF    FD8.1
04522:  MOVFF  03,6B5
04526:  MOVFF  02,6B4
0452A:  MOVFF  01,6B3
0452E:  MOVFF  00,6B2
04532:  MOVLB  6
04534:  CLRF   xB9
04536:  CLRF   xB8
04538:  CLRF   xB7
0453A:  MOVLW  7F
0453C:  MOVWF  xB6
0453E:  MOVLB  0
04540:  CALL   1A04
04544:  MOVFF  03,616
04548:  MOVFF  02,615
0454C:  MOVFF  01,614
04550:  MOVFF  00,613
....................     
....................    if(Presion<0.0) 
04554:  MOVFF  616,6B1
04558:  MOVFF  615,6B0
0455C:  MOVFF  614,6AF
04560:  MOVFF  613,6AE
04564:  MOVLB  6
04566:  CLRF   xB5
04568:  CLRF   xB4
0456A:  CLRF   xB3
0456C:  CLRF   xB2
0456E:  MOVLB  0
04570:  CALL   2424
04574:  BNC   4580
....................    { 
....................       Presion=0.0; 
04576:  MOVLB  6
04578:  CLRF   x16
0457A:  CLRF   x15
0457C:  CLRF   x14
0457E:  CLRF   x13
....................    } 
....................  
....................    if(r>media-1) 
04580:  MOVLW  01
04582:  MOVLB  6
04584:  SUBWF  x7D,W
04586:  MOVLB  5
04588:  SUBWF  x0C,W
0458A:  BZ    4590
0458C:  BNC   4590
....................    {r=0;} 
0458E:  CLRF   x0C
....................    PromPresion[r]=Presion*4.02;r++; 
04590:  MOVF   x0C,W
04592:  MULLW  04
04594:  MOVF   FF3,W
04596:  CLRF   03
04598:  ADDLW  E3
0459A:  MOVWF  FE9
0459C:  MOVLW  05
0459E:  ADDWFC 03,W
045A0:  MOVWF  FEA
045A2:  MOVFF  616,6B1
045A6:  MOVFF  615,6B0
045AA:  MOVFF  614,6AF
045AE:  MOVFF  613,6AE
045B2:  MOVLW  D7
045B4:  MOVLB  6
045B6:  MOVWF  xB5
045B8:  MOVLW  A3
045BA:  MOVWF  xB4
045BC:  CLRF   xB3
045BE:  MOVLW  81
045C0:  MOVWF  xB2
045C2:  MOVLB  0
045C4:  CALL   2EA8
045C8:  MOVFF  00,FEF
045CC:  MOVFF  01,FEC
045D0:  MOVFF  02,FEC
045D4:  MOVFF  03,FEC
045D8:  MOVLB  5
045DA:  INCF   x0C,F
....................           
....................    for(q=0;q<=(media-1);q++) 
045DC:  CLRF   x0B
045DE:  MOVLW  01
045E0:  MOVLB  6
045E2:  SUBWF  x7D,W
045E4:  MOVLB  5
045E6:  SUBWF  x0B,W
045E8:  BZ    45EC
045EA:  BC    465C
....................    { 
....................       promediopresion+=PromPresion[q]; 
045EC:  MOVF   x0B,W
045EE:  MULLW  04
045F0:  MOVF   FF3,W
045F2:  CLRF   03
045F4:  ADDLW  E3
045F6:  MOVWF  FE9
045F8:  MOVLW  05
045FA:  ADDWFC 03,W
045FC:  MOVWF  FEA
045FE:  MOVFF  FEF,00
04602:  MOVFF  FEC,01
04606:  MOVFF  FEC,02
0460A:  MOVFF  FEC,03
0460E:  MOVFF  FEA,683
04612:  MOVFF  FE9,682
04616:  BCF    FD8.1
04618:  MOVFF  681,6B5
0461C:  MOVFF  680,6B4
04620:  MOVFF  67F,6B3
04624:  MOVFF  67E,6B2
04628:  MOVFF  03,6B9
0462C:  MOVFF  02,6B8
04630:  MOVFF  01,6B7
04634:  MOVFF  00,6B6
04638:  MOVLB  0
0463A:  CALL   1A04
0463E:  MOVFF  683,FEA
04642:  MOVFF  682,FE9
04646:  MOVFF  03,681
0464A:  MOVFF  02,680
0464E:  MOVFF  01,67F
04652:  MOVFF  00,67E
....................    }  
04656:  MOVLB  5
04658:  INCF   x0B,F
0465A:  BRA    45DE
....................    promediopresion=promediopresion/media;    
0465C:  MOVLB  6
0465E:  CLRF   xB3
04660:  MOVFF  67D,6B2
04664:  MOVLB  0
04666:  CALL   1870
0466A:  MOVFF  681,6B1
0466E:  MOVFF  680,6B0
04672:  MOVFF  67F,6AF
04676:  MOVFF  67E,6AE
0467A:  MOVFF  03,6B5
0467E:  MOVFF  02,6B4
04682:  MOVFF  01,6B3
04686:  MOVFF  00,6B2
0468A:  CALL   18A6
0468E:  MOVFF  03,681
04692:  MOVFF  02,680
04696:  MOVFF  01,67F
0469A:  MOVFF  00,67E
....................     
....................    return promediopresion; 
0469E:  MOVFF  67E,00
046A2:  MOVFF  67F,01
046A6:  MOVFF  680,02
046AA:  MOVFF  681,03
.................... } 
046AE:  GOTO   60E0 (RETURN)
....................  
.................... void main(){ 
*
058E4:  CLRF   FF8
058E6:  BCF    FD0.7
058E8:  BSF    07.7
058EA:  CLRF   FEA
058EC:  CLRF   FE9
058EE:  MOVLB  4
058F0:  CLRF   x2E
058F2:  CLRF   x2D
058F4:  CLRF   x30
058F6:  CLRF   x2F
058F8:  CLRF   x32
058FA:  CLRF   x31
058FC:  CLRF   x34
058FE:  CLRF   x33
05900:  CLRF   x35
05902:  BCF    x36.0
05904:  BCF    x36.1
05906:  BCF    x36.2
05908:  CLRF   x38
0590A:  CLRF   x37
0590C:  CLRF   x39
0590E:  CLRF   x3A
05910:  CLRF   x3E
05912:  CLRF   x3D
05914:  CLRF   x3C
05916:  CLRF   x3B
05918:  CLRF   x42
0591A:  CLRF   x41
0591C:  CLRF   x40
0591E:  CLRF   x3F
05920:  BCF    x36.3
05922:  BCF    x36.4
05924:  BCF    x36.5
05926:  BCF    x36.6
05928:  BCF    x36.7
0592A:  BCF    x43.0
0592C:  BCF    x43.1
0592E:  BCF    x43.2
05930:  BCF    x43.3
05932:  BCF    x43.4
05934:  BCF    x43.5
05936:  BCF    x43.6
05938:  BCF    x43.7
0593A:  BCF    x44.0
0593C:  BCF    x44.1
0593E:  BCF    x44.2
05940:  BCF    x44.3
05942:  BCF    x44.4
05944:  BCF    x44.5
05946:  BCF    x44.6
05948:  BCF    x44.7
0594A:  BCF    x45.0
0594C:  BCF    x45.1
0594E:  BCF    x45.2
05950:  BCF    x45.3
05952:  MOVLW  C8
05954:  MOVLB  5
05956:  MOVWF  x03
05958:  MOVLW  01
0595A:  MOVWF  x04
0595C:  MOVWF  x05
0595E:  CLRF   x06
05960:  MOVLW  0A
05962:  MOVWF  x07
05964:  CLRF   x08
05966:  CLRF   x09
05968:  CLRF   x0A
0596A:  CLRF   x0B
0596C:  CLRF   x0C
0596E:  CLRF   x0D
05970:  CLRF   x0E
05972:  CLRF   x0F
05974:  CLRF   x10
05976:  MOVWF  x11
05978:  MOVWF  x12
0597A:  MOVWF  x13
0597C:  CLRF   x14
0597E:  CLRF   x15
05980:  CLRF   x16
05982:  CLRF   x17
05984:  CLRF   x18
05986:  CLRF   x1A
05988:  CLRF   x19
0598A:  CLRF   x1C
0598C:  CLRF   x1B
0598E:  CLRF   x1E
05990:  CLRF   x1D
05992:  CLRF   x20
05994:  CLRF   x1F
05996:  CLRF   x22
05998:  CLRF   x21
0599A:  CLRF   x24
0599C:  CLRF   x23
0599E:  CLRF   x26
059A0:  CLRF   x25
059A2:  CLRF   x52
059A4:  CLRF   x51
059A6:  CLRF   x50
059A8:  CLRF   x4F
059AA:  CLRF   x56
059AC:  CLRF   x55
059AE:  CLRF   x54
059B0:  CLRF   x53
059B2:  CLRF   x5A
059B4:  CLRF   x59
059B6:  CLRF   x58
059B8:  CLRF   x57
059BA:  CLRF   x5E
059BC:  CLRF   x5D
059BE:  CLRF   x5C
059C0:  CLRF   x5B
059C2:  CLRF   x62
059C4:  CLRF   x61
059C6:  CLRF   x60
059C8:  CLRF   x5F
059CA:  CLRF   x66
059CC:  CLRF   x65
059CE:  CLRF   x64
059D0:  CLRF   x63
059D2:  CLRF   x6A
059D4:  CLRF   x69
059D6:  CLRF   x68
059D8:  CLRF   x67
059DA:  CLRF   x6E
059DC:  CLRF   x6D
059DE:  CLRF   x6C
059E0:  CLRF   x6B
059E2:  CLRF   x72
059E4:  CLRF   x71
059E6:  CLRF   x70
059E8:  CLRF   x6F
059EA:  CLRF   x76
059EC:  CLRF   x75
059EE:  CLRF   x74
059F0:  CLRF   x73
059F2:  CLRF   x7A
059F4:  CLRF   x79
059F6:  CLRF   x78
059F8:  CLRF   x77
059FA:  CLRF   x7E
059FC:  CLRF   x7D
059FE:  CLRF   x7C
05A00:  CLRF   x7B
05A02:  CLRF   x82
05A04:  CLRF   x81
05A06:  CLRF   x80
05A08:  CLRF   x7F
05A0A:  CLRF   x86
05A0C:  CLRF   x85
05A0E:  CLRF   x84
05A10:  CLRF   x83
05A12:  CLRF   x8A
05A14:  CLRF   x89
05A16:  CLRF   x88
05A18:  CLRF   x87
05A1A:  CLRF   x8E
05A1C:  CLRF   x8D
05A1E:  CLRF   x8C
05A20:  CLRF   x8B
05A22:  CLRF   x92
05A24:  CLRF   x91
05A26:  CLRF   x90
05A28:  CLRF   x8F
05A2A:  MOVLW  29
05A2C:  MOVWF  x96
05A2E:  MOVLW  B6
05A30:  MOVWF  x95
05A32:  MOVLW  20
05A34:  MOVWF  x94
05A36:  MOVLW  6E
05A38:  MOVWF  x93
05A3A:  MOVLW  EE
05A3C:  MOVWF  x9A
05A3E:  MOVLW  7D
05A40:  MOVWF  x99
05A42:  MOVLW  EE
05A44:  MOVWF  x98
05A46:  MOVLW  77
05A48:  MOVWF  x97
05A4A:  MOVLW  ED
05A4C:  MOVWF  x9E
05A4E:  MOVLW  47
05A50:  MOVWF  x9D
05A52:  MOVLW  6D
05A54:  MOVWF  x9C
05A56:  MOVLW  7F
05A58:  MOVWF  x9B
05A5A:  MOVLW  1A
05A5C:  MOVWF  xA2
05A5E:  MOVLW  D1
05A60:  MOVWF  xA1
05A62:  MOVLW  9C
05A64:  MOVWF  xA0
05A66:  MOVLW  86
05A68:  MOVWF  x9F
05A6A:  MOVLB  6
05A6C:  CLRF   x06
05A6E:  CLRF   x05
05A70:  CLRF   x04
05A72:  CLRF   x03
05A74:  CLRF   x0A
05A76:  CLRF   x09
05A78:  MOVLW  50
05A7A:  MOVWF  x08
05A7C:  MOVLW  86
05A7E:  MOVWF  x07
05A80:  CLRF   x0E
05A82:  CLRF   x0D
05A84:  CLRF   x0C
05A86:  CLRF   x0B
05A88:  CLRF   x12
05A8A:  CLRF   x11
05A8C:  CLRF   x10
05A8E:  CLRF   x0F
05A90:  CLRF   x16
05A92:  CLRF   x15
05A94:  CLRF   x14
05A96:  CLRF   x13
05A98:  CLRF   x1A
05A9A:  CLRF   x19
05A9C:  CLRF   x18
05A9E:  MOVLW  80
05AA0:  MOVWF  x17
05AA2:  CLRF   x1E
05AA4:  CLRF   x1D
05AA6:  CLRF   x1C
05AA8:  CLRF   x1B
05AAA:  CLRF   x78
05AAC:  CLRF   x77
05AAE:  MOVLB  4
05AB0:  BCF    x45.5
05AB2:  MOVF   FC1,W
05AB4:  ANDLW  C0
05AB6:  IORLW  0F
05AB8:  MOVWF  FC1
05ABA:  MOVLW  07
05ABC:  MOVWF  FB4
05ABE:  CLRF   x2B
05AC0:  CLRF   x2C
05AC2:  MOVLW  4A
05AC4:  MOVWF  x46
05AC6:  MOVLW  50
05AC8:  MOVWF  x47
05ACA:  MOVLW  20
05ACC:  MOVWF  x48
05ACE:  MOVLW  49
05AD0:  MOVWF  x49
05AD2:  MOVLW  6E
05AD4:  MOVWF  x4A
05AD6:  MOVLW  67
05AD8:  MOVWF  x4B
05ADA:  MOVLW  6C
05ADC:  MOVWF  x4C
05ADE:  MOVLW  6F
05AE0:  MOVWF  x4D
05AE2:  MOVLW  62
05AE4:  MOVWF  x4E
05AE6:  MOVLW  61
05AE8:  MOVWF  x4F
05AEA:  MOVLW  6C
05AEC:  MOVWF  x50
05AEE:  CLRF   x51
05AF0:  MOVLW  43
05AF2:  MOVWF  x52
05AF4:  MOVLW  61
05AF6:  MOVWF  x53
05AF8:  MOVLW  62
05AFA:  MOVWF  x54
05AFC:  MOVLW  69
05AFE:  MOVWF  x55
05B00:  MOVLW  6E
05B02:  MOVWF  x56
05B04:  MOVLW  61
05B06:  MOVWF  x57
05B08:  MOVLW  20
05B0A:  MOVWF  x58
05B0C:  MOVLW  45
05B0E:  MOVWF  x59
05B10:  MOVLW  78
05B12:  MOVWF  x5A
05B14:  MOVLW  74
05B16:  MOVWF  x5B
05B18:  MOVLW  72
05B1A:  MOVWF  x5C
05B1C:  MOVLW  61
05B1E:  MOVWF  x5D
05B20:  MOVLW  63
05B22:  MOVWF  x5E
05B24:  MOVLW  74
05B26:  MOVWF  x5F
05B28:  MOVLW  6F
05B2A:  MOVWF  x60
05B2C:  MOVLW  72
05B2E:  MOVWF  x61
05B30:  MOVLW  61
05B32:  MOVWF  x62
05B34:  CLRF   x63
05B36:  MOVLW  54
05B38:  MOVWF  x64
05B3A:  MOVLW  20
05B3C:  MOVWF  x65
05B3E:  MOVLW  65
05B40:  MOVWF  x66
05B42:  MOVLW  73
05B44:  MOVWF  x67
05B46:  MOVLW  74
05B48:  MOVWF  x68
05B4A:  MOVLW  3D
05B4C:  MOVWF  x69
05B4E:  CLRF   x6A
05B50:  MOVLW  3A
05B52:  MOVWF  x6B
05B54:  CLRF   x6C
05B56:  MOVLW  53
05B58:  MOVWF  x6D
05B5A:  MOVLW  69
05B5C:  MOVWF  x6E
05B5E:  MOVLW  6E
05B60:  MOVWF  x6F
05B62:  MOVLW  20
05B64:  MOVWF  x70
05B66:  MOVLW  44
05B68:  MOVWF  x71
05B6A:  MOVLW  75
05B6C:  MOVWF  x72
05B6E:  MOVLW  63
05B70:  MOVWF  x73
05B72:  MOVLW  74
05B74:  MOVWF  x74
05B76:  MOVLW  6F
05B78:  MOVWF  x75
05B7A:  MOVLW  73
05B7C:  MOVWF  x76
05B7E:  CLRF   x77
05B80:  MOVLW  54
05B82:  MOVWF  x78
05B84:  MOVLW  69
05B86:  MOVWF  x79
05B88:  MOVLW  65
05B8A:  MOVWF  x7A
05B8C:  MOVLW  6D
05B8E:  MOVWF  x7B
05B90:  MOVLW  70
05B92:  MOVWF  x7C
05B94:  MOVLW  6F
05B96:  MOVWF  x7D
05B98:  MOVLW  20
05B9A:  MOVWF  x7E
05B9C:  MOVLW  64
05B9E:  MOVWF  x7F
05BA0:  MOVLW  65
05BA2:  MOVWF  x80
05BA4:  MOVLW  20
05BA6:  MOVWF  x81
05BA8:  MOVLW  50
05BAA:  MOVWF  x82
05BAC:  MOVLW  75
05BAE:  MOVWF  x83
05BB0:  MOVLW  72
05BB2:  MOVWF  x84
05BB4:  MOVLW  67
05BB6:  MOVWF  x85
05BB8:  MOVLW  61
05BBA:  MOVWF  x86
05BBC:  CLRF   x87
05BBE:  MOVLW  55
05BC0:  MOVWF  x88
05BC2:  MOVLW  56
05BC4:  MOVWF  x89
05BC6:  CLRF   x8A
05BC8:  MOVLW  21
05BCA:  MOVWF  x8B
05BCC:  MOVWF  x8C
05BCE:  MOVLW  55
05BD0:  MOVWF  x8D
05BD2:  MOVLW  62
05BD4:  MOVWF  x8E
05BD6:  MOVLW  69
05BD8:  MOVWF  x8F
05BDA:  MOVLW  71
05BDC:  MOVWF  x90
05BDE:  MOVLW  75
05BE0:  MOVWF  x91
05BE2:  MOVLW  65
05BE4:  MOVWF  x92
05BE6:  MOVLW  20
05BE8:  MOVWF  x93
05BEA:  MOVLW  56
05BEC:  MOVWF  x94
05BEE:  MOVLW  69
05BF0:  MOVWF  x95
05BF2:  MOVLW  64
05BF4:  MOVWF  x96
05BF6:  MOVLW  72
05BF8:  MOVWF  x97
05BFA:  MOVLW  69
05BFC:  MOVWF  x98
05BFE:  MOVLW  6F
05C00:  MOVWF  x99
05C02:  MOVLW  21
05C04:  MOVWF  x9A
05C06:  MOVWF  x9B
05C08:  CLRF   x9C
05C0A:  MOVLW  4A
05C0C:  MOVWF  x9D
05C0E:  MOVLW  50
05C10:  MOVWF  x9E
05C12:  MOVLW  43
05C14:  MOVWF  x9F
05C16:  MOVLW  45
05C18:  MOVWF  xA0
05C1A:  MOVLW  47
05C1C:  MOVWF  xA1
05C1E:  MOVLW  48
05C20:  MOVWF  xA2
05C22:  MOVLW  2D
05C24:  MOVWF  xA3
05C26:  MOVLW  46
05C28:  MOVWF  xA4
05C2A:  MOVLW  2D
05C2C:  MOVWF  xA5
05C2E:  MOVLW  41
05C30:  MOVWF  xA6
05C32:  CLRF   xA7
05C34:  MOVLW  50
05C36:  MOVWF  xA8
05C38:  MOVLW  72
05C3A:  MOVWF  xA9
05C3C:  MOVLW  65
05C3E:  MOVWF  xAA
05C40:  MOVLW  73
05C42:  MOVWF  xAB
05C44:  MOVLW  28
05C46:  MOVWF  xAC
05C48:  MOVLW  69
05C4A:  MOVWF  xAD
05C4C:  MOVLW  6E
05C4E:  MOVWF  xAE
05C50:  MOVLW  48
05C52:  MOVWF  xAF
05C54:  MOVLW  32
05C56:  MOVWF  xB0
05C58:  MOVLW  4F
05C5A:  MOVWF  xB1
05C5C:  MOVLW  29
05C5E:  MOVWF  xB2
05C60:  MOVLW  3A
05C62:  MOVWF  xB3
05C64:  CLRF   xB4
05C66:  MOVLW  46
05C68:  MOVWF  xB5
05C6A:  MOVLW  61
05C6C:  MOVWF  xB6
05C6E:  MOVLW  62
05C70:  MOVWF  xB7
05C72:  MOVLW  72
05C74:  MOVWF  xB8
05C76:  MOVLW  69
05C78:  MOVWF  xB9
05C7A:  MOVLW  63
05C7C:  MOVWF  xBA
05C7E:  MOVLW  61
05C80:  MOVWF  xBB
05C82:  MOVLW  3A
05C84:  MOVWF  xBC
05C86:  MOVLW  32
05C88:  MOVWF  xBD
05C8A:  MOVLW  30
05C8C:  MOVWF  xBE
05C8E:  MOVLW  38
05C90:  MOVWF  xBF
05C92:  MOVLW  2E
05C94:  MOVWF  xC0
05C96:  MOVLW  30
05C98:  MOVWF  xC1
05C9A:  CLRF   xC2
05C9C:  MOVLW  41
05C9E:  MOVWF  xC3
05CA0:  MOVLW  63
05CA2:  MOVWF  xC4
05CA4:  MOVLW  74
05CA6:  MOVWF  xC5
05CA8:  MOVLW  75
05CAA:  MOVWF  xC6
05CAC:  MOVLW  61
05CAE:  MOVWF  xC7
05CB0:  MOVLW  6C
05CB2:  MOVWF  xC8
05CB4:  MOVLW  3A
05CB6:  MOVWF  xC9
05CB8:  CLRF   xCA
05CBA:  MOVLW  41
05CBC:  MOVWF  xCB
05CBE:  MOVLW  6A
05CC0:  MOVWF  xCC
05CC2:  MOVLW  75
05CC4:  MOVWF  xCD
05CC6:  MOVLW  73
05CC8:  MOVWF  xCE
05CCA:  MOVLW  74
05CCC:  MOVWF  xCF
05CCE:  MOVLW  65
05CD0:  MOVWF  xD0
05CD2:  MOVLW  3A
05CD4:  MOVWF  xD1
05CD6:  CLRF   xD2
05CD8:  MOVLW  55
05CDA:  MOVWF  xD3
05CDC:  MOVLW  56
05CDE:  MOVWF  xD4
05CE0:  MOVLW  4C
05CE2:  MOVWF  xD5
05CE4:  MOVLW  69
05CE6:  MOVWF  xD6
05CE8:  MOVLW  66
05CEA:  MOVWF  xD7
05CEC:  MOVLW  65
05CEE:  MOVWF  xD8
05CF0:  MOVLW  3A
05CF2:  MOVWF  xD9
05CF4:  CLRF   xDA
05CF6:  MOVLW  46
05CF8:  MOVWF  xDB
05CFA:  MOVLW  69
05CFC:  MOVWF  xDC
05CFE:  MOVLW  6C
05D00:  MOVWF  xDD
05D02:  MOVLW  74
05D04:  MOVWF  xDE
05D06:  MOVLW  65
05D08:  MOVWF  xDF
05D0A:  MOVLW  72
05D0C:  MOVWF  xE0
05D0E:  MOVLW  3A
05D10:  MOVWF  xE1
05D12:  CLRF   xE2
05D14:  MOVLW  46
05D16:  MOVWF  xE3
05D18:  MOVLW  61
05D1A:  MOVWF  xE4
05D1C:  MOVLW  62
05D1E:  MOVWF  xE5
05D20:  MOVLW  72
05D22:  MOVWF  xE6
05D24:  MOVLW  69
05D26:  MOVWF  xE7
05D28:  MOVLW  63
05D2A:  MOVWF  xE8
05D2C:  MOVLW  61
05D2E:  MOVWF  xE9
05D30:  MOVLW  3A
05D32:  MOVWF  xEA
05D34:  MOVLW  32
05D36:  MOVWF  xEB
05D38:  MOVLW  33
05D3A:  MOVWF  xEC
05D3C:  MOVLW  35
05D3E:  MOVWF  xED
05D40:  MOVLW  2E
05D42:  MOVWF  xEE
05D44:  MOVLW  30
05D46:  MOVWF  xEF
05D48:  CLRF   xF0
05D4A:  MOVLW  21
05D4C:  MOVWF  xF1
05D4E:  MOVLW  46
05D50:  MOVWF  xF2
05D52:  MOVLW  69
05D54:  MOVWF  xF3
05D56:  MOVLW  6C
05D58:  MOVWF  xF4
05D5A:  MOVLW  74
05D5C:  MOVWF  xF5
05D5E:  MOVLW  72
05D60:  MOVWF  xF6
05D62:  MOVLW  6F
05D64:  MOVWF  xF7
05D66:  MOVLW  20
05D68:  MOVWF  xF8
05D6A:  MOVLW  53
05D6C:  MOVWF  xF9
05D6E:  MOVLW  61
05D70:  MOVWF  xFA
05D72:  MOVLW  74
05D74:  MOVWF  xFB
05D76:  MOVLW  75
05D78:  MOVWF  xFC
05D7A:  MOVLW  72
05D7C:  MOVWF  xFD
05D7E:  MOVLW  61
05D80:  MOVWF  xFE
05D82:  MOVLW  64
05D84:  MOVWF  xFF
05D86:  MOVLW  6F
05D88:  MOVLB  5
05D8A:  MOVWF  x00
05D8C:  MOVLW  21
05D8E:  MOVWF  x01
05D90:  CLRF   x02
05D92:  CLRF   x27
05D94:  CLRF   x28
05D96:  CLRF   x29
05D98:  CLRF   x2A
05D9A:  MOVLW  09
05D9C:  MOVWF  x2B
05D9E:  CLRF   x2C
05DA0:  CLRF   x2D
05DA2:  CLRF   x2E
05DA4:  CLRF   x2F
05DA6:  CLRF   x30
05DA8:  CLRF   x31
05DAA:  CLRF   x32
05DAC:  MOVWF  x33
05DAE:  CLRF   x34
05DB0:  CLRF   x35
05DB2:  CLRF   x36
05DB4:  CLRF   x37
05DB6:  CLRF   x38
05DB8:  CLRF   x39
05DBA:  CLRF   x3A
05DBC:  CLRF   x3B
05DBE:  CLRF   x3C
05DC0:  CLRF   x3D
05DC2:  CLRF   x3E
05DC4:  CLRF   x3F
05DC6:  CLRF   x40
05DC8:  CLRF   x41
05DCA:  CLRF   x42
05DCC:  CLRF   x43
05DCE:  CLRF   x44
05DD0:  CLRF   x45
05DD2:  CLRF   x46
05DD4:  CLRF   x47
05DD6:  CLRF   x48
05DD8:  CLRF   x49
05DDA:  CLRF   x4A
05DDC:  CLRF   x4B
05DDE:  CLRF   x4C
05DE0:  CLRF   x4D
05DE2:  CLRF   x4E
05DE4:  CLRF   xA3
05DE6:  CLRF   xA4
05DE8:  CLRF   xA5
05DEA:  CLRF   xA6
05DEC:  CLRF   xA7
05DEE:  CLRF   xA8
05DF0:  CLRF   xA9
05DF2:  CLRF   xAA
05DF4:  CLRF   xAB
05DF6:  CLRF   xAC
05DF8:  CLRF   xAD
05DFA:  CLRF   xAE
05DFC:  CLRF   xAF
05DFE:  CLRF   xB0
05E00:  CLRF   xB1
05E02:  CLRF   xB2
05E04:  CLRF   xB3
05E06:  CLRF   xB4
05E08:  CLRF   xB5
05E0A:  CLRF   xB6
05E0C:  CLRF   xB7
05E0E:  CLRF   xB8
05E10:  CLRF   xB9
05E12:  CLRF   xBA
05E14:  CLRF   xBB
05E16:  CLRF   xBC
05E18:  CLRF   xBD
05E1A:  CLRF   xBE
05E1C:  CLRF   xBF
05E1E:  CLRF   xC0
05E20:  CLRF   xC1
05E22:  CLRF   xC2
05E24:  CLRF   xC3
05E26:  CLRF   xC4
05E28:  CLRF   xC5
05E2A:  CLRF   xC6
05E2C:  CLRF   xC7
05E2E:  CLRF   xC8
05E30:  CLRF   xC9
05E32:  CLRF   xCA
05E34:  CLRF   xCB
05E36:  CLRF   xCC
05E38:  CLRF   xCD
05E3A:  CLRF   xCE
05E3C:  CLRF   xCF
05E3E:  CLRF   xD0
05E40:  CLRF   xD1
05E42:  CLRF   xD2
05E44:  CLRF   xD3
05E46:  CLRF   xD4
05E48:  CLRF   xD5
05E4A:  CLRF   xD6
05E4C:  CLRF   xD7
05E4E:  CLRF   xD8
05E50:  CLRF   xD9
05E52:  CLRF   xDA
05E54:  CLRF   xDB
05E56:  CLRF   xDC
05E58:  CLRF   xDD
05E5A:  CLRF   xDE
05E5C:  CLRF   xDF
05E5E:  CLRF   xE0
05E60:  CLRF   xE1
05E62:  CLRF   xE2
05E64:  CLRF   xE3
05E66:  CLRF   xE4
05E68:  CLRF   xE5
05E6A:  CLRF   xE6
05E6C:  CLRF   xE7
05E6E:  CLRF   xE8
05E70:  CLRF   xE9
05E72:  CLRF   xEA
05E74:  CLRF   xEB
05E76:  CLRF   xEC
05E78:  CLRF   xED
05E7A:  CLRF   xEE
05E7C:  CLRF   xEF
05E7E:  CLRF   xF0
05E80:  CLRF   xF1
05E82:  CLRF   xF2
05E84:  CLRF   xF3
05E86:  CLRF   xF4
05E88:  CLRF   xF5
05E8A:  CLRF   xF6
05E8C:  CLRF   xF7
05E8E:  CLRF   xF8
05E90:  CLRF   xF9
05E92:  CLRF   xFA
05E94:  CLRF   xFB
05E96:  CLRF   xFC
05E98:  CLRF   xFD
05E9A:  CLRF   xFE
05E9C:  CLRF   xFF
05E9E:  MOVLB  6
05EA0:  CLRF   x00
05EA2:  CLRF   x01
05EA4:  CLRF   x02
....................    delay_ms(1000); 
05EA6:  MOVLW  04
05EA8:  MOVWF  x7D
05EAA:  MOVLW  FA
05EAC:  MOVWF  x86
05EAE:  MOVLB  0
05EB0:  CALL   1346
05EB4:  MOVLB  6
05EB6:  DECFSZ x7D,F
05EB8:  BRA    5EAA
....................    Cruce=OFF; 
05EBA:  MOVLB  4
05EBC:  BCF    x36.0
....................    VelocidadMotor(0); 
05EBE:  MOVLB  6
05EC0:  CLRF   x7D
05EC2:  MOVLB  0
05EC4:  CALL   136E
....................    Tcruce2=83; 
05EC8:  MOVLB  4
05ECA:  CLRF   x42
05ECC:  CLRF   x41
05ECE:  MOVLW  26
05ED0:  MOVWF  x40
05ED2:  MOVLW  85
05ED4:  MOVWF  x3F
....................    Tcruce=8300; 
05ED6:  CLRF   x3E
05ED8:  MOVLW  B0
05EDA:  MOVWF  x3D
05EDC:  MOVLW  01
05EDE:  MOVWF  x3C
05EE0:  MOVLW  8C
05EE2:  MOVWF  x3B
....................    Motor_off; 
05EE4:  BCF    F8B.2
05EE6:  BCF    F94.2
....................    //setup_timer_1(T1_INTERNAL|T1_DIV_BY_1); 
....................    //enable_interrupts(INT_TIMER1); 
....................    enable_interrupts(INT_EXT_L2H); 
05EE8:  BSF    FF2.4
05EEA:  BSF    FF1.6
....................    setup_adc_ports(AN0_TO_AN3); 
05EEC:  MOVF   FC1,W
05EEE:  ANDLW  C0
05EF0:  IORLW  0B
05EF2:  MOVWF  FC1
....................    setup_adc(ADC_CLOCK_DIV_32 ); 
05EF4:  MOVF   FC0,W
05EF6:  ANDLW  C0
05EF8:  IORLW  02
05EFA:  MOVWF  FC0
05EFC:  BSF    FC0.7
05EFE:  BSF    FC2.0
....................    enable_interrupts(global);   
05F00:  MOVLW  C0
05F02:  IORWF  FF2,F
....................    VelocidadMotor(0); 
05F04:  MOVLB  6
05F06:  CLRF   x7D
05F08:  MOVLB  0
05F0A:  CALL   136E
....................    Motor_off; 
05F0E:  BCF    F8B.2
05F10:  BCF    F94.2
.................... //-------Inicio de Cabina-------------------------------------------------------------------------// 
....................    Display_on; 
05F12:  BSF    F8A.1
05F14:  BCF    F93.1
....................    glcd_init(ON);             //Inicializa la glcd 
05F16:  MOVLW  01
05F18:  MOVLB  6
05F1A:  MOVWF  x7D
05F1C:  MOVLB  0
05F1E:  CALL   1554
....................    glcd_fillScreen(OFF);      //Limpia la pantalla 
05F22:  MOVLB  6
05F24:  CLRF   x85
05F26:  MOVLB  0
05F28:  CALL   1442
....................    glcd_text57(0, 0, JP, 2, ON);glcd_text57(5, 20, Cabina, 1, ON);glcd_text57(10, 40, Clase, 2, ON);              
05F2C:  MOVLB  6
05F2E:  CLRF   x96
05F30:  CLRF   x97
05F32:  MOVLW  04
05F34:  MOVWF  x99
05F36:  MOVLW  46
05F38:  MOVWF  x98
05F3A:  MOVLW  02
05F3C:  MOVWF  x9A
05F3E:  MOVLW  01
05F40:  MOVWF  x9B
05F42:  MOVLB  0
05F44:  CALL   16B8
05F48:  MOVLW  05
05F4A:  MOVLB  6
05F4C:  MOVWF  x96
05F4E:  MOVLW  14
05F50:  MOVWF  x97
05F52:  MOVLW  04
05F54:  MOVWF  x99
05F56:  MOVLW  52
05F58:  MOVWF  x98
05F5A:  MOVLW  01
05F5C:  MOVWF  x9A
05F5E:  MOVWF  x9B
05F60:  MOVLB  0
05F62:  CALL   16B8
05F66:  MOVLW  0A
05F68:  MOVLB  6
05F6A:  MOVWF  x96
05F6C:  MOVLW  28
05F6E:  MOVWF  x97
05F70:  MOVLW  04
05F72:  MOVWF  x99
05F74:  MOVLW  6D
05F76:  MOVWF  x98
05F78:  MOVLW  02
05F7A:  MOVWF  x9A
05F7C:  MOVLW  01
05F7E:  MOVWF  x9B
05F80:  MOVLB  0
05F82:  CALL   16B8
....................    glcd_update(); 
05F86:  CALL   149C
....................    delay_ms(3000); 
05F8A:  MOVLW  0C
05F8C:  MOVLB  6
05F8E:  MOVWF  x7D
05F90:  MOVLW  FA
05F92:  MOVWF  x86
05F94:  MOVLB  0
05F96:  CALL   1346
05F9A:  MOVLB  6
05F9C:  DECFSZ x7D,F
05F9E:  BRA    5F90
....................                         
....................    glcd_fillScreen(OFF);      //Limpia la pantalla 
05FA0:  CLRF   x85
05FA2:  MOVLB  0
05FA4:  CALL   1442
....................    Menu=0; 
05FA8:  MOVLB  5
05FAA:  CLRF   x03
....................    LuzBlanca_off;Alarma_off; 
05FAC:  BCF    F8B.0
05FAE:  BCF    F94.0
05FB0:  BCF    F8B.7
05FB2:  BCF    F94.7
.................... //-------Inicio de Cabina-------------------------------------------------------------------------// 
....................    VelocidadMotor(0); 
05FB4:  MOVLB  6
05FB6:  CLRF   x7D
05FB8:  MOVLB  0
05FBA:  CALL   136E
....................    Motor_off; 
05FBE:  BCF    F8B.2
05FC0:  BCF    F94.2
....................    LeeEEPROM(); // Lectura de variables almacenadas en la EEPROM  
05FC2:  GOTO   1C7C
....................    LimitaValores(); 
05FC6:  GOTO   249E
....................  
....................    if(G>1000)G=240; 
05FCA:  MOVLB  6
05FCC:  CLRF   xB1
05FCE:  CLRF   xB0
05FD0:  MOVLW  7A
05FD2:  MOVWF  xAF
05FD4:  MOVLW  88
05FD6:  MOVWF  xAE
05FD8:  MOVFF  61A,6B5
05FDC:  MOVFF  619,6B4
05FE0:  MOVFF  618,6B3
05FE4:  MOVFF  617,6B2
05FE8:  MOVLB  0
05FEA:  CALL   2424
05FEE:  BNC   5FFE
05FF0:  MOVLB  6
05FF2:  CLRF   x1A
05FF4:  CLRF   x19
05FF6:  MOVLW  70
05FF8:  MOVWF  x18
05FFA:  MOVLW  86
05FFC:  MOVWF  x17
....................    if(Ajuste1<=0.0 || Ajuste1>5.0)Ajuste1=1.0; 
05FFE:  MOVFF  582,6B1
06002:  MOVFF  581,6B0
06006:  MOVFF  580,6AF
0600A:  MOVFF  57F,6AE
0600E:  MOVLB  6
06010:  CLRF   xB5
06012:  CLRF   xB4
06014:  CLRF   xB3
06016:  CLRF   xB2
06018:  MOVLB  0
0601A:  CALL   2424
0601E:  BC    6048
06020:  BZ    6048
06022:  MOVLB  6
06024:  CLRF   xB1
06026:  CLRF   xB0
06028:  MOVLW  20
0602A:  MOVWF  xAF
0602C:  MOVLW  81
0602E:  MOVWF  xAE
06030:  MOVFF  582,6B5
06034:  MOVFF  581,6B4
06038:  MOVFF  580,6B3
0603C:  MOVFF  57F,6B2
06040:  MOVLB  0
06042:  CALL   2424
06046:  BNC   6054
06048:  MOVLB  5
0604A:  CLRF   x82
0604C:  CLRF   x81
0604E:  CLRF   x80
06050:  MOVLW  7F
06052:  MOVWF  x7F
....................    if(Ajuste2<=0.0 || Ajuste2>5.0)Ajuste2=1.0; 
06054:  MOVFF  586,6B1
06058:  MOVFF  585,6B0
0605C:  MOVFF  584,6AF
06060:  MOVFF  583,6AE
06064:  MOVLB  6
06066:  CLRF   xB5
06068:  CLRF   xB4
0606A:  CLRF   xB3
0606C:  CLRF   xB2
0606E:  MOVLB  0
06070:  CALL   2424
06074:  BC    609E
06076:  BZ    609E
06078:  MOVLB  6
0607A:  CLRF   xB1
0607C:  CLRF   xB0
0607E:  MOVLW  20
06080:  MOVWF  xAF
06082:  MOVLW  81
06084:  MOVWF  xAE
06086:  MOVFF  586,6B5
0608A:  MOVFF  585,6B4
0608E:  MOVFF  584,6B3
06092:  MOVFF  583,6B2
06096:  MOVLB  0
06098:  CALL   2424
0609C:  BNC   60AC
0609E:  MOVLB  5
060A0:  CLRF   x86
060A2:  CLRF   x85
060A4:  CLRF   x84
060A6:  MOVLW  7F
060A8:  MOVWF  x83
060AA:  MOVLB  0
....................     
....................    while(true){  
....................    glcd_update(); 
060AC:  CALL   149C
.................... //**Actualizacin de Lectura de Sensores**//    
....................    if(Lectura==1){ 
060B0:  MOVLB  4
060B2:  BTFSS  x45.1
060B4:  BRA    60F0
....................       Lectura=0; 
060B6:  BCF    x45.1
....................       InFlow=LeerFlujoInFlow(8); 
060B8:  MOVLW  08
060BA:  MOVLB  6
060BC:  MOVWF  x7D
060BE:  MOVLB  0
060C0:  GOTO   40E8
060C4:  MOVFF  03,552
060C8:  MOVFF  02,551
060CC:  MOVFF  01,550
060D0:  MOVFF  00,54F
....................       Filtro_DownFlow=Leer_Sensor_Presion(8); 
060D4:  MOVLW  08
060D6:  MOVLB  6
060D8:  MOVWF  x7D
060DA:  MOVLB  0
060DC:  GOTO   44B4
060E0:  MOVFF  03,55A
060E4:  MOVFF  02,559
060E8:  MOVFF  01,558
060EC:  MOVFF  00,557
....................    } 
.................... //----------------------------------------// 
....................  
.................... //**Contador de Tiempo de Trabajo del filtro**// 
....................    if(minutos_trabajo>=3600){ // Tiempo de Trabajo 
060F0:  MOVLB  5
060F2:  MOVF   x24,W
060F4:  SUBLW  0D
060F6:  BTFSC  FD8.0
060F8:  BRA    62A0
060FA:  XORLW  FF
060FC:  BNZ   6106
060FE:  MOVF   x23,W
06100:  SUBLW  0F
06102:  BTFSC  FD8.0
06104:  BRA    62A0
....................       minutos_trabajo=0; //Minutos Trabajo realmente son segundos. 
06106:  CLRF   x24
06108:  CLRF   x23
....................       write_eeprom(33,make8(minutos_trabajo,0)); 
0610A:  MOVFF  523,67D
0610E:  CLRF   FAA
06110:  MOVLW  21
06112:  MOVWF  FA9
06114:  MOVFF  67D,FA8
06118:  BCF    FA6.6
0611A:  BCF    FA6.7
0611C:  BSF    FA6.2
0611E:  MOVF   FF2,W
06120:  MOVWF  00
06122:  BCF    FF2.7
06124:  MOVLB  F
06126:  MOVLW  55
06128:  MOVWF  FA7
0612A:  MOVLW  AA
0612C:  MOVWF  FA7
0612E:  BSF    FA6.1
06130:  BTFSC  FA6.1
06132:  BRA    6130
06134:  BCF    FA6.2
06136:  MOVF   00,W
06138:  IORWF  FF2,F
....................       delay_ms(20); 
0613A:  MOVLW  14
0613C:  MOVLB  6
0613E:  MOVWF  x86
06140:  MOVLB  0
06142:  CALL   1346
....................       write_eeprom(34,make8(minutos_trabajo,1)); 
06146:  MOVFF  524,67D
0614A:  CLRF   FAA
0614C:  MOVLW  22
0614E:  MOVWF  FA9
06150:  MOVFF  67D,FA8
06154:  BCF    FA6.6
06156:  BCF    FA6.7
06158:  BSF    FA6.2
0615A:  MOVF   FF2,W
0615C:  MOVWF  00
0615E:  BCF    FF2.7
06160:  MOVLB  F
06162:  MOVLW  55
06164:  MOVWF  FA7
06166:  MOVLW  AA
06168:  MOVWF  FA7
0616A:  BSF    FA6.1
0616C:  BTFSC  FA6.1
0616E:  BRA    616C
06170:  BCF    FA6.2
06172:  MOVF   00,W
06174:  IORWF  FF2,F
....................       delay_ms(20); 
06176:  MOVLW  14
06178:  MOVLB  6
0617A:  MOVWF  x86
0617C:  MOVLB  0
0617E:  CALL   1346
....................       Ttrabajo[0]++; 
06182:  MOVLB  5
06184:  INCF   x43,F
....................       if(Ttrabajo[0]>9){ 
06186:  BTFSC  x43.7
06188:  BRA    6194
0618A:  MOVF   x43,W
0618C:  SUBLW  09
0618E:  BC    6194
....................          Ttrabajo[0]=0; 
06190:  CLRF   x43
....................          Ttrabajo[1]++; 
06192:  INCF   x44,F
....................       } 
....................       if(Ttrabajo[1]>9){ 
06194:  BTFSC  x44.7
06196:  BRA    61A2
06198:  MOVF   x44,W
0619A:  SUBLW  09
0619C:  BC    61A2
....................          Ttrabajo[1]=0; 
0619E:  CLRF   x44
....................          Ttrabajo[2]++; 
061A0:  INCF   x45,F
....................       } 
....................       if(Ttrabajo[2]>9){ 
061A2:  BTFSC  x45.7
061A4:  BRA    61B0
061A6:  MOVF   x45,W
061A8:  SUBLW  09
061AA:  BC    61B0
....................          Ttrabajo[2]=0; 
061AC:  CLRF   x45
....................          Ttrabajo[3]++; 
061AE:  INCF   x46,F
....................       } 
....................       if(Ttrabajo[3]>9){ 
061B0:  BTFSC  x46.7
061B2:  BRA    61BC
061B4:  MOVF   x46,W
061B6:  SUBLW  09
061B8:  BC    61BC
....................          Ttrabajo[3]=0; 
061BA:  CLRF   x46
....................       } 
....................       write_eeprom(16,Ttrabajo[0]); 
061BC:  CLRF   FAA
061BE:  MOVLW  10
061C0:  MOVWF  FA9
061C2:  MOVFF  543,FA8
061C6:  BCF    FA6.6
061C8:  BCF    FA6.7
061CA:  BSF    FA6.2
061CC:  MOVF   FF2,W
061CE:  MOVWF  00
061D0:  BCF    FF2.7
061D2:  MOVLB  F
061D4:  MOVLW  55
061D6:  MOVWF  FA7
061D8:  MOVLW  AA
061DA:  MOVWF  FA7
061DC:  BSF    FA6.1
061DE:  BTFSC  FA6.1
061E0:  BRA    61DE
061E2:  BCF    FA6.2
061E4:  MOVF   00,W
061E6:  IORWF  FF2,F
....................       delay_ms(20); 
061E8:  MOVLW  14
061EA:  MOVLB  6
061EC:  MOVWF  x86
061EE:  MOVLB  0
061F0:  CALL   1346
....................       write_eeprom(17,Ttrabajo[1]); 
061F4:  CLRF   FAA
061F6:  MOVLW  11
061F8:  MOVWF  FA9
061FA:  MOVFF  544,FA8
061FE:  BCF    FA6.6
06200:  BCF    FA6.7
06202:  BSF    FA6.2
06204:  MOVF   FF2,W
06206:  MOVWF  00
06208:  BCF    FF2.7
0620A:  MOVLB  F
0620C:  MOVLW  55
0620E:  MOVWF  FA7
06210:  MOVLW  AA
06212:  MOVWF  FA7
06214:  BSF    FA6.1
06216:  BTFSC  FA6.1
06218:  BRA    6216
0621A:  BCF    FA6.2
0621C:  MOVF   00,W
0621E:  IORWF  FF2,F
....................       delay_ms(20); 
06220:  MOVLW  14
06222:  MOVLB  6
06224:  MOVWF  x86
06226:  MOVLB  0
06228:  CALL   1346
....................       write_eeprom(18,Ttrabajo[2]); 
0622C:  CLRF   FAA
0622E:  MOVLW  12
06230:  MOVWF  FA9
06232:  MOVFF  545,FA8
06236:  BCF    FA6.6
06238:  BCF    FA6.7
0623A:  BSF    FA6.2
0623C:  MOVF   FF2,W
0623E:  MOVWF  00
06240:  BCF    FF2.7
06242:  MOVLB  F
06244:  MOVLW  55
06246:  MOVWF  FA7
06248:  MOVLW  AA
0624A:  MOVWF  FA7
0624C:  BSF    FA6.1
0624E:  BTFSC  FA6.1
06250:  BRA    624E
06252:  BCF    FA6.2
06254:  MOVF   00,W
06256:  IORWF  FF2,F
....................       delay_ms(20); 
06258:  MOVLW  14
0625A:  MOVLB  6
0625C:  MOVWF  x86
0625E:  MOVLB  0
06260:  CALL   1346
....................       write_eeprom(19,Ttrabajo[3]); 
06264:  CLRF   FAA
06266:  MOVLW  13
06268:  MOVWF  FA9
0626A:  MOVFF  546,FA8
0626E:  BCF    FA6.6
06270:  BCF    FA6.7
06272:  BSF    FA6.2
06274:  MOVF   FF2,W
06276:  MOVWF  00
06278:  BCF    FF2.7
0627A:  MOVLB  F
0627C:  MOVLW  55
0627E:  MOVWF  FA7
06280:  MOVLW  AA
06282:  MOVWF  FA7
06284:  BSF    FA6.1
06286:  BTFSC  FA6.1
06288:  BRA    6286
0628A:  BCF    FA6.2
0628C:  MOVF   00,W
0628E:  IORWF  FF2,F
....................       delay_ms(20); 
06290:  MOVLW  14
06292:  MOVLB  6
06294:  MOVWF  x86
06296:  MOVLB  0
06298:  CALL   1346
....................    }else if(minutos_trabajo==900 || minutos_trabajo==1800 || minutos_trabajo==2700 ){ 
0629C:  BRA    633C
0629E:  MOVLB  5
062A0:  MOVF   x23,W
062A2:  SUBLW  84
062A4:  BNZ   62AC
062A6:  MOVF   x24,W
062A8:  SUBLW  03
062AA:  BZ    62C4
062AC:  MOVF   x23,W
062AE:  SUBLW  08
062B0:  BNZ   62B8
062B2:  MOVF   x24,W
062B4:  SUBLW  07
062B6:  BZ    62C4
062B8:  MOVF   x23,W
062BA:  SUBLW  8C
062BC:  BNZ   633E
062BE:  MOVF   x24,W
062C0:  SUBLW  0A
062C2:  BNZ   633E
....................       write_eeprom(33,make8(minutos_trabajo,0)); 
062C4:  MOVFF  523,67D
062C8:  CLRF   FAA
062CA:  MOVLW  21
062CC:  MOVWF  FA9
062CE:  MOVFF  67D,FA8
062D2:  BCF    FA6.6
062D4:  BCF    FA6.7
062D6:  BSF    FA6.2
062D8:  MOVF   FF2,W
062DA:  MOVWF  00
062DC:  BCF    FF2.7
062DE:  MOVLB  F
062E0:  MOVLW  55
062E2:  MOVWF  FA7
062E4:  MOVLW  AA
062E6:  MOVWF  FA7
062E8:  BSF    FA6.1
062EA:  BTFSC  FA6.1
062EC:  BRA    62EA
062EE:  BCF    FA6.2
062F0:  MOVF   00,W
062F2:  IORWF  FF2,F
....................       delay_ms(20); 
062F4:  MOVLW  14
062F6:  MOVLB  6
062F8:  MOVWF  x86
062FA:  MOVLB  0
062FC:  CALL   1346
....................       write_eeprom(34,make8(minutos_trabajo,1)); 
06300:  MOVFF  524,67D
06304:  CLRF   FAA
06306:  MOVLW  22
06308:  MOVWF  FA9
0630A:  MOVFF  67D,FA8
0630E:  BCF    FA6.6
06310:  BCF    FA6.7
06312:  BSF    FA6.2
06314:  MOVF   FF2,W
06316:  MOVWF  00
06318:  BCF    FF2.7
0631A:  MOVLB  F
0631C:  MOVLW  55
0631E:  MOVWF  FA7
06320:  MOVLW  AA
06322:  MOVWF  FA7
06324:  BSF    FA6.1
06326:  BTFSC  FA6.1
06328:  BRA    6326
0632A:  BCF    FA6.2
0632C:  MOVF   00,W
0632E:  IORWF  FF2,F
....................       delay_ms(20); 
06330:  MOVLW  14
06332:  MOVLB  6
06334:  MOVWF  x86
06336:  MOVLB  0
06338:  CALL   1346
0633C:  MOVLB  5
....................    } 
.................... //----------------------------------------//       
....................     
....................    if(Menu!=2){// Si no esta en el menu de estados apaga la alarma 
0633E:  MOVF   x03,W
06340:  SUBLW  02
06342:  BZ    6348
....................       //Alarma_off; 
....................       Alarma=10; 
06344:  MOVLW  0A
06346:  MOVWF  x13
....................    } 
....................     
.................... //_-------------------------------------------------------------------------------------------------------------------------------------------------------- 
....................    if(Menu==0){ //Menu de Contrasea. 
06348:  MOVF   x03,F
0634A:  BNZ   6382
....................       while(PidePassword(0,0,1,Password[0],Password[1],Password[2],Password[3])==0){ 
0634C:  MOVLB  6
0634E:  CLRF   x7E
06350:  CLRF   x7F
06352:  MOVLW  01
06354:  MOVWF  x80
06356:  MOVFF  54B,681
0635A:  MOVFF  54C,682
0635E:  MOVFF  54D,683
06362:  MOVFF  54E,684
06366:  MOVLB  0
06368:  CALL   4B70
0636C:  MOVF   01,F
0636E:  BNZ   6384
....................          VelocidadMotor(0); 
06370:  MOVLB  6
06372:  CLRF   x7D
06374:  MOVLB  0
06376:  CALL   136E
....................          glcd_update(); 
0637A:  CALL   149C
....................       }               
0637E:  MOVLB  5
06380:  BRA    634C
06382:  MOVLB  0
....................    } 
.................... //_--------------------------------------------------------------------------------------------------------------------------------------------------------        
....................  
.................... //_-------------------------------------------------------------------------------------------------------------------------------------------------------- 
....................       if(Menu==1){//Menu de Purga. 
06384:  MOVLB  5
06386:  DECFSZ x03,W
06388:  BRA    64FA
....................          Purga=ON; 
0638A:  MOVLB  4
0638C:  BSF    x36.2
....................          glcd_text57(15, 1, Tiempo, 1, ON); 
0638E:  MOVLW  0F
06390:  MOVLB  6
06392:  MOVWF  x96
06394:  MOVLW  01
06396:  MOVWF  x97
06398:  MOVLW  04
0639A:  MOVWF  x99
0639C:  MOVLW  78
0639E:  MOVWF  x98
063A0:  MOVLW  01
063A2:  MOVWF  x9A
063A4:  MOVWF  x9B
063A6:  MOVLB  0
063A8:  CALL   16B8
....................          tiempo_purga=1;LuzBlanca_off;//Alarma_off; 
063AC:  MOVLB  4
063AE:  BSF    x44.1
063B0:  BCF    F8B.0
063B2:  BCF    F94.0
....................          glcd_rect(9, 54, 120, 64, YES, OFF);          
063B4:  MOVLW  09
063B6:  MOVLB  6
063B8:  MOVWF  x96
063BA:  MOVLW  36
063BC:  MOVWF  x97
063BE:  MOVLW  78
063C0:  MOVWF  x98
063C2:  MOVLW  40
063C4:  MOVWF  x99
063C6:  MOVLW  01
063C8:  MOVWF  x9A
063CA:  CLRF   x9B
063CC:  MOVLB  0
063CE:  CALL   4920
....................          displayTiempo(Tpurga[3],20,20,0,2);displayTiempo(Tpurga[2],40,20,0,2);glcd_text57(60, 22, Dos_puntos, 2, ON); 
063D2:  MOVFF  52A,67D
063D6:  MOVLW  14
063D8:  MOVLB  6
063DA:  MOVWF  x7E
063DC:  MOVWF  x7F
063DE:  CLRF   x80
063E0:  MOVLW  02
063E2:  MOVWF  x81
063E4:  MOVLB  0
063E6:  CALL   528A
063EA:  MOVFF  529,67D
063EE:  MOVLW  28
063F0:  MOVLB  6
063F2:  MOVWF  x7E
063F4:  MOVLW  14
063F6:  MOVWF  x7F
063F8:  CLRF   x80
063FA:  MOVLW  02
063FC:  MOVWF  x81
063FE:  MOVLB  0
06400:  CALL   528A
06404:  MOVLW  3C
06406:  MOVLB  6
06408:  MOVWF  x96
0640A:  MOVLW  16
0640C:  MOVWF  x97
0640E:  MOVLW  04
06410:  MOVWF  x99
06412:  MOVLW  6B
06414:  MOVWF  x98
06416:  MOVLW  02
06418:  MOVWF  x9A
0641A:  MOVLW  01
0641C:  MOVWF  x9B
0641E:  MOVLB  0
06420:  CALL   16B8
....................          displayTiempo(Tpurga[1],70,20,0,2);displayTiempo(Tpurga[0],90,20,0,2);         
06424:  MOVFF  528,67D
06428:  MOVLW  46
0642A:  MOVLB  6
0642C:  MOVWF  x7E
0642E:  MOVLW  14
06430:  MOVWF  x7F
06432:  CLRF   x80
06434:  MOVLW  02
06436:  MOVWF  x81
06438:  MOVLB  0
0643A:  CALL   528A
0643E:  MOVFF  527,67D
06442:  MOVLW  5A
06444:  MOVLB  6
06446:  MOVWF  x7E
06448:  MOVLW  14
0644A:  MOVWF  x7F
0644C:  CLRF   x80
0644E:  MOVLW  02
06450:  MOVWF  x81
06452:  MOVLB  0
06454:  CALL   528A
....................           
....................          VelocidadMotor(VelMotor); 
06458:  MOVFF  43A,67D
0645C:  CALL   136E
....................           
....................          if(RIGHT){ 
06460:  BSF    F96.1
06462:  BTFSC  F84.1
06464:  BRA    649A
....................             delay_ms(500); 
06466:  MOVLW  02
06468:  MOVLB  6
0646A:  MOVWF  x7D
0646C:  MOVLW  FA
0646E:  MOVWF  x86
06470:  MOVLB  0
06472:  CALL   1346
06476:  MOVLB  6
06478:  DECFSZ x7D,F
0647A:  BRA    646C
....................             if(RIGHT){ 
0647C:  BSF    F96.1
0647E:  BTFSC  F84.1
06480:  BRA    649A
....................                tiempo_purga=0;Menu=2;glcd_fillScreen(OFF);BYTE_IR[2]=0X00; 
06482:  MOVLB  4
06484:  BCF    x44.1
06486:  MOVLW  02
06488:  MOVLB  5
0648A:  MOVWF  x03
0648C:  MOVLB  6
0648E:  CLRF   x85
06490:  MOVLB  0
06492:  CALL   1442
06496:  MOVLB  6
06498:  CLRF   x7B
....................             } 
....................          } 
....................         
....................          if((Tpurga[0]>=Tpurgap[0])&&(Tpurga[1]>=Tpurgap[1])&&(Tpurga[2]>=Tpurgap[2])&&(Tpurga[3]>=Tpurgap[3])){ 
0649A:  MOVLB  5
0649C:  MOVF   x2B,W
0649E:  XORLW  80
064A0:  MOVWF  00
064A2:  MOVF   x27,W
064A4:  XORLW  80
064A6:  SUBWF  00,W
064A8:  BZ    64AC
064AA:  BC    64FA
064AC:  MOVF   x2C,W
064AE:  XORLW  80
064B0:  MOVWF  00
064B2:  MOVF   x28,W
064B4:  XORLW  80
064B6:  SUBWF  00,W
064B8:  BZ    64BC
064BA:  BC    64FA
064BC:  MOVF   x2D,W
064BE:  XORLW  80
064C0:  MOVWF  00
064C2:  MOVF   x29,W
064C4:  XORLW  80
064C6:  SUBWF  00,W
064C8:  BZ    64CC
064CA:  BC    64FA
064CC:  MOVF   x2E,W
064CE:  XORLW  80
064D0:  MOVWF  00
064D2:  MOVF   x2A,W
064D4:  XORLW  80
064D6:  SUBWF  00,W
064D8:  BZ    64DC
064DA:  BC    64FA
....................             tiempo_purga=0;Menu=2;glcd_fillScreen(OFF);flag_luz=!flag_luz;flag_blower=1;flag_toma=1; 
064DC:  MOVLB  4
064DE:  BCF    x44.1
064E0:  MOVLW  02
064E2:  MOVLB  5
064E4:  MOVWF  x03
064E6:  MOVLB  6
064E8:  CLRF   x85
064EA:  MOVLB  0
064EC:  CALL   1442
064F0:  MOVLB  4
064F2:  BTG    x43.6
064F4:  BSF    x43.4
064F6:  BSF    x43.5
064F8:  MOVLB  5
....................          }       
....................       } 
.................... //_--------------------------------------------------------------------------------------------------------------------------------------------------------        
....................  
.................... //_-------------------------------------------------------------------------------------------------------------------------------------------------------- 
....................       if(Menu==2){ //Menu General. 
064FA:  MOVF   x03,W
064FC:  SUBLW  02
064FE:  BTFSS  FD8.2
06500:  BRA    6A40
....................          Purga=OFF; 
06502:  MOVLB  4
06504:  BCF    x36.2
....................          w=0; 
06506:  BCF    x44.0
....................          glcd_imagen(4); 
06508:  MOVLW  04
0650A:  MOVLB  6
0650C:  MOVWF  x7D
0650E:  MOVLB  0
06510:  CALL   5386
....................          glcd_text57(0, 1, Inflowt, 1, ON); 
06514:  MOVLB  6
06516:  CLRF   x96
06518:  MOVLW  01
0651A:  MOVWF  x97
0651C:  MOVLW  04
0651E:  MOVWF  x99
06520:  MOVLW  9D
06522:  MOVWF  x98
06524:  MOVLW  01
06526:  MOVWF  x9A
06528:  MOVWF  x9B
0652A:  MOVLB  0
0652C:  CALL   16B8
....................          glcd_text57(0, 21, Downflowt, 1, ON); 
06530:  MOVLB  6
06532:  CLRF   x96
06534:  MOVLW  15
06536:  MOVWF  x97
06538:  MOVLW  04
0653A:  MOVWF  x99
0653C:  MOVLW  A8
0653E:  MOVWF  x98
06540:  MOVLW  01
06542:  MOVWF  x9A
06544:  MOVWF  x9B
06546:  MOVLB  0
06548:  CALL   16B8
....................          glcd_text57(0, 35, Vida_Filtro, 1, ON); 
0654C:  MOVLB  6
0654E:  CLRF   x96
06550:  MOVLW  23
06552:  MOVWF  x97
06554:  MOVLW  04
06556:  MOVWF  x99
06558:  MOVLW  DB
0655A:  MOVWF  x98
0655C:  MOVLW  01
0655E:  MOVWF  x9A
06560:  MOVWF  x9B
06562:  MOVLB  0
06564:  CALL   16B8
....................          //displayTiempo(Ttrabajo[3],60,28,0,1);displayTiempo(Ttrabajo[2],67,28,0,1);displayTiempo(Ttrabajo[1],74,28,0,1);displayTiempo(Ttrabajo[0],82,28,0,1); 
....................          //glcd_text57(0, 43, Vida_UV, 1, ON); 
....................          //displayTiempo(Tuv[3],60,42,0,1);displayTiempo(Tuv[2],67,42,0,1);displayTiempo(Tuv[1],74,42,0,1);displayTiempo(Tuv[0],82,42,0,1);        
....................          //UVTime=Tuv[0]+(Tuv[1]*10)+(Tuv[2]*100)+(Tuv[3]*1000);          
....................           
....................          if(imprimir==1){ 
06568:  MOVLB  4
0656A:  BTFSS  x43.2
0656C:  BRA    6598
....................             displayfloat(Filtro_Downflow,70,21,0,1);    
0656E:  MOVFF  55A,684
06572:  MOVFF  559,683
06576:  MOVFF  558,682
0657A:  MOVFF  557,681
0657E:  MOVLW  46
06580:  MOVLB  6
06582:  MOVWF  x85
06584:  MOVLW  15
06586:  MOVWF  x86
06588:  CLRF   x87
0658A:  MOVLW  01
0658C:  MOVWF  x88
0658E:  MOVLB  0
06590:  CALL   57FE
....................             imprimir=0; 
06594:  MOVLB  4
06596:  BCF    x43.2
....................          } 
....................           
....................          if(flag_blower==1){ 
06598:  BTFSS  x43.4
0659A:  BRA    6740
....................             glcd_imagen(5);tiempo_trabajo=1; 
0659C:  MOVLW  05
0659E:  MOVLB  6
065A0:  MOVWF  x7D
065A2:  MOVLB  0
065A4:  CALL   5386
065A8:  MOVLB  4
065AA:  BSF    x44.3
....................             if(guardatrabajo==1){ 
065AC:  BTFSS  x45.0
065AE:  BRA    6732
....................                VelocidadMotor(6); 
065B0:  MOVLW  06
065B2:  MOVLB  6
065B4:  MOVWF  x7D
065B6:  MOVLB  0
065B8:  CALL   136E
....................                guardatrabajo=0; 
065BC:  MOVLB  4
065BE:  BCF    x45.0
....................                write_eeprom(33,make8(minutos_trabajo,0)); 
065C0:  MOVFF  523,67D
065C4:  CLRF   FAA
065C6:  MOVLW  21
065C8:  MOVWF  FA9
065CA:  MOVFF  67D,FA8
065CE:  BCF    FA6.6
065D0:  BCF    FA6.7
065D2:  BSF    FA6.2
065D4:  MOVF   FF2,W
065D6:  MOVWF  00
065D8:  BCF    FF2.7
065DA:  MOVLB  F
065DC:  MOVLW  55
065DE:  MOVWF  FA7
065E0:  MOVLW  AA
065E2:  MOVWF  FA7
065E4:  BSF    FA6.1
065E6:  BTFSC  FA6.1
065E8:  BRA    65E6
065EA:  BCF    FA6.2
065EC:  MOVF   00,W
065EE:  IORWF  FF2,F
....................                delay_ms(20); 
065F0:  MOVLW  14
065F2:  MOVLB  6
065F4:  MOVWF  x86
065F6:  MOVLB  0
065F8:  CALL   1346
....................                write_eeprom(34,make8(minutos_trabajo,1)); 
065FC:  MOVFF  524,67D
06600:  CLRF   FAA
06602:  MOVLW  22
06604:  MOVWF  FA9
06606:  MOVFF  67D,FA8
0660A:  BCF    FA6.6
0660C:  BCF    FA6.7
0660E:  BSF    FA6.2
06610:  MOVF   FF2,W
06612:  MOVWF  00
06614:  BCF    FF2.7
06616:  MOVLB  F
06618:  MOVLW  55
0661A:  MOVWF  FA7
0661C:  MOVLW  AA
0661E:  MOVWF  FA7
06620:  BSF    FA6.1
06622:  BTFSC  FA6.1
06624:  BRA    6622
06626:  BCF    FA6.2
06628:  MOVF   00,W
0662A:  IORWF  FF2,F
....................                delay_ms(20); 
0662C:  MOVLW  14
0662E:  MOVLB  6
06630:  MOVWF  x86
06632:  MOVLB  0
06634:  CALL   1346
....................                write_eeprom(16,Ttrabajo[0]); 
06638:  CLRF   FAA
0663A:  MOVLW  10
0663C:  MOVWF  FA9
0663E:  MOVFF  543,FA8
06642:  BCF    FA6.6
06644:  BCF    FA6.7
06646:  BSF    FA6.2
06648:  MOVF   FF2,W
0664A:  MOVWF  00
0664C:  BCF    FF2.7
0664E:  MOVLB  F
06650:  MOVLW  55
06652:  MOVWF  FA7
06654:  MOVLW  AA
06656:  MOVWF  FA7
06658:  BSF    FA6.1
0665A:  BTFSC  FA6.1
0665C:  BRA    665A
0665E:  BCF    FA6.2
06660:  MOVF   00,W
06662:  IORWF  FF2,F
....................                delay_ms(20); 
06664:  MOVLW  14
06666:  MOVLB  6
06668:  MOVWF  x86
0666A:  MOVLB  0
0666C:  CALL   1346
....................                write_eeprom(17,Ttrabajo[1]); 
06670:  CLRF   FAA
06672:  MOVLW  11
06674:  MOVWF  FA9
06676:  MOVFF  544,FA8
0667A:  BCF    FA6.6
0667C:  BCF    FA6.7
0667E:  BSF    FA6.2
06680:  MOVF   FF2,W
06682:  MOVWF  00
06684:  BCF    FF2.7
06686:  MOVLB  F
06688:  MOVLW  55
0668A:  MOVWF  FA7
0668C:  MOVLW  AA
0668E:  MOVWF  FA7
06690:  BSF    FA6.1
06692:  BTFSC  FA6.1
06694:  BRA    6692
06696:  BCF    FA6.2
06698:  MOVF   00,W
0669A:  IORWF  FF2,F
....................                delay_ms(20); 
0669C:  MOVLW  14
0669E:  MOVLB  6
066A0:  MOVWF  x86
066A2:  MOVLB  0
066A4:  CALL   1346
....................                write_eeprom(18,Ttrabajo[2]); 
066A8:  CLRF   FAA
066AA:  MOVLW  12
066AC:  MOVWF  FA9
066AE:  MOVFF  545,FA8
066B2:  BCF    FA6.6
066B4:  BCF    FA6.7
066B6:  BSF    FA6.2
066B8:  MOVF   FF2,W
066BA:  MOVWF  00
066BC:  BCF    FF2.7
066BE:  MOVLB  F
066C0:  MOVLW  55
066C2:  MOVWF  FA7
066C4:  MOVLW  AA
066C6:  MOVWF  FA7
066C8:  BSF    FA6.1
066CA:  BTFSC  FA6.1
066CC:  BRA    66CA
066CE:  BCF    FA6.2
066D0:  MOVF   00,W
066D2:  IORWF  FF2,F
....................                delay_ms(20); 
066D4:  MOVLW  14
066D6:  MOVLB  6
066D8:  MOVWF  x86
066DA:  MOVLB  0
066DC:  CALL   1346
....................                write_eeprom(19,Ttrabajo[3]); 
066E0:  CLRF   FAA
066E2:  MOVLW  13
066E4:  MOVWF  FA9
066E6:  MOVFF  546,FA8
066EA:  BCF    FA6.6
066EC:  BCF    FA6.7
066EE:  BSF    FA6.2
066F0:  MOVF   FF2,W
066F2:  MOVWF  00
066F4:  BCF    FF2.7
066F6:  MOVLB  F
066F8:  MOVLW  55
066FA:  MOVWF  FA7
066FC:  MOVLW  AA
066FE:  MOVWF  FA7
06700:  BSF    FA6.1
06702:  BTFSC  FA6.1
06704:  BRA    6702
06706:  BCF    FA6.2
06708:  MOVF   00,W
0670A:  IORWF  FF2,F
....................                delay_ms(20); 
0670C:  MOVLW  14
0670E:  MOVLB  6
06710:  MOVWF  x86
06712:  MOVLB  0
06714:  CALL   1346
....................                glcd_init(ON);             //Inicializa la glcd 
06718:  MOVLW  01
0671A:  MOVLB  6
0671C:  MOVWF  x7D
0671E:  MOVLB  0
06720:  CALL   1554
....................                glcd_fillScreen(OFF);      //Limpia la pantalla 
06724:  MOVLB  6
06726:  CLRF   x85
06728:  MOVLB  0
0672A:  CALL   1442
....................                glcd_update();   
0672E:  CALL   149C
....................             } 
....................             VelocidadMotor(VelMotor); 
06732:  MOVFF  43A,67D
06736:  MOVLB  0
06738:  CALL   136E
....................          }else{ 
0673C:  BRA    68F0
0673E:  MOVLB  4
....................             Filtro_Downflow=0; 
06740:  MOVLB  5
06742:  CLRF   x5A
06744:  CLRF   x59
06746:  CLRF   x58
06748:  CLRF   x57
....................             glcd_rect(102, 45, 127, 64, YES, OFF);tiempo_trabajo=0;VelocidadMotor(0); 
0674A:  MOVLW  66
0674C:  MOVLB  6
0674E:  MOVWF  x96
06750:  MOVLW  2D
06752:  MOVWF  x97
06754:  MOVLW  7F
06756:  MOVWF  x98
06758:  MOVLW  40
0675A:  MOVWF  x99
0675C:  MOVLW  01
0675E:  MOVWF  x9A
06760:  CLRF   x9B
06762:  MOVLB  0
06764:  CALL   4920
06768:  MOVLB  4
0676A:  BCF    x44.3
0676C:  MOVLB  6
0676E:  CLRF   x7D
06770:  MOVLB  0
06772:  CALL   136E
....................             if(guardatrabajo==0){ 
06776:  MOVLB  4
06778:  BTFSC  x45.0
0677A:  BRA    68F2
....................                guardatrabajo=1; 
0677C:  BSF    x45.0
....................                write_eeprom(33,make8(minutos_trabajo,0)); 
0677E:  MOVFF  523,67D
06782:  CLRF   FAA
06784:  MOVLW  21
06786:  MOVWF  FA9
06788:  MOVFF  67D,FA8
0678C:  BCF    FA6.6
0678E:  BCF    FA6.7
06790:  BSF    FA6.2
06792:  MOVF   FF2,W
06794:  MOVWF  00
06796:  BCF    FF2.7
06798:  MOVLB  F
0679A:  MOVLW  55
0679C:  MOVWF  FA7
0679E:  MOVLW  AA
067A0:  MOVWF  FA7
067A2:  BSF    FA6.1
067A4:  BTFSC  FA6.1
067A6:  BRA    67A4
067A8:  BCF    FA6.2
067AA:  MOVF   00,W
067AC:  IORWF  FF2,F
....................                delay_ms(20); 
067AE:  MOVLW  14
067B0:  MOVLB  6
067B2:  MOVWF  x86
067B4:  MOVLB  0
067B6:  CALL   1346
....................                write_eeprom(34,make8(minutos_trabajo,1)); 
067BA:  MOVFF  524,67D
067BE:  CLRF   FAA
067C0:  MOVLW  22
067C2:  MOVWF  FA9
067C4:  MOVFF  67D,FA8
067C8:  BCF    FA6.6
067CA:  BCF    FA6.7
067CC:  BSF    FA6.2
067CE:  MOVF   FF2,W
067D0:  MOVWF  00
067D2:  BCF    FF2.7
067D4:  MOVLB  F
067D6:  MOVLW  55
067D8:  MOVWF  FA7
067DA:  MOVLW  AA
067DC:  MOVWF  FA7
067DE:  BSF    FA6.1
067E0:  BTFSC  FA6.1
067E2:  BRA    67E0
067E4:  BCF    FA6.2
067E6:  MOVF   00,W
067E8:  IORWF  FF2,F
....................                delay_ms(20); 
067EA:  MOVLW  14
067EC:  MOVLB  6
067EE:  MOVWF  x86
067F0:  MOVLB  0
067F2:  CALL   1346
....................                write_eeprom(16,Ttrabajo[0]); 
067F6:  CLRF   FAA
067F8:  MOVLW  10
067FA:  MOVWF  FA9
067FC:  MOVFF  543,FA8
06800:  BCF    FA6.6
06802:  BCF    FA6.7
06804:  BSF    FA6.2
06806:  MOVF   FF2,W
06808:  MOVWF  00
0680A:  BCF    FF2.7
0680C:  MOVLB  F
0680E:  MOVLW  55
06810:  MOVWF  FA7
06812:  MOVLW  AA
06814:  MOVWF  FA7
06816:  BSF    FA6.1
06818:  BTFSC  FA6.1
0681A:  BRA    6818
0681C:  BCF    FA6.2
0681E:  MOVF   00,W
06820:  IORWF  FF2,F
....................                delay_ms(20); 
06822:  MOVLW  14
06824:  MOVLB  6
06826:  MOVWF  x86
06828:  MOVLB  0
0682A:  CALL   1346
....................                write_eeprom(17,Ttrabajo[1]); 
0682E:  CLRF   FAA
06830:  MOVLW  11
06832:  MOVWF  FA9
06834:  MOVFF  544,FA8
06838:  BCF    FA6.6
0683A:  BCF    FA6.7
0683C:  BSF    FA6.2
0683E:  MOVF   FF2,W
06840:  MOVWF  00
06842:  BCF    FF2.7
06844:  MOVLB  F
06846:  MOVLW  55
06848:  MOVWF  FA7
0684A:  MOVLW  AA
0684C:  MOVWF  FA7
0684E:  BSF    FA6.1
06850:  BTFSC  FA6.1
06852:  BRA    6850
06854:  BCF    FA6.2
06856:  MOVF   00,W
06858:  IORWF  FF2,F
....................                delay_ms(20); 
0685A:  MOVLW  14
0685C:  MOVLB  6
0685E:  MOVWF  x86
06860:  MOVLB  0
06862:  CALL   1346
....................                write_eeprom(18,Ttrabajo[2]); 
06866:  CLRF   FAA
06868:  MOVLW  12
0686A:  MOVWF  FA9
0686C:  MOVFF  545,FA8
06870:  BCF    FA6.6
06872:  BCF    FA6.7
06874:  BSF    FA6.2
06876:  MOVF   FF2,W
06878:  MOVWF  00
0687A:  BCF    FF2.7
0687C:  MOVLB  F
0687E:  MOVLW  55
06880:  MOVWF  FA7
06882:  MOVLW  AA
06884:  MOVWF  FA7
06886:  BSF    FA6.1
06888:  BTFSC  FA6.1
0688A:  BRA    6888
0688C:  BCF    FA6.2
0688E:  MOVF   00,W
06890:  IORWF  FF2,F
....................                delay_ms(20); 
06892:  MOVLW  14
06894:  MOVLB  6
06896:  MOVWF  x86
06898:  MOVLB  0
0689A:  CALL   1346
....................                write_eeprom(19,Ttrabajo[3]); 
0689E:  CLRF   FAA
068A0:  MOVLW  13
068A2:  MOVWF  FA9
068A4:  MOVFF  546,FA8
068A8:  BCF    FA6.6
068AA:  BCF    FA6.7
068AC:  BSF    FA6.2
068AE:  MOVF   FF2,W
068B0:  MOVWF  00
068B2:  BCF    FF2.7
068B4:  MOVLB  F
068B6:  MOVLW  55
068B8:  MOVWF  FA7
068BA:  MOVLW  AA
068BC:  MOVWF  FA7
068BE:  BSF    FA6.1
068C0:  BTFSC  FA6.1
068C2:  BRA    68C0
068C4:  BCF    FA6.2
068C6:  MOVF   00,W
068C8:  IORWF  FF2,F
....................                delay_ms(20); 
068CA:  MOVLW  14
068CC:  MOVLB  6
068CE:  MOVWF  x86
068D0:  MOVLB  0
068D2:  CALL   1346
....................                glcd_init(ON);             //Inicializa la glcd 
068D6:  MOVLW  01
068D8:  MOVLB  6
068DA:  MOVWF  x7D
068DC:  MOVLB  0
068DE:  CALL   1554
....................                glcd_fillScreen(OFF);      //Limpia la pantalla 
068E2:  MOVLB  6
068E4:  CLRF   x85
068E6:  MOVLB  0
068E8:  CALL   1442
....................                glcd_update();   
068EC:  CALL   149C
068F0:  MOVLB  4
....................             } 
....................          } 
....................           
....................          if(flag_luz==1){ 
068F2:  BTFSS  x43.6
068F4:  BRA    690A
....................             glcd_imagen(3);LuzBlanca_on; 
068F6:  MOVLW  03
068F8:  MOVLB  6
068FA:  MOVWF  x7D
068FC:  MOVLB  0
068FE:  CALL   5386
06902:  BSF    F8B.0
06904:  BCF    F94.0
....................          }else{ 
06906:  BRA    692C
06908:  MOVLB  4
....................             glcd_rect(102, 14, 127, 28, YES, OFF);LuzBlanca_off; 
0690A:  MOVLW  66
0690C:  MOVLB  6
0690E:  MOVWF  x96
06910:  MOVLW  0E
06912:  MOVWF  x97
06914:  MOVLW  7F
06916:  MOVWF  x98
06918:  MOVLW  1C
0691A:  MOVWF  x99
0691C:  MOVLW  01
0691E:  MOVWF  x9A
06920:  CLRF   x9B
06922:  MOVLB  0
06924:  CALL   4920
06928:  BCF    F8B.0
0692A:  BCF    F94.0
....................          } 
....................              
....................          if(Alarma==5){ 
0692C:  MOVLB  5
0692E:  MOVF   x13,W
06930:  SUBLW  05
06932:  BNZ   6970
....................             glcd_rect(0, 55, 100, 63, YES, OFF); 
06934:  MOVLB  6
06936:  CLRF   x96
06938:  MOVLW  37
0693A:  MOVWF  x97
0693C:  MOVLW  64
0693E:  MOVWF  x98
06940:  MOVLW  3F
06942:  MOVWF  x99
06944:  MOVLW  01
06946:  MOVWF  x9A
06948:  CLRF   x9B
0694A:  MOVLB  0
0694C:  CALL   4920
....................             glcd_text57(0,55, Perdida, 1, ON); 
06950:  MOVLB  6
06952:  CLRF   x96
06954:  MOVLW  37
06956:  MOVWF  x97
06958:  MOVLW  04
0695A:  MOVWF  x99
0695C:  MOVLW  F1
0695E:  MOVWF  x98
06960:  MOVLW  01
06962:  MOVWF  x9A
06964:  MOVWF  x9B
06966:  MOVLB  0
06968:  CALL   16B8
....................          }else{                
0696C:  BRA    698C
0696E:  MOVLB  5
....................             glcd_rect(0, 55, 100, 63, YES, OFF);             
06970:  MOVLB  6
06972:  CLRF   x96
06974:  MOVLW  37
06976:  MOVWF  x97
06978:  MOVLW  64
0697A:  MOVWF  x98
0697C:  MOVLW  3F
0697E:  MOVWF  x99
06980:  MOVLW  01
06982:  MOVWF  x9A
06984:  CLRF   x9B
06986:  MOVLB  0
06988:  CALL   4920
....................          } 
....................           
....................              
....................       if(RIGHT){//Si oprime boton de Blower. 
0698C:  BSF    F96.1
0698E:  BTFSC  F84.1
06990:  BRA    69AE
....................          if(Flanco3 == 0){ 
06992:  MOVLB  4
06994:  BTFSC  x36.6
06996:  BRA    69AA
....................             Flanco3 = 1;delay_ms(5);flag_blower=!flag_blower; 
06998:  BSF    x36.6
0699A:  MOVLW  05
0699C:  MOVLB  6
0699E:  MOVWF  x86
069A0:  MOVLB  0
069A2:  CALL   1346
069A6:  MOVLB  4
069A8:  BTG    x43.4
....................          } 
....................       }else{ 
069AA:  BRA    69B2
069AC:  MOVLB  0
....................          Flanco3 = 0; 
069AE:  MOVLB  4
069B0:  BCF    x36.6
....................       } 
....................              
....................       if(DOWN){//Si oprime boton de Luz Blanca. 
069B2:  BSF    F96.0
069B4:  BTFSC  F84.0
069B6:  BRA    69D0
....................          if(Flanco5 == 0){ 
069B8:  BTFSC  x43.0
069BA:  BRA    69CE
....................             Flanco5 = 1;delay_ms(5);flag_luz=!flag_luz; 
069BC:  BSF    x43.0
069BE:  MOVLW  05
069C0:  MOVLB  6
069C2:  MOVWF  x86
069C4:  MOVLB  0
069C6:  CALL   1346
069CA:  MOVLB  4
069CC:  BTG    x43.6
....................          } 
....................       }else{ 
069CE:  BRA    69D2
....................          Flanco5 = 0; 
069D0:  BCF    x43.0
....................       } 
....................        
....................       if(UP){//Si oprime boton de Toma. 
069D2:  BSF    F92.5
069D4:  BTFSC  F80.5
069D6:  BRA    6A3A
....................          delay_ms(200); 
069D8:  MOVLW  C8
069DA:  MOVLB  6
069DC:  MOVWF  x86
069DE:  MOVLB  0
069E0:  CALL   1346
....................          if(UP){//Si oprime boton de Toma. 
069E4:  BSF    F92.5
069E6:  BTFSC  F80.5
069E8:  BRA    6A1C
....................             delay_ms(30);Menu=3;//glcd_fillScreen(OFF); 
069EA:  MOVLW  1E
069EC:  MOVLB  6
069EE:  MOVWF  x86
069F0:  MOVLB  0
069F2:  CALL   1346
069F6:  MOVLW  03
069F8:  MOVLB  5
069FA:  MOVWF  x03
....................             glcd_init(ON);             //Inicializa la glcd 
069FC:  MOVLW  01
069FE:  MOVLB  6
06A00:  MOVWF  x7D
06A02:  MOVLB  0
06A04:  CALL   1554
....................             glcd_fillScreen(OFF);      //Limpia la pantalla 
06A08:  MOVLB  6
06A0A:  CLRF   x85
06A0C:  MOVLB  0
06A0E:  CALL   1442
....................             glcd_update();   
06A12:  CALL   149C
....................             LuzBlanca_off; 
06A16:  BCF    F8B.0
06A18:  BCF    F94.0
....................          }else{ 
06A1A:  BRA    6A36
....................             if(Flanco6 == 0){ 
06A1C:  MOVLB  4
06A1E:  BTFSC  x43.1
06A20:  BRA    6A34
....................                Flanco6 = 1;delay_ms(30);flag_toma=!flag_toma; 
06A22:  BSF    x43.1
06A24:  MOVLW  1E
06A26:  MOVLB  6
06A28:  MOVWF  x86
06A2A:  MOVLB  0
06A2C:  CALL   1346
06A30:  MOVLB  4
06A32:  BTG    x43.5
06A34:  MOVLB  0
....................             } 
....................          } 
....................       }else{ 
06A36:  BRA    6A3E
06A38:  MOVLB  4
....................          Flanco6 = 0; 
06A3A:  BCF    x43.1
06A3C:  MOVLB  0
06A3E:  MOVLB  5
....................       } 
....................              
....................     } 
.................... //_--------------------------------------------------------------------------------------------------------------------------------------------------------        
....................  
.................... //_-------------------------------------------------------------------------------------------------------------------------------------------------------- 
....................       if(Menu==3){ //Menu Principal. 
06A40:  MOVF   x03,W
06A42:  SUBLW  03
06A44:  BTFSS  FD8.2
06A46:  BRA    6D30
....................              
....................       strcpy(Menus.Letra,"Menu"); 
06A48:  MOVLW  04
06A4A:  MOVWF  FEA
06A4C:  MOVLW  17
06A4E:  MOVWF  FE9
06A50:  MOVFF  FF2,67D
06A54:  BCF    FF2.7
06A56:  MOVLW  00
06A58:  MOVLB  0
06A5A:  CALL   0F80
06A5E:  TBLRD*-
06A60:  TBLRD*+
06A62:  MOVF   FF5,W
06A64:  MOVWF  FEE
06A66:  IORLW  00
06A68:  BNZ   6A60
06A6A:  MOVLB  6
06A6C:  BTFSC  x7D.7
06A6E:  BSF    FF2.7
....................       displayMenu(Menus.Letra,40,0,1,2); 
06A70:  MOVLW  04
06A72:  MOVWF  x86
06A74:  MOVLW  17
06A76:  MOVWF  x85
06A78:  MOVLW  28
06A7A:  MOVWF  x87
06A7C:  CLRF   x88
06A7E:  MOVLW  01
06A80:  MOVWF  x89
06A82:  MOVLW  02
06A84:  MOVWF  x8A
06A86:  MOVLB  0
06A88:  CALL   4AA0
....................        
....................       if(Opcion==1){ 
06A8C:  MOVLB  5
06A8E:  DECFSZ x05,W
06A90:  BRA    6AD8
....................          strcpy(Menus.Letra,"Ajustes"); 
06A92:  MOVLW  04
06A94:  MOVWF  FEA
06A96:  MOVLW  17
06A98:  MOVWF  FE9
06A9A:  MOVFF  FF2,67D
06A9E:  BCF    FF2.7
06AA0:  MOVLW  00
06AA2:  MOVLB  0
06AA4:  CALL   0FA4
06AA8:  TBLRD*-
06AAA:  TBLRD*+
06AAC:  MOVF   FF5,W
06AAE:  MOVWF  FEE
06AB0:  IORLW  00
06AB2:  BNZ   6AAA
06AB4:  MOVLB  6
06AB6:  BTFSC  x7D.7
06AB8:  BSF    FF2.7
....................          displayMenu(Menus.Letra,0,19,1,1); 
06ABA:  MOVLW  04
06ABC:  MOVWF  x86
06ABE:  MOVLW  17
06AC0:  MOVWF  x85
06AC2:  CLRF   x87
06AC4:  MOVLW  13
06AC6:  MOVWF  x88
06AC8:  MOVLW  01
06ACA:  MOVWF  x89
06ACC:  MOVWF  x8A
06ACE:  MOVLB  0
06AD0:  CALL   4AA0
....................       }else{ 
06AD4:  BRA    6B1A
06AD6:  MOVLB  5
....................          strcpy(Menus.Letra,"Ajustes"); 
06AD8:  MOVLW  04
06ADA:  MOVWF  FEA
06ADC:  MOVLW  17
06ADE:  MOVWF  FE9
06AE0:  MOVFF  FF2,67D
06AE4:  BCF    FF2.7
06AE6:  MOVLW  00
06AE8:  MOVLB  0
06AEA:  CALL   0FA4
06AEE:  TBLRD*-
06AF0:  TBLRD*+
06AF2:  MOVF   FF5,W
06AF4:  MOVWF  FEE
06AF6:  IORLW  00
06AF8:  BNZ   6AF0
06AFA:  MOVLB  6
06AFC:  BTFSC  x7D.7
06AFE:  BSF    FF2.7
....................          displayMenu(Menus.Letra,0,19,0,1); 
06B00:  MOVLW  04
06B02:  MOVWF  x86
06B04:  MOVLW  17
06B06:  MOVWF  x85
06B08:  CLRF   x87
06B0A:  MOVLW  13
06B0C:  MOVWF  x88
06B0E:  CLRF   x89
06B10:  MOVLW  01
06B12:  MOVWF  x8A
06B14:  MOVLB  0
06B16:  CALL   4AA0
....................       } 
....................           
....................       if(Opcion==2){ 
06B1A:  MOVLB  5
06B1C:  MOVF   x05,W
06B1E:  SUBLW  02
06B20:  BNZ   6B68
....................          strcpy(Menus.Letra,"Cambio de Clave"); 
06B22:  MOVLW  04
06B24:  MOVWF  FEA
06B26:  MOVLW  17
06B28:  MOVWF  FE9
06B2A:  MOVFF  FF2,67D
06B2E:  BCF    FF2.7
06B30:  MOVLW  00
06B32:  MOVLB  0
06B34:  CALL   0FCA
06B38:  TBLRD*-
06B3A:  TBLRD*+
06B3C:  MOVF   FF5,W
06B3E:  MOVWF  FEE
06B40:  IORLW  00
06B42:  BNZ   6B3A
06B44:  MOVLB  6
06B46:  BTFSC  x7D.7
06B48:  BSF    FF2.7
....................          displayMenu(Menus.Letra,0,35,1,1); 
06B4A:  MOVLW  04
06B4C:  MOVWF  x86
06B4E:  MOVLW  17
06B50:  MOVWF  x85
06B52:  CLRF   x87
06B54:  MOVLW  23
06B56:  MOVWF  x88
06B58:  MOVLW  01
06B5A:  MOVWF  x89
06B5C:  MOVWF  x8A
06B5E:  MOVLB  0
06B60:  CALL   4AA0
....................       }else{ 
06B64:  BRA    6BAA
06B66:  MOVLB  5
....................          strcpy(Menus.Letra,"Cambio de Clave"); 
06B68:  MOVLW  04
06B6A:  MOVWF  FEA
06B6C:  MOVLW  17
06B6E:  MOVWF  FE9
06B70:  MOVFF  FF2,67D
06B74:  BCF    FF2.7
06B76:  MOVLW  00
06B78:  MOVLB  0
06B7A:  CALL   0FCA
06B7E:  TBLRD*-
06B80:  TBLRD*+
06B82:  MOVF   FF5,W
06B84:  MOVWF  FEE
06B86:  IORLW  00
06B88:  BNZ   6B80
06B8A:  MOVLB  6
06B8C:  BTFSC  x7D.7
06B8E:  BSF    FF2.7
....................          displayMenu(Menus.Letra,0,35,0,1); 
06B90:  MOVLW  04
06B92:  MOVWF  x86
06B94:  MOVLW  17
06B96:  MOVWF  x85
06B98:  CLRF   x87
06B9A:  MOVLW  23
06B9C:  MOVWF  x88
06B9E:  CLRF   x89
06BA0:  MOVLW  01
06BA2:  MOVWF  x8A
06BA4:  MOVLB  0
06BA6:  CALL   4AA0
....................       } 
....................           
....................       if(Opcion==3){ 
06BAA:  MOVLB  5
06BAC:  MOVF   x05,W
06BAE:  SUBLW  03
06BB0:  BNZ   6BF8
....................          strcpy(Menus.Letra,"Modo"); 
06BB2:  MOVLW  04
06BB4:  MOVWF  FEA
06BB6:  MOVLW  17
06BB8:  MOVWF  FE9
06BBA:  MOVFF  FF2,67D
06BBE:  BCF    FF2.7
06BC0:  MOVLW  00
06BC2:  MOVLB  0
06BC4:  CALL   0FF8
06BC8:  TBLRD*-
06BCA:  TBLRD*+
06BCC:  MOVF   FF5,W
06BCE:  MOVWF  FEE
06BD0:  IORLW  00
06BD2:  BNZ   6BCA
06BD4:  MOVLB  6
06BD6:  BTFSC  x7D.7
06BD8:  BSF    FF2.7
....................          displayMenu(Menus.Letra,0,51,1,1); 
06BDA:  MOVLW  04
06BDC:  MOVWF  x86
06BDE:  MOVLW  17
06BE0:  MOVWF  x85
06BE2:  CLRF   x87
06BE4:  MOVLW  33
06BE6:  MOVWF  x88
06BE8:  MOVLW  01
06BEA:  MOVWF  x89
06BEC:  MOVWF  x8A
06BEE:  MOVLB  0
06BF0:  CALL   4AA0
....................       }else{ 
06BF4:  BRA    6C3A
06BF6:  MOVLB  5
....................          strcpy(Menus.Letra,"Modo"); 
06BF8:  MOVLW  04
06BFA:  MOVWF  FEA
06BFC:  MOVLW  17
06BFE:  MOVWF  FE9
06C00:  MOVFF  FF2,67D
06C04:  BCF    FF2.7
06C06:  MOVLW  00
06C08:  MOVLB  0
06C0A:  CALL   0FF8
06C0E:  TBLRD*-
06C10:  TBLRD*+
06C12:  MOVF   FF5,W
06C14:  MOVWF  FEE
06C16:  IORLW  00
06C18:  BNZ   6C10
06C1A:  MOVLB  6
06C1C:  BTFSC  x7D.7
06C1E:  BSF    FF2.7
....................          displayMenu(Menus.Letra,0,51,0,1); 
06C20:  MOVLW  04
06C22:  MOVWF  x86
06C24:  MOVLW  17
06C26:  MOVWF  x85
06C28:  CLRF   x87
06C2A:  MOVLW  33
06C2C:  MOVWF  x88
06C2E:  CLRF   x89
06C30:  MOVLW  01
06C32:  MOVWF  x8A
06C34:  MOVLB  0
06C36:  CALL   4AA0
....................       } 
....................       glcd_update();  
06C3A:  CALL   149C
....................        
....................       if(w==0){ 
06C3E:  MOVLB  4
06C40:  BTFSC  x44.0
06C42:  BRA    6C5E
....................          delay_ms(500);w=1; 
06C44:  MOVLW  02
06C46:  MOVLB  6
06C48:  MOVWF  x7D
06C4A:  MOVLW  FA
06C4C:  MOVWF  x86
06C4E:  MOVLB  0
06C50:  CALL   1346
06C54:  MOVLB  6
06C56:  DECFSZ x7D,F
06C58:  BRA    6C4A
06C5A:  MOVLB  4
06C5C:  BSF    x44.0
....................       } 
....................           
....................       if(UP){//Si oprime hacia arriba         
06C5E:  BSF    F92.5
06C60:  BTFSC  F80.5
06C62:  BRA    6C7E
....................          if(Flanco == 0){ 
06C64:  BTFSC  x36.3
06C66:  BRA    6C7C
....................             Flanco = 1;delay_ms(30);Opcion--; 
06C68:  BSF    x36.3
06C6A:  MOVLW  1E
06C6C:  MOVLB  6
06C6E:  MOVWF  x86
06C70:  MOVLB  0
06C72:  CALL   1346
06C76:  MOVLB  5
06C78:  DECF   x05,F
06C7A:  MOVLB  4
....................          } 
....................       }else{ 
06C7C:  BRA    6C80
....................          Flanco = 0; 
06C7E:  BCF    x36.3
....................       } 
....................              
....................       if(DOWN){//Si oprime hacia abajo 
06C80:  BSF    F96.0
06C82:  BTFSC  F84.0
06C84:  BRA    6CA0
....................          if(Flanco2 == 0){ 
06C86:  BTFSC  x36.5
06C88:  BRA    6C9E
....................             Flanco2 = 1;delay_ms(30);Opcion++; 
06C8A:  BSF    x36.5
06C8C:  MOVLW  1E
06C8E:  MOVLB  6
06C90:  MOVWF  x86
06C92:  MOVLB  0
06C94:  CALL   1346
06C98:  MOVLB  5
06C9A:  INCF   x05,F
06C9C:  MOVLB  4
....................          } 
....................       }else{ 
06C9E:  BRA    6CA2
....................          Flanco2 = 0; 
06CA0:  BCF    x36.5
....................       } 
....................              
....................       if(RIGHT){//Si oprime SET 
06CA2:  BSF    F96.1
06CA4:  BTFSC  F84.1
06CA6:  BRA    6CEE
....................          if(Flanco1 == 0){ 
06CA8:  BTFSC  x36.4
06CAA:  BRA    6CEC
....................             Flanco1 = 1;delay_ms(500);Menu=Opcion+3;Opcion=1;glcd_fillscreen(OFF);unidad=1; 
06CAC:  BSF    x36.4
06CAE:  MOVLW  02
06CB0:  MOVLB  6
06CB2:  MOVWF  x7D
06CB4:  MOVLW  FA
06CB6:  MOVWF  x86
06CB8:  MOVLB  0
06CBA:  CALL   1346
06CBE:  MOVLB  6
06CC0:  DECFSZ x7D,F
06CC2:  BRA    6CB4
06CC4:  MOVLW  03
06CC6:  MOVLB  5
06CC8:  ADDWF  x05,W
06CCA:  MOVWF  x03
06CCC:  MOVLW  01
06CCE:  MOVWF  x05
06CD0:  MOVLB  6
06CD2:  CLRF   x85
06CD4:  MOVLB  0
06CD6:  CALL   1442
06CDA:  MOVLW  01
06CDC:  MOVLB  5
06CDE:  MOVWF  x04
....................             Contrasena[0]=0;Contrasena[1]=0;Contrasena[2]=0;Contrasena[3]=0;n=0; 
06CE0:  CLRF   x47
06CE2:  CLRF   x48
06CE4:  CLRF   x49
06CE6:  CLRF   x4A
06CE8:  MOVLB  4
06CEA:  BCF    x45.2
....................          } 
....................       }else{ 
06CEC:  BRA    6CF0
....................          Flanco1 = 0; 
06CEE:  BCF    x36.4
....................       } 
....................              
....................       if(LEFT){//Si oprime boton de Toma. 
06CF0:  BSF    F96.2
06CF2:  BTFSC  F84.2
06CF4:  BRA    6D1C
....................          delay_ms(700);Menu=2;glcd_fillscreen(OFF); 
06CF6:  MOVLW  04
06CF8:  MOVLB  6
06CFA:  MOVWF  x7D
06CFC:  MOVLW  AF
06CFE:  MOVWF  x86
06D00:  MOVLB  0
06D02:  CALL   1346
06D06:  MOVLB  6
06D08:  DECFSZ x7D,F
06D0A:  BRA    6CFC
06D0C:  MOVLW  02
06D0E:  MOVLB  5
06D10:  MOVWF  x03
06D12:  MOVLB  6
06D14:  CLRF   x85
06D16:  MOVLB  0
06D18:  CALL   1442
....................       } 
....................              
....................       if(Opcion>3) 
06D1C:  MOVLB  5
06D1E:  MOVF   x05,W
06D20:  SUBLW  03
06D22:  BC    6D28
....................          Opcion=1; 
06D24:  MOVLW  01
06D26:  MOVWF  x05
....................       if(Opcion<1) 
06D28:  MOVF   x05,F
06D2A:  BNZ   6D30
....................          Opcion=3; 
06D2C:  MOVLW  03
06D2E:  MOVWF  x05
....................     } 
.................... //_--------------------------------------------------------------------------------------------------------------------------------------------------------        
....................  
.................... //_-------------------------------------------------------------------------------------------------------------------------------------------------------- 
....................       if(Menu==4){ //Menu de Ajustes. 
06D30:  MOVF   x03,W
06D32:  SUBLW  04
06D34:  BTFSS  FD8.2
06D36:  BRA    6ECA
....................        
....................       strcpy(Menus.Letra,"Ajustes"); 
06D38:  MOVLW  04
06D3A:  MOVWF  FEA
06D3C:  MOVLW  17
06D3E:  MOVWF  FE9
06D40:  MOVFF  FF2,67D
06D44:  BCF    FF2.7
06D46:  MOVLW  00
06D48:  MOVLB  0
06D4A:  CALL   0FA4
06D4E:  TBLRD*-
06D50:  TBLRD*+
06D52:  MOVF   FF5,W
06D54:  MOVWF  FEE
06D56:  IORLW  00
06D58:  BNZ   6D50
06D5A:  MOVLB  6
06D5C:  BTFSC  x7D.7
06D5E:  BSF    FF2.7
....................       displayMenu(Menus.Letra,0,0,1,2); 
06D60:  MOVLW  04
06D62:  MOVWF  x86
06D64:  MOVLW  17
06D66:  MOVWF  x85
06D68:  CLRF   x87
06D6A:  CLRF   x88
06D6C:  MOVLW  01
06D6E:  MOVWF  x89
06D70:  MOVLW  02
06D72:  MOVWF  x8A
06D74:  MOVLB  0
06D76:  CALL   4AA0
....................        
....................       if(Opcion==1)    
06D7A:  MOVLB  5
06D7C:  DECFSZ x05,W
06D7E:  BRA    6DC6
....................          {strcpy(Menus.Letra,"Tiempo Purga"); 
06D80:  MOVLW  04
06D82:  MOVWF  FEA
06D84:  MOVLW  17
06D86:  MOVWF  FE9
06D88:  MOVFF  FF2,67D
06D8C:  BCF    FF2.7
06D8E:  MOVLW  00
06D90:  MOVLB  0
06D92:  CALL   101C
06D96:  TBLRD*-
06D98:  TBLRD*+
06D9A:  MOVF   FF5,W
06D9C:  MOVWF  FEE
06D9E:  IORLW  00
06DA0:  BNZ   6D98
06DA2:  MOVLB  6
06DA4:  BTFSC  x7D.7
06DA6:  BSF    FF2.7
....................          displayMenu(Menus.Letra,0,20,1,1);} 
06DA8:  MOVLW  04
06DAA:  MOVWF  x86
06DAC:  MOVLW  17
06DAE:  MOVWF  x85
06DB0:  CLRF   x87
06DB2:  MOVLW  14
06DB4:  MOVWF  x88
06DB6:  MOVLW  01
06DB8:  MOVWF  x89
06DBA:  MOVWF  x8A
06DBC:  MOVLB  0
06DBE:  CALL   4AA0
....................       else 
06DC2:  BRA    6E08
06DC4:  MOVLB  5
....................          {strcpy(Menus.Letra,"Tiempo Purga"); 
06DC6:  MOVLW  04
06DC8:  MOVWF  FEA
06DCA:  MOVLW  17
06DCC:  MOVWF  FE9
06DCE:  MOVFF  FF2,67D
06DD2:  BCF    FF2.7
06DD4:  MOVLW  00
06DD6:  MOVLB  0
06DD8:  CALL   101C
06DDC:  TBLRD*-
06DDE:  TBLRD*+
06DE0:  MOVF   FF5,W
06DE2:  MOVWF  FEE
06DE4:  IORLW  00
06DE6:  BNZ   6DDE
06DE8:  MOVLB  6
06DEA:  BTFSC  x7D.7
06DEC:  BSF    FF2.7
....................          displayMenu(Menus.Letra,0,20,0,1);}              
06DEE:  MOVLW  04
06DF0:  MOVWF  x86
06DF2:  MOVLW  17
06DF4:  MOVWF  x85
06DF6:  CLRF   x87
06DF8:  MOVLW  14
06DFA:  MOVWF  x88
06DFC:  CLRF   x89
06DFE:  MOVLW  01
06E00:  MOVWF  x8A
06E02:  MOVLB  0
06E04:  CALL   4AA0
....................          
....................       if(UP)//Si oprime hacia arriba 
06E08:  BSF    F92.5
06E0A:  BTFSC  F80.5
06E0C:  BRA    6E2A
....................       {  if(Flanco == 0)  
06E0E:  MOVLB  4
06E10:  BTFSC  x36.3
06E12:  BRA    6E28
....................             {Flanco = 1;delay_ms(30);Opcion--; 
06E14:  BSF    x36.3
06E16:  MOVLW  1E
06E18:  MOVLB  6
06E1A:  MOVWF  x86
06E1C:  MOVLB  0
06E1E:  CALL   1346
06E22:  MOVLB  5
06E24:  DECF   x05,F
06E26:  MOVLB  4
....................             } 
....................       } 
....................          else 
06E28:  BRA    6E2E
....................             {Flanco = 0;} 
06E2A:  MOVLB  4
06E2C:  BCF    x36.3
....................              
....................       if(DOWN)//Si oprime hacia abajo 
06E2E:  BSF    F96.0
06E30:  BTFSC  F84.0
06E32:  BRA    6E4E
....................       {  if(Flanco2 == 0)  
06E34:  BTFSC  x36.5
06E36:  BRA    6E4C
....................             {Flanco2 = 1;delay_ms(30);Opcion++; 
06E38:  BSF    x36.5
06E3A:  MOVLW  1E
06E3C:  MOVLB  6
06E3E:  MOVWF  x86
06E40:  MOVLB  0
06E42:  CALL   1346
06E46:  MOVLB  5
06E48:  INCF   x05,F
06E4A:  MOVLB  4
....................             }      
....................       } 
....................          else 
06E4C:  BRA    6E50
....................             {Flanco2 = 0;}   
06E4E:  BCF    x36.5
....................              
....................       if(RIGHT)//Si oprime SET 
06E50:  BSF    F96.1
06E52:  BTFSC  F84.1
06E54:  BRA    6E88
....................       {  if(Flanco1 == 0)  
06E56:  BTFSC  x36.4
06E58:  BRA    6E86
....................             {Flanco1 = 1;delay_ms(500);Menu=Opcion+10;glcd_fillScreen(OFF); 
06E5A:  BSF    x36.4
06E5C:  MOVLW  02
06E5E:  MOVLB  6
06E60:  MOVWF  x7D
06E62:  MOVLW  FA
06E64:  MOVWF  x86
06E66:  MOVLB  0
06E68:  CALL   1346
06E6C:  MOVLB  6
06E6E:  DECFSZ x7D,F
06E70:  BRA    6E62
06E72:  MOVLW  0A
06E74:  MOVLB  5
06E76:  ADDWF  x05,W
06E78:  MOVWF  x03
06E7A:  MOVLB  6
06E7C:  CLRF   x85
06E7E:  MOVLB  0
06E80:  CALL   1442
06E84:  MOVLB  4
....................             } 
....................       } 
....................          else 
06E86:  BRA    6E8A
....................             {Flanco1 = 0;}   
06E88:  BCF    x36.4
....................              
....................       if(LEFT)//Si oprime boton de Toma. 
06E8A:  BSF    F96.2
06E8C:  BTFSC  F84.2
06E8E:  BRA    6EB6
....................         {delay_ms(700);Menu=3;glcd_fillscreen(OFF);} 
06E90:  MOVLW  04
06E92:  MOVLB  6
06E94:  MOVWF  x7D
06E96:  MOVLW  AF
06E98:  MOVWF  x86
06E9A:  MOVLB  0
06E9C:  CALL   1346
06EA0:  MOVLB  6
06EA2:  DECFSZ x7D,F
06EA4:  BRA    6E96
06EA6:  MOVLW  03
06EA8:  MOVLB  5
06EAA:  MOVWF  x03
06EAC:  MOVLB  6
06EAE:  CLRF   x85
06EB0:  MOVLB  0
06EB2:  CALL   1442
....................        
....................       if(Opcion>1) 
06EB6:  MOVLB  5
06EB8:  MOVF   x05,W
06EBA:  SUBLW  01
06EBC:  BC    6EC2
....................       {Opcion=1;} 
06EBE:  MOVLW  01
06EC0:  MOVWF  x05
....................       if(Opcion<1) 
06EC2:  MOVF   x05,F
06EC4:  BNZ   6ECA
....................       {Opcion=1;} 
06EC6:  MOVLW  01
06EC8:  MOVWF  x05
....................      
....................     } 
.................... //_--------------------------------------------------------------------------------------------------------------------------------------------------------        
....................  
.................... //_-------------------------------------------------------------------------------------------------------------------------------------------------------- 
....................       if(Menu==6){ //Menu de Modo. 
06ECA:  MOVF   x03,W
06ECC:  SUBLW  06
06ECE:  BTFSS  FD8.2
06ED0:  BRA    70FE
....................        
....................       strcpy(Menus.Letra,"Modo"); 
06ED2:  MOVLW  04
06ED4:  MOVWF  FEA
06ED6:  MOVLW  17
06ED8:  MOVWF  FE9
06EDA:  MOVFF  FF2,67D
06EDE:  BCF    FF2.7
06EE0:  MOVLW  00
06EE2:  MOVLB  0
06EE4:  CALL   0FF8
06EE8:  TBLRD*-
06EEA:  TBLRD*+
06EEC:  MOVF   FF5,W
06EEE:  MOVWF  FEE
06EF0:  IORLW  00
06EF2:  BNZ   6EEA
06EF4:  MOVLB  6
06EF6:  BTFSC  x7D.7
06EF8:  BSF    FF2.7
....................       displayMenu(Menus.Letra,40,0,1,2); 
06EFA:  MOVLW  04
06EFC:  MOVWF  x86
06EFE:  MOVLW  17
06F00:  MOVWF  x85
06F02:  MOVLW  28
06F04:  MOVWF  x87
06F06:  CLRF   x88
06F08:  MOVLW  01
06F0A:  MOVWF  x89
06F0C:  MOVLW  02
06F0E:  MOVWF  x8A
06F10:  MOVLB  0
06F12:  CALL   4AA0
....................           
....................       if(Opcion==1)    
06F16:  MOVLB  5
06F18:  DECFSZ x05,W
06F1A:  BRA    6F62
....................          {strcpy(Menus.Letra,"Mantenimiento"); 
06F1C:  MOVLW  04
06F1E:  MOVWF  FEA
06F20:  MOVLW  17
06F22:  MOVWF  FE9
06F24:  MOVFF  FF2,67D
06F28:  BCF    FF2.7
06F2A:  MOVLW  00
06F2C:  MOVLB  0
06F2E:  CALL   1048
06F32:  TBLRD*-
06F34:  TBLRD*+
06F36:  MOVF   FF5,W
06F38:  MOVWF  FEE
06F3A:  IORLW  00
06F3C:  BNZ   6F34
06F3E:  MOVLB  6
06F40:  BTFSC  x7D.7
06F42:  BSF    FF2.7
....................          displayMenu(Menus.Letra,0,19,1,1);} 
06F44:  MOVLW  04
06F46:  MOVWF  x86
06F48:  MOVLW  17
06F4A:  MOVWF  x85
06F4C:  CLRF   x87
06F4E:  MOVLW  13
06F50:  MOVWF  x88
06F52:  MOVLW  01
06F54:  MOVWF  x89
06F56:  MOVWF  x8A
06F58:  MOVLB  0
06F5A:  CALL   4AA0
....................       else 
06F5E:  BRA    6FA4
06F60:  MOVLB  5
....................          {strcpy(Menus.Letra,"Mantenimiento"); 
06F62:  MOVLW  04
06F64:  MOVWF  FEA
06F66:  MOVLW  17
06F68:  MOVWF  FE9
06F6A:  MOVFF  FF2,67D
06F6E:  BCF    FF2.7
06F70:  MOVLW  00
06F72:  MOVLB  0
06F74:  CALL   1048
06F78:  TBLRD*-
06F7A:  TBLRD*+
06F7C:  MOVF   FF5,W
06F7E:  MOVWF  FEE
06F80:  IORLW  00
06F82:  BNZ   6F7A
06F84:  MOVLB  6
06F86:  BTFSC  x7D.7
06F88:  BSF    FF2.7
....................          displayMenu(Menus.Letra,0,19,0,1);}    
06F8A:  MOVLW  04
06F8C:  MOVWF  x86
06F8E:  MOVLW  17
06F90:  MOVWF  x85
06F92:  CLRF   x87
06F94:  MOVLW  13
06F96:  MOVWF  x88
06F98:  CLRF   x89
06F9A:  MOVLW  01
06F9C:  MOVWF  x8A
06F9E:  MOVLB  0
06FA0:  CALL   4AA0
....................           
....................       if(Opcion==2)    
06FA4:  MOVLB  5
06FA6:  MOVF   x05,W
06FA8:  SUBLW  02
06FAA:  BNZ   6FF2
....................          {strcpy(Menus.Letra,"Servicio"); 
06FAC:  MOVLW  04
06FAE:  MOVWF  FEA
06FB0:  MOVLW  17
06FB2:  MOVWF  FE9
06FB4:  MOVFF  FF2,67D
06FB8:  BCF    FF2.7
06FBA:  MOVLW  00
06FBC:  MOVLB  0
06FBE:  CALL   1074
06FC2:  TBLRD*-
06FC4:  TBLRD*+
06FC6:  MOVF   FF5,W
06FC8:  MOVWF  FEE
06FCA:  IORLW  00
06FCC:  BNZ   6FC4
06FCE:  MOVLB  6
06FD0:  BTFSC  x7D.7
06FD2:  BSF    FF2.7
....................          displayMenu(Menus.Letra,0,35,1,1);} 
06FD4:  MOVLW  04
06FD6:  MOVWF  x86
06FD8:  MOVLW  17
06FDA:  MOVWF  x85
06FDC:  CLRF   x87
06FDE:  MOVLW  23
06FE0:  MOVWF  x88
06FE2:  MOVLW  01
06FE4:  MOVWF  x89
06FE6:  MOVWF  x8A
06FE8:  MOVLB  0
06FEA:  CALL   4AA0
....................       else 
06FEE:  BRA    7034
06FF0:  MOVLB  5
....................          {strcpy(Menus.Letra,"Servicio"); 
06FF2:  MOVLW  04
06FF4:  MOVWF  FEA
06FF6:  MOVLW  17
06FF8:  MOVWF  FE9
06FFA:  MOVFF  FF2,67D
06FFE:  BCF    FF2.7
07000:  MOVLW  00
07002:  MOVLB  0
07004:  CALL   1074
07008:  TBLRD*-
0700A:  TBLRD*+
0700C:  MOVF   FF5,W
0700E:  MOVWF  FEE
07010:  IORLW  00
07012:  BNZ   700A
07014:  MOVLB  6
07016:  BTFSC  x7D.7
07018:  BSF    FF2.7
....................          displayMenu(Menus.Letra,0,35,0,1);} 
0701A:  MOVLW  04
0701C:  MOVWF  x86
0701E:  MOVLW  17
07020:  MOVWF  x85
07022:  CLRF   x87
07024:  MOVLW  23
07026:  MOVWF  x88
07028:  CLRF   x89
0702A:  MOVLW  01
0702C:  MOVWF  x8A
0702E:  MOVLB  0
07030:  CALL   4AA0
....................           
....................       if(UP)//Si oprime hacia arriba 
07034:  BSF    F92.5
07036:  BTFSC  F80.5
07038:  BRA    7056
....................       {  if(Flanco == 0)  
0703A:  MOVLB  4
0703C:  BTFSC  x36.3
0703E:  BRA    7054
....................             {Flanco = 1;delay_ms(30);Opcion--; 
07040:  BSF    x36.3
07042:  MOVLW  1E
07044:  MOVLB  6
07046:  MOVWF  x86
07048:  MOVLB  0
0704A:  CALL   1346
0704E:  MOVLB  5
07050:  DECF   x05,F
07052:  MOVLB  4
....................             } 
....................       } 
....................          else 
07054:  BRA    705A
....................             {Flanco = 0;} 
07056:  MOVLB  4
07058:  BCF    x36.3
....................              
....................       if(DOWN)//Si oprime hacia abajo 
0705A:  BSF    F96.0
0705C:  BTFSC  F84.0
0705E:  BRA    707A
....................       {  if(Flanco2 == 0)  
07060:  BTFSC  x36.5
07062:  BRA    7078
....................             {Flanco2 = 1;delay_ms(30);Opcion++; 
07064:  BSF    x36.5
07066:  MOVLW  1E
07068:  MOVLB  6
0706A:  MOVWF  x86
0706C:  MOVLB  0
0706E:  CALL   1346
07072:  MOVLB  5
07074:  INCF   x05,F
07076:  MOVLB  4
....................             }      
....................       } 
....................          else 
07078:  BRA    707C
....................             {Flanco2 = 0;}   
0707A:  BCF    x36.5
....................              
....................       if(RIGHT)//Si oprime SET 
0707C:  BSF    F96.1
0707E:  BTFSC  F84.1
07080:  BRA    70BC
....................       {  if(Flanco1 == 0)  
07082:  BTFSC  x36.4
07084:  BRA    70BA
....................             {Flanco1 = 1;delay_ms(500);Menu=Opcion+30;glcd_fillScreen(OFF);Opcion=1;unidad=1; 
07086:  BSF    x36.4
07088:  MOVLW  02
0708A:  MOVLB  6
0708C:  MOVWF  x7D
0708E:  MOVLW  FA
07090:  MOVWF  x86
07092:  MOVLB  0
07094:  CALL   1346
07098:  MOVLB  6
0709A:  DECFSZ x7D,F
0709C:  BRA    708E
0709E:  MOVLW  1E
070A0:  MOVLB  5
070A2:  ADDWF  x05,W
070A4:  MOVWF  x03
070A6:  MOVLB  6
070A8:  CLRF   x85
070AA:  MOVLB  0
070AC:  CALL   1442
070B0:  MOVLW  01
070B2:  MOVLB  5
070B4:  MOVWF  x05
070B6:  MOVWF  x04
070B8:  MOVLB  4
....................             } 
....................       } 
....................          else 
070BA:  BRA    70BE
....................             {Flanco1 = 0;}   
070BC:  BCF    x36.4
....................              
....................       if(LEFT)//Si oprime boton de Toma. 
070BE:  BSF    F96.2
070C0:  BTFSC  F84.2
070C2:  BRA    70EA
....................         {delay_ms(700);Menu=3;glcd_fillscreen(OFF);} 
070C4:  MOVLW  04
070C6:  MOVLB  6
070C8:  MOVWF  x7D
070CA:  MOVLW  AF
070CC:  MOVWF  x86
070CE:  MOVLB  0
070D0:  CALL   1346
070D4:  MOVLB  6
070D6:  DECFSZ x7D,F
070D8:  BRA    70CA
070DA:  MOVLW  03
070DC:  MOVLB  5
070DE:  MOVWF  x03
070E0:  MOVLB  6
070E2:  CLRF   x85
070E4:  MOVLB  0
070E6:  CALL   1442
....................       if(Opcion>2) 
070EA:  MOVLB  5
070EC:  MOVF   x05,W
070EE:  SUBLW  02
070F0:  BC    70F6
....................       {Opcion=1;} 
070F2:  MOVLW  01
070F4:  MOVWF  x05
....................       if(Opcion<1) 
070F6:  MOVF   x05,F
070F8:  BNZ   70FE
....................       {Opcion=2;} 
070FA:  MOVLW  02
070FC:  MOVWF  x05
....................      
....................     } 
.................... //_--------------------------------------------------------------------------------------------------------------------------------------------------------        
....................  
.................... //_-------------------------------------------------------------------------------------------------------------------------------------------------------- 
....................       if(Menu==11){ //Menu de Purga. 
070FE:  MOVF   x03,W
07100:  SUBLW  0B
07102:  BTFSS  FD8.2
07104:  BRA    74CE
....................        
....................       strcpy(Menus.Letra,"T. Purga"); 
07106:  MOVLW  04
07108:  MOVWF  FEA
0710A:  MOVLW  17
0710C:  MOVWF  FE9
0710E:  MOVFF  FF2,67D
07112:  BCF    FF2.7
07114:  MOVLW  00
07116:  MOVLB  0
07118:  CALL   109C
0711C:  TBLRD*-
0711E:  TBLRD*+
07120:  MOVF   FF5,W
07122:  MOVWF  FEE
07124:  IORLW  00
07126:  BNZ   711E
07128:  MOVLB  6
0712A:  BTFSC  x7D.7
0712C:  BSF    FF2.7
....................       displayMenu(Menus.Letra,10,0,1,2); 
0712E:  MOVLW  04
07130:  MOVWF  x86
07132:  MOVLW  17
07134:  MOVWF  x85
07136:  MOVLW  0A
07138:  MOVWF  x87
0713A:  CLRF   x88
0713C:  MOVLW  01
0713E:  MOVWF  x89
07140:  MOVLW  02
07142:  MOVWF  x8A
07144:  MOVLB  0
07146:  CALL   4AA0
....................        
....................       if(unidad==4) 
0714A:  MOVLB  5
0714C:  MOVF   x04,W
0714E:  SUBLW  04
07150:  BNZ   7170
....................       {displayTiempo(Tpurgap[3],20,40,1,2);} 
07152:  MOVFF  52E,67D
07156:  MOVLW  14
07158:  MOVLB  6
0715A:  MOVWF  x7E
0715C:  MOVLW  28
0715E:  MOVWF  x7F
07160:  MOVLW  01
07162:  MOVWF  x80
07164:  MOVLW  02
07166:  MOVWF  x81
07168:  MOVLB  0
0716A:  CALL   528A
....................       else 
0716E:  BRA    718A
....................       {displayTiempo(Tpurgap[3],20,40,0,2);} 
07170:  MOVFF  52E,67D
07174:  MOVLW  14
07176:  MOVLB  6
07178:  MOVWF  x7E
0717A:  MOVLW  28
0717C:  MOVWF  x7F
0717E:  CLRF   x80
07180:  MOVLW  02
07182:  MOVWF  x81
07184:  MOVLB  0
07186:  CALL   528A
....................        
....................       if(unidad==3) 
0718A:  MOVLB  5
0718C:  MOVF   x04,W
0718E:  SUBLW  03
07190:  BNZ   71AE
....................       {displayTiempo(Tpurgap[2],40,40,1,2);} 
07192:  MOVFF  52D,67D
07196:  MOVLW  28
07198:  MOVLB  6
0719A:  MOVWF  x7E
0719C:  MOVWF  x7F
0719E:  MOVLW  01
071A0:  MOVWF  x80
071A2:  MOVLW  02
071A4:  MOVWF  x81
071A6:  MOVLB  0
071A8:  CALL   528A
....................       else 
071AC:  BRA    71C6
....................       {displayTiempo(Tpurgap[2],40,40,0,2);} 
071AE:  MOVFF  52D,67D
071B2:  MOVLW  28
071B4:  MOVLB  6
071B6:  MOVWF  x7E
071B8:  MOVWF  x7F
071BA:  CLRF   x80
071BC:  MOVLW  02
071BE:  MOVWF  x81
071C0:  MOVLB  0
071C2:  CALL   528A
....................        
....................       if(unidad==2) 
071C6:  MOVLB  5
071C8:  MOVF   x04,W
071CA:  SUBLW  02
071CC:  BNZ   71EC
....................       {displayTiempo(Tpurgap[1],70,40,1,2);} 
071CE:  MOVFF  52C,67D
071D2:  MOVLW  46
071D4:  MOVLB  6
071D6:  MOVWF  x7E
071D8:  MOVLW  28
071DA:  MOVWF  x7F
071DC:  MOVLW  01
071DE:  MOVWF  x80
071E0:  MOVLW  02
071E2:  MOVWF  x81
071E4:  MOVLB  0
071E6:  CALL   528A
....................       else 
071EA:  BRA    7206
....................       {displayTiempo(Tpurgap[1],70,40,0,2);} 
071EC:  MOVFF  52C,67D
071F0:  MOVLW  46
071F2:  MOVLB  6
071F4:  MOVWF  x7E
071F6:  MOVLW  28
071F8:  MOVWF  x7F
071FA:  CLRF   x80
071FC:  MOVLW  02
071FE:  MOVWF  x81
07200:  MOVLB  0
07202:  CALL   528A
....................        
....................       if(unidad==1) 
07206:  MOVLB  5
07208:  DECFSZ x04,W
0720A:  BRA    722A
....................       {displayTiempo(Tpurgap[0],90,40,1,2);} 
0720C:  MOVFF  52B,67D
07210:  MOVLW  5A
07212:  MOVLB  6
07214:  MOVWF  x7E
07216:  MOVLW  28
07218:  MOVWF  x7F
0721A:  MOVLW  01
0721C:  MOVWF  x80
0721E:  MOVLW  02
07220:  MOVWF  x81
07222:  MOVLB  0
07224:  CALL   528A
....................       else 
07228:  BRA    7244
....................       {displayTiempo(Tpurgap[0],90,40,0,2);} 
0722A:  MOVFF  52B,67D
0722E:  MOVLW  5A
07230:  MOVLB  6
07232:  MOVWF  x7E
07234:  MOVLW  28
07236:  MOVWF  x7F
07238:  CLRF   x80
0723A:  MOVLW  02
0723C:  MOVWF  x81
0723E:  MOVLB  0
07240:  CALL   528A
....................        
....................       glcd_text57(60, 42, Dos_puntos, 2, ON); 
07244:  MOVLW  3C
07246:  MOVLB  6
07248:  MOVWF  x96
0724A:  MOVLW  2A
0724C:  MOVWF  x97
0724E:  MOVLW  04
07250:  MOVWF  x99
07252:  MOVLW  6B
07254:  MOVWF  x98
07256:  MOVLW  02
07258:  MOVWF  x9A
0725A:  MOVLW  01
0725C:  MOVWF  x9B
0725E:  MOVLB  0
07260:  CALL   16B8
....................           
....................          
....................       if(UP)//Si oprime hacia arriba 
07264:  BSF    F92.5
07266:  BTFSC  F80.5
07268:  BRA    7296
....................       {  if(Flanco == 0)  
0726A:  MOVLB  4
0726C:  BTFSC  x36.3
0726E:  BRA    7294
....................             {Flanco = 1;delay_ms(30);Tpurgap[unidad-1]++; 
07270:  BSF    x36.3
07272:  MOVLW  1E
07274:  MOVLB  6
07276:  MOVWF  x86
07278:  MOVLB  0
0727A:  CALL   1346
0727E:  MOVLW  01
07280:  MOVLB  5
07282:  SUBWF  x04,W
07284:  CLRF   03
07286:  ADDLW  2B
07288:  MOVWF  FE9
0728A:  MOVLW  05
0728C:  ADDWFC 03,W
0728E:  MOVWF  FEA
07290:  INCF   FEF,F
07292:  MOVLB  4
....................             } 
....................       } 
....................          else 
07294:  BRA    729A
....................             {Flanco = 0;} 
07296:  MOVLB  4
07298:  BCF    x36.3
....................              
....................       if(DOWN)//Si oprime hacia abajo 
0729A:  BSF    F96.0
0729C:  BTFSC  F84.0
0729E:  BRA    72CA
....................       {  if(Flanco2 == 0)  
072A0:  BTFSC  x36.5
072A2:  BRA    72C8
....................             {Flanco2 = 1;delay_ms(30);Tpurgap[unidad-1]--; 
072A4:  BSF    x36.5
072A6:  MOVLW  1E
072A8:  MOVLB  6
072AA:  MOVWF  x86
072AC:  MOVLB  0
072AE:  CALL   1346
072B2:  MOVLW  01
072B4:  MOVLB  5
072B6:  SUBWF  x04,W
072B8:  CLRF   03
072BA:  ADDLW  2B
072BC:  MOVWF  FE9
072BE:  MOVLW  05
072C0:  ADDWFC 03,W
072C2:  MOVWF  FEA
072C4:  DECF   FEF,F
072C6:  MOVLB  4
....................             }      
....................       } 
....................          else 
072C8:  BRA    72CC
....................             {Flanco2 = 0;}   
072CA:  BCF    x36.5
....................              
....................       if(RIGHT)//Si oprime SET 
072CC:  BSF    F96.1
072CE:  BTFSC  F84.1
072D0:  BRA    72EC
....................       {  if(Flanco1 == 0)  
072D2:  BTFSC  x36.4
072D4:  BRA    72EA
....................             {Flanco1 = 1;delay_ms(30);unidad--; 
072D6:  BSF    x36.4
072D8:  MOVLW  1E
072DA:  MOVLB  6
072DC:  MOVWF  x86
072DE:  MOVLB  0
072E0:  CALL   1346
072E4:  MOVLB  5
072E6:  DECF   x04,F
072E8:  MOVLB  4
....................             } 
....................       } 
....................          else 
072EA:  BRA    72EE
....................             {Flanco1 = 0;}   
072EC:  BCF    x36.4
....................              
....................       if(LEFT)//Si oprime boton de Toma. 
072EE:  BSF    F96.2
072F0:  BTFSC  F84.2
072F2:  BRA    7404
....................       { 
....................          delay_ms(700);Menu=4;glcd_fillscreen(OFF);Opcion=1;unidad=1; 
072F4:  MOVLW  04
072F6:  MOVLB  6
072F8:  MOVWF  x7D
072FA:  MOVLW  AF
072FC:  MOVWF  x86
072FE:  MOVLB  0
07300:  CALL   1346
07304:  MOVLB  6
07306:  DECFSZ x7D,F
07308:  BRA    72FA
0730A:  MOVLW  04
0730C:  MOVLB  5
0730E:  MOVWF  x03
07310:  MOVLB  6
07312:  CLRF   x85
07314:  MOVLB  0
07316:  CALL   1442
0731A:  MOVLW  01
0731C:  MOVLB  5
0731E:  MOVWF  x05
07320:  MOVWF  x04
....................          write_eeprom(4,Tpurgap[0]); 
07322:  CLRF   FAA
07324:  MOVLW  04
07326:  MOVWF  FA9
07328:  MOVFF  52B,FA8
0732C:  BCF    FA6.6
0732E:  BCF    FA6.7
07330:  BSF    FA6.2
07332:  MOVF   FF2,W
07334:  MOVWF  00
07336:  BCF    FF2.7
07338:  MOVLB  F
0733A:  MOVLW  55
0733C:  MOVWF  FA7
0733E:  MOVLW  AA
07340:  MOVWF  FA7
07342:  BSF    FA6.1
07344:  BTFSC  FA6.1
07346:  BRA    7344
07348:  BCF    FA6.2
0734A:  MOVF   00,W
0734C:  IORWF  FF2,F
....................          delay_ms(20); 
0734E:  MOVLW  14
07350:  MOVLB  6
07352:  MOVWF  x86
07354:  MOVLB  0
07356:  CALL   1346
....................          write_eeprom(5,Tpurgap[1]); 
0735A:  CLRF   FAA
0735C:  MOVLW  05
0735E:  MOVWF  FA9
07360:  MOVFF  52C,FA8
07364:  BCF    FA6.6
07366:  BCF    FA6.7
07368:  BSF    FA6.2
0736A:  MOVF   FF2,W
0736C:  MOVWF  00
0736E:  BCF    FF2.7
07370:  MOVLB  F
07372:  MOVLW  55
07374:  MOVWF  FA7
07376:  MOVLW  AA
07378:  MOVWF  FA7
0737A:  BSF    FA6.1
0737C:  BTFSC  FA6.1
0737E:  BRA    737C
07380:  BCF    FA6.2
07382:  MOVF   00,W
07384:  IORWF  FF2,F
....................          delay_ms(20); 
07386:  MOVLW  14
07388:  MOVLB  6
0738A:  MOVWF  x86
0738C:  MOVLB  0
0738E:  CALL   1346
....................          write_eeprom(6,Tpurgap[2]); 
07392:  CLRF   FAA
07394:  MOVLW  06
07396:  MOVWF  FA9
07398:  MOVFF  52D,FA8
0739C:  BCF    FA6.6
0739E:  BCF    FA6.7
073A0:  BSF    FA6.2
073A2:  MOVF   FF2,W
073A4:  MOVWF  00
073A6:  BCF    FF2.7
073A8:  MOVLB  F
073AA:  MOVLW  55
073AC:  MOVWF  FA7
073AE:  MOVLW  AA
073B0:  MOVWF  FA7
073B2:  BSF    FA6.1
073B4:  BTFSC  FA6.1
073B6:  BRA    73B4
073B8:  BCF    FA6.2
073BA:  MOVF   00,W
073BC:  IORWF  FF2,F
....................          delay_ms(20); 
073BE:  MOVLW  14
073C0:  MOVLB  6
073C2:  MOVWF  x86
073C4:  MOVLB  0
073C6:  CALL   1346
....................          write_eeprom(7,Tpurgap[3]); 
073CA:  CLRF   FAA
073CC:  MOVLW  07
073CE:  MOVWF  FA9
073D0:  MOVFF  52E,FA8
073D4:  BCF    FA6.6
073D6:  BCF    FA6.7
073D8:  BSF    FA6.2
073DA:  MOVF   FF2,W
073DC:  MOVWF  00
073DE:  BCF    FF2.7
073E0:  MOVLB  F
073E2:  MOVLW  55
073E4:  MOVWF  FA7
073E6:  MOVLW  AA
073E8:  MOVWF  FA7
073EA:  BSF    FA6.1
073EC:  BTFSC  FA6.1
073EE:  BRA    73EC
073F0:  BCF    FA6.2
073F2:  MOVF   00,W
073F4:  IORWF  FF2,F
....................          delay_ms(20); 
073F6:  MOVLW  14
073F8:  MOVLB  6
073FA:  MOVWF  x86
073FC:  MOVLB  0
073FE:  CALL   1346
07402:  MOVLB  4
....................       } 
....................        
....................       for(i=0;i<4;i++) 
07404:  CLRF   x35
07406:  MOVF   x35,W
07408:  SUBLW  03
0740A:  BNC   745E
....................       { 
....................          if(Tpurgap[i]>9) 
0740C:  CLRF   03
0740E:  MOVF   x35,W
07410:  ADDLW  2B
07412:  MOVWF  FE9
07414:  MOVLW  05
07416:  ADDWFC 03,W
07418:  MOVWF  FEA
0741A:  BTFSC  FEF.7
0741C:  BRA    7434
0741E:  MOVF   FEF,W
07420:  SUBLW  09
07422:  BC    7434
....................          {Tpurgap[i]=0;} 
07424:  CLRF   03
07426:  MOVF   x35,W
07428:  ADDLW  2B
0742A:  MOVWF  FE9
0742C:  MOVLW  05
0742E:  ADDWFC 03,W
07430:  MOVWF  FEA
07432:  CLRF   FEF
....................           
....................          if(Tpurgap[i]<0) 
07434:  CLRF   03
07436:  MOVF   x35,W
07438:  ADDLW  2B
0743A:  MOVWF  FE9
0743C:  MOVLW  05
0743E:  ADDWFC 03,W
07440:  MOVWF  FEA
07442:  BTFSC  FEF.7
07444:  BRA    7448
07446:  BRA    745A
....................          {Tpurgap[i]=9;} 
07448:  CLRF   03
0744A:  MOVF   x35,W
0744C:  ADDLW  2B
0744E:  MOVWF  FE9
07450:  MOVLW  05
07452:  ADDWFC 03,W
07454:  MOVWF  FEA
07456:  MOVLW  09
07458:  MOVWF  FEF
....................       }       
0745A:  INCF   x35,F
0745C:  BRA    7406
....................       for(i=1;i<4;i++) 
0745E:  MOVLW  01
07460:  MOVWF  x35
07462:  MOVF   x35,W
07464:  SUBLW  03
07466:  BNC   74BC
....................       { 
....................          if(Tpurgap[i]>5) 
07468:  CLRF   03
0746A:  MOVF   x35,W
0746C:  ADDLW  2B
0746E:  MOVWF  FE9
07470:  MOVLW  05
07472:  ADDWFC 03,W
07474:  MOVWF  FEA
07476:  BTFSC  FEF.7
07478:  BRA    7490
0747A:  MOVF   FEF,W
0747C:  SUBLW  05
0747E:  BC    7490
....................          {Tpurgap[i]=0;} 
07480:  CLRF   03
07482:  MOVF   x35,W
07484:  ADDLW  2B
07486:  MOVWF  FE9
07488:  MOVLW  05
0748A:  ADDWFC 03,W
0748C:  MOVWF  FEA
0748E:  CLRF   FEF
....................           
....................          if(Tpurgap[i]<0) 
07490:  CLRF   03
07492:  MOVF   x35,W
07494:  ADDLW  2B
07496:  MOVWF  FE9
07498:  MOVLW  05
0749A:  ADDWFC 03,W
0749C:  MOVWF  FEA
0749E:  BTFSC  FEF.7
074A0:  BRA    74A4
074A2:  BRA    74B6
....................          {Tpurgap[i]=5;} 
074A4:  CLRF   03
074A6:  MOVF   x35,W
074A8:  ADDLW  2B
074AA:  MOVWF  FE9
074AC:  MOVLW  05
074AE:  ADDWFC 03,W
074B0:  MOVWF  FEA
074B2:  MOVLW  05
074B4:  MOVWF  FEF
....................         i++;  
074B6:  INCF   x35,F
....................       } 
074B8:  INCF   x35,F
074BA:  BRA    7462
....................       if(unidad<1) 
074BC:  MOVLB  5
074BE:  MOVF   x04,F
074C0:  BNZ   74C6
....................       {unidad=4;} 
074C2:  MOVLW  04
074C4:  MOVWF  x04
....................       if(Opcion<1) 
074C6:  MOVF   x05,F
074C8:  BNZ   74CE
....................       {Opcion=4;} 
074CA:  MOVLW  04
074CC:  MOVWF  x05
....................      
....................     } 
.................... //_--------------------------------------------------------------------------------------------------------------------------------------------------------        
....................  
.................... //_-------------------------------------------------------------------------------------------------------------------------------------------------------- 
....................       if(Menu==5){ //Menu de Clave. 
074CE:  MOVF   x03,W
074D0:  SUBLW  05
074D2:  BNZ   752E
....................  
....................       PidePassword(3,5,211,Password[0],Password[1],Password[2],Password[3]); 
074D4:  MOVLW  03
074D6:  MOVLB  6
074D8:  MOVWF  x7E
074DA:  MOVLW  05
074DC:  MOVWF  x7F
074DE:  MOVLW  D3
074E0:  MOVWF  x80
074E2:  MOVFF  54B,681
074E6:  MOVFF  54C,682
074EA:  MOVFF  54D,683
074EE:  MOVFF  54E,684
074F2:  MOVLB  0
074F4:  CALL   4B70
....................              
....................       if(LEFT)//Si oprime boton de Toma. 
074F8:  BSF    F96.2
074FA:  BTFSC  F84.2
074FC:  BRA    7530
....................       { 
....................          delay_ms(200); 
074FE:  MOVLW  C8
07500:  MOVLB  6
07502:  MOVWF  x86
07504:  MOVLB  0
07506:  CALL   1346
....................          if(unidad==1){ 
0750A:  MOVLB  5
0750C:  DECFSZ x04,W
0750E:  BRA    752E
....................             Menu=3;glcd_fillscreen(OFF);Opcion=1;unidad=1;Contrasena[0]=0;Contrasena[1]=0;Contrasena[2]=0;Contrasena[3]=0; 
07510:  MOVLW  03
07512:  MOVWF  x03
07514:  MOVLB  6
07516:  CLRF   x85
07518:  MOVLB  0
0751A:  CALL   1442
0751E:  MOVLW  01
07520:  MOVLB  5
07522:  MOVWF  x05
07524:  MOVWF  x04
07526:  CLRF   x47
07528:  CLRF   x48
0752A:  CLRF   x49
0752C:  CLRF   x4A
0752E:  MOVLB  0
....................          } 
....................       }  
....................     } 
.................... //_--------------------------------------------------------------------------------------------------------------------------------------------------------        
....................  
.................... //_-------------------------------------------------------------------------------------------------------------------------------------------------------- 
....................       if(Menu==211){ //Menu de Cambio Clave. 
07530:  MOVLB  5
07532:  MOVF   x03,W
07534:  SUBLW  D3
07536:  BTFSS  FD8.2
07538:  BRA    79E0
....................        
....................       if(n==0) 
0753A:  MOVLB  4
0753C:  BTFSC  x45.2
0753E:  BRA    759E
....................       { 
....................          displayContrasena(Contrasena[0],20,30,1);displayContrasena(Contrasena[1],40,30,0); 
07540:  MOVFF  547,687
07544:  MOVLW  14
07546:  MOVLB  6
07548:  MOVWF  x88
0754A:  MOVLW  1E
0754C:  MOVWF  x89
0754E:  MOVLW  01
07550:  MOVWF  x8A
07552:  MOVLB  0
07554:  CALL   49E4
07558:  MOVFF  548,687
0755C:  MOVLW  28
0755E:  MOVLB  6
07560:  MOVWF  x88
07562:  MOVLW  1E
07564:  MOVWF  x89
07566:  CLRF   x8A
07568:  MOVLB  0
0756A:  CALL   49E4
....................          displayContrasena(Contrasena[2],60,30,0);displayContrasena(Contrasena[0],80,30,0); 
0756E:  MOVFF  549,687
07572:  MOVLW  3C
07574:  MOVLB  6
07576:  MOVWF  x88
07578:  MOVLW  1E
0757A:  MOVWF  x89
0757C:  CLRF   x8A
0757E:  MOVLB  0
07580:  CALL   49E4
07584:  MOVFF  547,687
07588:  MOVLW  50
0758A:  MOVLB  6
0758C:  MOVWF  x88
0758E:  MOVLW  1E
07590:  MOVWF  x89
07592:  CLRF   x8A
07594:  MOVLB  0
07596:  CALL   49E4
....................          n=1; 
0759A:  MOVLB  4
0759C:  BSF    x45.2
....................       } 
....................       strcpy(Menus.Letra,"Clave Nueva"); 
0759E:  MOVLW  04
075A0:  MOVWF  FEA
075A2:  MOVLW  17
075A4:  MOVWF  FE9
075A6:  MOVFF  FF2,67D
075AA:  BCF    FF2.7
075AC:  MOVLW  00
075AE:  MOVLB  0
075B0:  CALL   10C4
075B4:  TBLRD*-
075B6:  TBLRD*+
075B8:  MOVF   FF5,W
075BA:  MOVWF  FEE
075BC:  IORLW  00
075BE:  BNZ   75B6
075C0:  MOVLB  6
075C2:  BTFSC  x7D.7
075C4:  BSF    FF2.7
....................       displayMenu(Menus.Letra,0,0,1,2); 
075C6:  MOVLW  04
075C8:  MOVWF  x86
075CA:  MOVLW  17
075CC:  MOVWF  x85
075CE:  CLRF   x87
075D0:  CLRF   x88
075D2:  MOVLW  01
075D4:  MOVWF  x89
075D6:  MOVLW  02
075D8:  MOVWF  x8A
075DA:  MOVLB  0
075DC:  CALL   4AA0
....................          
....................        
....................       if(UP)//Si oprime hacia arriba 
075E0:  BSF    F92.5
075E2:  BTFSC  F80.5
075E4:  BRA    76C0
....................       {  if(Flanco == 0)  
075E6:  MOVLB  4
075E8:  BTFSC  x36.3
075EA:  BRA    76BE
....................             {Flanco = 1;delay_ms(30); 
075EC:  BSF    x36.3
075EE:  MOVLW  1E
075F0:  MOVLB  6
075F2:  MOVWF  x86
075F4:  MOVLB  0
075F6:  CALL   1346
....................             for(i=1;i<=4;i++) 
075FA:  MOVLW  01
075FC:  MOVLB  4
075FE:  MOVWF  x35
07600:  MOVF   x35,W
07602:  SUBLW  04
07604:  BNC   76BE
....................                { 
....................                   if(unidad==i) 
07606:  MOVF   x35,W
07608:  MOVLB  5
0760A:  SUBWF  x04,W
0760C:  BNZ   7684
....................                   {Contrasena[i-1]++; 
0760E:  MOVLW  01
07610:  MOVLB  4
07612:  SUBWF  x35,W
07614:  CLRF   03
07616:  ADDLW  47
07618:  MOVWF  FE9
0761A:  MOVLW  05
0761C:  ADDWFC 03,W
0761E:  MOVWF  FEA
07620:  INCF   FEF,F
....................                   if(Contrasena[i-1]>9) 
07622:  MOVLW  01
07624:  SUBWF  x35,W
07626:  CLRF   03
07628:  ADDLW  47
0762A:  MOVWF  FE9
0762C:  MOVLW  05
0762E:  ADDWFC 03,W
07630:  MOVWF  FEA
07632:  BTFSC  FEF.7
07634:  BRA    764E
07636:  MOVF   FEF,W
07638:  SUBLW  09
0763A:  BC    764E
....................                         {Contrasena[i-1]=0;} 
0763C:  MOVLW  01
0763E:  SUBWF  x35,W
07640:  CLRF   03
07642:  ADDLW  47
07644:  MOVWF  FE9
07646:  MOVLW  05
07648:  ADDWFC 03,W
0764A:  MOVWF  FEA
0764C:  CLRF   FEF
....................                   displayContrasena(Contrasena[i-1],i*20,30,1);} 
0764E:  MOVLW  01
07650:  SUBWF  x35,W
07652:  CLRF   03
07654:  ADDLW  47
07656:  MOVWF  FE9
07658:  MOVLW  05
0765A:  ADDWFC 03,W
0765C:  MOVWF  FEA
0765E:  MOVFF  FEF,67D
07662:  MOVF   x35,W
07664:  MULLW  14
07666:  MOVFF  FF3,67E
0766A:  MOVLB  6
0766C:  MOVFF  67D,687
07670:  MOVFF  67E,688
07674:  MOVLW  1E
07676:  MOVWF  x89
07678:  MOVLW  01
0767A:  MOVWF  x8A
0767C:  MOVLB  0
0767E:  CALL   49E4
....................                   else 
07682:  BRA    76B8
....................                   {displayContrasena(Contrasena[i-1],i*20,30,0);} 
07684:  MOVLW  01
07686:  MOVLB  4
07688:  SUBWF  x35,W
0768A:  CLRF   03
0768C:  ADDLW  47
0768E:  MOVWF  FE9
07690:  MOVLW  05
07692:  ADDWFC 03,W
07694:  MOVWF  FEA
07696:  MOVFF  FEF,67D
0769A:  MOVF   x35,W
0769C:  MULLW  14
0769E:  MOVFF  FF3,67E
076A2:  MOVLB  6
076A4:  MOVFF  67D,687
076A8:  MOVFF  67E,688
076AC:  MOVLW  1E
076AE:  MOVWF  x89
076B0:  CLRF   x8A
076B2:  MOVLB  0
076B4:  CALL   49E4
....................                } 
076B8:  MOVLB  4
076BA:  INCF   x35,F
076BC:  BRA    7600
....................             } 
....................       } 
....................          else 
076BE:  BRA    76C4
....................             {Flanco = 0;} 
076C0:  MOVLB  4
076C2:  BCF    x36.3
....................              
....................       if(DOWN )//Si oprime hacia abajo 
076C4:  BSF    F96.0
076C6:  BTFSC  F84.0
076C8:  BRA    77A0
....................       {  if(Flanco2 == 0)  
076CA:  BTFSC  x36.5
076CC:  BRA    779E
....................             {Flanco2 = 1;delay_ms(30); 
076CE:  BSF    x36.5
076D0:  MOVLW  1E
076D2:  MOVLB  6
076D4:  MOVWF  x86
076D6:  MOVLB  0
076D8:  CALL   1346
....................                for(i=1;i<=4;i++) 
076DC:  MOVLW  01
076DE:  MOVLB  4
076E0:  MOVWF  x35
076E2:  MOVF   x35,W
076E4:  SUBLW  04
076E6:  BNC   779E
....................                { 
....................                   if(unidad==i) 
076E8:  MOVF   x35,W
076EA:  MOVLB  5
076EC:  SUBWF  x04,W
076EE:  BNZ   7764
....................                   {Contrasena[i-1]--;  
076F0:  MOVLW  01
076F2:  MOVLB  4
076F4:  SUBWF  x35,W
076F6:  CLRF   03
076F8:  ADDLW  47
076FA:  MOVWF  FE9
076FC:  MOVLW  05
076FE:  ADDWFC 03,W
07700:  MOVWF  FEA
07702:  DECF   FEF,F
....................                      if(Contrasena[i-1]<0) 
07704:  MOVLW  01
07706:  SUBWF  x35,W
07708:  CLRF   03
0770A:  ADDLW  47
0770C:  MOVWF  FE9
0770E:  MOVLW  05
07710:  ADDWFC 03,W
07712:  MOVWF  FEA
07714:  BTFSC  FEF.7
07716:  BRA    771A
07718:  BRA    772E
....................                         {Contrasena[i-1]=9;} 
0771A:  MOVLW  01
0771C:  SUBWF  x35,W
0771E:  CLRF   03
07720:  ADDLW  47
07722:  MOVWF  FE9
07724:  MOVLW  05
07726:  ADDWFC 03,W
07728:  MOVWF  FEA
0772A:  MOVLW  09
0772C:  MOVWF  FEF
....................                    displayContrasena(Contrasena[i-1],i*20,30,1);} 
0772E:  MOVLW  01
07730:  SUBWF  x35,W
07732:  CLRF   03
07734:  ADDLW  47
07736:  MOVWF  FE9
07738:  MOVLW  05
0773A:  ADDWFC 03,W
0773C:  MOVWF  FEA
0773E:  MOVFF  FEF,67D
07742:  MOVF   x35,W
07744:  MULLW  14
07746:  MOVFF  FF3,67E
0774A:  MOVLB  6
0774C:  MOVFF  67D,687
07750:  MOVFF  67E,688
07754:  MOVLW  1E
07756:  MOVWF  x89
07758:  MOVLW  01
0775A:  MOVWF  x8A
0775C:  MOVLB  0
0775E:  CALL   49E4
....................                   else 
07762:  BRA    7798
....................                   {displayContrasena(Contrasena[i-1],i*20,30,0);} 
07764:  MOVLW  01
07766:  MOVLB  4
07768:  SUBWF  x35,W
0776A:  CLRF   03
0776C:  ADDLW  47
0776E:  MOVWF  FE9
07770:  MOVLW  05
07772:  ADDWFC 03,W
07774:  MOVWF  FEA
07776:  MOVFF  FEF,67D
0777A:  MOVF   x35,W
0777C:  MULLW  14
0777E:  MOVFF  FF3,67E
07782:  MOVLB  6
07784:  MOVFF  67D,687
07788:  MOVFF  67E,688
0778C:  MOVLW  1E
0778E:  MOVWF  x89
07790:  CLRF   x8A
07792:  MOVLB  0
07794:  CALL   49E4
....................                }       
07798:  MOVLB  4
0779A:  INCF   x35,F
0779C:  BRA    76E2
....................             }      
....................       } 
....................          else 
0779E:  BRA    77A2
....................             {Flanco2 = 0;}   
077A0:  BCF    x36.5
....................              
....................       if(RIGHT)//Si oprime SET 
077A2:  BSF    F96.1
077A4:  BTFSC  F84.1
077A6:  BRA    7846
....................       {  if(Flanco1 == 0)  
077A8:  BTFSC  x36.4
077AA:  BRA    7844
....................             {Flanco1 = 1;delay_ms(30);unidad++; 
077AC:  BSF    x36.4
077AE:  MOVLW  1E
077B0:  MOVLB  6
077B2:  MOVWF  x86
077B4:  MOVLB  0
077B6:  CALL   1346
077BA:  MOVLB  5
077BC:  INCF   x04,F
....................                for(i=1;i<=4;i++) 
077BE:  MOVLW  01
077C0:  MOVLB  4
077C2:  MOVWF  x35
077C4:  MOVF   x35,W
077C6:  SUBLW  04
077C8:  BNC   7844
....................                { 
....................                   if(unidad==i) 
077CA:  MOVF   x35,W
077CC:  MOVLB  5
077CE:  SUBWF  x04,W
077D0:  BNZ   780A
....................                   {displayContrasena(Contrasena[i-1],i*20,30,1);} 
077D2:  MOVLW  01
077D4:  MOVLB  4
077D6:  SUBWF  x35,W
077D8:  CLRF   03
077DA:  ADDLW  47
077DC:  MOVWF  FE9
077DE:  MOVLW  05
077E0:  ADDWFC 03,W
077E2:  MOVWF  FEA
077E4:  MOVFF  FEF,67D
077E8:  MOVF   x35,W
077EA:  MULLW  14
077EC:  MOVFF  FF3,67E
077F0:  MOVLB  6
077F2:  MOVFF  67D,687
077F6:  MOVFF  67E,688
077FA:  MOVLW  1E
077FC:  MOVWF  x89
077FE:  MOVLW  01
07800:  MOVWF  x8A
07802:  MOVLB  0
07804:  CALL   49E4
....................                   else 
07808:  BRA    783E
....................                   {displayContrasena(Contrasena[i-1],i*20,30,0);} 
0780A:  MOVLW  01
0780C:  MOVLB  4
0780E:  SUBWF  x35,W
07810:  CLRF   03
07812:  ADDLW  47
07814:  MOVWF  FE9
07816:  MOVLW  05
07818:  ADDWFC 03,W
0781A:  MOVWF  FEA
0781C:  MOVFF  FEF,67D
07820:  MOVF   x35,W
07822:  MULLW  14
07824:  MOVFF  FF3,67E
07828:  MOVLB  6
0782A:  MOVFF  67D,687
0782E:  MOVFF  67E,688
07832:  MOVLW  1E
07834:  MOVWF  x89
07836:  CLRF   x8A
07838:  MOVLB  0
0783A:  CALL   49E4
....................                } 
0783E:  MOVLB  4
07840:  INCF   x35,F
07842:  BRA    77C4
....................             } 
....................       } 
....................          else 
07844:  BRA    7848
....................             {Flanco1 = 0;}   
07846:  BCF    x36.4
....................              
....................       if(LEFT)//Si oprime boton de Toma. 
07848:  BSF    F96.2
0784A:  BTFSC  F84.2
0784C:  BRA    7888
....................       { 
....................          
....................          delay_ms(700); 
0784E:  MOVLW  04
07850:  MOVLB  6
07852:  MOVWF  x7D
07854:  MOVLW  AF
07856:  MOVWF  x86
07858:  MOVLB  0
0785A:  CALL   1346
0785E:  MOVLB  6
07860:  DECFSZ x7D,F
07862:  BRA    7854
....................          if(unidad==1){ 
07864:  MOVLB  5
07866:  DECFSZ x04,W
07868:  BRA    7888
....................             Menu=3;glcd_fillscreen(OFF);Opcion=1;unidad=1;Contrasena[0]=0;Contrasena[1]=0;Contrasena[2]=0;Contrasena[3]=0; 
0786A:  MOVLW  03
0786C:  MOVWF  x03
0786E:  MOVLB  6
07870:  CLRF   x85
07872:  MOVLB  0
07874:  CALL   1442
07878:  MOVLW  01
0787A:  MOVLB  5
0787C:  MOVWF  x05
0787E:  MOVWF  x04
07880:  CLRF   x47
07882:  CLRF   x48
07884:  CLRF   x49
07886:  CLRF   x4A
....................          } 
....................       } 
....................        
....................       if(unidad>4) 
07888:  MOVLB  5
0788A:  MOVF   x04,W
0788C:  SUBLW  04
0788E:  BTFSC  FD8.0
07890:  BRA    79E0
....................       { 
....................          Opcion=1;glcd_fillscreen(OFF);unidad=1;n=0; 
07892:  MOVLW  01
07894:  MOVWF  x05
07896:  MOVLB  6
07898:  CLRF   x85
0789A:  MOVLB  0
0789C:  CALL   1442
078A0:  MOVLW  01
078A2:  MOVLB  5
078A4:  MOVWF  x04
078A6:  MOVLB  4
078A8:  BCF    x45.2
....................          Password[0]=Contrasena[0];Password[1]=Contrasena[1];Password[2]=Contrasena[2];Password[3]=Contrasena[3]; 
078AA:  MOVFF  547,54B
078AE:  MOVFF  548,54C
078B2:  MOVFF  549,54D
078B6:  MOVFF  54A,54E
....................          write_eeprom(0,Password[0]); 
078BA:  CLRF   FAA
078BC:  CLRF   FA9
078BE:  MOVFF  54B,FA8
078C2:  BCF    FA6.6
078C4:  BCF    FA6.7
078C6:  BSF    FA6.2
078C8:  MOVF   FF2,W
078CA:  MOVWF  00
078CC:  BCF    FF2.7
078CE:  MOVLB  F
078D0:  MOVLW  55
078D2:  MOVWF  FA7
078D4:  MOVLW  AA
078D6:  MOVWF  FA7
078D8:  BSF    FA6.1
078DA:  BTFSC  FA6.1
078DC:  BRA    78DA
078DE:  BCF    FA6.2
078E0:  MOVF   00,W
078E2:  IORWF  FF2,F
....................          delay_ms(20); 
078E4:  MOVLW  14
078E6:  MOVLB  6
078E8:  MOVWF  x86
078EA:  MOVLB  0
078EC:  CALL   1346
....................          write_eeprom(1,Password[1]); 
078F0:  CLRF   FAA
078F2:  MOVLW  01
078F4:  MOVWF  FA9
078F6:  MOVFF  54C,FA8
078FA:  BCF    FA6.6
078FC:  BCF    FA6.7
078FE:  BSF    FA6.2
07900:  MOVF   FF2,W
07902:  MOVWF  00
07904:  BCF    FF2.7
07906:  MOVLB  F
07908:  MOVLW  55
0790A:  MOVWF  FA7
0790C:  MOVLW  AA
0790E:  MOVWF  FA7
07910:  BSF    FA6.1
07912:  BTFSC  FA6.1
07914:  BRA    7912
07916:  BCF    FA6.2
07918:  MOVF   00,W
0791A:  IORWF  FF2,F
....................          delay_ms(20); 
0791C:  MOVLW  14
0791E:  MOVLB  6
07920:  MOVWF  x86
07922:  MOVLB  0
07924:  CALL   1346
....................          write_eeprom(2,Password[2]); 
07928:  CLRF   FAA
0792A:  MOVLW  02
0792C:  MOVWF  FA9
0792E:  MOVFF  54D,FA8
07932:  BCF    FA6.6
07934:  BCF    FA6.7
07936:  BSF    FA6.2
07938:  MOVF   FF2,W
0793A:  MOVWF  00
0793C:  BCF    FF2.7
0793E:  MOVLB  F
07940:  MOVLW  55
07942:  MOVWF  FA7
07944:  MOVLW  AA
07946:  MOVWF  FA7
07948:  BSF    FA6.1
0794A:  BTFSC  FA6.1
0794C:  BRA    794A
0794E:  BCF    FA6.2
07950:  MOVF   00,W
07952:  IORWF  FF2,F
....................          delay_ms(20); 
07954:  MOVLW  14
07956:  MOVLB  6
07958:  MOVWF  x86
0795A:  MOVLB  0
0795C:  CALL   1346
....................          write_eeprom(3,Password[3]); 
07960:  CLRF   FAA
07962:  MOVLW  03
07964:  MOVWF  FA9
07966:  MOVFF  54E,FA8
0796A:  BCF    FA6.6
0796C:  BCF    FA6.7
0796E:  BSF    FA6.2
07970:  MOVF   FF2,W
07972:  MOVWF  00
07974:  BCF    FF2.7
07976:  MOVLB  F
07978:  MOVLW  55
0797A:  MOVWF  FA7
0797C:  MOVLW  AA
0797E:  MOVWF  FA7
07980:  BSF    FA6.1
07982:  BTFSC  FA6.1
07984:  BRA    7982
07986:  BCF    FA6.2
07988:  MOVF   00,W
0798A:  IORWF  FF2,F
....................          delay_ms(20); 
0798C:  MOVLW  14
0798E:  MOVLB  6
07990:  MOVWF  x86
07992:  MOVLB  0
07994:  CALL   1346
....................          glcd_imagen(1);glcd_update();Menu=211;delay_ms(1000);glcd_fillScreen(OFF);Menu=3; 
07998:  MOVLW  01
0799A:  MOVLB  6
0799C:  MOVWF  x7D
0799E:  MOVLB  0
079A0:  CALL   5386
079A4:  CALL   149C
079A8:  MOVLW  D3
079AA:  MOVLB  5
079AC:  MOVWF  x03
079AE:  MOVLW  04
079B0:  MOVLB  6
079B2:  MOVWF  x7D
079B4:  MOVLW  FA
079B6:  MOVWF  x86
079B8:  MOVLB  0
079BA:  CALL   1346
079BE:  MOVLB  6
079C0:  DECFSZ x7D,F
079C2:  BRA    79B4
079C4:  CLRF   x85
079C6:  MOVLB  0
079C8:  CALL   1442
079CC:  MOVLW  03
079CE:  MOVLB  5
079D0:  MOVWF  x03
....................          n=0; 
079D2:  MOVLB  4
079D4:  BCF    x45.2
....................          Contrasena[0]=0;Contrasena[1]=0;Contrasena[2]=0;Contrasena[3]=0; 
079D6:  MOVLB  5
079D8:  CLRF   x47
079DA:  CLRF   x48
079DC:  CLRF   x49
079DE:  CLRF   x4A
....................       } 
....................      
....................     } 
.................... //_--------------------------------------------------------------------------------------------------------------------------------------------------------        
....................  
.................... //_-------------------------------------------------------------------------------------------------------------------------------------------------------- 
....................       if(Menu==31){ //Menu de Mantenimiento. 
079E0:  MOVF   x03,W
079E2:  SUBLW  1F
079E4:  BTFSS  FD8.2
079E6:  BRA    7D42
....................        
....................          strcpy(Menus.Letra,"Manteniento"); 
079E8:  MOVLW  04
079EA:  MOVWF  FEA
079EC:  MOVLW  17
079EE:  MOVWF  FE9
079F0:  MOVFF  FF2,67D
079F4:  BCF    FF2.7
079F6:  MOVLW  00
079F8:  MOVLB  0
079FA:  CALL   10EE
079FE:  TBLRD*-
07A00:  TBLRD*+
07A02:  MOVF   FF5,W
07A04:  MOVWF  FEE
07A06:  IORLW  00
07A08:  BNZ   7A00
07A0A:  MOVLB  6
07A0C:  BTFSC  x7D.7
07A0E:  BSF    FF2.7
....................          displayMenu(Menus.Letra,0,0,1,2); 
07A10:  MOVLW  04
07A12:  MOVWF  x86
07A14:  MOVLW  17
07A16:  MOVWF  x85
07A18:  CLRF   x87
07A1A:  CLRF   x88
07A1C:  MOVLW  01
07A1E:  MOVWF  x89
07A20:  MOVLW  02
07A22:  MOVWF  x8A
07A24:  MOVLB  0
07A26:  CALL   4AA0
....................           
....................          strcpy(Menus.Letra,"Trabajo Filtro(h):"); 
07A2A:  MOVLW  04
07A2C:  MOVWF  FEA
07A2E:  MOVLW  17
07A30:  MOVWF  FE9
07A32:  MOVFF  FF2,67D
07A36:  BCF    FF2.7
07A38:  MOVLW  00
07A3A:  CALL   1118
07A3E:  TBLRD*-
07A40:  TBLRD*+
07A42:  MOVF   FF5,W
07A44:  MOVWF  FEE
07A46:  IORLW  00
07A48:  BNZ   7A40
07A4A:  MOVLB  6
07A4C:  BTFSC  x7D.7
07A4E:  BSF    FF2.7
....................          displayMenu(Menus.Letra,10,20,1,1); 
07A50:  MOVLW  04
07A52:  MOVWF  x86
07A54:  MOVLW  17
07A56:  MOVWF  x85
07A58:  MOVLW  0A
07A5A:  MOVWF  x87
07A5C:  MOVLW  14
07A5E:  MOVWF  x88
07A60:  MOVLW  01
07A62:  MOVWF  x89
07A64:  MOVWF  x8A
07A66:  MOVLB  0
07A68:  CALL   4AA0
....................          glcd_text57(0, 31, Vida_Filtro, 1, ON); 
07A6C:  MOVLB  6
07A6E:  CLRF   x96
07A70:  MOVLW  1F
07A72:  MOVWF  x97
07A74:  MOVLW  04
07A76:  MOVWF  x99
07A78:  MOVLW  DB
07A7A:  MOVWF  x98
07A7C:  MOVLW  01
07A7E:  MOVWF  x9A
07A80:  MOVWF  x9B
07A82:  MOVLB  0
07A84:  CALL   16B8
....................          displayTiempo(Ttrabajo[3],60,30,0,1);displayTiempo(Ttrabajo[2],67,30,0,1);displayTiempo(Ttrabajo[1],74,30,0,1);displayTiempo(Ttrabajo[0],82,30,0,1); 
07A88:  MOVFF  546,67D
07A8C:  MOVLW  3C
07A8E:  MOVLB  6
07A90:  MOVWF  x7E
07A92:  MOVLW  1E
07A94:  MOVWF  x7F
07A96:  CLRF   x80
07A98:  MOVLW  01
07A9A:  MOVWF  x81
07A9C:  MOVLB  0
07A9E:  CALL   528A
07AA2:  MOVFF  545,67D
07AA6:  MOVLW  43
07AA8:  MOVLB  6
07AAA:  MOVWF  x7E
07AAC:  MOVLW  1E
07AAE:  MOVWF  x7F
07AB0:  CLRF   x80
07AB2:  MOVLW  01
07AB4:  MOVWF  x81
07AB6:  MOVLB  0
07AB8:  CALL   528A
07ABC:  MOVFF  544,67D
07AC0:  MOVLW  4A
07AC2:  MOVLB  6
07AC4:  MOVWF  x7E
07AC6:  MOVLW  1E
07AC8:  MOVWF  x7F
07ACA:  CLRF   x80
07ACC:  MOVLW  01
07ACE:  MOVWF  x81
07AD0:  MOVLB  0
07AD2:  CALL   528A
07AD6:  MOVFF  543,67D
07ADA:  MOVLW  52
07ADC:  MOVLB  6
07ADE:  MOVWF  x7E
07AE0:  MOVLW  1E
07AE2:  MOVWF  x7F
07AE4:  CLRF   x80
07AE6:  MOVLW  01
07AE8:  MOVWF  x81
07AEA:  MOVLB  0
07AEC:  CALL   528A
....................           
....................          LuzBlanca_on; 
07AF0:  BSF    F8B.0
07AF2:  BCF    F94.0
....................           
....................             if(UP && RIGHT) // Reinicia Tiempo de Luz UV 
07AF4:  BSF    F92.5
07AF6:  BTFSC  F80.5
07AF8:  BRA    7C0A
07AFA:  BSF    F96.1
07AFC:  BTFSC  F84.1
07AFE:  BRA    7C0A
....................             { 
....................                   delay_ms(2000); 
07B00:  MOVLW  08
07B02:  MOVLB  6
07B04:  MOVWF  x7D
07B06:  MOVLW  FA
07B08:  MOVWF  x86
07B0A:  MOVLB  0
07B0C:  CALL   1346
07B10:  MOVLB  6
07B12:  DECFSZ x7D,F
07B14:  BRA    7B06
....................                   write_eeprom(12,0); 
07B16:  CLRF   FAA
07B18:  MOVLW  0C
07B1A:  MOVWF  FA9
07B1C:  CLRF   FA8
07B1E:  BCF    FA6.6
07B20:  BCF    FA6.7
07B22:  BSF    FA6.2
07B24:  MOVF   FF2,W
07B26:  MOVWF  00
07B28:  BCF    FF2.7
07B2A:  MOVLB  F
07B2C:  MOVLW  55
07B2E:  MOVWF  FA7
07B30:  MOVLW  AA
07B32:  MOVWF  FA7
07B34:  BSF    FA6.1
07B36:  BTFSC  FA6.1
07B38:  BRA    7B36
07B3A:  BCF    FA6.2
07B3C:  MOVF   00,W
07B3E:  IORWF  FF2,F
....................                   delay_ms(20); 
07B40:  MOVLW  14
07B42:  MOVLB  6
07B44:  MOVWF  x86
07B46:  MOVLB  0
07B48:  CALL   1346
....................                   write_eeprom(13,0); 
07B4C:  CLRF   FAA
07B4E:  MOVLW  0D
07B50:  MOVWF  FA9
07B52:  CLRF   FA8
07B54:  BCF    FA6.6
07B56:  BCF    FA6.7
07B58:  BSF    FA6.2
07B5A:  MOVF   FF2,W
07B5C:  MOVWF  00
07B5E:  BCF    FF2.7
07B60:  MOVLB  F
07B62:  MOVLW  55
07B64:  MOVWF  FA7
07B66:  MOVLW  AA
07B68:  MOVWF  FA7
07B6A:  BSF    FA6.1
07B6C:  BTFSC  FA6.1
07B6E:  BRA    7B6C
07B70:  BCF    FA6.2
07B72:  MOVF   00,W
07B74:  IORWF  FF2,F
....................                   delay_ms(20); 
07B76:  MOVLW  14
07B78:  MOVLB  6
07B7A:  MOVWF  x86
07B7C:  MOVLB  0
07B7E:  CALL   1346
....................                   write_eeprom(14,0); 
07B82:  CLRF   FAA
07B84:  MOVLW  0E
07B86:  MOVWF  FA9
07B88:  CLRF   FA8
07B8A:  BCF    FA6.6
07B8C:  BCF    FA6.7
07B8E:  BSF    FA6.2
07B90:  MOVF   FF2,W
07B92:  MOVWF  00
07B94:  BCF    FF2.7
07B96:  MOVLB  F
07B98:  MOVLW  55
07B9A:  MOVWF  FA7
07B9C:  MOVLW  AA
07B9E:  MOVWF  FA7
07BA0:  BSF    FA6.1
07BA2:  BTFSC  FA6.1
07BA4:  BRA    7BA2
07BA6:  BCF    FA6.2
07BA8:  MOVF   00,W
07BAA:  IORWF  FF2,F
....................                   delay_ms(20); 
07BAC:  MOVLW  14
07BAE:  MOVLB  6
07BB0:  MOVWF  x86
07BB2:  MOVLB  0
07BB4:  CALL   1346
....................                   write_eeprom(15,0); 
07BB8:  CLRF   FAA
07BBA:  MOVLW  0F
07BBC:  MOVWF  FA9
07BBE:  CLRF   FA8
07BC0:  BCF    FA6.6
07BC2:  BCF    FA6.7
07BC4:  BSF    FA6.2
07BC6:  MOVF   FF2,W
07BC8:  MOVWF  00
07BCA:  BCF    FF2.7
07BCC:  MOVLB  F
07BCE:  MOVLW  55
07BD0:  MOVWF  FA7
07BD2:  MOVLW  AA
07BD4:  MOVWF  FA7
07BD6:  BSF    FA6.1
07BD8:  BTFSC  FA6.1
07BDA:  BRA    7BD8
07BDC:  BCF    FA6.2
07BDE:  MOVF   00,W
07BE0:  IORWF  FF2,F
....................                   delay_ms(20); 
07BE2:  MOVLW  14
07BE4:  MOVLB  6
07BE6:  MOVWF  x86
07BE8:  MOVLB  0
07BEA:  CALL   1346
....................                   Tuv[3]=0;Tuv[2]=0;Tuv[1]=0;Tuv[0]=0; 
07BEE:  MOVLB  5
07BF0:  CLRF   x3A
07BF2:  CLRF   x39
07BF4:  CLRF   x38
07BF6:  CLRF   x37
....................                   Menu=3;glcd_fillscreen(OFF);LuzBlanca_off; 
07BF8:  MOVLW  03
07BFA:  MOVWF  x03
07BFC:  MOVLB  6
07BFE:  CLRF   x85
07C00:  MOVLB  0
07C02:  CALL   1442
07C06:  BCF    F8B.0
07C08:  BCF    F94.0
....................                 
....................             } 
....................             if(DOWN && RIGHT) // Reinicia Tiempo de Trabajo 
07C0A:  BSF    F96.0
07C0C:  BTFSC  F84.0
07C0E:  BRA    7D20
07C10:  BSF    F96.1
07C12:  BTFSC  F84.1
07C14:  BRA    7D20
....................             { 
....................                   delay_ms(2000); 
07C16:  MOVLW  08
07C18:  MOVLB  6
07C1A:  MOVWF  x7D
07C1C:  MOVLW  FA
07C1E:  MOVWF  x86
07C20:  MOVLB  0
07C22:  CALL   1346
07C26:  MOVLB  6
07C28:  DECFSZ x7D,F
07C2A:  BRA    7C1C
....................                   write_eeprom(16,0); 
07C2C:  CLRF   FAA
07C2E:  MOVLW  10
07C30:  MOVWF  FA9
07C32:  CLRF   FA8
07C34:  BCF    FA6.6
07C36:  BCF    FA6.7
07C38:  BSF    FA6.2
07C3A:  MOVF   FF2,W
07C3C:  MOVWF  00
07C3E:  BCF    FF2.7
07C40:  MOVLB  F
07C42:  MOVLW  55
07C44:  MOVWF  FA7
07C46:  MOVLW  AA
07C48:  MOVWF  FA7
07C4A:  BSF    FA6.1
07C4C:  BTFSC  FA6.1
07C4E:  BRA    7C4C
07C50:  BCF    FA6.2
07C52:  MOVF   00,W
07C54:  IORWF  FF2,F
....................                   delay_ms(20); 
07C56:  MOVLW  14
07C58:  MOVLB  6
07C5A:  MOVWF  x86
07C5C:  MOVLB  0
07C5E:  CALL   1346
....................                   write_eeprom(17,0); 
07C62:  CLRF   FAA
07C64:  MOVLW  11
07C66:  MOVWF  FA9
07C68:  CLRF   FA8
07C6A:  BCF    FA6.6
07C6C:  BCF    FA6.7
07C6E:  BSF    FA6.2
07C70:  MOVF   FF2,W
07C72:  MOVWF  00
07C74:  BCF    FF2.7
07C76:  MOVLB  F
07C78:  MOVLW  55
07C7A:  MOVWF  FA7
07C7C:  MOVLW  AA
07C7E:  MOVWF  FA7
07C80:  BSF    FA6.1
07C82:  BTFSC  FA6.1
07C84:  BRA    7C82
07C86:  BCF    FA6.2
07C88:  MOVF   00,W
07C8A:  IORWF  FF2,F
....................                   delay_ms(20); 
07C8C:  MOVLW  14
07C8E:  MOVLB  6
07C90:  MOVWF  x86
07C92:  MOVLB  0
07C94:  CALL   1346
....................                   write_eeprom(18,0); 
07C98:  CLRF   FAA
07C9A:  MOVLW  12
07C9C:  MOVWF  FA9
07C9E:  CLRF   FA8
07CA0:  BCF    FA6.6
07CA2:  BCF    FA6.7
07CA4:  BSF    FA6.2
07CA6:  MOVF   FF2,W
07CA8:  MOVWF  00
07CAA:  BCF    FF2.7
07CAC:  MOVLB  F
07CAE:  MOVLW  55
07CB0:  MOVWF  FA7
07CB2:  MOVLW  AA
07CB4:  MOVWF  FA7
07CB6:  BSF    FA6.1
07CB8:  BTFSC  FA6.1
07CBA:  BRA    7CB8
07CBC:  BCF    FA6.2
07CBE:  MOVF   00,W
07CC0:  IORWF  FF2,F
....................                   delay_ms(20); 
07CC2:  MOVLW  14
07CC4:  MOVLB  6
07CC6:  MOVWF  x86
07CC8:  MOVLB  0
07CCA:  CALL   1346
....................                   write_eeprom(19,0); 
07CCE:  CLRF   FAA
07CD0:  MOVLW  13
07CD2:  MOVWF  FA9
07CD4:  CLRF   FA8
07CD6:  BCF    FA6.6
07CD8:  BCF    FA6.7
07CDA:  BSF    FA6.2
07CDC:  MOVF   FF2,W
07CDE:  MOVWF  00
07CE0:  BCF    FF2.7
07CE2:  MOVLB  F
07CE4:  MOVLW  55
07CE6:  MOVWF  FA7
07CE8:  MOVLW  AA
07CEA:  MOVWF  FA7
07CEC:  BSF    FA6.1
07CEE:  BTFSC  FA6.1
07CF0:  BRA    7CEE
07CF2:  BCF    FA6.2
07CF4:  MOVF   00,W
07CF6:  IORWF  FF2,F
....................                   delay_ms(20); 
07CF8:  MOVLW  14
07CFA:  MOVLB  6
07CFC:  MOVWF  x86
07CFE:  MOVLB  0
07D00:  CALL   1346
....................                   Ttrabajo[3]=0;Ttrabajo[2]=0;Ttrabajo[1]=0;Ttrabajo[0]=0; 
07D04:  MOVLB  5
07D06:  CLRF   x46
07D08:  CLRF   x45
07D0A:  CLRF   x44
07D0C:  CLRF   x43
....................                   Menu=3;glcd_fillscreen(OFF);LuzBlanca_off; 
07D0E:  MOVLW  03
07D10:  MOVWF  x03
07D12:  MOVLB  6
07D14:  CLRF   x85
07D16:  MOVLB  0
07D18:  CALL   1442
07D1C:  BCF    F8B.0
07D1E:  BCF    F94.0
....................             } 
....................              
....................             if(LEFT) 
07D20:  BSF    F96.2
07D22:  BTFSC  F84.2
07D24:  BRA    7D44
....................             { 
....................                Menu=6;glcd_fillscreen(OFF);LuzBlanca_off;Opcion=1;unidad=1; 
07D26:  MOVLW  06
07D28:  MOVLB  5
07D2A:  MOVWF  x03
07D2C:  MOVLB  6
07D2E:  CLRF   x85
07D30:  MOVLB  0
07D32:  CALL   1442
07D36:  BCF    F8B.0
07D38:  BCF    F94.0
07D3A:  MOVLW  01
07D3C:  MOVLB  5
07D3E:  MOVWF  x05
07D40:  MOVWF  x04
07D42:  MOVLB  0
....................             } 
....................     } 
.................... //_--------------------------------------------------------------------------------------------------------------------------------------------------------        
....................  
.................... //_-------------------------------------------------------------------------------------------------------------------------------------------------------- 
....................       if(Menu==32){ //Menu de Servicio 
07D44:  MOVLB  5
07D46:  MOVF   x03,W
07D48:  SUBLW  20
07D4A:  BTFSS  FD8.2
07D4C:  BRA    806A
....................        
....................       strcpy(Menus.Letra,"Servicio"); 
07D4E:  MOVLW  04
07D50:  MOVWF  FEA
07D52:  MOVLW  17
07D54:  MOVWF  FE9
07D56:  MOVFF  FF2,67D
07D5A:  BCF    FF2.7
07D5C:  MOVLW  00
07D5E:  MOVLB  0
07D60:  CALL   1074
07D64:  TBLRD*-
07D66:  TBLRD*+
07D68:  MOVF   FF5,W
07D6A:  MOVWF  FEE
07D6C:  IORLW  00
07D6E:  BNZ   7D66
07D70:  MOVLB  6
07D72:  BTFSC  x7D.7
07D74:  BSF    FF2.7
....................       displayMenu(Menus.Letra,10,0,1,2); 
07D76:  MOVLW  04
07D78:  MOVWF  x86
07D7A:  MOVLW  17
07D7C:  MOVWF  x85
07D7E:  MOVLW  0A
07D80:  MOVWF  x87
07D82:  CLRF   x88
07D84:  MOVLW  01
07D86:  MOVWF  x89
07D88:  MOVLW  02
07D8A:  MOVWF  x8A
07D8C:  MOVLB  0
07D8E:  CALL   4AA0
....................        
....................       if(Opcion==1)    
07D92:  MOVLB  5
07D94:  DECFSZ x05,W
07D96:  BRA    7DDE
....................          {strcpy(Menus.Letra,"Sensor de Flujo"); 
07D98:  MOVLW  04
07D9A:  MOVWF  FEA
07D9C:  MOVLW  17
07D9E:  MOVWF  FE9
07DA0:  MOVFF  FF2,67D
07DA4:  BCF    FF2.7
07DA6:  MOVLW  00
07DA8:  MOVLB  0
07DAA:  CALL   114A
07DAE:  TBLRD*-
07DB0:  TBLRD*+
07DB2:  MOVF   FF5,W
07DB4:  MOVWF  FEE
07DB6:  IORLW  00
07DB8:  BNZ   7DB0
07DBA:  MOVLB  6
07DBC:  BTFSC  x7D.7
07DBE:  BSF    FF2.7
....................          displayMenu(Menus.Letra,0,18,1,1);} 
07DC0:  MOVLW  04
07DC2:  MOVWF  x86
07DC4:  MOVLW  17
07DC6:  MOVWF  x85
07DC8:  CLRF   x87
07DCA:  MOVLW  12
07DCC:  MOVWF  x88
07DCE:  MOVLW  01
07DD0:  MOVWF  x89
07DD2:  MOVWF  x8A
07DD4:  MOVLB  0
07DD6:  CALL   4AA0
....................       else 
07DDA:  BRA    7E20
07DDC:  MOVLB  5
....................          {strcpy(Menus.Letra,"Sensor de Flujo"); 
07DDE:  MOVLW  04
07DE0:  MOVWF  FEA
07DE2:  MOVLW  17
07DE4:  MOVWF  FE9
07DE6:  MOVFF  FF2,67D
07DEA:  BCF    FF2.7
07DEC:  MOVLW  00
07DEE:  MOVLB  0
07DF0:  CALL   114A
07DF4:  TBLRD*-
07DF6:  TBLRD*+
07DF8:  MOVF   FF5,W
07DFA:  MOVWF  FEE
07DFC:  IORLW  00
07DFE:  BNZ   7DF6
07E00:  MOVLB  6
07E02:  BTFSC  x7D.7
07E04:  BSF    FF2.7
....................          displayMenu(Menus.Letra,0,18,0,1);}  
07E06:  MOVLW  04
07E08:  MOVWF  x86
07E0A:  MOVLW  17
07E0C:  MOVWF  x85
07E0E:  CLRF   x87
07E10:  MOVLW  12
07E12:  MOVWF  x88
07E14:  CLRF   x89
07E16:  MOVLW  01
07E18:  MOVWF  x8A
07E1A:  MOVLB  0
07E1C:  CALL   4AA0
....................           
....................       if(Opcion==2)    
07E20:  MOVLB  5
07E22:  MOVF   x05,W
07E24:  SUBLW  02
07E26:  BNZ   7E6E
....................          {strcpy(Menus.Letra,"Sensor de Presion"); 
07E28:  MOVLW  04
07E2A:  MOVWF  FEA
07E2C:  MOVLW  17
07E2E:  MOVWF  FE9
07E30:  MOVFF  FF2,67D
07E34:  BCF    FF2.7
07E36:  MOVLW  00
07E38:  MOVLB  0
07E3A:  CALL   1178
07E3E:  TBLRD*-
07E40:  TBLRD*+
07E42:  MOVF   FF5,W
07E44:  MOVWF  FEE
07E46:  IORLW  00
07E48:  BNZ   7E40
07E4A:  MOVLB  6
07E4C:  BTFSC  x7D.7
07E4E:  BSF    FF2.7
....................          displayMenu(Menus.Letra,0,29,1,1);} 
07E50:  MOVLW  04
07E52:  MOVWF  x86
07E54:  MOVLW  17
07E56:  MOVWF  x85
07E58:  CLRF   x87
07E5A:  MOVLW  1D
07E5C:  MOVWF  x88
07E5E:  MOVLW  01
07E60:  MOVWF  x89
07E62:  MOVWF  x8A
07E64:  MOVLB  0
07E66:  CALL   4AA0
....................       else 
07E6A:  BRA    7EB0
07E6C:  MOVLB  5
....................          {strcpy(Menus.Letra,"Sensor de Presion"); 
07E6E:  MOVLW  04
07E70:  MOVWF  FEA
07E72:  MOVLW  17
07E74:  MOVWF  FE9
07E76:  MOVFF  FF2,67D
07E7A:  BCF    FF2.7
07E7C:  MOVLW  00
07E7E:  MOVLB  0
07E80:  CALL   1178
07E84:  TBLRD*-
07E86:  TBLRD*+
07E88:  MOVF   FF5,W
07E8A:  MOVWF  FEE
07E8C:  IORLW  00
07E8E:  BNZ   7E86
07E90:  MOVLB  6
07E92:  BTFSC  x7D.7
07E94:  BSF    FF2.7
....................          displayMenu(Menus.Letra,0,29,0,1);}   
07E96:  MOVLW  04
07E98:  MOVWF  x86
07E9A:  MOVLW  17
07E9C:  MOVWF  x85
07E9E:  CLRF   x87
07EA0:  MOVLW  1D
07EA2:  MOVWF  x88
07EA4:  CLRF   x89
07EA6:  MOVLW  01
07EA8:  MOVWF  x8A
07EAA:  MOVLB  0
07EAC:  CALL   4AA0
....................        
....................       if(Opcion==3)    
07EB0:  MOVLB  5
07EB2:  MOVF   x05,W
07EB4:  SUBLW  03
07EB6:  BNZ   7EFE
....................          {strcpy(Menus.Letra,"Velocidad Ventilador"); 
07EB8:  MOVLW  04
07EBA:  MOVWF  FEA
07EBC:  MOVLW  17
07EBE:  MOVWF  FE9
07EC0:  MOVFF  FF2,67D
07EC4:  BCF    FF2.7
07EC6:  MOVLW  00
07EC8:  MOVLB  0
07ECA:  CALL   11A8
07ECE:  TBLRD*-
07ED0:  TBLRD*+
07ED2:  MOVF   FF5,W
07ED4:  MOVWF  FEE
07ED6:  IORLW  00
07ED8:  BNZ   7ED0
07EDA:  MOVLB  6
07EDC:  BTFSC  x7D.7
07EDE:  BSF    FF2.7
....................          displayMenu(Menus.Letra,0,40,1,1);} 
07EE0:  MOVLW  04
07EE2:  MOVWF  x86
07EE4:  MOVLW  17
07EE6:  MOVWF  x85
07EE8:  CLRF   x87
07EEA:  MOVLW  28
07EEC:  MOVWF  x88
07EEE:  MOVLW  01
07EF0:  MOVWF  x89
07EF2:  MOVWF  x8A
07EF4:  MOVLB  0
07EF6:  CALL   4AA0
....................       else 
07EFA:  BRA    7F40
07EFC:  MOVLB  5
....................          {strcpy(Menus.Letra,"Velocidad Ventilador"); 
07EFE:  MOVLW  04
07F00:  MOVWF  FEA
07F02:  MOVLW  17
07F04:  MOVWF  FE9
07F06:  MOVFF  FF2,67D
07F0A:  BCF    FF2.7
07F0C:  MOVLW  00
07F0E:  MOVLB  0
07F10:  CALL   11A8
07F14:  TBLRD*-
07F16:  TBLRD*+
07F18:  MOVF   FF5,W
07F1A:  MOVWF  FEE
07F1C:  IORLW  00
07F1E:  BNZ   7F16
07F20:  MOVLB  6
07F22:  BTFSC  x7D.7
07F24:  BSF    FF2.7
....................          displayMenu(Menus.Letra,0,40,0,1);}  
07F26:  MOVLW  04
07F28:  MOVWF  x86
07F2A:  MOVLW  17
07F2C:  MOVWF  x85
07F2E:  CLRF   x87
07F30:  MOVLW  28
07F32:  MOVWF  x88
07F34:  CLRF   x89
07F36:  MOVLW  01
07F38:  MOVWF  x8A
07F3A:  MOVLB  0
07F3C:  CALL   4AA0
....................        
....................          
....................       if(UP)//Si oprime hacia arriba 
07F40:  BSF    F92.5
07F42:  BTFSC  F80.5
07F44:  BRA    7F62
....................       {  if(Flanco == 0)  
07F46:  MOVLB  4
07F48:  BTFSC  x36.3
07F4A:  BRA    7F60
....................             {Flanco = 1;delay_ms(30);Opcion--; 
07F4C:  BSF    x36.3
07F4E:  MOVLW  1E
07F50:  MOVLB  6
07F52:  MOVWF  x86
07F54:  MOVLB  0
07F56:  CALL   1346
07F5A:  MOVLB  5
07F5C:  DECF   x05,F
07F5E:  MOVLB  4
....................             } 
....................       } 
....................          else 
07F60:  BRA    7F66
....................             {Flanco = 0;} 
07F62:  MOVLB  4
07F64:  BCF    x36.3
....................              
....................       if(DOWN)//Si oprime hacia abajo 
07F66:  BSF    F96.0
07F68:  BTFSC  F84.0
07F6A:  BRA    7F86
....................       {  if(Flanco2 == 0)  
07F6C:  BTFSC  x36.5
07F6E:  BRA    7F84
....................             {Flanco2 = 1;delay_ms(30);Opcion++; 
07F70:  BSF    x36.5
07F72:  MOVLW  1E
07F74:  MOVLB  6
07F76:  MOVWF  x86
07F78:  MOVLB  0
07F7A:  CALL   1346
07F7E:  MOVLB  5
07F80:  INCF   x05,F
07F82:  MOVLB  4
....................             }      
....................       } 
....................          else 
07F84:  BRA    7F88
....................             {Flanco2 = 0;}   
07F86:  BCF    x36.5
....................              
....................       if(RIGHT)//Si oprime SET 
07F88:  BSF    F96.1
07F8A:  BTFSC  F84.1
07F8C:  BRA    8022
....................       {   
....................          delay_ms(20); 
07F8E:  MOVLW  14
07F90:  MOVLB  6
07F92:  MOVWF  x86
07F94:  MOVLB  0
07F96:  CALL   1346
....................          if(RIGHT){ 
07F9A:  BSF    F96.1
07F9C:  BTFSC  F84.1
07F9E:  BRA    8020
....................             delay_ms(100); 
07FA0:  MOVLW  64
07FA2:  MOVLB  6
07FA4:  MOVWF  x86
07FA6:  MOVLB  0
07FA8:  CALL   1346
....................             glcd_fillScreen(OFF); 
07FAC:  MOVLB  6
07FAE:  CLRF   x85
07FB0:  MOVLB  0
07FB2:  CALL   1442
....................             while(!PidePassword(6,32,Opcion+40,4,4,4,4)){ 
07FB6:  MOVLW  28
07FB8:  MOVLB  5
07FBA:  ADDWF  x05,W
07FBC:  MOVLB  6
07FBE:  MOVWF  x7D
07FC0:  MOVLW  06
07FC2:  MOVWF  x7E
07FC4:  MOVLW  20
07FC6:  MOVWF  x7F
07FC8:  MOVFF  67D,680
07FCC:  MOVLW  04
07FCE:  MOVWF  x81
07FD0:  MOVWF  x82
07FD2:  MOVWF  x83
07FD4:  MOVWF  x84
07FD6:  MOVLB  0
07FD8:  CALL   4B70
07FDC:  MOVF   01,F
07FDE:  BNZ   800C
....................                PidePassword(6,32,Opcion+40,4,4,4,4);glcd_update(); 
07FE0:  MOVLW  28
07FE2:  MOVLB  5
07FE4:  ADDWF  x05,W
07FE6:  MOVLB  6
07FE8:  MOVWF  x7D
07FEA:  MOVLW  06
07FEC:  MOVWF  x7E
07FEE:  MOVLW  20
07FF0:  MOVWF  x7F
07FF2:  MOVFF  67D,680
07FF6:  MOVLW  04
07FF8:  MOVWF  x81
07FFA:  MOVWF  x82
07FFC:  MOVWF  x83
07FFE:  MOVWF  x84
08000:  MOVLB  0
08002:  CALL   4B70
08006:  CALL   149C
....................             }             
0800A:  BRA    7FB6
....................             glcd_fillScreen(OFF);Opcion=1;unidad=1; 
0800C:  MOVLB  6
0800E:  CLRF   x85
08010:  MOVLB  0
08012:  CALL   1442
08016:  MOVLW  01
08018:  MOVLB  5
0801A:  MOVWF  x05
0801C:  MOVWF  x04
0801E:  MOVLB  0
08020:  MOVLB  4
....................          } 
....................       } 
....................              
....................       if(LEFT)//Si oprime boton de Toma. 
08022:  BSF    F96.2
08024:  BTFSC  F84.2
08026:  BRA    8056
....................         {delay_ms(700);Menu=6;glcd_fillscreen(OFF);Opcion=1;unidad=1;} 
08028:  MOVLW  04
0802A:  MOVLB  6
0802C:  MOVWF  x7D
0802E:  MOVLW  AF
08030:  MOVWF  x86
08032:  MOVLB  0
08034:  CALL   1346
08038:  MOVLB  6
0803A:  DECFSZ x7D,F
0803C:  BRA    802E
0803E:  MOVLW  06
08040:  MOVLB  5
08042:  MOVWF  x03
08044:  MOVLB  6
08046:  CLRF   x85
08048:  MOVLB  0
0804A:  CALL   1442
0804E:  MOVLW  01
08050:  MOVLB  5
08052:  MOVWF  x05
08054:  MOVWF  x04
....................          
....................       if(Opcion>3) 
08056:  MOVLB  5
08058:  MOVF   x05,W
0805A:  SUBLW  03
0805C:  BC    8062
....................       {Opcion=1;} 
0805E:  MOVLW  01
08060:  MOVWF  x05
....................       if(Opcion<1) 
08062:  MOVF   x05,F
08064:  BNZ   806A
....................       {Opcion=3;} 
08066:  MOVLW  03
08068:  MOVWF  x05
....................     } 
.................... //_--------------------------------------------------------------------------------------------------------------------------------------------------------        
....................  
.................... //_-------------------------------------------------------------------------------------------------------------------------------------------------------- 
....................       if(Menu==41){ //Menu de Sensor de Flujo. 
0806A:  MOVF   x03,W
0806C:  SUBLW  29
0806E:  BTFSS  FD8.2
08070:  BRA    8634
....................        
....................       if(Ajuste1>10.0) 
08072:  MOVLB  6
08074:  CLRF   xB1
08076:  CLRF   xB0
08078:  MOVLW  20
0807A:  MOVWF  xAF
0807C:  MOVLW  82
0807E:  MOVWF  xAE
08080:  MOVFF  582,6B5
08084:  MOVFF  581,6B4
08088:  MOVFF  580,6B3
0808C:  MOVFF  57F,6B2
08090:  MOVLB  0
08092:  CALL   2424
08096:  BNC   80A4
....................          Ajuste1=0.0; 
08098:  MOVLB  5
0809A:  CLRF   x82
0809C:  CLRF   x81
0809E:  CLRF   x80
080A0:  CLRF   x7F
080A2:  MOVLB  0
....................        
....................       strcpy(Menus.Letra,"Sensor de Flujo"); 
080A4:  MOVLW  04
080A6:  MOVWF  FEA
080A8:  MOVLW  17
080AA:  MOVWF  FE9
080AC:  MOVFF  FF2,67D
080B0:  BCF    FF2.7
080B2:  MOVLW  00
080B4:  CALL   114A
080B8:  TBLRD*-
080BA:  TBLRD*+
080BC:  MOVF   FF5,W
080BE:  MOVWF  FEE
080C0:  IORLW  00
080C2:  BNZ   80BA
080C4:  MOVLB  6
080C6:  BTFSC  x7D.7
080C8:  BSF    FF2.7
....................       displayMenu(Menus.Letra,10,0,1,1); 
080CA:  MOVLW  04
080CC:  MOVWF  x86
080CE:  MOVLW  17
080D0:  MOVWF  x85
080D2:  MOVLW  0A
080D4:  MOVWF  x87
080D6:  CLRF   x88
080D8:  MOVLW  01
080DA:  MOVWF  x89
080DC:  MOVWF  x8A
080DE:  MOVLB  0
080E0:  CALL   4AA0
....................        
....................       glcd_text57(0, 12, ZF, 1, ON); 
080E4:  MOVLB  6
080E6:  CLRF   x96
080E8:  MOVLW  0C
080EA:  MOVWF  x97
080EC:  MOVLW  04
080EE:  MOVWF  x99
080F0:  MOVLW  B5
080F2:  MOVWF  x98
080F4:  MOVLW  01
080F6:  MOVWF  x9A
080F8:  MOVWF  x9B
080FA:  MOVLB  0
080FC:  CALL   16B8
....................        
....................       glcd_text57(0, 20, ZA, 1, ON); 
08100:  MOVLB  6
08102:  CLRF   x96
08104:  MOVLW  14
08106:  MOVWF  x97
08108:  MOVLW  04
0810A:  MOVWF  x99
0810C:  MOVLW  C3
0810E:  MOVWF  x98
08110:  MOVLW  01
08112:  MOVWF  x9A
08114:  MOVWF  x9B
08116:  MOVLB  0
08118:  CALL   16B8
....................        
....................       glcd_text57(0, 30, AJ, 1, ON);            
0811C:  MOVLB  6
0811E:  CLRF   x96
08120:  MOVLW  1E
08122:  MOVWF  x97
08124:  MOVLW  04
08126:  MOVWF  x99
08128:  MOVLW  CB
0812A:  MOVWF  x98
0812C:  MOVLW  01
0812E:  MOVWF  x9A
08130:  MOVWF  x9B
08132:  MOVLB  0
08134:  CALL   16B8
....................        
....................       displayfloat(zero_actual,44,20,0,1); 
08138:  MOVFF  60E,684
0813C:  MOVFF  60D,683
08140:  MOVFF  60C,682
08144:  MOVFF  60B,681
08148:  MOVLW  2C
0814A:  MOVLB  6
0814C:  MOVWF  x85
0814E:  MOVLW  14
08150:  MOVWF  x86
08152:  CLRF   x87
08154:  MOVLW  01
08156:  MOVWF  x88
08158:  MOVLB  0
0815A:  CALL   57FE
....................       displayfloat(Ajuste1,44,30,0,1); 
0815E:  MOVFF  582,684
08162:  MOVFF  581,683
08166:  MOVFF  580,682
0816A:  MOVFF  57F,681
0816E:  MOVLW  2C
08170:  MOVLB  6
08172:  MOVWF  x85
08174:  MOVLW  1E
08176:  MOVWF  x86
08178:  CLRF   x87
0817A:  MOVLW  01
0817C:  MOVWF  x88
0817E:  MOVLB  0
08180:  CALL   57FE
....................       displayfloat(Inflow_adc,0,40,0,1); 
08184:  MOVFF  51A,6B3
08188:  MOVFF  519,6B2
0818C:  CALL   1870
08190:  MOVFF  00,67D
08194:  MOVFF  01,67E
08198:  MOVFF  02,67F
0819C:  MOVFF  03,680
081A0:  MOVFF  03,684
081A4:  MOVFF  02,683
081A8:  MOVFF  01,682
081AC:  MOVFF  00,681
081B0:  MOVLB  6
081B2:  CLRF   x85
081B4:  MOVLW  28
081B6:  MOVWF  x86
081B8:  CLRF   x87
081BA:  MOVLW  01
081BC:  MOVWF  x88
081BE:  MOVLB  0
081C0:  CALL   57FE
.................... //      displayfloat(Diferencia,0,50,0,1); 
....................        
....................       if(UP)//Si oprime hacia arriba 
081C4:  BSF    F92.5
081C6:  BTFSC  F80.5
081C8:  BRA    8210
....................       {   
....................          delay_ms(30);Ajuste1+=0.01; 
081CA:  MOVLW  1E
081CC:  MOVLB  6
081CE:  MOVWF  x86
081D0:  MOVLB  0
081D2:  CALL   1346
081D6:  BCF    FD8.1
081D8:  MOVFF  582,6B5
081DC:  MOVFF  581,6B4
081E0:  MOVFF  580,6B3
081E4:  MOVFF  57F,6B2
081E8:  MOVLW  0A
081EA:  MOVLB  6
081EC:  MOVWF  xB9
081EE:  MOVLW  D7
081F0:  MOVWF  xB8
081F2:  MOVLW  23
081F4:  MOVWF  xB7
081F6:  MOVLW  78
081F8:  MOVWF  xB6
081FA:  MOVLB  0
081FC:  CALL   1A04
08200:  MOVFF  03,582
08204:  MOVFF  02,581
08208:  MOVFF  01,580
0820C:  MOVFF  00,57F
....................       } 
....................              
....................       if(DOWN)//Si oprime hacia abajo 
08210:  BSF    F96.0
08212:  BTFSC  F84.0
08214:  BRA    825C
....................       {    
....................          delay_ms(30);Ajuste1-=0.01; 
08216:  MOVLW  1E
08218:  MOVLB  6
0821A:  MOVWF  x86
0821C:  MOVLB  0
0821E:  CALL   1346
08222:  BSF    FD8.1
08224:  MOVFF  582,6B5
08228:  MOVFF  581,6B4
0822C:  MOVFF  580,6B3
08230:  MOVFF  57F,6B2
08234:  MOVLW  0A
08236:  MOVLB  6
08238:  MOVWF  xB9
0823A:  MOVLW  D7
0823C:  MOVWF  xB8
0823E:  MOVLW  23
08240:  MOVWF  xB7
08242:  MOVLW  78
08244:  MOVWF  xB6
08246:  MOVLB  0
08248:  CALL   1A04
0824C:  MOVFF  03,582
08250:  MOVFF  02,581
08254:  MOVFF  01,580
08258:  MOVFF  00,57F
....................       } 
....................              
....................       if(RIGHT)//Si oprime SET 
0825C:  BSF    F96.1
0825E:  BTFSC  F84.1
08260:  BRA    84CE
....................       {   
....................          zero_actual=Inflow_adc; 
08262:  MOVFF  51A,6B3
08266:  MOVFF  519,6B2
0826A:  CALL   1870
0826E:  MOVFF  03,60E
08272:  MOVFF  02,60D
08276:  MOVFF  01,60C
0827A:  MOVFF  00,60B
....................          Diferencia=zero_fabrica-Inflow_adc; 
0827E:  MOVFF  51A,6B3
08282:  MOVFF  519,6B2
08286:  CALL   1870
0828A:  BSF    FD8.1
0828C:  MOVFF  60A,6B5
08290:  MOVFF  609,6B4
08294:  MOVFF  608,6B3
08298:  MOVFF  607,6B2
0829C:  MOVFF  03,6B9
082A0:  MOVFF  02,6B8
082A4:  MOVFF  01,6B7
082A8:  MOVFF  00,6B6
082AC:  CALL   1A04
082B0:  MOVFF  03,55E
082B4:  MOVFF  02,55D
082B8:  MOVFF  01,55C
082BC:  MOVFF  00,55B
....................              
....................          if(Diferencia>=0) 
082C0:  MOVLB  6
082C2:  CLRF   xB1
082C4:  CLRF   xB0
082C6:  CLRF   xAF
082C8:  CLRF   xAE
082CA:  MOVFF  55E,6B5
082CE:  MOVFF  55D,6B4
082D2:  MOVFF  55C,6B3
082D6:  MOVFF  55B,6B2
082DA:  MOVLB  0
082DC:  CALL   2424
082E0:  BC    82E4
082E2:  BNZ   8322
....................          { 
....................             negativo=10;write_eeprom(50,negativo);delay_ms(20); 
082E4:  MOVLW  0A
082E6:  MOVLB  5
082E8:  MOVWF  x07
082EA:  CLRF   FAA
082EC:  MOVLW  32
082EE:  MOVWF  FA9
082F0:  MOVFF  507,FA8
082F4:  BCF    FA6.6
082F6:  BCF    FA6.7
082F8:  BSF    FA6.2
082FA:  MOVF   FF2,W
082FC:  MOVWF  00
082FE:  BCF    FF2.7
08300:  MOVLB  F
08302:  MOVLW  55
08304:  MOVWF  FA7
08306:  MOVLW  AA
08308:  MOVWF  FA7
0830A:  BSF    FA6.1
0830C:  BTFSC  FA6.1
0830E:  BRA    830C
08310:  BCF    FA6.2
08312:  MOVF   00,W
08314:  IORWF  FF2,F
08316:  MOVLW  14
08318:  MOVLB  6
0831A:  MOVWF  x86
0831C:  MOVLB  0
0831E:  CALL   1346
....................          } 
....................          if(Diferencia<0) 
08322:  MOVFF  55E,6B1
08326:  MOVFF  55D,6B0
0832A:  MOVFF  55C,6AF
0832E:  MOVFF  55B,6AE
08332:  MOVLB  6
08334:  CLRF   xB5
08336:  CLRF   xB4
08338:  CLRF   xB3
0833A:  CLRF   xB2
0833C:  MOVLB  0
0833E:  CALL   2424
08342:  BNC   8382
....................          { 
....................             negativo=20;write_eeprom(50,negativo);delay_ms(20); 
08344:  MOVLW  14
08346:  MOVLB  5
08348:  MOVWF  x07
0834A:  CLRF   FAA
0834C:  MOVLW  32
0834E:  MOVWF  FA9
08350:  MOVFF  507,FA8
08354:  BCF    FA6.6
08356:  BCF    FA6.7
08358:  BSF    FA6.2
0835A:  MOVF   FF2,W
0835C:  MOVWF  00
0835E:  BCF    FF2.7
08360:  MOVLB  F
08362:  MOVLW  55
08364:  MOVWF  FA7
08366:  MOVLW  AA
08368:  MOVWF  FA7
0836A:  BSF    FA6.1
0836C:  BTFSC  FA6.1
0836E:  BRA    836C
08370:  BCF    FA6.2
08372:  MOVF   00,W
08374:  IORWF  FF2,F
08376:  MOVLW  14
08378:  MOVLB  6
0837A:  MOVWF  x86
0837C:  MOVLB  0
0837E:  CALL   1346
....................          } 
....................          Diferencia=abs(Diferencia); 
08382:  MOVFF  55B,00
08386:  MOVFF  55C,01
0838A:  MOVFF  55D,02
0838E:  MOVFF  55E,03
08392:  BCF    01.7
08394:  MOVFF  55E,55E
08398:  MOVFF  55D,55D
0839C:  MOVFF  01,55C
083A0:  MOVFF  55B,55B
....................          Temporal1=(int16)Diferencia; 
083A4:  MOVFF  55E,6B1
083A8:  MOVFF  55D,6B0
083AC:  MOVFF  55C,6AF
083B0:  MOVFF  55B,6AE
083B4:  CALL   2E6C
083B8:  MOVFF  02,51E
083BC:  MOVFF  01,51D
....................          write_eeprom(60,make8(Temporal1,0)); 
083C0:  MOVFF  51D,67D
083C4:  CLRF   FAA
083C6:  MOVLW  3C
083C8:  MOVWF  FA9
083CA:  MOVFF  67D,FA8
083CE:  BCF    FA6.6
083D0:  BCF    FA6.7
083D2:  BSF    FA6.2
083D4:  MOVF   FF2,W
083D6:  MOVWF  00
083D8:  BCF    FF2.7
083DA:  MOVLB  F
083DC:  MOVLW  55
083DE:  MOVWF  FA7
083E0:  MOVLW  AA
083E2:  MOVWF  FA7
083E4:  BSF    FA6.1
083E6:  BTFSC  FA6.1
083E8:  BRA    83E6
083EA:  BCF    FA6.2
083EC:  MOVF   00,W
083EE:  IORWF  FF2,F
....................          delay_ms(20); 
083F0:  MOVLW  14
083F2:  MOVLB  6
083F4:  MOVWF  x86
083F6:  MOVLB  0
083F8:  CALL   1346
....................          write_eeprom(61,make8(Temporal1,1));//Guardar valor de Setpoint en eeprom 
083FC:  MOVFF  51E,67D
08400:  CLRF   FAA
08402:  MOVLW  3D
08404:  MOVWF  FA9
08406:  MOVFF  67D,FA8
0840A:  BCF    FA6.6
0840C:  BCF    FA6.7
0840E:  BSF    FA6.2
08410:  MOVF   FF2,W
08412:  MOVWF  00
08414:  BCF    FF2.7
08416:  MOVLB  F
08418:  MOVLW  55
0841A:  MOVWF  FA7
0841C:  MOVLW  AA
0841E:  MOVWF  FA7
08420:  BSF    FA6.1
08422:  BTFSC  FA6.1
08424:  BRA    8422
08426:  BCF    FA6.2
08428:  MOVF   00,W
0842A:  IORWF  FF2,F
....................          delay_ms(20); 
0842C:  MOVLW  14
0842E:  MOVLB  6
08430:  MOVWF  x86
08432:  MOVLB  0
08434:  CALL   1346
....................  
....................          Temporal1=(int16)zero_actual; 
08438:  MOVFF  60E,6B1
0843C:  MOVFF  60D,6B0
08440:  MOVFF  60C,6AF
08444:  MOVFF  60B,6AE
08448:  CALL   2E6C
0844C:  MOVFF  02,51E
08450:  MOVFF  01,51D
....................          write_eeprom(29,make8(Temporal1,0)); 
08454:  MOVFF  51D,67D
08458:  CLRF   FAA
0845A:  MOVLW  1D
0845C:  MOVWF  FA9
0845E:  MOVFF  67D,FA8
08462:  BCF    FA6.6
08464:  BCF    FA6.7
08466:  BSF    FA6.2
08468:  MOVF   FF2,W
0846A:  MOVWF  00
0846C:  BCF    FF2.7
0846E:  MOVLB  F
08470:  MOVLW  55
08472:  MOVWF  FA7
08474:  MOVLW  AA
08476:  MOVWF  FA7
08478:  BSF    FA6.1
0847A:  BTFSC  FA6.1
0847C:  BRA    847A
0847E:  BCF    FA6.2
08480:  MOVF   00,W
08482:  IORWF  FF2,F
....................          delay_ms(20); 
08484:  MOVLW  14
08486:  MOVLB  6
08488:  MOVWF  x86
0848A:  MOVLB  0
0848C:  CALL   1346
....................          write_eeprom(30,make8(Temporal1,1));//Guardar valor de Setpoint en eeprom 
08490:  MOVFF  51E,67D
08494:  CLRF   FAA
08496:  MOVLW  1E
08498:  MOVWF  FA9
0849A:  MOVFF  67D,FA8
0849E:  BCF    FA6.6
084A0:  BCF    FA6.7
084A2:  BSF    FA6.2
084A4:  MOVF   FF2,W
084A6:  MOVWF  00
084A8:  BCF    FF2.7
084AA:  MOVLB  F
084AC:  MOVLW  55
084AE:  MOVWF  FA7
084B0:  MOVLW  AA
084B2:  MOVWF  FA7
084B4:  BSF    FA6.1
084B6:  BTFSC  FA6.1
084B8:  BRA    84B6
084BA:  BCF    FA6.2
084BC:  MOVF   00,W
084BE:  IORWF  FF2,F
....................          delay_ms(20); 
084C0:  MOVLW  14
084C2:  MOVLB  6
084C4:  MOVWF  x86
084C6:  MOVLB  0
084C8:  CALL   1346
....................       } 
....................          else 
084CC:  BRA    84D4
....................             {Flanco1 = 0;}   
084CE:  MOVLB  4
084D0:  BCF    x36.4
084D2:  MOVLB  0
....................              
....................       if(LEFT)//Si oprime boton de Toma. 
084D4:  BSF    F96.2
084D6:  BTFSC  F84.2
084D8:  BRA    8632
....................       { 
....................          delay_ms(700);Menu=32;glcd_fillscreen(OFF);Opcion=1;unidad=1; 
084DA:  MOVLW  04
084DC:  MOVLB  6
084DE:  MOVWF  x7D
084E0:  MOVLW  AF
084E2:  MOVWF  x86
084E4:  MOVLB  0
084E6:  CALL   1346
084EA:  MOVLB  6
084EC:  DECFSZ x7D,F
084EE:  BRA    84E0
084F0:  MOVLW  20
084F2:  MOVLB  5
084F4:  MOVWF  x03
084F6:  MOVLB  6
084F8:  CLRF   x85
084FA:  MOVLB  0
084FC:  CALL   1442
08500:  MOVLW  01
08502:  MOVLB  5
08504:  MOVWF  x05
08506:  MOVWF  x04
....................          Temporal=Ajuste1; 
08508:  MOVFF  582,58E
0850C:  MOVFF  581,58D
08510:  MOVFF  580,58C
08514:  MOVFF  57F,58B
....................          Entero=(int)Ajuste1; 
08518:  MOVFF  582,6B1
0851C:  MOVFF  581,6B0
08520:  MOVFF  580,6AF
08524:  MOVFF  57F,6AE
08528:  MOVLB  0
0852A:  CALL   2E6C
0852E:  MOVFF  01,50F
....................          Temporal=Temporal-Entero; 
08532:  MOVLB  6
08534:  CLRF   xB3
08536:  MOVFF  50F,6B2
0853A:  MOVLB  0
0853C:  CALL   1870
08540:  BSF    FD8.1
08542:  MOVFF  58E,6B5
08546:  MOVFF  58D,6B4
0854A:  MOVFF  58C,6B3
0854E:  MOVFF  58B,6B2
08552:  MOVFF  03,6B9
08556:  MOVFF  02,6B8
0855A:  MOVFF  01,6B7
0855E:  MOVFF  00,6B6
08562:  CALL   1A04
08566:  MOVFF  03,58E
0856A:  MOVFF  02,58D
0856E:  MOVFF  01,58C
08572:  MOVFF  00,58B
....................          Temporal2=Temporal*10.0; 
08576:  MOVFF  58E,6B1
0857A:  MOVFF  58D,6B0
0857E:  MOVFF  58C,6AF
08582:  MOVFF  58B,6AE
08586:  MOVLB  6
08588:  CLRF   xB5
0858A:  CLRF   xB4
0858C:  MOVLW  20
0858E:  MOVWF  xB3
08590:  MOVLW  82
08592:  MOVWF  xB2
08594:  MOVLB  0
08596:  CALL   2EA8
0859A:  MOVFF  03,592
0859E:  MOVFF  02,591
085A2:  MOVFF  01,590
085A6:  MOVFF  00,58F
....................          Decimal1=(int8)Temporal2; 
085AA:  MOVFF  592,6B1
085AE:  MOVFF  591,6B0
085B2:  MOVFF  590,6AF
085B6:  MOVFF  58F,6AE
085BA:  CALL   2E6C
085BE:  MOVFF  01,510
....................          write_eeprom(25,Entero); 
085C2:  CLRF   FAA
085C4:  MOVLW  19
085C6:  MOVWF  FA9
085C8:  MOVFF  50F,FA8
085CC:  BCF    FA6.6
085CE:  BCF    FA6.7
085D0:  BSF    FA6.2
085D2:  MOVF   FF2,W
085D4:  MOVWF  00
085D6:  BCF    FF2.7
085D8:  MOVLB  F
085DA:  MOVLW  55
085DC:  MOVWF  FA7
085DE:  MOVLW  AA
085E0:  MOVWF  FA7
085E2:  BSF    FA6.1
085E4:  BTFSC  FA6.1
085E6:  BRA    85E4
085E8:  BCF    FA6.2
085EA:  MOVF   00,W
085EC:  IORWF  FF2,F
....................          delay_ms(20); 
085EE:  MOVLW  14
085F0:  MOVLB  6
085F2:  MOVWF  x86
085F4:  MOVLB  0
085F6:  CALL   1346
....................          write_eeprom(26,Decimal1); 
085FA:  CLRF   FAA
085FC:  MOVLW  1A
085FE:  MOVWF  FA9
08600:  MOVFF  510,FA8
08604:  BCF    FA6.6
08606:  BCF    FA6.7
08608:  BSF    FA6.2
0860A:  MOVF   FF2,W
0860C:  MOVWF  00
0860E:  BCF    FF2.7
08610:  MOVLB  F
08612:  MOVLW  55
08614:  MOVWF  FA7
08616:  MOVLW  AA
08618:  MOVWF  FA7
0861A:  BSF    FA6.1
0861C:  BTFSC  FA6.1
0861E:  BRA    861C
08620:  BCF    FA6.2
08622:  MOVF   00,W
08624:  IORWF  FF2,F
....................          delay_ms(20); 
08626:  MOVLW  14
08628:  MOVLB  6
0862A:  MOVWF  x86
0862C:  MOVLB  0
0862E:  CALL   1346
08632:  MOVLB  5
....................       } 
....................     } 
.................... //_--------------------------------------------------------------------------------------------------------------------------------------------------------        
....................  
.................... //_-------------------------------------------------------------------------------------------------------------------------------------------------------- 
....................       if(Menu==42){ //Menu de Sensor de Presin. 
08634:  MOVF   x03,W
08636:  SUBLW  2A
08638:  BTFSS  FD8.2
0863A:  BRA    8A68
....................        
....................       if(Ajuste2>10.0) 
0863C:  MOVLB  6
0863E:  CLRF   xB1
08640:  CLRF   xB0
08642:  MOVLW  20
08644:  MOVWF  xAF
08646:  MOVLW  82
08648:  MOVWF  xAE
0864A:  MOVFF  586,6B5
0864E:  MOVFF  585,6B4
08652:  MOVFF  584,6B3
08656:  MOVFF  583,6B2
0865A:  MOVLB  0
0865C:  CALL   2424
08660:  BNC   866E
....................          Ajuste2=0.0; 
08662:  MOVLB  5
08664:  CLRF   x86
08666:  CLRF   x85
08668:  CLRF   x84
0866A:  CLRF   x83
0866C:  MOVLB  0
....................        
....................       strcpy(Menus.Letra,"Sensor de Presion"); 
0866E:  MOVLW  04
08670:  MOVWF  FEA
08672:  MOVLW  17
08674:  MOVWF  FE9
08676:  MOVFF  FF2,67D
0867A:  BCF    FF2.7
0867C:  MOVLW  00
0867E:  CALL   1178
08682:  TBLRD*-
08684:  TBLRD*+
08686:  MOVF   FF5,W
08688:  MOVWF  FEE
0868A:  IORLW  00
0868C:  BNZ   8684
0868E:  MOVLB  6
08690:  BTFSC  x7D.7
08692:  BSF    FF2.7
....................       displayMenu(Menus.Letra,10,0,1,1); 
08694:  MOVLW  04
08696:  MOVWF  x86
08698:  MOVLW  17
0869A:  MOVWF  x85
0869C:  MOVLW  0A
0869E:  MOVWF  x87
086A0:  CLRF   x88
086A2:  MOVLW  01
086A4:  MOVWF  x89
086A6:  MOVWF  x8A
086A8:  MOVLB  0
086AA:  CALL   4AA0
....................        
....................       glcd_text57(0, 12, ZFP, 1, ON); 
086AE:  MOVLB  6
086B0:  CLRF   x96
086B2:  MOVLW  0C
086B4:  MOVWF  x97
086B6:  MOVLW  04
086B8:  MOVWF  x99
086BA:  MOVLW  E3
086BC:  MOVWF  x98
086BE:  MOVLW  01
086C0:  MOVWF  x9A
086C2:  MOVWF  x9B
086C4:  MOVLB  0
086C6:  CALL   16B8
....................        
....................       glcd_text57(0, 20, ZA, 1, ON); 
086CA:  MOVLB  6
086CC:  CLRF   x96
086CE:  MOVLW  14
086D0:  MOVWF  x97
086D2:  MOVLW  04
086D4:  MOVWF  x99
086D6:  MOVLW  C3
086D8:  MOVWF  x98
086DA:  MOVLW  01
086DC:  MOVWF  x9A
086DE:  MOVWF  x9B
086E0:  MOVLB  0
086E2:  CALL   16B8
....................        
....................       glcd_text57(0, 30, AJ, 1, ON);            
086E6:  MOVLB  6
086E8:  CLRF   x96
086EA:  MOVLW  1E
086EC:  MOVWF  x97
086EE:  MOVLW  04
086F0:  MOVWF  x99
086F2:  MOVLW  CB
086F4:  MOVWF  x98
086F6:  MOVLW  01
086F8:  MOVWF  x9A
086FA:  MOVWF  x9B
086FC:  MOVLB  0
086FE:  CALL   16B8
....................        
....................       displayfloat(G,44,20,0,1); 
08702:  MOVFF  61A,684
08706:  MOVFF  619,683
0870A:  MOVFF  618,682
0870E:  MOVFF  617,681
08712:  MOVLW  2C
08714:  MOVLB  6
08716:  MOVWF  x85
08718:  MOVLW  14
0871A:  MOVWF  x86
0871C:  CLRF   x87
0871E:  MOVLW  01
08720:  MOVWF  x88
08722:  MOVLB  0
08724:  CALL   57FE
....................       displayfloat(Ajuste2,44,30,0,1); 
08728:  MOVFF  586,684
0872C:  MOVFF  585,683
08730:  MOVFF  584,682
08734:  MOVFF  583,681
08738:  MOVLW  2C
0873A:  MOVLB  6
0873C:  MOVWF  x85
0873E:  MOVLW  1E
08740:  MOVWF  x86
08742:  CLRF   x87
08744:  MOVLW  01
08746:  MOVWF  x88
08748:  MOVLB  0
0874A:  CALL   57FE
....................       displayfloat(Filtro_DownFlow_adc,0,40,0,1); 
0874E:  MOVFF  51C,6B3
08752:  MOVFF  51B,6B2
08756:  CALL   1870
0875A:  MOVFF  00,67D
0875E:  MOVFF  01,67E
08762:  MOVFF  02,67F
08766:  MOVFF  03,680
0876A:  MOVFF  03,684
0876E:  MOVFF  02,683
08772:  MOVFF  01,682
08776:  MOVFF  00,681
0877A:  MOVLB  6
0877C:  CLRF   x85
0877E:  MOVLW  28
08780:  MOVWF  x86
08782:  CLRF   x87
08784:  MOVLW  01
08786:  MOVWF  x88
08788:  MOVLB  0
0878A:  CALL   57FE
....................       displayfloat(Filtro_DownFlow,0,50,0,1); 
0878E:  MOVFF  55A,684
08792:  MOVFF  559,683
08796:  MOVFF  558,682
0879A:  MOVFF  557,681
0879E:  MOVLB  6
087A0:  CLRF   x85
087A2:  MOVLW  32
087A4:  MOVWF  x86
087A6:  CLRF   x87
087A8:  MOVLW  01
087AA:  MOVWF  x88
087AC:  MOVLB  0
087AE:  CALL   57FE
....................        
....................       if(UP)//Si oprime hacia arriba 
087B2:  BSF    F92.5
087B4:  BTFSC  F80.5
087B6:  BRA    87FE
....................       {   
....................          delay_ms(30);Ajuste2+=0.01; 
087B8:  MOVLW  1E
087BA:  MOVLB  6
087BC:  MOVWF  x86
087BE:  MOVLB  0
087C0:  CALL   1346
087C4:  BCF    FD8.1
087C6:  MOVFF  586,6B5
087CA:  MOVFF  585,6B4
087CE:  MOVFF  584,6B3
087D2:  MOVFF  583,6B2
087D6:  MOVLW  0A
087D8:  MOVLB  6
087DA:  MOVWF  xB9
087DC:  MOVLW  D7
087DE:  MOVWF  xB8
087E0:  MOVLW  23
087E2:  MOVWF  xB7
087E4:  MOVLW  78
087E6:  MOVWF  xB6
087E8:  MOVLB  0
087EA:  CALL   1A04
087EE:  MOVFF  03,586
087F2:  MOVFF  02,585
087F6:  MOVFF  01,584
087FA:  MOVFF  00,583
....................       } 
....................              
....................       if(DOWN)//Si oprime hacia abajo 
087FE:  BSF    F96.0
08800:  BTFSC  F84.0
08802:  BRA    884A
....................       {   
....................          delay_ms(30);Ajuste2-=0.01; 
08804:  MOVLW  1E
08806:  MOVLB  6
08808:  MOVWF  x86
0880A:  MOVLB  0
0880C:  CALL   1346
08810:  BSF    FD8.1
08812:  MOVFF  586,6B5
08816:  MOVFF  585,6B4
0881A:  MOVFF  584,6B3
0881E:  MOVFF  583,6B2
08822:  MOVLW  0A
08824:  MOVLB  6
08826:  MOVWF  xB9
08828:  MOVLW  D7
0882A:  MOVWF  xB8
0882C:  MOVLW  23
0882E:  MOVWF  xB7
08830:  MOVLW  78
08832:  MOVWF  xB6
08834:  MOVLB  0
08836:  CALL   1A04
0883A:  MOVFF  03,586
0883E:  MOVFF  02,585
08842:  MOVFF  01,584
08846:  MOVFF  00,583
....................       } 
....................              
....................       if(RIGHT)//Si oprime SET 
0884A:  BSF    F96.1
0884C:  BTFSC  F84.1
0884E:  BRA    8902
....................       {            
....................          G=Filtro_Downflow_adc; 
08850:  MOVFF  51C,6B3
08854:  MOVFF  51B,6B2
08858:  CALL   1870
0885C:  MOVFF  03,61A
08860:  MOVFF  02,619
08864:  MOVFF  01,618
08868:  MOVFF  00,617
....................          G16=(int16)G; 
0886C:  MOVFF  61A,6B1
08870:  MOVFF  619,6B0
08874:  MOVFF  618,6AF
08878:  MOVFF  617,6AE
0887C:  CALL   2E6C
08880:  MOVFF  02,526
08884:  MOVFF  01,525
....................          G_l=G16; G_h=(G16>>8); 
08888:  MOVFF  525,508
0888C:  MOVFF  526,509
....................              
....................          write_eeprom(62,G_l); 
08890:  CLRF   FAA
08892:  MOVLW  3E
08894:  MOVWF  FA9
08896:  MOVFF  508,FA8
0889A:  BCF    FA6.6
0889C:  BCF    FA6.7
0889E:  BSF    FA6.2
088A0:  MOVF   FF2,W
088A2:  MOVWF  00
088A4:  BCF    FF2.7
088A6:  MOVLB  F
088A8:  MOVLW  55
088AA:  MOVWF  FA7
088AC:  MOVLW  AA
088AE:  MOVWF  FA7
088B0:  BSF    FA6.1
088B2:  BTFSC  FA6.1
088B4:  BRA    88B2
088B6:  BCF    FA6.2
088B8:  MOVF   00,W
088BA:  IORWF  FF2,F
....................          delay_ms(20); 
088BC:  MOVLW  14
088BE:  MOVLB  6
088C0:  MOVWF  x86
088C2:  MOVLB  0
088C4:  CALL   1346
....................          write_eeprom(63,G_h);//Guardar valor de Setpoint en eeprom 
088C8:  CLRF   FAA
088CA:  MOVLW  3F
088CC:  MOVWF  FA9
088CE:  MOVFF  509,FA8
088D2:  BCF    FA6.6
088D4:  BCF    FA6.7
088D6:  BSF    FA6.2
088D8:  MOVF   FF2,W
088DA:  MOVWF  00
088DC:  BCF    FF2.7
088DE:  MOVLB  F
088E0:  MOVLW  55
088E2:  MOVWF  FA7
088E4:  MOVLW  AA
088E6:  MOVWF  FA7
088E8:  BSF    FA6.1
088EA:  BTFSC  FA6.1
088EC:  BRA    88EA
088EE:  BCF    FA6.2
088F0:  MOVF   00,W
088F2:  IORWF  FF2,F
....................          delay_ms(20); 
088F4:  MOVLW  14
088F6:  MOVLB  6
088F8:  MOVWF  x86
088FA:  MOVLB  0
088FC:  CALL   1346
....................       } 
....................          else 
08900:  BRA    8908
....................             {Flanco1 = 0;}   
08902:  MOVLB  4
08904:  BCF    x36.4
08906:  MOVLB  0
....................              
....................       if(LEFT)//Si oprime boton de Toma. 
08908:  BSF    F96.2
0890A:  BTFSC  F84.2
0890C:  BRA    8A66
....................       {                   
....................          delay_ms(700);Menu=32;glcd_fillscreen(OFF);Opcion=1;unidad=1; 
0890E:  MOVLW  04
08910:  MOVLB  6
08912:  MOVWF  x7D
08914:  MOVLW  AF
08916:  MOVWF  x86
08918:  MOVLB  0
0891A:  CALL   1346
0891E:  MOVLB  6
08920:  DECFSZ x7D,F
08922:  BRA    8914
08924:  MOVLW  20
08926:  MOVLB  5
08928:  MOVWF  x03
0892A:  MOVLB  6
0892C:  CLRF   x85
0892E:  MOVLB  0
08930:  CALL   1442
08934:  MOVLW  01
08936:  MOVLB  5
08938:  MOVWF  x05
0893A:  MOVWF  x04
....................          Temporal=Ajuste2; 
0893C:  MOVFF  586,58E
08940:  MOVFF  585,58D
08944:  MOVFF  584,58C
08948:  MOVFF  583,58B
....................          Entero=(int)Ajuste2; 
0894C:  MOVFF  586,6B1
08950:  MOVFF  585,6B0
08954:  MOVFF  584,6AF
08958:  MOVFF  583,6AE
0895C:  MOVLB  0
0895E:  CALL   2E6C
08962:  MOVFF  01,50F
....................          Temporal=Temporal-Entero; 
08966:  MOVLB  6
08968:  CLRF   xB3
0896A:  MOVFF  50F,6B2
0896E:  MOVLB  0
08970:  CALL   1870
08974:  BSF    FD8.1
08976:  MOVFF  58E,6B5
0897A:  MOVFF  58D,6B4
0897E:  MOVFF  58C,6B3
08982:  MOVFF  58B,6B2
08986:  MOVFF  03,6B9
0898A:  MOVFF  02,6B8
0898E:  MOVFF  01,6B7
08992:  MOVFF  00,6B6
08996:  CALL   1A04
0899A:  MOVFF  03,58E
0899E:  MOVFF  02,58D
089A2:  MOVFF  01,58C
089A6:  MOVFF  00,58B
....................          Temporal2=Temporal*10.0; 
089AA:  MOVFF  58E,6B1
089AE:  MOVFF  58D,6B0
089B2:  MOVFF  58C,6AF
089B6:  MOVFF  58B,6AE
089BA:  MOVLB  6
089BC:  CLRF   xB5
089BE:  CLRF   xB4
089C0:  MOVLW  20
089C2:  MOVWF  xB3
089C4:  MOVLW  82
089C6:  MOVWF  xB2
089C8:  MOVLB  0
089CA:  CALL   2EA8
089CE:  MOVFF  03,592
089D2:  MOVFF  02,591
089D6:  MOVFF  01,590
089DA:  MOVFF  00,58F
....................          Decimal1=(int8)Temporal2; 
089DE:  MOVFF  592,6B1
089E2:  MOVFF  591,6B0
089E6:  MOVFF  590,6AF
089EA:  MOVFF  58F,6AE
089EE:  CALL   2E6C
089F2:  MOVFF  01,510
....................          write_eeprom(27,Entero); 
089F6:  CLRF   FAA
089F8:  MOVLW  1B
089FA:  MOVWF  FA9
089FC:  MOVFF  50F,FA8
08A00:  BCF    FA6.6
08A02:  BCF    FA6.7
08A04:  BSF    FA6.2
08A06:  MOVF   FF2,W
08A08:  MOVWF  00
08A0A:  BCF    FF2.7
08A0C:  MOVLB  F
08A0E:  MOVLW  55
08A10:  MOVWF  FA7
08A12:  MOVLW  AA
08A14:  MOVWF  FA7
08A16:  BSF    FA6.1
08A18:  BTFSC  FA6.1
08A1A:  BRA    8A18
08A1C:  BCF    FA6.2
08A1E:  MOVF   00,W
08A20:  IORWF  FF2,F
....................          delay_ms(20); 
08A22:  MOVLW  14
08A24:  MOVLB  6
08A26:  MOVWF  x86
08A28:  MOVLB  0
08A2A:  CALL   1346
....................          write_eeprom(28,Decimal1); 
08A2E:  CLRF   FAA
08A30:  MOVLW  1C
08A32:  MOVWF  FA9
08A34:  MOVFF  510,FA8
08A38:  BCF    FA6.6
08A3A:  BCF    FA6.7
08A3C:  BSF    FA6.2
08A3E:  MOVF   FF2,W
08A40:  MOVWF  00
08A42:  BCF    FF2.7
08A44:  MOVLB  F
08A46:  MOVLW  55
08A48:  MOVWF  FA7
08A4A:  MOVLW  AA
08A4C:  MOVWF  FA7
08A4E:  BSF    FA6.1
08A50:  BTFSC  FA6.1
08A52:  BRA    8A50
08A54:  BCF    FA6.2
08A56:  MOVF   00,W
08A58:  IORWF  FF2,F
....................          delay_ms(20); 
08A5A:  MOVLW  14
08A5C:  MOVLB  6
08A5E:  MOVWF  x86
08A60:  MOVLB  0
08A62:  CALL   1346
08A66:  MOVLB  5
....................       } 
....................     } 
.................... //_--------------------------------------------------------------------------------------------------------------------------------------------------------        
....................  
.................... //_-------------------------------------------------------------------------------------------------------------------------------------------------------- 
....................       if(Menu==43){ //Menu de Velocidad de Motor 
08A68:  MOVF   x03,W
08A6A:  SUBLW  2B
08A6C:  BTFSS  FD8.2
08A6E:  BRA    8C3E
....................        
....................       if(VelMotor>6)VelMotor=6; 
08A70:  MOVLB  4
08A72:  MOVF   x3A,W
08A74:  SUBLW  06
08A76:  BC    8A7C
08A78:  MOVLW  06
08A7A:  MOVWF  x3A
....................        
....................       strcpy(Menus.Letra,"Seleccion Vel"); 
08A7C:  MOVLW  04
08A7E:  MOVWF  FEA
08A80:  MOVLW  17
08A82:  MOVWF  FE9
08A84:  MOVFF  FF2,67D
08A88:  BCF    FF2.7
08A8A:  MOVLW  00
08A8C:  MOVLB  0
08A8E:  CALL   11DC
08A92:  TBLRD*-
08A94:  TBLRD*+
08A96:  MOVF   FF5,W
08A98:  MOVWF  FEE
08A9A:  IORLW  00
08A9C:  BNZ   8A94
08A9E:  MOVLB  6
08AA0:  BTFSC  x7D.7
08AA2:  BSF    FF2.7
....................       displayMenu(Menus.Letra,10,0,1,1); 
08AA4:  MOVLW  04
08AA6:  MOVWF  x86
08AA8:  MOVLW  17
08AAA:  MOVWF  x85
08AAC:  MOVLW  0A
08AAE:  MOVWF  x87
08AB0:  CLRF   x88
08AB2:  MOVLW  01
08AB4:  MOVWF  x89
08AB6:  MOVWF  x8A
08AB8:  MOVLB  0
08ABA:  CALL   4AA0
....................        
....................       displayTiempo(VelMotor,50,40,1,2); 
08ABE:  MOVFF  43A,67D
08AC2:  MOVLW  32
08AC4:  MOVLB  6
08AC6:  MOVWF  x7E
08AC8:  MOVLW  28
08ACA:  MOVWF  x7F
08ACC:  MOVLW  01
08ACE:  MOVWF  x80
08AD0:  MOVLW  02
08AD2:  MOVWF  x81
08AD4:  MOVLB  0
08AD6:  CALL   528A
....................        
....................       if(UP && VelMotor<6)//Si oprime hacia arriba 
08ADA:  BSF    F92.5
08ADC:  BTFSC  F80.5
08ADE:  BRA    8B00
08AE0:  MOVLB  4
08AE2:  MOVF   x3A,W
08AE4:  SUBLW  05
08AE6:  BTFSC  FD8.0
08AE8:  BRA    8AEE
08AEA:  MOVLB  0
08AEC:  BRA    8B00
....................       {   
....................          delay_ms(200);VelMotor++; 
08AEE:  MOVLW  C8
08AF0:  MOVLB  6
08AF2:  MOVWF  x86
08AF4:  MOVLB  0
08AF6:  CALL   1346
08AFA:  MOVLB  4
08AFC:  INCF   x3A,F
08AFE:  MOVLB  0
....................       } 
....................              
....................       if(DOWN && VelMotor>0)//Si oprime hacia abajo 
08B00:  BSF    F96.0
08B02:  BTFSC  F84.0
08B04:  BRA    8B24
08B06:  MOVLB  4
08B08:  MOVF   x3A,F
08B0A:  BTFSS  FD8.2
08B0C:  BRA    8B12
08B0E:  MOVLB  0
08B10:  BRA    8B24
....................       {   
....................          delay_ms(200);VelMotor--; 
08B12:  MOVLW  C8
08B14:  MOVLB  6
08B16:  MOVWF  x86
08B18:  MOVLB  0
08B1A:  CALL   1346
08B1E:  MOVLB  4
08B20:  DECF   x3A,F
08B22:  MOVLB  0
....................       } 
....................              
....................       if(RIGHT)//Si oprime SET 
08B24:  BSF    F96.1
08B26:  BTFSC  F84.1
08B28:  BRA    8B32
....................       {            
....................          VelocidadMotor(VelMotor); 
08B2A:  MOVFF  43A,67D
08B2E:  CALL   136E
....................       }  
....................              
....................       if(LEFT)//Si oprime boton de Toma. 
08B32:  BSF    F96.2
08B34:  BTFSC  F84.2
08B36:  BRA    8C40
....................       {                   
....................          delay_ms(100);glcd_fillscreen(OFF);Opcion=1;unidad=1; 
08B38:  MOVLW  64
08B3A:  MOVLB  6
08B3C:  MOVWF  x86
08B3E:  MOVLB  0
08B40:  CALL   1346
08B44:  MOVLB  6
08B46:  CLRF   x85
08B48:  MOVLB  0
08B4A:  CALL   1442
08B4E:  MOVLW  01
08B50:  MOVLB  5
08B52:  MOVWF  x05
08B54:  MOVWF  x04
....................          write_eeprom(32,VelMotor);//Guardar valor de Setpoint en eeprom 
08B56:  CLRF   FAA
08B58:  MOVLW  20
08B5A:  MOVWF  FA9
08B5C:  MOVFF  43A,FA8
08B60:  BCF    FA6.6
08B62:  BCF    FA6.7
08B64:  BSF    FA6.2
08B66:  MOVF   FF2,W
08B68:  MOVWF  00
08B6A:  BCF    FF2.7
08B6C:  MOVLB  F
08B6E:  MOVLW  55
08B70:  MOVWF  FA7
08B72:  MOVLW  AA
08B74:  MOVWF  FA7
08B76:  BSF    FA6.1
08B78:  BTFSC  FA6.1
08B7A:  BRA    8B78
08B7C:  BCF    FA6.2
08B7E:  MOVF   00,W
08B80:  IORWF  FF2,F
....................          delay_ms(20); 
08B82:  MOVLW  14
08B84:  MOVLB  6
08B86:  MOVWF  x86
08B88:  MOVLB  0
08B8A:  CALL   1346
....................          glcd_fillScreen(OFF); 
08B8E:  MOVLB  6
08B90:  CLRF   x85
08B92:  MOVLB  0
08B94:  CALL   1442
....................          strcpy(Menus.Letra,"Velocidad"); 
08B98:  MOVLW  04
08B9A:  MOVWF  FEA
08B9C:  MOVLW  17
08B9E:  MOVWF  FE9
08BA0:  MOVFF  FF2,67D
08BA4:  BCF    FF2.7
08BA6:  MOVLW  00
08BA8:  CALL   1208
08BAC:  TBLRD*-
08BAE:  TBLRD*+
08BB0:  MOVF   FF5,W
08BB2:  MOVWF  FEE
08BB4:  IORLW  00
08BB6:  BNZ   8BAE
08BB8:  MOVLB  6
08BBA:  BTFSC  x7D.7
08BBC:  BSF    FF2.7
....................          displayMenu(Menus.Letra,0,0,0,2); 
08BBE:  MOVLW  04
08BC0:  MOVWF  x86
08BC2:  MOVLW  17
08BC4:  MOVWF  x85
08BC6:  CLRF   x87
08BC8:  CLRF   x88
08BCA:  CLRF   x89
08BCC:  MOVLW  02
08BCE:  MOVWF  x8A
08BD0:  MOVLB  0
08BD2:  CALL   4AA0
....................          strcpy(Menus.Letra,"Guardada"); 
08BD6:  MOVLW  04
08BD8:  MOVWF  FEA
08BDA:  MOVLW  17
08BDC:  MOVWF  FE9
08BDE:  MOVFF  FF2,67D
08BE2:  BCF    FF2.7
08BE4:  MOVLW  00
08BE6:  CALL   1230
08BEA:  TBLRD*-
08BEC:  TBLRD*+
08BEE:  MOVF   FF5,W
08BF0:  MOVWF  FEE
08BF2:  IORLW  00
08BF4:  BNZ   8BEC
08BF6:  MOVLB  6
08BF8:  BTFSC  x7D.7
08BFA:  BSF    FF2.7
....................          displayMenu(Menus.Letra,0,30,0,2); 
08BFC:  MOVLW  04
08BFE:  MOVWF  x86
08C00:  MOVLW  17
08C02:  MOVWF  x85
08C04:  CLRF   x87
08C06:  MOVLW  1E
08C08:  MOVWF  x88
08C0A:  CLRF   x89
08C0C:  MOVLW  02
08C0E:  MOVWF  x8A
08C10:  MOVLB  0
08C12:  CALL   4AA0
....................          glcd_update(); 
08C16:  CALL   149C
....................          delay_ms(1000); 
08C1A:  MOVLW  04
08C1C:  MOVLB  6
08C1E:  MOVWF  x7D
08C20:  MOVLW  FA
08C22:  MOVWF  x86
08C24:  MOVLB  0
08C26:  CALL   1346
08C2A:  MOVLB  6
08C2C:  DECFSZ x7D,F
08C2E:  BRA    8C20
....................          glcd_fillScreen(OFF); 
08C30:  CLRF   x85
08C32:  MOVLB  0
08C34:  CALL   1442
....................          Menu=32; 
08C38:  MOVLW  20
08C3A:  MOVLB  5
08C3C:  MOVWF  x03
08C3E:  MOVLB  0
....................       } 
....................     } 
.................... //_--------------------------------------------------------------------------------------------------------------------------------------------------------        
....................  
....................    if(tiemporeset>=60) 
08C40:  MOVLB  5
08C42:  MOVF   x0A,W
08C44:  SUBLW  3B
08C46:  BC    8C5E
....................    { 
....................       if(Menu!=200){ 
08C48:  MOVF   x03,W
08C4A:  SUBLW  C8
08C4C:  BZ    8C5E
....................          glcd_init(ON); 
08C4E:  MOVLW  01
08C50:  MOVLB  6
08C52:  MOVWF  x7D
08C54:  MOVLB  0
08C56:  CALL   1554
....................          tiemporeset=0; 
08C5A:  MOVLB  5
08C5C:  CLRF   x0A
....................       } 
....................    }  
.................... } 
08C5E:  MOVLB  0
08C60:  GOTO   60AC
....................  
.................... } 
....................  
08C64:  SLEEP 

Configuration Fuses:
   Word  1: 0200   HS NOIESO NOFCMEN
   Word  2: 1E1F   BROWNOUT NOWDT BORV20 NOPUT WDT32768
   Word  3: 0000   NOPBADEN NOLPT1OSC NOMCLR
   Word  4: 00B0   NOSTVREN NODEBUG NOLVP NOXINST BBSIZ4K
   Word  5: C03F   NOPROTECT NOCPD NOCPB
   Word  6: E03F   NOWRT NOWRTD NOWRTC NOWRTB
   Word  7: 403F   NOEBTR NOEBTRB
