CCS PCH C Compiler, Version 4.104, 5967               03-dic.-19 15:40

               Filename: D:\Laboratorio\Cabina Extractora de Gases y  Humos\2019\Cabina Extractora GLCD  Estacion de Trabajo #0045880XX OP2019172\Firmware\Maestro_v2.lst

               ROM used: 36830 bytes (37%)
                         Largest free fragment is 32768
               RAM used: 1484 (45%) at main() level
                         1554 (47%) worst case
               Stack:    8 worst case (6 in main + 2 for interrupts)

*
00000:  GOTO   59B4
*
00008:  MOVWF  04
0000A:  MOVFF  FD8,05
0000E:  MOVFF  FE0,06
00012:  MOVLB  0
00014:  MOVFF  FE9,0C
00018:  MOVFF  FEA,07
0001C:  MOVFF  FE1,08
00020:  MOVFF  FE2,09
00024:  MOVFF  FD9,0A
00028:  MOVFF  FDA,0B
0002C:  MOVFF  FF3,12
00030:  MOVFF  FF4,13
00034:  MOVFF  FFA,14
00038:  MOVFF  FFB,15
0003C:  MOVFF  00,0E
00040:  MOVFF  01,0F
00044:  MOVFF  02,10
00048:  MOVFF  03,11
0004C:  BTFSS  FF2.4
0004E:  GOTO   0058
00052:  BTFSC  FF2.1
00054:  GOTO   12A2
00058:  MOVFF  0E,00
0005C:  MOVFF  0F,01
00060:  MOVFF  10,02
00064:  MOVFF  11,03
00068:  MOVFF  0C,FE9
0006C:  MOVFF  07,FEA
00070:  BSF    07.7
00072:  MOVFF  08,FE1
00076:  MOVFF  09,FE2
0007A:  MOVFF  0A,FD9
0007E:  MOVFF  0B,FDA
00082:  MOVFF  12,FF3
00086:  MOVFF  13,FF4
0008A:  MOVFF  14,FFA
0008E:  MOVFF  15,FFB
00092:  MOVF   04,W
00094:  MOVFF  06,FE0
00098:  MOVFF  05,FD8
0009C:  RETFIE 0
.................... //Programa para Cabina de Bioseguridad 
....................  
.................... #include <18F4685.h> 
.................... //////// Standard Header file for the PIC18F4685 device //////////////// 
.................... #device PIC18F4685 
.................... #list 
....................  
.................... #device adc=10 
.................... #fuses HS,NOWDT,NOPROTECT,NOLVP,NODEBUG,NOSTVREN,NOPUT,NOCPD,NOWRT,NOIESO,NOFCMEN,NOPBADEN,NOWRTC,NOWRTB,NOEBTR,NOEBTRB,NOCPB,NOXINST,NOLPT1OSC,NOMCLR 
.................... #use delay(clock=20000000) 
*
01282:  MOVLW  03
01284:  MOVLB  6
01286:  SUBWF  x11,F
01288:  BNC   129E
0128A:  MOVLW  06
0128C:  MOVWF  FEA
0128E:  MOVLW  11
01290:  MOVWF  FE9
01292:  MOVF   FEF,W
01294:  BZ    129E
01296:  BRA    129A
01298:  BRA    129A
0129A:  DECFSZ FEF,F
0129C:  BRA    1298
0129E:  MOVLB  0
012A0:  RETLW  00
*
01364:  MOVLW  05
01366:  MOVWF  FEA
01368:  MOVLW  DC
0136A:  MOVWF  FE9
0136C:  MOVF   FEF,W
0136E:  BZ    138A
01370:  MOVLW  06
01372:  MOVWF  01
01374:  CLRF   00
01376:  DECFSZ 00,F
01378:  BRA    1376
0137A:  DECFSZ 01,F
0137C:  BRA    1374
0137E:  MOVLW  7B
01380:  MOVWF  00
01382:  DECFSZ 00,F
01384:  BRA    1382
01386:  DECFSZ FEF,F
01388:  BRA    1370
0138A:  RETLW  00
.................... #include <MATH.h> 
.................... //////////////////////////////////////////////////////////////////////////// 
.................... ////        (C) Copyright 1996,2008 Custom Computer Services            //// 
.................... //// This source code may only be used by licensed users of the CCS C   //// 
.................... //// compiler.  This source code may only be distributed to other       //// 
.................... //// licensed users of the CCS C compiler.  No other use, reproduction  //// 
.................... //// or distribution is permitted without written permission.           //// 
.................... //// Derivative programs created using this software in object code     //// 
.................... //// form are not restricted in any way.                                //// 
.................... //////////////////////////////////////////////////////////////////////////// 
.................... ////                                                                    //// 
.................... //// History:                                                           //// 
.................... ////  * 9/20/2001 :  Improvments are made to sin/cos code.              //// 
.................... ////                 The code now is small, much faster,                //// 
.................... ////                 and more accurate.                                 //// 
.................... ////  * 2/21/2007 :  Compiler handles & operator differently and does 
.................... ////                 not return generic (int8 *) so type cast is done   //// 
.................... ////                                                                    //// 
.................... //////////////////////////////////////////////////////////////////////////// 
....................  
.................... #ifndef MATH_H 
.................... #define MATH_H 
....................  
.................... #ifdef PI 
.................... #undef  PI 
.................... #endif 
.................... #define PI     3.1415926535897932 
....................  
....................  
.................... #define SQRT2  1.4142135623730950 
....................  
.................... //float const ps[4] = {5.9304945, 21.125224, 8.9403076, 0.29730279}; 
.................... //float const qs[4] = {1.0000000, 15.035723, 17.764134, 2.4934718}; 
....................  
.................... ///////////////////////////// Round Functions ////////////////////////////// 
....................  
.................... float32 CEIL_FLOOR(float32 x, unsigned int8 n) 
.................... { 
....................    float32 y, res; 
....................    unsigned int16 l; 
....................    int1 s; 
....................  
....................    s = 0; 
*
03054:  MOVLB  5
03056:  BCF    xF8.0
....................    y = x; 
03058:  MOVFF  5EC,5F1
0305C:  MOVFF  5EB,5F0
03060:  MOVFF  5EA,5EF
03064:  MOVFF  5E9,5EE
....................  
....................    if (x < 0) 
03068:  MOVFF  5EC,5FC
0306C:  MOVFF  5EB,5FB
03070:  MOVFF  5EA,5FA
03074:  MOVFF  5E9,5F9
03078:  MOVLB  6
0307A:  CLRF   x00
0307C:  MOVLB  5
0307E:  CLRF   xFF
03080:  CLRF   xFE
03082:  CLRF   xFD
03084:  MOVLB  0
03086:  CALL   248C
0308A:  BNC   3096
....................    { 
....................       s = 1; 
0308C:  MOVLB  5
0308E:  BSF    xF8.0
....................       y = -y; 
03090:  MOVF   xEF,W
03092:  XORLW  80
03094:  MOVWF  xEF
....................    } 
....................  
....................    if (y <= 32768.0) 
03096:  MOVFF  5F1,5FC
0309A:  MOVFF  5F0,5FB
0309E:  MOVFF  5EF,5FA
030A2:  MOVFF  5EE,5F9
030A6:  MOVLB  6
030A8:  CLRF   x00
030AA:  MOVLB  5
030AC:  CLRF   xFF
030AE:  CLRF   xFE
030B0:  MOVLW  8E
030B2:  MOVWF  xFD
030B4:  MOVLB  0
030B6:  CALL   248C
030BA:  BC    30BE
030BC:  BNZ   30EE
....................   res = (float32)(unsigned int16)y; 
030BE:  MOVFF  5F1,5FC
030C2:  MOVFF  5F0,5FB
030C6:  MOVFF  5EF,5FA
030CA:  MOVFF  5EE,5F9
030CE:  RCALL  2EFE
030D0:  MOVFF  02,5FE
030D4:  MOVFF  01,5FD
030D8:  CALL   1892
030DC:  MOVFF  03,5F5
030E0:  MOVFF  02,5F4
030E4:  MOVFF  01,5F3
030E8:  MOVFF  00,5F2
....................  
....................  else if (y < 10000000.0) 
030EC:  BRA    3292
030EE:  MOVFF  5F1,5FC
030F2:  MOVFF  5F0,5FB
030F6:  MOVFF  5EF,5FA
030FA:  MOVFF  5EE,5F9
030FE:  MOVLW  80
03100:  MOVLB  6
03102:  MOVWF  x00
03104:  MOVLW  96
03106:  MOVLB  5
03108:  MOVWF  xFF
0310A:  MOVLW  18
0310C:  MOVWF  xFE
0310E:  MOVLW  96
03110:  MOVWF  xFD
03112:  MOVLB  0
03114:  CALL   248C
03118:  BTFSS  FD8.0
0311A:  BRA    3282
....................    { 
....................   l = (unsigned int16)(y/32768.0); 
0311C:  MOVFF  5F1,5FC
03120:  MOVFF  5F0,5FB
03124:  MOVFF  5EF,5FA
03128:  MOVFF  5EE,5F9
0312C:  MOVLB  6
0312E:  CLRF   x00
03130:  MOVLB  5
03132:  CLRF   xFF
03134:  CLRF   xFE
03136:  MOVLW  8E
03138:  MOVWF  xFD
0313A:  MOVLB  0
0313C:  CALL   18C8
03140:  MOVFF  03,5FC
03144:  MOVFF  02,5FB
03148:  MOVFF  01,5FA
0314C:  MOVFF  00,5F9
03150:  RCALL  2EFE
03152:  MOVFF  02,5F7
03156:  MOVFF  01,5F6
....................       y = 32768.0*(y/32768.0 - (float32)l); 
0315A:  MOVFF  5F1,5FC
0315E:  MOVFF  5F0,5FB
03162:  MOVFF  5EF,5FA
03166:  MOVFF  5EE,5F9
0316A:  MOVLB  6
0316C:  CLRF   x00
0316E:  MOVLB  5
03170:  CLRF   xFF
03172:  CLRF   xFE
03174:  MOVLW  8E
03176:  MOVWF  xFD
03178:  MOVLB  0
0317A:  CALL   18C8
0317E:  MOVFF  00,5F9
03182:  MOVFF  01,5FA
03186:  MOVFF  02,5FB
0318A:  MOVFF  03,5FC
0318E:  MOVFF  5F7,5FE
03192:  MOVFF  5F6,5FD
03196:  CALL   1892
0319A:  BSF    FD8.1
0319C:  MOVFF  5FC,600
031A0:  MOVFF  5FB,5FF
031A4:  MOVFF  5FA,5FE
031A8:  MOVFF  5F9,5FD
031AC:  MOVFF  03,604
031B0:  MOVFF  02,603
031B4:  MOVFF  01,602
031B8:  MOVFF  00,601
031BC:  CALL   1A66
031C0:  MOVLB  5
031C2:  CLRF   xFC
031C4:  CLRF   xFB
031C6:  CLRF   xFA
031C8:  MOVLW  8E
031CA:  MOVWF  xF9
031CC:  MOVFF  03,600
031D0:  MOVFF  02,5FF
031D4:  MOVFF  01,5FE
031D8:  MOVFF  00,5FD
031DC:  MOVLB  0
031DE:  RCALL  2F3A
031E0:  MOVFF  03,5F1
031E4:  MOVFF  02,5F0
031E8:  MOVFF  01,5EF
031EC:  MOVFF  00,5EE
....................   res = 32768.0*(float32)l; 
031F0:  MOVFF  5F7,5FE
031F4:  MOVFF  5F6,5FD
031F8:  CALL   1892
031FC:  MOVLB  5
031FE:  CLRF   xFC
03200:  CLRF   xFB
03202:  CLRF   xFA
03204:  MOVLW  8E
03206:  MOVWF  xF9
03208:  MOVFF  03,600
0320C:  MOVFF  02,5FF
03210:  MOVFF  01,5FE
03214:  MOVFF  00,5FD
03218:  MOVLB  0
0321A:  RCALL  2F3A
0321C:  MOVFF  03,5F5
03220:  MOVFF  02,5F4
03224:  MOVFF  01,5F3
03228:  MOVFF  00,5F2
....................   res += (float32)(unsigned int16)y; 
0322C:  MOVFF  5F1,5FC
03230:  MOVFF  5F0,5FB
03234:  MOVFF  5EF,5FA
03238:  MOVFF  5EE,5F9
0323C:  RCALL  2EFE
0323E:  MOVFF  02,5FE
03242:  MOVFF  01,5FD
03246:  CALL   1892
0324A:  BCF    FD8.1
0324C:  MOVFF  5F5,600
03250:  MOVFF  5F4,5FF
03254:  MOVFF  5F3,5FE
03258:  MOVFF  5F2,5FD
0325C:  MOVFF  03,604
03260:  MOVFF  02,603
03264:  MOVFF  01,602
03268:  MOVFF  00,601
0326C:  CALL   1A66
03270:  MOVFF  03,5F5
03274:  MOVFF  02,5F4
03278:  MOVFF  01,5F3
0327C:  MOVFF  00,5F2
....................  } 
....................  
....................  else 
03280:  BRA    3292
....................   res = y; 
03282:  MOVFF  5F1,5F5
03286:  MOVFF  5F0,5F4
0328A:  MOVFF  5EF,5F3
0328E:  MOVFF  5EE,5F2
....................  
....................  y = y - (float32)(unsigned int16)y; 
03292:  MOVFF  5F1,5FC
03296:  MOVFF  5F0,5FB
0329A:  MOVFF  5EF,5FA
0329E:  MOVFF  5EE,5F9
032A2:  RCALL  2EFE
032A4:  MOVFF  02,5FE
032A8:  MOVFF  01,5FD
032AC:  CALL   1892
032B0:  BSF    FD8.1
032B2:  MOVFF  5F1,600
032B6:  MOVFF  5F0,5FF
032BA:  MOVFF  5EF,5FE
032BE:  MOVFF  5EE,5FD
032C2:  MOVFF  03,604
032C6:  MOVFF  02,603
032CA:  MOVFF  01,602
032CE:  MOVFF  00,601
032D2:  CALL   1A66
032D6:  MOVFF  03,5F1
032DA:  MOVFF  02,5F0
032DE:  MOVFF  01,5EF
032E2:  MOVFF  00,5EE
....................  
....................  if (s) 
032E6:  MOVLB  5
032E8:  BTFSS  xF8.0
032EA:  BRA    32F2
....................   res = -res; 
032EC:  MOVF   xF3,W
032EE:  XORLW  80
032F0:  MOVWF  xF3
....................  
....................  if (y != 0) 
032F2:  MOVFF  5F1,5FC
032F6:  MOVFF  5F0,5FB
032FA:  MOVFF  5EF,5FA
032FE:  MOVFF  5EE,5F9
03302:  MOVLB  6
03304:  CLRF   x00
03306:  MOVLB  5
03308:  CLRF   xFF
0330A:  CLRF   xFE
0330C:  CLRF   xFD
0330E:  MOVLB  0
03310:  CALL   248C
03314:  BZ    3392
....................  { 
....................   if (s == 1 && n == 0) 
03316:  MOVLB  5
03318:  BTFSS  xF8.0
0331A:  BRA    3356
0331C:  MOVF   xED,F
0331E:  BNZ   3356
....................    res -= 1.0; 
03320:  BSF    FD8.1
03322:  MOVFF  5F5,600
03326:  MOVFF  5F4,5FF
0332A:  MOVFF  5F3,5FE
0332E:  MOVFF  5F2,5FD
03332:  MOVLB  6
03334:  CLRF   x04
03336:  CLRF   x03
03338:  CLRF   x02
0333A:  MOVLW  7F
0333C:  MOVWF  x01
0333E:  MOVLB  0
03340:  CALL   1A66
03344:  MOVFF  03,5F5
03348:  MOVFF  02,5F4
0334C:  MOVFF  01,5F3
03350:  MOVFF  00,5F2
03354:  MOVLB  5
....................  
....................   if (s == 0 && n == 1) 
03356:  BTFSC  xF8.0
03358:  BRA    3394
0335A:  DECFSZ xED,W
0335C:  BRA    3394
....................    res += 1.0; 
0335E:  BCF    FD8.1
03360:  MOVFF  5F5,600
03364:  MOVFF  5F4,5FF
03368:  MOVFF  5F3,5FE
0336C:  MOVFF  5F2,5FD
03370:  MOVLB  6
03372:  CLRF   x04
03374:  CLRF   x03
03376:  CLRF   x02
03378:  MOVLW  7F
0337A:  MOVWF  x01
0337C:  MOVLB  0
0337E:  CALL   1A66
03382:  MOVFF  03,5F5
03386:  MOVFF  02,5F4
0338A:  MOVFF  01,5F3
0338E:  MOVFF  00,5F2
03392:  MOVLB  5
....................  } 
....................  if (x == 0) 
03394:  MOVFF  5EC,5FC
03398:  MOVFF  5EB,5FB
0339C:  MOVFF  5EA,5FA
033A0:  MOVFF  5E9,5F9
033A4:  MOVLB  6
033A6:  CLRF   x00
033A8:  MOVLB  5
033AA:  CLRF   xFF
033AC:  CLRF   xFE
033AE:  CLRF   xFD
033B0:  MOVLB  0
033B2:  CALL   248C
033B6:  BNZ   33C4
....................     res = 0; 
033B8:  MOVLB  5
033BA:  CLRF   xF5
033BC:  CLRF   xF4
033BE:  CLRF   xF3
033C0:  CLRF   xF2
033C2:  MOVLB  0
....................  
....................  return (res); 
033C4:  MOVFF  5F2,00
033C8:  MOVFF  5F3,01
033CC:  MOVFF  5F4,02
033D0:  MOVFF  5F5,03
.................... } 
033D4:  RETLW  00
....................  
.................... // Overloaded Functions to take care for new Data types in PCD 
.................... // Overloaded function CEIL_FLOOR() for data type - Float48 
.................... #if defined(__PCD__) 
.................... float48 CEIL_FLOOR(float48 x, unsigned int8 n) 
.................... { 
....................    float48 y, res; 
....................    unsigned int16 l; 
....................    int1 s; 
....................  
....................    s = 0; 
....................    y = x; 
....................  
....................    if (x < 0) 
....................    { 
....................       s = 1; 
....................       y = -y; 
....................    } 
....................  
....................    if (y <= 32768.0) 
....................   res = (float48)(unsigned int16)y; 
....................  
....................  else if (y < 10000000.0) 
....................    { 
....................   l = (unsigned int16)(y/32768.0); 
....................       y = 32768.0*(y/32768.0 - (float48)l); 
....................   res = 32768.0*(float32)l; 
....................   res += (float48)(unsigned int16)y; 
....................  } 
....................  
....................  else 
....................   res = y; 
....................  
....................  y = y - (float48)(unsigned int16)y; 
....................  
....................  if (s) 
....................   res = -res; 
....................  
....................  if (y != 0) 
....................  { 
....................   if (s == 1 && n == 0) 
....................    res -= 1.0; 
....................  
....................   if (s == 0 && n == 1) 
....................    res += 1.0; 
....................  } 
....................  if (x == 0) 
....................     res = 0; 
....................  
....................  return (res); 
.................... } 
....................  
....................  
.................... // Overloaded function CEIL_FLOOR() for data type - Float64 
.................... float64 CEIL_FLOOR(float64 x, unsigned int8 n) 
.................... { 
....................    float64 y, res; 
....................    unsigned int16 l; 
....................    int1 s; 
....................  
....................    s = 0; 
....................    y = x; 
....................  
....................    if (x < 0) 
....................    { 
....................       s = 1; 
....................       y = -y; 
....................    } 
....................  
....................    if (y <= 32768.0) 
....................   res = (float64)(unsigned int16)y; 
....................  
....................  else if (y < 10000000.0) 
....................    { 
....................   l = (unsigned int16)(y/32768.0); 
....................       y = 32768.0*(y/32768.0 - (float64)l); 
....................   res = 32768.0*(float64)l; 
....................   res += (float64)(unsigned int16)y; 
....................  } 
....................  
....................  else 
....................   res = y; 
....................  
....................  y = y - (float64)(unsigned int16)y; 
....................  
....................  if (s) 
....................   res = -res; 
....................  
....................  if (y != 0) 
....................  { 
....................   if (s == 1 && n == 0) 
....................    res -= 1.0; 
....................  
....................   if (s == 0 && n == 1) 
....................    res += 1.0; 
....................  } 
....................  if (x == 0) 
....................     res = 0; 
....................  
....................  return (res); 
.................... } 
.................... #endif 
....................  
.................... //////////////////////////////////////////////////////////////////////////// 
.................... //   float floor(float x) 
.................... //////////////////////////////////////////////////////////////////////////// 
.................... // Description : rounds down the number x. 
.................... // Date : N/A 
.................... // 
.................... float32 floor(float32 x) 
.................... { 
....................    return CEIL_FLOOR(x, 0); 
*
033F4:  MOVFF  5E8,5EC
033F8:  MOVFF  5E7,5EB
033FC:  MOVFF  5E6,5EA
03400:  MOVFF  5E5,5E9
03404:  MOVLB  5
03406:  CLRF   xED
03408:  MOVLB  0
0340A:  RCALL  3054
.................... } 
0340C:  GOTO   351C (RETURN)
.................... // Following 2 functions are overloaded functions of floor() for PCD 
.................... // Overloaded function floor() for data type - Float48 
.................... #if defined(__PCD__) 
.................... float48 floor(float48 x) 
.................... { 
....................    return CEIL_FLOOR(x, 0); 
.................... } 
....................  
.................... // Overloaded function floor() for data type - Float64 
.................... float64 floor(float64 x) 
.................... { 
....................    return CEIL_FLOOR(x, 0); 
.................... } 
.................... #endif 
....................  
....................  
.................... //////////////////////////////////////////////////////////////////////////// 
.................... //   float ceil(float x) 
.................... //////////////////////////////////////////////////////////////////////////// 
.................... // Description : rounds up the number x. 
.................... // Date : N/A 
.................... // 
.................... float32 ceil(float32 x) 
.................... { 
....................    return CEIL_FLOOR(x, 1); 
*
033D6:  MOVFF  5E8,5EC
033DA:  MOVFF  5E7,5EB
033DE:  MOVFF  5E6,5EA
033E2:  MOVFF  5E5,5E9
033E6:  MOVLW  01
033E8:  MOVLB  5
033EA:  MOVWF  xED
033EC:  MOVLB  0
033EE:  RCALL  3054
.................... } 
033F0:  GOTO   34D4 (RETURN)
.................... // Following 2 functions are overloaded functions of ceil() for PCD 
.................... // Overloaded function ceil() for data type - Float48 
.................... #if defined(__PCD__) 
.................... float48 ceil(float48 x) 
.................... { 
....................    return CEIL_FLOOR(x, 1); 
.................... } 
....................  
.................... // Overloaded function ceil() for data type - Float64 
.................... float64 ceil(float64 x) 
.................... { 
....................    return CEIL_FLOOR(x, 1); 
.................... } 
.................... #endif 
....................  
....................  //////////////////////////////////////////////////////////////////////////// 
.................... //   float fabs(float x) 
.................... //////////////////////////////////////////////////////////////////////////// 
.................... // Description : Computes the absolute value of floating point number x 
.................... // Returns : returns the absolute value of x 
.................... // Date : N/A 
.................... // 
.................... #define fabs abs 
....................  
.................... //////////////////////////////////////////////////////////////////////////// 
.................... //   float fmod(float x) 
.................... //////////////////////////////////////////////////////////////////////////// 
.................... // Description : Computes the floating point remainder of x/y 
.................... // Returns : returns the value of x= i*y, for some integer i such that, if y 
.................... // is non zero, the result has the same isgn of x na dmagnitude less than the 
.................... // magnitude of y. If y is zero then a domain error occurs. 
.................... // Date : N/A 
.................... // 
....................  
.................... float fmod(float32 x,float32 y) 
.................... { 
....................    float32 i; 
....................    if (y!=0.0) 
*
03410:  MOVFF  5DC,5FC
03414:  MOVFF  5DB,5FB
03418:  MOVFF  5DA,5FA
0341C:  MOVFF  5D9,5F9
03420:  MOVLB  6
03422:  CLRF   x00
03424:  MOVLB  5
03426:  CLRF   xFF
03428:  CLRF   xFE
0342A:  CLRF   xFD
0342C:  MOVLB  0
0342E:  CALL   248C
03432:  BTFSC  FD8.2
03434:  BRA    3578
....................    { 
....................       i=(x/y < 0.0)? ceil(x/y): floor(x/y); 
03436:  MOVFF  5D8,5FC
0343A:  MOVFF  5D7,5FB
0343E:  MOVFF  5D6,5FA
03442:  MOVFF  5D5,5F9
03446:  MOVFF  5DC,600
0344A:  MOVFF  5DB,5FF
0344E:  MOVFF  5DA,5FE
03452:  MOVFF  5D9,5FD
03456:  CALL   18C8
0345A:  MOVFF  00,5E1
0345E:  MOVFF  01,5E2
03462:  MOVFF  02,5E3
03466:  MOVFF  03,5E4
0346A:  MOVFF  03,5FC
0346E:  MOVFF  02,5FB
03472:  MOVFF  01,5FA
03476:  MOVFF  00,5F9
0347A:  MOVLB  6
0347C:  CLRF   x00
0347E:  MOVLB  5
03480:  CLRF   xFF
03482:  CLRF   xFE
03484:  CLRF   xFD
03486:  MOVLB  0
03488:  CALL   248C
0348C:  BNC   34D6
0348E:  MOVFF  5D8,5FC
03492:  MOVFF  5D7,5FB
03496:  MOVFF  5D6,5FA
0349A:  MOVFF  5D5,5F9
0349E:  MOVFF  5DC,600
034A2:  MOVFF  5DB,5FF
034A6:  MOVFF  5DA,5FE
034AA:  MOVFF  5D9,5FD
034AE:  CALL   18C8
034B2:  MOVFF  00,5E1
034B6:  MOVFF  01,5E2
034BA:  MOVFF  02,5E3
034BE:  MOVFF  03,5E4
034C2:  MOVFF  03,5E8
034C6:  MOVFF  02,5E7
034CA:  MOVFF  01,5E6
034CE:  MOVFF  00,5E5
034D2:  BRA    33D6
034D4:  BRA    351C
034D6:  MOVFF  5D8,5FC
034DA:  MOVFF  5D7,5FB
034DE:  MOVFF  5D6,5FA
034E2:  MOVFF  5D5,5F9
034E6:  MOVFF  5DC,600
034EA:  MOVFF  5DB,5FF
034EE:  MOVFF  5DA,5FE
034F2:  MOVFF  5D9,5FD
034F6:  CALL   18C8
034FA:  MOVFF  00,5E1
034FE:  MOVFF  01,5E2
03502:  MOVFF  02,5E3
03506:  MOVFF  03,5E4
0350A:  MOVFF  03,5E8
0350E:  MOVFF  02,5E7
03512:  MOVFF  01,5E6
03516:  MOVFF  00,5E5
0351A:  BRA    33F4
0351C:  MOVFF  03,5E0
03520:  MOVFF  02,5DF
03524:  MOVFF  01,5DE
03528:  MOVFF  00,5DD
....................       return(x-(i*y)); 
0352C:  MOVFF  5E0,5FC
03530:  MOVFF  5DF,5FB
03534:  MOVFF  5DE,5FA
03538:  MOVFF  5DD,5F9
0353C:  MOVFF  5DC,600
03540:  MOVFF  5DB,5FF
03544:  MOVFF  5DA,5FE
03548:  MOVFF  5D9,5FD
0354C:  RCALL  2F3A
0354E:  BSF    FD8.1
03550:  MOVFF  5D8,600
03554:  MOVFF  5D7,5FF
03558:  MOVFF  5D6,5FE
0355C:  MOVFF  5D5,5FD
03560:  MOVFF  03,604
03564:  MOVFF  02,603
03568:  MOVFF  01,602
0356C:  MOVFF  00,601
03570:  CALL   1A66
03574:  BRA    3578
....................    } 
....................    else 
03576:  BRA    3578
....................    { 
....................    #ifdef _ERRNO 
....................    { 
....................       errno=EDOM; 
....................    } 
....................    #endif 
....................    } 
.................... } 
03578:  RETLW  00
.................... //Overloaded function for fmod() for PCD 
.................... // Overloaded function fmod() for data type - Float48 
.................... #if defined(__PCD__) 
.................... float48 fmod(float48 x,float48 y) 
.................... { 
....................    float48 i; 
....................    if (y!=0.0) 
....................    { 
....................       i=(x/y < 0.0)? ceil(x/y): floor(x/y); 
....................       return(x-(i*y)); 
....................    } 
....................    else 
....................    { 
....................    #ifdef _ERRNO 
....................    { 
....................       errno=EDOM; 
....................    } 
....................    #endif 
....................    } 
.................... } 
.................... // Overloaded function fmod() for data type - Float64 
.................... float64 fmod(float64 x,float64 y) 
.................... { 
....................    float64 i; 
....................    if (y!=0.0) 
....................    { 
....................       i=(x/y < 0.0)? ceil(x/y): floor(x/y); 
....................       return(x-(i*y)); 
....................    } 
....................    else 
....................    { 
....................    #ifdef _ERRNO 
....................    { 
....................       errno=EDOM; 
....................    } 
....................    #endif 
....................    } 
.................... } 
.................... #endif 
.................... //////////////////// Exponential and logarithmic functions //////////////////// 
.................... //////////////////////////////////////////////////////////////////////////// 
.................... //   float exp(float x) 
.................... //////////////////////////////////////////////////////////////////////////// 
.................... // Description : returns the value (e^x) 
.................... // Date : N/A 
.................... // 
.................... #define LN2 0.6931471805599453 
....................  
.................... float const pe[6] = {0.000207455774, 0.00127100575, 0.00965065093, 
....................                      0.0554965651,  0.240227138,  0.693147172}; 
....................  
....................  
.................... float32 exp(float32 x) 
.................... { 
....................    float32 y, res, r; 
....................    #if defined(__PCD__) 
....................    int8 data1; 
....................    #endif 
....................    signed int8 n; 
....................    int1 s; 
....................    #ifdef _ERRNO 
....................    if(x > 88.722838) 
....................    { 
....................       errno=ERANGE; 
....................       return(0); 
....................    } 
....................    #endif 
....................    n = (signed int16)(x/LN2); 
*
03AAC:  MOVFF  5DC,5FC
03AB0:  MOVFF  5DB,5FB
03AB4:  MOVFF  5DA,5FA
03AB8:  MOVFF  5D9,5F9
03ABC:  MOVLW  18
03ABE:  MOVLB  6
03AC0:  MOVWF  x00
03AC2:  MOVLW  72
03AC4:  MOVLB  5
03AC6:  MOVWF  xFF
03AC8:  MOVLW  31
03ACA:  MOVWF  xFE
03ACC:  MOVLW  7E
03ACE:  MOVWF  xFD
03AD0:  MOVLB  0
03AD2:  CALL   18C8
03AD6:  MOVFF  03,5FC
03ADA:  MOVFF  02,5FB
03ADE:  MOVFF  01,5FA
03AE2:  MOVFF  00,5F9
03AE6:  CALL   2EFE
03AEA:  MOVFF  01,5E9
....................    s = 0; 
03AEE:  MOVLB  5
03AF0:  BCF    xEA.0
....................    y = x; 
03AF2:  MOVFF  5DC,5E0
03AF6:  MOVFF  5DB,5DF
03AFA:  MOVFF  5DA,5DE
03AFE:  MOVFF  5D9,5DD
....................  
....................    if (x < 0) 
03B02:  MOVFF  5DC,5FC
03B06:  MOVFF  5DB,5FB
03B0A:  MOVFF  5DA,5FA
03B0E:  MOVFF  5D9,5F9
03B12:  MOVLB  6
03B14:  CLRF   x00
03B16:  MOVLB  5
03B18:  CLRF   xFF
03B1A:  CLRF   xFE
03B1C:  CLRF   xFD
03B1E:  MOVLB  0
03B20:  CALL   248C
03B24:  BNC   3B32
....................    { 
....................       s = 1; 
03B26:  MOVLB  5
03B28:  BSF    xEA.0
....................       n = -n; 
03B2A:  NEGF   xE9
....................       y = -y; 
03B2C:  MOVF   xDE,W
03B2E:  XORLW  80
03B30:  MOVWF  xDE
....................    } 
....................  
....................    res = 0.0; 
03B32:  MOVLB  5
03B34:  CLRF   xE4
03B36:  CLRF   xE3
03B38:  CLRF   xE2
03B3A:  CLRF   xE1
.................... #if !defined(__PCD__) 
....................    *((unsigned int8 *)(&res)) = n + 0x7F; 
03B3C:  MOVLW  05
03B3E:  MOVWF  xEC
03B40:  MOVLW  E1
03B42:  MOVWF  FE9
03B44:  MOVFF  5EC,FEA
03B48:  MOVLW  7F
03B4A:  ADDWF  xE9,W
03B4C:  MOVWF  FEF
.................... #endif 
....................  
.................... #if defined(__PCD__)  // Takes care of IEEE format for PCD 
....................    data1 = n+0x7F; 
....................    if(bit_test(data1,0)) 
....................    bit_set(*(((unsigned int8 *)(&res)+2)),7); 
....................    rotate_right(&data1,1); 
....................    bit_clear(data1,7); 
....................    *(((unsigned int8 *)(&res)+3)) = data1; 
.................... #endif 
....................  
....................    y = y/LN2 - (float32)n; 
03B4E:  MOVFF  5E0,5FC
03B52:  MOVFF  5DF,5FB
03B56:  MOVFF  5DE,5FA
03B5A:  MOVFF  5DD,5F9
03B5E:  MOVLW  18
03B60:  MOVLB  6
03B62:  MOVWF  x00
03B64:  MOVLW  72
03B66:  MOVLB  5
03B68:  MOVWF  xFF
03B6A:  MOVLW  31
03B6C:  MOVWF  xFE
03B6E:  MOVLW  7E
03B70:  MOVWF  xFD
03B72:  MOVLB  0
03B74:  CALL   18C8
03B78:  MOVFF  00,5EB
03B7C:  MOVFF  01,5EC
03B80:  MOVFF  02,5ED
03B84:  MOVFF  03,5EE
03B88:  MOVLB  5
03B8A:  CLRF   xF0
03B8C:  MOVFF  5E9,5EF
03B90:  BTFSC  xEF.7
03B92:  DECF   xF0,F
03B94:  MOVLB  0
03B96:  RCALL  357A
03B98:  BSF    FD8.1
03B9A:  MOVFF  5EE,600
03B9E:  MOVFF  5ED,5FF
03BA2:  MOVFF  5EC,5FE
03BA6:  MOVFF  5EB,5FD
03BAA:  MOVFF  03,604
03BAE:  MOVFF  02,603
03BB2:  MOVFF  01,602
03BB6:  MOVFF  00,601
03BBA:  CALL   1A66
03BBE:  MOVFF  03,5E0
03BC2:  MOVFF  02,5DF
03BC6:  MOVFF  01,5DE
03BCA:  MOVFF  00,5DD
....................  
....................    r = pe[0]*y + pe[1]; 
03BCE:  MOVLW  7C
03BD0:  MOVLB  5
03BD2:  MOVWF  xFC
03BD4:  MOVLW  88
03BD6:  MOVWF  xFB
03BD8:  MOVLW  59
03BDA:  MOVWF  xFA
03BDC:  MOVLW  72
03BDE:  MOVWF  xF9
03BE0:  MOVFF  5E0,600
03BE4:  MOVFF  5DF,5FF
03BE8:  MOVFF  5DE,5FE
03BEC:  MOVFF  5DD,5FD
03BF0:  MOVLB  0
03BF2:  CALL   2F3A
03BF6:  MOVFF  00,5EB
03BFA:  MOVFF  01,5EC
03BFE:  MOVFF  02,5ED
03C02:  MOVFF  03,5EE
03C06:  BCF    FD8.1
03C08:  MOVFF  03,600
03C0C:  MOVFF  02,5FF
03C10:  MOVFF  01,5FE
03C14:  MOVFF  00,5FD
03C18:  MOVLW  E0
03C1A:  MOVLB  6
03C1C:  MOVWF  x04
03C1E:  MOVLW  97
03C20:  MOVWF  x03
03C22:  MOVLW  26
03C24:  MOVWF  x02
03C26:  MOVLW  75
03C28:  MOVWF  x01
03C2A:  MOVLB  0
03C2C:  CALL   1A66
03C30:  MOVFF  03,5E8
03C34:  MOVFF  02,5E7
03C38:  MOVFF  01,5E6
03C3C:  MOVFF  00,5E5
....................    r = r*y + pe[2]; 
03C40:  MOVFF  5E8,5FC
03C44:  MOVFF  5E7,5FB
03C48:  MOVFF  5E6,5FA
03C4C:  MOVFF  5E5,5F9
03C50:  MOVFF  5E0,600
03C54:  MOVFF  5DF,5FF
03C58:  MOVFF  5DE,5FE
03C5C:  MOVFF  5DD,5FD
03C60:  CALL   2F3A
03C64:  MOVFF  00,5EB
03C68:  MOVFF  01,5EC
03C6C:  MOVFF  02,5ED
03C70:  MOVFF  03,5EE
03C74:  BCF    FD8.1
03C76:  MOVFF  03,600
03C7A:  MOVFF  02,5FF
03C7E:  MOVFF  01,5FE
03C82:  MOVFF  00,5FD
03C86:  MOVLW  C4
03C88:  MOVLB  6
03C8A:  MOVWF  x04
03C8C:  MOVLW  1D
03C8E:  MOVWF  x03
03C90:  MOVLW  1E
03C92:  MOVWF  x02
03C94:  MOVLW  78
03C96:  MOVWF  x01
03C98:  MOVLB  0
03C9A:  CALL   1A66
03C9E:  MOVFF  03,5E8
03CA2:  MOVFF  02,5E7
03CA6:  MOVFF  01,5E6
03CAA:  MOVFF  00,5E5
....................    r = r*y + pe[3]; 
03CAE:  MOVFF  5E8,5FC
03CB2:  MOVFF  5E7,5FB
03CB6:  MOVFF  5E6,5FA
03CBA:  MOVFF  5E5,5F9
03CBE:  MOVFF  5E0,600
03CC2:  MOVFF  5DF,5FF
03CC6:  MOVFF  5DE,5FE
03CCA:  MOVFF  5DD,5FD
03CCE:  CALL   2F3A
03CD2:  MOVFF  00,5EB
03CD6:  MOVFF  01,5EC
03CDA:  MOVFF  02,5ED
03CDE:  MOVFF  03,5EE
03CE2:  BCF    FD8.1
03CE4:  MOVFF  03,600
03CE8:  MOVFF  02,5FF
03CEC:  MOVFF  01,5FE
03CF0:  MOVFF  00,5FD
03CF4:  MOVLW  5E
03CF6:  MOVLB  6
03CF8:  MOVWF  x04
03CFA:  MOVLW  50
03CFC:  MOVWF  x03
03CFE:  MOVLW  63
03D00:  MOVWF  x02
03D02:  MOVLW  7A
03D04:  MOVWF  x01
03D06:  MOVLB  0
03D08:  CALL   1A66
03D0C:  MOVFF  03,5E8
03D10:  MOVFF  02,5E7
03D14:  MOVFF  01,5E6
03D18:  MOVFF  00,5E5
....................    r = r*y + pe[4]; 
03D1C:  MOVFF  5E8,5FC
03D20:  MOVFF  5E7,5FB
03D24:  MOVFF  5E6,5FA
03D28:  MOVFF  5E5,5F9
03D2C:  MOVFF  5E0,600
03D30:  MOVFF  5DF,5FF
03D34:  MOVFF  5DE,5FE
03D38:  MOVFF  5DD,5FD
03D3C:  CALL   2F3A
03D40:  MOVFF  00,5EB
03D44:  MOVFF  01,5EC
03D48:  MOVFF  02,5ED
03D4C:  MOVFF  03,5EE
03D50:  BCF    FD8.1
03D52:  MOVFF  03,600
03D56:  MOVFF  02,5FF
03D5A:  MOVFF  01,5FE
03D5E:  MOVFF  00,5FD
03D62:  MOVLW  1A
03D64:  MOVLB  6
03D66:  MOVWF  x04
03D68:  MOVLW  FE
03D6A:  MOVWF  x03
03D6C:  MOVLW  75
03D6E:  MOVWF  x02
03D70:  MOVLW  7C
03D72:  MOVWF  x01
03D74:  MOVLB  0
03D76:  CALL   1A66
03D7A:  MOVFF  03,5E8
03D7E:  MOVFF  02,5E7
03D82:  MOVFF  01,5E6
03D86:  MOVFF  00,5E5
....................    r = r*y + pe[5]; 
03D8A:  MOVFF  5E8,5FC
03D8E:  MOVFF  5E7,5FB
03D92:  MOVFF  5E6,5FA
03D96:  MOVFF  5E5,5F9
03D9A:  MOVFF  5E0,600
03D9E:  MOVFF  5DF,5FF
03DA2:  MOVFF  5DE,5FE
03DA6:  MOVFF  5DD,5FD
03DAA:  CALL   2F3A
03DAE:  MOVFF  00,5EB
03DB2:  MOVFF  01,5EC
03DB6:  MOVFF  02,5ED
03DBA:  MOVFF  03,5EE
03DBE:  BCF    FD8.1
03DC0:  MOVFF  03,600
03DC4:  MOVFF  02,5FF
03DC8:  MOVFF  01,5FE
03DCC:  MOVFF  00,5FD
03DD0:  MOVLW  18
03DD2:  MOVLB  6
03DD4:  MOVWF  x04
03DD6:  MOVLW  72
03DD8:  MOVWF  x03
03DDA:  MOVLW  31
03DDC:  MOVWF  x02
03DDE:  MOVLW  7E
03DE0:  MOVWF  x01
03DE2:  MOVLB  0
03DE4:  CALL   1A66
03DE8:  MOVFF  03,5E8
03DEC:  MOVFF  02,5E7
03DF0:  MOVFF  01,5E6
03DF4:  MOVFF  00,5E5
....................  
....................    res = res*(1.0 + y*r); 
03DF8:  MOVFF  5E0,5FC
03DFC:  MOVFF  5DF,5FB
03E00:  MOVFF  5DE,5FA
03E04:  MOVFF  5DD,5F9
03E08:  MOVFF  5E8,600
03E0C:  MOVFF  5E7,5FF
03E10:  MOVFF  5E6,5FE
03E14:  MOVFF  5E5,5FD
03E18:  CALL   2F3A
03E1C:  BCF    FD8.1
03E1E:  MOVLB  6
03E20:  CLRF   x00
03E22:  MOVLB  5
03E24:  CLRF   xFF
03E26:  CLRF   xFE
03E28:  MOVLW  7F
03E2A:  MOVWF  xFD
03E2C:  MOVFF  03,604
03E30:  MOVFF  02,603
03E34:  MOVFF  01,602
03E38:  MOVFF  00,601
03E3C:  MOVLB  0
03E3E:  CALL   1A66
03E42:  MOVFF  5E4,5FC
03E46:  MOVFF  5E3,5FB
03E4A:  MOVFF  5E2,5FA
03E4E:  MOVFF  5E1,5F9
03E52:  MOVFF  03,600
03E56:  MOVFF  02,5FF
03E5A:  MOVFF  01,5FE
03E5E:  MOVFF  00,5FD
03E62:  CALL   2F3A
03E66:  MOVFF  03,5E4
03E6A:  MOVFF  02,5E3
03E6E:  MOVFF  01,5E2
03E72:  MOVFF  00,5E1
....................  
....................    if (s) 
03E76:  MOVLB  5
03E78:  BTFSS  xEA.0
03E7A:  BRA    3EAE
....................       res = 1.0/res; 
03E7C:  CLRF   xFC
03E7E:  CLRF   xFB
03E80:  CLRF   xFA
03E82:  MOVLW  7F
03E84:  MOVWF  xF9
03E86:  MOVFF  5E4,600
03E8A:  MOVFF  5E3,5FF
03E8E:  MOVFF  5E2,5FE
03E92:  MOVFF  5E1,5FD
03E96:  MOVLB  0
03E98:  CALL   18C8
03E9C:  MOVFF  03,5E4
03EA0:  MOVFF  02,5E3
03EA4:  MOVFF  01,5E2
03EA8:  MOVFF  00,5E1
03EAC:  MOVLB  5
....................    return(res); 
03EAE:  MOVFF  5E1,00
03EB2:  MOVFF  5E2,01
03EB6:  MOVFF  5E3,02
03EBA:  MOVFF  5E4,03
.................... } 
03EBE:  MOVLB  0
03EC0:  RETLW  00
....................  
....................  
.................... //Overloaded function for exp() for PCD 
.................... // Overloaded function exp() for data type - Float48 
.................... #if defined(__PCD__) 
.................... float48 exp(float48 x) 
.................... { 
....................    float48 y, res, r; 
....................    int8 data1; 
....................    signed int8 n; 
....................    int1 s; 
....................    #ifdef _ERRNO 
....................    if(x > 88.722838) 
....................    { 
....................       errno=ERANGE; 
....................       return(0); 
....................    } 
....................    #endif 
....................    n = (signed int16)(x/LN2); 
....................    s = 0; 
....................    y = x; 
....................  
....................    if (x < 0) 
....................    { 
....................       s = 1; 
....................       n = -n; 
....................       y = -y; 
....................    } 
....................  
....................    res = 0.0; 
....................  
....................    data1 = n+0x7F; 
....................    if(bit_test(data1,0)) 
....................    bit_set(*(((unsigned int8 *)(&res)+4)),7); 
....................    rotate_right(&data1,1); 
....................    bit_clear(data1,7); 
....................    *(((unsigned int8 *)(&res)+5)) = data1; 
....................  
....................    y = y/LN2 - (float48)n; 
....................  
....................    r = pe[0]*y + pe[1]; 
....................    r = r*y + pe[2]; 
....................    r = r*y + pe[3]; 
....................    r = r*y + pe[4]; 
....................    r = r*y + pe[5]; 
....................  
....................    res = res*(1.0 + y*r); 
....................  
....................    if (s) 
....................       res = 1.0/res; 
....................    return(res); 
.................... } 
....................  
.................... // Overloaded function exp() for data type - Float64 
.................... float64 exp(float64 x) 
.................... { 
....................    float64 y, res, r; 
....................    unsigned int16 data1, data2; 
....................    unsigned int16 *p; 
....................    signed int16 n; 
....................    int1 s; 
....................    #ifdef _ERRNO 
....................    if(x > 709.7827128) 
....................    { 
....................       errno=ERANGE; 
....................       return(0); 
....................    } 
....................    #endif 
....................    n = (signed int16)(x/LN2); 
....................    s = 0; 
....................    y = x; 
....................  
....................    if (x < 0) 
....................    { 
....................       s = 1; 
....................       n = -n; 
....................       y = -y; 
....................    } 
....................  
....................    res = 0.0; 
....................  
.................... #if !defined(__PCD__) 
....................    *((unsigned int16 *)(&res)) = n + 0x7F; 
.................... #endif 
....................    p= (((unsigned int16 *)(&res))+3); 
....................    data1 = *p; 
....................    data2 = *p;    
....................    data1 = n + 0x3FF; 
....................    data1 = data1 <<4; 
....................    if(bit_test(data2,15)) 
....................    bit_set(data1,15); 
....................    data2 = data2 & 0x000F; 
....................    data1 ^= data2; 
....................  
....................    *(((unsigned int16 *)(&res)+3)) = data1; 
....................  
....................  
....................    y = y/LN2 - (float64)n; 
....................  
....................    r = pe[0]*y + pe[1]; 
....................    r = r*y + pe[2]; 
....................    r = r*y + pe[3]; 
....................    r = r*y + pe[4]; 
....................    r = r*y + pe[5]; 
....................  
....................    res = res*(1.0 + y*r); 
....................  
....................    if (s) 
....................       res = 1.0/res; 
....................    return(res); 
.................... } 
....................  
.................... #ENDIF 
....................  
....................  
.................... /************************************************************/ 
....................  
.................... float32 const pl[4] = {0.45145214, -9.0558803, 26.940971, -19.860189}; 
.................... float32 const ql[4] = {1.0000000,  -8.1354259, 16.780517, -9.9300943}; 
....................  
.................... //////////////////////////////////////////////////////////////////////////// 
.................... //   float log(float x) 
.................... //////////////////////////////////////////////////////////////////////////// 
.................... // Description : returns the the natural log of x 
.................... // Date : N/A 
.................... // 
.................... float32 log(float32 x) 
.................... { 
....................    float32 y, res, r, y2; 
....................    #if defined(__PCD__) 
....................    unsigned int8  data1,data2; 
....................    #endif 
....................    signed int8 n; 
....................    #ifdef _ERRNO 
....................    if(x <0) 
....................    { 
....................       errno=EDOM; 
....................    } 
....................    if(x ==0) 
....................    { 
....................       errno=ERANGE; 
....................       return(0); 
....................    } 
....................    #endif 
....................    y = x; 
*
035CA:  MOVFF  5DC,5E0
035CE:  MOVFF  5DB,5DF
035D2:  MOVFF  5DA,5DE
035D6:  MOVFF  5D9,5DD
....................  
....................    if (y != 1.0) 
035DA:  MOVFF  5E0,5FC
035DE:  MOVFF  5DF,5FB
035E2:  MOVFF  5DE,5FA
035E6:  MOVFF  5DD,5F9
035EA:  MOVLB  6
035EC:  CLRF   x00
035EE:  MOVLB  5
035F0:  CLRF   xFF
035F2:  CLRF   xFE
035F4:  MOVLW  7F
035F6:  MOVWF  xFD
035F8:  MOVLB  0
035FA:  CALL   248C
035FE:  BTFSC  FD8.2
03600:  BRA    3A8E
....................    { 
.................... #if !defined(__PCD__) 
....................     *((unsigned int8 *)(&y)) = 0x7E;  
03602:  MOVLW  05
03604:  MOVLB  5
03606:  MOVWF  xEF
03608:  MOVLW  DD
0360A:  MOVWF  FE9
0360C:  MOVFF  5EF,FEA
03610:  MOVLW  7E
03612:  MOVWF  FEF
.................... #endif 
....................  
.................... #if defined(__PCD__) // Takes care of IEEE format 
....................    data2 = *(((unsigned int8 *)(&y))+3); 
....................    *(((unsigned int8 *)(&y))+3) = 0x3F; 
....................    data1 = *(((unsigned int8 *)(&y))+2); 
....................    bit_clear(data1,7); 
....................    *(((unsigned int8 *)(&y))+2) = data1; 
....................    if(bit_test(data2,7)) 
....................    bit_set(*(((unsigned int8 *)(&y))+3),7); 
.................... #endif 
....................  
....................       y = (y - 1.0)/(y + 1.0); 
03614:  BSF    FD8.1
03616:  MOVFF  5E0,600
0361A:  MOVFF  5DF,5FF
0361E:  MOVFF  5DE,5FE
03622:  MOVFF  5DD,5FD
03626:  MOVLB  6
03628:  CLRF   x04
0362A:  CLRF   x03
0362C:  CLRF   x02
0362E:  MOVLW  7F
03630:  MOVWF  x01
03632:  MOVLB  0
03634:  CALL   1A66
03638:  MOVFF  00,5EE
0363C:  MOVFF  01,5EF
03640:  MOVFF  02,5F0
03644:  MOVFF  03,5F1
03648:  BCF    FD8.1
0364A:  MOVFF  5E0,600
0364E:  MOVFF  5DF,5FF
03652:  MOVFF  5DE,5FE
03656:  MOVFF  5DD,5FD
0365A:  MOVLB  6
0365C:  CLRF   x04
0365E:  CLRF   x03
03660:  CLRF   x02
03662:  MOVLW  7F
03664:  MOVWF  x01
03666:  MOVLB  0
03668:  CALL   1A66
0366C:  MOVFF  5F1,5FC
03670:  MOVFF  5F0,5FB
03674:  MOVFF  5EF,5FA
03678:  MOVFF  5EE,5F9
0367C:  MOVFF  03,600
03680:  MOVFF  02,5FF
03684:  MOVFF  01,5FE
03688:  MOVFF  00,5FD
0368C:  CALL   18C8
03690:  MOVFF  03,5E0
03694:  MOVFF  02,5DF
03698:  MOVFF  01,5DE
0369C:  MOVFF  00,5DD
....................  
....................       y2=y*y; 
036A0:  MOVFF  5E0,5FC
036A4:  MOVFF  5DF,5FB
036A8:  MOVFF  5DE,5FA
036AC:  MOVFF  5DD,5F9
036B0:  MOVFF  5E0,600
036B4:  MOVFF  5DF,5FF
036B8:  MOVFF  5DE,5FE
036BC:  MOVFF  5DD,5FD
036C0:  RCALL  2F3A
036C2:  MOVFF  03,5EC
036C6:  MOVFF  02,5EB
036CA:  MOVFF  01,5EA
036CE:  MOVFF  00,5E9
....................  
....................       res = pl[0]*y2 + pl[1]; 
036D2:  MOVLW  BC
036D4:  MOVLB  5
036D6:  MOVWF  xFC
036D8:  MOVLW  24
036DA:  MOVWF  xFB
036DC:  MOVLW  67
036DE:  MOVWF  xFA
036E0:  MOVLW  7D
036E2:  MOVWF  xF9
036E4:  MOVFF  5EC,600
036E8:  MOVFF  5EB,5FF
036EC:  MOVFF  5EA,5FE
036F0:  MOVFF  5E9,5FD
036F4:  MOVLB  0
036F6:  RCALL  2F3A
036F8:  MOVFF  00,5EE
036FC:  MOVFF  01,5EF
03700:  MOVFF  02,5F0
03704:  MOVFF  03,5F1
03708:  BCF    FD8.1
0370A:  MOVFF  03,600
0370E:  MOVFF  02,5FF
03712:  MOVFF  01,5FE
03716:  MOVFF  00,5FD
0371A:  MOVLW  E3
0371C:  MOVLB  6
0371E:  MOVWF  x04
03720:  MOVLW  E4
03722:  MOVWF  x03
03724:  MOVLW  90
03726:  MOVWF  x02
03728:  MOVLW  82
0372A:  MOVWF  x01
0372C:  MOVLB  0
0372E:  CALL   1A66
03732:  MOVFF  03,5E4
03736:  MOVFF  02,5E3
0373A:  MOVFF  01,5E2
0373E:  MOVFF  00,5E1
....................       res = res*y2 + pl[2]; 
03742:  MOVFF  5E4,5FC
03746:  MOVFF  5E3,5FB
0374A:  MOVFF  5E2,5FA
0374E:  MOVFF  5E1,5F9
03752:  MOVFF  5EC,600
03756:  MOVFF  5EB,5FF
0375A:  MOVFF  5EA,5FE
0375E:  MOVFF  5E9,5FD
03762:  CALL   2F3A
03766:  MOVFF  00,5EE
0376A:  MOVFF  01,5EF
0376E:  MOVFF  02,5F0
03772:  MOVFF  03,5F1
03776:  BCF    FD8.1
03778:  MOVFF  03,600
0377C:  MOVFF  02,5FF
03780:  MOVFF  01,5FE
03784:  MOVFF  00,5FD
03788:  MOVLW  1C
0378A:  MOVLB  6
0378C:  MOVWF  x04
0378E:  MOVLW  87
03790:  MOVWF  x03
03792:  MOVLW  57
03794:  MOVWF  x02
03796:  MOVLW  83
03798:  MOVWF  x01
0379A:  MOVLB  0
0379C:  CALL   1A66
037A0:  MOVFF  03,5E4
037A4:  MOVFF  02,5E3
037A8:  MOVFF  01,5E2
037AC:  MOVFF  00,5E1
....................       res = res*y2 + pl[3]; 
037B0:  MOVFF  5E4,5FC
037B4:  MOVFF  5E3,5FB
037B8:  MOVFF  5E2,5FA
037BC:  MOVFF  5E1,5F9
037C0:  MOVFF  5EC,600
037C4:  MOVFF  5EB,5FF
037C8:  MOVFF  5EA,5FE
037CC:  MOVFF  5E9,5FD
037D0:  CALL   2F3A
037D4:  MOVFF  00,5EE
037D8:  MOVFF  01,5EF
037DC:  MOVFF  02,5F0
037E0:  MOVFF  03,5F1
037E4:  BCF    FD8.1
037E6:  MOVFF  03,600
037EA:  MOVFF  02,5FF
037EE:  MOVFF  01,5FE
037F2:  MOVFF  00,5FD
037F6:  MOVLW  AB
037F8:  MOVLB  6
037FA:  MOVWF  x04
037FC:  MOVLW  E1
037FE:  MOVWF  x03
03800:  MOVLW  9E
03802:  MOVWF  x02
03804:  MOVLW  83
03806:  MOVWF  x01
03808:  MOVLB  0
0380A:  CALL   1A66
0380E:  MOVFF  03,5E4
03812:  MOVFF  02,5E3
03816:  MOVFF  01,5E2
0381A:  MOVFF  00,5E1
....................  
....................       r = ql[0]*y2 + ql[1]; 
0381E:  MOVLB  5
03820:  CLRF   xFC
03822:  CLRF   xFB
03824:  CLRF   xFA
03826:  MOVLW  7F
03828:  MOVWF  xF9
0382A:  MOVFF  5EC,600
0382E:  MOVFF  5EB,5FF
03832:  MOVFF  5EA,5FE
03836:  MOVFF  5E9,5FD
0383A:  MOVLB  0
0383C:  CALL   2F3A
03840:  MOVFF  00,5EE
03844:  MOVFF  01,5EF
03848:  MOVFF  02,5F0
0384C:  MOVFF  03,5F1
03850:  BCF    FD8.1
03852:  MOVFF  03,600
03856:  MOVFF  02,5FF
0385A:  MOVFF  01,5FE
0385E:  MOVFF  00,5FD
03862:  MOVLW  B4
03864:  MOVLB  6
03866:  MOVWF  x04
03868:  MOVLW  2A
0386A:  MOVWF  x03
0386C:  MOVLW  82
0386E:  MOVWF  x02
03870:  MOVWF  x01
03872:  MOVLB  0
03874:  CALL   1A66
03878:  MOVFF  03,5E8
0387C:  MOVFF  02,5E7
03880:  MOVFF  01,5E6
03884:  MOVFF  00,5E5
....................       r = r*y2 + ql[2]; 
03888:  MOVFF  5E8,5FC
0388C:  MOVFF  5E7,5FB
03890:  MOVFF  5E6,5FA
03894:  MOVFF  5E5,5F9
03898:  MOVFF  5EC,600
0389C:  MOVFF  5EB,5FF
038A0:  MOVFF  5EA,5FE
038A4:  MOVFF  5E9,5FD
038A8:  CALL   2F3A
038AC:  MOVFF  00,5EE
038B0:  MOVFF  01,5EF
038B4:  MOVFF  02,5F0
038B8:  MOVFF  03,5F1
038BC:  BCF    FD8.1
038BE:  MOVFF  03,600
038C2:  MOVFF  02,5FF
038C6:  MOVFF  01,5FE
038CA:  MOVFF  00,5FD
038CE:  MOVLW  80
038D0:  MOVLB  6
038D2:  MOVWF  x04
038D4:  MOVLW  3E
038D6:  MOVWF  x03
038D8:  MOVLW  06
038DA:  MOVWF  x02
038DC:  MOVLW  83
038DE:  MOVWF  x01
038E0:  MOVLB  0
038E2:  CALL   1A66
038E6:  MOVFF  03,5E8
038EA:  MOVFF  02,5E7
038EE:  MOVFF  01,5E6
038F2:  MOVFF  00,5E5
....................       r = r*y2 + ql[3]; 
038F6:  MOVFF  5E8,5FC
038FA:  MOVFF  5E7,5FB
038FE:  MOVFF  5E6,5FA
03902:  MOVFF  5E5,5F9
03906:  MOVFF  5EC,600
0390A:  MOVFF  5EB,5FF
0390E:  MOVFF  5EA,5FE
03912:  MOVFF  5E9,5FD
03916:  CALL   2F3A
0391A:  MOVFF  00,5EE
0391E:  MOVFF  01,5EF
03922:  MOVFF  02,5F0
03926:  MOVFF  03,5F1
0392A:  BCF    FD8.1
0392C:  MOVFF  03,600
03930:  MOVFF  02,5FF
03934:  MOVFF  01,5FE
03938:  MOVFF  00,5FD
0393C:  MOVLW  AB
0393E:  MOVLB  6
03940:  MOVWF  x04
03942:  MOVLW  E1
03944:  MOVWF  x03
03946:  MOVLW  9E
03948:  MOVWF  x02
0394A:  MOVLW  82
0394C:  MOVWF  x01
0394E:  MOVLB  0
03950:  CALL   1A66
03954:  MOVFF  03,5E8
03958:  MOVFF  02,5E7
0395C:  MOVFF  01,5E6
03960:  MOVFF  00,5E5
....................  
....................       res = y*res/r; 
03964:  MOVFF  5E0,5FC
03968:  MOVFF  5DF,5FB
0396C:  MOVFF  5DE,5FA
03970:  MOVFF  5DD,5F9
03974:  MOVFF  5E4,600
03978:  MOVFF  5E3,5FF
0397C:  MOVFF  5E2,5FE
03980:  MOVFF  5E1,5FD
03984:  CALL   2F3A
03988:  MOVFF  00,5EE
0398C:  MOVFF  01,5EF
03990:  MOVFF  02,5F0
03994:  MOVFF  03,5F1
03998:  MOVFF  03,5FC
0399C:  MOVFF  02,5FB
039A0:  MOVFF  01,5FA
039A4:  MOVFF  00,5F9
039A8:  MOVFF  5E8,600
039AC:  MOVFF  5E7,5FF
039B0:  MOVFF  5E6,5FE
039B4:  MOVFF  5E5,5FD
039B8:  CALL   18C8
039BC:  MOVFF  03,5E4
039C0:  MOVFF  02,5E3
039C4:  MOVFF  01,5E2
039C8:  MOVFF  00,5E1
.................... #if !defined(__PCD__) 
....................       n = *((unsigned int8 *)(&x)) - 0x7E; 
039CC:  MOVLW  05
039CE:  MOVLB  5
039D0:  MOVWF  xEF
039D2:  MOVLW  D9
039D4:  MOVWF  FE9
039D6:  MOVFF  5EF,FEA
039DA:  MOVLW  7E
039DC:  SUBWF  FEF,W
039DE:  MOVWF  xED
.................... #endif 
.................... #if defined(__PCD__)  
....................     data1 = *(((unsigned int8 *)(&x)+3)); 
....................     rotate_left(&data1,1); 
....................     data2 = *(((unsigned int8 *)(&x)+2)); 
....................     if(bit_test (data2,7)) 
....................       bit_set(data1,0); 
....................     n = data1 - 0x7E; 
.................... #endif 
....................  
....................       if (n<0)  
039E0:  BTFSC  xED.7
039E2:  BRA    39E6
039E4:  BRA    3A0E
....................          r = -(float32)-n; 
039E6:  MOVLW  00
039E8:  BSF    FD8.0
039EA:  SUBFWB xED,W
039EC:  CLRF   xF0
039EE:  MOVWF  xEF
039F0:  BTFSC  xEF.7
039F2:  DECF   xF0,F
039F4:  MOVLB  0
039F6:  RCALL  357A
039F8:  MOVFF  00,5E5
039FC:  MOVF   01,W
039FE:  XORLW  80
03A00:  MOVLB  5
03A02:  MOVWF  xE6
03A04:  MOVFF  02,5E7
03A08:  MOVFF  03,5E8
....................       else 
03A0C:  BRA    3A2C
....................          r = (float32)n; 
03A0E:  CLRF   xF0
03A10:  MOVFF  5ED,5EF
03A14:  BTFSC  xEF.7
03A16:  DECF   xF0,F
03A18:  MOVLB  0
03A1A:  RCALL  357A
03A1C:  MOVFF  03,5E8
03A20:  MOVFF  02,5E7
03A24:  MOVFF  01,5E6
03A28:  MOVFF  00,5E5
....................  
....................       res += r*LN2; 
03A2C:  MOVFF  5E8,5FC
03A30:  MOVFF  5E7,5FB
03A34:  MOVFF  5E6,5FA
03A38:  MOVFF  5E5,5F9
03A3C:  MOVLW  18
03A3E:  MOVLB  6
03A40:  MOVWF  x00
03A42:  MOVLW  72
03A44:  MOVLB  5
03A46:  MOVWF  xFF
03A48:  MOVLW  31
03A4A:  MOVWF  xFE
03A4C:  MOVLW  7E
03A4E:  MOVWF  xFD
03A50:  MOVLB  0
03A52:  CALL   2F3A
03A56:  BCF    FD8.1
03A58:  MOVFF  5E4,600
03A5C:  MOVFF  5E3,5FF
03A60:  MOVFF  5E2,5FE
03A64:  MOVFF  5E1,5FD
03A68:  MOVFF  03,604
03A6C:  MOVFF  02,603
03A70:  MOVFF  01,602
03A74:  MOVFF  00,601
03A78:  CALL   1A66
03A7C:  MOVFF  03,5E4
03A80:  MOVFF  02,5E3
03A84:  MOVFF  01,5E2
03A88:  MOVFF  00,5E1
....................    } 
....................  
....................    else 
03A8C:  BRA    3A9A
....................       res = 0.0; 
03A8E:  MOVLB  5
03A90:  CLRF   xE4
03A92:  CLRF   xE3
03A94:  CLRF   xE2
03A96:  CLRF   xE1
03A98:  MOVLB  0
....................  
....................    return(res); 
03A9A:  MOVFF  5E1,00
03A9E:  MOVFF  5E2,01
03AA2:  MOVFF  5E3,02
03AA6:  MOVFF  5E4,03
.................... } 
03AAA:  RETLW  00
....................  
.................... //Overloaded function for log() for PCD 
.................... // Overloaded function log() for data type - Float48 
.................... #if defined(__PCD__) 
.................... float48 log(float48 x) 
.................... { 
....................    float48 y, res, r, y2; 
....................    unsigned int8  data1,data2; 
....................    signed int8 n; 
....................    #ifdef _ERRNO 
....................    if(x <0) 
....................    { 
....................       errno=EDOM; 
....................    } 
....................    if(x ==0) 
....................    { 
....................       errno=ERANGE; 
....................       return(0); 
....................    } 
....................    #endif 
....................    y = x; 
....................  
....................    if (y != 1.0) 
....................    { 
....................     
....................    #if !defined(__PCD__) 
....................        *((unsigned int8 *)(&y)) = 0x7E;  
....................    #endif 
....................       data2 = *(((unsigned int8 *)(&y))+5); 
....................       *(((unsigned int8 *)(&y))+5) = 0x3F; 
....................       data1 = *(((unsigned int8 *)(&y))+4); 
....................       bit_clear(data1,7); 
....................       *(((unsigned int8 *)(&y))+4) = data1; 
....................    
....................       if(bit_test(data2,7)) 
....................          bit_set(*(((unsigned int8 *)(&y))+4),7); 
....................       y = (y - 1.0)/(y + 1.0); 
....................  
....................       y2=y*y; 
....................  
....................       res = pl[0]*y2 + pl[1]; 
....................       res = res*y2 + pl[2]; 
....................       res = res*y2 + pl[3]; 
....................  
....................       r = ql[0]*y2 + ql[1]; 
....................       r = r*y2 + ql[2]; 
....................       r = r*y2 + ql[3]; 
....................  
....................       res = y*res/r; 
....................  
....................     data1 = *(((unsigned int8 *)(&x)+5)); 
....................     rotate_left(&data1,1); 
....................     data2 = *(((unsigned int8 *)(&x)+4)); 
....................     if(bit_test (data2,7)) 
....................        bit_set(data1,0); 
....................       
....................     n = data1 - 0x7E; 
....................  
....................       if (n<0) 
....................          r = -(float48)-n; 
....................       else 
....................          r = (float48)n; 
....................  
....................       res += r*LN2; 
....................    } 
....................  
....................    else 
....................       res = 0.0; 
....................  
....................    return(res); 
.................... } 
....................  
.................... // Overloaded function log() for data type - Float48 
.................... #if defined(__PCD__) 
.................... float32 const pl_64[4] = {0.45145214, -9.0558803, 26.940971, -19.860189}; 
.................... float32 const ql_64[4] = {1.0000000,  -8.1354259, 16.780517, -9.9300943}; 
.................... #endif 
.................... float64 log(float64 x) 
.................... { 
....................    float64 y, res, r, y2; 
....................    unsigned int16  data1,data2; 
....................    unsigned int16 *p; 
....................    signed int16 n; 
....................    #ifdef _ERRNO 
....................    if(x <0) 
....................    { 
....................       errno=EDOM; 
....................    } 
....................    if(x ==0) 
....................    { 
....................       errno=ERANGE; 
....................       return(0); 
....................    } 
....................    #endif 
....................    y = x; 
....................  
....................    if (y != 1.0) 
....................    { 
....................    #if !defined(__PCD__) 
....................        *((unsigned int8 *)(&y)) = 0x7E;  
....................    #endif 
....................       p= (((unsigned int16 *)(&y))+3); 
....................       data1 = *p; 
....................       data2 = *p; 
....................       data1 = 0x3FE; 
....................       data1 = data1 <<4; 
....................       if(bit_test (data2,15)) 
....................       bit_set(data1,15); 
....................       data2 = data2 & 0x000F; 
....................       data1 ^=data2; 
....................  
....................       *p = data1; 
....................  
....................       y = (y - 1.0)/(y + 1.0); 
....................  
....................       y2=y*y; 
....................  
....................       res = pl_64[0]*y2 + pl_64[1]; 
....................       res = res*y2 + pl_64[2]; 
....................       res = res*y2 + pl_64[3]; 
....................  
....................       r = ql_64[0]*y2 + ql_64[1]; 
....................       r = r*y2 + ql_64[2]; 
....................       r = r*y2 + ql_64[3]; 
....................  
....................       res = y*res/r; 
....................   
....................       p= (((unsigned int16 *)(&x))+3); 
....................       data1 = *p; 
....................       bit_clear(data1,15); 
....................       data1 = data1 >>4;     
....................       n = data1 - 0x3FE; 
....................  
....................  
....................       if (n<0) 
....................          r = -(float64)-n; 
....................       else 
....................          r = (float64)n; 
....................  
....................       res += r*LN2; 
....................    } 
....................  
....................    else 
....................       res = 0.0; 
....................  
....................    return(res); 
.................... } 
.................... #endif 
....................  
....................  
.................... #define LN10 2.3025850929940456 
....................  
.................... //////////////////////////////////////////////////////////////////////////// 
.................... //   float log10(float x) 
.................... //////////////////////////////////////////////////////////////////////////// 
.................... // Description : returns the the log base 10 of x 
.................... // Date : N/A 
.................... // 
.................... float32 log10(float32 x) 
.................... { 
....................    float32 r; 
....................  
....................    r = log(x); 
....................    r = r/LN10; 
....................    return(r); 
.................... } 
....................  
.................... //Overloaded functions for log10() for PCD 
.................... // Overloaded function log10() for data type - Float48 
.................... #if defined(__PCD__) 
.................... float48 log10(float48 x) 
.................... { 
....................    float48 r; 
....................  
....................    r = log(x); 
....................    r = r/LN10; 
....................    return(r); 
.................... } 
....................  
.................... // Overloaded function log10() for data type - Float64 
.................... float64 log10(float64 x) 
.................... { 
....................    float64 r; 
....................  
....................    r = log(x); 
....................    r = r/LN10; 
....................    return(r); 
.................... } 
.................... #endif 
.................... //////////////////////////////////////////////////////////////////////////// 
.................... //   float modf(float x) 
.................... //////////////////////////////////////////////////////////////////////////// 
.................... // Description :breaks the argument value int integral and fractional parts, 
.................... // ach of which have the same sign as the argument.  It stores the integral part 
.................... // as a float in the object pointed to by the iptr 
.................... // Returns : returns the signed fractional part of value. 
.................... // Date : N/A 
.................... // 
....................  
.................... float32 modf(float32 value,float32 *iptr) 
.................... { 
....................    *iptr=(value < 0.0)? ceil(value): floor(value); 
....................    return(value - *iptr); 
.................... } 
.................... //Overloaded functions for modf() for PCD 
.................... // Overloaded function modf() for data type - Float48 
.................... #if defined(__PCD__) 
.................... float48 modf(float48 value,float48 *iptr) 
.................... { 
....................    *iptr=(value < 0.0)? ceil(value): floor(value); 
....................    return(value - *iptr); 
.................... } 
.................... // Overloaded function modf() for data type - Float64 
.................... float64 modf(float64 value,float64 *iptr) 
.................... { 
....................    *iptr=(value < 0.0)? ceil(value): floor(value); 
....................    return(value - *iptr); 
.................... } 
.................... #endif 
....................  
.................... //////////////////////////////////////////////////////////////////////////// 
.................... //   float pwr(float x,float y) 
.................... //////////////////////////////////////////////////////////////////////////// 
.................... // Description : returns the value (x^y) 
.................... // Date : N/A 
.................... // Note : 0 is returned when the function will generate an imaginary number 
.................... // 
.................... float32 pwr(float32 x,float32 y) 
.................... { 
....................    if(0 > x && fmod(y, 1) == 0) { 
....................       if(fmod(y, 2) == 0) { 
....................          return (exp(log(-x) * y)); 
....................       } else { 
....................          return (-exp(log(-x) * y)); 
....................       } 
....................    } else if(0 > x && fmod(y, 1) != 0) { 
....................       return 0; 
....................    } else { 
....................       if(x != 0 || 0 >= y) { 
....................          return (exp(log(x) * y)); 
....................       } 
....................    } 
.................... } 
.................... //Overloaded functions for pwr() for PCD 
.................... // Overloaded function pwr() for data type - Float48 
.................... #if defined(__PCD__) 
.................... float48 pwr(float48 x,float48 y) 
.................... { 
....................    if(0 > x && fmod(y, 1) == 0) { 
....................       if(fmod(y, 2) == 0) { 
....................          return (exp(log(-x) * y)); 
....................       } else { 
....................          return (-exp(log(-x) * y)); 
....................       } 
....................    } else if(0 > x && fmod(y, 1) != 0) { 
....................       return 0; 
....................    } else { 
....................       if(x != 0 || 0 >= y) { 
....................          return (exp(log(x) * y)); 
....................       } 
....................    } 
.................... } 
.................... // Overloaded function pwr() for data type - Float64 
.................... float64 pwr(float64 x,float64 y) 
.................... { 
....................    if(0 > x && fmod(y, 1) == 0) { 
....................       if(fmod(y, 2) == 0) { 
....................          return (exp(log(-x) * y)); 
....................       } else { 
....................          return (-exp(log(-x) * y)); 
....................       } 
....................    } else if(0 > x && fmod(y, 1) != 0) { 
....................       return 0; 
....................    } else { 
....................       if(x != 0 || 0 >= y) { 
....................          return (exp(log(x) * y)); 
....................       } 
....................    } 
.................... } 
.................... #endif 
....................  
.................... //////////////////// Power functions //////////////////// 
....................  
.................... //////////////////////////////////////////////////////////////////////////// 
.................... //   float pow(float x,float y) 
.................... //////////////////////////////////////////////////////////////////////////// 
.................... // Description : returns the value (x^y) 
.................... // Date : N/A 
.................... // Note : 0 is returned when the function will generate an imaginary number 
.................... // 
.................... float32 pow(float32 x,float32 y) 
.................... { 
....................    if(0 > x && fmod(y, 1) == 0) { 
*
03EC2:  MOVFF  5D0,5FC
03EC6:  MOVFF  5CF,5FB
03ECA:  MOVFF  5CE,5FA
03ECE:  MOVFF  5CD,5F9
03ED2:  MOVLB  6
03ED4:  CLRF   x00
03ED6:  MOVLB  5
03ED8:  CLRF   xFF
03EDA:  CLRF   xFE
03EDC:  CLRF   xFD
03EDE:  MOVLB  0
03EE0:  CALL   248C
03EE4:  BTFSS  FD8.0
03EE6:  BRA    409E
03EE8:  MOVFF  5D4,5D8
03EEC:  MOVFF  5D3,5D7
03EF0:  MOVFF  5D2,5D6
03EF4:  MOVFF  5D1,5D5
03EF8:  MOVLB  5
03EFA:  CLRF   xDC
03EFC:  CLRF   xDB
03EFE:  CLRF   xDA
03F00:  MOVLW  7F
03F02:  MOVWF  xD9
03F04:  MOVLB  0
03F06:  CALL   3410
03F0A:  MOVFF  00,5D5
03F0E:  MOVFF  01,5D6
03F12:  MOVFF  02,5D7
03F16:  MOVFF  03,5D8
03F1A:  MOVFF  03,5FC
03F1E:  MOVFF  02,5FB
03F22:  MOVFF  01,5FA
03F26:  MOVFF  00,5F9
03F2A:  MOVLB  6
03F2C:  CLRF   x00
03F2E:  MOVLB  5
03F30:  CLRF   xFF
03F32:  CLRF   xFE
03F34:  CLRF   xFD
03F36:  MOVLB  0
03F38:  CALL   248C
03F3C:  BTFSS  FD8.2
03F3E:  BRA    409E
....................       if(fmod(y, 2) == 0) { 
03F40:  MOVFF  5D4,5D8
03F44:  MOVFF  5D3,5D7
03F48:  MOVFF  5D2,5D6
03F4C:  MOVFF  5D1,5D5
03F50:  MOVLB  5
03F52:  CLRF   xDC
03F54:  CLRF   xDB
03F56:  CLRF   xDA
03F58:  MOVLW  80
03F5A:  MOVWF  xD9
03F5C:  MOVLB  0
03F5E:  CALL   3410
03F62:  MOVFF  00,5D5
03F66:  MOVFF  01,5D6
03F6A:  MOVFF  02,5D7
03F6E:  MOVFF  03,5D8
03F72:  MOVFF  03,5FC
03F76:  MOVFF  02,5FB
03F7A:  MOVFF  01,5FA
03F7E:  MOVFF  00,5F9
03F82:  MOVLB  6
03F84:  CLRF   x00
03F86:  MOVLB  5
03F88:  CLRF   xFF
03F8A:  CLRF   xFE
03F8C:  CLRF   xFD
03F8E:  MOVLB  0
03F90:  CALL   248C
03F94:  BNZ   4018
....................          return (exp(log(-x) * y)); 
03F96:  MOVFF  5CD,5D5
03F9A:  MOVLB  5
03F9C:  MOVF   xCE,W
03F9E:  XORLW  80
03FA0:  MOVWF  xD6
03FA2:  MOVFF  5CF,5D7
03FA6:  MOVFF  5D0,5D8
03FAA:  MOVFF  5D0,5DC
03FAE:  MOVFF  5CF,5DB
03FB2:  MOVWF  xDA
03FB4:  MOVFF  5CD,5D9
03FB8:  MOVLB  0
03FBA:  CALL   35CA
03FBE:  MOVFF  00,5D5
03FC2:  MOVFF  01,5D6
03FC6:  MOVFF  02,5D7
03FCA:  MOVFF  03,5D8
03FCE:  MOVFF  03,5FC
03FD2:  MOVFF  02,5FB
03FD6:  MOVFF  01,5FA
03FDA:  MOVFF  00,5F9
03FDE:  MOVFF  5D4,600
03FE2:  MOVFF  5D3,5FF
03FE6:  MOVFF  5D2,5FE
03FEA:  MOVFF  5D1,5FD
03FEE:  CALL   2F3A
03FF2:  MOVFF  00,5D5
03FF6:  MOVFF  01,5D6
03FFA:  MOVFF  02,5D7
03FFE:  MOVFF  03,5D8
04002:  MOVFF  03,5DC
04006:  MOVFF  02,5DB
0400A:  MOVFF  01,5DA
0400E:  MOVFF  00,5D9
04012:  RCALL  3AAC
04014:  BRA    41DA
....................       } else { 
04016:  BRA    409C
....................          return (-exp(log(-x) * y)); 
04018:  MOVFF  5CD,5D5
0401C:  MOVLB  5
0401E:  MOVF   xCE,W
04020:  XORLW  80
04022:  MOVWF  xD6
04024:  MOVFF  5CF,5D7
04028:  MOVFF  5D0,5D8
0402C:  MOVFF  5D0,5DC
04030:  MOVFF  5CF,5DB
04034:  MOVWF  xDA
04036:  MOVFF  5CD,5D9
0403A:  MOVLB  0
0403C:  CALL   35CA
04040:  MOVFF  00,5D5
04044:  MOVFF  01,5D6
04048:  MOVFF  02,5D7
0404C:  MOVFF  03,5D8
04050:  MOVFF  03,5FC
04054:  MOVFF  02,5FB
04058:  MOVFF  01,5FA
0405C:  MOVFF  00,5F9
04060:  MOVFF  5D4,600
04064:  MOVFF  5D3,5FF
04068:  MOVFF  5D2,5FE
0406C:  MOVFF  5D1,5FD
04070:  CALL   2F3A
04074:  MOVFF  00,5D5
04078:  MOVFF  01,5D6
0407C:  MOVFF  02,5D7
04080:  MOVFF  03,5D8
04084:  MOVFF  03,5DC
04088:  MOVFF  02,5DB
0408C:  MOVFF  01,5DA
04090:  MOVFF  00,5D9
04094:  RCALL  3AAC
04096:  MOVLW  80
04098:  XORWF  01,F
0409A:  BRA    41DA
....................       } 
....................    } else if(0 > x && fmod(y, 1) != 0) { 
0409C:  BRA    41DA
0409E:  MOVFF  5D0,5FC
040A2:  MOVFF  5CF,5FB
040A6:  MOVFF  5CE,5FA
040AA:  MOVFF  5CD,5F9
040AE:  MOVLB  6
040B0:  CLRF   x00
040B2:  MOVLB  5
040B4:  CLRF   xFF
040B6:  CLRF   xFE
040B8:  CLRF   xFD
040BA:  MOVLB  0
040BC:  CALL   248C
040C0:  BNC   4124
040C2:  MOVFF  5D4,5D8
040C6:  MOVFF  5D3,5D7
040CA:  MOVFF  5D2,5D6
040CE:  MOVFF  5D1,5D5
040D2:  MOVLB  5
040D4:  CLRF   xDC
040D6:  CLRF   xDB
040D8:  CLRF   xDA
040DA:  MOVLW  7F
040DC:  MOVWF  xD9
040DE:  MOVLB  0
040E0:  CALL   3410
040E4:  MOVFF  00,5D5
040E8:  MOVFF  01,5D6
040EC:  MOVFF  02,5D7
040F0:  MOVFF  03,5D8
040F4:  MOVFF  03,5FC
040F8:  MOVFF  02,5FB
040FC:  MOVFF  01,5FA
04100:  MOVFF  00,5F9
04104:  MOVLB  6
04106:  CLRF   x00
04108:  MOVLB  5
0410A:  CLRF   xFF
0410C:  CLRF   xFE
0410E:  CLRF   xFD
04110:  MOVLB  0
04112:  CALL   248C
04116:  BZ    4124
....................       return 0; 
04118:  CLRF   00
0411A:  CLRF   01
0411C:  CLRF   02
0411E:  CLRF   03
04120:  BRA    41DA
....................    } else { 
04122:  BRA    41DA
....................       if(x != 0 || 0 >= y) { 
04124:  MOVFF  5D0,5FC
04128:  MOVFF  5CF,5FB
0412C:  MOVFF  5CE,5FA
04130:  MOVFF  5CD,5F9
04134:  MOVLB  6
04136:  CLRF   x00
04138:  MOVLB  5
0413A:  CLRF   xFF
0413C:  CLRF   xFE
0413E:  CLRF   xFD
04140:  MOVLB  0
04142:  CALL   248C
04146:  BNZ   416E
04148:  MOVFF  5D4,5FC
0414C:  MOVFF  5D3,5FB
04150:  MOVFF  5D2,5FA
04154:  MOVFF  5D1,5F9
04158:  MOVLB  6
0415A:  CLRF   x00
0415C:  MOVLB  5
0415E:  CLRF   xFF
04160:  CLRF   xFE
04162:  CLRF   xFD
04164:  MOVLB  0
04166:  CALL   248C
0416A:  BC    416E
0416C:  BNZ   41DA
....................          return (exp(log(x) * y)); 
0416E:  MOVFF  5D0,5DC
04172:  MOVFF  5CF,5DB
04176:  MOVFF  5CE,5DA
0417A:  MOVFF  5CD,5D9
0417E:  CALL   35CA
04182:  MOVFF  00,5D5
04186:  MOVFF  01,5D6
0418A:  MOVFF  02,5D7
0418E:  MOVFF  03,5D8
04192:  MOVFF  03,5FC
04196:  MOVFF  02,5FB
0419A:  MOVFF  01,5FA
0419E:  MOVFF  00,5F9
041A2:  MOVFF  5D4,600
041A6:  MOVFF  5D3,5FF
041AA:  MOVFF  5D2,5FE
041AE:  MOVFF  5D1,5FD
041B2:  CALL   2F3A
041B6:  MOVFF  00,5D5
041BA:  MOVFF  01,5D6
041BE:  MOVFF  02,5D7
041C2:  MOVFF  03,5D8
041C6:  MOVFF  03,5DC
041CA:  MOVFF  02,5DB
041CE:  MOVFF  01,5DA
041D2:  MOVFF  00,5D9
041D6:  RCALL  3AAC
041D8:  BRA    41DA
....................       } 
....................    } 
.................... } 
041DA:  RETLW  00
.................... //Overloaded functions for pow() for PCD 
.................... // Overloaded function for pow() data type - Float48 
.................... #if defined(__PCD__) 
.................... float48 pow(float48 x,float48 y) 
.................... { 
....................    if(0 > x && fmod(y, 1) == 0) { 
....................       if(fmod(y, 2) == 0) { 
....................          return (exp(log(-x) * y)); 
....................       } else { 
....................          return (-exp(log(-x) * y)); 
....................       } 
....................    } else if(0 > x && fmod(y, 1) != 0) { 
....................       return 0; 
....................    } else { 
....................       if(x != 0 || 0 >= y) { 
....................          return (exp(log(x) * y)); 
....................       } 
....................    } 
.................... } 
....................  
.................... // Overloaded function pow() for data type - Float64 
.................... float64 pow(float64 x,float64 y) 
.................... { 
....................    if(0 > x && fmod(y, 1) == 0) { 
....................       if(fmod(y, 2) == 0) { 
....................          return (exp(log(-x) * y)); 
....................       } else { 
....................          return (-exp(log(-x) * y)); 
....................       } 
....................    } else if(0 > x && fmod(y, 1) != 0) { 
....................       return 0; 
....................    } else { 
....................       if(x != 0 || 0 >= y) { 
....................          return (exp(log(x) * y)); 
....................       } 
....................    } 
.................... } 
.................... #endif 
....................  
.................... //////////////////////////////////////////////////////////////////////////// 
.................... //   float sqrt(float x) 
.................... //////////////////////////////////////////////////////////////////////////// 
.................... // Description : returns the square root of x 
.................... // Date : N/A 
.................... // 
.................... float32 sqrt(float32 x) 
.................... { 
....................    float32 y, res; 
....................    #if defined(__PCD__) 
....................    unsigned int16 data1,data2; 
....................    #endif 
....................    BYTE *p; 
....................  
....................    #ifdef _ERRNO 
....................    if(x < 0) 
....................    { 
....................       errno=EDOM; 
....................    } 
....................    #endif 
....................  
....................    if( x<=0.0) 
....................       return(0.0); 
....................  
....................    y=x; 
....................     
....................    #if !defined(__PCD__) 
....................     p=&y; 
....................    (*p)=(BYTE)((((unsigned int16)(*p)) + 127) >> 1); 
....................    #endif 
....................     
....................    #if defined(__PCD__) 
....................     p = (((unsigned int8 *)(&y))+3); 
....................     data1 = *(((unsigned int8 *)(&y))+3); 
....................     data2 = *(((unsigned int8 *)(&y))+2); 
....................     rotate_left(&data1,1);     
....................     if(bit_test(data2,7))     
....................     bit_set(data1,0);     
....................     data1 = ((data1+127) >>1); 
....................     bit_clear(data2,7); 
....................     if(bit_test(data1,0)) 
....................     bit_set(data2,7); 
....................     data1 = data1 >>1; 
....................     *(((unsigned int8 *)(&y))+3) = data1; 
....................     *(((unsigned int8 *)(&y))+2) = data2; 
....................      
....................   #endif 
....................  
....................    do { 
....................       res=y; 
....................       y+=(x/y); 
....................  
....................       #if !defined(__PCD__) 
....................      (*p)--; 
....................    #endif 
....................     
....................    #if defined(__PCD__) 
....................     data1 = *(((unsigned int8 *)(&y))+3); 
....................     data2 = *(((unsigned int8 *)(&y))+2); 
....................     rotate_left(&data1,1); 
....................     if(bit_test(data2,7)) 
....................     bit_set(data1,0);     
....................     data1--; 
....................     bit_clear(data2,7); 
....................     if(bit_test(data1,0)) 
....................     bit_set(data2,7); 
....................     data1 = data1 >>1; 
....................     *(((unsigned int8 *)(&y))+3) = data1; 
....................     *(((unsigned int8 *)(&y))+2) = data2; 
....................      
....................   #endif 
....................    } while(res != y); 
....................  
....................    return(res); 
.................... } 
.................... //Overloaded functions for sqrt() for PCD 
.................... // Overloaded function sqrt() for data type - Float48 
.................... #if defined(__PCD__) 
.................... float48 sqrt(float48 x) 
.................... { 
....................    float48 y, res; 
....................    unsigned int16 data1,data2; 
....................    BYTE *p; 
....................  
....................    #ifdef _ERRNO 
....................    if(x < 0) 
....................    { 
....................       errno=EDOM; 
....................    } 
....................    #endif 
....................  
....................    if( x<=0.0) 
....................       return(0.0); 
....................  
....................    y=x; 
....................     
....................    #if !defined(__PCD__) 
....................     p=&y; 
....................    (*p)=(BYTE)((((unsigned int16)(*p)) + 127) >> 1); 
....................    #endif 
....................     
....................    #if defined(__PCD__) 
....................     p = (((unsigned int8 *)(&y))+5); 
....................     data1 = *(((unsigned int8 *)(&y))+5); 
....................     data2 = *(((unsigned int8 *)(&y))+4); 
....................     rotate_left(&data1,1); 
....................     if(bit_test(data2,7)) 
....................     bit_set(data1,0);     
....................     data1 = ((data1+127) >>1); 
....................     bit_clear(data2,7); 
....................     if(bit_test(data1,0)) 
....................     bit_set(data2,7); 
....................     data1 = data1 >>1; 
....................     *(((unsigned int8 *)(&y))+5) = data1; 
....................     *(((unsigned int8 *)(&y))+4) = data2; 
....................      
....................   #endif 
....................  
....................    do { 
....................       res=y; 
....................       y+=(x/y); 
....................  
....................       #if !defined(__PCD__) 
....................      (*p)--; 
....................    #endif 
....................     
....................     data1 = *(((unsigned int8 *)(&y))+5); 
....................     data2 = *(((unsigned int8 *)(&y))+4); 
....................     rotate_left(&data1,1); 
....................     if(bit_test(data2,7)) 
....................     bit_set(data1,0);     
....................     data1--; 
....................     bit_clear(data2,7); 
....................     if(bit_test(data1,0)) 
....................     bit_set(data2,7); 
....................     data1 = data1 >>1; 
....................     *(((unsigned int8 *)(&y))+5) = data1; 
....................     *(((unsigned int8 *)(&y))+4) = data2; 
....................      
....................    } while(res != y); 
....................  
....................    return(res); 
.................... } 
....................  
.................... // Overloaded function sqrt() for data type - Float64 
.................... float64 sqrt(float64 x) 
.................... { 
....................    float64 y, res; 
....................    unsigned int16 *p; 
....................    unsigned int16 temp1,temp2; 
....................  
....................    #ifdef _ERRNO 
....................    if(x < 0) 
....................    { 
....................       errno=EDOM; 
....................    } 
....................    #endif 
....................  
....................    if( x<=0.0) 
....................       return(0.0); 
....................  
....................    y=x; 
....................    p= (((unsigned int16 *)(&y))+3); 
....................    temp1 = *p; 
....................    temp2 = *p; 
....................    bit_clear(temp1,15); 
....................    temp1 = (temp1>>4)+1023; 
....................    temp1 = temp1 >> 1; 
....................    temp1 = (temp1<<4) & 0xFFF0; 
....................    if(bit_test(temp2,15)) 
....................    bit_set(temp1,15); 
....................    temp2 = temp2 & 0x000F; 
....................    temp1 ^= temp2; 
....................     
....................    (*p) = temp1; 
....................     
....................    do { 
....................       res=y; 
....................       y+=(x/y); 
....................      temp1 = *p; 
....................      temp2 = *p; 
....................      bit_clear(temp1,15); 
....................      temp1 = (temp1>>4); 
....................      temp1--; 
....................      temp1 = (temp1<<4) & 0xFFF0; 
....................      if(bit_test(temp2,15)) 
....................      bit_set(temp1,15); 
....................      temp2 = temp2 & 0x000F; 
....................      temp1 ^= temp2; 
....................      (*p) = temp1; 
....................  
....................    } while(res != y); 
....................  
....................    return(res); 
.................... } 
.................... #endif 
....................  
.................... ////////////////////////////// Trig Functions ////////////////////////////// 
.................... #ifdef PI_DIV_BY_TWO 
.................... #undef PI_DIV_BY_TWO 
.................... #endif 
.................... #define PI_DIV_BY_TWO   1.5707963267948966 
.................... #ifdef TWOBYPI 
.................... #undef TWOBYPI 
.................... #define TWOBYPI          0.6366197723675813 
.................... #endif 
.................... //////////////////////////////////////////////////////////////////////////// 
.................... //   float cos(float x) 
.................... //////////////////////////////////////////////////////////////////////////// 
.................... // Description : returns the cosine value of the angle x, which is in radian 
.................... // Date : 9/20/2001 
.................... // 
.................... float32 cos(float32 x) 
.................... { 
....................    float32 y, t, t2 = 1.0; 
....................    unsigned int8 quad, i; 
....................    float32 frac; 
....................    float32 p[6] = {                    //by the series definition for cosine 
....................       -0.5,                            // sum ( ( (-1)^n * x^2n )/(2n)! ) 
....................        0.04166666666667, 
....................       -0.00138888888889, 
....................        0.00002480158730, 
....................       -0.00000027557319, 
....................        0.00000000208767, 
....................       //-0.00000000001147, 
....................       // 0.00000000000005 
....................    }; 
....................  
....................    if (x < 0) x = -x;                  // absolute value of input 
....................  
....................    quad = (unsigned int8)(x / PI_DIV_BY_TWO);    // quadrant 
....................    frac = (x / PI_DIV_BY_TWO) - quad;  // fractional part of input 
....................    quad = quad % 4;                    // quadrant (0 to 3) 
....................  
....................    if (quad == 0 || quad == 2) 
....................       t = frac * PI_DIV_BY_TWO; 
....................    else if (quad == 1) 
....................       t = (1-frac) * PI_DIV_BY_TWO; 
....................    else // should be 3 
....................       t = (frac-1) * PI_DIV_BY_TWO; 
....................  
....................    y = 1.0; 
....................    t = t * t; 
....................    for (i = 0; i <= 5; i++) 
....................    { 
....................       t2 = t2 * t; 
....................       y = y + p[i] * t2; 
....................    } 
....................  
....................    if (quad == 2 || quad == 1) 
....................       y = -y;  // correct sign 
....................  
....................    return (y); 
.................... } 
....................  
....................  
.................... //Overloaded functions for cos() for PCD 
.................... // Overloaded function cos() for data type - Float48 
.................... #if defined(__PCD__) 
.................... float48 cos(float48 x) 
.................... { 
....................    float48 y, t, t2 = 1.0; 
....................    unsigned int8 quad, i; 
....................    float48 frac; 
....................    float48 p[6] = {                    //by the series definition for cosine 
....................       -0.5,                            // sum ( ( (-1)^n * x^2n )/(2n)! ) 
....................        0.04166666666667, 
....................       -0.00138888888889, 
....................        0.00002480158730, 
....................       -0.00000027557319, 
....................        0.00000000208767, 
....................       //-0.00000000001147, 
....................       // 0.00000000000005 
....................    }; 
....................  
....................    if (x < 0) x = -x;                  // absolute value of input 
....................  
....................    quad = (unsigned int8)(x / PI_DIV_BY_TWO);    // quadrant 
....................    frac = (x / PI_DIV_BY_TWO) - quad;  // fractional part of input 
....................    quad = quad % 4;                    // quadrant (0 to 3) 
....................  
....................    if (quad == 0 || quad == 2) 
....................       t = frac * PI_DIV_BY_TWO; 
....................    else if (quad == 1) 
....................       t = (1-frac) * PI_DIV_BY_TWO; 
....................    else // should be 3 
....................       t = (frac-1) * PI_DIV_BY_TWO; 
....................  
....................    y = 0.999999999781; 
....................    t = t * t; 
....................    for (i = 0; i <= 5; i++) 
....................    { 
....................       t2 = t2 * t; 
....................       y = y + p[i] * t2; 
....................    } 
....................  
....................    if (quad == 2 || quad == 1) 
....................       y = -y;  // correct sign 
....................  
....................    return (y); 
.................... } 
....................  
.................... // Overloaded function cos() for data type - Float48 
.................... float64 cos(float64 x) 
.................... { 
....................    float64 y, t, t2 = 1.0; 
....................    unsigned int8 quad, i; 
....................    float64 frac; 
....................    float64 p[6] = {                    //by the series definition for cosine 
....................       -0.5,                            // sum ( ( (-1)^n * x^2n )/(2n)! ) 
....................        0.04166666666667, 
....................       -0.00138888888889, 
....................        0.00002480158730, 
....................       -0.00000027557319, 
....................        0.00000000208767, 
....................       //-0.00000000001147, 
....................       // 0.00000000000005 
....................    }; 
....................  
....................    if (x < 0) x = -x;                  // absolute value of input 
....................  
....................    quad = (unsigned int8)(x / PI_DIV_BY_TWO);    // quadrant 
....................    frac = (x / PI_DIV_BY_TWO) - quad;  // fractional part of input 
....................    quad = quad % 4;                    // quadrant (0 to 3) 
....................  
....................    if (quad == 0 || quad == 2) 
....................       t = frac * PI_DIV_BY_TWO; 
....................    else if (quad == 1) 
....................       t = (1-frac) * PI_DIV_BY_TWO; 
....................    else // should be 3 
....................       t = (frac-1) * PI_DIV_BY_TWO; 
....................  
....................    y = 0.999999999781; 
....................    t = t * t; 
....................    for (i = 0; i <= 5; i++) 
....................    { 
....................       t2 = t2 * t; 
....................       y = y + p[i] * t2; 
....................    } 
....................  
....................    if (quad == 2 || quad == 1) 
....................       y = -y;  // correct sign 
....................  
....................    return (y); 
.................... } 
....................  
.................... #endif 
....................  
.................... //////////////////////////////////////////////////////////////////////////// 
.................... //   float sin(float x) 
.................... //////////////////////////////////////////////////////////////////////////// 
.................... // Description : returns the sine value of the angle x, which is in radian 
.................... // Date : 9/20/2001 
.................... // 
.................... float32 sin(float32 x) 
.................... { 
....................    return cos(x - PI_DIV_BY_TWO); 
.................... } 
....................  
.................... //Overloaded functions for sin() for PCD 
.................... // Overloaded function sin() for data type - Float48 
.................... #if defined(__PCD__) 
.................... float48 sin(float48 x) 
.................... { 
....................    return cos(x - PI_DIV_BY_TWO); 
.................... } 
....................  
.................... // Overloaded function sin() for data type - Float48 
.................... float64 sin(float64 x) 
.................... { 
....................    return cos(x - PI_DIV_BY_TWO); 
.................... } 
.................... #endif 
....................  
.................... //////////////////////////////////////////////////////////////////////////// 
.................... //   float tan(float x) 
.................... //////////////////////////////////////////////////////////////////////////// 
.................... // Description : returns the tangent value of the angle x, which is in radian 
.................... // Date : 9/20/2001 
.................... // 
.................... float32 tan(float32 x) 
.................... { 
....................    float32 c, s; 
....................  
....................    c = cos(x); 
....................    if (c == 0.0) 
....................       return (1.0e+36); 
....................  
....................    s = sin(x); 
....................    return(s/c); 
.................... } 
.................... //Overloaded functions for tan() for PCD 
.................... // Overloaded function tan() for data type - Float48 
.................... #if defined(__PCD__) 
.................... float48 tan(float48 x) 
.................... { 
....................    float48 c, s; 
....................  
....................    c = cos(x); 
....................    if (c == 0.0) 
....................       return (1.0e+36); 
....................  
....................    s = sin(x); 
....................    return(s/c); 
.................... } 
....................  
.................... // Overloaded function tan() for data type - Float48 
.................... float64 tan(float64 x) 
.................... { 
....................    float64 c, s; 
....................  
....................    c = cos(x); 
....................    if (c == 0.0) 
....................       return (1.0e+36); 
....................  
....................    s = sin(x); 
....................    return(s/c); 
.................... } 
.................... #endif 
....................  
.................... float32 const pas[3] = {0.49559947, -4.6145309, 5.6036290}; 
.................... float32 const qas[3] = {1.0000000,  -5.5484666, 5.6036290}; 
....................  
.................... float32 ASIN_COS(float32 x, unsigned int8 n) 
.................... { 
....................    float32 y, res, r, y2; 
....................    int1 s; 
....................    #ifdef _ERRNO 
....................    if(x <-1 || x > 1) 
....................    { 
....................       errno=EDOM; 
....................    } 
....................    #endif 
....................    s = 0; 
....................    y = x; 
....................  
....................    if (x < 0) 
....................    { 
....................       s = 1; 
....................       y = -y; 
....................    } 
....................  
....................    if (y > 0.5) 
....................    { 
....................       y = sqrt((1.0 - y)/2.0); 
....................       n += 2; 
....................    } 
....................  
....................    y2=y*y; 
....................  
....................    res = pas[0]*y2 + pas[1]; 
....................    res = res*y2 + pas[2]; 
....................  
....................    r = qas[0]*y2 + qas[1]; 
....................    r = r*y2 + qas[2]; 
....................  
....................    res = y*res/r; 
....................  
....................    if (n & 2)     // |x| > 0.5 
....................       res = PI_DIV_BY_TWO - 2.0*res; 
....................    if (s) 
....................       res = -res; 
....................    if (n & 1)           // take arccos 
....................       res = PI_DIV_BY_TWO - res; 
....................  
....................    return(res); 
.................... } 
....................  
.................... //Overloaded functions for ASIN_COS() for PCD 
.................... // Overloaded function ASIN_COS() for data type - Float48 
.................... #if defined(__PCD__) 
.................... float48 ASIN_COS(float48 x, unsigned int8 n) 
.................... { 
....................    float48 y, res, r, y2; 
....................    int1 s; 
....................    #ifdef _ERRNO 
....................    if(x <-1 || x > 1) 
....................    { 
....................       errno=EDOM; 
....................    } 
....................    #endif 
....................    s = 0; 
....................    y = x; 
....................  
....................    if (x < 0) 
....................    { 
....................       s = 1; 
....................       y = -y; 
....................    } 
....................  
....................    if (y > 0.5) 
....................    { 
....................       y = sqrt((1.0 - y)/2.0); 
....................       n += 2; 
....................    } 
....................  
....................    y2=y*y; 
....................  
....................    res = pas[0]*y2 + pas[1]; 
....................    res = res*y2 + pas[2]; 
....................  
....................    r = qas[0]*y2 + qas[1]; 
....................    r = r*y2 + qas[2]; 
....................  
....................    res = y*res/r; 
....................  
....................    if (n & 2)     // |x| > 0.5 
....................       res = PI_DIV_BY_TWO - 2.0*res; 
....................    if (s) 
....................       res = -res; 
....................    if (n & 1)           // take arccos 
....................       res = PI_DIV_BY_TWO - res; 
....................  
....................    return(res); 
.................... } 
....................  
.................... // Overloaded function ASIN_COS() for data type - Float64 
.................... float64 ASIN_COS(float64 x, unsigned int8 n) 
.................... { 
....................    float64 y, res, r, y2; 
....................    int1 s; 
....................    #ifdef _ERRNO 
....................    if(x <-1 || x > 1) 
....................    { 
....................       errno=EDOM; 
....................    } 
....................    #endif 
....................    s = 0; 
....................    y = x; 
....................  
....................    if (x < 0) 
....................    { 
....................       s = 1; 
....................       y = -y; 
....................    } 
....................  
....................    if (y > 0.5) 
....................    { 
....................       y = sqrt((1.0 - y)/2.0); 
....................       n += 2; 
....................    } 
....................  
....................    y2=y*y; 
....................  
....................    res = pas[0]*y2 + pas[1]; 
....................    res = res*y2 + pas[2]; 
....................  
....................    r = qas[0]*y2 + qas[1]; 
....................    r = r*y2 + qas[2]; 
....................  
....................    res = y*res/r; 
....................  
....................    if (n & 2)     // |x| > 0.5 
....................       res = PI_DIV_BY_TWO - 2.0*res; 
....................    if (s) 
....................       res = -res; 
....................    if (n & 1)           // take arccos 
....................       res = PI_DIV_BY_TWO - res; 
....................  
....................    return(res); 
.................... } 
.................... #endif 
....................  
.................... //////////////////////////////////////////////////////////////////////////// 
.................... //   float asin(float x) 
.................... //////////////////////////////////////////////////////////////////////////// 
.................... // Description : returns the arcsine value of the value x. 
.................... // Date : N/A 
.................... // 
.................... float32 asin(float32 x) 
.................... { 
....................    float32 r; 
....................  
....................    r = ASIN_COS(x, 0); 
....................    return(r); 
.................... } 
.................... //Overloaded functions for asin() for PCD 
.................... // Overloaded function asin() for data type - Float48 
.................... #if defined(__PCD__) 
.................... float48 asin(float48 x) 
.................... { 
....................    float48 r; 
....................  
....................    r = ASIN_COS(x, 0); 
....................    return(r); 
.................... } 
....................  
.................... // Overloaded function asin() for data type - Float64 
.................... float64 asin(float64 x) 
.................... { 
....................    float64 r; 
....................  
....................    r = ASIN_COS(x, 0); 
....................    return(r); 
.................... } 
.................... #endif 
....................  
.................... //////////////////////////////////////////////////////////////////////////// 
.................... //   float acos(float x) 
.................... //////////////////////////////////////////////////////////////////////////// 
.................... // Description : returns the arccosine value of the value x. 
.................... // Date : N/A 
.................... // 
.................... float32 acos(float32 x) 
.................... { 
....................    float32 r; 
....................  
....................    r = ASIN_COS(x, 1); 
....................    return(r); 
.................... } 
.................... //Overloaded functions for acos() for PCD 
.................... // Overloaded function acos() for data type - Float48 
.................... #if defined(__PCD__) 
.................... float48 acos(float48 x) 
.................... { 
....................    float48 r; 
....................  
....................    r = ASIN_COS(x, 1); 
....................    return(r); 
.................... } 
....................  
.................... // Overloaded function acos() for data type - Float64 
.................... float64 acos(float64 x) 
.................... { 
....................    float64 r; 
....................  
....................    r = ASIN_COS(x, 1); 
....................    return(r); 
.................... } 
.................... #endif 
....................  
.................... float32 const pat[4] = {0.17630401, 5.6710795, 22.376096, 19.818457}; 
.................... float32 const qat[4] = {1.0000000,  11.368190, 28.982246, 19.818457}; 
....................  
.................... //////////////////////////////////////////////////////////////////////////// 
.................... //   float atan(float x) 
.................... //////////////////////////////////////////////////////////////////////////// 
.................... // Description : returns the arctangent value of the value x. 
.................... // Date : N/A 
.................... // 
.................... float32 atan(float32 x) 
.................... { 
....................    float32 y, res, r; 
....................    int1 s, flag; 
....................  
....................    s = 0; 
....................    flag = 0; 
....................    y = x; 
....................  
....................    if (x < 0) 
....................    { 
....................       s = 1; 
....................       y = -y; 
....................    } 
....................  
....................    if (y > 1.0) 
....................    { 
....................       y = 1.0/y; 
....................       flag = 1; 
....................    } 
....................  
....................    res = pat[0]*y*y + pat[1]; 
....................    res = res*y*y + pat[2]; 
....................    res = res*y*y + pat[3]; 
....................  
....................    r = qat[0]*y*y + qat[1]; 
....................    r = r*y*y + qat[2]; 
....................    r = r*y*y + qat[3]; 
....................  
....................    res = y*res/r; 
....................  
....................  
....................    if (flag)                              // for |x| > 1 
....................       res = PI_DIV_BY_TWO - res; 
....................    if (s) 
....................       res = -res; 
....................  
....................    return(res); 
.................... } 
.................... //Overloaded functions for atan() for PCD 
.................... // Overloaded function atan() for data type - Float48 
.................... #if defined(__PCD__) 
.................... float48 atan(float48 x) 
.................... { 
....................    float48 y, res, r; 
....................    int1 s, flag; 
....................  
....................    s = 0; 
....................    flag = 0; 
....................    y = x; 
....................  
....................    if (x < 0) 
....................    { 
....................       s = 1; 
....................       y = -y; 
....................    } 
....................  
....................    if (y > 1.0) 
....................    { 
....................       y = 1.0/y; 
....................       flag = 1; 
....................    } 
....................  
....................    res = pat[0]*y*y + pat[1]; 
....................    res = res*y*y + pat[2]; 
....................    res = res*y*y + pat[3]; 
....................  
....................    r = qat[0]*y*y + qat[1]; 
....................    r = r*y*y + qat[2]; 
....................    r = r*y*y + qat[3]; 
....................  
....................    res = y*res/r; 
....................  
....................  
....................    if (flag)                              // for |x| > 1 
....................       res = PI_DIV_BY_TWO - res; 
....................    if (s) 
....................       res = -res; 
....................  
....................    return(res); 
.................... } 
....................  
.................... // Overloaded function atan() for data type - Float64 
.................... float64 atan(float64 x) 
.................... { 
....................    float64 y, res, r; 
....................    int1 s, flag; 
....................  
....................    s = 0; 
....................    flag = 0; 
....................    y = x; 
....................  
....................    if (x < 0) 
....................    { 
....................       s = 1; 
....................       y = -y; 
....................    } 
....................  
....................    if (y > 1.0) 
....................    { 
....................       y = 1.0/y; 
....................       flag = 1; 
....................    } 
....................  
....................    res = pat[0]*y*y + pat[1]; 
....................    res = res*y*y + pat[2]; 
....................    res = res*y*y + pat[3]; 
....................  
....................    r = qat[0]*y*y + qat[1]; 
....................    r = r*y*y + qat[2]; 
....................    r = r*y*y + qat[3]; 
....................  
....................    res = y*res/r; 
....................  
....................  
....................    if (flag)                              // for |x| > 1 
....................       res = PI_DIV_BY_TWO - res; 
....................    if (s) 
....................       res = -res; 
....................  
....................    return(res); 
.................... } 
.................... #endif 
....................  
.................... ///////////////////////////////////////////////////////////////////////////// 
.................... //   float atan2(float y, float x) 
.................... ///////////////////////////////////////////////////////////////////////////// 
.................... // Description :computes the principal value of arc tangent of y/x, using the 
.................... // signs of both the arguments to determine the quadrant of the return value 
.................... // Returns : returns the arc tangent of y/x. 
.................... // Date : N/A 
.................... // 
....................  
.................... float32 atan2(float32 y,float32 x) 
.................... { 
....................    float32 z; 
....................    int1 sign; 
....................    unsigned int8 quad; 
....................    sign=0; 
....................    quad=0; //quadrant 
....................    quad=((y<=0.0)?((x<=0.0)?3:4):((x<0.0)?2:1)); 
....................    if(y<0.0) 
....................    { 
....................       sign=1; 
....................       y=-y; 
....................    } 
....................    if(x<0.0) 
....................    { 
....................       x=-x; 
....................    } 
....................    if (x==0.0) 
....................    { 
....................       if(y==0.0) 
....................       { 
....................       #ifdef _ERRNO 
....................       { 
....................          errno=EDOM; 
....................       } 
....................       #endif 
....................       } 
....................       else 
....................       { 
....................          if(sign) 
....................          { 
....................          return (-(PI_DIV_BY_TWO)); 
....................          } 
....................          else 
....................          { 
....................          return (PI_DIV_BY_TWO); 
....................          } 
....................       } 
....................    } 
....................    else 
....................    { 
....................       z=y/x; 
....................       switch(quad) 
....................       { 
....................          case 1: 
....................          { 
....................             return atan(z); 
....................             break; 
....................          } 
....................          case 2: 
....................          { 
.................... //            return (atan(z)+PI_DIV_BY_TWO);  //2L3122 
....................             return (PI-atan(z)); 
....................             break; 
....................          } 
....................          case 3: 
....................          { 
....................             return (atan(z)-PI); 
....................             break; 
....................          } 
....................          case 4: 
....................          { 
....................             return (-atan(z)); 
....................             break; 
....................          } 
....................       } 
....................    } 
.................... } 
....................  
.................... //Overloaded functions for atan2() for PCD 
.................... // Overloaded function atan2() for data type - Float48 
.................... #if defined(__PCD__) 
.................... float48 atan2(float48 y,float48 x) 
.................... { 
....................    float48 z; 
....................    int1 sign; 
....................    unsigned int8 quad; 
....................    sign=0; 
....................    quad=0; //quadrant 
....................    quad=((y<=0.0)?((x<=0.0)?3:4):((x<0.0)?2:1)); 
....................    if(y<0.0) 
....................    { 
....................       sign=1; 
....................       y=-y; 
....................    } 
....................    if(x<0.0) 
....................    { 
....................       x=-x; 
....................    } 
....................    if (x==0.0) 
....................    { 
....................       if(y==0.0) 
....................       { 
....................       #ifdef _ERRNO 
....................       { 
....................          errno=EDOM; 
....................       } 
....................       #endif 
....................       } 
....................       else 
....................       { 
....................          if(sign) 
....................          { 
....................          return (-(PI_DIV_BY_TWO)); 
....................          } 
....................          else 
....................          { 
....................          return (PI_DIV_BY_TWO); 
....................          } 
....................       } 
....................    } 
....................    else 
....................    { 
....................       z=y/x; 
....................       switch(quad) 
....................       { 
....................          case 1: 
....................          { 
....................             return atan(z); 
....................             break; 
....................          } 
....................          case 2: 
....................          { 
.................... //            return (atan(z)+PI_DIV_BY_TWO);  //2L3122 
....................             return (PI-atan(z)); 
....................             break; 
....................          } 
....................          case 3: 
....................          { 
....................             return (atan(z)-PI); 
....................             break; 
....................          } 
....................          case 4: 
....................          { 
....................             return (-atan(z)); 
....................             break; 
....................          } 
....................       } 
....................    } 
.................... } 
....................  
.................... // Overloaded function atan2() for data type - Float64 
.................... float64 atan2(float64 y,float64 x) 
.................... { 
....................    float64 z; 
....................    int1 sign; 
....................    unsigned int8 quad; 
....................    sign=0; 
....................    quad=0; //quadrant 
....................    quad=((y<=0.0)?((x<=0.0)?3:4):((x<0.0)?2:1)); 
....................    if(y<0.0) 
....................    { 
....................       sign=1; 
....................       y=-y; 
....................    } 
....................    if(x<0.0) 
....................    { 
....................       x=-x; 
....................    } 
....................    if (x==0.0) 
....................    { 
....................       if(y==0.0) 
....................       { 
....................       #ifdef _ERRNO 
....................       { 
....................          errno=EDOM; 
....................       } 
....................       #endif 
....................       } 
....................       else 
....................       { 
....................          if(sign) 
....................          { 
....................          return (-(PI_DIV_BY_TWO)); 
....................          } 
....................          else 
....................          { 
....................          return (PI_DIV_BY_TWO); 
....................          } 
....................       } 
....................    } 
....................    else 
....................    { 
....................       z=y/x; 
....................       switch(quad) 
....................       { 
....................          case 1: 
....................          { 
....................             return atan(z); 
....................             break; 
....................          } 
....................          case 2: 
....................          { 
.................... //            return (atan(z)+PI_DIV_BY_TWO);  //2L3122 
....................             return (PI-atan(z)); 
....................             break; 
....................          } 
....................          case 3: 
....................          { 
....................             return (atan(z)-PI); 
....................             break; 
....................          } 
....................          case 4: 
....................          { 
....................             return (-atan(z)); 
....................             break; 
....................          } 
....................       } 
....................    } 
.................... } 
.................... #endif 
....................  
.................... //////////////////// Hyperbolic functions //////////////////// 
....................  
.................... //////////////////////////////////////////////////////////////////////////// 
.................... //   float cosh(float x) 
.................... //////////////////////////////////////////////////////////////////////////// 
.................... // Description : Computes the hyperbolic cosine value of x 
.................... // Returns : returns the hyperbolic cosine value of x 
.................... // Date : N/A 
.................... // 
....................  
.................... float32 cosh(float32 x) 
.................... { 
....................    return ((exp(x)+exp(-x))/2); 
.................... } 
.................... //Overloaded functions for cosh() for PCD 
.................... // Overloaded function cosh() for data type - Float48 
.................... #if defined(__PCD__) 
.................... float48 cosh(float48 x) 
.................... { 
....................    return ((exp(x)+exp(-x))/2); 
.................... } 
....................  
.................... // Overloaded function cosh() for data type - Float64 
.................... float64 cosh(float64 x) 
.................... { 
....................    return ((exp(x)+exp(-x))/2); 
.................... } 
.................... #endif 
....................  
.................... //////////////////////////////////////////////////////////////////////////// 
.................... //   float sinh(float x) 
.................... //////////////////////////////////////////////////////////////////////////// 
.................... // Description : Computes the hyperbolic sine value of x 
.................... // Returns : returns the hyperbolic sine value of x 
.................... // Date : N/A 
.................... // 
....................  
.................... float32 sinh(float32 x) 
.................... { 
....................  
....................    return ((exp(x) - exp(-x))/2); 
.................... } 
.................... //Overloaded functions for sinh() for PCD 
.................... // Overloaded function sinh() for data type - Float48 
.................... #if defined(__PCD__) 
.................... float48 sinh(float48 x) 
.................... { 
....................  
....................    return ((exp(x) - exp(-x))/2); 
.................... } 
....................  
.................... // Overloaded function sinh() for data type - Float48 
.................... float64 sinh(float64 x) 
.................... { 
....................  
....................    return ((exp(x) - exp(-x))/2); 
.................... } 
.................... #endif 
....................  
.................... //////////////////////////////////////////////////////////////////////////// 
.................... //   float tanh(float x) 
.................... //////////////////////////////////////////////////////////////////////////// 
.................... // Description : Computes the hyperbolic tangent value of x 
.................... // Returns : returns the hyperbolic tangent value of x 
.................... // Date : N/A 
.................... // 
....................  
.................... float32 tanh(float32 x) 
.................... { 
....................    return(sinh(x)/cosh(x)); 
.................... } 
.................... //Overloaded functions for tanh() for PCD 
.................... // Overloaded function tanh() for data type - Float48 
.................... #if defined(__PCD__) 
.................... float48 tanh(float48 x) 
.................... { 
....................    return(sinh(x)/cosh(x)); 
.................... } 
....................  
.................... // Overloaded function tanh() for data type - Float64 
.................... float64 tanh(float64 x) 
.................... { 
....................    return(sinh(x)/cosh(x)); 
.................... } 
.................... #endif 
....................  
.................... //////////////////////////////////////////////////////////////////////////// 
.................... //   float frexp(float x, signed int *exp) 
.................... //////////////////////////////////////////////////////////////////////////// 
.................... // Description : breaks a floating point number into a normalized fraction and an integral 
.................... // power of 2. It stores the integer in the signed int object pointed to by exp. 
.................... // Returns : returns the value x, such that x is a double with magnitude in the interval 
.................... // [1/2,1) or zero, and value equals x times 2 raised to the power *exp.If value is zero, 
.................... // both parts of the result are zero. 
.................... // Date : N/A 
.................... // 
....................  
.................... #define LOG2 .30102999566398119521 
.................... float32 frexp(float32 x, signed int8 *exp) 
.................... { 
....................    float32 res; 
....................    int1 sign = 0; 
....................    if(x == 0.0) 
....................    { 
....................       *exp=0; 
....................       return (0.0); 
....................    } 
....................    if(x < 0.0) 
....................    { 
....................      x=-x; 
....................      sign=1; 
....................    } 
....................    if (x > 1.0) 
....................    { 
....................       *exp=(ceil(log10(x)/LOG2)); 
....................       res=x/(pow(2, *exp)); 
....................       if (res == 1) 
....................       { 
....................          *exp=*exp+1; 
....................           res=.5; 
....................       } 
....................    } 
....................    else 
....................    { 
....................       if(x < 0.5) 
....................       { 
....................          *exp=-1; 
....................          res=x*2; 
....................       } 
....................       else 
....................       { 
....................          *exp=0; 
....................           res=x; 
....................       } 
....................    } 
....................    if(sign) 
....................    { 
....................       res=-res; 
....................    } 
....................    return res; 
.................... } 
....................  
.................... //Overloaded functions for frexp() for PCD 
.................... // Overloaded function frexp() for data type - Float48 
.................... #if defined(__PCD__) 
.................... float48 frexp(float48 x, signed int8 *exp) 
.................... { 
....................    float48 res; 
....................    int1 sign = 0; 
....................    if(x == 0.0) 
....................    { 
....................       *exp=0; 
....................       return (0.0); 
....................    } 
....................    if(x < 0.0) 
....................    { 
....................      x=-x; 
....................      sign=1; 
....................    } 
....................    if (x > 1.0) 
....................    { 
....................       *exp=(ceil(log10(x)/LOG2)); 
....................       res=x/(pow(2, *exp)); 
....................       if (res == 1) 
....................       { 
....................          *exp=*exp+1; 
....................           res=.5; 
....................       } 
....................    } 
....................    else 
....................    { 
....................       if(x < 0.5) 
....................       { 
....................          *exp=-1; 
....................          res=x*2; 
....................       } 
....................       else 
....................       { 
....................          *exp=0; 
....................           res=x; 
....................       } 
....................    } 
....................    if(sign) 
....................    { 
....................       res=-res; 
....................    } 
....................    return res; 
.................... } 
....................  
.................... // Overloaded function frexp() for data type - Float64 
.................... float64 frexp(float64 x, signed int8 *exp) 
.................... { 
....................    float64 res; 
....................    int1 sign = 0; 
....................    if(x == 0.0) 
....................    { 
....................       *exp=0; 
....................       return (0.0); 
....................    } 
....................    if(x < 0.0) 
....................    { 
....................      x=-x; 
....................      sign=1; 
....................    } 
....................    if (x > 1.0) 
....................    { 
....................       *exp=(ceil(log10(x)/LOG2)); 
....................       res=x/(pow(2, *exp)); 
....................       if (res == 1) 
....................       { 
....................          *exp=*exp+1; 
....................           res=.5; 
....................       } 
....................    } 
....................    else 
....................    { 
....................       if(x < 0.5) 
....................       { 
....................          *exp=-1; 
....................          res=x*2; 
....................       } 
....................       else 
....................       { 
....................          *exp=0; 
....................           res=x; 
....................       } 
....................    } 
....................    if(sign) 
....................    { 
....................       res=-res; 
....................    } 
....................    return res; 
.................... } 
.................... #endif 
....................  
.................... ////////////////////////////////////////////////////////////////////////////// 
.................... //   float ldexp(float x, signed int *exp) 
.................... ////////////////////////////////////////////////////////////////////////////// 
.................... // Description : multiplies a floating point number by an integral power of 2. 
.................... // Returns : returns the value of x times 2 raised to the power exp. 
.................... // Date : N/A 
.................... // 
....................  
.................... float32 ldexp(float32 value, signed int8 exp) 
.................... { 
....................    return (value * pow(2,exp)); 
.................... } 
.................... //Overloaded functions for ldexp() for PCD 
.................... // Overloaded function ldexp() for data type - Float48 
....................  
.................... #if defined(__PCD__) 
.................... float48 ldexp(float48 value, signed int8 exp) 
.................... { 
....................    return (value * pow(2,exp)); 
.................... } 
.................... // Overloaded function ldexp() for data type - Float64 
.................... float64 ldexp(float64 value, signed int8 exp) 
.................... { 
....................    return (value * pow(2,exp)); 
.................... } 
.................... #endif 
....................  
.................... #endif 
....................  
.................... #include "HDM64GS12.c" 
.................... ///////////////////////////////////////////////////////////////////////// 
.................... ////                           HDM64GS12.c                           //// 
.................... ////                                                                 //// 
.................... //// This file contains drivers for using a Hantronix HDM64GS12 with //// 
.................... //// a KS0108 display controller. The HDM64GS12 is 128 by 64 pixels. //// 
.................... //// The driver treats the upper left pixel as (0,0).                //// 
.................... ////                                                                 //// 
.................... //// Use #define FAST_GLCD if the target chip has at least 1k of RAM //// 
.................... //// to decrease the time it takes to update the display.            //// 
.................... //// glcd_update() must then be called to update the display after   //// 
.................... //// changing the pixel information.                                 //// 
.................... //// See ex_glcd.c for suggested usage.                              //// 
.................... //// See KS0108.c for controlling a single 64 by 64 display          //// 
.................... ///////////////////////////////////////////////////////////////////////// 
.................... ////                                                                 //// 
.................... //// LCD Pin connections:                                            //// 
.................... //// (These can be changed as needed in the following defines).      //// 
.................... ////  * 1: VSS is connected to GND                                   //// 
.................... ////  * 2: VDD is connected to +5V                                   //// 
.................... ////  * 3: V0  - LCD operating voltage (Constrast adjustment)        //// 
.................... ////  * 4: D/I - Data or Instruction is connected to B2              //// 
.................... ////  * 5: R/W - Read or Write is connected to B4                    //// 
.................... ////  * 6: Enable is connected to B5                                 //// 
.................... ////  *7-14: Data Bus 0 to 7 is connected to port d                  //// 
.................... ////  *15: Chip Select 1 is connected to B0                          //// 
.................... ////  *16: Chip Select 2 is connected to B1                          //// 
.................... ////  *17: Reset is connected to C0                                  //// 
.................... ////  *18: Negative voltage is also connected to the 20k Ohm POT     //// 
.................... ////  *19: Positive voltage for LED backlight is connected to +5V    //// 
.................... ////  *20: Negavtive voltage for LED backlight is connected to GND   //// 
.................... ////                                                                 //// 
.................... ///////////////////////////////////////////////////////////////////////// 
.................... ////                                                                 //// 
.................... ////  glcd_init(mode)                                                //// 
.................... ////     * Must be called before any other function.                 //// 
.................... ////       - mode can be ON or OFF to turn the LCD on or off         //// 
.................... ////                                                                 //// 
.................... ////  glcd_pixel(x,y,color)                                          //// 
.................... ////     * Sets the pixel to the given color.                        //// 
.................... ////       - color can be ON or OFF                                  //// 
.................... ////                                                                 //// 
.................... ////  glcd_fillScreen(color)                                         //// 
.................... ////     * Fills the entire LCD with the given color.                //// 
.................... ////       - color can be ON or OFF                                  //// 
.................... ////                                                                 //// 
.................... ////  glcd_update()                                                  //// 
.................... ////     * Write the display data stored in RAM to the LCD           //// 
.................... ////     * Only available if FAST_GLCD is defined                    //// 
.................... ////                                                                 //// 
.................... ///////////////////////////////////////////////////////////////////////// 
.................... ////        (C) Copyright 1996, 2004 Custom Computer Services        //// 
.................... //// This source code may only be used by licensed users of the CCS  //// 
.................... //// C compiler.  This source code may only be distributed to other  //// 
.................... //// licensed users of the CCS C compiler.  No other use,            //// 
.................... //// reproduction or distribution is permitted without written       //// 
.................... //// permission.  Derivative programs created using this software    //// 
.................... //// in object code form are not restricted in any way.              //// 
.................... ///////////////////////////////////////////////////////////////////////// 
....................  
....................  
....................  
.................... #ifndef HDM64GS12 
.................... #define HDM64GS12 
....................  
.................... #ifndef FAST_GLCD 
.................... #define FAST_GLCD 
....................  
.................... #ifndef GLCD_WIDTH 
.................... #define GLCD_WIDTH   128 
.................... #endif 
....................  
.................... #ifndef GLCD_CS1 
.................... #define GLCD_CS1     PIN_B2   // Chip Selection 1 
.................... #endif 
....................  
.................... #ifndef GLCD_CS2 
.................... #define GLCD_CS2     PIN_B3   // Chip Selection 2 
.................... #endif 
....................  
.................... #ifndef GLCD_DI 
.................... #define GLCD_DI      PIN_B5   // Data or Instruction input 
.................... #endif 
....................  
.................... #ifndef GLCD_RW 
.................... #define GLCD_RW      PIN_B6   // Read/Write 
.................... #endif 
....................  
.................... #ifndef GLCD_E 
.................... #define GLCD_E       PIN_B7   // Enable 
.................... #endif 
....................  
.................... #ifndef GLCD_RST 
.................... #define GLCD_RST     PIN_B4   // Reset 
.................... #endif 
....................  
.................... #define GLCD_LEFT    0 
.................... #define GLCD_RIGHT   1 
....................  
.................... #ifndef ON 
.................... #define ON           1 
.................... #endif 
....................  
.................... #ifndef OFF 
.................... #define OFF          0 
.................... #endif 
....................  
.................... ///////////////////////////////////////////////////////////////////////// 
.................... // Function Prototypes 
.................... ///////////////////////////////////////////////////////////////////////// 
.................... void glcd_init(int1 mode); 
.................... void glcd_pixel(int8 x, int8 y, int1 color); 
.................... void glcd_fillScreen(int1 color); 
.................... void glcd_writeByte(int1 side, BYTE data); 
.................... BYTE glcd_readByte(int1 side); 
.................... void glcd_update(); 
.................... ///////////////////////////////////////////////////////////////////////// 
....................  
.................... #ifdef FAST_GLCD 
.................... struct 
.................... { 
....................    int8 left[512]; 
....................    int8 right[512]; 
.................... } displayData; 
.................... #endif 
....................  
....................  
.................... // Purpose:       Initialize the LCD. 
.................... //                Call before using any other LCD function. 
.................... // Inputs:        OFF - Turns the LCD off 
.................... //                ON  - Turns the LCD on 
.................... void glcd_init(int1 mode) 
.................... { 
....................    // Initialze some pins 
....................    output_high(GLCD_RST); 
*
01556:  BCF    F93.4
01558:  BSF    F8A.4
....................    output_low(GLCD_E); 
0155A:  BCF    F93.7
0155C:  BCF    F8A.7
....................    output_low(GLCD_CS1); 
0155E:  BCF    F93.2
01560:  BCF    F8A.2
....................    output_low(GLCD_CS2); 
01562:  BCF    F93.3
01564:  BCF    F8A.3
....................  
....................    output_low(GLCD_DI);                 // Set for instruction 
01566:  BCF    F93.5
01568:  BCF    F8A.5
....................    glcd_writeByte(GLCD_LEFT,  0xC0);    // Specify first RAM line at the top 
0156A:  MOVLB  5
0156C:  CLRF   xD7
0156E:  MOVLW  C0
01570:  MOVWF  xD8
01572:  MOVLB  0
01574:  RCALL  140E
....................    glcd_writeByte(GLCD_RIGHT, 0xC0);    //   of the screen 
01576:  MOVLW  01
01578:  MOVLB  5
0157A:  MOVWF  xD7
0157C:  MOVLW  C0
0157E:  MOVWF  xD8
01580:  MOVLB  0
01582:  RCALL  140E
....................    glcd_writeByte(GLCD_LEFT,  0x40);    // Set the column address to 0 
01584:  MOVLB  5
01586:  CLRF   xD7
01588:  MOVLW  40
0158A:  MOVWF  xD8
0158C:  MOVLB  0
0158E:  RCALL  140E
....................    glcd_writeByte(GLCD_RIGHT, 0x40); 
01590:  MOVLW  01
01592:  MOVLB  5
01594:  MOVWF  xD7
01596:  MOVLW  40
01598:  MOVWF  xD8
0159A:  MOVLB  0
0159C:  RCALL  140E
....................    glcd_writeByte(GLCD_LEFT,  0xB8);    // Set the page address to 0 
0159E:  MOVLB  5
015A0:  CLRF   xD7
015A2:  MOVLW  B8
015A4:  MOVWF  xD8
015A6:  MOVLB  0
015A8:  RCALL  140E
....................    glcd_writeByte(GLCD_RIGHT, 0xB8); 
015AA:  MOVLW  01
015AC:  MOVLB  5
015AE:  MOVWF  xD7
015B0:  MOVLW  B8
015B2:  MOVWF  xD8
015B4:  MOVLB  0
015B6:  RCALL  140E
....................  
....................    if(mode == ON) 
015B8:  MOVLB  5
015BA:  DECFSZ xC8,W
015BC:  BRA    15DA
....................    { 
....................       glcd_writeByte(GLCD_LEFT,  0x3F); // Turn the display on 
015BE:  CLRF   xD7
015C0:  MOVLW  3F
015C2:  MOVWF  xD8
015C4:  MOVLB  0
015C6:  RCALL  140E
....................       glcd_writeByte(GLCD_RIGHT, 0x3F); 
015C8:  MOVLW  01
015CA:  MOVLB  5
015CC:  MOVWF  xD7
015CE:  MOVLW  3F
015D0:  MOVWF  xD8
015D2:  MOVLB  0
015D4:  RCALL  140E
....................    } 
....................    else 
015D6:  BRA    15F2
015D8:  MOVLB  5
....................    { 
....................       glcd_writeByte(GLCD_LEFT,  0x3E); // Turn the display off 
015DA:  CLRF   xD7
015DC:  MOVLW  3E
015DE:  MOVWF  xD8
015E0:  MOVLB  0
015E2:  RCALL  140E
....................       glcd_writeByte(GLCD_RIGHT, 0x3E); 
015E4:  MOVLW  01
015E6:  MOVLB  5
015E8:  MOVWF  xD7
015EA:  MOVLW  3E
015EC:  MOVWF  xD8
015EE:  MOVLB  0
015F0:  RCALL  140E
....................    } 
....................  
....................    glcd_fillScreen(OFF);                // Clear the display 
015F2:  MOVLB  5
015F4:  CLRF   xD0
015F6:  MOVLB  0
015F8:  RCALL  1444
....................  
....................    #ifdef FAST_GLCD 
....................    glcd_update(); 
015FA:  RCALL  149E
....................    #endif 
.................... } 
015FC:  RETLW  00
....................  
....................  
.................... // Purpose:    Update the LCD with data from the display arrays 
.................... #ifdef FAST_GLCD 
.................... void glcd_update() 
.................... { 
....................    int8 i, j; 
....................    int8 *p1, *p2; 
....................  
....................    p1 = displayData.left; 
*
0149E:  MOVLB  5
014A0:  CLRF   xD3
014A2:  MOVLW  17
014A4:  MOVWF  xD2
....................    p2 = displayData.right; 
014A6:  MOVLW  02
014A8:  MOVWF  xD5
014AA:  MOVLW  17
014AC:  MOVWF  xD4
....................  
....................    // Loop through the vertical pages 
....................    for(i = 0; i < 8; ++i) 
014AE:  CLRF   xD0
014B0:  MOVF   xD0,W
014B2:  SUBLW  07
014B4:  BNC   1552
....................    { 
....................       output_low(GLCD_DI);                      // Set for instruction 
014B6:  BCF    F93.5
014B8:  BCF    F8A.5
....................       glcd_writeByte(GLCD_LEFT, 0x40);          // Set horizontal address to 0 
014BA:  CLRF   xD7
014BC:  MOVLW  40
014BE:  MOVWF  xD8
014C0:  MOVLB  0
014C2:  RCALL  140E
....................       glcd_writeByte(GLCD_RIGHT, 0x40); 
014C4:  MOVLW  01
014C6:  MOVLB  5
014C8:  MOVWF  xD7
014CA:  MOVLW  40
014CC:  MOVWF  xD8
014CE:  MOVLB  0
014D0:  RCALL  140E
....................       glcd_writeByte(GLCD_LEFT, i | 0xB8);      // Set page address 
014D2:  MOVLB  5
014D4:  MOVF   xD0,W
014D6:  IORLW  B8
014D8:  MOVWF  xD6
014DA:  CLRF   xD7
014DC:  MOVWF  xD8
014DE:  MOVLB  0
014E0:  RCALL  140E
....................       glcd_writeByte(GLCD_RIGHT, i | 0xB8); 
014E2:  MOVLB  5
014E4:  MOVF   xD0,W
014E6:  IORLW  B8
014E8:  MOVWF  xD6
014EA:  MOVLW  01
014EC:  MOVWF  xD7
014EE:  MOVFF  5D6,5D8
014F2:  MOVLB  0
014F4:  RCALL  140E
....................       output_high(GLCD_DI);                     // Set for data 
014F6:  BCF    F93.5
014F8:  BSF    F8A.5
....................  
....................       // Loop through the horizontal sections 
....................       for(j = 0; j < 64; ++j) 
014FA:  MOVLB  5
014FC:  CLRF   xD1
014FE:  MOVF   xD1,W
01500:  SUBLW  3F
01502:  BNC   154E
....................       { 
....................          glcd_writeByte(GLCD_LEFT, *p1++);      // Turn pixels on or off 
01504:  MOVFF  5D3,03
01508:  MOVF   xD2,W
0150A:  INCF   xD2,F
0150C:  BTFSC  FD8.2
0150E:  INCF   xD3,F
01510:  MOVWF  FE9
01512:  MOVFF  03,FEA
01516:  MOVFF  FEF,5D6
0151A:  CLRF   xD7
0151C:  MOVFF  5D6,5D8
01520:  MOVLB  0
01522:  RCALL  140E
....................          glcd_writeByte(GLCD_RIGHT, *p2++);     // Turn pixels on or off 
01524:  MOVLB  5
01526:  MOVFF  5D5,03
0152A:  MOVF   xD4,W
0152C:  INCF   xD4,F
0152E:  BTFSC  FD8.2
01530:  INCF   xD5,F
01532:  MOVWF  FE9
01534:  MOVFF  03,FEA
01538:  MOVFF  FEF,5D6
0153C:  MOVLW  01
0153E:  MOVWF  xD7
01540:  MOVFF  5D6,5D8
01544:  MOVLB  0
01546:  RCALL  140E
....................       } 
01548:  MOVLB  5
0154A:  INCF   xD1,F
0154C:  BRA    14FE
....................    } 
0154E:  INCF   xD0,F
01550:  BRA    14B0
.................... } 
01552:  MOVLB  0
01554:  RETLW  00
.................... #endif 
....................  
....................  
.................... // Purpose:    Turn a pixel on a graphic LCD on or off 
.................... // Inputs:     1) x - the x coordinate of the pixel 
.................... //             2) y - the y coordinate of the pixel 
.................... //             3) color - ON or OFF 
.................... void glcd_pixel(int8 x, int8 y, int1 color) 
.................... #ifdef FAST_GLCD 
.................... { 
....................    int8* p; 
....................    int16 temp; 
....................    temp =  y/8; 
*
015FE:  MOVLB  6
01600:  CLRF   x02
01602:  MOVLB  5
01604:  RRCF   xFD,W
01606:  MOVLB  6
01608:  MOVWF  x01
0160A:  RRCF   x01,F
0160C:  RRCF   x01,F
0160E:  MOVLW  1F
01610:  ANDWF  x01,F
....................    temp *= 64; 
01612:  RLCF   x01,F
01614:  RLCF   x02,F
01616:  RLCF   x01,F
01618:  RLCF   x02,F
0161A:  RLCF   x01,F
0161C:  RLCF   x02,F
0161E:  RLCF   x01,F
01620:  RLCF   x02,F
01622:  RLCF   x01,F
01624:  RLCF   x02,F
01626:  RLCF   x01,F
01628:  RLCF   x02,F
0162A:  MOVLW  C0
0162C:  ANDWF  x01,F
....................    temp += x; 
0162E:  MOVLB  5
01630:  MOVF   xFC,W
01632:  MOVLB  6
01634:  ADDWF  x01,F
01636:  MOVLW  00
01638:  ADDWFC x02,F
....................  
....................    if(x > 63) 
0163A:  MOVLB  5
0163C:  MOVF   xFC,W
0163E:  SUBLW  3F
01640:  BC    1664
....................    { 
....................       p = displayData.right + temp - 64; 
01642:  MOVLW  17
01644:  MOVLB  6
01646:  ADDWF  x01,W
01648:  MOVWF  x03
0164A:  MOVLW  02
0164C:  ADDWFC x02,W
0164E:  MOVWF  x04
01650:  MOVLW  40
01652:  SUBWF  x03,W
01654:  MOVLB  5
01656:  MOVWF  xFF
01658:  MOVLW  00
0165A:  MOVLB  6
0165C:  SUBWFB x04,W
0165E:  MOVWF  x00
....................    } 
....................    else 
01660:  BRA    1676
01662:  MOVLB  5
....................    { 
....................       p = displayData.left + temp; 
01664:  MOVLW  17
01666:  MOVLB  6
01668:  ADDWF  x01,W
0166A:  MOVLB  5
0166C:  MOVWF  xFF
0166E:  MOVLW  00
01670:  MOVLB  6
01672:  ADDWFC x02,W
01674:  MOVWF  x00
....................    } 
....................  
....................    if(color) 
01676:  MOVLB  5
01678:  MOVF   xFE,F
0167A:  BZ    16AA
....................    { 
....................       bit_set(*p, y%8); 
0167C:  MOVFF  600,03
01680:  MOVFF  5FF,FE9
01684:  MOVFF  600,FEA
01688:  MOVF   xFD,W
0168A:  ANDLW  07
0168C:  MOVLB  6
0168E:  MOVWF  x03
01690:  MOVLW  01
01692:  MOVWF  00
01694:  MOVF   x03,W
01696:  MOVWF  01
01698:  BZ    16A2
0169A:  BCF    FD8.0
0169C:  RLCF   00,F
0169E:  DECFSZ 01,F
016A0:  BRA    169A
016A2:  MOVF   00,W
016A4:  IORWF  FEF,F
....................    } 
....................    else 
016A6:  BRA    16D6
016A8:  MOVLB  5
....................    { 
....................       bit_clear(*p, y%8); 
016AA:  MOVFF  600,03
016AE:  MOVFF  5FF,FE9
016B2:  MOVFF  600,FEA
016B6:  MOVF   xFD,W
016B8:  ANDLW  07
016BA:  MOVLB  6
016BC:  MOVWF  x03
016BE:  MOVLW  01
016C0:  MOVWF  00
016C2:  MOVF   x03,W
016C4:  MOVWF  01
016C6:  BZ    16D0
016C8:  BCF    FD8.0
016CA:  RLCF   00,F
016CC:  DECFSZ 01,F
016CE:  BRA    16C8
016D0:  MOVF   00,W
016D2:  XORLW  FF
016D4:  ANDWF  FEF,F
....................    } 
.................... } 
016D6:  MOVLB  0
016D8:  RETLW  00
.................... #else 
.................... { 
....................    BYTE data; 
....................    int1 side = GLCD_LEFT;  // Stores which chip to use on the LCD 
....................  
....................    if(x > 63)              // Check for first or second display area 
....................    { 
....................       x -= 64; 
....................       side = GLCD_RIGHT; 
....................    } 
....................  
....................    output_low(GLCD_DI);                         // Set for instruction 
....................    bit_clear(x,7);                              // Clear the MSB. Part of an instruction code 
....................    bit_set(x,6);                                // Set bit 6. Also part of an instruction code 
....................    glcd_writeByte(side, x);                     // Set the horizontal address 
....................    glcd_writeByte(side, (y/8 & 0xBF) | 0xB8);   // Set the vertical page address 
....................    output_high(GLCD_DI);                        // Set for data 
....................    glcd_readByte(side);                         // Need two reads to get data 
....................    data = glcd_readByte(side);                  //  at new address 
....................  
....................    if(color == ON) 
....................       bit_set(data, y%8);        // Turn the pixel on 
....................    else                          // or 
....................       bit_clear(data, y%8);      // turn the pixel off 
....................  
....................    output_low(GLCD_DI);          // Set for instruction 
....................    glcd_writeByte(side, x);      // Set the horizontal address 
....................    output_high(GLCD_DI);         // Set for data 
....................    glcd_writeByte(side, data);   // Write the pixel data 
.................... } 
.................... #endif 
....................  
....................  
.................... // Purpose:    Fill the LCD screen with the passed in color 
.................... // Inputs:     ON  - turn all the pixels on 
.................... //             OFF - turn all the pixels off 
.................... void glcd_fillScreen(int1 color) 
.................... #ifdef FAST_GLCD 
.................... { 
....................    int8  data; 
....................    int8  *p1, *p2; 
....................    int16 i; 
....................  
....................    p1 = displayData.left; 
*
01444:  MOVLB  5
01446:  CLRF   xD3
01448:  MOVLW  17
0144A:  MOVWF  xD2
....................    p2 = displayData.right; 
0144C:  MOVLW  02
0144E:  MOVWF  xD5
01450:  MOVLW  17
01452:  MOVWF  xD4
....................    data = 0xFF * color; 
01454:  MOVF   xD0,W
01456:  MULLW  FF
01458:  MOVFF  FF3,5D1
....................  
....................    for(i=0; i<512; ++i) 
0145C:  CLRF   xD7
0145E:  CLRF   xD6
01460:  MOVF   xD7,W
01462:  SUBLW  01
01464:  BNC   149A
....................    { 
....................       *p1++ = data; 
01466:  MOVFF  5D3,03
0146A:  MOVF   xD2,W
0146C:  INCF   xD2,F
0146E:  BTFSC  FD8.2
01470:  INCF   xD3,F
01472:  MOVWF  FE9
01474:  MOVFF  03,FEA
01478:  MOVFF  5D1,FEF
....................       *p2++ = data; 
0147C:  MOVFF  5D5,03
01480:  MOVF   xD4,W
01482:  INCF   xD4,F
01484:  BTFSC  FD8.2
01486:  INCF   xD5,F
01488:  MOVWF  FE9
0148A:  MOVFF  03,FEA
0148E:  MOVFF  5D1,FEF
....................    } 
01492:  INCF   xD6,F
01494:  BTFSC  FD8.2
01496:  INCF   xD7,F
01498:  BRA    1460
.................... } 
0149A:  MOVLB  0
0149C:  RETLW  00
.................... #else 
.................... { 
....................    int8 i, j; 
....................  
....................    // Loop through the vertical pages 
....................    for(i = 0; i < 8; ++i) 
....................    { 
....................       output_low(GLCD_DI);                      // Set for instruction 
....................       glcd_writeByte(GLCD_LEFT, 0b01000000);    // Set horizontal address to 0 
....................       glcd_writeByte(GLCD_RIGHT, 0b01000000); 
....................       glcd_writeByte(GLCD_LEFT, i | 0b10111000);// Set page address 
....................       glcd_writeByte(GLCD_RIGHT, i | 0b10111000); 
....................       output_high(GLCD_DI);                     // Set for data 
....................  
....................       // Loop through the horizontal sections 
....................       for(j = 0; j < 64; ++j) 
....................       { 
....................          glcd_writeByte(GLCD_LEFT, 0xFF*color);  // Turn pixels on or off 
....................          glcd_writeByte(GLCD_RIGHT, 0xFF*color); // Turn pixels on or off 
....................       } 
....................    } 
.................... } 
.................... #endif 
....................  
....................  
.................... // Purpose:    Write a byte of data to the specified chip 
.................... // Inputs:     1) chipSelect - which chip to write the data to 
.................... //             2) data - the byte of data to write 
.................... void glcd_writeByte(int1 side, BYTE data) 
.................... { 
....................    if(side)                   // Choose which side to write to 
*
0140E:  MOVLB  5
01410:  MOVF   xD7,F
01412:  BZ    141A
....................       output_high(GLCD_CS2); 
01414:  BCF    F93.3
01416:  BSF    F8A.3
....................    else 
01418:  BRA    141E
....................       output_high(GLCD_CS1); 
0141A:  BCF    F93.2
0141C:  BSF    F8A.2
....................  
....................    output_low(GLCD_RW);       // Set for writing 
0141E:  BCF    F93.6
01420:  BCF    F8A.6
....................    output_d(data);            // Put the data on the port 
01422:  CLRF   F95
01424:  MOVFF  5D8,F8C
....................    delay_cycles(1); 
01428:  NOP   
....................    output_high(GLCD_E);       // Pulse the enable pin 
0142A:  BCF    F93.7
0142C:  BSF    F8A.7
....................    delay_cycles(5); 
0142E:  BRA    1430
01430:  BRA    1432
01432:  NOP   
....................    output_low(GLCD_E); 
01434:  BCF    F93.7
01436:  BCF    F8A.7
....................  
....................    output_low(GLCD_CS1);      // Reset the chip select lines 
01438:  BCF    F93.2
0143A:  BCF    F8A.2
....................    output_low(GLCD_CS2); 
0143C:  BCF    F93.3
0143E:  BCF    F8A.3
.................... } 
01440:  MOVLB  0
01442:  RETLW  00
....................  
....................  
.................... // Purpose:    Reads a byte of data from the specified chip 
.................... // Ouputs:     A byte of data read from the chip 
.................... BYTE glcd_readByte(int1 side) 
.................... { 
....................    BYTE data;                 // Stores the data read from the LCD 
....................  
....................    set_tris_d(0xFF);          // Set port d to input 
....................    output_high(GLCD_RW);      // Set for reading 
....................  
....................    if(side)                   // Choose which side to write to 
....................       output_high(GLCD_CS2); 
....................    else 
....................       output_high(GLCD_CS1); 
....................  
....................    delay_cycles(1); 
....................    output_high(GLCD_E);       // Pulse the enable pin 
....................    delay_cycles(4); 
....................    data = input_d();          // Get the data from the display's output register 
....................    output_low(GLCD_E); 
....................  
....................    output_low(GLCD_CS1);      // Reset the chip select lines 
....................    output_low(GLCD_CS2); 
....................    return data;               // Return the read data 
.................... } 
....................  
.................... #endif 
....................  
.................... #include "GRAPHICS.c" 
.................... ///////////////////////////////////////////////////////////////////////// 
.................... ////                          graphics.c                             //// 
.................... ////                                                                 //// 
.................... ////   This file contains functions to draw lines, rectangles, bars, //// 
.................... ////   circles and text to a display. A function which draws a       //// 
.................... ////   single pixel must be defined before calling the functions in  //// 
.................... ////   this file. Call it glcd_pixel(x, y, color) where x is the     //// 
.................... ////   horizontal coordinate, y is the vertical coordinate, and      //// 
.................... ////   color is 1 bit to turn the pixel on or off.                   //// 
.................... ////                                                                 //// 
.................... ////   * Note: (0, 0) is treated as the upper left corner            //// 
.................... ////                                                                 //// 
.................... ///////////////////////////////////////////////////////////////////////// 
.................... ////                                                                 //// 
.................... ////  glcd_line(x1, y1, x2, y2, color)                               //// 
.................... ////     * Draws a line from the first point to the second point     //// 
.................... ////       with the given color                                      //// 
.................... ////       - color can be ON or OFF                                  //// 
.................... ////                                                                 //// 
.................... ////  glcd_rect(x1, y1, x2, y2, fill, color)                         //// 
.................... ////     * Draws a rectangle with one corner at point (x1,y1) and    //// 
.................... ////       the other corner at point (x2,y2)                         //// 
.................... ////       - fill can be YES or NO                                   //// 
.................... ////       - color can be ON or OFF                                  //// 
.................... ////                                                                 //// 
.................... ////  glcd_bar(x1, y1, x2, y2, width, color)                         //// 
.................... ////     * Draws a bar (wide line) from the first point to the       //// 
.................... ////       second point                                              //// 
.................... ////       - width is the number of pixels wide                      //// 
.................... ////       - color is ON or OFF                                      //// 
.................... ////                                                                 //// 
.................... ////  glcd_circle(x, y, radius, fill, color)                         //// 
.................... ////     * Draws a circle with center at (x,y)                       //// 
.................... ////       - fill can be YES or NO                                   //// 
.................... ////       - color can be ON or OFF                                  //// 
.................... ////                                                                 //// 
.................... ////  glcd_text57(x, y, textptr, size, color)                        //// 
.................... ////     * Write the null terminated text pointed to by textptr with //// 
.................... ////       the upper left coordinate of the first character at (x,y) //// 
.................... ////       Characters are 5 pixels wide and 7 pixels tall            //// 
.................... ////       - size is an integer that scales the size of the text     //// 
.................... ////       - color is ON or OFF                                      //// 
.................... ////     * Note - This function wraps characters to the next line    //// 
.................... ////              use #define GLCD_WIDTH to specify a display width  //// 
.................... ////                                                                 //// 
.................... ///////////////////////////////////////////////////////////////////////// 
.................... ////        (C) Copyright 1996, 2004 Custom Computer Services        //// 
.................... //// This source code may only be used by licensed users of the CCS  //// 
.................... //// C compiler.  This source code may only be distributed to other  //// 
.................... //// licensed users of the CCS C compiler.  No other use,            //// 
.................... //// reproduction or distribution is permitted without written       //// 
.................... //// permission.  Derivative programs created using this software    //// 
.................... //// in object code form are not restricted in any way.              //// 
.................... ///////////////////////////////////////////////////////////////////////// 
....................  
....................  
.................... ///////////////////////////////////////////////////////////////////////// 
.................... #ifndef GRAPHICS_DRAWING_FUNCTIONS 
.................... #define GRAPHICS_DRAWING_FUNCTIONS 
.................... ///////////////////////////////////////////////////////////////////////// 
....................  
....................  
.................... ///////////////////////////////////////////////////////////////////////// 
.................... #ifndef ON 
.................... #define ON  1 
.................... #endif 
....................  
.................... #ifndef OFF 
.................... #define OFF 0 
.................... #endif 
....................  
.................... #ifndef YES 
.................... #define YES 1 
.................... #endif 
....................  
.................... #ifndef NO 
.................... #define NO  0 
.................... #endif 
.................... ///////////////////////////////////////////////////////////////////////// 
....................  
....................  
.................... ///////////////////////////////////////////////////////////////////////// 
.................... //// Defines a 5x7 font 
.................... ///////////////////////////////////////////////////////////////////////// 
.................... const int8 FONT[51][5] ={0x00, 0x00, 0x00, 0x00, 0x00, // SPACE 
....................                          0x00, 0x00, 0x5F, 0x00, 0x00, // ! 
....................                          0x00, 0x03, 0x00, 0x03, 0x00, // " 
....................                          0x14, 0x3E, 0x14, 0x3E, 0x14, // # 
....................                          0x24, 0x2A, 0x7F, 0x2A, 0x12, // $ 
....................                          0x43, 0x33, 0x08, 0x66, 0x61, // % 
....................                          0x36, 0x49, 0x55, 0x22, 0x50, // & 
....................                          0x00, 0x05, 0x03, 0x00, 0x00, // ' 
....................                          0x00, 0x1C, 0x22, 0x41, 0x00, // ( 
....................                          0x00, 0x41, 0x22, 0x1C, 0x00, // ) 
....................                          0x14, 0x08, 0x3E, 0x08, 0x14, // * 
....................                          0x08, 0x08, 0x3E, 0x08, 0x08, // + 
....................                          0x00, 0x50, 0x30, 0x00, 0x00, // , 
....................                          0x08, 0x08, 0x08, 0x08, 0x08, // - 
....................                          0x00, 0x60, 0x60, 0x00, 0x00, // . 
....................                          0x20, 0x10, 0x08, 0x04, 0x02, // / 
....................                          0x3E, 0x51, 0x49, 0x45, 0x3E, // 0 
....................                          0x00, 0x04, 0x02, 0x7F, 0x00, // 1 
....................                          0x42, 0x61, 0x51, 0x49, 0x46, // 2 
....................                          0x22, 0x41, 0x49, 0x49, 0x36, // 3 
....................                          0x18, 0x14, 0x12, 0x7F, 0x10, // 4 
....................                          0x27, 0x45, 0x45, 0x45, 0x39, // 5 
....................                          0x3E, 0x49, 0x49, 0x49, 0x32, // 6 
....................                          0x01, 0x01, 0x71, 0x09, 0x07, // 7 
....................                          0x36, 0x49, 0x49, 0x49, 0x36, // 8 
....................                          0x26, 0x49, 0x49, 0x49, 0x3E, // 9 
....................                          0x00, 0x36, 0x36, 0x00, 0x00, // : 
....................                          0x00, 0x56, 0x36, 0x00, 0x00, // ; 
....................                          0x08, 0x14, 0x22, 0x41, 0x00, // < 
....................                          0x14, 0x14, 0x14, 0x14, 0x14, // = 
....................                          0x00, 0x41, 0x22, 0x14, 0x08, // > 
....................                          0x02, 0x01, 0x51, 0x09, 0x06, // ? 
....................                          0x3E, 0x41, 0x59, 0x55, 0x5E, // @ 
....................                          0x7E, 0x09, 0x09, 0x09, 0x7E, // A 
....................                          0x7F, 0x49, 0x49, 0x49, 0x36, // B 
....................                          0x3E, 0x41, 0x41, 0x41, 0x22, // C 
....................                          0x7F, 0x41, 0x41, 0x41, 0x3E, // D 
....................                          0x7F, 0x49, 0x49, 0x49, 0x41, // E 
....................                          0x7F, 0x09, 0x09, 0x09, 0x01, // F 
....................                          0x3E, 0x41, 0x41, 0x49, 0x3A, // G 
....................                          0x7F, 0x08, 0x08, 0x08, 0x7F, // H 
....................                          0x00, 0x41, 0x7F, 0x41, 0x00, // I 
....................                          0x30, 0x40, 0x40, 0x40, 0x3F, // J 
....................                          0x7F, 0x08, 0x14, 0x22, 0x41, // K 
....................                          0x7F, 0x40, 0x40, 0x40, 0x40, // L 
....................                          0x7F, 0x02, 0x0C, 0x02, 0x7F, // M 
....................                          0x7F, 0x02, 0x04, 0x08, 0x7F, // N 
....................                          0x3E, 0x41, 0x41, 0x41, 0x3E, // O 
....................                          0x7F, 0x09, 0x09, 0x09, 0x06, // P 
....................                          0x1E, 0x21, 0x21, 0x21, 0x5E, // Q 
....................                          0x7F, 0x09, 0x09, 0x09, 0x76};// R 
....................  
.................... const int8 FONT2[44][5]={0x26, 0x49, 0x49, 0x49, 0x32, // S 
....................                          0x01, 0x01, 0x7F, 0x01, 0x01, // T 
....................                          0x3F, 0x40, 0x40, 0x40, 0x3F, // U 
....................                          0x1F, 0x20, 0x40, 0x20, 0x1F, // V 
....................                          0x7F, 0x20, 0x10, 0x20, 0x7F, // W 
....................                          0x41, 0x22, 0x1C, 0x22, 0x41, // X 
....................                          0x07, 0x08, 0x70, 0x08, 0x07, // Y 
....................                          0x61, 0x51, 0x49, 0x45, 0x43, // Z 
....................                          0x00, 0x7F, 0x41, 0x00, 0x00, // [ 
....................                          0x02, 0x04, 0x08, 0x10, 0x20, // \ 
....................                          0x00, 0x00, 0x41, 0x7F, 0x00, // ] 
....................                          0x04, 0x02, 0x01, 0x02, 0x04, // ^ 
....................                          0x40, 0x40, 0x40, 0x40, 0x40, // _ 
....................                          0x00, 0x01, 0x02, 0x04, 0x00, // ` 
....................                          0x20, 0x54, 0x54, 0x54, 0x78, // a 
....................                          0x7F, 0x44, 0x44, 0x44, 0x38, // b 
....................                          0x38, 0x44, 0x44, 0x44, 0x44, // c 
....................                          0x38, 0x44, 0x44, 0x44, 0x7F, // d 
....................                          0x38, 0x54, 0x54, 0x54, 0x18, // e 
....................                          0x04, 0x04, 0x7E, 0x05, 0x05, // f 
....................                          0x08, 0x54, 0x54, 0x54, 0x3C, // g 
....................                          0x7F, 0x08, 0x04, 0x04, 0x78, // h 
....................                          0x00, 0x44, 0x7D, 0x40, 0x00, // i 
....................                          0x20, 0x40, 0x44, 0x3D, 0x00, // j 
....................                          0x7F, 0x10, 0x28, 0x44, 0x00, // k 
....................                          0x00, 0x41, 0x7F, 0x40, 0x00, // l 
....................                          0x7C, 0x04, 0x78, 0x04, 0x78, // m 
....................                          0x7C, 0x08, 0x04, 0x04, 0x78, // n 
....................                          0x38, 0x44, 0x44, 0x44, 0x38, // o 
....................                          0x7C, 0x14, 0x14, 0x14, 0x08, // p 
....................                          0x08, 0x14, 0x14, 0x14, 0x7C, // q 
....................                          0x00, 0x7C, 0x08, 0x04, 0x04, // r 
....................                          0x48, 0x54, 0x54, 0x54, 0x20, // s 
....................                          0x04, 0x04, 0x3F, 0x44, 0x44, // t 
....................                          0x3C, 0x40, 0x40, 0x20, 0x7C, // u 
....................                          0x1C, 0x20, 0x40, 0x20, 0x1C, // v 
....................                          0x3C, 0x40, 0x30, 0x40, 0x3C, // w 
....................                          0x44, 0x28, 0x10, 0x28, 0x44, // x 
....................                          0x0C, 0x50, 0x50, 0x50, 0x3C, // y 
....................                          0x44, 0x64, 0x54, 0x4C, 0x44, // z 
....................                          0x00, 0x08, 0x36, 0x41, 0x41, // { 
....................                          0x00, 0x00, 0x7F, 0x00, 0x00, // | 
....................                          0x41, 0x41, 0x36, 0x08, 0x00, // } 
....................                          0x02, 0x01, 0x02, 0x04, 0x02};// ~ 
.................... ///////////////////////////////////////////////////////////////////////// 
....................  
....................  
.................... ///////////////////////////////////////////////////////////////////////// 
.................... // Purpose:       Draw a line on a graphic LCD using Bresenham's 
.................... //                line drawing algorithm 
.................... // Inputs:        (x1, y1) - the start coordinate 
.................... //                (x2, y2) - the end coordinate 
.................... //                color - ON or OFF 
.................... // Dependencies:  glcd_pixel() 
.................... ///////////////////////////////////////////////////////////////////////// 
.................... #ifdef LARGE_LCD 
.................... void glcd_line(int16 x1, int16 y1, int16 x2, int16 y2, int1 color) 
.................... #else 
.................... void glcd_line(int8 x1, int8 y1, int8 x2, int8 y2, int1 color) 
.................... #endif 
.................... { 
*
048AA:  MOVLW  01
048AC:  MOVLB  5
048AE:  MOVWF  xF5
048B0:  MOVWF  xF6
048B2:  CLRF   xFB
....................    int16        dy, dx; 
....................    signed int8  addx=1, addy=1; 
....................    signed int16 P, diff; 
....................  
....................    #ifdef LARGE_LCD 
....................    int16 i=0; 
....................    dx = abs((signed int16)(x2 - x1)); 
....................    dy = abs((signed int16)(y2 - y1)); 
....................    #else 
....................    int8 i=0; 
....................    dx = abs((signed int8)(x2 - x1)); 
048B4:  MOVF   xEC,W
048B6:  SUBWF  xEE,W
048B8:  MOVWF  xFC
048BA:  MOVF   xFC,W
048BC:  BTFSS  xFC.7
048BE:  BRA    48C6
048C0:  MOVLW  00
048C2:  BSF    FD8.0
048C4:  SUBFWB xFC,W
048C6:  CLRF   03
048C8:  MOVWF  xF3
048CA:  MOVFF  03,5F4
....................    dy = abs((signed int8)(y2 - y1)); 
048CE:  MOVF   xED,W
048D0:  SUBWF  xEF,W
048D2:  MOVWF  xFC
048D4:  MOVF   xFC,W
048D6:  BTFSS  xFC.7
048D8:  BRA    48E0
048DA:  MOVLW  00
048DC:  BSF    FD8.0
048DE:  SUBFWB xFC,W
048E0:  CLRF   03
048E2:  MOVWF  xF1
048E4:  MOVFF  03,5F2
....................    #endif 
....................  
....................    if(x1 > x2) 
048E8:  MOVF   xEC,W
048EA:  SUBWF  xEE,W
048EC:  BC    48F2
....................       addx = -1; 
048EE:  MOVLW  FF
048F0:  MOVWF  xF5
....................    if(y1 > y2) 
048F2:  MOVF   xED,W
048F4:  SUBWF  xEF,W
048F6:  BC    48FC
....................       addy = -1; 
048F8:  MOVLW  FF
048FA:  MOVWF  xF6
....................  
....................    if(dx >= dy) 
048FC:  MOVF   xF2,W
048FE:  SUBWF  xF4,W
04900:  BNC   497A
04902:  BNZ   490A
04904:  MOVF   xF1,W
04906:  SUBWF  xF3,W
04908:  BNC   497A
....................    { 
....................       dy *= 2; 
0490A:  BCF    FD8.0
0490C:  RLCF   xF1,F
0490E:  RLCF   xF2,F
....................       P = dy - dx; 
04910:  MOVF   xF3,W
04912:  SUBWF  xF1,W
04914:  MOVWF  00
04916:  MOVF   xF4,W
04918:  SUBWFB xF2,W
0491A:  MOVFF  00,5F7
0491E:  MOVWF  xF8
....................       diff = P - dx; 
04920:  MOVF   xF3,W
04922:  SUBWF  xF7,W
04924:  MOVWF  xF9
04926:  MOVF   xF4,W
04928:  SUBWFB xF8,W
0492A:  MOVWF  xFA
....................  
....................       for(; i<=dx; ++i) 
0492C:  MOVF   xF4,F
0492E:  BNZ   4936
04930:  MOVF   xFB,W
04932:  SUBWF  xF3,W
04934:  BNC   4978
....................       { 
....................          glcd_pixel(x1, y1, color); 
04936:  MOVFF  5EC,5FC
0493A:  MOVFF  5ED,5FD
0493E:  MOVFF  5F0,5FE
04942:  MOVLB  0
04944:  CALL   15FE
....................  
....................          if(P < 0) 
04948:  MOVLB  5
0494A:  BTFSC  xF8.7
0494C:  BRA    4950
0494E:  BRA    4960
....................          { 
....................             P  += dy; 
04950:  MOVF   xF1,W
04952:  ADDWF  xF7,F
04954:  MOVF   xF2,W
04956:  ADDWFC xF8,F
....................             x1 += addx; 
04958:  MOVF   xF5,W
0495A:  ADDWF  xEC,W
0495C:  MOVWF  xEC
....................          } 
....................          else 
0495E:  BRA    4974
....................          { 
....................             P  += diff; 
04960:  MOVF   xF9,W
04962:  ADDWF  xF7,F
04964:  MOVF   xFA,W
04966:  ADDWFC xF8,F
....................             x1 += addx; 
04968:  MOVF   xF5,W
0496A:  ADDWF  xEC,W
0496C:  MOVWF  xEC
....................             y1 += addy; 
0496E:  MOVF   xF6,W
04970:  ADDWF  xED,W
04972:  MOVWF  xED
....................          } 
....................       } 
04974:  INCF   xFB,F
04976:  BRA    492C
....................    } 
....................    else 
04978:  BRA    49E8
....................    { 
....................       dx *= 2; 
0497A:  BCF    FD8.0
0497C:  RLCF   xF3,F
0497E:  RLCF   xF4,F
....................       P = dx - dy; 
04980:  MOVF   xF1,W
04982:  SUBWF  xF3,W
04984:  MOVWF  00
04986:  MOVF   xF2,W
04988:  SUBWFB xF4,W
0498A:  MOVFF  00,5F7
0498E:  MOVWF  xF8
....................       diff = P - dy; 
04990:  MOVF   xF1,W
04992:  SUBWF  xF7,W
04994:  MOVWF  xF9
04996:  MOVF   xF2,W
04998:  SUBWFB xF8,W
0499A:  MOVWF  xFA
....................  
....................       for(; i<=dy; ++i) 
0499C:  MOVF   xF2,F
0499E:  BNZ   49A6
049A0:  MOVF   xFB,W
049A2:  SUBWF  xF1,W
049A4:  BNC   49E8
....................       { 
....................          glcd_pixel(x1, y1, color); 
049A6:  MOVFF  5EC,5FC
049AA:  MOVFF  5ED,5FD
049AE:  MOVFF  5F0,5FE
049B2:  MOVLB  0
049B4:  CALL   15FE
....................  
....................          if(P < 0) 
049B8:  MOVLB  5
049BA:  BTFSC  xF8.7
049BC:  BRA    49C0
049BE:  BRA    49D0
....................          { 
....................             P  += dx; 
049C0:  MOVF   xF3,W
049C2:  ADDWF  xF7,F
049C4:  MOVF   xF4,W
049C6:  ADDWFC xF8,F
....................             y1 += addy; 
049C8:  MOVF   xF6,W
049CA:  ADDWF  xED,W
049CC:  MOVWF  xED
....................          } 
....................          else 
049CE:  BRA    49E4
....................          { 
....................             P  += diff; 
049D0:  MOVF   xF9,W
049D2:  ADDWF  xF7,F
049D4:  MOVF   xFA,W
049D6:  ADDWFC xF8,F
....................             x1 += addx; 
049D8:  MOVF   xF5,W
049DA:  ADDWF  xEC,W
049DC:  MOVWF  xEC
....................             y1 += addy; 
049DE:  MOVF   xF6,W
049E0:  ADDWF  xED,W
049E2:  MOVWF  xED
....................          } 
....................       } 
049E4:  INCF   xFB,F
049E6:  BRA    499C
....................    } 
.................... } 
049E8:  MOVLB  0
049EA:  RETLW  00
....................  
....................  
.................... ///////////////////////////////////////////////////////////////////////// 
.................... // Purpose:       Draw a rectangle on a graphic LCD 
.................... // Inputs:        (x1, y1) - the start coordinate 
.................... //                (x2, y2) - the end coordinate 
.................... //                fill  - YES or NO 
.................... //                color - ON or OFF 
.................... // Dependencies:  glcd_pixel(), glcd_line() 
.................... ///////////////////////////////////////////////////////////////////////// 
.................... #ifdef LARGE_LCD 
.................... void glcd_rect(int16 x1, int16 y1, int16 x2, int16 y2, int1 fill, int1 color) 
.................... #else 
.................... void glcd_rect(int8 x1, int8 y1, int8 x2, int8 y2, int1 fill, int1 color) 
.................... #endif 
.................... { 
....................    if(fill) 
049EC:  MOVLB  5
049EE:  MOVF   xE5,F
049F0:  BZ    4A50
....................    { 
....................       #ifdef LARGE_LCD 
....................       int16 i, xmin, xmax, ymin, ymax; 
....................       #else 
....................       int8  i, xmin, xmax, ymin, ymax; 
....................       #endif 
....................  
....................       if(x1 < x2)                            //  Find x min and max 
049F2:  MOVF   xE3,W
049F4:  SUBWF  xE1,W
049F6:  BC    4A02
....................       { 
....................          xmin = x1; 
049F8:  MOVFF  5E1,5E8
....................          xmax = x2; 
049FC:  MOVFF  5E3,5E9
....................       } 
....................       else 
04A00:  BRA    4A0A
....................       { 
....................          xmin = x2; 
04A02:  MOVFF  5E3,5E8
....................          xmax = x1; 
04A06:  MOVFF  5E1,5E9
....................       } 
....................  
....................       if(y1 < y2)                            // Find the y min and max 
04A0A:  MOVF   xE4,W
04A0C:  SUBWF  xE2,W
04A0E:  BC    4A1A
....................       { 
....................          ymin = y1; 
04A10:  MOVFF  5E2,5EA
....................          ymax = y2; 
04A14:  MOVFF  5E4,5EB
....................       } 
....................       else 
04A18:  BRA    4A22
....................       { 
....................          ymin = y2; 
04A1A:  MOVFF  5E4,5EA
....................          ymax = y1; 
04A1E:  MOVFF  5E2,5EB
....................       } 
....................  
....................       for(; xmin <= xmax; ++xmin) 
04A22:  MOVF   xE8,W
04A24:  SUBWF  xE9,W
04A26:  BNC   4A4E
....................       { 
....................          for(i=ymin; i<=ymax; ++i) 
04A28:  MOVFF  5EA,5E7
04A2C:  MOVF   xE7,W
04A2E:  SUBWF  xEB,W
04A30:  BNC   4A4A
....................          { 
....................             glcd_pixel(xmin, i, color); 
04A32:  MOVFF  5E8,5FC
04A36:  MOVFF  5E7,5FD
04A3A:  MOVFF  5E6,5FE
04A3E:  MOVLB  0
04A40:  CALL   15FE
....................          } 
04A44:  MOVLB  5
04A46:  INCF   xE7,F
04A48:  BRA    4A2C
....................       } 
04A4A:  INCF   xE8,F
04A4C:  BRA    4A22
....................    } 
....................    else 
04A4E:  BRA    4AAC
....................    { 
....................       glcd_line(x1, y1, x2, y1, color);      // Draw the 4 sides 
04A50:  MOVFF  5E1,5EC
04A54:  MOVFF  5E2,5ED
04A58:  MOVFF  5E3,5EE
04A5C:  MOVFF  5E2,5EF
04A60:  MOVFF  5E6,5F0
04A64:  MOVLB  0
04A66:  RCALL  48AA
....................       glcd_line(x1, y2, x2, y2, color); 
04A68:  MOVFF  5E1,5EC
04A6C:  MOVFF  5E4,5ED
04A70:  MOVFF  5E3,5EE
04A74:  MOVFF  5E4,5EF
04A78:  MOVFF  5E6,5F0
04A7C:  RCALL  48AA
....................       glcd_line(x1, y1, x1, y2, color); 
04A7E:  MOVFF  5E1,5EC
04A82:  MOVFF  5E2,5ED
04A86:  MOVFF  5E1,5EE
04A8A:  MOVFF  5E4,5EF
04A8E:  MOVFF  5E6,5F0
04A92:  RCALL  48AA
....................       glcd_line(x2, y1, x2, y2, color); 
04A94:  MOVFF  5E3,5EC
04A98:  MOVFF  5E2,5ED
04A9C:  MOVFF  5E3,5EE
04AA0:  MOVFF  5E4,5EF
04AA4:  MOVFF  5E6,5F0
04AA8:  RCALL  48AA
04AAA:  MOVLB  5
....................    } 
.................... } 
04AAC:  MOVLB  0
04AAE:  RETLW  00
....................  
.................... ///////////////////////////////////////////////////////////////////////// 
.................... // Purpose:       Draw a bar (wide line) on a graphic LCD 
.................... // Inputs:        (x1, y1) - the start coordinate 
.................... //                (x2, y2) - the end coordinate 
.................... //                width  - The number of pixels wide 
.................... //                color - ON or OFF 
.................... ///////////////////////////////////////////////////////////////////////// 
.................... #ifdef LARGE_LCD 
.................... void glcd_bar(int16 x1, int16 y1, int16 x2, int16 y2, int8 width, int1 color) 
.................... #else 
.................... void glcd_bar(int8 x1, int8 y1, int8 x2, int8 y2, int8 width, int1 color) 
.................... #endif 
.................... { 
....................    int8         half_width; 
....................    signed int16 dy, dx; 
....................    signed int8  addx=1, addy=1, j; 
....................    signed int16 P, diff, c1, c2; 
....................  
....................    #ifdef LARGE_LCD 
....................    int16 i=0; 
....................    dx = abs((signed int16)(x2 - x1)); 
....................    dy = abs((signed int16)(y2 - y1)); 
....................    #else 
....................    int8 i=0; 
....................    dx = abs((signed int8)(x2 - x1)); 
....................    dy = abs((signed int8)(y2 - y1)); 
....................    #endif 
....................  
....................    half_width = width/2; 
....................    c1 = -(dx*x1 + dy*y1); 
....................    c2 = -(dx*x2 + dy*y2); 
....................  
....................    if(x1 > x2) 
....................    { 
....................       signed int16 temp; 
....................       temp = c1; 
....................       c1 = c2; 
....................       c2 = temp; 
....................       addx = -1; 
....................    } 
....................    if(y1 > y2) 
....................    { 
....................       signed int16 temp; 
....................       temp = c1; 
....................       c1 = c2; 
....................       c2 = temp; 
....................       addy = -1; 
....................    } 
....................  
....................    if(dx >= dy) 
....................    { 
....................       P = 2*dy - dx; 
....................       diff = P - dx; 
....................  
....................       for(i=0; i<=dx; ++i) 
....................       { 
....................          for(j=-half_width; j<half_width+width%2; ++j) 
....................          { 
....................             #ifdef LARGE_LCD 
....................             int16 temp; 
....................             #else 
....................             int8 temp; 
....................             #endif 
....................  
....................             temp = dx*x1+dy*(y1+j);    // Use more RAM to increase speed 
....................             if(temp+c1 >= 0 && temp+c2 <=0) 
....................                glcd_pixel(x1, y1+j, color); 
....................          } 
....................          if(P < 0) 
....................          { 
....................             P  += 2*dy; 
....................             x1 += addx; 
....................          } 
....................          else 
....................          { 
....................             P  += diff; 
....................             x1 += addx; 
....................             y1 += addy; 
....................          } 
....................       } 
....................    } 
....................    else 
....................    { 
....................       P = 2*dx - dy; 
....................       diff = P - dy; 
....................  
....................       for(i=0; i<=dy; ++i) 
....................       { 
....................          if(P < 0) 
....................          { 
....................             P  += 2*dx; 
....................             y1 += addy; 
....................          } 
....................          else 
....................          { 
....................             P  += diff; 
....................             x1 += addx; 
....................             y1 += addy; 
....................          } 
....................          for(j=-half_width; j<half_width+width%2; ++j) 
....................          { 
....................             #ifdef LARGE_LCD 
....................             int16 temp; 
....................             #else 
....................             int8 temp; 
....................             #endif 
....................  
....................             temp = dx*x1+dy*(y1+j);    // Use more RAM to increase speed 
....................             if(temp+c1 >= 0 && temp+c2 <=0) 
....................                glcd_pixel(x1+j, y1, color); 
....................          } 
....................       } 
....................    } 
.................... } 
....................  
....................  
.................... ///////////////////////////////////////////////////////////////////////// 
.................... // Purpose:       Draw a circle on a graphic LCD 
.................... // Inputs:        (x,y) - the center of the circle 
.................... //                radius - the radius of the circle 
.................... //                fill - YES or NO 
.................... //                color - ON or OFF 
.................... ///////////////////////////////////////////////////////////////////////// 
.................... #ifdef LARGE_LCD 
.................... void glcd_circle(int16 x, int16 y, int16 radius, int1 fill, int1 color) 
.................... #else 
.................... void glcd_circle(int8 x, int8 y, int8 radius, int1 fill, int1 color) 
.................... #endif 
.................... { 
....................    #ifdef LARGE_LCD 
....................    signed int16 a, b, P; 
....................    #else 
....................    signed int8  a, b, P; 
....................    #endif 
....................  
....................    a = 0; 
....................    b = radius; 
....................    P = 1 - radius; 
....................  
....................    do 
....................    { 
....................       if(fill) 
....................       { 
....................          glcd_line(x-a, y+b, x+a, y+b, color); 
....................          glcd_line(x-a, y-b, x+a, y-b, color); 
....................          glcd_line(x-b, y+a, x+b, y+a, color); 
....................          glcd_line(x-b, y-a, x+b, y-a, color); 
....................       } 
....................       else 
....................       { 
....................          glcd_pixel(a+x, b+y, color); 
....................          glcd_pixel(b+x, a+y, color); 
....................          glcd_pixel(x-a, b+y, color); 
....................          glcd_pixel(x-b, a+y, color); 
....................          glcd_pixel(b+x, y-a, color); 
....................          glcd_pixel(a+x, y-b, color); 
....................          glcd_pixel(x-a, y-b, color); 
....................          glcd_pixel(x-b, y-a, color); 
....................       } 
....................  
....................       if(P < 0) 
....................          P += 3 + 2 * a++; 
....................       else 
....................          P += 5 + 2 * (a++ - b--); 
....................     } while(a <= b); 
.................... } 
....................  
....................  
.................... ///////////////////////////////////////////////////////////////////////// 
.................... // Purpose:       Write text on a graphic LCD 
.................... // Inputs:        (x,y) - The upper left coordinate of the first letter 
.................... //                textptr - A pointer to an array of text to display 
.................... //                size - The size of the text: 1 = 5x7, 2 = 10x14, ... 
.................... //                color - ON or OFF 
.................... ///////////////////////////////////////////////////////////////////////// 
.................... #ifdef LARGE_LCD 
.................... void glcd_text57(int16 x, int16 y, char* textptr, int8 size, int1 color) 
.................... #else 
.................... void glcd_text57(int8 x, int8 y, char* textptr, int8 size, int1 color) 
.................... #endif 
.................... { 
....................    int8 j, k, l, m;                       // Loop counters 
....................    int8 pixelData[5];                     // Stores character data 
....................  
....................    for(; *textptr != '\0'; ++textptr, ++x)// Loop through the passed string 
*
016DA:  MOVFF  5E4,03
016DE:  MOVLB  5
016E0:  MOVFF  5E3,FE9
016E4:  MOVFF  5E4,FEA
016E8:  MOVF   FEF,F
016EA:  BTFSC  FD8.2
016EC:  BRA    188E
....................    { 
....................       if(*textptr < 'S') // Checks if the letter is in the first font array 
016EE:  MOVFF  5E4,03
016F2:  MOVFF  5E3,FE9
016F6:  MOVFF  5E4,FEA
016FA:  MOVF   FEF,W
016FC:  SUBLW  52
016FE:  BNC   174E
....................          memcpy(pixelData, FONT[*textptr - ' '], 5); 
01700:  MOVFF  5E4,03
01704:  MOVFF  5E3,FE9
01708:  MOVFF  5E4,FEA
0170C:  MOVLW  20
0170E:  SUBWF  FEF,W
01710:  MULLW  05
01712:  MOVF   FF3,W
01714:  CLRF   03
01716:  MOVWF  xF0
01718:  MOVLW  05
0171A:  MOVWF  FEA
0171C:  MOVLW  EB
0171E:  MOVWF  FE9
01720:  CLRF   xF4
01722:  MOVFF  5F0,5F3
01726:  MOVFF  FF2,5F1
0172A:  BCF    FF2.7
0172C:  MOVLW  05
0172E:  MOVWF  01
01730:  CLRF   FF7
01732:  MOVF   xF0,W
01734:  MOVLB  0
01736:  CALL   009E
0173A:  TBLRD*-
0173C:  TBLRD*+
0173E:  MOVFF  FF5,FEE
01742:  DECFSZ 01,F
01744:  BRA    173C
01746:  MOVLB  5
01748:  BTFSC  xF1.7
0174A:  BSF    FF2.7
....................       else if(*textptr <= '~') // Check if the letter is in the second font array 
0174C:  BRA    17B8
0174E:  MOVFF  5E4,03
01752:  MOVFF  5E3,FE9
01756:  MOVFF  5E4,FEA
0175A:  MOVF   FEF,W
0175C:  SUBLW  7E
0175E:  BNC   17AE
....................          memcpy(pixelData, FONT2[*textptr - 'S'], 5); 
01760:  MOVFF  5E4,03
01764:  MOVFF  5E3,FE9
01768:  MOVFF  5E4,FEA
0176C:  MOVLW  53
0176E:  SUBWF  FEF,W
01770:  MULLW  05
01772:  MOVF   FF3,W
01774:  CLRF   03
01776:  MOVWF  xF0
01778:  MOVLW  05
0177A:  MOVWF  FEA
0177C:  MOVLW  EB
0177E:  MOVWF  FE9
01780:  CLRF   xF4
01782:  MOVFF  5F0,5F3
01786:  MOVFF  FF2,5F1
0178A:  BCF    FF2.7
0178C:  MOVLW  05
0178E:  MOVWF  01
01790:  CLRF   FF7
01792:  MOVF   xF0,W
01794:  MOVLB  0
01796:  CALL   01BC
0179A:  TBLRD*-
0179C:  TBLRD*+
0179E:  MOVFF  FF5,FEE
017A2:  DECFSZ 01,F
017A4:  BRA    179C
017A6:  MOVLB  5
017A8:  BTFSC  xF1.7
017AA:  BSF    FF2.7
....................       else 
017AC:  BRA    17B8
....................          memcpy(pixelData, FONT[0], 5);   // Default to space 
017AE:  CLRF   xEB
017B0:  CLRF   xEC
017B2:  CLRF   xED
017B4:  CLRF   xEE
017B6:  CLRF   xEF
....................  
....................       // Handles newline and carriage returns 
....................       switch(*textptr) 
....................       { 
017B8:  MOVFF  5E4,03
017BC:  MOVF   xE3,W
017BE:  MOVWF  FE9
017C0:  MOVFF  03,FEA
017C4:  MOVF   FEF,W
017C6:  XORLW  0A
017C8:  MOVLB  0
017CA:  BZ    17D2
017CC:  XORLW  07
017CE:  BZ    17E2
017D0:  BRA    17E8
....................          case '\n': 
....................             y += 7*size + 1; 
017D2:  MOVLB  5
017D4:  MOVF   xE5,W
017D6:  MULLW  07
017D8:  MOVF   FF3,W
017DA:  ADDLW  01
017DC:  ADDWF  xE2,F
....................             continue; 
017DE:  BRA    1880
017E0:  MOVLB  0
....................          case '\r': 
....................             x = 0; 
017E2:  MOVLB  5
017E4:  CLRF   xE1
....................             continue; 
017E6:  BRA    1880
....................       } 
....................  
....................       if(x+5*size >= GLCD_WIDTH)          // Performs character wrapping 
017E8:  MOVLB  5
017EA:  MOVF   xE5,W
017EC:  MULLW  05
017EE:  MOVF   FF3,W
017F0:  ADDWF  xE1,W
017F2:  SUBLW  7F
017F4:  BC    1802
....................       { 
....................          x = 0;                           // Set x at far left position 
017F6:  CLRF   xE1
....................          y += 7*size + 1;                 // Set y at next position down 
017F8:  MOVF   xE5,W
017FA:  MULLW  07
017FC:  MOVF   FF3,W
017FE:  ADDLW  01
01800:  ADDWF  xE2,F
....................       } 
....................       for(j=0; j<5; ++j, x+=size)         // Loop through character byte data 
01802:  CLRF   xE7
01804:  MOVF   xE7,W
01806:  SUBLW  04
01808:  BNC   1880
....................       { 
....................          for(k=0; k < 7; ++k)             // Loop through the vertical pixels 
0180A:  CLRF   xE8
0180C:  MOVF   xE8,W
0180E:  SUBLW  06
01810:  BNC   1878
....................          { 
....................             if(bit_test(pixelData[j], k)) // Check if the pixel should be set 
01812:  CLRF   03
01814:  MOVF   xE7,W
01816:  ADDLW  EB
01818:  MOVWF  FE9
0181A:  MOVLW  05
0181C:  ADDWFC 03,W
0181E:  MOVWF  FEA
01820:  MOVFF  FEF,5F0
01824:  MOVFF  5F0,00
01828:  MOVF   xE8,W
0182A:  MOVWF  01
0182C:  BZ    1836
0182E:  BCF    FD8.0
01830:  RRCF   00,F
01832:  DECFSZ 01,F
01834:  BRA    182E
01836:  BTFSS  00.0
01838:  BRA    1874
....................             { 
....................                for(l=0; l < size; ++l)    // These two loops change the 
0183A:  CLRF   xE9
0183C:  MOVF   xE5,W
0183E:  SUBWF  xE9,W
01840:  BC    1874
....................                {                          // character's size 
....................                   for(m=0; m < size; ++m) 
01842:  CLRF   xEA
01844:  MOVF   xE5,W
01846:  SUBWF  xEA,W
01848:  BC    1870
....................                   { 
....................                      glcd_pixel(x+m, y+k*size+l, color); // Draws the pixel 
0184A:  MOVF   xEA,W
0184C:  ADDWF  xE1,W
0184E:  MOVWF  xF0
01850:  MOVF   xE8,W
01852:  MULWF  xE5
01854:  MOVF   FF3,W
01856:  ADDWF  xE2,W
01858:  ADDWF  xE9,W
0185A:  MOVWF  xF1
0185C:  MOVFF  5F0,5FC
01860:  MOVWF  xFD
01862:  MOVFF  5E6,5FE
01866:  MOVLB  0
01868:  RCALL  15FE
....................                   } 
0186A:  MOVLB  5
0186C:  INCF   xEA,F
0186E:  BRA    1844
....................                } 
01870:  INCF   xE9,F
01872:  BRA    183C
....................             } 
....................          } 
01874:  INCF   xE8,F
01876:  BRA    180C
....................       } 
01878:  INCF   xE7,F
0187A:  MOVF   xE5,W
0187C:  ADDWF  xE1,F
0187E:  BRA    1804
....................    } 
01880:  INCF   xE3,F
01882:  BTFSC  FD8.2
01884:  INCF   xE4,F
01886:  INCF   xE1,F
01888:  MOVLB  0
0188A:  BRA    16DA
0188C:  MOVLB  5
.................... } 
0188E:  MOVLB  0
01890:  RETLW  00
....................  
.................... #endif 
....................  
.................... #include "imagen.h" 
.................... const int8 Bombillo [64][16] = { 
.................... 0x00, 0x00, 0x00, 0x00, 0x00, 0x00, 0x00, 0x00, 0x00, 0x00, 0x00, 0x00, 0x00, 0x00, 0x00, 0x00, 
.................... 0x00, 0x00, 0x00, 0x00, 0x00, 0x00, 0x00, 0x00, 0x00, 0x00, 0x00, 0x00, 0x00, 0x00, 0x00, 0x00, 
.................... 0x00, 0x00, 0x00, 0x00, 0x00, 0x00, 0x00, 0x00, 0x00, 0x00, 0x00, 0x00, 0x00, 0x00, 0x00, 0x00, 
.................... 0x00, 0x00, 0x00, 0x00, 0x00, 0x00, 0x00, 0x00, 0x00, 0x00, 0x00, 0x00, 0x00, 0x00, 0x00, 0x00, 
.................... 0x00, 0x00, 0x00, 0x00, 0x00, 0x00, 0x00, 0x00, 0x00, 0x00, 0x00, 0x00, 0x00, 0x00, 0x00, 0x00, 
.................... 0x00, 0x00, 0x00, 0x00, 0x00, 0x00, 0x00, 0x00, 0x00, 0x00, 0x00, 0x00, 0x00, 0x00, 0x00, 0x00, 
.................... 0x00, 0x00, 0x00, 0x00, 0x00, 0x00, 0x00, 0x00, 0x00, 0x00, 0x00, 0x00, 0x00, 0x00, 0x00, 0x00, 
.................... 0x00, 0x00, 0x00, 0x00, 0x00, 0x00, 0x00, 0x00, 0x00, 0x00, 0x00, 0x00, 0x00, 0x00, 0x00, 0x00, 
.................... 0x00, 0x00, 0x00, 0x00, 0x00, 0x00, 0x00, 0x00, 0x00, 0x00, 0x00, 0x00, 0x00, 0x00, 0x00, 0x00, 
.................... 0x00, 0x00, 0x00, 0x00, 0x00, 0x00, 0x00, 0x00, 0x00, 0x00, 0x00, 0x00, 0x00, 0x00, 0x00, 0x00, 
.................... 0x00, 0x00, 0x00, 0x00, 0x00, 0x00, 0x00, 0x00, 0x00, 0x00, 0x00, 0x00, 0x00, 0x00, 0x00, 0x00, 
.................... 0x00, 0x00, 0x00, 0x00, 0x00, 0x00, 0x00, 0x00, 0x00, 0x00, 0x00, 0x00, 0x00, 0x00, 0x00, 0x00, 
.................... 0x00, 0x00, 0x00, 0x00, 0x00, 0x00, 0x00, 0x00, 0x00, 0x00, 0x00, 0x00, 0x00, 0x00, 0x00, 0x00, 
.................... 0x00, 0x00, 0x00, 0x00, 0x00, 0x00, 0x00, 0x00, 0x00, 0x00, 0x00, 0x00, 0x00, 0x00, 0x00, 0x00, 
.................... 0x00, 0x00, 0x00, 0x00, 0x00, 0x00, 0x00, 0x00, 0x00, 0x00, 0x00, 0x00, 0x00, 0x00, 0x00, 0x00, 
.................... 0x00, 0x00, 0x00, 0x00, 0x00, 0x00, 0x00, 0x00, 0x00, 0x00, 0x00, 0x00, 0x00, 0x08, 0x00, 0x80, 
.................... 0x00, 0x00, 0x00, 0x00, 0x00, 0x00, 0x00, 0x00, 0x00, 0x00, 0x00, 0x00, 0x00, 0x04, 0x01, 0x00, 
.................... 0x00, 0x00, 0x00, 0x00, 0x00, 0x00, 0x00, 0x00, 0x00, 0x00, 0x00, 0x00, 0x00, 0x02, 0x02, 0x00, 
.................... 0x00, 0x00, 0x00, 0x00, 0x00, 0x00, 0x00, 0x00, 0x00, 0x00, 0x00, 0x00, 0x00, 0x00, 0x78, 0x00, 
.................... 0x00, 0x00, 0x00, 0x00, 0x00, 0x00, 0x00, 0x00, 0x00, 0x00, 0x00, 0x00, 0x00, 0x00, 0x84, 0x00, 
.................... 0x00, 0x00, 0x00, 0x00, 0x00, 0x00, 0x00, 0x00, 0x00, 0x00, 0x00, 0x00, 0x00, 0x01, 0x02, 0x00, 
.................... 0x00, 0x00, 0x00, 0x00, 0x00, 0x00, 0x00, 0x00, 0x00, 0x00, 0x00, 0x00, 0x00, 0xF9, 0x02, 0xF8, 
.................... 0x00, 0x00, 0x00, 0x00, 0x00, 0x00, 0x00, 0x00, 0x00, 0x00, 0x00, 0x00, 0x00, 0x01, 0x02, 0x00, 
.................... 0x00, 0x00, 0x00, 0x00, 0x00, 0x00, 0x00, 0x00, 0x00, 0x00, 0x00, 0x00, 0x00, 0x01, 0x02, 0x00, 
.................... 0x00, 0x00, 0x00, 0x00, 0x00, 0x00, 0x00, 0x00, 0x00, 0x00, 0x00, 0x00, 0x00, 0x04, 0x84, 0x80, 
.................... 0x00, 0x00, 0x00, 0x00, 0x00, 0x00, 0x00, 0x00, 0x00, 0x00, 0x00, 0x00, 0x00, 0x08, 0x78, 0x40, 
.................... 0x00, 0x00, 0x00, 0x00, 0x00, 0x00, 0x00, 0x00, 0x00, 0x00, 0x00, 0x00, 0x00, 0x10, 0x48, 0x20, 
.................... 0x00, 0x00, 0x00, 0x00, 0x00, 0x00, 0x00, 0x00, 0x00, 0x00, 0x00, 0x00, 0x00, 0x20, 0x48, 0x10, 
.................... 0x00, 0x00, 0x00, 0x00, 0x00, 0x00, 0x00, 0x00, 0x00, 0x00, 0x00, 0x00, 0x00, 0x00, 0x78, 0x00, 
.................... 0x00, 0x00, 0x00, 0x00, 0x00, 0x00, 0x00, 0x00, 0x00, 0x00, 0x00, 0x00, 0x00, 0x00, 0x00, 0x00, 
.................... 0x00, 0x00, 0x00, 0x00, 0x00, 0x00, 0x00, 0x00, 0x00, 0x00, 0x00, 0x00, 0x00, 0x00, 0x00, 0x00, 
.................... 0x00, 0x00, 0x00, 0x00, 0x00, 0x00, 0x00, 0x00, 0x00, 0x00, 0x00, 0x00, 0x00, 0x00, 0x00, 0x00, 
.................... 0x00, 0x00, 0x00, 0x00, 0x00, 0x00, 0x00, 0x00, 0x00, 0x00, 0x00, 0x00, 0x00, 0x00, 0x00, 0x00, 
.................... 0x00, 0x00, 0x00, 0x00, 0x00, 0x00, 0x00, 0x00, 0x00, 0x00, 0x00, 0x00, 0x00, 0x00, 0x00, 0x00, 
.................... 0x00, 0x00, 0x00, 0x00, 0x00, 0x00, 0x00, 0x00, 0x00, 0x00, 0x00, 0x00, 0x00, 0x00, 0x00, 0x00, 
.................... 0x00, 0x00, 0x00, 0x00, 0x00, 0x00, 0x00, 0x00, 0x00, 0x00, 0x00, 0x00, 0x00, 0x00, 0x00, 0x00, 
.................... 0x00, 0x00, 0x00, 0x00, 0x00, 0x00, 0x00, 0x00, 0x00, 0x00, 0x00, 0x00, 0x00, 0x00, 0x00, 0x00, 
.................... 0x00, 0x00, 0x00, 0x00, 0x00, 0x00, 0x00, 0x00, 0x00, 0x00, 0x00, 0x00, 0x00, 0x00, 0x00, 0x00, 
.................... 0x00, 0x00, 0x00, 0x00, 0x00, 0x00, 0x00, 0x00, 0x00, 0x00, 0x00, 0x00, 0x00, 0x00, 0x00, 0x00, 
.................... 0x00, 0x00, 0x00, 0x00, 0x00, 0x00, 0x00, 0x00, 0x00, 0x00, 0x00, 0x00, 0x00, 0x00, 0x00, 0x00, 
.................... 0x00, 0x00, 0x00, 0x00, 0x00, 0x00, 0x00, 0x00, 0x00, 0x00, 0x00, 0x00, 0x00, 0x00, 0x00, 0x00, 
.................... 0x00, 0x00, 0x00, 0x00, 0x00, 0x00, 0x00, 0x00, 0x00, 0x00, 0x00, 0x00, 0x00, 0x00, 0x00, 0x00, 
.................... 0x00, 0x00, 0x00, 0x00, 0x00, 0x00, 0x00, 0x00, 0x00, 0x00, 0x00, 0x00, 0x00, 0x00, 0x00, 0x00, 
.................... 0x00, 0x00, 0x00, 0x00, 0x00, 0x00, 0x00, 0x00, 0x00, 0x00, 0x00, 0x00, 0x00, 0x00, 0x00, 0x00, 
.................... 0x00, 0x00, 0x00, 0x00, 0x00, 0x00, 0x00, 0x00, 0x00, 0x00, 0x00, 0x00, 0x00, 0x00, 0x00, 0x00, 
.................... 0x00, 0x00, 0x00, 0x00, 0x00, 0x00, 0x00, 0x00, 0x00, 0x00, 0x00, 0x00, 0x00, 0x00, 0x00, 0x00, 
.................... 0x00, 0x00, 0x00, 0x00, 0x00, 0x00, 0x00, 0x00, 0x00, 0x00, 0x00, 0x00, 0x00, 0x00, 0x00, 0x00, 
.................... 0x00, 0x00, 0x00, 0x00, 0x00, 0x00, 0x00, 0x00, 0x00, 0x00, 0x00, 0x00, 0x00, 0x00, 0x00, 0x00, 
.................... 0x00, 0x00, 0x00, 0x00, 0x00, 0x00, 0x00, 0x00, 0x00, 0x00, 0x00, 0x00, 0x00, 0x00, 0x00, 0x00, 
.................... 0x00, 0x00, 0x00, 0x00, 0x00, 0x00, 0x00, 0x00, 0x00, 0x00, 0x00, 0x00, 0x00, 0x00, 0x00, 0x00, 
.................... 0x00, 0x00, 0x00, 0x00, 0x00, 0x00, 0x00, 0x00, 0x00, 0x00, 0x00, 0x00, 0x00, 0x00, 0x00, 0x00, 
.................... 0x00, 0x00, 0x00, 0x00, 0x00, 0x00, 0x00, 0x00, 0x00, 0x00, 0x00, 0x00, 0x00, 0x00, 0x00, 0x00, 
.................... 0x00, 0x00, 0x00, 0x00, 0x00, 0x00, 0x00, 0x00, 0x00, 0x00, 0x00, 0x00, 0x00, 0x00, 0x00, 0x00, 
.................... 0x00, 0x00, 0x00, 0x00, 0x00, 0x00, 0x00, 0x00, 0x00, 0x00, 0x00, 0x00, 0x00, 0x00, 0x00, 0x00, 
.................... 0x00, 0x00, 0x00, 0x00, 0x00, 0x00, 0x00, 0x00, 0x00, 0x00, 0x00, 0x00, 0x00, 0x00, 0x00, 0x00, 
.................... 0x00, 0x00, 0x00, 0x00, 0x00, 0x00, 0x00, 0x00, 0x00, 0x00, 0x00, 0x00, 0x00, 0x00, 0x00, 0x00, 
.................... 0x00, 0x00, 0x00, 0x00, 0x00, 0x00, 0x00, 0x00, 0x00, 0x00, 0x00, 0x00, 0x00, 0x00, 0x00, 0x00, 
.................... 0x00, 0x00, 0x00, 0x00, 0x00, 0x00, 0x00, 0x00, 0x00, 0x00, 0x00, 0x00, 0x00, 0x00, 0x00, 0x00, 
.................... 0x00, 0x00, 0x00, 0x00, 0x00, 0x00, 0x00, 0x00, 0x00, 0x00, 0x00, 0x00, 0x00, 0x00, 0x00, 0x00, 
.................... 0x00, 0x00, 0x00, 0x00, 0x00, 0x00, 0x00, 0x00, 0x00, 0x00, 0x00, 0x00, 0x00, 0x00, 0x00, 0x00, 
.................... 0x00, 0x00, 0x00, 0x00, 0x00, 0x00, 0x00, 0x00, 0x00, 0x00, 0x00, 0x00, 0x00, 0x00, 0x00, 0x00, 
.................... 0x00, 0x00, 0x00, 0x00, 0x00, 0x00, 0x00, 0x00, 0x00, 0x00, 0x00, 0x00, 0x00, 0x00, 0x00, 0x00, 
.................... 0x00, 0x00, 0x00, 0x00, 0x00, 0x00, 0x00, 0x00, 0x00, 0x00, 0x00, 0x00, 0x00, 0x00, 0x00, 0x00, 
.................... 0x00, 0x00, 0x00, 0x00, 0x00, 0x00, 0x00, 0x00, 0x00, 0x00, 0x00, 0x00, 0x00, 0x00, 0x00, 0x00 
.................... }; 
....................  
.................... const int8 Tomai [64][16] = { 
.................... 0x00, 0x00, 0x00, 0x00, 0x00, 0x00, 0x00, 0x00, 0x00, 0x00, 0x00, 0x00, 0x00, 0x00, 0x00, 0x00, 
.................... 0x00, 0x00, 0x00, 0x00, 0x00, 0x00, 0x00, 0x00, 0x00, 0x00, 0x00, 0x00, 0x00, 0x00, 0x00, 0x00, 
.................... 0x00, 0x00, 0x00, 0x00, 0x00, 0x00, 0x00, 0x00, 0x00, 0x00, 0x00, 0x00, 0x00, 0x00, 0x00, 0x00, 
.................... 0x00, 0x00, 0x00, 0x00, 0x00, 0x00, 0x00, 0x00, 0x00, 0x00, 0x00, 0x00, 0x00, 0x00, 0x00, 0x00, 
.................... 0x00, 0x00, 0x00, 0x00, 0x00, 0x00, 0x00, 0x00, 0x00, 0x00, 0x00, 0x00, 0x00, 0x00, 0x00, 0x00, 
.................... 0x00, 0x00, 0x00, 0x00, 0x00, 0x00, 0x00, 0x00, 0x00, 0x00, 0x00, 0x00, 0x00, 0x00, 0x00, 0x00, 
.................... 0x00, 0x00, 0x00, 0x00, 0x00, 0x00, 0x00, 0x00, 0x00, 0x00, 0x00, 0x00, 0x00, 0x00, 0x00, 0x00, 
.................... 0x00, 0x00, 0x00, 0x00, 0x00, 0x00, 0x00, 0x00, 0x00, 0x00, 0x00, 0x00, 0x00, 0x00, 0x00, 0x00, 
.................... 0x00, 0x00, 0x00, 0x00, 0x00, 0x00, 0x00, 0x00, 0x00, 0x00, 0x00, 0x00, 0x00, 0x00, 0x00, 0x00, 
.................... 0x00, 0x00, 0x00, 0x00, 0x00, 0x00, 0x00, 0x00, 0x00, 0x00, 0x00, 0x00, 0x00, 0x00, 0x00, 0x00, 
.................... 0x00, 0x00, 0x00, 0x00, 0x00, 0x00, 0x00, 0x00, 0x00, 0x00, 0x00, 0x00, 0x00, 0x00, 0x00, 0x00, 
.................... 0x00, 0x00, 0x00, 0x00, 0x00, 0x00, 0x00, 0x00, 0x00, 0x00, 0x00, 0x00, 0x00, 0x00, 0x00, 0x00, 
.................... 0x00, 0x00, 0x00, 0x00, 0x00, 0x00, 0x00, 0x00, 0x00, 0x00, 0x00, 0x00, 0x00, 0x00, 0x00, 0x00, 
.................... 0x00, 0x00, 0x00, 0x00, 0x00, 0x00, 0x00, 0x00, 0x00, 0x00, 0x00, 0x00, 0x00, 0x00, 0x00, 0x00, 
.................... 0x00, 0x00, 0x00, 0x00, 0x00, 0x00, 0x00, 0x00, 0x00, 0x00, 0x00, 0x00, 0x00, 0x00, 0x00, 0x00, 
.................... 0x00, 0x00, 0x00, 0x00, 0x00, 0x00, 0x00, 0x00, 0x00, 0x00, 0x00, 0x00, 0x00, 0x00, 0x00, 0x00, 
.................... 0x00, 0x00, 0x00, 0x00, 0x00, 0x00, 0x00, 0x00, 0x00, 0x00, 0x00, 0x00, 0x00, 0x00, 0x00, 0x00, 
.................... 0x00, 0x00, 0x00, 0x00, 0x00, 0x00, 0x00, 0x00, 0x00, 0x00, 0x00, 0x00, 0x00, 0x00, 0x00, 0x00, 
.................... 0x00, 0x00, 0x00, 0x00, 0x00, 0x00, 0x00, 0x00, 0x00, 0x00, 0x00, 0x00, 0x00, 0x00, 0x00, 0x00, 
.................... 0x00, 0x00, 0x00, 0x00, 0x00, 0x00, 0x00, 0x00, 0x00, 0x00, 0x00, 0x00, 0x00, 0x00, 0x00, 0x00, 
.................... 0x00, 0x00, 0x00, 0x00, 0x00, 0x00, 0x00, 0x00, 0x00, 0x00, 0x00, 0x00, 0x00, 0x00, 0x00, 0x00, 
.................... 0x00, 0x00, 0x00, 0x00, 0x00, 0x00, 0x00, 0x00, 0x00, 0x00, 0x00, 0x00, 0x00, 0x00, 0x00, 0x00, 
.................... 0x00, 0x00, 0x00, 0x00, 0x00, 0x00, 0x00, 0x00, 0x00, 0x00, 0x00, 0x00, 0x00, 0x00, 0x00, 0x00, 
.................... 0x00, 0x00, 0x00, 0x00, 0x00, 0x00, 0x00, 0x00, 0x00, 0x00, 0x00, 0x00, 0x00, 0x00, 0x00, 0x00, 
.................... 0x00, 0x00, 0x00, 0x00, 0x00, 0x00, 0x00, 0x00, 0x00, 0x00, 0x00, 0x00, 0x00, 0x00, 0x00, 0x00, 
.................... 0x00, 0x00, 0x00, 0x00, 0x00, 0x00, 0x00, 0x00, 0x00, 0x00, 0x00, 0x00, 0x00, 0x00, 0x00, 0x00, 
.................... 0x00, 0x00, 0x00, 0x00, 0x00, 0x00, 0x00, 0x00, 0x00, 0x00, 0x00, 0x00, 0x00, 0x00, 0x00, 0x00, 
.................... 0x00, 0x00, 0x00, 0x00, 0x00, 0x00, 0x00, 0x00, 0x00, 0x00, 0x00, 0x00, 0x00, 0x00, 0x00, 0x00, 
.................... 0x00, 0x00, 0x00, 0x00, 0x00, 0x00, 0x00, 0x00, 0x00, 0x00, 0x00, 0x00, 0x00, 0x00, 0x00, 0x00, 
.................... 0x00, 0x00, 0x00, 0x00, 0x00, 0x00, 0x00, 0x00, 0x00, 0x00, 0x00, 0x00, 0x00, 0x00, 0x00, 0x00, 
.................... 0x00, 0x00, 0x00, 0x00, 0x00, 0x00, 0x00, 0x00, 0x00, 0x00, 0x00, 0x00, 0x00, 0x7F, 0xFF, 0xF8, 
.................... 0x00, 0x00, 0x00, 0x00, 0x00, 0x00, 0x00, 0x00, 0x00, 0x00, 0x00, 0x00, 0x00, 0x40, 0x00, 0x08, 
.................... 0x00, 0x00, 0x00, 0x00, 0x00, 0x00, 0x00, 0x00, 0x00, 0x00, 0x00, 0x00, 0x00, 0x47, 0x03, 0x88, 
.................... 0x00, 0x00, 0x00, 0x00, 0x00, 0x00, 0x00, 0x00, 0x00, 0x00, 0x00, 0x00, 0x00, 0x45, 0x02, 0x88, 
.................... 0x00, 0x00, 0x00, 0x00, 0x00, 0x00, 0x00, 0x00, 0x00, 0x00, 0x00, 0x00, 0x00, 0x45, 0x02, 0x88, 
.................... 0x00, 0x00, 0x00, 0x00, 0x00, 0x00, 0x00, 0x00, 0x00, 0x00, 0x00, 0x00, 0x00, 0x45, 0x02, 0x88, 
.................... 0x00, 0x00, 0x00, 0x00, 0x00, 0x00, 0x00, 0x00, 0x00, 0x00, 0x00, 0x00, 0x00, 0x45, 0x02, 0x88, 
.................... 0x00, 0x00, 0x00, 0x00, 0x00, 0x00, 0x00, 0x00, 0x00, 0x00, 0x00, 0x00, 0x00, 0x47, 0x03, 0x88, 
.................... 0x00, 0x00, 0x00, 0x00, 0x00, 0x00, 0x00, 0x00, 0x00, 0x00, 0x00, 0x00, 0x00, 0x40, 0x00, 0x08, 
.................... 0x00, 0x00, 0x00, 0x00, 0x00, 0x00, 0x00, 0x00, 0x00, 0x00, 0x00, 0x00, 0x00, 0x40, 0xFC, 0x08, 
.................... 0x00, 0x00, 0x00, 0x00, 0x00, 0x00, 0x00, 0x00, 0x00, 0x00, 0x00, 0x00, 0x00, 0x40, 0x84, 0x08, 
.................... 0x00, 0x00, 0x00, 0x00, 0x00, 0x00, 0x00, 0x00, 0x00, 0x00, 0x00, 0x00, 0x00, 0x40, 0x84, 0x08, 
.................... 0x00, 0x00, 0x00, 0x00, 0x00, 0x00, 0x00, 0x00, 0x00, 0x00, 0x00, 0x00, 0x00, 0x40, 0xFC, 0x08, 
.................... 0x00, 0x00, 0x00, 0x00, 0x00, 0x00, 0x00, 0x00, 0x00, 0x00, 0x00, 0x00, 0x00, 0x40, 0x00, 0x08, 
.................... 0x00, 0x00, 0x00, 0x00, 0x00, 0x00, 0x00, 0x00, 0x00, 0x00, 0x00, 0x00, 0x00, 0x7F, 0xFF, 0xF8, 
.................... 0x00, 0x00, 0x00, 0x00, 0x00, 0x00, 0x00, 0x00, 0x00, 0x00, 0x00, 0x00, 0x00, 0x00, 0x00, 0x00, 
.................... 0x00, 0x00, 0x00, 0x00, 0x00, 0x00, 0x00, 0x00, 0x00, 0x00, 0x00, 0x00, 0x00, 0x00, 0x00, 0x00, 
.................... 0x00, 0x00, 0x00, 0x00, 0x00, 0x00, 0x00, 0x00, 0x00, 0x00, 0x00, 0x00, 0x00, 0x00, 0x00, 0x00, 
.................... 0x00, 0x00, 0x00, 0x00, 0x00, 0x00, 0x00, 0x00, 0x00, 0x00, 0x00, 0x00, 0x00, 0x00, 0x00, 0x00, 
.................... 0x00, 0x00, 0x00, 0x00, 0x00, 0x00, 0x00, 0x00, 0x00, 0x00, 0x00, 0x00, 0x00, 0x00, 0x00, 0x00, 
.................... 0x00, 0x00, 0x00, 0x00, 0x00, 0x00, 0x00, 0x00, 0x00, 0x00, 0x00, 0x00, 0x00, 0x00, 0x00, 0x00, 
.................... 0x00, 0x00, 0x00, 0x00, 0x00, 0x00, 0x00, 0x00, 0x00, 0x00, 0x00, 0x00, 0x00, 0x00, 0x00, 0x00, 
.................... 0x00, 0x00, 0x00, 0x00, 0x00, 0x00, 0x00, 0x00, 0x00, 0x00, 0x00, 0x00, 0x00, 0x00, 0x00, 0x00, 
.................... 0x00, 0x00, 0x00, 0x00, 0x00, 0x00, 0x00, 0x00, 0x00, 0x00, 0x00, 0x00, 0x00, 0x00, 0x00, 0x00, 
.................... 0x00, 0x00, 0x00, 0x00, 0x00, 0x00, 0x00, 0x00, 0x00, 0x00, 0x00, 0x00, 0x00, 0x00, 0x00, 0x00, 
.................... 0x00, 0x00, 0x00, 0x00, 0x00, 0x00, 0x00, 0x00, 0x00, 0x00, 0x00, 0x00, 0x00, 0x00, 0x00, 0x00, 
.................... 0x00, 0x00, 0x00, 0x00, 0x00, 0x00, 0x00, 0x00, 0x00, 0x00, 0x00, 0x00, 0x00, 0x00, 0x00, 0x00, 
.................... 0x00, 0x00, 0x00, 0x00, 0x00, 0x00, 0x00, 0x00, 0x00, 0x00, 0x00, 0x00, 0x00, 0x00, 0x00, 0x00, 
.................... 0x00, 0x00, 0x00, 0x00, 0x00, 0x00, 0x00, 0x00, 0x00, 0x00, 0x00, 0x00, 0x00, 0x00, 0x00, 0x00, 
.................... 0x00, 0x00, 0x00, 0x00, 0x00, 0x00, 0x00, 0x00, 0x00, 0x00, 0x00, 0x00, 0x00, 0x00, 0x00, 0x00, 
.................... 0x00, 0x00, 0x00, 0x00, 0x00, 0x00, 0x00, 0x00, 0x00, 0x00, 0x00, 0x00, 0x00, 0x00, 0x00, 0x00, 
.................... 0x00, 0x00, 0x00, 0x00, 0x00, 0x00, 0x00, 0x00, 0x00, 0x00, 0x00, 0x00, 0x00, 0x00, 0x00, 0x00, 
.................... 0x00, 0x00, 0x00, 0x00, 0x00, 0x00, 0x00, 0x00, 0x00, 0x00, 0x00, 0x00, 0x00, 0x00, 0x00, 0x00, 
.................... 0x00, 0x00, 0x00, 0x00, 0x00, 0x00, 0x00, 0x00, 0x00, 0x00, 0x00, 0x00, 0x00, 0x00, 0x00, 0x00 
.................... }; 
....................  
.................... const int8 Ventilador [64][16] = { 
.................... 0x00, 0x00, 0x00, 0x00, 0x00, 0x00, 0x00, 0x00, 0x00, 0x00, 0x00, 0x00, 0x00, 0x00, 0x00, 0x00, 
.................... 0x00, 0x00, 0x00, 0x00, 0x00, 0x00, 0x00, 0x00, 0x00, 0x00, 0x00, 0x00, 0x00, 0x00, 0x00, 0x00, 
.................... 0x00, 0x00, 0x00, 0x00, 0x00, 0x00, 0x00, 0x00, 0x00, 0x00, 0x00, 0x00, 0x00, 0x00, 0x00, 0x00, 
.................... 0x00, 0x00, 0x00, 0x00, 0x00, 0x00, 0x00, 0x00, 0x00, 0x00, 0x00, 0x00, 0x00, 0x00, 0x00, 0x00, 
.................... 0x00, 0x00, 0x00, 0x00, 0x00, 0x00, 0x00, 0x00, 0x00, 0x00, 0x00, 0x00, 0x00, 0x00, 0x00, 0x00, 
.................... 0x00, 0x00, 0x00, 0x00, 0x00, 0x00, 0x00, 0x00, 0x00, 0x00, 0x00, 0x00, 0x00, 0x00, 0x00, 0x00, 
.................... 0x00, 0x00, 0x00, 0x00, 0x00, 0x00, 0x00, 0x00, 0x00, 0x00, 0x00, 0x00, 0x00, 0x00, 0x00, 0x00, 
.................... 0x00, 0x00, 0x00, 0x00, 0x00, 0x00, 0x00, 0x00, 0x00, 0x00, 0x00, 0x00, 0x00, 0x00, 0x00, 0x00, 
.................... 0x00, 0x00, 0x00, 0x00, 0x00, 0x00, 0x00, 0x00, 0x00, 0x00, 0x00, 0x00, 0x00, 0x00, 0x00, 0x00, 
.................... 0x00, 0x00, 0x00, 0x00, 0x00, 0x00, 0x00, 0x00, 0x00, 0x00, 0x00, 0x00, 0x00, 0x00, 0x00, 0x00, 
.................... 0x00, 0x00, 0x00, 0x00, 0x00, 0x00, 0x00, 0x00, 0x00, 0x00, 0x00, 0x00, 0x00, 0x00, 0x00, 0x00, 
.................... 0x00, 0x00, 0x00, 0x00, 0x00, 0x00, 0x00, 0x00, 0x00, 0x00, 0x00, 0x00, 0x00, 0x00, 0x00, 0x00, 
.................... 0x00, 0x00, 0x00, 0x00, 0x00, 0x00, 0x00, 0x00, 0x00, 0x00, 0x00, 0x00, 0x00, 0x00, 0x00, 0x00, 
.................... 0x00, 0x00, 0x00, 0x00, 0x00, 0x00, 0x00, 0x00, 0x00, 0x00, 0x00, 0x00, 0x00, 0x00, 0x00, 0x00, 
.................... 0x00, 0x00, 0x00, 0x00, 0x00, 0x00, 0x00, 0x00, 0x00, 0x00, 0x00, 0x00, 0x00, 0x00, 0x00, 0x00, 
.................... 0x00, 0x00, 0x00, 0x00, 0x00, 0x00, 0x00, 0x00, 0x00, 0x00, 0x00, 0x00, 0x00, 0x00, 0x00, 0x00, 
.................... 0x00, 0x00, 0x00, 0x00, 0x00, 0x00, 0x00, 0x00, 0x00, 0x00, 0x00, 0x00, 0x00, 0x00, 0x00, 0x00, 
.................... 0x00, 0x00, 0x00, 0x00, 0x00, 0x00, 0x00, 0x00, 0x00, 0x00, 0x00, 0x00, 0x00, 0x00, 0x00, 0x00, 
.................... 0x00, 0x00, 0x00, 0x00, 0x00, 0x00, 0x00, 0x00, 0x00, 0x00, 0x00, 0x00, 0x00, 0x00, 0x00, 0x00, 
.................... 0x00, 0x00, 0x00, 0x00, 0x00, 0x00, 0x00, 0x00, 0x00, 0x00, 0x00, 0x00, 0x00, 0x00, 0x00, 0x00, 
.................... 0x00, 0x00, 0x00, 0x00, 0x00, 0x00, 0x00, 0x00, 0x00, 0x00, 0x00, 0x00, 0x00, 0x00, 0x00, 0x00, 
.................... 0x00, 0x00, 0x00, 0x00, 0x00, 0x00, 0x00, 0x00, 0x00, 0x00, 0x00, 0x00, 0x00, 0x00, 0x00, 0x00, 
.................... 0x00, 0x00, 0x00, 0x00, 0x00, 0x00, 0x00, 0x00, 0x00, 0x00, 0x00, 0x00, 0x00, 0x00, 0x00, 0x00, 
.................... 0x00, 0x00, 0x00, 0x00, 0x00, 0x00, 0x00, 0x00, 0x00, 0x00, 0x00, 0x00, 0x00, 0x00, 0x00, 0x00, 
.................... 0x00, 0x00, 0x00, 0x00, 0x00, 0x00, 0x00, 0x00, 0x00, 0x00, 0x00, 0x00, 0x00, 0x00, 0x00, 0x00, 
.................... 0x00, 0x00, 0x00, 0x00, 0x00, 0x00, 0x00, 0x00, 0x00, 0x00, 0x00, 0x00, 0x00, 0x00, 0x00, 0x00, 
.................... 0x00, 0x00, 0x00, 0x00, 0x00, 0x00, 0x00, 0x00, 0x00, 0x00, 0x00, 0x00, 0x00, 0x00, 0x00, 0x00, 
.................... 0x00, 0x00, 0x00, 0x00, 0x00, 0x00, 0x00, 0x00, 0x00, 0x00, 0x00, 0x00, 0x00, 0x00, 0x00, 0x00, 
.................... 0x00, 0x00, 0x00, 0x00, 0x00, 0x00, 0x00, 0x00, 0x00, 0x00, 0x00, 0x00, 0x00, 0x00, 0x00, 0x00, 
.................... 0x00, 0x00, 0x00, 0x00, 0x00, 0x00, 0x00, 0x00, 0x00, 0x00, 0x00, 0x00, 0x00, 0x00, 0x00, 0x00, 
.................... 0x00, 0x00, 0x00, 0x00, 0x00, 0x00, 0x00, 0x00, 0x00, 0x00, 0x00, 0x00, 0x00, 0x00, 0x00, 0x00, 
.................... 0x00, 0x00, 0x00, 0x00, 0x00, 0x00, 0x00, 0x00, 0x00, 0x00, 0x00, 0x00, 0x00, 0x00, 0x00, 0x00, 
.................... 0x00, 0x00, 0x00, 0x00, 0x00, 0x00, 0x00, 0x00, 0x00, 0x00, 0x00, 0x00, 0x00, 0x00, 0x00, 0x00, 
.................... 0x00, 0x00, 0x00, 0x00, 0x00, 0x00, 0x00, 0x00, 0x00, 0x00, 0x00, 0x00, 0x00, 0x00, 0x00, 0x00, 
.................... 0x00, 0x00, 0x00, 0x00, 0x00, 0x00, 0x00, 0x00, 0x00, 0x00, 0x00, 0x00, 0x00, 0x00, 0x00, 0x00, 
.................... 0x00, 0x00, 0x00, 0x00, 0x00, 0x00, 0x00, 0x00, 0x00, 0x00, 0x00, 0x00, 0x00, 0x00, 0x00, 0x00, 
.................... 0x00, 0x00, 0x00, 0x00, 0x00, 0x00, 0x00, 0x00, 0x00, 0x00, 0x00, 0x00, 0x00, 0x00, 0x00, 0x00, 
.................... 0x00, 0x00, 0x00, 0x00, 0x00, 0x00, 0x00, 0x00, 0x00, 0x00, 0x00, 0x00, 0x00, 0x00, 0x00, 0x00, 
.................... 0x00, 0x00, 0x00, 0x00, 0x00, 0x00, 0x00, 0x00, 0x00, 0x00, 0x00, 0x00, 0x00, 0x00, 0x00, 0x00, 
.................... 0x00, 0x00, 0x00, 0x00, 0x00, 0x00, 0x00, 0x00, 0x00, 0x00, 0x00, 0x00, 0x00, 0x00, 0x00, 0x00, 
.................... 0x00, 0x00, 0x00, 0x00, 0x00, 0x00, 0x00, 0x00, 0x00, 0x00, 0x00, 0x00, 0x00, 0x00, 0x00, 0x00, 
.................... 0x00, 0x00, 0x00, 0x00, 0x00, 0x00, 0x00, 0x00, 0x00, 0x00, 0x00, 0x00, 0x00, 0x00, 0x00, 0x00, 
.................... 0x00, 0x00, 0x00, 0x00, 0x00, 0x00, 0x00, 0x00, 0x00, 0x00, 0x00, 0x00, 0x00, 0x00, 0x00, 0x00, 
.................... 0x00, 0x00, 0x00, 0x00, 0x00, 0x00, 0x00, 0x00, 0x00, 0x00, 0x00, 0x00, 0x00, 0x00, 0x00, 0x00, 
.................... 0x00, 0x00, 0x00, 0x00, 0x00, 0x00, 0x00, 0x00, 0x00, 0x00, 0x00, 0x00, 0x00, 0x00, 0x00, 0x00, 
.................... 0x00, 0x00, 0x00, 0x00, 0x00, 0x00, 0x00, 0x00, 0x00, 0x00, 0x00, 0x00, 0x00, 0x00, 0x00, 0x00, 
.................... 0x00, 0x00, 0x00, 0x00, 0x00, 0x00, 0x00, 0x00, 0x00, 0x00, 0x00, 0x00, 0x00, 0x00, 0x60, 0x00, 
.................... 0x00, 0x00, 0x00, 0x00, 0x00, 0x00, 0x00, 0x00, 0x00, 0x00, 0x00, 0x00, 0x00, 0x00, 0xF0, 0x00, 
.................... 0x00, 0x00, 0x00, 0x00, 0x00, 0x00, 0x00, 0x00, 0x00, 0x00, 0x00, 0x00, 0x00, 0x01, 0xF8, 0x00, 
.................... 0x00, 0x00, 0x00, 0x00, 0x00, 0x00, 0x00, 0x00, 0x00, 0x00, 0x00, 0x00, 0x00, 0x01, 0xF8, 0x00, 
.................... 0x00, 0x00, 0x00, 0x00, 0x00, 0x00, 0x00, 0x00, 0x00, 0x00, 0x00, 0x00, 0x00, 0x01, 0xF8, 0x00, 
.................... 0x00, 0x00, 0x00, 0x00, 0x00, 0x00, 0x00, 0x00, 0x00, 0x00, 0x00, 0x00, 0x00, 0x00, 0xF0, 0x00, 
.................... 0x00, 0x00, 0x00, 0x00, 0x00, 0x00, 0x00, 0x00, 0x00, 0x00, 0x00, 0x00, 0x00, 0x38, 0x71, 0xC0, 
.................... 0x00, 0x00, 0x00, 0x00, 0x00, 0x00, 0x00, 0x00, 0x00, 0x00, 0x00, 0x00, 0x00, 0x7C, 0x93, 0xE0, 
.................... 0x00, 0x00, 0x00, 0x00, 0x00, 0x00, 0x00, 0x00, 0x00, 0x00, 0x00, 0x00, 0x00, 0xFF, 0x0F, 0xF0, 
.................... 0x00, 0x00, 0x00, 0x00, 0x00, 0x00, 0x00, 0x00, 0x00, 0x00, 0x00, 0x00, 0x00, 0xFF, 0x0F, 0xF0, 
.................... 0x00, 0x00, 0x00, 0x00, 0x00, 0x00, 0x00, 0x00, 0x00, 0x00, 0x00, 0x00, 0x00, 0x7D, 0x93, 0xE0, 
.................... 0x00, 0x00, 0x00, 0x00, 0x00, 0x00, 0x00, 0x00, 0x00, 0x00, 0x00, 0x00, 0x00, 0x38, 0x61, 0xC0, 
.................... 0x00, 0x00, 0x00, 0x00, 0x00, 0x00, 0x00, 0x00, 0x00, 0x00, 0x00, 0x00, 0x00, 0x00, 0xF0, 0x00, 
.................... 0x00, 0x00, 0x00, 0x00, 0x00, 0x00, 0x00, 0x00, 0x00, 0x00, 0x00, 0x00, 0x00, 0x01, 0xF8, 0x00, 
.................... 0x00, 0x00, 0x00, 0x00, 0x00, 0x00, 0x00, 0x00, 0x00, 0x00, 0x00, 0x00, 0x00, 0x01, 0xF8, 0x00, 
.................... 0x00, 0x00, 0x00, 0x00, 0x00, 0x00, 0x00, 0x00, 0x00, 0x00, 0x00, 0x00, 0x00, 0x01, 0xF8, 0x00, 
.................... 0x00, 0x00, 0x00, 0x00, 0x00, 0x00, 0x00, 0x00, 0x00, 0x00, 0x00, 0x00, 0x00, 0x00, 0xF0, 0x00, 
.................... 0x00, 0x00, 0x00, 0x00, 0x00, 0x00, 0x00, 0x00, 0x00, 0x00, 0x00, 0x00, 0x00, 0x00, 0x60, 0x00 
.................... }; 
....................  
.................... #include "FuncionesDisplay.h" 
....................  
.................... typedef struct{ 
....................    char Letra[20]; 
.................... }MENUU; 
....................  
.................... MENUU Menus; 
....................   
.................... void displayContrasena(int digito, int x, int y, int sombreado) 
.................... { 
....................    char voltage[9]; 
....................    sprintf(voltage, "%i", digito); 
*
04AB0:  MOVLW  05
04AB2:  MOVLB  4
04AB4:  MOVWF  x2C
04AB6:  MOVLW  D6
04AB8:  MOVWF  x2B
04ABA:  MOVFF  5D2,5DF
04ABE:  MOVLW  1F
04AC0:  MOVLB  5
04AC2:  MOVWF  xE0
04AC4:  MOVLB  0
04AC6:  RCALL  47CC
....................     
....................    if(sombreado==1) 
04AC8:  MOVLB  5
04ACA:  DECFSZ xD5,W
04ACC:  BRA    4B1E
....................       {glcd_rect(x, y, x+18, y+24, YES, ON);glcd_text57(x+2, y+1, voltage, 2, OFF);} 
04ACE:  MOVLW  12
04AD0:  ADDWF  xD3,W
04AD2:  MOVWF  xDF
04AD4:  MOVLW  18
04AD6:  ADDWF  xD4,W
04AD8:  MOVWF  xE0
04ADA:  MOVFF  5D3,5E1
04ADE:  MOVFF  5D4,5E2
04AE2:  MOVFF  5DF,5E3
04AE6:  MOVWF  xE4
04AE8:  MOVLW  01
04AEA:  MOVWF  xE5
04AEC:  MOVWF  xE6
04AEE:  MOVLB  0
04AF0:  RCALL  49EC
04AF2:  MOVLW  02
04AF4:  MOVLB  5
04AF6:  ADDWF  xD3,W
04AF8:  MOVWF  xDF
04AFA:  MOVLW  01
04AFC:  ADDWF  xD4,W
04AFE:  MOVWF  xE0
04B00:  MOVFF  5DF,5E1
04B04:  MOVWF  xE2
04B06:  MOVLW  05
04B08:  MOVWF  xE4
04B0A:  MOVLW  D6
04B0C:  MOVWF  xE3
04B0E:  MOVLW  02
04B10:  MOVWF  xE5
04B12:  CLRF   xE6
04B14:  MOVLB  0
04B16:  CALL   16DA
....................    else    
04B1A:  BRA    4B6A
04B1C:  MOVLB  5
....................       {glcd_rect(x, y, x+18, y+24, NO, OFF);glcd_text57(x+2, y+1, voltage, 2, ON);} 
04B1E:  MOVLW  12
04B20:  ADDWF  xD3,W
04B22:  MOVWF  xDF
04B24:  MOVLW  18
04B26:  ADDWF  xD4,W
04B28:  MOVWF  xE0
04B2A:  MOVFF  5D3,5E1
04B2E:  MOVFF  5D4,5E2
04B32:  MOVFF  5DF,5E3
04B36:  MOVWF  xE4
04B38:  CLRF   xE5
04B3A:  CLRF   xE6
04B3C:  MOVLB  0
04B3E:  RCALL  49EC
04B40:  MOVLW  02
04B42:  MOVLB  5
04B44:  ADDWF  xD3,W
04B46:  MOVWF  xDF
04B48:  MOVLW  01
04B4A:  ADDWF  xD4,W
04B4C:  MOVWF  xE0
04B4E:  MOVFF  5DF,5E1
04B52:  MOVWF  xE2
04B54:  MOVLW  05
04B56:  MOVWF  xE4
04B58:  MOVLW  D6
04B5A:  MOVWF  xE3
04B5C:  MOVLW  02
04B5E:  MOVWF  xE5
04B60:  MOVLW  01
04B62:  MOVWF  xE6
04B64:  MOVLB  0
04B66:  CALL   16DA
....................  
.................... } 
04B6A:  RETLW  00
....................  
.................... void displayTiempo(int digito, int x, int y, int sombreado, int tamano) 
.................... { 
....................    char voltage[9]; 
....................    sprintf(voltage, "%i", digito); 
*
0533E:  MOVLW  05
05340:  MOVLB  4
05342:  MOVWF  x2C
05344:  MOVLW  CD
05346:  MOVWF  x2B
05348:  MOVFF  5C8,5DF
0534C:  MOVLW  1F
0534E:  MOVLB  5
05350:  MOVWF  xE0
05352:  MOVLB  0
05354:  CALL   47CC
....................     
....................    if(sombreado==1) 
05358:  MOVLB  5
0535A:  DECFSZ xCB,W
0535C:  BRA    53B6
....................       {glcd_rect(x, y, x+(tamano*6), y+(tamano*8), YES, ON);glcd_text57(x+2, y+1, voltage, tamano, OFF);} 
0535E:  MOVF   xCC,W
05360:  MULLW  06
05362:  MOVF   FF3,W
05364:  ADDWF  xC9,W
05366:  MOVWF  xD6
05368:  MOVF   xCC,W
0536A:  MULLW  08
0536C:  MOVF   FF3,W
0536E:  ADDWF  xCA,W
05370:  MOVWF  xD7
05372:  MOVFF  5C9,5E1
05376:  MOVFF  5CA,5E2
0537A:  MOVFF  5D6,5E3
0537E:  MOVWF  xE4
05380:  MOVLW  01
05382:  MOVWF  xE5
05384:  MOVWF  xE6
05386:  MOVLB  0
05388:  CALL   49EC
0538C:  MOVLW  02
0538E:  MOVLB  5
05390:  ADDWF  xC9,W
05392:  MOVWF  xD6
05394:  MOVLW  01
05396:  ADDWF  xCA,W
05398:  MOVWF  xD7
0539A:  MOVFF  5D6,5E1
0539E:  MOVWF  xE2
053A0:  MOVLW  05
053A2:  MOVWF  xE4
053A4:  MOVLW  CD
053A6:  MOVWF  xE3
053A8:  MOVFF  5CC,5E5
053AC:  CLRF   xE6
053AE:  MOVLB  0
053B0:  CALL   16DA
053B4:  MOVLB  5
....................    if(sombreado==0) 
053B6:  MOVF   xCB,F
053B8:  BNZ   5414
....................       {glcd_rect(x, y, x+(tamano*6), y+(tamano*8), YES, OFF);glcd_text57(x+2, y+1, voltage, tamano, ON);} 
053BA:  MOVF   xCC,W
053BC:  MULLW  06
053BE:  MOVF   FF3,W
053C0:  ADDWF  xC9,W
053C2:  MOVWF  xD6
053C4:  MOVF   xCC,W
053C6:  MULLW  08
053C8:  MOVF   FF3,W
053CA:  ADDWF  xCA,W
053CC:  MOVWF  xD7
053CE:  MOVFF  5C9,5E1
053D2:  MOVFF  5CA,5E2
053D6:  MOVFF  5D6,5E3
053DA:  MOVWF  xE4
053DC:  MOVLW  01
053DE:  MOVWF  xE5
053E0:  CLRF   xE6
053E2:  MOVLB  0
053E4:  CALL   49EC
053E8:  MOVLW  02
053EA:  MOVLB  5
053EC:  ADDWF  xC9,W
053EE:  MOVWF  xD6
053F0:  MOVLW  01
053F2:  ADDWF  xCA,W
053F4:  MOVWF  xD7
053F6:  MOVFF  5D6,5E1
053FA:  MOVWF  xE2
053FC:  MOVLW  05
053FE:  MOVWF  xE4
05400:  MOVLW  CD
05402:  MOVWF  xE3
05404:  MOVFF  5CC,5E5
05408:  MOVLW  01
0540A:  MOVWF  xE6
0540C:  MOVLB  0
0540E:  CALL   16DA
05412:  MOVLB  5
....................  
.................... } 
05414:  MOVLB  0
05416:  RETLW  00
....................  
.................... void displayMenu(char palabra[100], int x, int y, int sombreado, int tamano) 
.................... { 
....................    strcpy(Menus.Letra,palabra); 
*
04B6C:  MOVLB  5
04B6E:  MOVFF  5D0,01
04B72:  MOVFF  5D1,03
04B76:  MOVFF  5D0,5D6
04B7A:  MOVFF  5D1,5D7
04B7E:  MOVLW  04
04B80:  MOVWF  FEA
04B82:  MOVLW  17
04B84:  MOVWF  FE9
04B86:  MOVFF  5D1,FE2
04B8A:  MOVFF  5D0,FE1
04B8E:  MOVF   FE7,F
04B90:  MOVFF  FE6,FEE
04B94:  BNZ   4B8E
....................    if(sombreado==1) 
04B96:  DECFSZ xD4,W
04B98:  BRA    4BE6
....................       {glcd_rect(0, y, 127, y+(tamano*8), YES, ON);glcd_text57(x+1, y+1, Menus.Letra, tamano, OFF);} 
04B9A:  MOVF   xD5,W
04B9C:  MULLW  08
04B9E:  MOVF   FF3,W
04BA0:  ADDWF  xD3,W
04BA2:  MOVWF  xD6
04BA4:  CLRF   xE1
04BA6:  MOVFF  5D3,5E2
04BAA:  MOVLW  7F
04BAC:  MOVWF  xE3
04BAE:  MOVFF  5D6,5E4
04BB2:  MOVLW  01
04BB4:  MOVWF  xE5
04BB6:  MOVWF  xE6
04BB8:  MOVLB  0
04BBA:  RCALL  49EC
04BBC:  MOVLW  01
04BBE:  MOVLB  5
04BC0:  ADDWF  xD2,W
04BC2:  MOVWF  xD6
04BC4:  MOVLW  01
04BC6:  ADDWF  xD3,W
04BC8:  MOVWF  xD7
04BCA:  MOVFF  5D6,5E1
04BCE:  MOVWF  xE2
04BD0:  MOVLW  04
04BD2:  MOVWF  xE4
04BD4:  MOVLW  17
04BD6:  MOVWF  xE3
04BD8:  MOVFF  5D5,5E5
04BDC:  CLRF   xE6
04BDE:  MOVLB  0
04BE0:  CALL   16DA
04BE4:  MOVLB  5
....................    if(sombreado==0) 
04BE6:  MOVF   xD4,F
04BE8:  BNZ   4C38
....................       {glcd_rect(0, y, 127, y+(tamano*8), YES, OFF);glcd_text57(x+1, y+1, Menus.Letra, tamano, ON);} 
04BEA:  MOVF   xD5,W
04BEC:  MULLW  08
04BEE:  MOVF   FF3,W
04BF0:  ADDWF  xD3,W
04BF2:  MOVWF  xD6
04BF4:  CLRF   xE1
04BF6:  MOVFF  5D3,5E2
04BFA:  MOVLW  7F
04BFC:  MOVWF  xE3
04BFE:  MOVFF  5D6,5E4
04C02:  MOVLW  01
04C04:  MOVWF  xE5
04C06:  CLRF   xE6
04C08:  MOVLB  0
04C0A:  RCALL  49EC
04C0C:  MOVLW  01
04C0E:  MOVLB  5
04C10:  ADDWF  xD2,W
04C12:  MOVWF  xD6
04C14:  MOVLW  01
04C16:  ADDWF  xD3,W
04C18:  MOVWF  xD7
04C1A:  MOVFF  5D6,5E1
04C1E:  MOVWF  xE2
04C20:  MOVLW  04
04C22:  MOVWF  xE4
04C24:  MOVLW  17
04C26:  MOVWF  xE3
04C28:  MOVFF  5D5,5E5
04C2C:  MOVLW  01
04C2E:  MOVWF  xE6
04C30:  MOVLB  0
04C32:  CALL   16DA
04C36:  MOVLB  5
....................  
.................... } 
04C38:  MOVLB  0
04C3A:  RETLW  00
....................  
.................... void displayfloat(float adc,int x,int y,int sombreado, int tamano) { 
....................    char voltage[9];     
....................       sprintf(voltage, "%2.0fC",adc); // Converts adc to text 
*
05696:  MOVLW  05
05698:  MOVLB  4
0569A:  MOVWF  x2C
0569C:  MOVLW  D4
0569E:  MOVWF  x2B
056A0:  MOVLW  01
056A2:  MOVWF  FE9
056A4:  MOVFF  5CF,5E0
056A8:  MOVFF  5CE,5DF
056AC:  MOVFF  5CD,5DE
056B0:  MOVFF  5CC,5DD
056B4:  MOVLB  5
056B6:  CLRF   xE1
056B8:  MOVLB  0
056BA:  BRA    54DC
056BC:  MOVLW  B0
056BE:  MOVLB  5
056C0:  MOVWF  xEA
056C2:  MOVLB  0
056C4:  CALL   47AA
056C8:  MOVLW  43
056CA:  MOVLB  5
056CC:  MOVWF  xEA
056CE:  MOVLB  0
056D0:  CALL   47AA
....................        
....................    if(sombreado==1) 
056D4:  MOVLB  5
056D6:  DECFSZ xD2,W
056D8:  BRA    5732
....................       {glcd_rect(x, y, x+(tamano*20), y+(tamano*8), YES, ON);glcd_text57(x+2, y+1, voltage, tamano, OFF);} 
056DA:  MOVF   xD3,W
056DC:  MULLW  14
056DE:  MOVF   FF3,W
056E0:  ADDWF  xD0,W
056E2:  MOVWF  xDD
056E4:  MOVF   xD3,W
056E6:  MULLW  08
056E8:  MOVF   FF3,W
056EA:  ADDWF  xD1,W
056EC:  MOVWF  xDE
056EE:  MOVFF  5D0,5E1
056F2:  MOVFF  5D1,5E2
056F6:  MOVFF  5DD,5E3
056FA:  MOVWF  xE4
056FC:  MOVLW  01
056FE:  MOVWF  xE5
05700:  MOVWF  xE6
05702:  MOVLB  0
05704:  CALL   49EC
05708:  MOVLW  02
0570A:  MOVLB  5
0570C:  ADDWF  xD0,W
0570E:  MOVWF  xDD
05710:  MOVLW  01
05712:  ADDWF  xD1,W
05714:  MOVWF  xDE
05716:  MOVFF  5DD,5E1
0571A:  MOVWF  xE2
0571C:  MOVLW  05
0571E:  MOVWF  xE4
05720:  MOVLW  D4
05722:  MOVWF  xE3
05724:  MOVFF  5D3,5E5
05728:  CLRF   xE6
0572A:  MOVLB  0
0572C:  CALL   16DA
05730:  MOVLB  5
....................    if(sombreado==0) 
05732:  MOVF   xD2,F
05734:  BNZ   5790
....................       {glcd_rect(x, y, x+(tamano*20), y+(tamano*8), YES, OFF);glcd_text57(x+2, y+1, voltage, tamano, ON);} 
05736:  MOVF   xD3,W
05738:  MULLW  14
0573A:  MOVF   FF3,W
0573C:  ADDWF  xD0,W
0573E:  MOVWF  xDD
05740:  MOVF   xD3,W
05742:  MULLW  08
05744:  MOVF   FF3,W
05746:  ADDWF  xD1,W
05748:  MOVWF  xDE
0574A:  MOVFF  5D0,5E1
0574E:  MOVFF  5D1,5E2
05752:  MOVFF  5DD,5E3
05756:  MOVWF  xE4
05758:  MOVLW  01
0575A:  MOVWF  xE5
0575C:  CLRF   xE6
0575E:  MOVLB  0
05760:  CALL   49EC
05764:  MOVLW  02
05766:  MOVLB  5
05768:  ADDWF  xD0,W
0576A:  MOVWF  xDD
0576C:  MOVLW  01
0576E:  ADDWF  xD1,W
05770:  MOVWF  xDE
05772:  MOVFF  5DD,5E1
05776:  MOVWF  xE2
05778:  MOVLW  05
0577A:  MOVWF  xE4
0577C:  MOVLW  D4
0577E:  MOVWF  xE3
05780:  MOVFF  5D3,5E5
05784:  MOVLW  01
05786:  MOVWF  xE6
05788:  MOVLB  0
0578A:  CALL   16DA
0578E:  MOVLB  5
....................        
.................... } 
05790:  MOVLB  0
05792:  RETLW  00
....................  
.................... // Funcion para conversor analogo-digital 
.................... unsigned int16 sensores(int x){ 
.................... unsigned int16 y;set_adc_channel(x);delay_ms(1);y=read_adc();return (y); 
*
02EC0:  MOVLB  5
02EC2:  RLCF   xD9,W
02EC4:  MOVWF  00
02EC6:  RLCF   00,F
02EC8:  MOVLW  FC
02ECA:  ANDWF  00,F
02ECC:  MOVFF  00,01
02ED0:  MOVF   FC2,W
02ED2:  ANDLW  C3
02ED4:  IORWF  00,W
02ED6:  MOVWF  FC2
02ED8:  MOVLW  01
02EDA:  MOVWF  xDC
02EDC:  MOVLB  0
02EDE:  CALL   1364
02EE2:  BSF    FC2.1
02EE4:  BTFSC  FC2.1
02EE6:  BRA    2EE4
02EE8:  MOVFF  FC4,5DB
02EEC:  MOVLB  5
02EEE:  MOVFF  FC3,5DA
02EF2:  MOVFF  5DA,01
02EF6:  MOVFF  5DB,02
.................... } 
02EFA:  MOVLB  0
02EFC:  RETLW  00
....................  
....................  
.................... #define   UP               !input(PIN_A5) 
.................... #define   DOWN             !input(PIN_E0) 
.................... #define   RIGHT            !input(PIN_E1) 
.................... #define   LEFT             !input(PIN_E2) 
.................... #define   VIDRIOUP         input(PIN_A3) 
.................... #define   VIDRIODN         input(PIN_A4) 
....................  
.................... #define   Alarma_on           output_bit(PIN_C7,1) 
.................... #define   Alarma_off          output_bit(PIN_C7,0) 
.................... #define   LuzBlanca_on        output_bit(PIN_C0,1) 
.................... #define   LuzBlanca_off       output_bit(PIN_C0,0) 
.................... #define   Aux_on              output_bit(PIN_C1,1) 
.................... #define   Aux_off             output_bit(PIN_C1,0) 
.................... #define   Motor_on            output_bit(PIN_C2,1) 
.................... #define   Motor_off           output_bit(PIN_C2,0) 
.................... #define   Display_on          output_bit(PIN_B1,1) 
.................... #define   Display_off         output_bit(PIN_B1,0) 
....................  
.................... short Flanco=0,Flanco1=0,Flanco2=0,Flanco3=0,Flanco5=0,imprimir=0,flag_blower=0,flag_toma=0,flag_luz=0,flag_alarma=0,w=0; 
.................... short tiempo_purga=0,tiempo_trabajo=0,flag_latencia=0; 
.................... short guardatrabajo=0,Lectura=0,n=0; 
.................... char  JP[] = "JP Inglobal", Cabina[] = "   Estacion de",Dos_puntos[]=":"; 
.................... char  Clase[] = " Trabajo", Tiempo[] = "Tiempo de Purga"; 
.................... char  Inflowt[] = "Vel:",Downflowt[] = "Temperatura", ZF[] = "Fabrica:208.0", ZA[] = "Actual:",AJ[]="Ajuste:"; 
.................... char  Vida_Filtro[] = "T.Trabajo:",ZFP[] = "Fabrica:235.0", Perdida[]="!Filtro Saturado!"; 
.................... int8 Menu=200, unidad=1, Opcion=1,negativo=10,G_l=0,G_h=0,tiemporeset=0; 
.................... int8 q=0,r=0,l=0,h=0,Entero=0,Decimal1=0,Alarma=10; 
....................  
.................... unsigned int16 Inflow_adc=0,Filtro_Downflow_adc=0,Temporal1=0; 
....................  
.................... int16 t_latencia=0,minutos_uv=0,minutos_trabajo=0,G16=0; 
.................... signed int  Tpurga[4]={0,0,0,0};       // Tiempo de Purga transcurrido 
.................... signed int  Tpurgap[4]={9,0,0,0};      // Tiempo de Purga programado 
.................... signed int  Tppurgap[4]={9,0,0,0};     // Tiempo de Post-Purga programado 
.................... signed int  Tuv[4]={0,0,0,0};          // Tiempo de UV transcurrido(en Horas) 
.................... signed int  Tempouvp[4]={0,0,0,0};        // Tiempo de UV transcurrido 
.................... signed int  Ttrabajo[4]={0,0,0,0};        // Tiempo de trabajo transcurrido (en Horas) 
.................... signed int  Contrasena[4]={0,0,0,0};      // Contrasena de 4 digitos 
.................... signed int  Password[4]={0,0,0,0};        // Contrasena Almacenada de 4 digitos 
.................... float Inflow=0.0,Downflow=0.0,Filtro_Downflow=0.0,Diferencia=0.0; 
.................... float Velocidad=0.0,x_uno=0.0,x_cuadrado=0.0,x_cubo=0.0,Ajuste1=0.0,Ajuste2=0.0; 
.................... float Temporal=0.0,Temporal2=0.0; 
.................... float a=0.00000957915546738639,b=-0.00727819571978831,c= 1.85375754678451,d= -156.816806902063; 
.................... //float t=378.463968402560,f=-18275.0402762787;//Sensor 2 Posible bueno 
....................  
.................... float promedio[8]={0.0,0.0,0.0,0.0,0.0,0.0,0.0,0.0}; 
.................... float promedio2[8]={0.0,0.0,0.0,0.0,0.0,0.0,0.0,0.0}; 
.................... float PromPresion[8]={0.0,0.0,0.0,0.0,0.0,0.0,0.0,0.0}; 
.................... float Flujo=0.0,zero_fabrica=208.0,zero_actual=0.0; 
.................... float V1=0.0,Presion=0.0,G=2.0; 
....................  
.................... int16 pulsos=0,retardo=0; 
.................... int8 i=0,l2=0,h2=0,Temperatura=0; 
.................... short Cruce=OFF,Purga=OFF; 
.................... int16 tiempocruce=0; 
.................... int8 Porcentaje=0,VelMotor=0; 
.................... float Tcruce=0.0,Tcruce2=0; 
....................  
.................... #include "Funciones.h" 
.................... float leeTemperatura(int8 media){ 
*
045AC:  MOVLB  5
045AE:  CLRF   xCC
045B0:  CLRF   xCB
045B2:  CLRF   xCA
045B4:  CLRF   xC9
045B6:  CLRF   xD0
045B8:  CLRF   xCF
045BA:  CLRF   xCE
045BC:  CLRF   xCD
045BE:  CLRF   xD4
045C0:  CLRF   xD3
045C2:  CLRF   xD2
045C4:  CLRF   xD1
045C6:  CLRF   xD8
045C8:  CLRF   xD7
045CA:  CLRF   xD6
045CC:  CLRF   xD5
....................    float ADC=0,V=0,T=0,Tempera=0; 
....................    ADC=sensores(0); 
045CE:  CLRF   xD9
045D0:  MOVLB  0
045D2:  CALL   2EC0
045D6:  MOVFF  02,5FE
045DA:  MOVFF  01,5FD
045DE:  CALL   1892
045E2:  MOVFF  03,5CC
045E6:  MOVFF  02,5CB
045EA:  MOVFF  01,5CA
045EE:  MOVFF  00,5C9
....................    V=5*ADC/1023; 
045F2:  MOVLB  5
045F4:  CLRF   xFC
045F6:  CLRF   xFB
045F8:  MOVLW  20
045FA:  MOVWF  xFA
045FC:  MOVLW  81
045FE:  MOVWF  xF9
04600:  MOVFF  5CC,600
04604:  MOVFF  5CB,5FF
04608:  MOVFF  5CA,5FE
0460C:  MOVFF  5C9,5FD
04610:  MOVLB  0
04612:  CALL   2F3A
04616:  MOVFF  00,5D9
0461A:  MOVFF  01,5DA
0461E:  MOVFF  02,5DB
04622:  MOVFF  03,5DC
04626:  MOVFF  03,5FC
0462A:  MOVFF  02,5FB
0462E:  MOVFF  01,5FA
04632:  MOVFF  00,5F9
04636:  MOVLB  6
04638:  CLRF   x00
0463A:  MOVLW  C0
0463C:  MOVLB  5
0463E:  MOVWF  xFF
04640:  MOVLW  7F
04642:  MOVWF  xFE
04644:  MOVLW  88
04646:  MOVWF  xFD
04648:  MOVLB  0
0464A:  CALL   18C8
0464E:  MOVFF  03,5D0
04652:  MOVFF  02,5CF
04656:  MOVFF  01,5CE
0465A:  MOVFF  00,5CD
....................    T=V/0.01; 
0465E:  MOVFF  5D0,5FC
04662:  MOVFF  5CF,5FB
04666:  MOVFF  5CE,5FA
0466A:  MOVFF  5CD,5F9
0466E:  MOVLW  0A
04670:  MOVLB  6
04672:  MOVWF  x00
04674:  MOVLW  D7
04676:  MOVLB  5
04678:  MOVWF  xFF
0467A:  MOVLW  23
0467C:  MOVWF  xFE
0467E:  MOVLW  78
04680:  MOVWF  xFD
04682:  MOVLB  0
04684:  CALL   18C8
04688:  MOVFF  03,5D4
0468C:  MOVFF  02,5D3
04690:  MOVFF  01,5D2
04694:  MOVFF  00,5D1
....................    if(l2>media) 
04698:  MOVLB  5
0469A:  MOVF   xB9,W
0469C:  SUBWF  xC8,W
0469E:  BC    46A2
....................       l2=0; 
046A0:  CLRF   xB9
....................        
....................    promedio2[l2]=T;l2++; 
046A2:  MOVF   xB9,W
046A4:  MULLW  04
046A6:  MOVF   FF3,W
046A8:  CLRF   03
046AA:  ADDLW  5C
046AC:  MOVWF  FE9
046AE:  MOVLW  05
046B0:  ADDWFC 03,W
046B2:  MOVWF  FEA
046B4:  MOVFF  5D1,FEF
046B8:  MOVFF  5D2,FEC
046BC:  MOVFF  5D3,FEC
046C0:  MOVFF  5D4,FEC
046C4:  INCF   xB9,F
....................    Tempera=0; 
046C6:  CLRF   xD8
046C8:  CLRF   xD7
046CA:  CLRF   xD6
046CC:  CLRF   xD5
....................       
....................      for(h2=0;h2<=(media-1);h2++){ 
046CE:  CLRF   xBA
046D0:  MOVLW  01
046D2:  SUBWF  xC8,W
046D4:  SUBWF  xBA,W
046D6:  BZ    46DA
046D8:  BC    474A
....................         Tempera+=promedio2[h2]; 
046DA:  MOVF   xBA,W
046DC:  MULLW  04
046DE:  MOVF   FF3,W
046E0:  CLRF   03
046E2:  ADDLW  5C
046E4:  MOVWF  FE9
046E6:  MOVLW  05
046E8:  ADDWFC 03,W
046EA:  MOVWF  FEA
046EC:  MOVFF  FEF,00
046F0:  MOVFF  FEC,01
046F4:  MOVFF  FEC,02
046F8:  MOVFF  FEC,03
046FC:  MOVFF  FEA,5DA
04700:  MOVFF  FE9,5D9
04704:  BCF    FD8.1
04706:  MOVFF  5D8,600
0470A:  MOVFF  5D7,5FF
0470E:  MOVFF  5D6,5FE
04712:  MOVFF  5D5,5FD
04716:  MOVFF  03,604
0471A:  MOVFF  02,603
0471E:  MOVFF  01,602
04722:  MOVFF  00,601
04726:  MOVLB  0
04728:  CALL   1A66
0472C:  MOVFF  5DA,FEA
04730:  MOVFF  5D9,FE9
04734:  MOVFF  03,5D8
04738:  MOVFF  02,5D7
0473C:  MOVFF  01,5D6
04740:  MOVFF  00,5D5
....................      }       
04744:  MOVLB  5
04746:  INCF   xBA,F
04748:  BRA    46D0
....................    return Tempera/media; 
0474A:  CLRF   xFE
0474C:  MOVFF  5C8,5FD
04750:  MOVLB  0
04752:  CALL   1892
04756:  MOVFF  5D8,5FC
0475A:  MOVFF  5D7,5FB
0475E:  MOVFF  5D6,5FA
04762:  MOVFF  5D5,5F9
04766:  MOVFF  03,600
0476A:  MOVFF  02,5FF
0476E:  MOVFF  01,5FE
04772:  MOVFF  00,5FD
04776:  CALL   18C8
.................... } 
0477A:  GOTO   5FB6 (RETURN)
....................  
.................... void LeeEEPROM(void){ 
....................    Password[0]=read_eeprom(0); 
*
01CE4:  MOVFF  FF2,5C8
01CE8:  BCF    FF2.7
01CEA:  CLRF   FAA
01CEC:  CLRF   FA9
01CEE:  BCF    FA6.6
01CF0:  BCF    FA6.7
01CF2:  BSF    FA6.0
01CF4:  MOVF   FA8,W
01CF6:  MOVLB  5
01CF8:  BTFSC  xC8.7
01CFA:  BSF    FF2.7
01CFC:  MOVLB  4
01CFE:  MOVWF  xF8
....................    delay_ms(10); 
01D00:  MOVLW  0A
01D02:  MOVLB  5
01D04:  MOVWF  xDC
01D06:  MOVLB  0
01D08:  CALL   1364
....................    Password[1]=read_eeprom(1); 
01D0C:  MOVFF  FF2,5C8
01D10:  BCF    FF2.7
01D12:  CLRF   FAA
01D14:  MOVLW  01
01D16:  MOVWF  FA9
01D18:  BCF    FA6.6
01D1A:  BCF    FA6.7
01D1C:  BSF    FA6.0
01D1E:  MOVF   FA8,W
01D20:  MOVLB  5
01D22:  BTFSC  xC8.7
01D24:  BSF    FF2.7
01D26:  MOVLB  4
01D28:  MOVWF  xF9
....................    delay_ms(10); 
01D2A:  MOVLW  0A
01D2C:  MOVLB  5
01D2E:  MOVWF  xDC
01D30:  MOVLB  0
01D32:  CALL   1364
....................    Password[2]=read_eeprom(2); 
01D36:  MOVFF  FF2,5C8
01D3A:  BCF    FF2.7
01D3C:  CLRF   FAA
01D3E:  MOVLW  02
01D40:  MOVWF  FA9
01D42:  BCF    FA6.6
01D44:  BCF    FA6.7
01D46:  BSF    FA6.0
01D48:  MOVF   FA8,W
01D4A:  MOVLB  5
01D4C:  BTFSC  xC8.7
01D4E:  BSF    FF2.7
01D50:  MOVLB  4
01D52:  MOVWF  xFA
....................    delay_ms(10); 
01D54:  MOVLW  0A
01D56:  MOVLB  5
01D58:  MOVWF  xDC
01D5A:  MOVLB  0
01D5C:  CALL   1364
....................    Password[3]=read_eeprom(3); 
01D60:  MOVFF  FF2,5C8
01D64:  BCF    FF2.7
01D66:  CLRF   FAA
01D68:  MOVLW  03
01D6A:  MOVWF  FA9
01D6C:  BCF    FA6.6
01D6E:  BCF    FA6.7
01D70:  BSF    FA6.0
01D72:  MOVF   FA8,W
01D74:  MOVLB  5
01D76:  BTFSC  xC8.7
01D78:  BSF    FF2.7
01D7A:  MOVLB  4
01D7C:  MOVWF  xFB
....................    delay_ms(10); 
01D7E:  MOVLW  0A
01D80:  MOVLB  5
01D82:  MOVWF  xDC
01D84:  MOVLB  0
01D86:  CALL   1364
....................    Tpurgap[0]=read_eeprom(4); 
01D8A:  MOVFF  FF2,5C8
01D8E:  BCF    FF2.7
01D90:  CLRF   FAA
01D92:  MOVLW  04
01D94:  MOVWF  FA9
01D96:  BCF    FA6.6
01D98:  BCF    FA6.7
01D9A:  BSF    FA6.0
01D9C:  MOVF   FA8,W
01D9E:  MOVLB  5
01DA0:  BTFSC  xC8.7
01DA2:  BSF    FF2.7
01DA4:  MOVLB  4
01DA6:  MOVWF  xE0
....................    delay_ms(10); 
01DA8:  MOVLW  0A
01DAA:  MOVLB  5
01DAC:  MOVWF  xDC
01DAE:  MOVLB  0
01DB0:  CALL   1364
....................    Tpurgap[1]=read_eeprom(5); 
01DB4:  MOVFF  FF2,5C8
01DB8:  BCF    FF2.7
01DBA:  CLRF   FAA
01DBC:  MOVLW  05
01DBE:  MOVWF  FA9
01DC0:  BCF    FA6.6
01DC2:  BCF    FA6.7
01DC4:  BSF    FA6.0
01DC6:  MOVF   FA8,W
01DC8:  MOVLB  5
01DCA:  BTFSC  xC8.7
01DCC:  BSF    FF2.7
01DCE:  MOVLB  4
01DD0:  MOVWF  xE1
....................    delay_ms(10); 
01DD2:  MOVLW  0A
01DD4:  MOVLB  5
01DD6:  MOVWF  xDC
01DD8:  MOVLB  0
01DDA:  CALL   1364
....................    Tpurgap[2]=read_eeprom(6); 
01DDE:  MOVFF  FF2,5C8
01DE2:  BCF    FF2.7
01DE4:  CLRF   FAA
01DE6:  MOVLW  06
01DE8:  MOVWF  FA9
01DEA:  BCF    FA6.6
01DEC:  BCF    FA6.7
01DEE:  BSF    FA6.0
01DF0:  MOVF   FA8,W
01DF2:  MOVLB  5
01DF4:  BTFSC  xC8.7
01DF6:  BSF    FF2.7
01DF8:  MOVLB  4
01DFA:  MOVWF  xE2
....................    delay_ms(10); 
01DFC:  MOVLW  0A
01DFE:  MOVLB  5
01E00:  MOVWF  xDC
01E02:  MOVLB  0
01E04:  CALL   1364
....................    Tpurgap[3]=read_eeprom(7); 
01E08:  MOVFF  FF2,5C8
01E0C:  BCF    FF2.7
01E0E:  CLRF   FAA
01E10:  MOVLW  07
01E12:  MOVWF  FA9
01E14:  BCF    FA6.6
01E16:  BCF    FA6.7
01E18:  BSF    FA6.0
01E1A:  MOVF   FA8,W
01E1C:  MOVLB  5
01E1E:  BTFSC  xC8.7
01E20:  BSF    FF2.7
01E22:  MOVLB  4
01E24:  MOVWF  xE3
....................    delay_ms(10); 
01E26:  MOVLW  0A
01E28:  MOVLB  5
01E2A:  MOVWF  xDC
01E2C:  MOVLB  0
01E2E:  CALL   1364
....................    Tppurgap[0]=read_eeprom(8); 
01E32:  MOVFF  FF2,5C8
01E36:  BCF    FF2.7
01E38:  CLRF   FAA
01E3A:  MOVLW  08
01E3C:  MOVWF  FA9
01E3E:  BCF    FA6.6
01E40:  BCF    FA6.7
01E42:  BSF    FA6.0
01E44:  MOVF   FA8,W
01E46:  MOVLB  5
01E48:  BTFSC  xC8.7
01E4A:  BSF    FF2.7
01E4C:  MOVLB  4
01E4E:  MOVWF  xE4
....................    delay_ms(10); 
01E50:  MOVLW  0A
01E52:  MOVLB  5
01E54:  MOVWF  xDC
01E56:  MOVLB  0
01E58:  CALL   1364
....................    Tppurgap[1]=read_eeprom(9); 
01E5C:  MOVFF  FF2,5C8
01E60:  BCF    FF2.7
01E62:  CLRF   FAA
01E64:  MOVLW  09
01E66:  MOVWF  FA9
01E68:  BCF    FA6.6
01E6A:  BCF    FA6.7
01E6C:  BSF    FA6.0
01E6E:  MOVF   FA8,W
01E70:  MOVLB  5
01E72:  BTFSC  xC8.7
01E74:  BSF    FF2.7
01E76:  MOVLB  4
01E78:  MOVWF  xE5
....................    delay_ms(10); 
01E7A:  MOVLW  0A
01E7C:  MOVLB  5
01E7E:  MOVWF  xDC
01E80:  MOVLB  0
01E82:  CALL   1364
....................    Tppurgap[2]=read_eeprom(10); 
01E86:  MOVFF  FF2,5C8
01E8A:  BCF    FF2.7
01E8C:  CLRF   FAA
01E8E:  MOVLW  0A
01E90:  MOVWF  FA9
01E92:  BCF    FA6.6
01E94:  BCF    FA6.7
01E96:  BSF    FA6.0
01E98:  MOVF   FA8,W
01E9A:  MOVLB  5
01E9C:  BTFSC  xC8.7
01E9E:  BSF    FF2.7
01EA0:  MOVLB  4
01EA2:  MOVWF  xE6
....................    delay_ms(10); 
01EA4:  MOVLW  0A
01EA6:  MOVLB  5
01EA8:  MOVWF  xDC
01EAA:  MOVLB  0
01EAC:  CALL   1364
....................    Tppurgap[3]=read_eeprom(11); 
01EB0:  MOVFF  FF2,5C8
01EB4:  BCF    FF2.7
01EB6:  CLRF   FAA
01EB8:  MOVLW  0B
01EBA:  MOVWF  FA9
01EBC:  BCF    FA6.6
01EBE:  BCF    FA6.7
01EC0:  BSF    FA6.0
01EC2:  MOVF   FA8,W
01EC4:  MOVLB  5
01EC6:  BTFSC  xC8.7
01EC8:  BSF    FF2.7
01ECA:  MOVLB  4
01ECC:  MOVWF  xE7
....................    delay_ms(10); 
01ECE:  MOVLW  0A
01ED0:  MOVLB  5
01ED2:  MOVWF  xDC
01ED4:  MOVLB  0
01ED6:  CALL   1364
....................    Tuv[0]=read_eeprom(12); 
01EDA:  MOVFF  FF2,5C8
01EDE:  BCF    FF2.7
01EE0:  CLRF   FAA
01EE2:  MOVLW  0C
01EE4:  MOVWF  FA9
01EE6:  BCF    FA6.6
01EE8:  BCF    FA6.7
01EEA:  BSF    FA6.0
01EEC:  MOVF   FA8,W
01EEE:  MOVLB  5
01EF0:  BTFSC  xC8.7
01EF2:  BSF    FF2.7
01EF4:  MOVLB  4
01EF6:  MOVWF  xE8
....................    delay_ms(10); 
01EF8:  MOVLW  0A
01EFA:  MOVLB  5
01EFC:  MOVWF  xDC
01EFE:  MOVLB  0
01F00:  CALL   1364
....................    Tuv[1]=read_eeprom(13); 
01F04:  MOVFF  FF2,5C8
01F08:  BCF    FF2.7
01F0A:  CLRF   FAA
01F0C:  MOVLW  0D
01F0E:  MOVWF  FA9
01F10:  BCF    FA6.6
01F12:  BCF    FA6.7
01F14:  BSF    FA6.0
01F16:  MOVF   FA8,W
01F18:  MOVLB  5
01F1A:  BTFSC  xC8.7
01F1C:  BSF    FF2.7
01F1E:  MOVLB  4
01F20:  MOVWF  xE9
....................    delay_ms(10); 
01F22:  MOVLW  0A
01F24:  MOVLB  5
01F26:  MOVWF  xDC
01F28:  MOVLB  0
01F2A:  CALL   1364
....................    Tuv[2]=read_eeprom(14); 
01F2E:  MOVFF  FF2,5C8
01F32:  BCF    FF2.7
01F34:  CLRF   FAA
01F36:  MOVLW  0E
01F38:  MOVWF  FA9
01F3A:  BCF    FA6.6
01F3C:  BCF    FA6.7
01F3E:  BSF    FA6.0
01F40:  MOVF   FA8,W
01F42:  MOVLB  5
01F44:  BTFSC  xC8.7
01F46:  BSF    FF2.7
01F48:  MOVLB  4
01F4A:  MOVWF  xEA
....................    delay_ms(10); 
01F4C:  MOVLW  0A
01F4E:  MOVLB  5
01F50:  MOVWF  xDC
01F52:  MOVLB  0
01F54:  CALL   1364
....................    Tuv[3]=read_eeprom(15); 
01F58:  MOVFF  FF2,5C8
01F5C:  BCF    FF2.7
01F5E:  CLRF   FAA
01F60:  MOVLW  0F
01F62:  MOVWF  FA9
01F64:  BCF    FA6.6
01F66:  BCF    FA6.7
01F68:  BSF    FA6.0
01F6A:  MOVF   FA8,W
01F6C:  MOVLB  5
01F6E:  BTFSC  xC8.7
01F70:  BSF    FF2.7
01F72:  MOVLB  4
01F74:  MOVWF  xEB
....................    delay_ms(10); 
01F76:  MOVLW  0A
01F78:  MOVLB  5
01F7A:  MOVWF  xDC
01F7C:  MOVLB  0
01F7E:  CALL   1364
....................    Ttrabajo[0]=read_eeprom(16); 
01F82:  MOVFF  FF2,5C8
01F86:  BCF    FF2.7
01F88:  CLRF   FAA
01F8A:  MOVLW  10
01F8C:  MOVWF  FA9
01F8E:  BCF    FA6.6
01F90:  BCF    FA6.7
01F92:  BSF    FA6.0
01F94:  MOVF   FA8,W
01F96:  MOVLB  5
01F98:  BTFSC  xC8.7
01F9A:  BSF    FF2.7
01F9C:  MOVLB  4
01F9E:  MOVWF  xF0
....................    delay_ms(10); 
01FA0:  MOVLW  0A
01FA2:  MOVLB  5
01FA4:  MOVWF  xDC
01FA6:  MOVLB  0
01FA8:  CALL   1364
....................    Ttrabajo[1]=read_eeprom(17); 
01FAC:  MOVFF  FF2,5C8
01FB0:  BCF    FF2.7
01FB2:  CLRF   FAA
01FB4:  MOVLW  11
01FB6:  MOVWF  FA9
01FB8:  BCF    FA6.6
01FBA:  BCF    FA6.7
01FBC:  BSF    FA6.0
01FBE:  MOVF   FA8,W
01FC0:  MOVLB  5
01FC2:  BTFSC  xC8.7
01FC4:  BSF    FF2.7
01FC6:  MOVLB  4
01FC8:  MOVWF  xF1
....................    delay_ms(10); 
01FCA:  MOVLW  0A
01FCC:  MOVLB  5
01FCE:  MOVWF  xDC
01FD0:  MOVLB  0
01FD2:  CALL   1364
....................    Ttrabajo[2]=read_eeprom(18); 
01FD6:  MOVFF  FF2,5C8
01FDA:  BCF    FF2.7
01FDC:  CLRF   FAA
01FDE:  MOVLW  12
01FE0:  MOVWF  FA9
01FE2:  BCF    FA6.6
01FE4:  BCF    FA6.7
01FE6:  BSF    FA6.0
01FE8:  MOVF   FA8,W
01FEA:  MOVLB  5
01FEC:  BTFSC  xC8.7
01FEE:  BSF    FF2.7
01FF0:  MOVLB  4
01FF2:  MOVWF  xF2
....................    delay_ms(10); 
01FF4:  MOVLW  0A
01FF6:  MOVLB  5
01FF8:  MOVWF  xDC
01FFA:  MOVLB  0
01FFC:  CALL   1364
....................    Ttrabajo[3]=read_eeprom(19); 
02000:  MOVFF  FF2,5C8
02004:  BCF    FF2.7
02006:  CLRF   FAA
02008:  MOVLW  13
0200A:  MOVWF  FA9
0200C:  BCF    FA6.6
0200E:  BCF    FA6.7
02010:  BSF    FA6.0
02012:  MOVF   FA8,W
02014:  MOVLB  5
02016:  BTFSC  xC8.7
02018:  BSF    FF2.7
0201A:  MOVLB  4
0201C:  MOVWF  xF3
....................    delay_ms(10); 
0201E:  MOVLW  0A
02020:  MOVLB  5
02022:  MOVWF  xDC
02024:  MOVLB  0
02026:  CALL   1364
....................    //flag_alarma=read_eeprom(20); 
....................    //delay_ms(10); 
....................    Tempouvp[0]=read_eeprom(21); 
0202A:  MOVFF  FF2,5C8
0202E:  BCF    FF2.7
02030:  CLRF   FAA
02032:  MOVLW  15
02034:  MOVWF  FA9
02036:  BCF    FA6.6
02038:  BCF    FA6.7
0203A:  BSF    FA6.0
0203C:  MOVF   FA8,W
0203E:  MOVLB  5
02040:  BTFSC  xC8.7
02042:  BSF    FF2.7
02044:  MOVLB  4
02046:  MOVWF  xEC
....................    delay_ms(10); 
02048:  MOVLW  0A
0204A:  MOVLB  5
0204C:  MOVWF  xDC
0204E:  MOVLB  0
02050:  CALL   1364
....................    Tempouvp[1]=read_eeprom(22); 
02054:  MOVFF  FF2,5C8
02058:  BCF    FF2.7
0205A:  CLRF   FAA
0205C:  MOVLW  16
0205E:  MOVWF  FA9
02060:  BCF    FA6.6
02062:  BCF    FA6.7
02064:  BSF    FA6.0
02066:  MOVF   FA8,W
02068:  MOVLB  5
0206A:  BTFSC  xC8.7
0206C:  BSF    FF2.7
0206E:  MOVLB  4
02070:  MOVWF  xED
....................    delay_ms(10); 
02072:  MOVLW  0A
02074:  MOVLB  5
02076:  MOVWF  xDC
02078:  MOVLB  0
0207A:  CALL   1364
....................    Tempouvp[2]=read_eeprom(23); 
0207E:  MOVFF  FF2,5C8
02082:  BCF    FF2.7
02084:  CLRF   FAA
02086:  MOVLW  17
02088:  MOVWF  FA9
0208A:  BCF    FA6.6
0208C:  BCF    FA6.7
0208E:  BSF    FA6.0
02090:  MOVF   FA8,W
02092:  MOVLB  5
02094:  BTFSC  xC8.7
02096:  BSF    FF2.7
02098:  MOVLB  4
0209A:  MOVWF  xEE
....................    delay_ms(10); 
0209C:  MOVLW  0A
0209E:  MOVLB  5
020A0:  MOVWF  xDC
020A2:  MOVLB  0
020A4:  CALL   1364
....................    Tempouvp[3]=read_eeprom(24); 
020A8:  MOVFF  FF2,5C8
020AC:  BCF    FF2.7
020AE:  CLRF   FAA
020B0:  MOVLW  18
020B2:  MOVWF  FA9
020B4:  BCF    FA6.6
020B6:  BCF    FA6.7
020B8:  BSF    FA6.0
020BA:  MOVF   FA8,W
020BC:  MOVLB  5
020BE:  BTFSC  xC8.7
020C0:  BSF    FF2.7
020C2:  MOVLB  4
020C4:  MOVWF  xEF
....................     
....................    delay_ms(10); 
020C6:  MOVLW  0A
020C8:  MOVLB  5
020CA:  MOVWF  xDC
020CC:  MOVLB  0
020CE:  CALL   1364
....................    Entero=read_eeprom(25);//Decimal1=read_eeprom(26); 
020D2:  MOVFF  FF2,5C8
020D6:  BCF    FF2.7
020D8:  CLRF   FAA
020DA:  MOVLW  19
020DC:  MOVWF  FA9
020DE:  BCF    FA6.6
020E0:  BCF    FA6.7
020E2:  BSF    FA6.0
020E4:  MOVF   FA8,W
020E6:  MOVLB  5
020E8:  BTFSC  xC8.7
020EA:  BSF    FF2.7
020EC:  MOVLB  4
020EE:  MOVWF  xCB
....................    delay_ms(10); 
020F0:  MOVLW  0A
020F2:  MOVLB  5
020F4:  MOVWF  xDC
020F6:  MOVLB  0
020F8:  CALL   1364
....................    Temporal=read_eeprom(26); 
020FC:  MOVFF  FF2,5C8
02100:  BCF    FF2.7
02102:  CLRF   FAA
02104:  MOVLW  1A
02106:  MOVWF  FA9
02108:  BCF    FA6.6
0210A:  BCF    FA6.7
0210C:  BSF    FA6.0
0210E:  MOVF   FA8,W
02110:  MOVLB  5
02112:  BTFSC  xC8.7
02114:  BSF    FF2.7
02116:  CLRF   xFE
02118:  MOVWF  xFD
0211A:  MOVLB  0
0211C:  CALL   1892
02120:  MOVFF  03,527
02124:  MOVFF  02,526
02128:  MOVFF  01,525
0212C:  MOVFF  00,524
....................    delay_ms(10); 
02130:  MOVLW  0A
02132:  MOVLB  5
02134:  MOVWF  xDC
02136:  MOVLB  0
02138:  CALL   1364
....................    Temporal=Temporal/10.0; 
0213C:  MOVFF  527,5FC
02140:  MOVFF  526,5FB
02144:  MOVFF  525,5FA
02148:  MOVFF  524,5F9
0214C:  MOVLB  6
0214E:  CLRF   x00
02150:  MOVLB  5
02152:  CLRF   xFF
02154:  MOVLW  20
02156:  MOVWF  xFE
02158:  MOVLW  82
0215A:  MOVWF  xFD
0215C:  MOVLB  0
0215E:  CALL   18C8
02162:  MOVFF  03,527
02166:  MOVFF  02,526
0216A:  MOVFF  01,525
0216E:  MOVFF  00,524
....................    Ajuste1=Entero+Temporal; 
02172:  MOVLB  5
02174:  CLRF   xFE
02176:  MOVFF  4CB,5FD
0217A:  MOVLB  0
0217C:  CALL   1892
02180:  BCF    FD8.1
02182:  MOVFF  03,600
02186:  MOVFF  02,5FF
0218A:  MOVFF  01,5FE
0218E:  MOVFF  00,5FD
02192:  MOVFF  527,604
02196:  MOVFF  526,603
0219A:  MOVFF  525,602
0219E:  MOVFF  524,601
021A2:  RCALL  1A66
021A4:  MOVFF  03,51F
021A8:  MOVFF  02,51E
021AC:  MOVFF  01,51D
021B0:  MOVFF  00,51C
....................     
....................     
....................    Entero=read_eeprom(27);//Decimal1=read_eeprom(26); 
021B4:  MOVFF  FF2,5C8
021B8:  BCF    FF2.7
021BA:  CLRF   FAA
021BC:  MOVLW  1B
021BE:  MOVWF  FA9
021C0:  BCF    FA6.6
021C2:  BCF    FA6.7
021C4:  BSF    FA6.0
021C6:  MOVF   FA8,W
021C8:  MOVLB  5
021CA:  BTFSC  xC8.7
021CC:  BSF    FF2.7
021CE:  MOVLB  4
021D0:  MOVWF  xCB
....................    delay_ms(10); 
021D2:  MOVLW  0A
021D4:  MOVLB  5
021D6:  MOVWF  xDC
021D8:  MOVLB  0
021DA:  CALL   1364
....................    Temporal=read_eeprom(28); 
021DE:  MOVFF  FF2,5C8
021E2:  BCF    FF2.7
021E4:  CLRF   FAA
021E6:  MOVLW  1C
021E8:  MOVWF  FA9
021EA:  BCF    FA6.6
021EC:  BCF    FA6.7
021EE:  BSF    FA6.0
021F0:  MOVF   FA8,W
021F2:  MOVLB  5
021F4:  BTFSC  xC8.7
021F6:  BSF    FF2.7
021F8:  CLRF   xFE
021FA:  MOVWF  xFD
021FC:  MOVLB  0
021FE:  CALL   1892
02202:  MOVFF  03,527
02206:  MOVFF  02,526
0220A:  MOVFF  01,525
0220E:  MOVFF  00,524
....................    delay_ms(10); 
02212:  MOVLW  0A
02214:  MOVLB  5
02216:  MOVWF  xDC
02218:  MOVLB  0
0221A:  CALL   1364
....................    Temporal=Temporal/10.0; 
0221E:  MOVFF  527,5FC
02222:  MOVFF  526,5FB
02226:  MOVFF  525,5FA
0222A:  MOVFF  524,5F9
0222E:  MOVLB  6
02230:  CLRF   x00
02232:  MOVLB  5
02234:  CLRF   xFF
02236:  MOVLW  20
02238:  MOVWF  xFE
0223A:  MOVLW  82
0223C:  MOVWF  xFD
0223E:  MOVLB  0
02240:  CALL   18C8
02244:  MOVFF  03,527
02248:  MOVFF  02,526
0224C:  MOVFF  01,525
02250:  MOVFF  00,524
....................    Ajuste2=Entero+Temporal; 
02254:  MOVLB  5
02256:  CLRF   xFE
02258:  MOVFF  4CB,5FD
0225C:  MOVLB  0
0225E:  CALL   1892
02262:  BCF    FD8.1
02264:  MOVFF  03,600
02268:  MOVFF  02,5FF
0226C:  MOVFF  01,5FE
02270:  MOVFF  00,5FD
02274:  MOVFF  527,604
02278:  MOVFF  526,603
0227C:  MOVFF  525,602
02280:  MOVFF  524,601
02284:  CALL   1A66
02288:  MOVFF  03,523
0228C:  MOVFF  02,522
02290:  MOVFF  01,521
02294:  MOVFF  00,520
....................     
....................    zero_actual=make16(read_eeprom(30),read_eeprom(29)); 
02298:  MOVFF  FF2,5C8
0229C:  BCF    FF2.7
0229E:  CLRF   FAA
022A0:  MOVLW  1E
022A2:  MOVWF  FA9
022A4:  BCF    FA6.6
022A6:  BCF    FA6.7
022A8:  BSF    FA6.0
022AA:  MOVF   FA8,W
022AC:  MOVLB  5
022AE:  BTFSC  xC8.7
022B0:  BSF    FF2.7
022B2:  MOVWF  xC9
022B4:  MOVFF  FF2,5CA
022B8:  BCF    FF2.7
022BA:  CLRF   FAA
022BC:  MOVLW  1D
022BE:  MOVWF  FA9
022C0:  BCF    FA6.6
022C2:  BCF    FA6.7
022C4:  BSF    FA6.0
022C6:  MOVF   FA8,W
022C8:  BTFSC  xCA.7
022CA:  BSF    FF2.7
022CC:  MOVWF  xCB
022CE:  MOVFF  5C9,03
022D2:  MOVF   xCB,W
022D4:  MOVWF  xFD
022D6:  MOVFF  03,5FE
022DA:  MOVLB  0
022DC:  CALL   1892
022E0:  MOVFF  03,5A7
022E4:  MOVFF  02,5A6
022E8:  MOVFF  01,5A5
022EC:  MOVFF  00,5A4
....................    delay_ms(10); 
022F0:  MOVLW  0A
022F2:  MOVLB  5
022F4:  MOVWF  xDC
022F6:  MOVLB  0
022F8:  CALL   1364
....................    minutos_trabajo=make16(read_eeprom(34),read_eeprom(33)); 
022FC:  MOVFF  FF2,5C8
02300:  BCF    FF2.7
02302:  CLRF   FAA
02304:  MOVLW  22
02306:  MOVWF  FA9
02308:  BCF    FA6.6
0230A:  BCF    FA6.7
0230C:  BSF    FA6.0
0230E:  MOVF   FA8,W
02310:  MOVLB  5
02312:  BTFSC  xC8.7
02314:  BSF    FF2.7
02316:  MOVWF  xC9
02318:  MOVFF  FF2,5CA
0231C:  BCF    FF2.7
0231E:  CLRF   FAA
02320:  MOVLW  21
02322:  MOVWF  FA9
02324:  BCF    FA6.6
02326:  BCF    FA6.7
02328:  BSF    FA6.0
0232A:  MOVF   FA8,W
0232C:  BTFSC  xCA.7
0232E:  BSF    FF2.7
02330:  MOVWF  xCB
02332:  MOVFF  5C9,4D9
02336:  MOVFF  5CB,4D8
....................    delay_ms(10); 
0233A:  MOVLW  0A
0233C:  MOVWF  xDC
0233E:  MOVLB  0
02340:  CALL   1364
....................    minutos_uv=read_eeprom(31); 
02344:  MOVFF  FF2,5C8
02348:  BCF    FF2.7
0234A:  CLRF   FAA
0234C:  MOVLW  1F
0234E:  MOVWF  FA9
02350:  BCF    FA6.6
02352:  BCF    FA6.7
02354:  BSF    FA6.0
02356:  MOVF   FA8,W
02358:  MOVLB  5
0235A:  BTFSC  xC8.7
0235C:  BSF    FF2.7
0235E:  MOVLB  4
02360:  CLRF   xD7
02362:  MOVWF  xD6
....................    delay_ms(10); 
02364:  MOVLW  0A
02366:  MOVLB  5
02368:  MOVWF  xDC
0236A:  MOVLB  0
0236C:  CALL   1364
....................    VelMotor=read_eeprom(32); 
02370:  MOVFF  FF2,5C8
02374:  BCF    FF2.7
02376:  CLRF   FAA
02378:  MOVLW  20
0237A:  MOVWF  FA9
0237C:  BCF    FA6.6
0237E:  BCF    FA6.7
02380:  BSF    FA6.0
02382:  MOVF   FA8,W
02384:  MOVLB  5
02386:  BTFSC  xC8.7
02388:  BSF    FF2.7
0238A:  MOVWF  xBF
....................    delay_ms(10); 
0238C:  MOVLW  0A
0238E:  MOVWF  xDC
02390:  MOVLB  0
02392:  CALL   1364
....................     
....................    Diferencia=make16(read_eeprom(61),read_eeprom(60)); 
02396:  MOVFF  FF2,5C8
0239A:  BCF    FF2.7
0239C:  CLRF   FAA
0239E:  MOVLW  3D
023A0:  MOVWF  FA9
023A2:  BCF    FA6.6
023A4:  BCF    FA6.7
023A6:  BSF    FA6.0
023A8:  MOVF   FA8,W
023AA:  MOVLB  5
023AC:  BTFSC  xC8.7
023AE:  BSF    FF2.7
023B0:  MOVWF  xC9
023B2:  MOVFF  FF2,5CA
023B6:  BCF    FF2.7
023B8:  CLRF   FAA
023BA:  MOVLW  3C
023BC:  MOVWF  FA9
023BE:  BCF    FA6.6
023C0:  BCF    FA6.7
023C2:  BSF    FA6.0
023C4:  MOVF   FA8,W
023C6:  BTFSC  xCA.7
023C8:  BSF    FF2.7
023CA:  MOVWF  xCB
023CC:  MOVFF  5C9,03
023D0:  MOVF   xCB,W
023D2:  MOVWF  xFD
023D4:  MOVFF  03,5FE
023D8:  MOVLB  0
023DA:  CALL   1892
023DE:  MOVFF  03,50B
023E2:  MOVFF  02,50A
023E6:  MOVFF  01,509
023EA:  MOVFF  00,508
....................    delay_ms(10); 
023EE:  MOVLW  0A
023F0:  MOVLB  5
023F2:  MOVWF  xDC
023F4:  MOVLB  0
023F6:  CALL   1364
....................    G=make16(read_eeprom(63),read_eeprom(62)); 
023FA:  MOVFF  FF2,5C8
023FE:  BCF    FF2.7
02400:  CLRF   FAA
02402:  MOVLW  3F
02404:  MOVWF  FA9
02406:  BCF    FA6.6
02408:  BCF    FA6.7
0240A:  BSF    FA6.0
0240C:  MOVF   FA8,W
0240E:  MOVLB  5
02410:  BTFSC  xC8.7
02412:  BSF    FF2.7
02414:  MOVWF  xC9
02416:  MOVFF  FF2,5CA
0241A:  BCF    FF2.7
0241C:  CLRF   FAA
0241E:  MOVLW  3E
02420:  MOVWF  FA9
02422:  BCF    FA6.6
02424:  BCF    FA6.7
02426:  BSF    FA6.0
02428:  MOVF   FA8,W
0242A:  BTFSC  xCA.7
0242C:  BSF    FF2.7
0242E:  MOVWF  xCB
02430:  MOVFF  5C9,03
02434:  MOVF   xCB,W
02436:  MOVWF  xFD
02438:  MOVFF  03,5FE
0243C:  MOVLB  0
0243E:  CALL   1892
02442:  MOVFF  03,5B3
02446:  MOVFF  02,5B2
0244A:  MOVFF  01,5B1
0244E:  MOVFF  00,5B0
....................    delay_ms(10); 
02452:  MOVLW  0A
02454:  MOVLB  5
02456:  MOVWF  xDC
02458:  MOVLB  0
0245A:  CALL   1364
....................    negativo=read_eeprom(50); 
0245E:  MOVFF  FF2,5C8
02462:  BCF    FF2.7
02464:  CLRF   FAA
02466:  MOVLW  32
02468:  MOVWF  FA9
0246A:  BCF    FA6.6
0246C:  BCF    FA6.7
0246E:  BSF    FA6.0
02470:  MOVF   FA8,W
02472:  MOVLB  5
02474:  BTFSC  xC8.7
02476:  BSF    FF2.7
02478:  MOVLB  4
0247A:  MOVWF  xC3
....................    delay_ms(10); 
0247C:  MOVLW  0A
0247E:  MOVLB  5
02480:  MOVWF  xDC
02482:  MOVLB  0
02484:  CALL   1364
....................  
.................... } 
02488:  GOTO   5F7E (RETURN)
....................  
.................... void LimitaValores(void){ 
....................    if(Password[0]>9 || Password[0]<0){ 
*
02536:  MOVLB  4
02538:  BTFSC  xF8.7
0253A:  BRA    2542
0253C:  MOVF   xF8,W
0253E:  SUBLW  09
02540:  BNC   2546
02542:  BTFSS  xF8.7
02544:  BRA    2572
....................       Password[0]=0;write_eeprom(0,0); 
02546:  CLRF   xF8
02548:  CLRF   FAA
0254A:  CLRF   FA9
0254C:  CLRF   FA8
0254E:  BCF    FA6.6
02550:  BCF    FA6.7
02552:  BSF    FA6.2
02554:  MOVF   FF2,W
02556:  MOVWF  00
02558:  BCF    FF2.7
0255A:  MOVLB  F
0255C:  MOVLW  55
0255E:  MOVWF  FA7
02560:  MOVLW  AA
02562:  MOVWF  FA7
02564:  BSF    FA6.1
02566:  BTFSC  FA6.1
02568:  BRA    2566
0256A:  BCF    FA6.2
0256C:  MOVF   00,W
0256E:  IORWF  FF2,F
02570:  MOVLB  4
....................    } 
....................    if(Password[1]>9 || Password[1]<0){ 
02572:  BTFSC  xF9.7
02574:  BRA    257C
02576:  MOVF   xF9,W
02578:  SUBLW  09
0257A:  BNC   2580
0257C:  BTFSS  xF9.7
0257E:  BRA    25AE
....................       Password[1]=0;write_eeprom(1,0); 
02580:  CLRF   xF9
02582:  CLRF   FAA
02584:  MOVLW  01
02586:  MOVWF  FA9
02588:  CLRF   FA8
0258A:  BCF    FA6.6
0258C:  BCF    FA6.7
0258E:  BSF    FA6.2
02590:  MOVF   FF2,W
02592:  MOVWF  00
02594:  BCF    FF2.7
02596:  MOVLB  F
02598:  MOVLW  55
0259A:  MOVWF  FA7
0259C:  MOVLW  AA
0259E:  MOVWF  FA7
025A0:  BSF    FA6.1
025A2:  BTFSC  FA6.1
025A4:  BRA    25A2
025A6:  BCF    FA6.2
025A8:  MOVF   00,W
025AA:  IORWF  FF2,F
025AC:  MOVLB  4
....................    } 
....................    if(Password[2]>9 || Password[2]<0){ 
025AE:  BTFSC  xFA.7
025B0:  BRA    25B8
025B2:  MOVF   xFA,W
025B4:  SUBLW  09
025B6:  BNC   25BC
025B8:  BTFSS  xFA.7
025BA:  BRA    25EA
....................       Password[2]=0;write_eeprom(2,0); 
025BC:  CLRF   xFA
025BE:  CLRF   FAA
025C0:  MOVLW  02
025C2:  MOVWF  FA9
025C4:  CLRF   FA8
025C6:  BCF    FA6.6
025C8:  BCF    FA6.7
025CA:  BSF    FA6.2
025CC:  MOVF   FF2,W
025CE:  MOVWF  00
025D0:  BCF    FF2.7
025D2:  MOVLB  F
025D4:  MOVLW  55
025D6:  MOVWF  FA7
025D8:  MOVLW  AA
025DA:  MOVWF  FA7
025DC:  BSF    FA6.1
025DE:  BTFSC  FA6.1
025E0:  BRA    25DE
025E2:  BCF    FA6.2
025E4:  MOVF   00,W
025E6:  IORWF  FF2,F
025E8:  MOVLB  4
....................    } 
....................    if(Password[3]>9 || Password[3]<0){ 
025EA:  BTFSC  xFB.7
025EC:  BRA    25F4
025EE:  MOVF   xFB,W
025F0:  SUBLW  09
025F2:  BNC   25FA
025F4:  BTFSC  xFB.7
025F6:  BRA    25FA
025F8:  BRA    2628
....................       Password[3]=0;write_eeprom(3,0); 
025FA:  CLRF   xFB
025FC:  CLRF   FAA
025FE:  MOVLW  03
02600:  MOVWF  FA9
02602:  CLRF   FA8
02604:  BCF    FA6.6
02606:  BCF    FA6.7
02608:  BSF    FA6.2
0260A:  MOVF   FF2,W
0260C:  MOVWF  00
0260E:  BCF    FF2.7
02610:  MOVLB  F
02612:  MOVLW  55
02614:  MOVWF  FA7
02616:  MOVLW  AA
02618:  MOVWF  FA7
0261A:  BSF    FA6.1
0261C:  BTFSC  FA6.1
0261E:  BRA    261C
02620:  BCF    FA6.2
02622:  MOVF   00,W
02624:  IORWF  FF2,F
02626:  MOVLB  4
....................    } 
....................    if(Tpurgap[0]>9 || Tpurgap[0]<0){ 
02628:  BTFSC  xE0.7
0262A:  BRA    2632
0262C:  MOVF   xE0,W
0262E:  SUBLW  09
02630:  BNC   2638
02632:  BTFSC  xE0.7
02634:  BRA    2638
02636:  BRA    2666
....................       Tpurgap[0]=0;write_eeprom(4,0); 
02638:  CLRF   xE0
0263A:  CLRF   FAA
0263C:  MOVLW  04
0263E:  MOVWF  FA9
02640:  CLRF   FA8
02642:  BCF    FA6.6
02644:  BCF    FA6.7
02646:  BSF    FA6.2
02648:  MOVF   FF2,W
0264A:  MOVWF  00
0264C:  BCF    FF2.7
0264E:  MOVLB  F
02650:  MOVLW  55
02652:  MOVWF  FA7
02654:  MOVLW  AA
02656:  MOVWF  FA7
02658:  BSF    FA6.1
0265A:  BTFSC  FA6.1
0265C:  BRA    265A
0265E:  BCF    FA6.2
02660:  MOVF   00,W
02662:  IORWF  FF2,F
02664:  MOVLB  4
....................    } 
....................    if(Tpurgap[1]>9 || Tpurgap[1]<0){ 
02666:  BTFSC  xE1.7
02668:  BRA    2670
0266A:  MOVF   xE1,W
0266C:  SUBLW  09
0266E:  BNC   2676
02670:  BTFSC  xE1.7
02672:  BRA    2676
02674:  BRA    26A4
....................       Tpurgap[1]=0;write_eeprom(5,0); 
02676:  CLRF   xE1
02678:  CLRF   FAA
0267A:  MOVLW  05
0267C:  MOVWF  FA9
0267E:  CLRF   FA8
02680:  BCF    FA6.6
02682:  BCF    FA6.7
02684:  BSF    FA6.2
02686:  MOVF   FF2,W
02688:  MOVWF  00
0268A:  BCF    FF2.7
0268C:  MOVLB  F
0268E:  MOVLW  55
02690:  MOVWF  FA7
02692:  MOVLW  AA
02694:  MOVWF  FA7
02696:  BSF    FA6.1
02698:  BTFSC  FA6.1
0269A:  BRA    2698
0269C:  BCF    FA6.2
0269E:  MOVF   00,W
026A0:  IORWF  FF2,F
026A2:  MOVLB  4
....................    } 
....................    if(Tpurgap[2]>9 || Tpurgap[2]<0){ 
026A4:  BTFSC  xE2.7
026A6:  BRA    26AE
026A8:  MOVF   xE2,W
026AA:  SUBLW  09
026AC:  BNC   26B4
026AE:  BTFSC  xE2.7
026B0:  BRA    26B4
026B2:  BRA    26E6
....................       Tpurgap[2]=2;write_eeprom(6,2); 
026B4:  MOVLW  02
026B6:  MOVWF  xE2
026B8:  CLRF   FAA
026BA:  MOVLW  06
026BC:  MOVWF  FA9
026BE:  MOVLW  02
026C0:  MOVWF  FA8
026C2:  BCF    FA6.6
026C4:  BCF    FA6.7
026C6:  BSF    FA6.2
026C8:  MOVF   FF2,W
026CA:  MOVWF  00
026CC:  BCF    FF2.7
026CE:  MOVLB  F
026D0:  MOVLW  55
026D2:  MOVWF  FA7
026D4:  MOVLW  AA
026D6:  MOVWF  FA7
026D8:  BSF    FA6.1
026DA:  BTFSC  FA6.1
026DC:  BRA    26DA
026DE:  BCF    FA6.2
026E0:  MOVF   00,W
026E2:  IORWF  FF2,F
026E4:  MOVLB  4
....................    } 
....................    if(Tpurgap[3]>9 || Tpurgap[3]<0){ 
026E6:  BTFSC  xE3.7
026E8:  BRA    26F0
026EA:  MOVF   xE3,W
026EC:  SUBLW  09
026EE:  BNC   26F6
026F0:  BTFSC  xE3.7
026F2:  BRA    26F6
026F4:  BRA    2724
....................       Tpurgap[3]=0;write_eeprom(7,0); 
026F6:  CLRF   xE3
026F8:  CLRF   FAA
026FA:  MOVLW  07
026FC:  MOVWF  FA9
026FE:  CLRF   FA8
02700:  BCF    FA6.6
02702:  BCF    FA6.7
02704:  BSF    FA6.2
02706:  MOVF   FF2,W
02708:  MOVWF  00
0270A:  BCF    FF2.7
0270C:  MOVLB  F
0270E:  MOVLW  55
02710:  MOVWF  FA7
02712:  MOVLW  AA
02714:  MOVWF  FA7
02716:  BSF    FA6.1
02718:  BTFSC  FA6.1
0271A:  BRA    2718
0271C:  BCF    FA6.2
0271E:  MOVF   00,W
02720:  IORWF  FF2,F
02722:  MOVLB  4
....................    } 
....................    if(Tppurgap[0]>9 || Tppurgap[0]<0){ 
02724:  BTFSC  xE4.7
02726:  BRA    272E
02728:  MOVF   xE4,W
0272A:  SUBLW  09
0272C:  BNC   2734
0272E:  BTFSC  xE4.7
02730:  BRA    2734
02732:  BRA    2762
....................       Tppurgap[0]=0;write_eeprom(8,0); 
02734:  CLRF   xE4
02736:  CLRF   FAA
02738:  MOVLW  08
0273A:  MOVWF  FA9
0273C:  CLRF   FA8
0273E:  BCF    FA6.6
02740:  BCF    FA6.7
02742:  BSF    FA6.2
02744:  MOVF   FF2,W
02746:  MOVWF  00
02748:  BCF    FF2.7
0274A:  MOVLB  F
0274C:  MOVLW  55
0274E:  MOVWF  FA7
02750:  MOVLW  AA
02752:  MOVWF  FA7
02754:  BSF    FA6.1
02756:  BTFSC  FA6.1
02758:  BRA    2756
0275A:  BCF    FA6.2
0275C:  MOVF   00,W
0275E:  IORWF  FF2,F
02760:  MOVLB  4
....................    } 
....................    if(Tppurgap[1]>9 || Tppurgap[1]<0){ 
02762:  BTFSC  xE5.7
02764:  BRA    276C
02766:  MOVF   xE5,W
02768:  SUBLW  09
0276A:  BNC   2772
0276C:  BTFSC  xE5.7
0276E:  BRA    2772
02770:  BRA    27A0
....................       Tppurgap[1]=0;write_eeprom(9,0); 
02772:  CLRF   xE5
02774:  CLRF   FAA
02776:  MOVLW  09
02778:  MOVWF  FA9
0277A:  CLRF   FA8
0277C:  BCF    FA6.6
0277E:  BCF    FA6.7
02780:  BSF    FA6.2
02782:  MOVF   FF2,W
02784:  MOVWF  00
02786:  BCF    FF2.7
02788:  MOVLB  F
0278A:  MOVLW  55
0278C:  MOVWF  FA7
0278E:  MOVLW  AA
02790:  MOVWF  FA7
02792:  BSF    FA6.1
02794:  BTFSC  FA6.1
02796:  BRA    2794
02798:  BCF    FA6.2
0279A:  MOVF   00,W
0279C:  IORWF  FF2,F
0279E:  MOVLB  4
....................    } 
....................    if(Tppurgap[2]>9 || Tppurgap[2]<0){ 
027A0:  BTFSC  xE6.7
027A2:  BRA    27AA
027A4:  MOVF   xE6,W
027A6:  SUBLW  09
027A8:  BNC   27B0
027AA:  BTFSC  xE6.7
027AC:  BRA    27B0
027AE:  BRA    27E2
....................       Tppurgap[2]=2;write_eeprom(10,2); 
027B0:  MOVLW  02
027B2:  MOVWF  xE6
027B4:  CLRF   FAA
027B6:  MOVLW  0A
027B8:  MOVWF  FA9
027BA:  MOVLW  02
027BC:  MOVWF  FA8
027BE:  BCF    FA6.6
027C0:  BCF    FA6.7
027C2:  BSF    FA6.2
027C4:  MOVF   FF2,W
027C6:  MOVWF  00
027C8:  BCF    FF2.7
027CA:  MOVLB  F
027CC:  MOVLW  55
027CE:  MOVWF  FA7
027D0:  MOVLW  AA
027D2:  MOVWF  FA7
027D4:  BSF    FA6.1
027D6:  BTFSC  FA6.1
027D8:  BRA    27D6
027DA:  BCF    FA6.2
027DC:  MOVF   00,W
027DE:  IORWF  FF2,F
027E0:  MOVLB  4
....................    } 
....................    if(Tppurgap[3]>9 || Tppurgap[3]<0){ 
027E2:  BTFSC  xE7.7
027E4:  BRA    27EC
027E6:  MOVF   xE7,W
027E8:  SUBLW  09
027EA:  BNC   27F2
027EC:  BTFSC  xE7.7
027EE:  BRA    27F2
027F0:  BRA    2820
....................       Tppurgap[3]=0;write_eeprom(11,0); 
027F2:  CLRF   xE7
027F4:  CLRF   FAA
027F6:  MOVLW  0B
027F8:  MOVWF  FA9
027FA:  CLRF   FA8
027FC:  BCF    FA6.6
027FE:  BCF    FA6.7
02800:  BSF    FA6.2
02802:  MOVF   FF2,W
02804:  MOVWF  00
02806:  BCF    FF2.7
02808:  MOVLB  F
0280A:  MOVLW  55
0280C:  MOVWF  FA7
0280E:  MOVLW  AA
02810:  MOVWF  FA7
02812:  BSF    FA6.1
02814:  BTFSC  FA6.1
02816:  BRA    2814
02818:  BCF    FA6.2
0281A:  MOVF   00,W
0281C:  IORWF  FF2,F
0281E:  MOVLB  4
....................    } 
....................    if(Tuv[0]>9 || Tuv[0]<0){ 
02820:  BTFSC  xE8.7
02822:  BRA    282A
02824:  MOVF   xE8,W
02826:  SUBLW  09
02828:  BNC   2830
0282A:  BTFSC  xE8.7
0282C:  BRA    2830
0282E:  BRA    285E
....................       Tuv[0]=0;write_eeprom(12,0); 
02830:  CLRF   xE8
02832:  CLRF   FAA
02834:  MOVLW  0C
02836:  MOVWF  FA9
02838:  CLRF   FA8
0283A:  BCF    FA6.6
0283C:  BCF    FA6.7
0283E:  BSF    FA6.2
02840:  MOVF   FF2,W
02842:  MOVWF  00
02844:  BCF    FF2.7
02846:  MOVLB  F
02848:  MOVLW  55
0284A:  MOVWF  FA7
0284C:  MOVLW  AA
0284E:  MOVWF  FA7
02850:  BSF    FA6.1
02852:  BTFSC  FA6.1
02854:  BRA    2852
02856:  BCF    FA6.2
02858:  MOVF   00,W
0285A:  IORWF  FF2,F
0285C:  MOVLB  4
....................    } 
....................    if(Tuv[1]>9 || Tuv[1]<0){ 
0285E:  BTFSC  xE9.7
02860:  BRA    2868
02862:  MOVF   xE9,W
02864:  SUBLW  09
02866:  BNC   286E
02868:  BTFSC  xE9.7
0286A:  BRA    286E
0286C:  BRA    289C
....................       Tuv[1]=0;write_eeprom(13,0); 
0286E:  CLRF   xE9
02870:  CLRF   FAA
02872:  MOVLW  0D
02874:  MOVWF  FA9
02876:  CLRF   FA8
02878:  BCF    FA6.6
0287A:  BCF    FA6.7
0287C:  BSF    FA6.2
0287E:  MOVF   FF2,W
02880:  MOVWF  00
02882:  BCF    FF2.7
02884:  MOVLB  F
02886:  MOVLW  55
02888:  MOVWF  FA7
0288A:  MOVLW  AA
0288C:  MOVWF  FA7
0288E:  BSF    FA6.1
02890:  BTFSC  FA6.1
02892:  BRA    2890
02894:  BCF    FA6.2
02896:  MOVF   00,W
02898:  IORWF  FF2,F
0289A:  MOVLB  4
....................    } 
....................    if(Tuv[2]>9 || Tuv[2]<0){ 
0289C:  BTFSC  xEA.7
0289E:  BRA    28A6
028A0:  MOVF   xEA,W
028A2:  SUBLW  09
028A4:  BNC   28AC
028A6:  BTFSC  xEA.7
028A8:  BRA    28AC
028AA:  BRA    28DA
....................       Tuv[2]=0;write_eeprom(14,0); 
028AC:  CLRF   xEA
028AE:  CLRF   FAA
028B0:  MOVLW  0E
028B2:  MOVWF  FA9
028B4:  CLRF   FA8
028B6:  BCF    FA6.6
028B8:  BCF    FA6.7
028BA:  BSF    FA6.2
028BC:  MOVF   FF2,W
028BE:  MOVWF  00
028C0:  BCF    FF2.7
028C2:  MOVLB  F
028C4:  MOVLW  55
028C6:  MOVWF  FA7
028C8:  MOVLW  AA
028CA:  MOVWF  FA7
028CC:  BSF    FA6.1
028CE:  BTFSC  FA6.1
028D0:  BRA    28CE
028D2:  BCF    FA6.2
028D4:  MOVF   00,W
028D6:  IORWF  FF2,F
028D8:  MOVLB  4
....................    } 
....................    if(Tuv[3]>9 || Tuv[3]<0){ 
028DA:  BTFSC  xEB.7
028DC:  BRA    28E4
028DE:  MOVF   xEB,W
028E0:  SUBLW  09
028E2:  BNC   28EA
028E4:  BTFSC  xEB.7
028E6:  BRA    28EA
028E8:  BRA    2918
....................       Tuv[3]=0;write_eeprom(15,0); 
028EA:  CLRF   xEB
028EC:  CLRF   FAA
028EE:  MOVLW  0F
028F0:  MOVWF  FA9
028F2:  CLRF   FA8
028F4:  BCF    FA6.6
028F6:  BCF    FA6.7
028F8:  BSF    FA6.2
028FA:  MOVF   FF2,W
028FC:  MOVWF  00
028FE:  BCF    FF2.7
02900:  MOVLB  F
02902:  MOVLW  55
02904:  MOVWF  FA7
02906:  MOVLW  AA
02908:  MOVWF  FA7
0290A:  BSF    FA6.1
0290C:  BTFSC  FA6.1
0290E:  BRA    290C
02910:  BCF    FA6.2
02912:  MOVF   00,W
02914:  IORWF  FF2,F
02916:  MOVLB  4
....................    } 
....................    if(Ttrabajo[0]>9 || Ttrabajo[0]<0){ 
02918:  BTFSC  xF0.7
0291A:  BRA    2922
0291C:  MOVF   xF0,W
0291E:  SUBLW  09
02920:  BNC   2928
02922:  BTFSC  xF0.7
02924:  BRA    2928
02926:  BRA    2956
....................       Ttrabajo[0]=0;write_eeprom(16,0); 
02928:  CLRF   xF0
0292A:  CLRF   FAA
0292C:  MOVLW  10
0292E:  MOVWF  FA9
02930:  CLRF   FA8
02932:  BCF    FA6.6
02934:  BCF    FA6.7
02936:  BSF    FA6.2
02938:  MOVF   FF2,W
0293A:  MOVWF  00
0293C:  BCF    FF2.7
0293E:  MOVLB  F
02940:  MOVLW  55
02942:  MOVWF  FA7
02944:  MOVLW  AA
02946:  MOVWF  FA7
02948:  BSF    FA6.1
0294A:  BTFSC  FA6.1
0294C:  BRA    294A
0294E:  BCF    FA6.2
02950:  MOVF   00,W
02952:  IORWF  FF2,F
02954:  MOVLB  4
....................    } 
....................    if(Ttrabajo[1]>9 || Ttrabajo[1]<0){ 
02956:  BTFSC  xF1.7
02958:  BRA    2960
0295A:  MOVF   xF1,W
0295C:  SUBLW  09
0295E:  BNC   2966
02960:  BTFSC  xF1.7
02962:  BRA    2966
02964:  BRA    2994
....................       Ttrabajo[1]=0;write_eeprom(17,0); 
02966:  CLRF   xF1
02968:  CLRF   FAA
0296A:  MOVLW  11
0296C:  MOVWF  FA9
0296E:  CLRF   FA8
02970:  BCF    FA6.6
02972:  BCF    FA6.7
02974:  BSF    FA6.2
02976:  MOVF   FF2,W
02978:  MOVWF  00
0297A:  BCF    FF2.7
0297C:  MOVLB  F
0297E:  MOVLW  55
02980:  MOVWF  FA7
02982:  MOVLW  AA
02984:  MOVWF  FA7
02986:  BSF    FA6.1
02988:  BTFSC  FA6.1
0298A:  BRA    2988
0298C:  BCF    FA6.2
0298E:  MOVF   00,W
02990:  IORWF  FF2,F
02992:  MOVLB  4
....................    } 
....................    if(Ttrabajo[2]>9 || Ttrabajo[2]<0){ 
02994:  BTFSC  xF2.7
02996:  BRA    299E
02998:  MOVF   xF2,W
0299A:  SUBLW  09
0299C:  BNC   29A4
0299E:  BTFSC  xF2.7
029A0:  BRA    29A4
029A2:  BRA    29D2
....................       Ttrabajo[2]=0;write_eeprom(18,0); 
029A4:  CLRF   xF2
029A6:  CLRF   FAA
029A8:  MOVLW  12
029AA:  MOVWF  FA9
029AC:  CLRF   FA8
029AE:  BCF    FA6.6
029B0:  BCF    FA6.7
029B2:  BSF    FA6.2
029B4:  MOVF   FF2,W
029B6:  MOVWF  00
029B8:  BCF    FF2.7
029BA:  MOVLB  F
029BC:  MOVLW  55
029BE:  MOVWF  FA7
029C0:  MOVLW  AA
029C2:  MOVWF  FA7
029C4:  BSF    FA6.1
029C6:  BTFSC  FA6.1
029C8:  BRA    29C6
029CA:  BCF    FA6.2
029CC:  MOVF   00,W
029CE:  IORWF  FF2,F
029D0:  MOVLB  4
....................    } 
....................    if(Ttrabajo[3]>9 || Ttrabajo[3]<0){ 
029D2:  BTFSC  xF3.7
029D4:  BRA    29DC
029D6:  MOVF   xF3,W
029D8:  SUBLW  09
029DA:  BNC   29E2
029DC:  BTFSC  xF3.7
029DE:  BRA    29E2
029E0:  BRA    2A10
....................       Ttrabajo[3]=0;write_eeprom(19,0); 
029E2:  CLRF   xF3
029E4:  CLRF   FAA
029E6:  MOVLW  13
029E8:  MOVWF  FA9
029EA:  CLRF   FA8
029EC:  BCF    FA6.6
029EE:  BCF    FA6.7
029F0:  BSF    FA6.2
029F2:  MOVF   FF2,W
029F4:  MOVWF  00
029F6:  BCF    FF2.7
029F8:  MOVLB  F
029FA:  MOVLW  55
029FC:  MOVWF  FA7
029FE:  MOVLW  AA
02A00:  MOVWF  FA7
02A02:  BSF    FA6.1
02A04:  BTFSC  FA6.1
02A06:  BRA    2A04
02A08:  BCF    FA6.2
02A0A:  MOVF   00,W
02A0C:  IORWF  FF2,F
02A0E:  MOVLB  4
....................    } 
....................    if(Tempouvp[0]>9 || Tempouvp[0]<0){ 
02A10:  BTFSC  xEC.7
02A12:  BRA    2A1A
02A14:  MOVF   xEC,W
02A16:  SUBLW  09
02A18:  BNC   2A20
02A1A:  BTFSC  xEC.7
02A1C:  BRA    2A20
02A1E:  BRA    2A4E
....................       Tempouvp[0]=0;write_eeprom(21,0); 
02A20:  CLRF   xEC
02A22:  CLRF   FAA
02A24:  MOVLW  15
02A26:  MOVWF  FA9
02A28:  CLRF   FA8
02A2A:  BCF    FA6.6
02A2C:  BCF    FA6.7
02A2E:  BSF    FA6.2
02A30:  MOVF   FF2,W
02A32:  MOVWF  00
02A34:  BCF    FF2.7
02A36:  MOVLB  F
02A38:  MOVLW  55
02A3A:  MOVWF  FA7
02A3C:  MOVLW  AA
02A3E:  MOVWF  FA7
02A40:  BSF    FA6.1
02A42:  BTFSC  FA6.1
02A44:  BRA    2A42
02A46:  BCF    FA6.2
02A48:  MOVF   00,W
02A4A:  IORWF  FF2,F
02A4C:  MOVLB  4
....................    } 
....................    if(Tempouvp[1]>9 || Tempouvp[1]<0){ 
02A4E:  BTFSC  xED.7
02A50:  BRA    2A58
02A52:  MOVF   xED,W
02A54:  SUBLW  09
02A56:  BNC   2A5E
02A58:  BTFSC  xED.7
02A5A:  BRA    2A5E
02A5C:  BRA    2A8C
....................       Tempouvp[1]=0;write_eeprom(22,0); 
02A5E:  CLRF   xED
02A60:  CLRF   FAA
02A62:  MOVLW  16
02A64:  MOVWF  FA9
02A66:  CLRF   FA8
02A68:  BCF    FA6.6
02A6A:  BCF    FA6.7
02A6C:  BSF    FA6.2
02A6E:  MOVF   FF2,W
02A70:  MOVWF  00
02A72:  BCF    FF2.7
02A74:  MOVLB  F
02A76:  MOVLW  55
02A78:  MOVWF  FA7
02A7A:  MOVLW  AA
02A7C:  MOVWF  FA7
02A7E:  BSF    FA6.1
02A80:  BTFSC  FA6.1
02A82:  BRA    2A80
02A84:  BCF    FA6.2
02A86:  MOVF   00,W
02A88:  IORWF  FF2,F
02A8A:  MOVLB  4
....................    } 
....................    if(Tempouvp[2]>9 || Tempouvp[2]<0){ 
02A8C:  BTFSC  xEE.7
02A8E:  BRA    2A96
02A90:  MOVF   xEE,W
02A92:  SUBLW  09
02A94:  BNC   2A9C
02A96:  BTFSC  xEE.7
02A98:  BRA    2A9C
02A9A:  BRA    2ACA
....................       Tempouvp[2]=0;write_eeprom(23,0); 
02A9C:  CLRF   xEE
02A9E:  CLRF   FAA
02AA0:  MOVLW  17
02AA2:  MOVWF  FA9
02AA4:  CLRF   FA8
02AA6:  BCF    FA6.6
02AA8:  BCF    FA6.7
02AAA:  BSF    FA6.2
02AAC:  MOVF   FF2,W
02AAE:  MOVWF  00
02AB0:  BCF    FF2.7
02AB2:  MOVLB  F
02AB4:  MOVLW  55
02AB6:  MOVWF  FA7
02AB8:  MOVLW  AA
02ABA:  MOVWF  FA7
02ABC:  BSF    FA6.1
02ABE:  BTFSC  FA6.1
02AC0:  BRA    2ABE
02AC2:  BCF    FA6.2
02AC4:  MOVF   00,W
02AC6:  IORWF  FF2,F
02AC8:  MOVLB  4
....................    } 
....................    if(Tempouvp[3]>9 || Tempouvp[3]<0){ 
02ACA:  BTFSC  xEF.7
02ACC:  BRA    2AD4
02ACE:  MOVF   xEF,W
02AD0:  SUBLW  09
02AD2:  BNC   2ADA
02AD4:  BTFSC  xEF.7
02AD6:  BRA    2ADA
02AD8:  BRA    2B0A
....................       Tempouvp[3]=1;write_eeprom(24,1); 
02ADA:  MOVLW  01
02ADC:  MOVWF  xEF
02ADE:  CLRF   FAA
02AE0:  MOVLW  18
02AE2:  MOVWF  FA9
02AE4:  MOVLW  01
02AE6:  MOVWF  FA8
02AE8:  BCF    FA6.6
02AEA:  BCF    FA6.7
02AEC:  BSF    FA6.2
02AEE:  MOVF   FF2,W
02AF0:  MOVWF  00
02AF2:  BCF    FF2.7
02AF4:  MOVLB  F
02AF6:  MOVLW  55
02AF8:  MOVWF  FA7
02AFA:  MOVLW  AA
02AFC:  MOVWF  FA7
02AFE:  BSF    FA6.1
02B00:  BTFSC  FA6.1
02B02:  BRA    2B00
02B04:  BCF    FA6.2
02B06:  MOVF   00,W
02B08:  IORWF  FF2,F
....................    } 
....................    if(Ajuste1>25.0){ 
02B0A:  MOVLB  5
02B0C:  CLRF   xFC
02B0E:  CLRF   xFB
02B10:  MOVLW  48
02B12:  MOVWF  xFA
02B14:  MOVLW  83
02B16:  MOVWF  xF9
02B18:  MOVFF  51F,600
02B1C:  MOVFF  51E,5FF
02B20:  MOVFF  51D,5FE
02B24:  MOVFF  51C,5FD
02B28:  MOVLB  0
02B2A:  RCALL  248C
02B2C:  BNC   2B92
....................       Ajuste1=1.5;write_eeprom(25,1);write_eeprom(26,5); 
02B2E:  MOVLB  5
02B30:  CLRF   x1F
02B32:  CLRF   x1E
02B34:  MOVLW  40
02B36:  MOVWF  x1D
02B38:  MOVLW  7F
02B3A:  MOVWF  x1C
02B3C:  CLRF   FAA
02B3E:  MOVLW  19
02B40:  MOVWF  FA9
02B42:  MOVLW  01
02B44:  MOVWF  FA8
02B46:  BCF    FA6.6
02B48:  BCF    FA6.7
02B4A:  BSF    FA6.2
02B4C:  MOVF   FF2,W
02B4E:  MOVWF  00
02B50:  BCF    FF2.7
02B52:  MOVLB  F
02B54:  MOVLW  55
02B56:  MOVWF  FA7
02B58:  MOVLW  AA
02B5A:  MOVWF  FA7
02B5C:  BSF    FA6.1
02B5E:  BTFSC  FA6.1
02B60:  BRA    2B5E
02B62:  BCF    FA6.2
02B64:  MOVF   00,W
02B66:  IORWF  FF2,F
02B68:  CLRF   FAA
02B6A:  MOVLW  1A
02B6C:  MOVWF  FA9
02B6E:  MOVLW  05
02B70:  MOVWF  FA8
02B72:  BCF    FA6.6
02B74:  BCF    FA6.7
02B76:  BSF    FA6.2
02B78:  MOVF   FF2,W
02B7A:  MOVWF  00
02B7C:  BCF    FF2.7
02B7E:  MOVLW  55
02B80:  MOVWF  FA7
02B82:  MOVLW  AA
02B84:  MOVWF  FA7
02B86:  BSF    FA6.1
02B88:  BTFSC  FA6.1
02B8A:  BRA    2B88
02B8C:  BCF    FA6.2
02B8E:  MOVF   00,W
02B90:  IORWF  FF2,F
....................    } 
....................    if(Ajuste2>25.0){ 
02B92:  MOVLB  5
02B94:  CLRF   xFC
02B96:  CLRF   xFB
02B98:  MOVLW  48
02B9A:  MOVWF  xFA
02B9C:  MOVLW  83
02B9E:  MOVWF  xF9
02BA0:  MOVFF  523,600
02BA4:  MOVFF  522,5FF
02BA8:  MOVFF  521,5FE
02BAC:  MOVFF  520,5FD
02BB0:  MOVLB  0
02BB2:  RCALL  248C
02BB4:  BNC   2C16
....................       Ajuste2=1.0;write_eeprom(27,1);write_eeprom(28,0); 
02BB6:  MOVLB  5
02BB8:  CLRF   x23
02BBA:  CLRF   x22
02BBC:  CLRF   x21
02BBE:  MOVLW  7F
02BC0:  MOVWF  x20
02BC2:  CLRF   FAA
02BC4:  MOVLW  1B
02BC6:  MOVWF  FA9
02BC8:  MOVLW  01
02BCA:  MOVWF  FA8
02BCC:  BCF    FA6.6
02BCE:  BCF    FA6.7
02BD0:  BSF    FA6.2
02BD2:  MOVF   FF2,W
02BD4:  MOVWF  00
02BD6:  BCF    FF2.7
02BD8:  MOVLB  F
02BDA:  MOVLW  55
02BDC:  MOVWF  FA7
02BDE:  MOVLW  AA
02BE0:  MOVWF  FA7
02BE2:  BSF    FA6.1
02BE4:  BTFSC  FA6.1
02BE6:  BRA    2BE4
02BE8:  BCF    FA6.2
02BEA:  MOVF   00,W
02BEC:  IORWF  FF2,F
02BEE:  CLRF   FAA
02BF0:  MOVLW  1C
02BF2:  MOVWF  FA9
02BF4:  CLRF   FA8
02BF6:  BCF    FA6.6
02BF8:  BCF    FA6.7
02BFA:  BSF    FA6.2
02BFC:  MOVF   FF2,W
02BFE:  MOVWF  00
02C00:  BCF    FF2.7
02C02:  MOVLW  55
02C04:  MOVWF  FA7
02C06:  MOVLW  AA
02C08:  MOVWF  FA7
02C0A:  BSF    FA6.1
02C0C:  BTFSC  FA6.1
02C0E:  BRA    2C0C
02C10:  BCF    FA6.2
02C12:  MOVF   00,W
02C14:  IORWF  FF2,F
....................    } 
....................    if(zero_actual>300){ 
02C16:  MOVLB  5
02C18:  CLRF   xFC
02C1A:  CLRF   xFB
02C1C:  MOVLW  16
02C1E:  MOVWF  xFA
02C20:  MOVLW  87
02C22:  MOVWF  xF9
02C24:  MOVFF  5A7,600
02C28:  MOVFF  5A6,5FF
02C2C:  MOVFF  5A5,5FE
02C30:  MOVFF  5A4,5FD
02C34:  MOVLB  0
02C36:  RCALL  248C
02C38:  BNC   2C9C
....................       zero_actual=203;write_eeprom(29,203);write_eeprom(30,0); 
02C3A:  MOVLB  5
02C3C:  CLRF   xA7
02C3E:  CLRF   xA6
02C40:  MOVLW  4B
02C42:  MOVWF  xA5
02C44:  MOVLW  86
02C46:  MOVWF  xA4
02C48:  CLRF   FAA
02C4A:  MOVLW  1D
02C4C:  MOVWF  FA9
02C4E:  MOVLW  CB
02C50:  MOVWF  FA8
02C52:  BCF    FA6.6
02C54:  BCF    FA6.7
02C56:  BSF    FA6.2
02C58:  MOVF   FF2,W
02C5A:  MOVWF  00
02C5C:  BCF    FF2.7
02C5E:  MOVLB  F
02C60:  MOVLW  55
02C62:  MOVWF  FA7
02C64:  MOVLW  AA
02C66:  MOVWF  FA7
02C68:  BSF    FA6.1
02C6A:  BTFSC  FA6.1
02C6C:  BRA    2C6A
02C6E:  BCF    FA6.2
02C70:  MOVF   00,W
02C72:  IORWF  FF2,F
02C74:  CLRF   FAA
02C76:  MOVLW  1E
02C78:  MOVWF  FA9
02C7A:  CLRF   FA8
02C7C:  BCF    FA6.6
02C7E:  BCF    FA6.7
02C80:  BSF    FA6.2
02C82:  MOVF   FF2,W
02C84:  MOVWF  00
02C86:  BCF    FF2.7
02C88:  MOVLW  55
02C8A:  MOVWF  FA7
02C8C:  MOVLW  AA
02C8E:  MOVWF  FA7
02C90:  BSF    FA6.1
02C92:  BTFSC  FA6.1
02C94:  BRA    2C92
02C96:  BCF    FA6.2
02C98:  MOVF   00,W
02C9A:  IORWF  FF2,F
....................    } 
....................    if(minutos_uv>60){ 
02C9C:  MOVLB  4
02C9E:  MOVF   xD7,F
02CA0:  BNZ   2CA8
02CA2:  MOVF   xD6,W
02CA4:  SUBLW  3C
02CA6:  BC    2CD6
....................       minutos_uv=0;write_eeprom(31,0); 
02CA8:  CLRF   xD7
02CAA:  CLRF   xD6
02CAC:  CLRF   FAA
02CAE:  MOVLW  1F
02CB0:  MOVWF  FA9
02CB2:  CLRF   FA8
02CB4:  BCF    FA6.6
02CB6:  BCF    FA6.7
02CB8:  BSF    FA6.2
02CBA:  MOVF   FF2,W
02CBC:  MOVWF  00
02CBE:  BCF    FF2.7
02CC0:  MOVLB  F
02CC2:  MOVLW  55
02CC4:  MOVWF  FA7
02CC6:  MOVLW  AA
02CC8:  MOVWF  FA7
02CCA:  BSF    FA6.1
02CCC:  BTFSC  FA6.1
02CCE:  BRA    2CCC
02CD0:  BCF    FA6.2
02CD2:  MOVF   00,W
02CD4:  IORWF  FF2,F
....................    } 
....................    if(VelMotor>6){ 
02CD6:  MOVLB  5
02CD8:  MOVF   xBF,W
02CDA:  SUBLW  06
02CDC:  BC    2D0E
....................       VelMotor=2;write_eeprom(32,2); 
02CDE:  MOVLW  02
02CE0:  MOVWF  xBF
02CE2:  CLRF   FAA
02CE4:  MOVLW  20
02CE6:  MOVWF  FA9
02CE8:  MOVLW  02
02CEA:  MOVWF  FA8
02CEC:  BCF    FA6.6
02CEE:  BCF    FA6.7
02CF0:  BSF    FA6.2
02CF2:  MOVF   FF2,W
02CF4:  MOVWF  00
02CF6:  BCF    FF2.7
02CF8:  MOVLB  F
02CFA:  MOVLW  55
02CFC:  MOVWF  FA7
02CFE:  MOVLW  AA
02D00:  MOVWF  FA7
02D02:  BSF    FA6.1
02D04:  BTFSC  FA6.1
02D06:  BRA    2D04
02D08:  BCF    FA6.2
02D0A:  MOVF   00,W
02D0C:  IORWF  FF2,F
....................    }    
....................    if(minutos_trabajo>3600){ 
02D0E:  MOVLB  4
02D10:  MOVF   xD9,W
02D12:  SUBLW  0D
02D14:  BC    2D76
02D16:  XORLW  FF
02D18:  BNZ   2D20
02D1A:  MOVF   xD8,W
02D1C:  SUBLW  10
02D1E:  BC    2D76
....................       minutos_trabajo=0;write_eeprom(33,0);write_eeprom(34,0); 
02D20:  CLRF   xD9
02D22:  CLRF   xD8
02D24:  CLRF   FAA
02D26:  MOVLW  21
02D28:  MOVWF  FA9
02D2A:  CLRF   FA8
02D2C:  BCF    FA6.6
02D2E:  BCF    FA6.7
02D30:  BSF    FA6.2
02D32:  MOVF   FF2,W
02D34:  MOVWF  00
02D36:  BCF    FF2.7
02D38:  MOVLB  F
02D3A:  MOVLW  55
02D3C:  MOVWF  FA7
02D3E:  MOVLW  AA
02D40:  MOVWF  FA7
02D42:  BSF    FA6.1
02D44:  BTFSC  FA6.1
02D46:  BRA    2D44
02D48:  BCF    FA6.2
02D4A:  MOVF   00,W
02D4C:  IORWF  FF2,F
02D4E:  CLRF   FAA
02D50:  MOVLW  22
02D52:  MOVWF  FA9
02D54:  CLRF   FA8
02D56:  BCF    FA6.6
02D58:  BCF    FA6.7
02D5A:  BSF    FA6.2
02D5C:  MOVF   FF2,W
02D5E:  MOVWF  00
02D60:  BCF    FF2.7
02D62:  MOVLW  55
02D64:  MOVWF  FA7
02D66:  MOVLW  AA
02D68:  MOVWF  FA7
02D6A:  BSF    FA6.1
02D6C:  BTFSC  FA6.1
02D6E:  BRA    2D6C
02D70:  BCF    FA6.2
02D72:  MOVF   00,W
02D74:  IORWF  FF2,F
....................    } 
....................    //if(Relacion>2.0){ 
....................       //Relacion=0.57;write_eeprom(35,0);write_eeprom(36,57); 
....................    //} 
....................    if(Diferencia>200){ 
02D76:  MOVLB  5
02D78:  CLRF   xFC
02D7A:  CLRF   xFB
02D7C:  MOVLW  48
02D7E:  MOVWF  xFA
02D80:  MOVLW  86
02D82:  MOVWF  xF9
02D84:  MOVFF  50B,600
02D88:  MOVFF  50A,5FF
02D8C:  MOVFF  509,5FE
02D90:  MOVFF  508,5FD
02D94:  MOVLB  0
02D96:  CALL   248C
02D9A:  BNC   2DF8
....................       Diferencia=0;write_eeprom(60,0);write_eeprom(61,0); 
02D9C:  MOVLB  5
02D9E:  CLRF   x0B
02DA0:  CLRF   x0A
02DA2:  CLRF   x09
02DA4:  CLRF   x08
02DA6:  CLRF   FAA
02DA8:  MOVLW  3C
02DAA:  MOVWF  FA9
02DAC:  CLRF   FA8
02DAE:  BCF    FA6.6
02DB0:  BCF    FA6.7
02DB2:  BSF    FA6.2
02DB4:  MOVF   FF2,W
02DB6:  MOVWF  00
02DB8:  BCF    FF2.7
02DBA:  MOVLB  F
02DBC:  MOVLW  55
02DBE:  MOVWF  FA7
02DC0:  MOVLW  AA
02DC2:  MOVWF  FA7
02DC4:  BSF    FA6.1
02DC6:  BTFSC  FA6.1
02DC8:  BRA    2DC6
02DCA:  BCF    FA6.2
02DCC:  MOVF   00,W
02DCE:  IORWF  FF2,F
02DD0:  CLRF   FAA
02DD2:  MOVLW  3D
02DD4:  MOVWF  FA9
02DD6:  CLRF   FA8
02DD8:  BCF    FA6.6
02DDA:  BCF    FA6.7
02DDC:  BSF    FA6.2
02DDE:  MOVF   FF2,W
02DE0:  MOVWF  00
02DE2:  BCF    FF2.7
02DE4:  MOVLW  55
02DE6:  MOVWF  FA7
02DE8:  MOVLW  AA
02DEA:  MOVWF  FA7
02DEC:  BSF    FA6.1
02DEE:  BTFSC  FA6.1
02DF0:  BRA    2DEE
02DF2:  BCF    FA6.2
02DF4:  MOVF   00,W
02DF6:  IORWF  FF2,F
....................    } 
....................    if(G>900){ 
02DF8:  MOVLB  5
02DFA:  CLRF   xFC
02DFC:  CLRF   xFB
02DFE:  MOVLW  61
02E00:  MOVWF  xFA
02E02:  MOVLW  88
02E04:  MOVWF  xF9
02E06:  MOVFF  5B3,600
02E0A:  MOVFF  5B2,5FF
02E0E:  MOVFF  5B1,5FE
02E12:  MOVFF  5B0,5FD
02E16:  MOVLB  0
02E18:  CALL   248C
02E1C:  BNC   2E80
....................       G=240;write_eeprom(62,240);write_eeprom(63,0); 
02E1E:  MOVLB  5
02E20:  CLRF   xB3
02E22:  CLRF   xB2
02E24:  MOVLW  70
02E26:  MOVWF  xB1
02E28:  MOVLW  86
02E2A:  MOVWF  xB0
02E2C:  CLRF   FAA
02E2E:  MOVLW  3E
02E30:  MOVWF  FA9
02E32:  MOVLW  F0
02E34:  MOVWF  FA8
02E36:  BCF    FA6.6
02E38:  BCF    FA6.7
02E3A:  BSF    FA6.2
02E3C:  MOVF   FF2,W
02E3E:  MOVWF  00
02E40:  BCF    FF2.7
02E42:  MOVLB  F
02E44:  MOVLW  55
02E46:  MOVWF  FA7
02E48:  MOVLW  AA
02E4A:  MOVWF  FA7
02E4C:  BSF    FA6.1
02E4E:  BTFSC  FA6.1
02E50:  BRA    2E4E
02E52:  BCF    FA6.2
02E54:  MOVF   00,W
02E56:  IORWF  FF2,F
02E58:  CLRF   FAA
02E5A:  MOVLW  3F
02E5C:  MOVWF  FA9
02E5E:  CLRF   FA8
02E60:  BCF    FA6.6
02E62:  BCF    FA6.7
02E64:  BSF    FA6.2
02E66:  MOVF   FF2,W
02E68:  MOVWF  00
02E6A:  BCF    FF2.7
02E6C:  MOVLW  55
02E6E:  MOVWF  FA7
02E70:  MOVLW  AA
02E72:  MOVWF  FA7
02E74:  BSF    FA6.1
02E76:  BTFSC  FA6.1
02E78:  BRA    2E76
02E7A:  BCF    FA6.2
02E7C:  MOVF   00,W
02E7E:  IORWF  FF2,F
....................    } 
....................    if(negativo>20){ 
02E80:  MOVLB  4
02E82:  MOVF   xC3,W
02E84:  SUBLW  14
02E86:  BC    2EBA
....................       negativo=10;write_eeprom(50,10); 
02E88:  MOVLW  0A
02E8A:  MOVWF  xC3
02E8C:  CLRF   FAA
02E8E:  MOVLW  32
02E90:  MOVWF  FA9
02E92:  MOVLW  0A
02E94:  MOVWF  FA8
02E96:  BCF    FA6.6
02E98:  BCF    FA6.7
02E9A:  BSF    FA6.2
02E9C:  MOVF   FF2,W
02E9E:  MOVWF  00
02EA0:  BCF    FF2.7
02EA2:  MOVLB  F
02EA4:  MOVLW  55
02EA6:  MOVWF  FA7
02EA8:  MOVLW  AA
02EAA:  MOVWF  FA7
02EAC:  BSF    FA6.1
02EAE:  BTFSC  FA6.1
02EB0:  BRA    2EAE
02EB2:  BCF    FA6.2
02EB4:  MOVF   00,W
02EB6:  IORWF  FF2,F
02EB8:  MOVLB  4
....................    } 
.................... } 
02EBA:  MOVLB  0
02EBC:  GOTO   5F82 (RETURN)
....................  
.................... void VelocidadMotor(int8 Vel){ 
....................    if(Vel==6){ 
*
0138C:  MOVLB  5
0138E:  MOVF   xC8,W
01390:  SUBLW  06
01392:  BNZ   139C
....................       Porcentaje=0; 
01394:  CLRF   xBE
....................       Motor_on; 
01396:  BSF    F8B.2
01398:  BCF    F94.2
....................    }else if(Vel==5){ 
0139A:  BRA    140A
0139C:  MOVF   xC8,W
0139E:  SUBLW  05
013A0:  BNZ   13B0
....................       Porcentaje=15; 
013A2:  MOVLW  0F
013A4:  MOVWF  xBE
....................       retardo=2000; 
013A6:  MOVLW  07
013A8:  MOVWF  xB7
013AA:  MOVLW  D0
013AC:  MOVWF  xB6
....................    }else if(Vel==4){ 
013AE:  BRA    140A
013B0:  MOVF   xC8,W
013B2:  SUBLW  04
013B4:  BNZ   13C4
....................       Porcentaje=25; 
013B6:  MOVLW  19
013B8:  MOVWF  xBE
....................       retardo=3000; 
013BA:  MOVLW  0B
013BC:  MOVWF  xB7
013BE:  MOVLW  B8
013C0:  MOVWF  xB6
....................    }else if(Vel==3){ 
013C2:  BRA    140A
013C4:  MOVF   xC8,W
013C6:  SUBLW  03
013C8:  BNZ   13D8
....................       Porcentaje=35; 
013CA:  MOVLW  23
013CC:  MOVWF  xBE
....................       retardo=3600; 
013CE:  MOVLW  0E
013D0:  MOVWF  xB7
013D2:  MOVLW  10
013D4:  MOVWF  xB6
....................    }else if(Vel==2){ 
013D6:  BRA    140A
013D8:  MOVF   xC8,W
013DA:  SUBLW  02
013DC:  BNZ   13EC
....................       Porcentaje=45; 
013DE:  MOVLW  2D
013E0:  MOVWF  xBE
....................       retardo=4300; 
013E2:  MOVLW  10
013E4:  MOVWF  xB7
013E6:  MOVLW  CC
013E8:  MOVWF  xB6
....................    }else if(Vel==1){ 
013EA:  BRA    140A
013EC:  DECFSZ xC8,W
013EE:  BRA    13FE
....................       Porcentaje=50; 
013F0:  MOVLW  32
013F2:  MOVWF  xBE
....................       retardo=5000; 
013F4:  MOVLW  13
013F6:  MOVWF  xB7
013F8:  MOVLW  88
013FA:  MOVWF  xB6
....................    }else if(Vel==0){ 
013FC:  BRA    140A
013FE:  MOVF   xC8,F
01400:  BNZ   140A
....................       Porcentaje=100; 
01402:  MOVLW  64
01404:  MOVWF  xBE
....................       Motor_off; 
01406:  BCF    F8B.2
01408:  BCF    F94.2
....................    } 
.................... } 
0140A:  MOVLB  0
0140C:  RETLW  00
....................  
.................... short PidePassword(int8 MenuAnt, int8 MenuActual, int8 MenuPost, int8 clave0,int8 clave1, int8 clave2,int8 clave3){ 
....................       if(n==0) 
*
04C3C:  MOVLB  4
04C3E:  BTFSC  x2F.0
04C40:  BRA    4CD8
....................       { 
....................          displayContrasena(Contrasena[0],20,30,1);displayContrasena(Contrasena[1],40,30,0); 
04C42:  MOVFF  4F4,5D2
04C46:  MOVLW  14
04C48:  MOVLB  5
04C4A:  MOVWF  xD3
04C4C:  MOVLW  1E
04C4E:  MOVWF  xD4
04C50:  MOVLW  01
04C52:  MOVWF  xD5
04C54:  MOVLB  0
04C56:  RCALL  4AB0
04C58:  MOVFF  4F5,5D2
04C5C:  MOVLW  28
04C5E:  MOVLB  5
04C60:  MOVWF  xD3
04C62:  MOVLW  1E
04C64:  MOVWF  xD4
04C66:  CLRF   xD5
04C68:  MOVLB  0
04C6A:  RCALL  4AB0
....................          displayContrasena(Contrasena[2],60,30,0);displayContrasena(Contrasena[0],80,30,0); 
04C6C:  MOVFF  4F6,5D2
04C70:  MOVLW  3C
04C72:  MOVLB  5
04C74:  MOVWF  xD3
04C76:  MOVLW  1E
04C78:  MOVWF  xD4
04C7A:  CLRF   xD5
04C7C:  MOVLB  0
04C7E:  RCALL  4AB0
04C80:  MOVFF  4F4,5D2
04C84:  MOVLW  50
04C86:  MOVLB  5
04C88:  MOVWF  xD3
04C8A:  MOVLW  1E
04C8C:  MOVWF  xD4
04C8E:  CLRF   xD5
04C90:  MOVLB  0
04C92:  RCALL  4AB0
....................          strcpy(Menus.Letra,"Clave"); 
04C94:  MOVLW  04
04C96:  MOVWF  FEA
04C98:  MOVLW  17
04C9A:  MOVWF  FE9
04C9C:  MOVFF  FF2,5D0
04CA0:  BCF    FF2.7
04CA2:  MOVLW  00
04CA4:  CALL   0F0A
04CA8:  TBLRD*-
04CAA:  TBLRD*+
04CAC:  MOVF   FF5,W
04CAE:  MOVWF  FEE
04CB0:  IORLW  00
04CB2:  BNZ   4CAA
04CB4:  MOVLB  5
04CB6:  BTFSC  xD0.7
04CB8:  BSF    FF2.7
....................          displayMenu(Menus.Letra,20,0,1,3); 
04CBA:  MOVLW  04
04CBC:  MOVWF  xD1
04CBE:  MOVLW  17
04CC0:  MOVWF  xD0
04CC2:  MOVLW  14
04CC4:  MOVWF  xD2
04CC6:  CLRF   xD3
04CC8:  MOVLW  01
04CCA:  MOVWF  xD4
04CCC:  MOVLW  03
04CCE:  MOVWF  xD5
04CD0:  MOVLB  0
04CD2:  RCALL  4B6C
....................          n=1; 
04CD4:  MOVLB  4
04CD6:  BSF    x2F.0
....................       } 
....................        
....................       if(UP){ 
04CD8:  BSF    F92.5
04CDA:  BTFSC  F80.5
04CDC:  BRA    4DB8
....................          flag_latencia=0;t_latencia=0; 
04CDE:  BCF    x2E.5
04CE0:  CLRF   xD5
04CE2:  CLRF   xD4
....................          if(Flanco == 0){ 
04CE4:  BTFSC  x2D.0
04CE6:  BRA    4DB6
....................             Flanco = 1;delay_ms(5); 
04CE8:  BSF    x2D.0
04CEA:  MOVLW  05
04CEC:  MOVLB  5
04CEE:  MOVWF  xDC
04CF0:  MOVLB  0
04CF2:  CALL   1364
....................             for(i=1;i<=4;i++){ 
04CF6:  MOVLW  01
04CF8:  MOVLB  5
04CFA:  MOVWF  xB8
04CFC:  MOVF   xB8,W
04CFE:  SUBLW  04
04D00:  BNC   4DB4
....................                if(unidad==i){ 
04D02:  MOVF   xB8,W
04D04:  MOVLB  4
04D06:  SUBWF  xC1,W
04D08:  BNZ   4D7E
....................                   Contrasena[i-1]++; 
04D0A:  MOVLW  01
04D0C:  MOVLB  5
04D0E:  SUBWF  xB8,W
04D10:  CLRF   03
04D12:  ADDLW  F4
04D14:  MOVWF  FE9
04D16:  MOVLW  04
04D18:  ADDWFC 03,W
04D1A:  MOVWF  FEA
04D1C:  INCF   FEF,F
....................                   if(Contrasena[i-1]>9){ 
04D1E:  MOVLW  01
04D20:  SUBWF  xB8,W
04D22:  CLRF   03
04D24:  ADDLW  F4
04D26:  MOVWF  FE9
04D28:  MOVLW  04
04D2A:  ADDWFC 03,W
04D2C:  MOVWF  FEA
04D2E:  BTFSC  FEF.7
04D30:  BRA    4D4A
04D32:  MOVF   FEF,W
04D34:  SUBLW  09
04D36:  BC    4D4A
....................                      Contrasena[i-1]=0; 
04D38:  MOVLW  01
04D3A:  SUBWF  xB8,W
04D3C:  CLRF   03
04D3E:  ADDLW  F4
04D40:  MOVWF  FE9
04D42:  MOVLW  04
04D44:  ADDWFC 03,W
04D46:  MOVWF  FEA
04D48:  CLRF   FEF
....................                   } 
....................                   displayContrasena(Contrasena[i-1],i*20,30,1); 
04D4A:  MOVLW  01
04D4C:  SUBWF  xB8,W
04D4E:  CLRF   03
04D50:  ADDLW  F4
04D52:  MOVWF  FE9
04D54:  MOVLW  04
04D56:  ADDWFC 03,W
04D58:  MOVWF  FEA
04D5A:  MOVFF  FEF,5D0
04D5E:  MOVF   xB8,W
04D60:  MULLW  14
04D62:  MOVFF  FF3,5D1
04D66:  MOVFF  5D0,5D2
04D6A:  MOVFF  5D1,5D3
04D6E:  MOVLW  1E
04D70:  MOVWF  xD4
04D72:  MOVLW  01
04D74:  MOVWF  xD5
04D76:  MOVLB  0
04D78:  RCALL  4AB0
....................                }else{ 
04D7A:  BRA    4DAE
04D7C:  MOVLB  4
....................                   displayContrasena(Contrasena[i-1],i*20,30,0); 
04D7E:  MOVLW  01
04D80:  MOVLB  5
04D82:  SUBWF  xB8,W
04D84:  CLRF   03
04D86:  ADDLW  F4
04D88:  MOVWF  FE9
04D8A:  MOVLW  04
04D8C:  ADDWFC 03,W
04D8E:  MOVWF  FEA
04D90:  MOVFF  FEF,5D0
04D94:  MOVF   xB8,W
04D96:  MULLW  14
04D98:  MOVFF  FF3,5D1
04D9C:  MOVFF  5D0,5D2
04DA0:  MOVFF  5D1,5D3
04DA4:  MOVLW  1E
04DA6:  MOVWF  xD4
04DA8:  CLRF   xD5
04DAA:  MOVLB  0
04DAC:  RCALL  4AB0
....................                } 
....................             } 
04DAE:  MOVLB  5
04DB0:  INCF   xB8,F
04DB2:  BRA    4CFC
04DB4:  MOVLB  4
....................          } 
....................       }else{ 
04DB6:  BRA    4DBA
....................          Flanco = 0; 
04DB8:  BCF    x2D.0
....................       } 
....................              
....................       if(DOWN){ 
04DBA:  BSF    F96.0
04DBC:  BTFSC  F84.0
04DBE:  BRA    4E98
....................          flag_latencia=0;t_latencia=0; 
04DC0:  BCF    x2E.5
04DC2:  CLRF   xD5
04DC4:  CLRF   xD4
....................          if(Flanco2 == 0){ 
04DC6:  BTFSC  x2D.2
04DC8:  BRA    4E96
....................             Flanco2 = 1;delay_ms(5); 
04DCA:  BSF    x2D.2
04DCC:  MOVLW  05
04DCE:  MOVLB  5
04DD0:  MOVWF  xDC
04DD2:  MOVLB  0
04DD4:  CALL   1364
....................             for(i=1;i<=4;i++){ 
04DD8:  MOVLW  01
04DDA:  MOVLB  5
04DDC:  MOVWF  xB8
04DDE:  MOVF   xB8,W
04DE0:  SUBLW  04
04DE2:  BNC   4E94
....................                if(unidad==i){ 
04DE4:  MOVF   xB8,W
04DE6:  MOVLB  4
04DE8:  SUBWF  xC1,W
04DEA:  BNZ   4E5E
....................                   Contrasena[i-1]--; 
04DEC:  MOVLW  01
04DEE:  MOVLB  5
04DF0:  SUBWF  xB8,W
04DF2:  CLRF   03
04DF4:  ADDLW  F4
04DF6:  MOVWF  FE9
04DF8:  MOVLW  04
04DFA:  ADDWFC 03,W
04DFC:  MOVWF  FEA
04DFE:  DECF   FEF,F
....................                   if(Contrasena[i-1]<0){ 
04E00:  MOVLW  01
04E02:  SUBWF  xB8,W
04E04:  CLRF   03
04E06:  ADDLW  F4
04E08:  MOVWF  FE9
04E0A:  MOVLW  04
04E0C:  ADDWFC 03,W
04E0E:  MOVWF  FEA
04E10:  BTFSC  FEF.7
04E12:  BRA    4E16
04E14:  BRA    4E2A
....................                      Contrasena[i-1]=9; 
04E16:  MOVLW  01
04E18:  SUBWF  xB8,W
04E1A:  CLRF   03
04E1C:  ADDLW  F4
04E1E:  MOVWF  FE9
04E20:  MOVLW  04
04E22:  ADDWFC 03,W
04E24:  MOVWF  FEA
04E26:  MOVLW  09
04E28:  MOVWF  FEF
....................                   } 
....................                   displayContrasena(Contrasena[i-1],i*20,30,1); 
04E2A:  MOVLW  01
04E2C:  SUBWF  xB8,W
04E2E:  CLRF   03
04E30:  ADDLW  F4
04E32:  MOVWF  FE9
04E34:  MOVLW  04
04E36:  ADDWFC 03,W
04E38:  MOVWF  FEA
04E3A:  MOVFF  FEF,5D0
04E3E:  MOVF   xB8,W
04E40:  MULLW  14
04E42:  MOVFF  FF3,5D1
04E46:  MOVFF  5D0,5D2
04E4A:  MOVFF  5D1,5D3
04E4E:  MOVLW  1E
04E50:  MOVWF  xD4
04E52:  MOVLW  01
04E54:  MOVWF  xD5
04E56:  MOVLB  0
04E58:  RCALL  4AB0
....................                }else{ 
04E5A:  BRA    4E8E
04E5C:  MOVLB  4
....................                   displayContrasena(Contrasena[i-1],i*20,30,0); 
04E5E:  MOVLW  01
04E60:  MOVLB  5
04E62:  SUBWF  xB8,W
04E64:  CLRF   03
04E66:  ADDLW  F4
04E68:  MOVWF  FE9
04E6A:  MOVLW  04
04E6C:  ADDWFC 03,W
04E6E:  MOVWF  FEA
04E70:  MOVFF  FEF,5D0
04E74:  MOVF   xB8,W
04E76:  MULLW  14
04E78:  MOVFF  FF3,5D1
04E7C:  MOVFF  5D0,5D2
04E80:  MOVFF  5D1,5D3
04E84:  MOVLW  1E
04E86:  MOVWF  xD4
04E88:  CLRF   xD5
04E8A:  MOVLB  0
04E8C:  RCALL  4AB0
....................                } 
....................             }       
04E8E:  MOVLB  5
04E90:  INCF   xB8,F
04E92:  BRA    4DDE
04E94:  MOVLB  4
....................          }      
....................       }else{ 
04E96:  BRA    4E9A
....................          Flanco2 = 0; 
04E98:  BCF    x2D.2
....................       } 
....................              
....................       if(RIGHT){ 
04E9A:  BSF    F96.1
04E9C:  BTFSC  F84.1
04E9E:  BRA    4F40
....................          flag_latencia=0;t_latencia=0; 
04EA0:  BCF    x2E.5
04EA2:  CLRF   xD5
04EA4:  CLRF   xD4
....................          if(Flanco1 == 0){ 
04EA6:  BTFSC  x2D.1
04EA8:  BRA    4F3E
....................             Flanco1 = 1;delay_ms(5);unidad++; 
04EAA:  BSF    x2D.1
04EAC:  MOVLW  05
04EAE:  MOVLB  5
04EB0:  MOVWF  xDC
04EB2:  MOVLB  0
04EB4:  CALL   1364
04EB8:  MOVLB  4
04EBA:  INCF   xC1,F
....................             for(i=1;i<=4;i++){ 
04EBC:  MOVLW  01
04EBE:  MOVLB  5
04EC0:  MOVWF  xB8
04EC2:  MOVF   xB8,W
04EC4:  SUBLW  04
04EC6:  BNC   4F3C
....................                if(unidad==i){ 
04EC8:  MOVF   xB8,W
04ECA:  MOVLB  4
04ECC:  SUBWF  xC1,W
04ECE:  BNZ   4F06
....................                   displayContrasena(Contrasena[i-1],i*20,30,1); 
04ED0:  MOVLW  01
04ED2:  MOVLB  5
04ED4:  SUBWF  xB8,W
04ED6:  CLRF   03
04ED8:  ADDLW  F4
04EDA:  MOVWF  FE9
04EDC:  MOVLW  04
04EDE:  ADDWFC 03,W
04EE0:  MOVWF  FEA
04EE2:  MOVFF  FEF,5D0
04EE6:  MOVF   xB8,W
04EE8:  MULLW  14
04EEA:  MOVFF  FF3,5D1
04EEE:  MOVFF  5D0,5D2
04EF2:  MOVFF  5D1,5D3
04EF6:  MOVLW  1E
04EF8:  MOVWF  xD4
04EFA:  MOVLW  01
04EFC:  MOVWF  xD5
04EFE:  MOVLB  0
04F00:  RCALL  4AB0
....................                }else{ 
04F02:  BRA    4F36
04F04:  MOVLB  4
....................                   displayContrasena(Contrasena[i-1],i*20,30,0); 
04F06:  MOVLW  01
04F08:  MOVLB  5
04F0A:  SUBWF  xB8,W
04F0C:  CLRF   03
04F0E:  ADDLW  F4
04F10:  MOVWF  FE9
04F12:  MOVLW  04
04F14:  ADDWFC 03,W
04F16:  MOVWF  FEA
04F18:  MOVFF  FEF,5D0
04F1C:  MOVF   xB8,W
04F1E:  MULLW  14
04F20:  MOVFF  FF3,5D1
04F24:  MOVFF  5D0,5D2
04F28:  MOVFF  5D1,5D3
04F2C:  MOVLW  1E
04F2E:  MOVWF  xD4
04F30:  CLRF   xD5
04F32:  MOVLB  0
04F34:  RCALL  4AB0
....................                } 
....................             } 
04F36:  MOVLB  5
04F38:  INCF   xB8,F
04F3A:  BRA    4EC2
04F3C:  MOVLB  4
....................          } 
....................       }else{ 
04F3E:  BRA    4F42
....................          Flanco1 = 0; 
04F40:  BCF    x2D.1
....................       } 
....................        
....................       if(LEFT){ 
04F42:  BSF    F96.2
04F44:  BTFSC  F84.2
04F46:  BRA    4F90
....................          delay_ms(100); 
04F48:  MOVLW  64
04F4A:  MOVLB  5
04F4C:  MOVWF  xDC
04F4E:  MOVLB  0
04F50:  CALL   1364
....................          if(LEFT){ 
04F54:  BSF    F96.2
04F56:  BTFSC  F84.2
04F58:  BRA    4F8E
....................             Menu=MenuAnt;glcd_fillScreen(OFF);n=0;Opcion=1;unidad=1; 
04F5A:  MOVFF  5C9,4C0
04F5E:  MOVLB  5
04F60:  CLRF   xD0
04F62:  MOVLB  0
04F64:  CALL   1444
04F68:  MOVLB  4
04F6A:  BCF    x2F.0
04F6C:  MOVLW  01
04F6E:  MOVWF  xC2
04F70:  MOVWF  xC1
....................             Contrasena[0]=0;Contrasena[1]=0;Contrasena[2]=0;Contrasena[3]=0; 
04F72:  CLRF   xF4
04F74:  CLRF   xF5
04F76:  CLRF   xF6
04F78:  CLRF   xF7
....................             glcd_fillScreen(OFF);glcd_update(); 
04F7A:  MOVLB  5
04F7C:  CLRF   xD0
04F7E:  MOVLB  0
04F80:  CALL   1444
04F84:  CALL   149E
....................             return 1; 
04F88:  MOVLW  01
04F8A:  MOVWF  01
04F8C:  BRA    5338
04F8E:  MOVLB  4
....................          } 
....................       } 
....................      
....................       if(unidad>4){ 
04F90:  MOVF   xC1,W
04F92:  SUBLW  04
04F94:  BTFSC  FD8.0
04F96:  BRA    533A
....................          glcd_fillScreen(OFF);unidad=1;flag_latencia=0;t_latencia=0; 
04F98:  MOVLB  5
04F9A:  CLRF   xD0
04F9C:  MOVLB  0
04F9E:  CALL   1444
04FA2:  MOVLW  01
04FA4:  MOVLB  4
04FA6:  MOVWF  xC1
04FA8:  BCF    x2E.5
04FAA:  CLRF   xD5
04FAC:  CLRF   xD4
....................           
....................          if(Contrasena[0]==3&&Contrasena[1]==8&&Contrasena[2]==9&&Contrasena[3]==2 && MenuActual==0){ // Si Ingresa clave para reset general del sistema. 
04FAE:  MOVF   xF4,W
04FB0:  SUBLW  03
04FB2:  BTFSS  FD8.2
04FB4:  BRA    50AE
04FB6:  MOVF   xF5,W
04FB8:  SUBLW  08
04FBA:  BTFSS  FD8.2
04FBC:  BRA    50AE
04FBE:  MOVF   xF6,W
04FC0:  SUBLW  09
04FC2:  BNZ   50AE
04FC4:  MOVF   xF7,W
04FC6:  SUBLW  02
04FC8:  BNZ   50AE
04FCA:  MOVLB  5
04FCC:  MOVF   xCA,F
04FCE:  BTFSC  FD8.2
04FD0:  BRA    4FD6
04FD2:  MOVLB  4
04FD4:  BRA    50AE
....................             write_eeprom(0,0);delay_ms(20);write_eeprom(1,0);delay_ms(20);// Reestablece a contrasea de Fabrica y reinicia Programa. 
04FD6:  CLRF   FAA
04FD8:  CLRF   FA9
04FDA:  CLRF   FA8
04FDC:  BCF    FA6.6
04FDE:  BCF    FA6.7
04FE0:  BSF    FA6.2
04FE2:  MOVF   FF2,W
04FE4:  MOVWF  00
04FE6:  BCF    FF2.7
04FE8:  MOVLB  F
04FEA:  MOVLW  55
04FEC:  MOVWF  FA7
04FEE:  MOVLW  AA
04FF0:  MOVWF  FA7
04FF2:  BSF    FA6.1
04FF4:  BTFSC  FA6.1
04FF6:  BRA    4FF4
04FF8:  BCF    FA6.2
04FFA:  MOVF   00,W
04FFC:  IORWF  FF2,F
04FFE:  MOVLW  14
05000:  MOVLB  5
05002:  MOVWF  xDC
05004:  MOVLB  0
05006:  CALL   1364
0500A:  CLRF   FAA
0500C:  MOVLW  01
0500E:  MOVWF  FA9
05010:  CLRF   FA8
05012:  BCF    FA6.6
05014:  BCF    FA6.7
05016:  BSF    FA6.2
05018:  MOVF   FF2,W
0501A:  MOVWF  00
0501C:  BCF    FF2.7
0501E:  MOVLB  F
05020:  MOVLW  55
05022:  MOVWF  FA7
05024:  MOVLW  AA
05026:  MOVWF  FA7
05028:  BSF    FA6.1
0502A:  BTFSC  FA6.1
0502C:  BRA    502A
0502E:  BCF    FA6.2
05030:  MOVF   00,W
05032:  IORWF  FF2,F
05034:  MOVLW  14
05036:  MOVLB  5
05038:  MOVWF  xDC
0503A:  MOVLB  0
0503C:  CALL   1364
....................             write_eeprom(2,0);delay_ms(20);write_eeprom(3,0);delay_ms(20); 
05040:  CLRF   FAA
05042:  MOVLW  02
05044:  MOVWF  FA9
05046:  CLRF   FA8
05048:  BCF    FA6.6
0504A:  BCF    FA6.7
0504C:  BSF    FA6.2
0504E:  MOVF   FF2,W
05050:  MOVWF  00
05052:  BCF    FF2.7
05054:  MOVLB  F
05056:  MOVLW  55
05058:  MOVWF  FA7
0505A:  MOVLW  AA
0505C:  MOVWF  FA7
0505E:  BSF    FA6.1
05060:  BTFSC  FA6.1
05062:  BRA    5060
05064:  BCF    FA6.2
05066:  MOVF   00,W
05068:  IORWF  FF2,F
0506A:  MOVLW  14
0506C:  MOVLB  5
0506E:  MOVWF  xDC
05070:  MOVLB  0
05072:  CALL   1364
05076:  CLRF   FAA
05078:  MOVLW  03
0507A:  MOVWF  FA9
0507C:  CLRF   FA8
0507E:  BCF    FA6.6
05080:  BCF    FA6.7
05082:  BSF    FA6.2
05084:  MOVF   FF2,W
05086:  MOVWF  00
05088:  BCF    FF2.7
0508A:  MOVLB  F
0508C:  MOVLW  55
0508E:  MOVWF  FA7
05090:  MOVLW  AA
05092:  MOVWF  FA7
05094:  BSF    FA6.1
05096:  BTFSC  FA6.1
05098:  BRA    5096
0509A:  BCF    FA6.2
0509C:  MOVF   00,W
0509E:  IORWF  FF2,F
050A0:  MOVLW  14
050A2:  MOVLB  5
050A4:  MOVWF  xDC
050A6:  MOVLB  0
050A8:  CALL   1364
....................             reset_cpu(); 
050AC:  RESET
....................          } 
....................        
....................          if((Contrasena[0]==clave0)&&(Contrasena[1]==clave1)&&(Contrasena[2]==clave2)&&(Contrasena[3]==clave3)){ 
050AE:  MOVLB  5
050B0:  MOVF   xCC,W
050B2:  MOVLB  4
050B4:  SUBWF  xF4,W
050B6:  BTFSS  FD8.2
050B8:  BRA    51AC
050BA:  MOVLB  5
050BC:  MOVF   xCD,W
050BE:  MOVLB  4
050C0:  SUBWF  xF5,W
050C2:  BTFSS  FD8.2
050C4:  BRA    51AC
050C6:  MOVLB  5
050C8:  MOVF   xCE,W
050CA:  MOVLB  4
050CC:  SUBWF  xF6,W
050CE:  BNZ   51AC
050D0:  MOVLB  5
050D2:  MOVF   xCF,W
050D4:  MOVLB  4
050D6:  SUBWF  xF7,W
050D8:  BNZ   51AC
....................             glcd_fillScreen(OFF); 
050DA:  MOVLB  5
050DC:  CLRF   xD0
050DE:  MOVLB  0
050E0:  CALL   1444
....................             strcpy(Menus.Letra,"Clave"); 
050E4:  MOVLW  04
050E6:  MOVWF  FEA
050E8:  MOVLW  17
050EA:  MOVWF  FE9
050EC:  MOVFF  FF2,5D0
050F0:  BCF    FF2.7
050F2:  MOVLW  00
050F4:  CALL   0F0A
050F8:  TBLRD*-
050FA:  TBLRD*+
050FC:  MOVF   FF5,W
050FE:  MOVWF  FEE
05100:  IORLW  00
05102:  BNZ   50FA
05104:  MOVLB  5
05106:  BTFSC  xD0.7
05108:  BSF    FF2.7
....................             displayMenu(Menus.Letra,30,0,0,2); 
0510A:  MOVLW  04
0510C:  MOVWF  xD1
0510E:  MOVLW  17
05110:  MOVWF  xD0
05112:  MOVLW  1E
05114:  MOVWF  xD2
05116:  CLRF   xD3
05118:  CLRF   xD4
0511A:  MOVLW  02
0511C:  MOVWF  xD5
0511E:  MOVLB  0
05120:  RCALL  4B6C
....................             strcpy(Menus.Letra,"Correcta"); 
05122:  MOVLW  04
05124:  MOVWF  FEA
05126:  MOVLW  17
05128:  MOVWF  FE9
0512A:  MOVFF  FF2,5D0
0512E:  BCF    FF2.7
05130:  MOVLW  00
05132:  CALL   0F2E
05136:  TBLRD*-
05138:  TBLRD*+
0513A:  MOVF   FF5,W
0513C:  MOVWF  FEE
0513E:  IORLW  00
05140:  BNZ   5138
05142:  MOVLB  5
05144:  BTFSC  xD0.7
05146:  BSF    FF2.7
....................             displayMenu(Menus.Letra,15,30,0,2); 
05148:  MOVLW  04
0514A:  MOVWF  xD1
0514C:  MOVLW  17
0514E:  MOVWF  xD0
05150:  MOVLW  0F
05152:  MOVWF  xD2
05154:  MOVLW  1E
05156:  MOVWF  xD3
05158:  CLRF   xD4
0515A:  MOVLW  02
0515C:  MOVWF  xD5
0515E:  MOVLB  0
05160:  RCALL  4B6C
....................             Menu=MenuPost;glcd_update();delay_ms(1000);glcd_fillScreen(OFF); 
05162:  MOVFF  5CB,4C0
05166:  CALL   149E
0516A:  MOVLW  04
0516C:  MOVLB  5
0516E:  MOVWF  xD0
05170:  MOVLW  FA
05172:  MOVWF  xDC
05174:  MOVLB  0
05176:  CALL   1364
0517A:  MOVLB  5
0517C:  DECFSZ xD0,F
0517E:  BRA    5170
05180:  CLRF   xD0
05182:  MOVLB  0
05184:  CALL   1444
....................             Contrasena[0]=0;Contrasena[1]=0;Contrasena[2]=0;Contrasena[3]=0; 
05188:  MOVLB  4
0518A:  CLRF   xF4
0518C:  CLRF   xF5
0518E:  CLRF   xF6
05190:  CLRF   xF7
....................             if(MenuActual==0)tiempo_purga=1;n=0; 
05192:  MOVLB  5
05194:  MOVF   xCA,F
05196:  BNZ   519C
05198:  MOVLB  4
0519A:  BSF    x2E.3
0519C:  MOVLB  4
0519E:  BCF    x2F.0
....................             return 1; 
051A0:  MOVLW  01
051A2:  MOVWF  01
051A4:  MOVLB  0
051A6:  BRA    5338
....................          }else{ 
051A8:  BRA    5338
051AA:  MOVLB  4
....................             glcd_fillScreen(OFF); 
051AC:  MOVLB  5
051AE:  CLRF   xD0
051B0:  MOVLB  0
051B2:  CALL   1444
....................             strcpy(Menus.Letra,"Clave"); 
051B6:  MOVLW  04
051B8:  MOVWF  FEA
051BA:  MOVLW  17
051BC:  MOVWF  FE9
051BE:  MOVFF  FF2,5D0
051C2:  BCF    FF2.7
051C4:  MOVLW  00
051C6:  CALL   0F0A
051CA:  TBLRD*-
051CC:  TBLRD*+
051CE:  MOVF   FF5,W
051D0:  MOVWF  FEE
051D2:  IORLW  00
051D4:  BNZ   51CC
051D6:  MOVLB  5
051D8:  BTFSC  xD0.7
051DA:  BSF    FF2.7
....................             displayMenu(Menus.Letra,30,0,0,2); 
051DC:  MOVLW  04
051DE:  MOVWF  xD1
051E0:  MOVLW  17
051E2:  MOVWF  xD0
051E4:  MOVLW  1E
051E6:  MOVWF  xD2
051E8:  CLRF   xD3
051EA:  CLRF   xD4
051EC:  MOVLW  02
051EE:  MOVWF  xD5
051F0:  MOVLB  0
051F2:  RCALL  4B6C
....................             strcpy(Menus.Letra,"Incorrecta"); 
051F4:  MOVLW  04
051F6:  MOVWF  FEA
051F8:  MOVLW  17
051FA:  MOVWF  FE9
051FC:  MOVFF  FF2,5D0
05200:  BCF    FF2.7
05202:  MOVLW  00
05204:  CALL   0F56
05208:  TBLRD*-
0520A:  TBLRD*+
0520C:  MOVF   FF5,W
0520E:  MOVWF  FEE
05210:  IORLW  00
05212:  BNZ   520A
05214:  MOVLB  5
05216:  BTFSC  xD0.7
05218:  BSF    FF2.7
....................             displayMenu(Menus.Letra,0,30,0,2); 
0521A:  MOVLW  04
0521C:  MOVWF  xD1
0521E:  MOVLW  17
05220:  MOVWF  xD0
05222:  CLRF   xD2
05224:  MOVLW  1E
05226:  MOVWF  xD3
05228:  CLRF   xD4
0522A:  MOVLW  02
0522C:  MOVWF  xD5
0522E:  MOVLB  0
05230:  RCALL  4B6C
....................             unidad=1;glcd_update();delay_ms(1000);Contrasena[0]=0;Contrasena[1]=0;Contrasena[2]=0;Contrasena[3]=0;glcd_fillScreen(OFF); 
05232:  MOVLW  01
05234:  MOVLB  4
05236:  MOVWF  xC1
05238:  MOVLB  0
0523A:  CALL   149E
0523E:  MOVLW  04
05240:  MOVLB  5
05242:  MOVWF  xD0
05244:  MOVLW  FA
05246:  MOVWF  xDC
05248:  MOVLB  0
0524A:  CALL   1364
0524E:  MOVLB  5
05250:  DECFSZ xD0,F
05252:  BRA    5244
05254:  MOVLB  4
05256:  CLRF   xF4
05258:  CLRF   xF5
0525A:  CLRF   xF6
0525C:  CLRF   xF7
0525E:  MOVLB  5
05260:  CLRF   xD0
05262:  MOVLB  0
05264:  CALL   1444
....................             glcd_rect(0, 0, 127, 25, YES, ON);strcpy(Menus.Letra,"Clave");glcd_text57(25, 1, Menus.Letra, 3, OFF);displayContrasena(Contrasena[0],20,30,1); 
05268:  MOVLB  5
0526A:  CLRF   xE1
0526C:  CLRF   xE2
0526E:  MOVLW  7F
05270:  MOVWF  xE3
05272:  MOVLW  19
05274:  MOVWF  xE4
05276:  MOVLW  01
05278:  MOVWF  xE5
0527A:  MOVWF  xE6
0527C:  MOVLB  0
0527E:  CALL   49EC
05282:  MOVLW  04
05284:  MOVWF  FEA
05286:  MOVLW  17
05288:  MOVWF  FE9
0528A:  MOVFF  FF2,5D0
0528E:  BCF    FF2.7
05290:  MOVLW  00
05292:  CALL   0F0A
05296:  TBLRD*-
05298:  TBLRD*+
0529A:  MOVF   FF5,W
0529C:  MOVWF  FEE
0529E:  IORLW  00
052A0:  BNZ   5298
052A2:  MOVLB  5
052A4:  BTFSC  xD0.7
052A6:  BSF    FF2.7
052A8:  MOVLW  19
052AA:  MOVWF  xE1
052AC:  MOVLW  01
052AE:  MOVWF  xE2
052B0:  MOVLW  04
052B2:  MOVWF  xE4
052B4:  MOVLW  17
052B6:  MOVWF  xE3
052B8:  MOVLW  03
052BA:  MOVWF  xE5
052BC:  CLRF   xE6
052BE:  MOVLB  0
052C0:  CALL   16DA
052C4:  MOVFF  4F4,5D2
052C8:  MOVLW  14
052CA:  MOVLB  5
052CC:  MOVWF  xD3
052CE:  MOVLW  1E
052D0:  MOVWF  xD4
052D2:  MOVLW  01
052D4:  MOVWF  xD5
052D6:  MOVLB  0
052D8:  CALL   4AB0
....................             displayContrasena(Contrasena[1],40,30,0);displayContrasena(Contrasena[2],60,30,0);displayContrasena(Contrasena[0],80,30,0); 
052DC:  MOVFF  4F5,5D2
052E0:  MOVLW  28
052E2:  MOVLB  5
052E4:  MOVWF  xD3
052E6:  MOVLW  1E
052E8:  MOVWF  xD4
052EA:  CLRF   xD5
052EC:  MOVLB  0
052EE:  CALL   4AB0
052F2:  MOVFF  4F6,5D2
052F6:  MOVLW  3C
052F8:  MOVLB  5
052FA:  MOVWF  xD3
052FC:  MOVLW  1E
052FE:  MOVWF  xD4
05300:  CLRF   xD5
05302:  MOVLB  0
05304:  CALL   4AB0
05308:  MOVFF  4F4,5D2
0530C:  MOVLW  50
0530E:  MOVLB  5
05310:  MOVWF  xD3
05312:  MOVLW  1E
05314:  MOVWF  xD4
05316:  CLRF   xD5
05318:  MOVLB  0
0531A:  CALL   4AB0
....................             Menu=MenuAnt;glcd_fillScreen(OFF);n=0; 
0531E:  MOVFF  5C9,4C0
05322:  MOVLB  5
05324:  CLRF   xD0
05326:  MOVLB  0
05328:  CALL   1444
0532C:  MOVLB  4
0532E:  BCF    x2F.0
....................             return 0; 
05330:  MOVLW  00
05332:  MOVWF  01
05334:  MOVLB  0
05336:  BRA    5338
05338:  MOVLB  4
....................          } 
....................       } 
.................... } 
0533A:  MOVLB  0
0533C:  RETLW  00
....................  
....................  
.................... #int_EXT            // Interrupcin de encoder para control. 
.................... void ext0() {       // 6 pulsos por vuelta. 
....................    pulsos++; 
*
012A2:  MOVLB  5
012A4:  INCF   xB4,F
012A6:  BTFSC  FD8.2
012A8:  INCF   xB5,F
....................    if(pulsos>=120){ 
012AA:  MOVF   xB5,F
012AC:  BNZ   12B4
012AE:  MOVF   xB4,W
012B0:  SUBLW  77
012B2:  BC    130C
....................       pulsos=0; 
012B4:  CLRF   xB5
012B6:  CLRF   xB4
....................       imprimir=1;Lectura=1;tiemporeset++; 
012B8:  MOVLB  4
012BA:  BSF    x2D.5
012BC:  BSF    x2E.7
012BE:  INCF   xC6,F
....................     
....................       if(flag_blower==1) 
012C0:  BTFSS  x2D.6
012C2:  BRA    12CA
....................          minutos_trabajo++;  
012C4:  INCF   xD8,F
012C6:  BTFSC  FD8.2
012C8:  INCF   xD9,F
....................    
....................       if(tiempo_purga==1 || Purga){                   
012CA:  BTFSC  x2E.3
012CC:  BRA    12D2
012CE:  BTFSS  x2F.2
012D0:  BRA    130A
....................          Tpurga[0]++; 
012D2:  INCF   xDC,F
....................          if(Tpurga[0]>9){ 
012D4:  BTFSC  xDC.7
012D6:  BRA    12E2
012D8:  MOVF   xDC,W
012DA:  SUBLW  09
012DC:  BC    12E2
....................             Tpurga[0]=0; 
012DE:  CLRF   xDC
....................             Tpurga[1]++; 
012E0:  INCF   xDD,F
....................          } 
....................          if(Tpurga[1]>5){ 
012E2:  BTFSC  xDD.7
012E4:  BRA    12F0
012E6:  MOVF   xDD,W
012E8:  SUBLW  05
012EA:  BC    12F0
....................             Tpurga[1]=0; 
012EC:  CLRF   xDD
....................             Tpurga[2]++; 
012EE:  INCF   xDE,F
....................          } 
....................          if(Tpurga[2]>9){ 
012F0:  BTFSC  xDE.7
012F2:  BRA    12FE
012F4:  MOVF   xDE,W
012F6:  SUBLW  09
012F8:  BC    12FE
....................             Tpurga[2]=0; 
012FA:  CLRF   xDE
....................             Tpurga[3]++; 
012FC:  INCF   xDF,F
....................          } 
....................          if(Tpurga[3]>5){ 
012FE:  BTFSC  xDF.7
01300:  BRA    130A
01302:  MOVF   xDF,W
01304:  SUBLW  05
01306:  BC    130A
....................             Tpurga[3]=0; 
01308:  CLRF   xDF
0130A:  MOVLB  5
....................          } 
....................       }  
....................    } 
....................    tiempocruce=0; 
0130C:  CLRF   xBD
0130E:  CLRF   xBC
....................    Cruce=ON; 
01310:  MOVLB  4
01312:  BSF    x2F.1
....................    if(VelMotor<6){ 
01314:  MOVLB  5
01316:  MOVF   xBF,W
01318:  SUBLW  05
0131A:  BNC   135C
....................       if(VelMotor>0 && Porcentaje<100){ 
0131C:  MOVF   xBF,F
0131E:  BZ    1358
01320:  MOVF   xBE,W
01322:  SUBLW  63
01324:  BNC   1358
....................          delay_us(retardo);       
01326:  MOVFF  5B7,610
0132A:  MOVLB  6
0132C:  INCF   x10,F
0132E:  DECF   x10,F
01330:  BTFSC  FD8.2
01332:  BRA    1340
01334:  MOVLW  FF
01336:  MOVWF  x11
01338:  MOVLB  0
0133A:  RCALL  1282
0133C:  MOVLB  6
0133E:  BRA    132E
01340:  MOVFF  5B6,611
01344:  MOVLB  0
01346:  RCALL  1282
....................          Motor_on; 
01348:  BSF    F8B.2
0134A:  BCF    F94.2
....................          delay_us(100);       
0134C:  MOVLW  A6
0134E:  MOVWF  00
01350:  DECFSZ 00,F
01352:  BRA    1350
01354:  NOP   
01356:  MOVLB  5
....................       } 
....................       Motor_off; 
01358:  BCF    F8B.2
0135A:  BCF    F94.2
....................    } 
.................... } 
....................  
0135C:  BCF    FF2.1
0135E:  MOVLB  0
01360:  GOTO   0058
.................... void glcd_imagen(int8 x) 
.................... { 
....................    char i,j; 
....................    signed char k;  
....................       
....................    if(x==3){ 
*
057B6:  MOVLB  5
057B8:  MOVF   xC8,W
057BA:  SUBLW  03
057BC:  BNZ   5860
....................    for( i = 0 ; i < 64 ; i ++ ) 
057BE:  CLRF   xC9
057C0:  MOVF   xC9,W
057C2:  SUBLW  3F
057C4:  BNC   5860
....................    {  for( j = 0 ; j < 16 ; j ++) 
057C6:  CLRF   xCA
057C8:  MOVF   xCA,W
057CA:  SUBLW  0F
057CC:  BNC   585C
....................       {  for(k=7;k>-1;k--) 
057CE:  MOVLW  07
057D0:  MOVWF  xCB
057D2:  MOVF   xCB,W
057D4:  XORLW  80
057D6:  SUBLW  7F
057D8:  BC    5858
....................          {       
....................             if( bit_test(Bombillo[i][j] ,7-k ))  
057DA:  CLRF   xCD
057DC:  MOVFF  5C9,5CC
057E0:  CLRF   xCF
057E2:  MOVLW  10
057E4:  MOVWF  xCE
057E6:  MOVLB  0
057E8:  RCALL  5794
057EA:  MOVFF  02,5CD
057EE:  MOVFF  01,5CC
057F2:  MOVLB  5
057F4:  MOVF   xCA,W
057F6:  ADDWF  01,W
057F8:  MOVWF  01
057FA:  MOVLW  00
057FC:  ADDWFC 02,W
057FE:  MOVWF  03
05800:  MOVF   01,W
05802:  MOVFF  FF2,5CC
05806:  BCF    FF2.7
05808:  MOVFF  03,FF7
0580C:  MOVLB  0
0580E:  CALL   02B6
05812:  MOVLB  5
05814:  BTFSC  xCC.7
05816:  BSF    FF2.7
05818:  MOVWF  xCC
0581A:  MOVLW  07
0581C:  BSF    FD8.0
0581E:  SUBFWB xCB,W
05820:  MOVWF  xCD
05822:  MOVFF  5CC,00
05826:  MOVF   xCD,W
05828:  MOVWF  01
0582A:  BZ    5834
0582C:  BCF    FD8.0
0582E:  RRCF   00,F
05830:  DECFSZ 01,F
05832:  BRA    582C
05834:  BTFSS  00.0
05836:  BRA    5854
....................                glcd_pixel( j*8+k,i, ON ); 
05838:  MOVF   xCA,W
0583A:  MULLW  08
0583C:  MOVF   FF3,W
0583E:  ADDWF  xCB,W
05840:  MOVWF  xCC
05842:  MOVWF  xFC
05844:  MOVFF  5C9,5FD
05848:  MOVLW  01
0584A:  MOVWF  xFE
0584C:  MOVLB  0
0584E:  CALL   15FE
05852:  MOVLB  5
....................          }   
05854:  DECF   xCB,F
05856:  BRA    57D2
....................       } 
05858:  INCF   xCA,F
0585A:  BRA    57C8
....................    } 
0585C:  INCF   xC9,F
0585E:  BRA    57C0
....................    } 
....................     
....................    if(x==4){ 
05860:  MOVF   xC8,W
05862:  SUBLW  04
05864:  BNZ   5908
....................    for( i = 0 ; i < 64 ; i ++ ) 
05866:  CLRF   xC9
05868:  MOVF   xC9,W
0586A:  SUBLW  3F
0586C:  BNC   5908
....................    {  for( j = 0 ; j < 16 ; j ++) 
0586E:  CLRF   xCA
05870:  MOVF   xCA,W
05872:  SUBLW  0F
05874:  BNC   5904
....................       {  for(k=7;k>-1;k--) 
05876:  MOVLW  07
05878:  MOVWF  xCB
0587A:  MOVF   xCB,W
0587C:  XORLW  80
0587E:  SUBLW  7F
05880:  BC    5900
....................          {       
....................             if( bit_test(Tomai[i][j] ,7-k ))  
05882:  CLRF   xCD
05884:  MOVFF  5C9,5CC
05888:  CLRF   xCF
0588A:  MOVLW  10
0588C:  MOVWF  xCE
0588E:  MOVLB  0
05890:  RCALL  5794
05892:  MOVFF  02,5CD
05896:  MOVFF  01,5CC
0589A:  MOVLB  5
0589C:  MOVF   xCA,W
0589E:  ADDWF  01,W
058A0:  MOVWF  01
058A2:  MOVLW  00
058A4:  ADDWFC 02,W
058A6:  MOVWF  03
058A8:  MOVF   01,W
058AA:  MOVFF  FF2,5CC
058AE:  BCF    FF2.7
058B0:  MOVFF  03,FF7
058B4:  MOVLB  0
058B6:  CALL   06D2
058BA:  MOVLB  5
058BC:  BTFSC  xCC.7
058BE:  BSF    FF2.7
058C0:  MOVWF  xCC
058C2:  MOVLW  07
058C4:  BSF    FD8.0
058C6:  SUBFWB xCB,W
058C8:  MOVWF  xCD
058CA:  MOVFF  5CC,00
058CE:  MOVF   xCD,W
058D0:  MOVWF  01
058D2:  BZ    58DC
058D4:  BCF    FD8.0
058D6:  RRCF   00,F
058D8:  DECFSZ 01,F
058DA:  BRA    58D4
058DC:  BTFSS  00.0
058DE:  BRA    58FC
....................                glcd_pixel( j*8+k,i, ON ); 
058E0:  MOVF   xCA,W
058E2:  MULLW  08
058E4:  MOVF   FF3,W
058E6:  ADDWF  xCB,W
058E8:  MOVWF  xCC
058EA:  MOVWF  xFC
058EC:  MOVFF  5C9,5FD
058F0:  MOVLW  01
058F2:  MOVWF  xFE
058F4:  MOVLB  0
058F6:  CALL   15FE
058FA:  MOVLB  5
....................          }   
058FC:  DECF   xCB,F
058FE:  BRA    587A
....................       } 
05900:  INCF   xCA,F
05902:  BRA    5870
....................    } 
05904:  INCF   xC9,F
05906:  BRA    5868
....................    } 
....................     
....................    if(x==5){ 
05908:  MOVF   xC8,W
0590A:  SUBLW  05
0590C:  BNZ   59B0
....................    for( i = 0 ; i < 64 ; i ++ ) 
0590E:  CLRF   xC9
05910:  MOVF   xC9,W
05912:  SUBLW  3F
05914:  BNC   59B0
....................    {  for( j = 0 ; j < 16 ; j ++) 
05916:  CLRF   xCA
05918:  MOVF   xCA,W
0591A:  SUBLW  0F
0591C:  BNC   59AC
....................       {  for(k=7;k>-1;k--) 
0591E:  MOVLW  07
05920:  MOVWF  xCB
05922:  MOVF   xCB,W
05924:  XORLW  80
05926:  SUBLW  7F
05928:  BC    59A8
....................          {       
....................             if( bit_test(Ventilador[i][j] ,7-k ))  
0592A:  CLRF   xCD
0592C:  MOVFF  5C9,5CC
05930:  CLRF   xCF
05932:  MOVLW  10
05934:  MOVWF  xCE
05936:  MOVLB  0
05938:  RCALL  5794
0593A:  MOVFF  02,5CD
0593E:  MOVFF  01,5CC
05942:  MOVLB  5
05944:  MOVF   xCA,W
05946:  ADDWF  01,W
05948:  MOVWF  01
0594A:  MOVLW  00
0594C:  ADDWFC 02,W
0594E:  MOVWF  03
05950:  MOVF   01,W
05952:  MOVFF  FF2,5CC
05956:  BCF    FF2.7
05958:  MOVFF  03,FF7
0595C:  MOVLB  0
0595E:  CALL   0AEE
05962:  MOVLB  5
05964:  BTFSC  xCC.7
05966:  BSF    FF2.7
05968:  MOVWF  xCC
0596A:  MOVLW  07
0596C:  BSF    FD8.0
0596E:  SUBFWB xCB,W
05970:  MOVWF  xCD
05972:  MOVFF  5CC,00
05976:  MOVF   xCD,W
05978:  MOVWF  01
0597A:  BZ    5984
0597C:  BCF    FD8.0
0597E:  RRCF   00,F
05980:  DECFSZ 01,F
05982:  BRA    597C
05984:  BTFSS  00.0
05986:  BRA    59A4
....................                glcd_pixel( j*8+k,i, ON ); 
05988:  MOVF   xCA,W
0598A:  MULLW  08
0598C:  MOVF   FF3,W
0598E:  ADDWF  xCB,W
05990:  MOVWF  xCC
05992:  MOVWF  xFC
05994:  MOVFF  5C9,5FD
05998:  MOVLW  01
0599A:  MOVWF  xFE
0599C:  MOVLB  0
0599E:  CALL   15FE
059A2:  MOVLB  5
....................          }   
059A4:  DECF   xCB,F
059A6:  BRA    5922
....................       } 
059A8:  INCF   xCA,F
059AA:  BRA    5918
....................    } 
059AC:  INCF   xC9,F
059AE:  BRA    5910
....................    } 
.................... } 
059B0:  MOVLB  0
059B2:  RETLW  00
....................  
....................  
.................... Float LeerFlujoInFlow(int media) 
.................... { 
....................     InFlow_adc=sensores(1); 
*
041DC:  MOVLW  01
041DE:  MOVLB  5
041E0:  MOVWF  xD9
041E2:  MOVLB  0
041E4:  CALL   2EC0
041E8:  MOVFF  02,4CF
041EC:  MOVFF  01,4CE
....................        
....................     if(negativo==10) 
041F0:  MOVLB  4
041F2:  MOVF   xC3,W
041F4:  SUBLW  0A
041F6:  BNZ   423E
....................     { 
....................       x_uno=Inflow_adc+Diferencia; 
041F8:  MOVFF  4CF,5FE
041FC:  MOVFF  4CE,5FD
04200:  MOVLB  0
04202:  CALL   1892
04206:  BCF    FD8.1
04208:  MOVFF  03,600
0420C:  MOVFF  02,5FF
04210:  MOVFF  01,5FE
04214:  MOVFF  00,5FD
04218:  MOVFF  50B,604
0421C:  MOVFF  50A,603
04220:  MOVFF  509,602
04224:  MOVFF  508,601
04228:  CALL   1A66
0422C:  MOVFF  03,513
04230:  MOVFF  02,512
04234:  MOVFF  01,511
04238:  MOVFF  00,510
0423C:  MOVLB  4
....................     } 
....................     if(negativo==20) 
0423E:  MOVF   xC3,W
04240:  SUBLW  14
04242:  BNZ   4288
....................     { 
....................       x_uno=Inflow_adc-Diferencia; 
04244:  MOVFF  4CF,5FE
04248:  MOVFF  4CE,5FD
0424C:  MOVLB  0
0424E:  CALL   1892
04252:  BSF    FD8.1
04254:  MOVFF  03,600
04258:  MOVFF  02,5FF
0425C:  MOVFF  01,5FE
04260:  MOVFF  00,5FD
04264:  MOVFF  50B,604
04268:  MOVFF  50A,603
0426C:  MOVFF  509,602
04270:  MOVFF  508,601
04274:  CALL   1A66
04278:  MOVFF  03,513
0427C:  MOVFF  02,512
04280:  MOVFF  01,511
04284:  MOVFF  00,510
....................     } 
....................     Velocidad=(pow(x_uno,3)*a)+(pow(x_uno,2)*b)+(x_uno*c)+(d); 
04288:  MOVFF  513,5D0
0428C:  MOVFF  512,5CF
04290:  MOVFF  511,5CE
04294:  MOVFF  510,5CD
04298:  MOVLB  5
0429A:  CLRF   xD4
0429C:  CLRF   xD3
0429E:  MOVLW  40
042A0:  MOVWF  xD2
042A2:  MOVLW  80
042A4:  MOVWF  xD1
042A6:  MOVLB  0
042A8:  RCALL  3EC2
042AA:  MOVFF  00,5C9
042AE:  MOVFF  01,5CA
042B2:  MOVFF  02,5CB
042B6:  MOVFF  03,5CC
042BA:  MOVFF  03,5FC
042BE:  MOVFF  02,5FB
042C2:  MOVFF  01,5FA
042C6:  MOVFF  00,5F9
042CA:  MOVFF  52F,600
042CE:  MOVFF  52E,5FF
042D2:  MOVFF  52D,5FE
042D6:  MOVFF  52C,5FD
042DA:  CALL   2F3A
042DE:  MOVFF  00,5C9
042E2:  MOVFF  01,5CA
042E6:  MOVFF  02,5CB
042EA:  MOVFF  03,5CC
042EE:  MOVFF  513,5D0
042F2:  MOVFF  512,5CF
042F6:  MOVFF  511,5CE
042FA:  MOVFF  510,5CD
042FE:  MOVLB  5
04300:  CLRF   xD4
04302:  CLRF   xD3
04304:  CLRF   xD2
04306:  MOVLW  80
04308:  MOVWF  xD1
0430A:  MOVLB  0
0430C:  RCALL  3EC2
0430E:  MOVFF  00,5CD
04312:  MOVFF  01,5CE
04316:  MOVFF  02,5CF
0431A:  MOVFF  03,5D0
0431E:  MOVFF  03,5FC
04322:  MOVFF  02,5FB
04326:  MOVFF  01,5FA
0432A:  MOVFF  00,5F9
0432E:  MOVFF  533,600
04332:  MOVFF  532,5FF
04336:  MOVFF  531,5FE
0433A:  MOVFF  530,5FD
0433E:  CALL   2F3A
04342:  MOVFF  FEA,5CE
04346:  MOVFF  FE9,5CD
0434A:  BCF    FD8.1
0434C:  MOVFF  5CC,600
04350:  MOVFF  5CB,5FF
04354:  MOVFF  5CA,5FE
04358:  MOVFF  5C9,5FD
0435C:  MOVFF  03,604
04360:  MOVFF  02,603
04364:  MOVFF  01,602
04368:  MOVFF  00,601
0436C:  CALL   1A66
04370:  MOVFF  5CE,FEA
04374:  MOVFF  5CD,FE9
04378:  MOVFF  00,5C9
0437C:  MOVFF  01,5CA
04380:  MOVFF  02,5CB
04384:  MOVFF  03,5CC
04388:  MOVFF  513,5FC
0438C:  MOVFF  512,5FB
04390:  MOVFF  511,5FA
04394:  MOVFF  510,5F9
04398:  MOVFF  537,600
0439C:  MOVFF  536,5FF
043A0:  MOVFF  535,5FE
043A4:  MOVFF  534,5FD
043A8:  CALL   2F3A
043AC:  MOVFF  FEA,5D0
043B0:  MOVFF  FE9,5CF
043B4:  BCF    FD8.1
043B6:  MOVFF  5CC,600
043BA:  MOVFF  5CB,5FF
043BE:  MOVFF  5CA,5FE
043C2:  MOVFF  5C9,5FD
043C6:  MOVFF  03,604
043CA:  MOVFF  02,603
043CE:  MOVFF  01,602
043D2:  MOVFF  00,601
043D6:  CALL   1A66
043DA:  MOVFF  5D0,FEA
043DE:  MOVFF  5CF,FE9
043E2:  MOVFF  00,5C9
043E6:  MOVFF  01,5CA
043EA:  MOVFF  02,5CB
043EE:  MOVFF  03,5CC
043F2:  MOVFF  FEA,5D2
043F6:  MOVFF  FE9,5D1
043FA:  BCF    FD8.1
043FC:  MOVFF  03,600
04400:  MOVFF  02,5FF
04404:  MOVFF  01,5FE
04408:  MOVFF  00,5FD
0440C:  MOVFF  53B,604
04410:  MOVFF  53A,603
04414:  MOVFF  539,602
04418:  MOVFF  538,601
0441C:  CALL   1A66
04420:  MOVFF  5D2,FEA
04424:  MOVFF  5D1,FE9
04428:  MOVFF  03,50F
0442C:  MOVFF  02,50E
04430:  MOVFF  01,50D
04434:  MOVFF  00,50C
....................     //Velocidad=Velocidad*correccion;//Ajuste de Temperatura 
....................      
....................     if(Velocidad<0.0) 
04438:  MOVFF  50F,5FC
0443C:  MOVFF  50E,5FB
04440:  MOVFF  50D,5FA
04444:  MOVFF  50C,5F9
04448:  MOVLB  6
0444A:  CLRF   x00
0444C:  MOVLB  5
0444E:  CLRF   xFF
04450:  CLRF   xFE
04452:  CLRF   xFD
04454:  MOVLB  0
04456:  CALL   248C
0445A:  BNC   4466
....................      {Velocidad=0.0;} 
0445C:  MOVLB  5
0445E:  CLRF   x0F
04460:  CLRF   x0E
04462:  CLRF   x0D
04464:  CLRF   x0C
....................       
....................      if(l>=media) 
04466:  MOVLB  5
04468:  MOVF   xC8,W
0446A:  MOVLB  4
0446C:  SUBWF  xC9,W
0446E:  BNC   4472
....................        {l=0;} 
04470:  CLRF   xC9
....................       
....................      promedio[l]=Velocidad;l++; 
04472:  MOVF   xC9,W
04474:  MULLW  04
04476:  MOVF   FF3,W
04478:  CLRF   03
0447A:  ADDLW  3C
0447C:  MOVWF  FE9
0447E:  MOVLW  05
04480:  ADDWFC 03,W
04482:  MOVWF  FEA
04484:  MOVFF  50C,FEF
04488:  MOVFF  50D,FEC
0448C:  MOVFF  50E,FEC
04490:  MOVFF  50F,FEC
04494:  INCF   xC9,F
....................      Flujo=0; 
04496:  MOVLB  5
04498:  CLRF   x9F
0449A:  CLRF   x9E
0449C:  CLRF   x9D
0449E:  CLRF   x9C
....................         for(h=0;h<=(media-1);h++) 
044A0:  MOVLB  4
044A2:  CLRF   xCA
044A4:  MOVLW  01
044A6:  MOVLB  5
044A8:  SUBWF  xC8,W
044AA:  MOVLB  4
044AC:  SUBWF  xCA,W
044AE:  BZ    44B2
044B0:  BC    4522
....................         { 
....................            Flujo+=promedio[h]; 
044B2:  MOVF   xCA,W
044B4:  MULLW  04
044B6:  MOVF   FF3,W
044B8:  CLRF   03
044BA:  ADDLW  3C
044BC:  MOVWF  FE9
044BE:  MOVLW  05
044C0:  ADDWFC 03,W
044C2:  MOVWF  FEA
044C4:  MOVFF  FEF,00
044C8:  MOVFF  FEC,01
044CC:  MOVFF  FEC,02
044D0:  MOVFF  FEC,03
044D4:  MOVFF  FEA,5CA
044D8:  MOVFF  FE9,5C9
044DC:  BCF    FD8.1
044DE:  MOVFF  59F,600
044E2:  MOVFF  59E,5FF
044E6:  MOVFF  59D,5FE
044EA:  MOVFF  59C,5FD
044EE:  MOVFF  03,604
044F2:  MOVFF  02,603
044F6:  MOVFF  01,602
044FA:  MOVFF  00,601
044FE:  MOVLB  0
04500:  CALL   1A66
04504:  MOVFF  5CA,FEA
04508:  MOVFF  5C9,FE9
0450C:  MOVFF  03,59F
04510:  MOVFF  02,59E
04514:  MOVFF  01,59D
04518:  MOVFF  00,59C
....................         }  
0451C:  MOVLB  4
0451E:  INCF   xCA,F
04520:  BRA    44A4
....................            Flujo=(Flujo/media)*Ajuste1;  
04522:  MOVLB  5
04524:  CLRF   xFE
04526:  MOVFF  5C8,5FD
0452A:  MOVLB  0
0452C:  CALL   1892
04530:  MOVFF  59F,5FC
04534:  MOVFF  59E,5FB
04538:  MOVFF  59D,5FA
0453C:  MOVFF  59C,5F9
04540:  MOVFF  03,600
04544:  MOVFF  02,5FF
04548:  MOVFF  01,5FE
0454C:  MOVFF  00,5FD
04550:  CALL   18C8
04554:  MOVFF  00,5C9
04558:  MOVFF  01,5CA
0455C:  MOVFF  02,5CB
04560:  MOVFF  03,5CC
04564:  MOVFF  03,5FC
04568:  MOVFF  02,5FB
0456C:  MOVFF  01,5FA
04570:  MOVFF  00,5F9
04574:  MOVFF  51F,600
04578:  MOVFF  51E,5FF
0457C:  MOVFF  51D,5FE
04580:  MOVFF  51C,5FD
04584:  CALL   2F3A
04588:  MOVFF  03,59F
0458C:  MOVFF  02,59E
04590:  MOVFF  01,59D
04594:  MOVFF  00,59C
....................            return Flujo; 
04598:  MOVFF  59C,00
0459C:  MOVFF  59D,01
045A0:  MOVFF  59E,02
045A4:  MOVFF  59F,03
.................... } 
045A8:  GOTO   5F9A (RETURN)
....................  
.................... void main(){ 
*
059B4:  CLRF   FF8
059B6:  BCF    FD0.7
059B8:  BSF    07.7
059BA:  CLRF   FEA
059BC:  CLRF   FE9
059BE:  MOVLB  4
059C0:  BCF    x2D.0
059C2:  BCF    x2D.1
059C4:  BCF    x2D.2
059C6:  BCF    x2D.3
059C8:  BCF    x2D.4
059CA:  BCF    x2D.5
059CC:  BCF    x2D.6
059CE:  BCF    x2D.7
059D0:  BCF    x2E.0
059D2:  BCF    x2E.1
059D4:  BCF    x2E.2
059D6:  BCF    x2E.3
059D8:  BCF    x2E.4
059DA:  BCF    x2E.5
059DC:  BCF    x2E.6
059DE:  BCF    x2E.7
059E0:  BCF    x2F.0
059E2:  MOVLW  C8
059E4:  MOVWF  xC0
059E6:  MOVLW  01
059E8:  MOVWF  xC1
059EA:  MOVWF  xC2
059EC:  MOVLW  0A
059EE:  MOVWF  xC3
059F0:  CLRF   xC4
059F2:  CLRF   xC5
059F4:  CLRF   xC6
059F6:  CLRF   xC7
059F8:  CLRF   xC8
059FA:  CLRF   xC9
059FC:  CLRF   xCA
059FE:  CLRF   xCB
05A00:  CLRF   xCC
05A02:  MOVWF  xCD
05A04:  CLRF   xCF
05A06:  CLRF   xCE
05A08:  CLRF   xD1
05A0A:  CLRF   xD0
05A0C:  CLRF   xD3
05A0E:  CLRF   xD2
05A10:  CLRF   xD5
05A12:  CLRF   xD4
05A14:  CLRF   xD7
05A16:  CLRF   xD6
05A18:  CLRF   xD9
05A1A:  CLRF   xD8
05A1C:  CLRF   xDB
05A1E:  CLRF   xDA
05A20:  CLRF   xFF
05A22:  CLRF   xFE
05A24:  CLRF   xFD
05A26:  CLRF   xFC
05A28:  MOVLB  5
05A2A:  CLRF   x03
05A2C:  CLRF   x02
05A2E:  CLRF   x01
05A30:  CLRF   x00
05A32:  CLRF   x07
05A34:  CLRF   x06
05A36:  CLRF   x05
05A38:  CLRF   x04
05A3A:  CLRF   x0B
05A3C:  CLRF   x0A
05A3E:  CLRF   x09
05A40:  CLRF   x08
05A42:  CLRF   x0F
05A44:  CLRF   x0E
05A46:  CLRF   x0D
05A48:  CLRF   x0C
05A4A:  CLRF   x13
05A4C:  CLRF   x12
05A4E:  CLRF   x11
05A50:  CLRF   x10
05A52:  CLRF   x17
05A54:  CLRF   x16
05A56:  CLRF   x15
05A58:  CLRF   x14
05A5A:  CLRF   x1B
05A5C:  CLRF   x1A
05A5E:  CLRF   x19
05A60:  CLRF   x18
05A62:  CLRF   x1F
05A64:  CLRF   x1E
05A66:  CLRF   x1D
05A68:  CLRF   x1C
05A6A:  CLRF   x23
05A6C:  CLRF   x22
05A6E:  CLRF   x21
05A70:  CLRF   x20
05A72:  CLRF   x27
05A74:  CLRF   x26
05A76:  CLRF   x25
05A78:  CLRF   x24
05A7A:  CLRF   x2B
05A7C:  CLRF   x2A
05A7E:  CLRF   x29
05A80:  CLRF   x28
05A82:  MOVLW  29
05A84:  MOVWF  x2F
05A86:  MOVLW  B6
05A88:  MOVWF  x2E
05A8A:  MOVLW  20
05A8C:  MOVWF  x2D
05A8E:  MOVLW  6E
05A90:  MOVWF  x2C
05A92:  MOVLW  EE
05A94:  MOVWF  x33
05A96:  MOVLW  7D
05A98:  MOVWF  x32
05A9A:  MOVLW  EE
05A9C:  MOVWF  x31
05A9E:  MOVLW  77
05AA0:  MOVWF  x30
05AA2:  MOVLW  ED
05AA4:  MOVWF  x37
05AA6:  MOVLW  47
05AA8:  MOVWF  x36
05AAA:  MOVLW  6D
05AAC:  MOVWF  x35
05AAE:  MOVLW  7F
05AB0:  MOVWF  x34
05AB2:  MOVLW  1A
05AB4:  MOVWF  x3B
05AB6:  MOVLW  D1
05AB8:  MOVWF  x3A
05ABA:  MOVLW  9C
05ABC:  MOVWF  x39
05ABE:  MOVLW  86
05AC0:  MOVWF  x38
05AC2:  CLRF   x9F
05AC4:  CLRF   x9E
05AC6:  CLRF   x9D
05AC8:  CLRF   x9C
05ACA:  CLRF   xA3
05ACC:  CLRF   xA2
05ACE:  MOVLW  50
05AD0:  MOVWF  xA1
05AD2:  MOVLW  86
05AD4:  MOVWF  xA0
05AD6:  CLRF   xA7
05AD8:  CLRF   xA6
05ADA:  CLRF   xA5
05ADC:  CLRF   xA4
05ADE:  CLRF   xAB
05AE0:  CLRF   xAA
05AE2:  CLRF   xA9
05AE4:  CLRF   xA8
05AE6:  CLRF   xAF
05AE8:  CLRF   xAE
05AEA:  CLRF   xAD
05AEC:  CLRF   xAC
05AEE:  CLRF   xB3
05AF0:  CLRF   xB2
05AF2:  CLRF   xB1
05AF4:  MOVLW  80
05AF6:  MOVWF  xB0
05AF8:  CLRF   xB5
05AFA:  CLRF   xB4
05AFC:  CLRF   xB7
05AFE:  CLRF   xB6
05B00:  CLRF   xB8
05B02:  CLRF   xB9
05B04:  CLRF   xBA
05B06:  CLRF   xBB
05B08:  MOVLB  4
05B0A:  BCF    x2F.1
05B0C:  BCF    x2F.2
05B0E:  MOVLB  5
05B10:  CLRF   xBD
05B12:  CLRF   xBC
05B14:  CLRF   xBE
05B16:  CLRF   xBF
05B18:  CLRF   xC3
05B1A:  CLRF   xC2
05B1C:  CLRF   xC1
05B1E:  CLRF   xC0
05B20:  CLRF   xC7
05B22:  CLRF   xC6
05B24:  CLRF   xC5
05B26:  CLRF   xC4
05B28:  MOVF   FC1,W
05B2A:  ANDLW  C0
05B2C:  IORLW  0F
05B2E:  MOVWF  FC1
05B30:  MOVLW  07
05B32:  MOVWF  FB4
05B34:  MOVLB  4
05B36:  CLRF   x2B
05B38:  CLRF   x2C
05B3A:  MOVLW  4A
05B3C:  MOVWF  x30
05B3E:  MOVLW  50
05B40:  MOVWF  x31
05B42:  MOVLW  20
05B44:  MOVWF  x32
05B46:  MOVLW  49
05B48:  MOVWF  x33
05B4A:  MOVLW  6E
05B4C:  MOVWF  x34
05B4E:  MOVLW  67
05B50:  MOVWF  x35
05B52:  MOVLW  6C
05B54:  MOVWF  x36
05B56:  MOVLW  6F
05B58:  MOVWF  x37
05B5A:  MOVLW  62
05B5C:  MOVWF  x38
05B5E:  MOVLW  61
05B60:  MOVWF  x39
05B62:  MOVLW  6C
05B64:  MOVWF  x3A
05B66:  CLRF   x3B
05B68:  MOVLW  20
05B6A:  MOVWF  x3C
05B6C:  MOVWF  x3D
05B6E:  MOVWF  x3E
05B70:  MOVLW  45
05B72:  MOVWF  x3F
05B74:  MOVLW  73
05B76:  MOVWF  x40
05B78:  MOVLW  74
05B7A:  MOVWF  x41
05B7C:  MOVLW  61
05B7E:  MOVWF  x42
05B80:  MOVLW  63
05B82:  MOVWF  x43
05B84:  MOVLW  69
05B86:  MOVWF  x44
05B88:  MOVLW  6F
05B8A:  MOVWF  x45
05B8C:  MOVLW  6E
05B8E:  MOVWF  x46
05B90:  MOVLW  20
05B92:  MOVWF  x47
05B94:  MOVLW  64
05B96:  MOVWF  x48
05B98:  MOVLW  65
05B9A:  MOVWF  x49
05B9C:  CLRF   x4A
05B9E:  MOVLW  3A
05BA0:  MOVWF  x4B
05BA2:  CLRF   x4C
05BA4:  MOVLW  20
05BA6:  MOVWF  x4D
05BA8:  MOVLW  54
05BAA:  MOVWF  x4E
05BAC:  MOVLW  72
05BAE:  MOVWF  x4F
05BB0:  MOVLW  61
05BB2:  MOVWF  x50
05BB4:  MOVLW  62
05BB6:  MOVWF  x51
05BB8:  MOVLW  61
05BBA:  MOVWF  x52
05BBC:  MOVLW  6A
05BBE:  MOVWF  x53
05BC0:  MOVLW  6F
05BC2:  MOVWF  x54
05BC4:  CLRF   x55
05BC6:  MOVLW  54
05BC8:  MOVWF  x56
05BCA:  MOVLW  69
05BCC:  MOVWF  x57
05BCE:  MOVLW  65
05BD0:  MOVWF  x58
05BD2:  MOVLW  6D
05BD4:  MOVWF  x59
05BD6:  MOVLW  70
05BD8:  MOVWF  x5A
05BDA:  MOVLW  6F
05BDC:  MOVWF  x5B
05BDE:  MOVLW  20
05BE0:  MOVWF  x5C
05BE2:  MOVLW  64
05BE4:  MOVWF  x5D
05BE6:  MOVLW  65
05BE8:  MOVWF  x5E
05BEA:  MOVLW  20
05BEC:  MOVWF  x5F
05BEE:  MOVLW  50
05BF0:  MOVWF  x60
05BF2:  MOVLW  75
05BF4:  MOVWF  x61
05BF6:  MOVLW  72
05BF8:  MOVWF  x62
05BFA:  MOVLW  67
05BFC:  MOVWF  x63
05BFE:  MOVLW  61
05C00:  MOVWF  x64
05C02:  CLRF   x65
05C04:  MOVLW  56
05C06:  MOVWF  x66
05C08:  MOVLW  65
05C0A:  MOVWF  x67
05C0C:  MOVLW  6C
05C0E:  MOVWF  x68
05C10:  MOVLW  3A
05C12:  MOVWF  x69
05C14:  CLRF   x6A
05C16:  MOVLW  54
05C18:  MOVWF  x6B
05C1A:  MOVLW  65
05C1C:  MOVWF  x6C
05C1E:  MOVLW  6D
05C20:  MOVWF  x6D
05C22:  MOVLW  70
05C24:  MOVWF  x6E
05C26:  MOVLW  65
05C28:  MOVWF  x6F
05C2A:  MOVLW  72
05C2C:  MOVWF  x70
05C2E:  MOVLW  61
05C30:  MOVWF  x71
05C32:  MOVLW  74
05C34:  MOVWF  x72
05C36:  MOVLW  75
05C38:  MOVWF  x73
05C3A:  MOVLW  72
05C3C:  MOVWF  x74
05C3E:  MOVLW  61
05C40:  MOVWF  x75
05C42:  CLRF   x76
05C44:  MOVLW  46
05C46:  MOVWF  x77
05C48:  MOVLW  61
05C4A:  MOVWF  x78
05C4C:  MOVLW  62
05C4E:  MOVWF  x79
05C50:  MOVLW  72
05C52:  MOVWF  x7A
05C54:  MOVLW  69
05C56:  MOVWF  x7B
05C58:  MOVLW  63
05C5A:  MOVWF  x7C
05C5C:  MOVLW  61
05C5E:  MOVWF  x7D
05C60:  MOVLW  3A
05C62:  MOVWF  x7E
05C64:  MOVLW  32
05C66:  MOVWF  x7F
05C68:  MOVLW  30
05C6A:  MOVWF  x80
05C6C:  MOVLW  38
05C6E:  MOVWF  x81
05C70:  MOVLW  2E
05C72:  MOVWF  x82
05C74:  MOVLW  30
05C76:  MOVWF  x83
05C78:  CLRF   x84
05C7A:  MOVLW  41
05C7C:  MOVWF  x85
05C7E:  MOVLW  63
05C80:  MOVWF  x86
05C82:  MOVLW  74
05C84:  MOVWF  x87
05C86:  MOVLW  75
05C88:  MOVWF  x88
05C8A:  MOVLW  61
05C8C:  MOVWF  x89
05C8E:  MOVLW  6C
05C90:  MOVWF  x8A
05C92:  MOVLW  3A
05C94:  MOVWF  x8B
05C96:  CLRF   x8C
05C98:  MOVLW  41
05C9A:  MOVWF  x8D
05C9C:  MOVLW  6A
05C9E:  MOVWF  x8E
05CA0:  MOVLW  75
05CA2:  MOVWF  x8F
05CA4:  MOVLW  73
05CA6:  MOVWF  x90
05CA8:  MOVLW  74
05CAA:  MOVWF  x91
05CAC:  MOVLW  65
05CAE:  MOVWF  x92
05CB0:  MOVLW  3A
05CB2:  MOVWF  x93
05CB4:  CLRF   x94
05CB6:  MOVLW  54
05CB8:  MOVWF  x95
05CBA:  MOVLW  2E
05CBC:  MOVWF  x96
05CBE:  MOVLW  54
05CC0:  MOVWF  x97
05CC2:  MOVLW  72
05CC4:  MOVWF  x98
05CC6:  MOVLW  61
05CC8:  MOVWF  x99
05CCA:  MOVLW  62
05CCC:  MOVWF  x9A
05CCE:  MOVLW  61
05CD0:  MOVWF  x9B
05CD2:  MOVLW  6A
05CD4:  MOVWF  x9C
05CD6:  MOVLW  6F
05CD8:  MOVWF  x9D
05CDA:  MOVLW  3A
05CDC:  MOVWF  x9E
05CDE:  CLRF   x9F
05CE0:  MOVLW  46
05CE2:  MOVWF  xA0
05CE4:  MOVLW  61
05CE6:  MOVWF  xA1
05CE8:  MOVLW  62
05CEA:  MOVWF  xA2
05CEC:  MOVLW  72
05CEE:  MOVWF  xA3
05CF0:  MOVLW  69
05CF2:  MOVWF  xA4
05CF4:  MOVLW  63
05CF6:  MOVWF  xA5
05CF8:  MOVLW  61
05CFA:  MOVWF  xA6
05CFC:  MOVLW  3A
05CFE:  MOVWF  xA7
05D00:  MOVLW  32
05D02:  MOVWF  xA8
05D04:  MOVLW  33
05D06:  MOVWF  xA9
05D08:  MOVLW  35
05D0A:  MOVWF  xAA
05D0C:  MOVLW  2E
05D0E:  MOVWF  xAB
05D10:  MOVLW  30
05D12:  MOVWF  xAC
05D14:  CLRF   xAD
05D16:  MOVLW  21
05D18:  MOVWF  xAE
05D1A:  MOVLW  46
05D1C:  MOVWF  xAF
05D1E:  MOVLW  69
05D20:  MOVWF  xB0
05D22:  MOVLW  6C
05D24:  MOVWF  xB1
05D26:  MOVLW  74
05D28:  MOVWF  xB2
05D2A:  MOVLW  72
05D2C:  MOVWF  xB3
05D2E:  MOVLW  6F
05D30:  MOVWF  xB4
05D32:  MOVLW  20
05D34:  MOVWF  xB5
05D36:  MOVLW  53
05D38:  MOVWF  xB6
05D3A:  MOVLW  61
05D3C:  MOVWF  xB7
05D3E:  MOVLW  74
05D40:  MOVWF  xB8
05D42:  MOVLW  75
05D44:  MOVWF  xB9
05D46:  MOVLW  72
05D48:  MOVWF  xBA
05D4A:  MOVLW  61
05D4C:  MOVWF  xBB
05D4E:  MOVLW  64
05D50:  MOVWF  xBC
05D52:  MOVLW  6F
05D54:  MOVWF  xBD
05D56:  MOVLW  21
05D58:  MOVWF  xBE
05D5A:  CLRF   xBF
05D5C:  CLRF   xDC
05D5E:  CLRF   xDD
05D60:  CLRF   xDE
05D62:  CLRF   xDF
05D64:  MOVLW  09
05D66:  MOVWF  xE0
05D68:  CLRF   xE1
05D6A:  CLRF   xE2
05D6C:  CLRF   xE3
05D6E:  MOVWF  xE4
05D70:  CLRF   xE5
05D72:  CLRF   xE6
05D74:  CLRF   xE7
05D76:  CLRF   xE8
05D78:  CLRF   xE9
05D7A:  CLRF   xEA
05D7C:  CLRF   xEB
05D7E:  CLRF   xEC
05D80:  CLRF   xED
05D82:  CLRF   xEE
05D84:  CLRF   xEF
05D86:  CLRF   xF0
05D88:  CLRF   xF1
05D8A:  CLRF   xF2
05D8C:  CLRF   xF3
05D8E:  CLRF   xF4
05D90:  CLRF   xF5
05D92:  CLRF   xF6
05D94:  CLRF   xF7
05D96:  CLRF   xF8
05D98:  CLRF   xF9
05D9A:  CLRF   xFA
05D9C:  CLRF   xFB
05D9E:  MOVLB  5
05DA0:  CLRF   x3C
05DA2:  CLRF   x3D
05DA4:  CLRF   x3E
05DA6:  CLRF   x3F
05DA8:  CLRF   x40
05DAA:  CLRF   x41
05DAC:  CLRF   x42
05DAE:  CLRF   x43
05DB0:  CLRF   x44
05DB2:  CLRF   x45
05DB4:  CLRF   x46
05DB6:  CLRF   x47
05DB8:  CLRF   x48
05DBA:  CLRF   x49
05DBC:  CLRF   x4A
05DBE:  CLRF   x4B
05DC0:  CLRF   x4C
05DC2:  CLRF   x4D
05DC4:  CLRF   x4E
05DC6:  CLRF   x4F
05DC8:  CLRF   x50
05DCA:  CLRF   x51
05DCC:  CLRF   x52
05DCE:  CLRF   x53
05DD0:  CLRF   x54
05DD2:  CLRF   x55
05DD4:  CLRF   x56
05DD6:  CLRF   x57
05DD8:  CLRF   x58
05DDA:  CLRF   x59
05DDC:  CLRF   x5A
05DDE:  CLRF   x5B
05DE0:  CLRF   x5C
05DE2:  CLRF   x5D
05DE4:  CLRF   x5E
05DE6:  CLRF   x5F
05DE8:  CLRF   x60
05DEA:  CLRF   x61
05DEC:  CLRF   x62
05DEE:  CLRF   x63
05DF0:  CLRF   x64
05DF2:  CLRF   x65
05DF4:  CLRF   x66
05DF6:  CLRF   x67
05DF8:  CLRF   x68
05DFA:  CLRF   x69
05DFC:  CLRF   x6A
05DFE:  CLRF   x6B
05E00:  CLRF   x6C
05E02:  CLRF   x6D
05E04:  CLRF   x6E
05E06:  CLRF   x6F
05E08:  CLRF   x70
05E0A:  CLRF   x71
05E0C:  CLRF   x72
05E0E:  CLRF   x73
05E10:  CLRF   x74
05E12:  CLRF   x75
05E14:  CLRF   x76
05E16:  CLRF   x77
05E18:  CLRF   x78
05E1A:  CLRF   x79
05E1C:  CLRF   x7A
05E1E:  CLRF   x7B
05E20:  CLRF   x7C
05E22:  CLRF   x7D
05E24:  CLRF   x7E
05E26:  CLRF   x7F
05E28:  CLRF   x80
05E2A:  CLRF   x81
05E2C:  CLRF   x82
05E2E:  CLRF   x83
05E30:  CLRF   x84
05E32:  CLRF   x85
05E34:  CLRF   x86
05E36:  CLRF   x87
05E38:  CLRF   x88
05E3A:  CLRF   x89
05E3C:  CLRF   x8A
05E3E:  CLRF   x8B
05E40:  CLRF   x8C
05E42:  CLRF   x8D
05E44:  CLRF   x8E
05E46:  CLRF   x8F
05E48:  CLRF   x90
05E4A:  CLRF   x91
05E4C:  CLRF   x92
05E4E:  CLRF   x93
05E50:  CLRF   x94
05E52:  CLRF   x95
05E54:  CLRF   x96
05E56:  CLRF   x97
05E58:  CLRF   x98
05E5A:  CLRF   x99
05E5C:  CLRF   x9A
05E5E:  CLRF   x9B
....................    delay_ms(1000); 
05E60:  MOVLW  04
05E62:  MOVWF  xC8
05E64:  MOVLW  FA
05E66:  MOVWF  xDC
05E68:  MOVLB  0
05E6A:  CALL   1364
05E6E:  MOVLB  5
05E70:  DECFSZ xC8,F
05E72:  BRA    5E64
....................    Cruce=OFF; 
05E74:  MOVLB  4
05E76:  BCF    x2F.1
....................    VelocidadMotor(0); 
05E78:  MOVLB  5
05E7A:  CLRF   xC8
05E7C:  MOVLB  0
05E7E:  CALL   138C
....................    Tcruce2=83; 
05E82:  MOVLB  5
05E84:  CLRF   xC7
05E86:  CLRF   xC6
05E88:  MOVLW  26
05E8A:  MOVWF  xC5
05E8C:  MOVLW  85
05E8E:  MOVWF  xC4
....................    Tcruce=8300; 
05E90:  CLRF   xC3
05E92:  MOVLW  B0
05E94:  MOVWF  xC2
05E96:  MOVLW  01
05E98:  MOVWF  xC1
05E9A:  MOVLW  8C
05E9C:  MOVWF  xC0
....................    Motor_off; 
05E9E:  BCF    F8B.2
05EA0:  BCF    F94.2
....................    //setup_timer_1(T1_INTERNAL|T1_DIV_BY_1); 
....................    //enable_interrupts(INT_TIMER1); 
....................    enable_interrupts(INT_EXT_L2H); 
05EA2:  BSF    FF2.4
05EA4:  BSF    FF1.6
....................    setup_adc_ports(AN0_TO_AN1); 
05EA6:  MOVF   FC1,W
05EA8:  ANDLW  C0
05EAA:  IORLW  0D
05EAC:  MOVWF  FC1
....................    setup_adc(ADC_CLOCK_DIV_32 ); 
05EAE:  MOVF   FC0,W
05EB0:  ANDLW  C0
05EB2:  IORLW  02
05EB4:  MOVWF  FC0
05EB6:  BSF    FC0.7
05EB8:  BSF    FC2.0
....................    enable_interrupts(global);   
05EBA:  MOVLW  C0
05EBC:  IORWF  FF2,F
....................    VelocidadMotor(0); 
05EBE:  CLRF   xC8
05EC0:  MOVLB  0
05EC2:  CALL   138C
....................    Motor_off; 
05EC6:  BCF    F8B.2
05EC8:  BCF    F94.2
.................... //-------Inicio de Cabina-------------------------------------------------------------------------// 
....................    Display_on; 
05ECA:  BSF    F8A.1
05ECC:  BCF    F93.1
....................    glcd_init(ON);             //Inicializa la glcd 
05ECE:  MOVLW  01
05ED0:  MOVLB  5
05ED2:  MOVWF  xC8
05ED4:  MOVLB  0
05ED6:  CALL   1556
....................    glcd_fillScreen(OFF);      //Limpia la pantalla 
05EDA:  MOVLB  5
05EDC:  CLRF   xD0
05EDE:  MOVLB  0
05EE0:  CALL   1444
....................    glcd_text57(0, 0, JP, 2, ON);glcd_text57(5, 20, Cabina, 1, ON);glcd_text57(10, 40, Clase, 2, ON);              
05EE4:  MOVLB  5
05EE6:  CLRF   xE1
05EE8:  CLRF   xE2
05EEA:  MOVLW  04
05EEC:  MOVWF  xE4
05EEE:  MOVLW  30
05EF0:  MOVWF  xE3
05EF2:  MOVLW  02
05EF4:  MOVWF  xE5
05EF6:  MOVLW  01
05EF8:  MOVWF  xE6
05EFA:  MOVLB  0
05EFC:  CALL   16DA
05F00:  MOVLW  05
05F02:  MOVLB  5
05F04:  MOVWF  xE1
05F06:  MOVLW  14
05F08:  MOVWF  xE2
05F0A:  MOVLW  04
05F0C:  MOVWF  xE4
05F0E:  MOVLW  3C
05F10:  MOVWF  xE3
05F12:  MOVLW  01
05F14:  MOVWF  xE5
05F16:  MOVWF  xE6
05F18:  MOVLB  0
05F1A:  CALL   16DA
05F1E:  MOVLW  0A
05F20:  MOVLB  5
05F22:  MOVWF  xE1
05F24:  MOVLW  28
05F26:  MOVWF  xE2
05F28:  MOVLW  04
05F2A:  MOVWF  xE4
05F2C:  MOVLW  4D
05F2E:  MOVWF  xE3
05F30:  MOVLW  02
05F32:  MOVWF  xE5
05F34:  MOVLW  01
05F36:  MOVWF  xE6
05F38:  MOVLB  0
05F3A:  CALL   16DA
....................    glcd_update(); 
05F3E:  CALL   149E
....................    delay_ms(3000); 
05F42:  MOVLW  0C
05F44:  MOVLB  5
05F46:  MOVWF  xC8
05F48:  MOVLW  FA
05F4A:  MOVWF  xDC
05F4C:  MOVLB  0
05F4E:  CALL   1364
05F52:  MOVLB  5
05F54:  DECFSZ xC8,F
05F56:  BRA    5F48
....................                         
....................    glcd_fillScreen(OFF);      //Limpia la pantalla 
05F58:  CLRF   xD0
05F5A:  MOVLB  0
05F5C:  CALL   1444
....................    Menu=0; 
05F60:  MOVLB  4
05F62:  CLRF   xC0
....................    LuzBlanca_off;Alarma_off; 
05F64:  BCF    F8B.0
05F66:  BCF    F94.0
05F68:  BCF    F8B.7
05F6A:  BCF    F94.7
.................... //-------Inicio de Cabina-------------------------------------------------------------------------// 
....................    VelocidadMotor(0); 
05F6C:  MOVLB  5
05F6E:  CLRF   xC8
05F70:  MOVLB  0
05F72:  CALL   138C
....................    Motor_off; 
05F76:  BCF    F8B.2
05F78:  BCF    F94.2
....................    LeeEEPROM(); // Lectura de variables almacenadas en la EEPROM  
05F7A:  GOTO   1CE4
....................    LimitaValores(); 
05F7E:  GOTO   2536
....................    //Menu=2; 
....................    while(true){  
....................    glcd_update(); 
05F82:  CALL   149E
.................... //**Actualizacin de Lectura de Sensores**//    
....................    if(Lectura==1){ 
05F86:  MOVLB  4
05F88:  BTFSS  x2E.7
05F8A:  BRA    5FD0
....................       Lectura=0; 
05F8C:  BCF    x2E.7
....................       InFlow=LeerFlujoInFlow(8); 
05F8E:  MOVLW  08
05F90:  MOVLB  5
05F92:  MOVWF  xC8
05F94:  MOVLB  0
05F96:  GOTO   41DC
05F9A:  MOVFF  03,4FF
05F9E:  MOVFF  02,4FE
05FA2:  MOVFF  01,4FD
05FA6:  MOVFF  00,4FC
....................       Temperatura=leeTemperatura(5); 
05FAA:  MOVLW  05
05FAC:  MOVLB  5
05FAE:  MOVWF  xC8
05FB0:  MOVLB  0
05FB2:  GOTO   45AC
05FB6:  MOVFF  03,5FC
05FBA:  MOVFF  02,5FB
05FBE:  MOVFF  01,5FA
05FC2:  MOVFF  00,5F9
05FC6:  CALL   2EFE
05FCA:  MOVFF  01,5BB
05FCE:  MOVLB  4
....................    } 
.................... //----------------------------------------// 
....................  
.................... //**Contador de Tiempo de Trabajo del filtro**// 
....................    if(minutos_trabajo>=3600){ // Tiempo de Trabajo 
05FD0:  MOVF   xD9,W
05FD2:  SUBLW  0D
05FD4:  BTFSC  FD8.0
05FD6:  BRA    617E
05FD8:  XORLW  FF
05FDA:  BNZ   5FE4
05FDC:  MOVF   xD8,W
05FDE:  SUBLW  0F
05FE0:  BTFSC  FD8.0
05FE2:  BRA    617E
....................       minutos_trabajo=0; //Minutos Trabajo realmente son segundos. 
05FE4:  CLRF   xD9
05FE6:  CLRF   xD8
....................       write_eeprom(33,make8(minutos_trabajo,0)); 
05FE8:  MOVFF  4D8,5C8
05FEC:  CLRF   FAA
05FEE:  MOVLW  21
05FF0:  MOVWF  FA9
05FF2:  MOVFF  5C8,FA8
05FF6:  BCF    FA6.6
05FF8:  BCF    FA6.7
05FFA:  BSF    FA6.2
05FFC:  MOVF   FF2,W
05FFE:  MOVWF  00
06000:  BCF    FF2.7
06002:  MOVLB  F
06004:  MOVLW  55
06006:  MOVWF  FA7
06008:  MOVLW  AA
0600A:  MOVWF  FA7
0600C:  BSF    FA6.1
0600E:  BTFSC  FA6.1
06010:  BRA    600E
06012:  BCF    FA6.2
06014:  MOVF   00,W
06016:  IORWF  FF2,F
....................       delay_ms(20); 
06018:  MOVLW  14
0601A:  MOVLB  5
0601C:  MOVWF  xDC
0601E:  MOVLB  0
06020:  CALL   1364
....................       write_eeprom(34,make8(minutos_trabajo,1)); 
06024:  MOVFF  4D9,5C8
06028:  CLRF   FAA
0602A:  MOVLW  22
0602C:  MOVWF  FA9
0602E:  MOVFF  5C8,FA8
06032:  BCF    FA6.6
06034:  BCF    FA6.7
06036:  BSF    FA6.2
06038:  MOVF   FF2,W
0603A:  MOVWF  00
0603C:  BCF    FF2.7
0603E:  MOVLB  F
06040:  MOVLW  55
06042:  MOVWF  FA7
06044:  MOVLW  AA
06046:  MOVWF  FA7
06048:  BSF    FA6.1
0604A:  BTFSC  FA6.1
0604C:  BRA    604A
0604E:  BCF    FA6.2
06050:  MOVF   00,W
06052:  IORWF  FF2,F
....................       delay_ms(20); 
06054:  MOVLW  14
06056:  MOVLB  5
06058:  MOVWF  xDC
0605A:  MOVLB  0
0605C:  CALL   1364
....................       Ttrabajo[0]++; 
06060:  MOVLB  4
06062:  INCF   xF0,F
....................       if(Ttrabajo[0]>9){ 
06064:  BTFSC  xF0.7
06066:  BRA    6072
06068:  MOVF   xF0,W
0606A:  SUBLW  09
0606C:  BC    6072
....................          Ttrabajo[0]=0; 
0606E:  CLRF   xF0
....................          Ttrabajo[1]++; 
06070:  INCF   xF1,F
....................       } 
....................       if(Ttrabajo[1]>9){ 
06072:  BTFSC  xF1.7
06074:  BRA    6080
06076:  MOVF   xF1,W
06078:  SUBLW  09
0607A:  BC    6080
....................          Ttrabajo[1]=0; 
0607C:  CLRF   xF1
....................          Ttrabajo[2]++; 
0607E:  INCF   xF2,F
....................       } 
....................       if(Ttrabajo[2]>9){ 
06080:  BTFSC  xF2.7
06082:  BRA    608E
06084:  MOVF   xF2,W
06086:  SUBLW  09
06088:  BC    608E
....................          Ttrabajo[2]=0; 
0608A:  CLRF   xF2
....................          Ttrabajo[3]++; 
0608C:  INCF   xF3,F
....................       } 
....................       if(Ttrabajo[3]>9){ 
0608E:  BTFSC  xF3.7
06090:  BRA    609A
06092:  MOVF   xF3,W
06094:  SUBLW  09
06096:  BC    609A
....................          Ttrabajo[3]=0; 
06098:  CLRF   xF3
....................       } 
....................       write_eeprom(16,Ttrabajo[0]); 
0609A:  CLRF   FAA
0609C:  MOVLW  10
0609E:  MOVWF  FA9
060A0:  MOVFF  4F0,FA8
060A4:  BCF    FA6.6
060A6:  BCF    FA6.7
060A8:  BSF    FA6.2
060AA:  MOVF   FF2,W
060AC:  MOVWF  00
060AE:  BCF    FF2.7
060B0:  MOVLB  F
060B2:  MOVLW  55
060B4:  MOVWF  FA7
060B6:  MOVLW  AA
060B8:  MOVWF  FA7
060BA:  BSF    FA6.1
060BC:  BTFSC  FA6.1
060BE:  BRA    60BC
060C0:  BCF    FA6.2
060C2:  MOVF   00,W
060C4:  IORWF  FF2,F
....................       delay_ms(20); 
060C6:  MOVLW  14
060C8:  MOVLB  5
060CA:  MOVWF  xDC
060CC:  MOVLB  0
060CE:  CALL   1364
....................       write_eeprom(17,Ttrabajo[1]); 
060D2:  CLRF   FAA
060D4:  MOVLW  11
060D6:  MOVWF  FA9
060D8:  MOVFF  4F1,FA8
060DC:  BCF    FA6.6
060DE:  BCF    FA6.7
060E0:  BSF    FA6.2
060E2:  MOVF   FF2,W
060E4:  MOVWF  00
060E6:  BCF    FF2.7
060E8:  MOVLB  F
060EA:  MOVLW  55
060EC:  MOVWF  FA7
060EE:  MOVLW  AA
060F0:  MOVWF  FA7
060F2:  BSF    FA6.1
060F4:  BTFSC  FA6.1
060F6:  BRA    60F4
060F8:  BCF    FA6.2
060FA:  MOVF   00,W
060FC:  IORWF  FF2,F
....................       delay_ms(20); 
060FE:  MOVLW  14
06100:  MOVLB  5
06102:  MOVWF  xDC
06104:  MOVLB  0
06106:  CALL   1364
....................       write_eeprom(18,Ttrabajo[2]); 
0610A:  CLRF   FAA
0610C:  MOVLW  12
0610E:  MOVWF  FA9
06110:  MOVFF  4F2,FA8
06114:  BCF    FA6.6
06116:  BCF    FA6.7
06118:  BSF    FA6.2
0611A:  MOVF   FF2,W
0611C:  MOVWF  00
0611E:  BCF    FF2.7
06120:  MOVLB  F
06122:  MOVLW  55
06124:  MOVWF  FA7
06126:  MOVLW  AA
06128:  MOVWF  FA7
0612A:  BSF    FA6.1
0612C:  BTFSC  FA6.1
0612E:  BRA    612C
06130:  BCF    FA6.2
06132:  MOVF   00,W
06134:  IORWF  FF2,F
....................       delay_ms(20); 
06136:  MOVLW  14
06138:  MOVLB  5
0613A:  MOVWF  xDC
0613C:  MOVLB  0
0613E:  CALL   1364
....................       write_eeprom(19,Ttrabajo[3]); 
06142:  CLRF   FAA
06144:  MOVLW  13
06146:  MOVWF  FA9
06148:  MOVFF  4F3,FA8
0614C:  BCF    FA6.6
0614E:  BCF    FA6.7
06150:  BSF    FA6.2
06152:  MOVF   FF2,W
06154:  MOVWF  00
06156:  BCF    FF2.7
06158:  MOVLB  F
0615A:  MOVLW  55
0615C:  MOVWF  FA7
0615E:  MOVLW  AA
06160:  MOVWF  FA7
06162:  BSF    FA6.1
06164:  BTFSC  FA6.1
06166:  BRA    6164
06168:  BCF    FA6.2
0616A:  MOVF   00,W
0616C:  IORWF  FF2,F
....................       delay_ms(20); 
0616E:  MOVLW  14
06170:  MOVLB  5
06172:  MOVWF  xDC
06174:  MOVLB  0
06176:  CALL   1364
....................    }else if(minutos_trabajo==900 || minutos_trabajo==1800 || minutos_trabajo==2700 ){ 
0617A:  BRA    621A
0617C:  MOVLB  4
0617E:  MOVF   xD8,W
06180:  SUBLW  84
06182:  BNZ   618A
06184:  MOVF   xD9,W
06186:  SUBLW  03
06188:  BZ    61A2
0618A:  MOVF   xD8,W
0618C:  SUBLW  08
0618E:  BNZ   6196
06190:  MOVF   xD9,W
06192:  SUBLW  07
06194:  BZ    61A2
06196:  MOVF   xD8,W
06198:  SUBLW  8C
0619A:  BNZ   621C
0619C:  MOVF   xD9,W
0619E:  SUBLW  0A
061A0:  BNZ   621C
....................       write_eeprom(33,make8(minutos_trabajo,0)); 
061A2:  MOVFF  4D8,5C8
061A6:  CLRF   FAA
061A8:  MOVLW  21
061AA:  MOVWF  FA9
061AC:  MOVFF  5C8,FA8
061B0:  BCF    FA6.6
061B2:  BCF    FA6.7
061B4:  BSF    FA6.2
061B6:  MOVF   FF2,W
061B8:  MOVWF  00
061BA:  BCF    FF2.7
061BC:  MOVLB  F
061BE:  MOVLW  55
061C0:  MOVWF  FA7
061C2:  MOVLW  AA
061C4:  MOVWF  FA7
061C6:  BSF    FA6.1
061C8:  BTFSC  FA6.1
061CA:  BRA    61C8
061CC:  BCF    FA6.2
061CE:  MOVF   00,W
061D0:  IORWF  FF2,F
....................       delay_ms(20); 
061D2:  MOVLW  14
061D4:  MOVLB  5
061D6:  MOVWF  xDC
061D8:  MOVLB  0
061DA:  CALL   1364
....................       write_eeprom(34,make8(minutos_trabajo,1)); 
061DE:  MOVFF  4D9,5C8
061E2:  CLRF   FAA
061E4:  MOVLW  22
061E6:  MOVWF  FA9
061E8:  MOVFF  5C8,FA8
061EC:  BCF    FA6.6
061EE:  BCF    FA6.7
061F0:  BSF    FA6.2
061F2:  MOVF   FF2,W
061F4:  MOVWF  00
061F6:  BCF    FF2.7
061F8:  MOVLB  F
061FA:  MOVLW  55
061FC:  MOVWF  FA7
061FE:  MOVLW  AA
06200:  MOVWF  FA7
06202:  BSF    FA6.1
06204:  BTFSC  FA6.1
06206:  BRA    6204
06208:  BCF    FA6.2
0620A:  MOVF   00,W
0620C:  IORWF  FF2,F
....................       delay_ms(20); 
0620E:  MOVLW  14
06210:  MOVLB  5
06212:  MOVWF  xDC
06214:  MOVLB  0
06216:  CALL   1364
0621A:  MOVLB  4
....................    } 
.................... //----------------------------------------//       
....................     
....................    if(Menu!=2){// Si no esta en el menu de estados apaga la alarma 
0621C:  MOVF   xC0,W
0621E:  SUBLW  02
06220:  BZ    622A
....................       Alarma_off; 
06222:  BCF    F8B.7
06224:  BCF    F94.7
....................       Alarma=10; 
06226:  MOVLW  0A
06228:  MOVWF  xCD
....................    } 
....................     
.................... //_-------------------------------------------------------------------------------------------------------------------------------------------------------- 
....................    if(Menu==0){ //Menu de Contrasea. 
0622A:  MOVF   xC0,F
0622C:  BNZ   6264
....................       while(PidePassword(0,0,1,Password[0],Password[1],Password[2],Password[3])==0){ 
0622E:  MOVLB  5
06230:  CLRF   xC9
06232:  CLRF   xCA
06234:  MOVLW  01
06236:  MOVWF  xCB
06238:  MOVFF  4F8,5CC
0623C:  MOVFF  4F9,5CD
06240:  MOVFF  4FA,5CE
06244:  MOVFF  4FB,5CF
06248:  MOVLB  0
0624A:  CALL   4C3C
0624E:  MOVF   01,F
06250:  BNZ   6266
....................          VelocidadMotor(0); 
06252:  MOVLB  5
06254:  CLRF   xC8
06256:  MOVLB  0
06258:  CALL   138C
....................          glcd_update(); 
0625C:  CALL   149E
....................       }        
06260:  MOVLB  4
06262:  BRA    622E
06264:  MOVLB  0
....................    } 
.................... //_--------------------------------------------------------------------------------------------------------------------------------------------------------        
....................  
.................... //_-------------------------------------------------------------------------------------------------------------------------------------------------------- 
....................       if(Menu==1){//Menu de Purga. 
06266:  MOVLB  4
06268:  DECFSZ xC0,W
0626A:  BRA    63D0
....................          Purga=ON; 
0626C:  BSF    x2F.2
....................          glcd_text57(15, 1, Tiempo, 1, ON); 
0626E:  MOVLW  0F
06270:  MOVLB  5
06272:  MOVWF  xE1
06274:  MOVLW  01
06276:  MOVWF  xE2
06278:  MOVLW  04
0627A:  MOVWF  xE4
0627C:  MOVLW  56
0627E:  MOVWF  xE3
06280:  MOVLW  01
06282:  MOVWF  xE5
06284:  MOVWF  xE6
06286:  MOVLB  0
06288:  CALL   16DA
....................          tiempo_purga=1;LuzBlanca_off;//Alarma_off; 
0628C:  MOVLB  4
0628E:  BSF    x2E.3
06290:  BCF    F8B.0
06292:  BCF    F94.0
....................          glcd_rect(9, 54, 120, 64, YES, OFF);          
06294:  MOVLW  09
06296:  MOVLB  5
06298:  MOVWF  xE1
0629A:  MOVLW  36
0629C:  MOVWF  xE2
0629E:  MOVLW  78
062A0:  MOVWF  xE3
062A2:  MOVLW  40
062A4:  MOVWF  xE4
062A6:  MOVLW  01
062A8:  MOVWF  xE5
062AA:  CLRF   xE6
062AC:  MOVLB  0
062AE:  CALL   49EC
....................          displayTiempo(Tpurga[3],20,20,0,2);displayTiempo(Tpurga[2],40,20,0,2);glcd_text57(60, 22, Dos_puntos, 2, ON); 
062B2:  MOVFF  4DF,5C8
062B6:  MOVLW  14
062B8:  MOVLB  5
062BA:  MOVWF  xC9
062BC:  MOVWF  xCA
062BE:  CLRF   xCB
062C0:  MOVLW  02
062C2:  MOVWF  xCC
062C4:  MOVLB  0
062C6:  CALL   533E
062CA:  MOVFF  4DE,5C8
062CE:  MOVLW  28
062D0:  MOVLB  5
062D2:  MOVWF  xC9
062D4:  MOVLW  14
062D6:  MOVWF  xCA
062D8:  CLRF   xCB
062DA:  MOVLW  02
062DC:  MOVWF  xCC
062DE:  MOVLB  0
062E0:  CALL   533E
062E4:  MOVLW  3C
062E6:  MOVLB  5
062E8:  MOVWF  xE1
062EA:  MOVLW  16
062EC:  MOVWF  xE2
062EE:  MOVLW  04
062F0:  MOVWF  xE4
062F2:  MOVLW  4B
062F4:  MOVWF  xE3
062F6:  MOVLW  02
062F8:  MOVWF  xE5
062FA:  MOVLW  01
062FC:  MOVWF  xE6
062FE:  MOVLB  0
06300:  CALL   16DA
....................          displayTiempo(Tpurga[1],70,20,0,2);displayTiempo(Tpurga[0],90,20,0,2);         
06304:  MOVFF  4DD,5C8
06308:  MOVLW  46
0630A:  MOVLB  5
0630C:  MOVWF  xC9
0630E:  MOVLW  14
06310:  MOVWF  xCA
06312:  CLRF   xCB
06314:  MOVLW  02
06316:  MOVWF  xCC
06318:  MOVLB  0
0631A:  CALL   533E
0631E:  MOVFF  4DC,5C8
06322:  MOVLW  5A
06324:  MOVLB  5
06326:  MOVWF  xC9
06328:  MOVLW  14
0632A:  MOVWF  xCA
0632C:  CLRF   xCB
0632E:  MOVLW  02
06330:  MOVWF  xCC
06332:  MOVLB  0
06334:  CALL   533E
....................           
....................          VelocidadMotor(VelMotor); 
06338:  MOVFF  5BF,5C8
0633C:  CALL   138C
....................           
....................          if(RIGHT){ 
06340:  BSF    F96.1
06342:  BTFSC  F84.1
06344:  BRA    6374
....................             delay_ms(500); 
06346:  MOVLW  02
06348:  MOVLB  5
0634A:  MOVWF  xC8
0634C:  MOVLW  FA
0634E:  MOVWF  xDC
06350:  MOVLB  0
06352:  CALL   1364
06356:  MOVLB  5
06358:  DECFSZ xC8,F
0635A:  BRA    634C
....................             if(RIGHT){ 
0635C:  BSF    F96.1
0635E:  BTFSC  F84.1
06360:  BRA    6376
....................                tiempo_purga=0;Menu=2;glcd_fillScreen(OFF); 
06362:  MOVLB  4
06364:  BCF    x2E.3
06366:  MOVLW  02
06368:  MOVWF  xC0
0636A:  MOVLB  5
0636C:  CLRF   xD0
0636E:  MOVLB  0
06370:  CALL   1444
06374:  MOVLB  5
....................             } 
....................          } 
....................         
....................          if((Tpurga[0]>=Tpurgap[0])&&(Tpurga[1]>=Tpurgap[1])&&(Tpurga[2]>=Tpurgap[2])&&(Tpurga[3]>=Tpurgap[3])){ 
06376:  MOVLB  4
06378:  MOVF   xE0,W
0637A:  XORLW  80
0637C:  MOVWF  00
0637E:  MOVF   xDC,W
06380:  XORLW  80
06382:  SUBWF  00,W
06384:  BZ    6388
06386:  BC    63D0
06388:  MOVF   xE1,W
0638A:  XORLW  80
0638C:  MOVWF  00
0638E:  MOVF   xDD,W
06390:  XORLW  80
06392:  SUBWF  00,W
06394:  BZ    6398
06396:  BC    63D0
06398:  MOVF   xE2,W
0639A:  XORLW  80
0639C:  MOVWF  00
0639E:  MOVF   xDE,W
063A0:  XORLW  80
063A2:  SUBWF  00,W
063A4:  BZ    63A8
063A6:  BC    63D0
063A8:  MOVF   xE3,W
063AA:  XORLW  80
063AC:  MOVWF  00
063AE:  MOVF   xDF,W
063B0:  XORLW  80
063B2:  SUBWF  00,W
063B4:  BZ    63B8
063B6:  BC    63D0
....................             tiempo_purga=0;Menu=2;glcd_fillScreen(OFF);flag_luz=!flag_luz;flag_blower=1;flag_toma=1; 
063B8:  BCF    x2E.3
063BA:  MOVLW  02
063BC:  MOVWF  xC0
063BE:  MOVLB  5
063C0:  CLRF   xD0
063C2:  MOVLB  0
063C4:  CALL   1444
063C8:  MOVLB  4
063CA:  BTG    x2E.0
063CC:  BSF    x2D.6
063CE:  BSF    x2D.7
....................          }       
....................       } 
.................... //_--------------------------------------------------------------------------------------------------------------------------------------------------------        
....................  
.................... //_-------------------------------------------------------------------------------------------------------------------------------------------------------- 
....................       if(Menu==2){ //Menu General. 
063D0:  MOVF   xC0,W
063D2:  SUBLW  02
063D4:  BTFSS  FD8.2
063D6:  GOTO   6DE6
....................          Purga=OFF; 
063DA:  BCF    x2F.2
....................          w=0; 
063DC:  BCF    x2E.2
....................          //glcd_imagen(4); 
....................           
....................          if(VelMotor==1){ 
063DE:  MOVLB  5
063E0:  DECFSZ xBF,W
063E2:  BRA    6498
....................             glcd_rect(0, 29, 13, 39, YES, ON); 
063E4:  CLRF   xE1
063E6:  MOVLW  1D
063E8:  MOVWF  xE2
063EA:  MOVLW  0D
063EC:  MOVWF  xE3
063EE:  MOVLW  27
063F0:  MOVWF  xE4
063F2:  MOVLW  01
063F4:  MOVWF  xE5
063F6:  MOVWF  xE6
063F8:  MOVLB  0
063FA:  CALL   49EC
....................             glcd_rect(15, 26, 28, 39, NO, ON); 
063FE:  MOVLW  0F
06400:  MOVLB  5
06402:  MOVWF  xE1
06404:  MOVLW  1A
06406:  MOVWF  xE2
06408:  MOVLW  1C
0640A:  MOVWF  xE3
0640C:  MOVLW  27
0640E:  MOVWF  xE4
06410:  CLRF   xE5
06412:  MOVLW  01
06414:  MOVWF  xE6
06416:  MOVLB  0
06418:  CALL   49EC
....................             glcd_rect(30, 23, 43, 39, NO, ON); 
0641C:  MOVLW  1E
0641E:  MOVLB  5
06420:  MOVWF  xE1
06422:  MOVLW  17
06424:  MOVWF  xE2
06426:  MOVLW  2B
06428:  MOVWF  xE3
0642A:  MOVLW  27
0642C:  MOVWF  xE4
0642E:  CLRF   xE5
06430:  MOVLW  01
06432:  MOVWF  xE6
06434:  MOVLB  0
06436:  CALL   49EC
....................             glcd_rect(45, 20, 58, 39, NO, ON); 
0643A:  MOVLW  2D
0643C:  MOVLB  5
0643E:  MOVWF  xE1
06440:  MOVLW  14
06442:  MOVWF  xE2
06444:  MOVLW  3A
06446:  MOVWF  xE3
06448:  MOVLW  27
0644A:  MOVWF  xE4
0644C:  CLRF   xE5
0644E:  MOVLW  01
06450:  MOVWF  xE6
06452:  MOVLB  0
06454:  CALL   49EC
....................             glcd_rect(60, 17, 73, 39, NO, ON); 
06458:  MOVLW  3C
0645A:  MOVLB  5
0645C:  MOVWF  xE1
0645E:  MOVLW  11
06460:  MOVWF  xE2
06462:  MOVLW  49
06464:  MOVWF  xE3
06466:  MOVLW  27
06468:  MOVWF  xE4
0646A:  CLRF   xE5
0646C:  MOVLW  01
0646E:  MOVWF  xE6
06470:  MOVLB  0
06472:  CALL   49EC
....................             glcd_rect(75, 14, 88, 39, NO, ON); 
06476:  MOVLW  4B
06478:  MOVLB  5
0647A:  MOVWF  xE1
0647C:  MOVLW  0E
0647E:  MOVWF  xE2
06480:  MOVLW  58
06482:  MOVWF  xE3
06484:  MOVLW  27
06486:  MOVWF  xE4
06488:  CLRF   xE5
0648A:  MOVLW  01
0648C:  MOVWF  xE6
0648E:  MOVLB  0
06490:  CALL   49EC
....................          }else if(VelMotor==2){ 
06494:  BRA    6836
06496:  MOVLB  5
06498:  MOVF   xBF,W
0649A:  SUBLW  02
0649C:  BNZ   6552
....................             glcd_rect(0, 29, 13, 39, YES, ON); 
0649E:  CLRF   xE1
064A0:  MOVLW  1D
064A2:  MOVWF  xE2
064A4:  MOVLW  0D
064A6:  MOVWF  xE3
064A8:  MOVLW  27
064AA:  MOVWF  xE4
064AC:  MOVLW  01
064AE:  MOVWF  xE5
064B0:  MOVWF  xE6
064B2:  MOVLB  0
064B4:  CALL   49EC
....................             glcd_rect(15, 26, 28, 39, YES, ON); 
064B8:  MOVLW  0F
064BA:  MOVLB  5
064BC:  MOVWF  xE1
064BE:  MOVLW  1A
064C0:  MOVWF  xE2
064C2:  MOVLW  1C
064C4:  MOVWF  xE3
064C6:  MOVLW  27
064C8:  MOVWF  xE4
064CA:  MOVLW  01
064CC:  MOVWF  xE5
064CE:  MOVWF  xE6
064D0:  MOVLB  0
064D2:  CALL   49EC
....................             glcd_rect(30, 23, 43, 39, NO, ON); 
064D6:  MOVLW  1E
064D8:  MOVLB  5
064DA:  MOVWF  xE1
064DC:  MOVLW  17
064DE:  MOVWF  xE2
064E0:  MOVLW  2B
064E2:  MOVWF  xE3
064E4:  MOVLW  27
064E6:  MOVWF  xE4
064E8:  CLRF   xE5
064EA:  MOVLW  01
064EC:  MOVWF  xE6
064EE:  MOVLB  0
064F0:  CALL   49EC
....................             glcd_rect(45, 20, 58, 39, NO, ON); 
064F4:  MOVLW  2D
064F6:  MOVLB  5
064F8:  MOVWF  xE1
064FA:  MOVLW  14
064FC:  MOVWF  xE2
064FE:  MOVLW  3A
06500:  MOVWF  xE3
06502:  MOVLW  27
06504:  MOVWF  xE4
06506:  CLRF   xE5
06508:  MOVLW  01
0650A:  MOVWF  xE6
0650C:  MOVLB  0
0650E:  CALL   49EC
....................             glcd_rect(60, 17, 73, 39, NO, ON); 
06512:  MOVLW  3C
06514:  MOVLB  5
06516:  MOVWF  xE1
06518:  MOVLW  11
0651A:  MOVWF  xE2
0651C:  MOVLW  49
0651E:  MOVWF  xE3
06520:  MOVLW  27
06522:  MOVWF  xE4
06524:  CLRF   xE5
06526:  MOVLW  01
06528:  MOVWF  xE6
0652A:  MOVLB  0
0652C:  CALL   49EC
....................             glcd_rect(75, 14, 88, 39, NO, ON); 
06530:  MOVLW  4B
06532:  MOVLB  5
06534:  MOVWF  xE1
06536:  MOVLW  0E
06538:  MOVWF  xE2
0653A:  MOVLW  58
0653C:  MOVWF  xE3
0653E:  MOVLW  27
06540:  MOVWF  xE4
06542:  CLRF   xE5
06544:  MOVLW  01
06546:  MOVWF  xE6
06548:  MOVLB  0
0654A:  CALL   49EC
....................          }else if(VelMotor==3){ 
0654E:  BRA    6836
06550:  MOVLB  5
06552:  MOVF   xBF,W
06554:  SUBLW  03
06556:  BNZ   660C
....................             glcd_rect(0, 29, 13, 39, YES, ON); 
06558:  CLRF   xE1
0655A:  MOVLW  1D
0655C:  MOVWF  xE2
0655E:  MOVLW  0D
06560:  MOVWF  xE3
06562:  MOVLW  27
06564:  MOVWF  xE4
06566:  MOVLW  01
06568:  MOVWF  xE5
0656A:  MOVWF  xE6
0656C:  MOVLB  0
0656E:  CALL   49EC
....................             glcd_rect(15, 26, 28, 39, YES, ON); 
06572:  MOVLW  0F
06574:  MOVLB  5
06576:  MOVWF  xE1
06578:  MOVLW  1A
0657A:  MOVWF  xE2
0657C:  MOVLW  1C
0657E:  MOVWF  xE3
06580:  MOVLW  27
06582:  MOVWF  xE4
06584:  MOVLW  01
06586:  MOVWF  xE5
06588:  MOVWF  xE6
0658A:  MOVLB  0
0658C:  CALL   49EC
....................             glcd_rect(30, 23, 43, 39, YES, ON); 
06590:  MOVLW  1E
06592:  MOVLB  5
06594:  MOVWF  xE1
06596:  MOVLW  17
06598:  MOVWF  xE2
0659A:  MOVLW  2B
0659C:  MOVWF  xE3
0659E:  MOVLW  27
065A0:  MOVWF  xE4
065A2:  MOVLW  01
065A4:  MOVWF  xE5
065A6:  MOVWF  xE6
065A8:  MOVLB  0
065AA:  CALL   49EC
....................             glcd_rect(45, 20, 58, 39, NO, ON); 
065AE:  MOVLW  2D
065B0:  MOVLB  5
065B2:  MOVWF  xE1
065B4:  MOVLW  14
065B6:  MOVWF  xE2
065B8:  MOVLW  3A
065BA:  MOVWF  xE3
065BC:  MOVLW  27
065BE:  MOVWF  xE4
065C0:  CLRF   xE5
065C2:  MOVLW  01
065C4:  MOVWF  xE6
065C6:  MOVLB  0
065C8:  CALL   49EC
....................             glcd_rect(60, 17, 73, 39, NO, ON); 
065CC:  MOVLW  3C
065CE:  MOVLB  5
065D0:  MOVWF  xE1
065D2:  MOVLW  11
065D4:  MOVWF  xE2
065D6:  MOVLW  49
065D8:  MOVWF  xE3
065DA:  MOVLW  27
065DC:  MOVWF  xE4
065DE:  CLRF   xE5
065E0:  MOVLW  01
065E2:  MOVWF  xE6
065E4:  MOVLB  0
065E6:  CALL   49EC
....................             glcd_rect(75, 14, 88, 39, NO, ON); 
065EA:  MOVLW  4B
065EC:  MOVLB  5
065EE:  MOVWF  xE1
065F0:  MOVLW  0E
065F2:  MOVWF  xE2
065F4:  MOVLW  58
065F6:  MOVWF  xE3
065F8:  MOVLW  27
065FA:  MOVWF  xE4
065FC:  CLRF   xE5
065FE:  MOVLW  01
06600:  MOVWF  xE6
06602:  MOVLB  0
06604:  CALL   49EC
....................          }else if(VelMotor==4){ 
06608:  BRA    6836
0660A:  MOVLB  5
0660C:  MOVF   xBF,W
0660E:  SUBLW  04
06610:  BNZ   66C6
....................             glcd_rect(0, 29, 13, 39, YES, ON); 
06612:  CLRF   xE1
06614:  MOVLW  1D
06616:  MOVWF  xE2
06618:  MOVLW  0D
0661A:  MOVWF  xE3
0661C:  MOVLW  27
0661E:  MOVWF  xE4
06620:  MOVLW  01
06622:  MOVWF  xE5
06624:  MOVWF  xE6
06626:  MOVLB  0
06628:  CALL   49EC
....................             glcd_rect(15, 26, 28, 39, YES, ON); 
0662C:  MOVLW  0F
0662E:  MOVLB  5
06630:  MOVWF  xE1
06632:  MOVLW  1A
06634:  MOVWF  xE2
06636:  MOVLW  1C
06638:  MOVWF  xE3
0663A:  MOVLW  27
0663C:  MOVWF  xE4
0663E:  MOVLW  01
06640:  MOVWF  xE5
06642:  MOVWF  xE6
06644:  MOVLB  0
06646:  CALL   49EC
....................             glcd_rect(30, 23, 43, 39, YES, ON); 
0664A:  MOVLW  1E
0664C:  MOVLB  5
0664E:  MOVWF  xE1
06650:  MOVLW  17
06652:  MOVWF  xE2
06654:  MOVLW  2B
06656:  MOVWF  xE3
06658:  MOVLW  27
0665A:  MOVWF  xE4
0665C:  MOVLW  01
0665E:  MOVWF  xE5
06660:  MOVWF  xE6
06662:  MOVLB  0
06664:  CALL   49EC
....................             glcd_rect(45, 20, 58, 39, YES, ON); 
06668:  MOVLW  2D
0666A:  MOVLB  5
0666C:  MOVWF  xE1
0666E:  MOVLW  14
06670:  MOVWF  xE2
06672:  MOVLW  3A
06674:  MOVWF  xE3
06676:  MOVLW  27
06678:  MOVWF  xE4
0667A:  MOVLW  01
0667C:  MOVWF  xE5
0667E:  MOVWF  xE6
06680:  MOVLB  0
06682:  CALL   49EC
....................             glcd_rect(60, 17, 73, 39, NO, ON); 
06686:  MOVLW  3C
06688:  MOVLB  5
0668A:  MOVWF  xE1
0668C:  MOVLW  11
0668E:  MOVWF  xE2
06690:  MOVLW  49
06692:  MOVWF  xE3
06694:  MOVLW  27
06696:  MOVWF  xE4
06698:  CLRF   xE5
0669A:  MOVLW  01
0669C:  MOVWF  xE6
0669E:  MOVLB  0
066A0:  CALL   49EC
....................             glcd_rect(75, 14, 88, 39, NO, ON); 
066A4:  MOVLW  4B
066A6:  MOVLB  5
066A8:  MOVWF  xE1
066AA:  MOVLW  0E
066AC:  MOVWF  xE2
066AE:  MOVLW  58
066B0:  MOVWF  xE3
066B2:  MOVLW  27
066B4:  MOVWF  xE4
066B6:  CLRF   xE5
066B8:  MOVLW  01
066BA:  MOVWF  xE6
066BC:  MOVLB  0
066BE:  CALL   49EC
....................          }else if(VelMotor==5){ 
066C2:  BRA    6836
066C4:  MOVLB  5
066C6:  MOVF   xBF,W
066C8:  SUBLW  05
066CA:  BNZ   6780
....................             glcd_rect(0, 29, 13, 39, YES, ON); 
066CC:  CLRF   xE1
066CE:  MOVLW  1D
066D0:  MOVWF  xE2
066D2:  MOVLW  0D
066D4:  MOVWF  xE3
066D6:  MOVLW  27
066D8:  MOVWF  xE4
066DA:  MOVLW  01
066DC:  MOVWF  xE5
066DE:  MOVWF  xE6
066E0:  MOVLB  0
066E2:  CALL   49EC
....................             glcd_rect(15, 26, 28, 39, YES, ON); 
066E6:  MOVLW  0F
066E8:  MOVLB  5
066EA:  MOVWF  xE1
066EC:  MOVLW  1A
066EE:  MOVWF  xE2
066F0:  MOVLW  1C
066F2:  MOVWF  xE3
066F4:  MOVLW  27
066F6:  MOVWF  xE4
066F8:  MOVLW  01
066FA:  MOVWF  xE5
066FC:  MOVWF  xE6
066FE:  MOVLB  0
06700:  CALL   49EC
....................             glcd_rect(30, 23, 43, 39, YES, ON); 
06704:  MOVLW  1E
06706:  MOVLB  5
06708:  MOVWF  xE1
0670A:  MOVLW  17
0670C:  MOVWF  xE2
0670E:  MOVLW  2B
06710:  MOVWF  xE3
06712:  MOVLW  27
06714:  MOVWF  xE4
06716:  MOVLW  01
06718:  MOVWF  xE5
0671A:  MOVWF  xE6
0671C:  MOVLB  0
0671E:  CALL   49EC
....................             glcd_rect(45, 20, 58, 39, YES, ON); 
06722:  MOVLW  2D
06724:  MOVLB  5
06726:  MOVWF  xE1
06728:  MOVLW  14
0672A:  MOVWF  xE2
0672C:  MOVLW  3A
0672E:  MOVWF  xE3
06730:  MOVLW  27
06732:  MOVWF  xE4
06734:  MOVLW  01
06736:  MOVWF  xE5
06738:  MOVWF  xE6
0673A:  MOVLB  0
0673C:  CALL   49EC
....................             glcd_rect(60, 17, 73, 39, YES, ON); 
06740:  MOVLW  3C
06742:  MOVLB  5
06744:  MOVWF  xE1
06746:  MOVLW  11
06748:  MOVWF  xE2
0674A:  MOVLW  49
0674C:  MOVWF  xE3
0674E:  MOVLW  27
06750:  MOVWF  xE4
06752:  MOVLW  01
06754:  MOVWF  xE5
06756:  MOVWF  xE6
06758:  MOVLB  0
0675A:  CALL   49EC
....................             glcd_rect(75, 14, 88, 39, NO, ON); 
0675E:  MOVLW  4B
06760:  MOVLB  5
06762:  MOVWF  xE1
06764:  MOVLW  0E
06766:  MOVWF  xE2
06768:  MOVLW  58
0676A:  MOVWF  xE3
0676C:  MOVLW  27
0676E:  MOVWF  xE4
06770:  CLRF   xE5
06772:  MOVLW  01
06774:  MOVWF  xE6
06776:  MOVLB  0
06778:  CALL   49EC
....................          }else if(VelMotor==6){ 
0677C:  BRA    6836
0677E:  MOVLB  5
06780:  MOVF   xBF,W
06782:  SUBLW  06
06784:  BNZ   6836
....................             glcd_rect(0, 29, 13, 39, YES, ON); 
06786:  CLRF   xE1
06788:  MOVLW  1D
0678A:  MOVWF  xE2
0678C:  MOVLW  0D
0678E:  MOVWF  xE3
06790:  MOVLW  27
06792:  MOVWF  xE4
06794:  MOVLW  01
06796:  MOVWF  xE5
06798:  MOVWF  xE6
0679A:  MOVLB  0
0679C:  CALL   49EC
....................             glcd_rect(15, 26, 28, 39, YES, ON); 
067A0:  MOVLW  0F
067A2:  MOVLB  5
067A4:  MOVWF  xE1
067A6:  MOVLW  1A
067A8:  MOVWF  xE2
067AA:  MOVLW  1C
067AC:  MOVWF  xE3
067AE:  MOVLW  27
067B0:  MOVWF  xE4
067B2:  MOVLW  01
067B4:  MOVWF  xE5
067B6:  MOVWF  xE6
067B8:  MOVLB  0
067BA:  CALL   49EC
....................             glcd_rect(30, 23, 43, 39, YES, ON); 
067BE:  MOVLW  1E
067C0:  MOVLB  5
067C2:  MOVWF  xE1
067C4:  MOVLW  17
067C6:  MOVWF  xE2
067C8:  MOVLW  2B
067CA:  MOVWF  xE3
067CC:  MOVLW  27
067CE:  MOVWF  xE4
067D0:  MOVLW  01
067D2:  MOVWF  xE5
067D4:  MOVWF  xE6
067D6:  MOVLB  0
067D8:  CALL   49EC
....................             glcd_rect(45, 20, 58, 39, YES, ON); 
067DC:  MOVLW  2D
067DE:  MOVLB  5
067E0:  MOVWF  xE1
067E2:  MOVLW  14
067E4:  MOVWF  xE2
067E6:  MOVLW  3A
067E8:  MOVWF  xE3
067EA:  MOVLW  27
067EC:  MOVWF  xE4
067EE:  MOVLW  01
067F0:  MOVWF  xE5
067F2:  MOVWF  xE6
067F4:  MOVLB  0
067F6:  CALL   49EC
....................             glcd_rect(60, 17, 73, 39, YES, ON); 
067FA:  MOVLW  3C
067FC:  MOVLB  5
067FE:  MOVWF  xE1
06800:  MOVLW  11
06802:  MOVWF  xE2
06804:  MOVLW  49
06806:  MOVWF  xE3
06808:  MOVLW  27
0680A:  MOVWF  xE4
0680C:  MOVLW  01
0680E:  MOVWF  xE5
06810:  MOVWF  xE6
06812:  MOVLB  0
06814:  CALL   49EC
....................             glcd_rect(75, 14, 88, 39, YES, ON); 
06818:  MOVLW  4B
0681A:  MOVLB  5
0681C:  MOVWF  xE1
0681E:  MOVLW  0E
06820:  MOVWF  xE2
06822:  MOVLW  58
06824:  MOVWF  xE3
06826:  MOVLW  27
06828:  MOVWF  xE4
0682A:  MOVLW  01
0682C:  MOVWF  xE5
0682E:  MOVWF  xE6
06830:  MOVLB  0
06832:  CALL   49EC
....................          } 
....................           
....................  
....................          if(imprimir==1){ 
06836:  MOVLB  4
06838:  BTFSS  x2D.5
0683A:  BRA    69DA
....................             glcd_text57(2, 12, Inflowt, 1, ON); 
0683C:  MOVLW  02
0683E:  MOVLB  5
06840:  MOVWF  xE1
06842:  MOVLW  0C
06844:  MOVWF  xE2
06846:  MOVLW  04
06848:  MOVWF  xE4
0684A:  MOVLW  66
0684C:  MOVWF  xE3
0684E:  MOVLW  01
06850:  MOVWF  xE5
06852:  MOVWF  xE6
06854:  MOVLB  0
06856:  CALL   16DA
....................             displayTiempo(VelMotor,25,11,0,1);   
0685A:  MOVFF  5BF,5C8
0685E:  MOVLW  19
06860:  MOVLB  5
06862:  MOVWF  xC9
06864:  MOVLW  0B
06866:  MOVWF  xCA
06868:  CLRF   xCB
0686A:  MOVLW  01
0686C:  MOVWF  xCC
0686E:  MOVLB  0
06870:  CALL   533E
....................             glcd_rect(0, 10, 95, 63, NO, ON); 
06874:  MOVLB  5
06876:  CLRF   xE1
06878:  MOVLW  0A
0687A:  MOVWF  xE2
0687C:  MOVLW  5F
0687E:  MOVWF  xE3
06880:  MOVLW  3F
06882:  MOVWF  xE4
06884:  CLRF   xE5
06886:  MOVLW  01
06888:  MOVWF  xE6
0688A:  MOVLB  0
0688C:  CALL   49EC
....................             glcd_rect(100, 10, 127, 63, NO, ON); 
06890:  MOVLW  64
06892:  MOVLB  5
06894:  MOVWF  xE1
06896:  MOVLW  0A
06898:  MOVWF  xE2
0689A:  MOVLW  7F
0689C:  MOVWF  xE3
0689E:  MOVLW  3F
068A0:  MOVWF  xE4
068A2:  CLRF   xE5
068A4:  MOVLW  01
068A6:  MOVWF  xE6
068A8:  MOVLB  0
068AA:  CALL   49EC
....................             glcd_text57(2, 51, Downflowt, 1, ON); 
068AE:  MOVLW  02
068B0:  MOVLB  5
068B2:  MOVWF  xE1
068B4:  MOVLW  33
068B6:  MOVWF  xE2
068B8:  MOVLW  04
068BA:  MOVWF  xE4
068BC:  MOVLW  6B
068BE:  MOVWF  xE3
068C0:  MOVLW  01
068C2:  MOVWF  xE5
068C4:  MOVWF  xE6
068C6:  MOVLB  0
068C8:  CALL   16DA
....................             glcd_text57(2, 41, Vida_Filtro, 1, ON); 
068CC:  MOVLW  02
068CE:  MOVLB  5
068D0:  MOVWF  xE1
068D2:  MOVLW  29
068D4:  MOVWF  xE2
068D6:  MOVLW  04
068D8:  MOVWF  xE4
068DA:  MOVLW  95
068DC:  MOVWF  xE3
068DE:  MOVLW  01
068E0:  MOVWF  xE5
068E2:  MOVWF  xE6
068E4:  MOVLB  0
068E6:  CALL   16DA
....................             displayTiempo(Ttrabajo[3],60,41,0,1);displayTiempo(Ttrabajo[2],67,41,0,1);displayTiempo(Ttrabajo[1],74,41,0,1);displayTiempo(Ttrabajo[0],82,41,0,1); 
068EA:  MOVFF  4F3,5C8
068EE:  MOVLW  3C
068F0:  MOVLB  5
068F2:  MOVWF  xC9
068F4:  MOVLW  29
068F6:  MOVWF  xCA
068F8:  CLRF   xCB
068FA:  MOVLW  01
068FC:  MOVWF  xCC
068FE:  MOVLB  0
06900:  CALL   533E
06904:  MOVFF  4F2,5C8
06908:  MOVLW  43
0690A:  MOVLB  5
0690C:  MOVWF  xC9
0690E:  MOVLW  29
06910:  MOVWF  xCA
06912:  CLRF   xCB
06914:  MOVLW  01
06916:  MOVWF  xCC
06918:  MOVLB  0
0691A:  CALL   533E
0691E:  MOVFF  4F1,5C8
06922:  MOVLW  4A
06924:  MOVLB  5
06926:  MOVWF  xC9
06928:  MOVLW  29
0692A:  MOVWF  xCA
0692C:  CLRF   xCB
0692E:  MOVLW  01
06930:  MOVWF  xCC
06932:  MOVLB  0
06934:  CALL   533E
06938:  MOVFF  4F0,5C8
0693C:  MOVLW  52
0693E:  MOVLB  5
06940:  MOVWF  xC9
06942:  MOVLW  29
06944:  MOVWF  xCA
06946:  CLRF   xCB
06948:  MOVLW  01
0694A:  MOVWF  xCC
0694C:  MOVLB  0
0694E:  CALL   533E
....................             strcpy(Menus.Letra,"JPET120-LC"); 
06952:  MOVLW  04
06954:  MOVWF  FEA
06956:  MOVLW  17
06958:  MOVWF  FE9
0695A:  MOVFF  FF2,5C8
0695E:  BCF    FF2.7
06960:  MOVLW  00
06962:  CALL   0F80
06966:  TBLRD*-
06968:  TBLRD*+
0696A:  MOVF   FF5,W
0696C:  MOVWF  FEE
0696E:  IORLW  00
06970:  BNZ   6968
06972:  MOVLB  5
06974:  BTFSC  xC8.7
06976:  BSF    FF2.7
....................             displayMenu(Menus.Letra,20,0,1,1); 
06978:  MOVLW  04
0697A:  MOVWF  xD1
0697C:  MOVLW  17
0697E:  MOVWF  xD0
06980:  MOVLW  14
06982:  MOVWF  xD2
06984:  CLRF   xD3
06986:  MOVLW  01
06988:  MOVWF  xD4
0698A:  MOVWF  xD5
0698C:  MOVLB  0
0698E:  CALL   4B6C
....................             displayfloat(Temperatura,69,50,0,1); 
06992:  MOVLB  5
06994:  CLRF   xFE
06996:  MOVFF  5BB,5FD
0699A:  MOVLB  0
0699C:  CALL   1892
069A0:  MOVFF  00,5C8
069A4:  MOVFF  01,5C9
069A8:  MOVFF  02,5CA
069AC:  MOVFF  03,5CB
069B0:  MOVFF  03,5CF
069B4:  MOVFF  02,5CE
069B8:  MOVFF  01,5CD
069BC:  MOVFF  00,5CC
069C0:  MOVLW  45
069C2:  MOVLB  5
069C4:  MOVWF  xD0
069C6:  MOVLW  32
069C8:  MOVWF  xD1
069CA:  CLRF   xD2
069CC:  MOVLW  01
069CE:  MOVWF  xD3
069D0:  MOVLB  0
069D2:  CALL   5696
....................             imprimir=0; 
069D6:  MOVLB  4
069D8:  BCF    x2D.5
....................          } 
....................                    
....................          if(flag_blower==1){ 
069DA:  BTFSS  x2D.6
069DC:  BRA    6B82
....................             glcd_imagen(5);tiempo_trabajo=1; 
069DE:  MOVLW  05
069E0:  MOVLB  5
069E2:  MOVWF  xC8
069E4:  MOVLB  0
069E6:  CALL   57B6
069EA:  MOVLB  4
069EC:  BSF    x2E.4
....................             if(guardatrabajo==1){ 
069EE:  BTFSS  x2E.6
069F0:  BRA    6B74
....................                VelocidadMotor(6); 
069F2:  MOVLW  06
069F4:  MOVLB  5
069F6:  MOVWF  xC8
069F8:  MOVLB  0
069FA:  CALL   138C
....................                guardatrabajo=0; 
069FE:  MOVLB  4
06A00:  BCF    x2E.6
....................                write_eeprom(33,make8(minutos_trabajo,0)); 
06A02:  MOVFF  4D8,5C8
06A06:  CLRF   FAA
06A08:  MOVLW  21
06A0A:  MOVWF  FA9
06A0C:  MOVFF  5C8,FA8
06A10:  BCF    FA6.6
06A12:  BCF    FA6.7
06A14:  BSF    FA6.2
06A16:  MOVF   FF2,W
06A18:  MOVWF  00
06A1A:  BCF    FF2.7
06A1C:  MOVLB  F
06A1E:  MOVLW  55
06A20:  MOVWF  FA7
06A22:  MOVLW  AA
06A24:  MOVWF  FA7
06A26:  BSF    FA6.1
06A28:  BTFSC  FA6.1
06A2A:  BRA    6A28
06A2C:  BCF    FA6.2
06A2E:  MOVF   00,W
06A30:  IORWF  FF2,F
....................                delay_ms(20); 
06A32:  MOVLW  14
06A34:  MOVLB  5
06A36:  MOVWF  xDC
06A38:  MOVLB  0
06A3A:  CALL   1364
....................                write_eeprom(34,make8(minutos_trabajo,1)); 
06A3E:  MOVFF  4D9,5C8
06A42:  CLRF   FAA
06A44:  MOVLW  22
06A46:  MOVWF  FA9
06A48:  MOVFF  5C8,FA8
06A4C:  BCF    FA6.6
06A4E:  BCF    FA6.7
06A50:  BSF    FA6.2
06A52:  MOVF   FF2,W
06A54:  MOVWF  00
06A56:  BCF    FF2.7
06A58:  MOVLB  F
06A5A:  MOVLW  55
06A5C:  MOVWF  FA7
06A5E:  MOVLW  AA
06A60:  MOVWF  FA7
06A62:  BSF    FA6.1
06A64:  BTFSC  FA6.1
06A66:  BRA    6A64
06A68:  BCF    FA6.2
06A6A:  MOVF   00,W
06A6C:  IORWF  FF2,F
....................                delay_ms(20); 
06A6E:  MOVLW  14
06A70:  MOVLB  5
06A72:  MOVWF  xDC
06A74:  MOVLB  0
06A76:  CALL   1364
....................                write_eeprom(16,Ttrabajo[0]); 
06A7A:  CLRF   FAA
06A7C:  MOVLW  10
06A7E:  MOVWF  FA9
06A80:  MOVFF  4F0,FA8
06A84:  BCF    FA6.6
06A86:  BCF    FA6.7
06A88:  BSF    FA6.2
06A8A:  MOVF   FF2,W
06A8C:  MOVWF  00
06A8E:  BCF    FF2.7
06A90:  MOVLB  F
06A92:  MOVLW  55
06A94:  MOVWF  FA7
06A96:  MOVLW  AA
06A98:  MOVWF  FA7
06A9A:  BSF    FA6.1
06A9C:  BTFSC  FA6.1
06A9E:  BRA    6A9C
06AA0:  BCF    FA6.2
06AA2:  MOVF   00,W
06AA4:  IORWF  FF2,F
....................                delay_ms(20); 
06AA6:  MOVLW  14
06AA8:  MOVLB  5
06AAA:  MOVWF  xDC
06AAC:  MOVLB  0
06AAE:  CALL   1364
....................                write_eeprom(17,Ttrabajo[1]); 
06AB2:  CLRF   FAA
06AB4:  MOVLW  11
06AB6:  MOVWF  FA9
06AB8:  MOVFF  4F1,FA8
06ABC:  BCF    FA6.6
06ABE:  BCF    FA6.7
06AC0:  BSF    FA6.2
06AC2:  MOVF   FF2,W
06AC4:  MOVWF  00
06AC6:  BCF    FF2.7
06AC8:  MOVLB  F
06ACA:  MOVLW  55
06ACC:  MOVWF  FA7
06ACE:  MOVLW  AA
06AD0:  MOVWF  FA7
06AD2:  BSF    FA6.1
06AD4:  BTFSC  FA6.1
06AD6:  BRA    6AD4
06AD8:  BCF    FA6.2
06ADA:  MOVF   00,W
06ADC:  IORWF  FF2,F
....................                delay_ms(20); 
06ADE:  MOVLW  14
06AE0:  MOVLB  5
06AE2:  MOVWF  xDC
06AE4:  MOVLB  0
06AE6:  CALL   1364
....................                write_eeprom(18,Ttrabajo[2]); 
06AEA:  CLRF   FAA
06AEC:  MOVLW  12
06AEE:  MOVWF  FA9
06AF0:  MOVFF  4F2,FA8
06AF4:  BCF    FA6.6
06AF6:  BCF    FA6.7
06AF8:  BSF    FA6.2
06AFA:  MOVF   FF2,W
06AFC:  MOVWF  00
06AFE:  BCF    FF2.7
06B00:  MOVLB  F
06B02:  MOVLW  55
06B04:  MOVWF  FA7
06B06:  MOVLW  AA
06B08:  MOVWF  FA7
06B0A:  BSF    FA6.1
06B0C:  BTFSC  FA6.1
06B0E:  BRA    6B0C
06B10:  BCF    FA6.2
06B12:  MOVF   00,W
06B14:  IORWF  FF2,F
....................                delay_ms(20); 
06B16:  MOVLW  14
06B18:  MOVLB  5
06B1A:  MOVWF  xDC
06B1C:  MOVLB  0
06B1E:  CALL   1364
....................                write_eeprom(19,Ttrabajo[3]); 
06B22:  CLRF   FAA
06B24:  MOVLW  13
06B26:  MOVWF  FA9
06B28:  MOVFF  4F3,FA8
06B2C:  BCF    FA6.6
06B2E:  BCF    FA6.7
06B30:  BSF    FA6.2
06B32:  MOVF   FF2,W
06B34:  MOVWF  00
06B36:  BCF    FF2.7
06B38:  MOVLB  F
06B3A:  MOVLW  55
06B3C:  MOVWF  FA7
06B3E:  MOVLW  AA
06B40:  MOVWF  FA7
06B42:  BSF    FA6.1
06B44:  BTFSC  FA6.1
06B46:  BRA    6B44
06B48:  BCF    FA6.2
06B4A:  MOVF   00,W
06B4C:  IORWF  FF2,F
....................                delay_ms(20); 
06B4E:  MOVLW  14
06B50:  MOVLB  5
06B52:  MOVWF  xDC
06B54:  MOVLB  0
06B56:  CALL   1364
....................                glcd_init(ON);             //Inicializa la glcd 
06B5A:  MOVLW  01
06B5C:  MOVLB  5
06B5E:  MOVWF  xC8
06B60:  MOVLB  0
06B62:  CALL   1556
....................                glcd_fillScreen(OFF);      //Limpia la pantalla 
06B66:  MOVLB  5
06B68:  CLRF   xD0
06B6A:  MOVLB  0
06B6C:  CALL   1444
....................                glcd_update();   
06B70:  CALL   149E
....................             } 
....................             VelocidadMotor(VelMotor); 
06B74:  MOVFF  5BF,5C8
06B78:  MOVLB  0
06B7A:  CALL   138C
....................          }else{ 
06B7E:  BRA    6D1A
06B80:  MOVLB  4
....................             Filtro_Downflow=0; 
06B82:  MOVLB  5
06B84:  CLRF   x07
06B86:  CLRF   x06
06B88:  CLRF   x05
06B8A:  CLRF   x04
....................             glcd_rect(102, 45, 126, 62, YES, OFF);tiempo_trabajo=0;VelocidadMotor(0); 
06B8C:  MOVLW  66
06B8E:  MOVWF  xE1
06B90:  MOVLW  2D
06B92:  MOVWF  xE2
06B94:  MOVLW  7E
06B96:  MOVWF  xE3
06B98:  MOVLW  3E
06B9A:  MOVWF  xE4
06B9C:  MOVLW  01
06B9E:  MOVWF  xE5
06BA0:  CLRF   xE6
06BA2:  MOVLB  0
06BA4:  CALL   49EC
06BA8:  MOVLB  4
06BAA:  BCF    x2E.4
06BAC:  MOVLB  5
06BAE:  CLRF   xC8
06BB0:  MOVLB  0
06BB2:  CALL   138C
....................             if(guardatrabajo==0){ 
06BB6:  MOVLB  4
06BB8:  BTFSC  x2E.6
06BBA:  BRA    6D1C
....................                guardatrabajo=1; 
06BBC:  BSF    x2E.6
....................                write_eeprom(33,make8(minutos_trabajo,0)); 
06BBE:  MOVFF  4D8,5C8
06BC2:  CLRF   FAA
06BC4:  MOVLW  21
06BC6:  MOVWF  FA9
06BC8:  MOVFF  5C8,FA8
06BCC:  BCF    FA6.6
06BCE:  BCF    FA6.7
06BD0:  BSF    FA6.2
06BD2:  MOVF   FF2,W
06BD4:  MOVWF  00
06BD6:  BCF    FF2.7
06BD8:  MOVLB  F
06BDA:  MOVLW  55
06BDC:  MOVWF  FA7
06BDE:  MOVLW  AA
06BE0:  MOVWF  FA7
06BE2:  BSF    FA6.1
06BE4:  BTFSC  FA6.1
06BE6:  BRA    6BE4
06BE8:  BCF    FA6.2
06BEA:  MOVF   00,W
06BEC:  IORWF  FF2,F
....................                delay_ms(20); 
06BEE:  MOVLW  14
06BF0:  MOVLB  5
06BF2:  MOVWF  xDC
06BF4:  MOVLB  0
06BF6:  CALL   1364
....................                write_eeprom(34,make8(minutos_trabajo,1)); 
06BFA:  MOVFF  4D9,5C8
06BFE:  CLRF   FAA
06C00:  MOVLW  22
06C02:  MOVWF  FA9
06C04:  MOVFF  5C8,FA8
06C08:  BCF    FA6.6
06C0A:  BCF    FA6.7
06C0C:  BSF    FA6.2
06C0E:  MOVF   FF2,W
06C10:  MOVWF  00
06C12:  BCF    FF2.7
06C14:  MOVLB  F
06C16:  MOVLW  55
06C18:  MOVWF  FA7
06C1A:  MOVLW  AA
06C1C:  MOVWF  FA7
06C1E:  BSF    FA6.1
06C20:  BTFSC  FA6.1
06C22:  BRA    6C20
06C24:  BCF    FA6.2
06C26:  MOVF   00,W
06C28:  IORWF  FF2,F
....................                delay_ms(20); 
06C2A:  MOVLW  14
06C2C:  MOVLB  5
06C2E:  MOVWF  xDC
06C30:  MOVLB  0
06C32:  CALL   1364
....................                write_eeprom(16,Ttrabajo[0]); 
06C36:  CLRF   FAA
06C38:  MOVLW  10
06C3A:  MOVWF  FA9
06C3C:  MOVFF  4F0,FA8
06C40:  BCF    FA6.6
06C42:  BCF    FA6.7
06C44:  BSF    FA6.2
06C46:  MOVF   FF2,W
06C48:  MOVWF  00
06C4A:  BCF    FF2.7
06C4C:  MOVLB  F
06C4E:  MOVLW  55
06C50:  MOVWF  FA7
06C52:  MOVLW  AA
06C54:  MOVWF  FA7
06C56:  BSF    FA6.1
06C58:  BTFSC  FA6.1
06C5A:  BRA    6C58
06C5C:  BCF    FA6.2
06C5E:  MOVF   00,W
06C60:  IORWF  FF2,F
....................                delay_ms(20); 
06C62:  MOVLW  14
06C64:  MOVLB  5
06C66:  MOVWF  xDC
06C68:  MOVLB  0
06C6A:  CALL   1364
....................                write_eeprom(17,Ttrabajo[1]); 
06C6E:  CLRF   FAA
06C70:  MOVLW  11
06C72:  MOVWF  FA9
06C74:  MOVFF  4F1,FA8
06C78:  BCF    FA6.6
06C7A:  BCF    FA6.7
06C7C:  BSF    FA6.2
06C7E:  MOVF   FF2,W
06C80:  MOVWF  00
06C82:  BCF    FF2.7
06C84:  MOVLB  F
06C86:  MOVLW  55
06C88:  MOVWF  FA7
06C8A:  MOVLW  AA
06C8C:  MOVWF  FA7
06C8E:  BSF    FA6.1
06C90:  BTFSC  FA6.1
06C92:  BRA    6C90
06C94:  BCF    FA6.2
06C96:  MOVF   00,W
06C98:  IORWF  FF2,F
....................                delay_ms(20); 
06C9A:  MOVLW  14
06C9C:  MOVLB  5
06C9E:  MOVWF  xDC
06CA0:  MOVLB  0
06CA2:  CALL   1364
....................                write_eeprom(18,Ttrabajo[2]); 
06CA6:  CLRF   FAA
06CA8:  MOVLW  12
06CAA:  MOVWF  FA9
06CAC:  MOVFF  4F2,FA8
06CB0:  BCF    FA6.6
06CB2:  BCF    FA6.7
06CB4:  BSF    FA6.2
06CB6:  MOVF   FF2,W
06CB8:  MOVWF  00
06CBA:  BCF    FF2.7
06CBC:  MOVLB  F
06CBE:  MOVLW  55
06CC0:  MOVWF  FA7
06CC2:  MOVLW  AA
06CC4:  MOVWF  FA7
06CC6:  BSF    FA6.1
06CC8:  BTFSC  FA6.1
06CCA:  BRA    6CC8
06CCC:  BCF    FA6.2
06CCE:  MOVF   00,W
06CD0:  IORWF  FF2,F
....................                delay_ms(20); 
06CD2:  MOVLW  14
06CD4:  MOVLB  5
06CD6:  MOVWF  xDC
06CD8:  MOVLB  0
06CDA:  CALL   1364
....................                write_eeprom(19,Ttrabajo[3]); 
06CDE:  CLRF   FAA
06CE0:  MOVLW  13
06CE2:  MOVWF  FA9
06CE4:  MOVFF  4F3,FA8
06CE8:  BCF    FA6.6
06CEA:  BCF    FA6.7
06CEC:  BSF    FA6.2
06CEE:  MOVF   FF2,W
06CF0:  MOVWF  00
06CF2:  BCF    FF2.7
06CF4:  MOVLB  F
06CF6:  MOVLW  55
06CF8:  MOVWF  FA7
06CFA:  MOVLW  AA
06CFC:  MOVWF  FA7
06CFE:  BSF    FA6.1
06D00:  BTFSC  FA6.1
06D02:  BRA    6D00
06D04:  BCF    FA6.2
06D06:  MOVF   00,W
06D08:  IORWF  FF2,F
....................                delay_ms(20); 
06D0A:  MOVLW  14
06D0C:  MOVLB  5
06D0E:  MOVWF  xDC
06D10:  MOVLB  0
06D12:  CALL   1364
....................                //glcd_init(ON);             //Inicializa la glcd 
....................                //glcd_fillScreen(OFF);      //Limpia la pantalla 
....................                glcd_update();   
06D16:  CALL   149E
06D1A:  MOVLB  4
....................             } 
....................          } 
....................           
....................          if(flag_luz==1){ 
06D1C:  BTFSS  x2E.0
06D1E:  BRA    6D34
....................             glcd_imagen(3);LuzBlanca_on; 
06D20:  MOVLW  03
06D22:  MOVLB  5
06D24:  MOVWF  xC8
06D26:  MOVLB  0
06D28:  CALL   57B6
06D2C:  BSF    F8B.0
06D2E:  BCF    F94.0
....................          }else{ 
06D30:  BRA    6D56
06D32:  MOVLB  4
....................             glcd_rect(102, 14, 126, 28, YES, OFF);LuzBlanca_off; 
06D34:  MOVLW  66
06D36:  MOVLB  5
06D38:  MOVWF  xE1
06D3A:  MOVLW  0E
06D3C:  MOVWF  xE2
06D3E:  MOVLW  7E
06D40:  MOVWF  xE3
06D42:  MOVLW  1C
06D44:  MOVWF  xE4
06D46:  MOVLW  01
06D48:  MOVWF  xE5
06D4A:  CLRF   xE6
06D4C:  MOVLB  0
06D4E:  CALL   49EC
06D52:  BCF    F8B.0
06D54:  BCF    F94.0
....................          } 
....................           
....................              
....................       if(RIGHT){//Si oprime boton de Blower. 
06D56:  BSF    F96.1
06D58:  BTFSC  F84.1
06D5A:  BRA    6D78
....................          if(Flanco3 == 0){ 
06D5C:  MOVLB  4
06D5E:  BTFSC  x2D.3
06D60:  BRA    6D74
....................             Flanco3 = 1;delay_ms(3);flag_blower=!flag_blower; 
06D62:  BSF    x2D.3
06D64:  MOVLW  03
06D66:  MOVLB  5
06D68:  MOVWF  xDC
06D6A:  MOVLB  0
06D6C:  CALL   1364
06D70:  MOVLB  4
06D72:  BTG    x2D.6
....................          } 
....................       }else{ 
06D74:  BRA    6D7C
06D76:  MOVLB  0
....................          Flanco3 = 0; 
06D78:  MOVLB  4
06D7A:  BCF    x2D.3
....................       } 
....................              
....................       if(DOWN){//Si oprime boton de Luz Blanca. 
06D7C:  BSF    F96.0
06D7E:  BTFSC  F84.0
06D80:  BRA    6D9A
....................          if(Flanco5 == 0){ 
06D82:  BTFSC  x2D.4
06D84:  BRA    6D98
....................             Flanco5 = 1;delay_ms(3);flag_luz=!flag_luz; 
06D86:  BSF    x2D.4
06D88:  MOVLW  03
06D8A:  MOVLB  5
06D8C:  MOVWF  xDC
06D8E:  MOVLB  0
06D90:  CALL   1364
06D94:  MOVLB  4
06D96:  BTG    x2E.0
....................          } 
....................       }else{ 
06D98:  BRA    6D9C
....................          Flanco5 = 0; 
06D9A:  BCF    x2D.4
....................       } 
....................        
....................       if(UP){//Si oprime boton de Toma. 
06D9C:  BSF    F92.5
06D9E:  BTFSC  F80.5
06DA0:  BRA    6DE6
....................          delay_ms(20); 
06DA2:  MOVLW  14
06DA4:  MOVLB  5
06DA6:  MOVWF  xDC
06DA8:  MOVLB  0
06DAA:  CALL   1364
....................          if(UP){//Si oprime boton de Toma. 
06DAE:  BSF    F92.5
06DB0:  BTFSC  F80.5
06DB2:  BRA    6DE4
....................             delay_ms(5);Menu=3;//glcd_fillScreen(OFF); 
06DB4:  MOVLW  05
06DB6:  MOVLB  5
06DB8:  MOVWF  xDC
06DBA:  MOVLB  0
06DBC:  CALL   1364
06DC0:  MOVLW  03
06DC2:  MOVLB  4
06DC4:  MOVWF  xC0
....................             glcd_init(ON);             //Inicializa la glcd 
06DC6:  MOVLW  01
06DC8:  MOVLB  5
06DCA:  MOVWF  xC8
06DCC:  MOVLB  0
06DCE:  CALL   1556
....................             glcd_fillScreen(OFF);      //Limpia la pantalla 
06DD2:  MOVLB  5
06DD4:  CLRF   xD0
06DD6:  MOVLB  0
06DD8:  CALL   1444
....................             glcd_update();   
06DDC:  CALL   149E
....................             LuzBlanca_off; 
06DE0:  BCF    F8B.0
06DE2:  BCF    F94.0
06DE4:  MOVLB  4
....................          } 
....................       } 
....................              
....................     } 
.................... //_--------------------------------------------------------------------------------------------------------------------------------------------------------        
....................  
.................... //_-------------------------------------------------------------------------------------------------------------------------------------------------------- 
....................       if(Menu==3){ //Menu Principal. 
06DE6:  MOVF   xC0,W
06DE8:  SUBLW  03
06DEA:  BTFSS  FD8.2
06DEC:  BRA    70D0
....................              
....................       strcpy(Menus.Letra,"Menu"); 
06DEE:  MOVLW  04
06DF0:  MOVWF  FEA
06DF2:  MOVLW  17
06DF4:  MOVWF  FE9
06DF6:  MOVFF  FF2,5C8
06DFA:  BCF    FF2.7
06DFC:  MOVLW  00
06DFE:  MOVLB  0
06E00:  CALL   0FAA
06E04:  TBLRD*-
06E06:  TBLRD*+
06E08:  MOVF   FF5,W
06E0A:  MOVWF  FEE
06E0C:  IORLW  00
06E0E:  BNZ   6E06
06E10:  MOVLB  5
06E12:  BTFSC  xC8.7
06E14:  BSF    FF2.7
....................       displayMenu(Menus.Letra,40,0,1,2); 
06E16:  MOVLW  04
06E18:  MOVWF  xD1
06E1A:  MOVLW  17
06E1C:  MOVWF  xD0
06E1E:  MOVLW  28
06E20:  MOVWF  xD2
06E22:  CLRF   xD3
06E24:  MOVLW  01
06E26:  MOVWF  xD4
06E28:  MOVLW  02
06E2A:  MOVWF  xD5
06E2C:  MOVLB  0
06E2E:  CALL   4B6C
....................        
....................       if(Opcion==1){ 
06E32:  MOVLB  4
06E34:  DECFSZ xC2,W
06E36:  BRA    6E7E
....................          strcpy(Menus.Letra,"Ajustes"); 
06E38:  MOVLW  04
06E3A:  MOVWF  FEA
06E3C:  MOVLW  17
06E3E:  MOVWF  FE9
06E40:  MOVFF  FF2,5C8
06E44:  BCF    FF2.7
06E46:  MOVLW  00
06E48:  MOVLB  0
06E4A:  CALL   0FCE
06E4E:  TBLRD*-
06E50:  TBLRD*+
06E52:  MOVF   FF5,W
06E54:  MOVWF  FEE
06E56:  IORLW  00
06E58:  BNZ   6E50
06E5A:  MOVLB  5
06E5C:  BTFSC  xC8.7
06E5E:  BSF    FF2.7
....................          displayMenu(Menus.Letra,0,19,1,1); 
06E60:  MOVLW  04
06E62:  MOVWF  xD1
06E64:  MOVLW  17
06E66:  MOVWF  xD0
06E68:  CLRF   xD2
06E6A:  MOVLW  13
06E6C:  MOVWF  xD3
06E6E:  MOVLW  01
06E70:  MOVWF  xD4
06E72:  MOVWF  xD5
06E74:  MOVLB  0
06E76:  CALL   4B6C
....................       }else{ 
06E7A:  BRA    6EC0
06E7C:  MOVLB  4
....................          strcpy(Menus.Letra,"Ajustes"); 
06E7E:  MOVLW  04
06E80:  MOVWF  FEA
06E82:  MOVLW  17
06E84:  MOVWF  FE9
06E86:  MOVFF  FF2,5C8
06E8A:  BCF    FF2.7
06E8C:  MOVLW  00
06E8E:  MOVLB  0
06E90:  CALL   0FCE
06E94:  TBLRD*-
06E96:  TBLRD*+
06E98:  MOVF   FF5,W
06E9A:  MOVWF  FEE
06E9C:  IORLW  00
06E9E:  BNZ   6E96
06EA0:  MOVLB  5
06EA2:  BTFSC  xC8.7
06EA4:  BSF    FF2.7
....................          displayMenu(Menus.Letra,0,19,0,1); 
06EA6:  MOVLW  04
06EA8:  MOVWF  xD1
06EAA:  MOVLW  17
06EAC:  MOVWF  xD0
06EAE:  CLRF   xD2
06EB0:  MOVLW  13
06EB2:  MOVWF  xD3
06EB4:  CLRF   xD4
06EB6:  MOVLW  01
06EB8:  MOVWF  xD5
06EBA:  MOVLB  0
06EBC:  CALL   4B6C
....................       } 
....................           
....................       if(Opcion==2){ 
06EC0:  MOVLB  4
06EC2:  MOVF   xC2,W
06EC4:  SUBLW  02
06EC6:  BNZ   6F0E
....................          strcpy(Menus.Letra,"Cambio de Clave"); 
06EC8:  MOVLW  04
06ECA:  MOVWF  FEA
06ECC:  MOVLW  17
06ECE:  MOVWF  FE9
06ED0:  MOVFF  FF2,5C8
06ED4:  BCF    FF2.7
06ED6:  MOVLW  00
06ED8:  MOVLB  0
06EDA:  CALL   0FF4
06EDE:  TBLRD*-
06EE0:  TBLRD*+
06EE2:  MOVF   FF5,W
06EE4:  MOVWF  FEE
06EE6:  IORLW  00
06EE8:  BNZ   6EE0
06EEA:  MOVLB  5
06EEC:  BTFSC  xC8.7
06EEE:  BSF    FF2.7
....................          displayMenu(Menus.Letra,0,35,1,1); 
06EF0:  MOVLW  04
06EF2:  MOVWF  xD1
06EF4:  MOVLW  17
06EF6:  MOVWF  xD0
06EF8:  CLRF   xD2
06EFA:  MOVLW  23
06EFC:  MOVWF  xD3
06EFE:  MOVLW  01
06F00:  MOVWF  xD4
06F02:  MOVWF  xD5
06F04:  MOVLB  0
06F06:  CALL   4B6C
....................       }else{ 
06F0A:  BRA    6F50
06F0C:  MOVLB  4
....................          strcpy(Menus.Letra,"Cambio de Clave"); 
06F0E:  MOVLW  04
06F10:  MOVWF  FEA
06F12:  MOVLW  17
06F14:  MOVWF  FE9
06F16:  MOVFF  FF2,5C8
06F1A:  BCF    FF2.7
06F1C:  MOVLW  00
06F1E:  MOVLB  0
06F20:  CALL   0FF4
06F24:  TBLRD*-
06F26:  TBLRD*+
06F28:  MOVF   FF5,W
06F2A:  MOVWF  FEE
06F2C:  IORLW  00
06F2E:  BNZ   6F26
06F30:  MOVLB  5
06F32:  BTFSC  xC8.7
06F34:  BSF    FF2.7
....................          displayMenu(Menus.Letra,0,35,0,1); 
06F36:  MOVLW  04
06F38:  MOVWF  xD1
06F3A:  MOVLW  17
06F3C:  MOVWF  xD0
06F3E:  CLRF   xD2
06F40:  MOVLW  23
06F42:  MOVWF  xD3
06F44:  CLRF   xD4
06F46:  MOVLW  01
06F48:  MOVWF  xD5
06F4A:  MOVLB  0
06F4C:  CALL   4B6C
....................       } 
....................           
....................       if(Opcion==3){ 
06F50:  MOVLB  4
06F52:  MOVF   xC2,W
06F54:  SUBLW  03
06F56:  BNZ   6F9E
....................          strcpy(Menus.Letra,"Modo"); 
06F58:  MOVLW  04
06F5A:  MOVWF  FEA
06F5C:  MOVLW  17
06F5E:  MOVWF  FE9
06F60:  MOVFF  FF2,5C8
06F64:  BCF    FF2.7
06F66:  MOVLW  00
06F68:  MOVLB  0
06F6A:  CALL   1022
06F6E:  TBLRD*-
06F70:  TBLRD*+
06F72:  MOVF   FF5,W
06F74:  MOVWF  FEE
06F76:  IORLW  00
06F78:  BNZ   6F70
06F7A:  MOVLB  5
06F7C:  BTFSC  xC8.7
06F7E:  BSF    FF2.7
....................          displayMenu(Menus.Letra,0,51,1,1); 
06F80:  MOVLW  04
06F82:  MOVWF  xD1
06F84:  MOVLW  17
06F86:  MOVWF  xD0
06F88:  CLRF   xD2
06F8A:  MOVLW  33
06F8C:  MOVWF  xD3
06F8E:  MOVLW  01
06F90:  MOVWF  xD4
06F92:  MOVWF  xD5
06F94:  MOVLB  0
06F96:  CALL   4B6C
....................       }else{ 
06F9A:  BRA    6FE0
06F9C:  MOVLB  4
....................          strcpy(Menus.Letra,"Modo"); 
06F9E:  MOVLW  04
06FA0:  MOVWF  FEA
06FA2:  MOVLW  17
06FA4:  MOVWF  FE9
06FA6:  MOVFF  FF2,5C8
06FAA:  BCF    FF2.7
06FAC:  MOVLW  00
06FAE:  MOVLB  0
06FB0:  CALL   1022
06FB4:  TBLRD*-
06FB6:  TBLRD*+
06FB8:  MOVF   FF5,W
06FBA:  MOVWF  FEE
06FBC:  IORLW  00
06FBE:  BNZ   6FB6
06FC0:  MOVLB  5
06FC2:  BTFSC  xC8.7
06FC4:  BSF    FF2.7
....................          displayMenu(Menus.Letra,0,51,0,1); 
06FC6:  MOVLW  04
06FC8:  MOVWF  xD1
06FCA:  MOVLW  17
06FCC:  MOVWF  xD0
06FCE:  CLRF   xD2
06FD0:  MOVLW  33
06FD2:  MOVWF  xD3
06FD4:  CLRF   xD4
06FD6:  MOVLW  01
06FD8:  MOVWF  xD5
06FDA:  MOVLB  0
06FDC:  CALL   4B6C
....................       } 
....................       glcd_update();  
06FE0:  CALL   149E
....................        
....................       if(w==0){ 
06FE4:  MOVLB  4
06FE6:  BTFSC  x2E.2
06FE8:  BRA    7004
....................          delay_ms(500);w=1; 
06FEA:  MOVLW  02
06FEC:  MOVLB  5
06FEE:  MOVWF  xC8
06FF0:  MOVLW  FA
06FF2:  MOVWF  xDC
06FF4:  MOVLB  0
06FF6:  CALL   1364
06FFA:  MOVLB  5
06FFC:  DECFSZ xC8,F
06FFE:  BRA    6FF0
07000:  MOVLB  4
07002:  BSF    x2E.2
....................       } 
....................           
....................       if(UP){//Si oprime hacia arriba         
07004:  BSF    F92.5
07006:  BTFSC  F80.5
07008:  BRA    7022
....................          if(Flanco == 0){ 
0700A:  BTFSC  x2D.0
0700C:  BRA    7020
....................             Flanco = 1;delay_ms(30);Opcion--; 
0700E:  BSF    x2D.0
07010:  MOVLW  1E
07012:  MOVLB  5
07014:  MOVWF  xDC
07016:  MOVLB  0
07018:  CALL   1364
0701C:  MOVLB  4
0701E:  DECF   xC2,F
....................          } 
....................       }else{ 
07020:  BRA    7024
....................          Flanco = 0; 
07022:  BCF    x2D.0
....................       } 
....................              
....................       if(DOWN){//Si oprime hacia abajo 
07024:  BSF    F96.0
07026:  BTFSC  F84.0
07028:  BRA    7042
....................          if(Flanco2 == 0){ 
0702A:  BTFSC  x2D.2
0702C:  BRA    7040
....................             Flanco2 = 1;delay_ms(30);Opcion++; 
0702E:  BSF    x2D.2
07030:  MOVLW  1E
07032:  MOVLB  5
07034:  MOVWF  xDC
07036:  MOVLB  0
07038:  CALL   1364
0703C:  MOVLB  4
0703E:  INCF   xC2,F
....................          } 
....................       }else{ 
07040:  BRA    7044
....................          Flanco2 = 0; 
07042:  BCF    x2D.2
....................       } 
....................              
....................       if(RIGHT){//Si oprime SET 
07044:  BSF    F96.1
07046:  BTFSC  F84.1
07048:  BRA    708E
....................          if(Flanco1 == 0){ 
0704A:  BTFSC  x2D.1
0704C:  BRA    708C
....................             Flanco1 = 1;delay_ms(500);Menu=Opcion+3;Opcion=1;glcd_fillscreen(OFF);unidad=1; 
0704E:  BSF    x2D.1
07050:  MOVLW  02
07052:  MOVLB  5
07054:  MOVWF  xC8
07056:  MOVLW  FA
07058:  MOVWF  xDC
0705A:  MOVLB  0
0705C:  CALL   1364
07060:  MOVLB  5
07062:  DECFSZ xC8,F
07064:  BRA    7056
07066:  MOVLW  03
07068:  MOVLB  4
0706A:  ADDWF  xC2,W
0706C:  MOVWF  xC0
0706E:  MOVLW  01
07070:  MOVWF  xC2
07072:  MOVLB  5
07074:  CLRF   xD0
07076:  MOVLB  0
07078:  CALL   1444
0707C:  MOVLW  01
0707E:  MOVLB  4
07080:  MOVWF  xC1
....................             Contrasena[0]=0;Contrasena[1]=0;Contrasena[2]=0;Contrasena[3]=0;n=0; 
07082:  CLRF   xF4
07084:  CLRF   xF5
07086:  CLRF   xF6
07088:  CLRF   xF7
0708A:  BCF    x2F.0
....................          } 
....................       }else{ 
0708C:  BRA    7090
....................          Flanco1 = 0; 
0708E:  BCF    x2D.1
....................       } 
....................              
....................       if(LEFT){//Si oprime boton de Toma. 
07090:  BSF    F96.2
07092:  BTFSC  F84.2
07094:  BRA    70BE
....................          delay_ms(700);Menu=2;glcd_fillscreen(OFF); 
07096:  MOVLW  04
07098:  MOVLB  5
0709A:  MOVWF  xC8
0709C:  MOVLW  AF
0709E:  MOVWF  xDC
070A0:  MOVLB  0
070A2:  CALL   1364
070A6:  MOVLB  5
070A8:  DECFSZ xC8,F
070AA:  BRA    709C
070AC:  MOVLW  02
070AE:  MOVLB  4
070B0:  MOVWF  xC0
070B2:  MOVLB  5
070B4:  CLRF   xD0
070B6:  MOVLB  0
070B8:  CALL   1444
070BC:  MOVLB  4
....................       } 
....................              
....................       if(Opcion>3) 
070BE:  MOVF   xC2,W
070C0:  SUBLW  03
070C2:  BC    70C8
....................          Opcion=1; 
070C4:  MOVLW  01
070C6:  MOVWF  xC2
....................       if(Opcion<1) 
070C8:  MOVF   xC2,F
070CA:  BNZ   70D0
....................          Opcion=3; 
070CC:  MOVLW  03
070CE:  MOVWF  xC2
....................     } 
.................... //_--------------------------------------------------------------------------------------------------------------------------------------------------------        
....................  
.................... //_-------------------------------------------------------------------------------------------------------------------------------------------------------- 
....................       if(Menu==4){ //Menu de Ajustes. 
070D0:  MOVF   xC0,W
070D2:  SUBLW  04
070D4:  BTFSS  FD8.2
070D6:  BRA    7266
....................        
....................       strcpy(Menus.Letra,"Ajustes"); 
070D8:  MOVLW  04
070DA:  MOVWF  FEA
070DC:  MOVLW  17
070DE:  MOVWF  FE9
070E0:  MOVFF  FF2,5C8
070E4:  BCF    FF2.7
070E6:  MOVLW  00
070E8:  MOVLB  0
070EA:  CALL   0FCE
070EE:  TBLRD*-
070F0:  TBLRD*+
070F2:  MOVF   FF5,W
070F4:  MOVWF  FEE
070F6:  IORLW  00
070F8:  BNZ   70F0
070FA:  MOVLB  5
070FC:  BTFSC  xC8.7
070FE:  BSF    FF2.7
....................       displayMenu(Menus.Letra,0,0,1,2); 
07100:  MOVLW  04
07102:  MOVWF  xD1
07104:  MOVLW  17
07106:  MOVWF  xD0
07108:  CLRF   xD2
0710A:  CLRF   xD3
0710C:  MOVLW  01
0710E:  MOVWF  xD4
07110:  MOVLW  02
07112:  MOVWF  xD5
07114:  MOVLB  0
07116:  CALL   4B6C
....................        
....................       if(Opcion==1)    
0711A:  MOVLB  4
0711C:  DECFSZ xC2,W
0711E:  BRA    7166
....................          {strcpy(Menus.Letra,"Tiempo Purga"); 
07120:  MOVLW  04
07122:  MOVWF  FEA
07124:  MOVLW  17
07126:  MOVWF  FE9
07128:  MOVFF  FF2,5C8
0712C:  BCF    FF2.7
0712E:  MOVLW  00
07130:  MOVLB  0
07132:  CALL   1046
07136:  TBLRD*-
07138:  TBLRD*+
0713A:  MOVF   FF5,W
0713C:  MOVWF  FEE
0713E:  IORLW  00
07140:  BNZ   7138
07142:  MOVLB  5
07144:  BTFSC  xC8.7
07146:  BSF    FF2.7
....................          displayMenu(Menus.Letra,0,20,1,1);} 
07148:  MOVLW  04
0714A:  MOVWF  xD1
0714C:  MOVLW  17
0714E:  MOVWF  xD0
07150:  CLRF   xD2
07152:  MOVLW  14
07154:  MOVWF  xD3
07156:  MOVLW  01
07158:  MOVWF  xD4
0715A:  MOVWF  xD5
0715C:  MOVLB  0
0715E:  CALL   4B6C
....................       else 
07162:  BRA    71A8
07164:  MOVLB  4
....................          {strcpy(Menus.Letra,"Tiempo Purga"); 
07166:  MOVLW  04
07168:  MOVWF  FEA
0716A:  MOVLW  17
0716C:  MOVWF  FE9
0716E:  MOVFF  FF2,5C8
07172:  BCF    FF2.7
07174:  MOVLW  00
07176:  MOVLB  0
07178:  CALL   1046
0717C:  TBLRD*-
0717E:  TBLRD*+
07180:  MOVF   FF5,W
07182:  MOVWF  FEE
07184:  IORLW  00
07186:  BNZ   717E
07188:  MOVLB  5
0718A:  BTFSC  xC8.7
0718C:  BSF    FF2.7
....................          displayMenu(Menus.Letra,0,20,0,1);}              
0718E:  MOVLW  04
07190:  MOVWF  xD1
07192:  MOVLW  17
07194:  MOVWF  xD0
07196:  CLRF   xD2
07198:  MOVLW  14
0719A:  MOVWF  xD3
0719C:  CLRF   xD4
0719E:  MOVLW  01
071A0:  MOVWF  xD5
071A2:  MOVLB  0
071A4:  CALL   4B6C
....................          
....................       if(UP)//Si oprime hacia arriba 
071A8:  BSF    F92.5
071AA:  BTFSC  F80.5
071AC:  BRA    71C8
....................       {  if(Flanco == 0)  
071AE:  MOVLB  4
071B0:  BTFSC  x2D.0
071B2:  BRA    71C6
....................             {Flanco = 1;delay_ms(30);Opcion--; 
071B4:  BSF    x2D.0
071B6:  MOVLW  1E
071B8:  MOVLB  5
071BA:  MOVWF  xDC
071BC:  MOVLB  0
071BE:  CALL   1364
071C2:  MOVLB  4
071C4:  DECF   xC2,F
....................             } 
....................       } 
....................          else 
071C6:  BRA    71CC
....................             {Flanco = 0;} 
071C8:  MOVLB  4
071CA:  BCF    x2D.0
....................              
....................       if(DOWN)//Si oprime hacia abajo 
071CC:  BSF    F96.0
071CE:  BTFSC  F84.0
071D0:  BRA    71EA
....................       {  if(Flanco2 == 0)  
071D2:  BTFSC  x2D.2
071D4:  BRA    71E8
....................             {Flanco2 = 1;delay_ms(30);Opcion++; 
071D6:  BSF    x2D.2
071D8:  MOVLW  1E
071DA:  MOVLB  5
071DC:  MOVWF  xDC
071DE:  MOVLB  0
071E0:  CALL   1364
071E4:  MOVLB  4
071E6:  INCF   xC2,F
....................             }      
....................       } 
....................          else 
071E8:  BRA    71EC
....................             {Flanco2 = 0;}   
071EA:  BCF    x2D.2
....................              
....................       if(RIGHT)//Si oprime SET 
071EC:  BSF    F96.1
071EE:  BTFSC  F84.1
071F0:  BRA    7224
....................       {  if(Flanco1 == 0)  
071F2:  BTFSC  x2D.1
071F4:  BRA    7222
....................             {Flanco1 = 1;delay_ms(500);Menu=Opcion+10;glcd_fillScreen(OFF); 
071F6:  BSF    x2D.1
071F8:  MOVLW  02
071FA:  MOVLB  5
071FC:  MOVWF  xC8
071FE:  MOVLW  FA
07200:  MOVWF  xDC
07202:  MOVLB  0
07204:  CALL   1364
07208:  MOVLB  5
0720A:  DECFSZ xC8,F
0720C:  BRA    71FE
0720E:  MOVLW  0A
07210:  MOVLB  4
07212:  ADDWF  xC2,W
07214:  MOVWF  xC0
07216:  MOVLB  5
07218:  CLRF   xD0
0721A:  MOVLB  0
0721C:  CALL   1444
07220:  MOVLB  4
....................             } 
....................       } 
....................          else 
07222:  BRA    7226
....................             {Flanco1 = 0;}   
07224:  BCF    x2D.1
....................              
....................       if(LEFT)//Si oprime boton de Toma. 
07226:  BSF    F96.2
07228:  BTFSC  F84.2
0722A:  BRA    7254
....................         {delay_ms(700);Menu=3;glcd_fillscreen(OFF);} 
0722C:  MOVLW  04
0722E:  MOVLB  5
07230:  MOVWF  xC8
07232:  MOVLW  AF
07234:  MOVWF  xDC
07236:  MOVLB  0
07238:  CALL   1364
0723C:  MOVLB  5
0723E:  DECFSZ xC8,F
07240:  BRA    7232
07242:  MOVLW  03
07244:  MOVLB  4
07246:  MOVWF  xC0
07248:  MOVLB  5
0724A:  CLRF   xD0
0724C:  MOVLB  0
0724E:  CALL   1444
07252:  MOVLB  4
....................        
....................       if(Opcion>1) 
07254:  MOVF   xC2,W
07256:  SUBLW  01
07258:  BC    725E
....................       {Opcion=1;} 
0725A:  MOVLW  01
0725C:  MOVWF  xC2
....................       if(Opcion<1) 
0725E:  MOVF   xC2,F
07260:  BNZ   7266
....................       {Opcion=1;} 
07262:  MOVLW  01
07264:  MOVWF  xC2
....................      
....................     } 
.................... //_--------------------------------------------------------------------------------------------------------------------------------------------------------        
....................  
.................... //_-------------------------------------------------------------------------------------------------------------------------------------------------------- 
....................       if(Menu==6){ //Menu de Modo. 
07266:  MOVF   xC0,W
07268:  SUBLW  06
0726A:  BTFSS  FD8.2
0726C:  BRA    7494
....................        
....................       strcpy(Menus.Letra,"Modo"); 
0726E:  MOVLW  04
07270:  MOVWF  FEA
07272:  MOVLW  17
07274:  MOVWF  FE9
07276:  MOVFF  FF2,5C8
0727A:  BCF    FF2.7
0727C:  MOVLW  00
0727E:  MOVLB  0
07280:  CALL   1022
07284:  TBLRD*-
07286:  TBLRD*+
07288:  MOVF   FF5,W
0728A:  MOVWF  FEE
0728C:  IORLW  00
0728E:  BNZ   7286
07290:  MOVLB  5
07292:  BTFSC  xC8.7
07294:  BSF    FF2.7
....................       displayMenu(Menus.Letra,40,0,1,2); 
07296:  MOVLW  04
07298:  MOVWF  xD1
0729A:  MOVLW  17
0729C:  MOVWF  xD0
0729E:  MOVLW  28
072A0:  MOVWF  xD2
072A2:  CLRF   xD3
072A4:  MOVLW  01
072A6:  MOVWF  xD4
072A8:  MOVLW  02
072AA:  MOVWF  xD5
072AC:  MOVLB  0
072AE:  CALL   4B6C
....................           
....................       if(Opcion==1)    
072B2:  MOVLB  4
072B4:  DECFSZ xC2,W
072B6:  BRA    72FE
....................          {strcpy(Menus.Letra,"Mantenimiento"); 
072B8:  MOVLW  04
072BA:  MOVWF  FEA
072BC:  MOVLW  17
072BE:  MOVWF  FE9
072C0:  MOVFF  FF2,5C8
072C4:  BCF    FF2.7
072C6:  MOVLW  00
072C8:  MOVLB  0
072CA:  CALL   1072
072CE:  TBLRD*-
072D0:  TBLRD*+
072D2:  MOVF   FF5,W
072D4:  MOVWF  FEE
072D6:  IORLW  00
072D8:  BNZ   72D0
072DA:  MOVLB  5
072DC:  BTFSC  xC8.7
072DE:  BSF    FF2.7
....................          displayMenu(Menus.Letra,0,19,1,1);} 
072E0:  MOVLW  04
072E2:  MOVWF  xD1
072E4:  MOVLW  17
072E6:  MOVWF  xD0
072E8:  CLRF   xD2
072EA:  MOVLW  13
072EC:  MOVWF  xD3
072EE:  MOVLW  01
072F0:  MOVWF  xD4
072F2:  MOVWF  xD5
072F4:  MOVLB  0
072F6:  CALL   4B6C
....................       else 
072FA:  BRA    7340
072FC:  MOVLB  4
....................          {strcpy(Menus.Letra,"Mantenimiento"); 
072FE:  MOVLW  04
07300:  MOVWF  FEA
07302:  MOVLW  17
07304:  MOVWF  FE9
07306:  MOVFF  FF2,5C8
0730A:  BCF    FF2.7
0730C:  MOVLW  00
0730E:  MOVLB  0
07310:  CALL   1072
07314:  TBLRD*-
07316:  TBLRD*+
07318:  MOVF   FF5,W
0731A:  MOVWF  FEE
0731C:  IORLW  00
0731E:  BNZ   7316
07320:  MOVLB  5
07322:  BTFSC  xC8.7
07324:  BSF    FF2.7
....................          displayMenu(Menus.Letra,0,19,0,1);}    
07326:  MOVLW  04
07328:  MOVWF  xD1
0732A:  MOVLW  17
0732C:  MOVWF  xD0
0732E:  CLRF   xD2
07330:  MOVLW  13
07332:  MOVWF  xD3
07334:  CLRF   xD4
07336:  MOVLW  01
07338:  MOVWF  xD5
0733A:  MOVLB  0
0733C:  CALL   4B6C
....................           
....................       if(Opcion==2)    
07340:  MOVLB  4
07342:  MOVF   xC2,W
07344:  SUBLW  02
07346:  BNZ   738E
....................          {strcpy(Menus.Letra,"Servicio"); 
07348:  MOVLW  04
0734A:  MOVWF  FEA
0734C:  MOVLW  17
0734E:  MOVWF  FE9
07350:  MOVFF  FF2,5C8
07354:  BCF    FF2.7
07356:  MOVLW  00
07358:  MOVLB  0
0735A:  CALL   109E
0735E:  TBLRD*-
07360:  TBLRD*+
07362:  MOVF   FF5,W
07364:  MOVWF  FEE
07366:  IORLW  00
07368:  BNZ   7360
0736A:  MOVLB  5
0736C:  BTFSC  xC8.7
0736E:  BSF    FF2.7
....................          displayMenu(Menus.Letra,0,35,1,1);} 
07370:  MOVLW  04
07372:  MOVWF  xD1
07374:  MOVLW  17
07376:  MOVWF  xD0
07378:  CLRF   xD2
0737A:  MOVLW  23
0737C:  MOVWF  xD3
0737E:  MOVLW  01
07380:  MOVWF  xD4
07382:  MOVWF  xD5
07384:  MOVLB  0
07386:  CALL   4B6C
....................       else 
0738A:  BRA    73D0
0738C:  MOVLB  4
....................          {strcpy(Menus.Letra,"Servicio"); 
0738E:  MOVLW  04
07390:  MOVWF  FEA
07392:  MOVLW  17
07394:  MOVWF  FE9
07396:  MOVFF  FF2,5C8
0739A:  BCF    FF2.7
0739C:  MOVLW  00
0739E:  MOVLB  0
073A0:  CALL   109E
073A4:  TBLRD*-
073A6:  TBLRD*+
073A8:  MOVF   FF5,W
073AA:  MOVWF  FEE
073AC:  IORLW  00
073AE:  BNZ   73A6
073B0:  MOVLB  5
073B2:  BTFSC  xC8.7
073B4:  BSF    FF2.7
....................          displayMenu(Menus.Letra,0,35,0,1);} 
073B6:  MOVLW  04
073B8:  MOVWF  xD1
073BA:  MOVLW  17
073BC:  MOVWF  xD0
073BE:  CLRF   xD2
073C0:  MOVLW  23
073C2:  MOVWF  xD3
073C4:  CLRF   xD4
073C6:  MOVLW  01
073C8:  MOVWF  xD5
073CA:  MOVLB  0
073CC:  CALL   4B6C
....................           
....................       if(UP)//Si oprime hacia arriba 
073D0:  BSF    F92.5
073D2:  BTFSC  F80.5
073D4:  BRA    73F0
....................       {  if(Flanco == 0)  
073D6:  MOVLB  4
073D8:  BTFSC  x2D.0
073DA:  BRA    73EE
....................             {Flanco = 1;delay_ms(30);Opcion--; 
073DC:  BSF    x2D.0
073DE:  MOVLW  1E
073E0:  MOVLB  5
073E2:  MOVWF  xDC
073E4:  MOVLB  0
073E6:  CALL   1364
073EA:  MOVLB  4
073EC:  DECF   xC2,F
....................             } 
....................       } 
....................          else 
073EE:  BRA    73F4
....................             {Flanco = 0;} 
073F0:  MOVLB  4
073F2:  BCF    x2D.0
....................              
....................       if(DOWN)//Si oprime hacia abajo 
073F4:  BSF    F96.0
073F6:  BTFSC  F84.0
073F8:  BRA    7412
....................       {  if(Flanco2 == 0)  
073FA:  BTFSC  x2D.2
073FC:  BRA    7410
....................             {Flanco2 = 1;delay_ms(30);Opcion++; 
073FE:  BSF    x2D.2
07400:  MOVLW  1E
07402:  MOVLB  5
07404:  MOVWF  xDC
07406:  MOVLB  0
07408:  CALL   1364
0740C:  MOVLB  4
0740E:  INCF   xC2,F
....................             }      
....................       } 
....................          else 
07410:  BRA    7414
....................             {Flanco2 = 0;}   
07412:  BCF    x2D.2
....................              
....................       if(RIGHT)//Si oprime SET 
07414:  BSF    F96.1
07416:  BTFSC  F84.1
07418:  BRA    7452
....................       {  if(Flanco1 == 0)  
0741A:  BTFSC  x2D.1
0741C:  BRA    7450
....................             {Flanco1 = 1;delay_ms(500);Menu=Opcion+30;glcd_fillScreen(OFF);Opcion=1;unidad=1; 
0741E:  BSF    x2D.1
07420:  MOVLW  02
07422:  MOVLB  5
07424:  MOVWF  xC8
07426:  MOVLW  FA
07428:  MOVWF  xDC
0742A:  MOVLB  0
0742C:  CALL   1364
07430:  MOVLB  5
07432:  DECFSZ xC8,F
07434:  BRA    7426
07436:  MOVLW  1E
07438:  MOVLB  4
0743A:  ADDWF  xC2,W
0743C:  MOVWF  xC0
0743E:  MOVLB  5
07440:  CLRF   xD0
07442:  MOVLB  0
07444:  CALL   1444
07448:  MOVLW  01
0744A:  MOVLB  4
0744C:  MOVWF  xC2
0744E:  MOVWF  xC1
....................             } 
....................       } 
....................          else 
07450:  BRA    7454
....................             {Flanco1 = 0;}   
07452:  BCF    x2D.1
....................              
....................       if(LEFT)//Si oprime boton de Toma. 
07454:  BSF    F96.2
07456:  BTFSC  F84.2
07458:  BRA    7482
....................         {delay_ms(700);Menu=3;glcd_fillscreen(OFF);} 
0745A:  MOVLW  04
0745C:  MOVLB  5
0745E:  MOVWF  xC8
07460:  MOVLW  AF
07462:  MOVWF  xDC
07464:  MOVLB  0
07466:  CALL   1364
0746A:  MOVLB  5
0746C:  DECFSZ xC8,F
0746E:  BRA    7460
07470:  MOVLW  03
07472:  MOVLB  4
07474:  MOVWF  xC0
07476:  MOVLB  5
07478:  CLRF   xD0
0747A:  MOVLB  0
0747C:  CALL   1444
07480:  MOVLB  4
....................       if(Opcion>2) 
07482:  MOVF   xC2,W
07484:  SUBLW  02
07486:  BC    748C
....................       {Opcion=1;} 
07488:  MOVLW  01
0748A:  MOVWF  xC2
....................       if(Opcion<1) 
0748C:  MOVF   xC2,F
0748E:  BNZ   7494
....................       {Opcion=2;} 
07490:  MOVLW  02
07492:  MOVWF  xC2
....................      
....................     } 
.................... //_--------------------------------------------------------------------------------------------------------------------------------------------------------        
....................  
.................... //_-------------------------------------------------------------------------------------------------------------------------------------------------------- 
....................       if(Menu==11){ //Menu de Purga. 
07494:  MOVF   xC0,W
07496:  SUBLW  0B
07498:  BTFSS  FD8.2
0749A:  BRA    785E
....................        
....................       strcpy(Menus.Letra,"T. Purga"); 
0749C:  MOVLW  04
0749E:  MOVWF  FEA
074A0:  MOVLW  17
074A2:  MOVWF  FE9
074A4:  MOVFF  FF2,5C8
074A8:  BCF    FF2.7
074AA:  MOVLW  00
074AC:  MOVLB  0
074AE:  CALL   10C6
074B2:  TBLRD*-
074B4:  TBLRD*+
074B6:  MOVF   FF5,W
074B8:  MOVWF  FEE
074BA:  IORLW  00
074BC:  BNZ   74B4
074BE:  MOVLB  5
074C0:  BTFSC  xC8.7
074C2:  BSF    FF2.7
....................       displayMenu(Menus.Letra,10,0,1,2); 
074C4:  MOVLW  04
074C6:  MOVWF  xD1
074C8:  MOVLW  17
074CA:  MOVWF  xD0
074CC:  MOVLW  0A
074CE:  MOVWF  xD2
074D0:  CLRF   xD3
074D2:  MOVLW  01
074D4:  MOVWF  xD4
074D6:  MOVLW  02
074D8:  MOVWF  xD5
074DA:  MOVLB  0
074DC:  CALL   4B6C
....................        
....................       if(unidad==4) 
074E0:  MOVLB  4
074E2:  MOVF   xC1,W
074E4:  SUBLW  04
074E6:  BNZ   7506
....................       {displayTiempo(Tpurgap[3],20,40,1,2);} 
074E8:  MOVFF  4E3,5C8
074EC:  MOVLW  14
074EE:  MOVLB  5
074F0:  MOVWF  xC9
074F2:  MOVLW  28
074F4:  MOVWF  xCA
074F6:  MOVLW  01
074F8:  MOVWF  xCB
074FA:  MOVLW  02
074FC:  MOVWF  xCC
074FE:  MOVLB  0
07500:  CALL   533E
....................       else 
07504:  BRA    7520
....................       {displayTiempo(Tpurgap[3],20,40,0,2);} 
07506:  MOVFF  4E3,5C8
0750A:  MOVLW  14
0750C:  MOVLB  5
0750E:  MOVWF  xC9
07510:  MOVLW  28
07512:  MOVWF  xCA
07514:  CLRF   xCB
07516:  MOVLW  02
07518:  MOVWF  xCC
0751A:  MOVLB  0
0751C:  CALL   533E
....................        
....................       if(unidad==3) 
07520:  MOVLB  4
07522:  MOVF   xC1,W
07524:  SUBLW  03
07526:  BNZ   7544
....................       {displayTiempo(Tpurgap[2],40,40,1,2);} 
07528:  MOVFF  4E2,5C8
0752C:  MOVLW  28
0752E:  MOVLB  5
07530:  MOVWF  xC9
07532:  MOVWF  xCA
07534:  MOVLW  01
07536:  MOVWF  xCB
07538:  MOVLW  02
0753A:  MOVWF  xCC
0753C:  MOVLB  0
0753E:  CALL   533E
....................       else 
07542:  BRA    755C
....................       {displayTiempo(Tpurgap[2],40,40,0,2);} 
07544:  MOVFF  4E2,5C8
07548:  MOVLW  28
0754A:  MOVLB  5
0754C:  MOVWF  xC9
0754E:  MOVWF  xCA
07550:  CLRF   xCB
07552:  MOVLW  02
07554:  MOVWF  xCC
07556:  MOVLB  0
07558:  CALL   533E
....................        
....................       if(unidad==2) 
0755C:  MOVLB  4
0755E:  MOVF   xC1,W
07560:  SUBLW  02
07562:  BNZ   7582
....................       {displayTiempo(Tpurgap[1],70,40,1,2);} 
07564:  MOVFF  4E1,5C8
07568:  MOVLW  46
0756A:  MOVLB  5
0756C:  MOVWF  xC9
0756E:  MOVLW  28
07570:  MOVWF  xCA
07572:  MOVLW  01
07574:  MOVWF  xCB
07576:  MOVLW  02
07578:  MOVWF  xCC
0757A:  MOVLB  0
0757C:  CALL   533E
....................       else 
07580:  BRA    759C
....................       {displayTiempo(Tpurgap[1],70,40,0,2);} 
07582:  MOVFF  4E1,5C8
07586:  MOVLW  46
07588:  MOVLB  5
0758A:  MOVWF  xC9
0758C:  MOVLW  28
0758E:  MOVWF  xCA
07590:  CLRF   xCB
07592:  MOVLW  02
07594:  MOVWF  xCC
07596:  MOVLB  0
07598:  CALL   533E
....................        
....................       if(unidad==1) 
0759C:  MOVLB  4
0759E:  DECFSZ xC1,W
075A0:  BRA    75C0
....................       {displayTiempo(Tpurgap[0],90,40,1,2);} 
075A2:  MOVFF  4E0,5C8
075A6:  MOVLW  5A
075A8:  MOVLB  5
075AA:  MOVWF  xC9
075AC:  MOVLW  28
075AE:  MOVWF  xCA
075B0:  MOVLW  01
075B2:  MOVWF  xCB
075B4:  MOVLW  02
075B6:  MOVWF  xCC
075B8:  MOVLB  0
075BA:  CALL   533E
....................       else 
075BE:  BRA    75DA
....................       {displayTiempo(Tpurgap[0],90,40,0,2);} 
075C0:  MOVFF  4E0,5C8
075C4:  MOVLW  5A
075C6:  MOVLB  5
075C8:  MOVWF  xC9
075CA:  MOVLW  28
075CC:  MOVWF  xCA
075CE:  CLRF   xCB
075D0:  MOVLW  02
075D2:  MOVWF  xCC
075D4:  MOVLB  0
075D6:  CALL   533E
....................        
....................       glcd_text57(60, 42, Dos_puntos, 2, ON); 
075DA:  MOVLW  3C
075DC:  MOVLB  5
075DE:  MOVWF  xE1
075E0:  MOVLW  2A
075E2:  MOVWF  xE2
075E4:  MOVLW  04
075E6:  MOVWF  xE4
075E8:  MOVLW  4B
075EA:  MOVWF  xE3
075EC:  MOVLW  02
075EE:  MOVWF  xE5
075F0:  MOVLW  01
075F2:  MOVWF  xE6
075F4:  MOVLB  0
075F6:  CALL   16DA
....................           
....................          
....................       if(UP)//Si oprime hacia arriba 
075FA:  BSF    F92.5
075FC:  BTFSC  F80.5
075FE:  BRA    762A
....................       {  if(Flanco == 0)  
07600:  MOVLB  4
07602:  BTFSC  x2D.0
07604:  BRA    7628
....................             {Flanco = 1;delay_ms(30);Tpurgap[unidad-1]++; 
07606:  BSF    x2D.0
07608:  MOVLW  1E
0760A:  MOVLB  5
0760C:  MOVWF  xDC
0760E:  MOVLB  0
07610:  CALL   1364
07614:  MOVLW  01
07616:  MOVLB  4
07618:  SUBWF  xC1,W
0761A:  CLRF   03
0761C:  ADDLW  E0
0761E:  MOVWF  FE9
07620:  MOVLW  04
07622:  ADDWFC 03,W
07624:  MOVWF  FEA
07626:  INCF   FEF,F
....................             } 
....................       } 
....................          else 
07628:  BRA    762E
....................             {Flanco = 0;} 
0762A:  MOVLB  4
0762C:  BCF    x2D.0
....................              
....................       if(DOWN)//Si oprime hacia abajo 
0762E:  BSF    F96.0
07630:  BTFSC  F84.0
07632:  BRA    765C
....................       {  if(Flanco2 == 0)  
07634:  BTFSC  x2D.2
07636:  BRA    765A
....................             {Flanco2 = 1;delay_ms(30);Tpurgap[unidad-1]--; 
07638:  BSF    x2D.2
0763A:  MOVLW  1E
0763C:  MOVLB  5
0763E:  MOVWF  xDC
07640:  MOVLB  0
07642:  CALL   1364
07646:  MOVLW  01
07648:  MOVLB  4
0764A:  SUBWF  xC1,W
0764C:  CLRF   03
0764E:  ADDLW  E0
07650:  MOVWF  FE9
07652:  MOVLW  04
07654:  ADDWFC 03,W
07656:  MOVWF  FEA
07658:  DECF   FEF,F
....................             }      
....................       } 
....................          else 
0765A:  BRA    765E
....................             {Flanco2 = 0;}   
0765C:  BCF    x2D.2
....................              
....................       if(RIGHT)//Si oprime SET 
0765E:  BSF    F96.1
07660:  BTFSC  F84.1
07662:  BRA    767C
....................       {  if(Flanco1 == 0)  
07664:  BTFSC  x2D.1
07666:  BRA    767A
....................             {Flanco1 = 1;delay_ms(30);unidad--; 
07668:  BSF    x2D.1
0766A:  MOVLW  1E
0766C:  MOVLB  5
0766E:  MOVWF  xDC
07670:  MOVLB  0
07672:  CALL   1364
07676:  MOVLB  4
07678:  DECF   xC1,F
....................             } 
....................       } 
....................          else 
0767A:  BRA    767E
....................             {Flanco1 = 0;}   
0767C:  BCF    x2D.1
....................              
....................       if(LEFT)//Si oprime boton de Toma. 
0767E:  BSF    F96.2
07680:  BTFSC  F84.2
07682:  BRA    7792
....................       { 
....................          delay_ms(700);Menu=4;glcd_fillscreen(OFF);Opcion=1;unidad=1; 
07684:  MOVLW  04
07686:  MOVLB  5
07688:  MOVWF  xC8
0768A:  MOVLW  AF
0768C:  MOVWF  xDC
0768E:  MOVLB  0
07690:  CALL   1364
07694:  MOVLB  5
07696:  DECFSZ xC8,F
07698:  BRA    768A
0769A:  MOVLW  04
0769C:  MOVLB  4
0769E:  MOVWF  xC0
076A0:  MOVLB  5
076A2:  CLRF   xD0
076A4:  MOVLB  0
076A6:  CALL   1444
076AA:  MOVLW  01
076AC:  MOVLB  4
076AE:  MOVWF  xC2
076B0:  MOVWF  xC1
....................          write_eeprom(4,Tpurgap[0]); 
076B2:  CLRF   FAA
076B4:  MOVLW  04
076B6:  MOVWF  FA9
076B8:  MOVFF  4E0,FA8
076BC:  BCF    FA6.6
076BE:  BCF    FA6.7
076C0:  BSF    FA6.2
076C2:  MOVF   FF2,W
076C4:  MOVWF  00
076C6:  BCF    FF2.7
076C8:  MOVLB  F
076CA:  MOVLW  55
076CC:  MOVWF  FA7
076CE:  MOVLW  AA
076D0:  MOVWF  FA7
076D2:  BSF    FA6.1
076D4:  BTFSC  FA6.1
076D6:  BRA    76D4
076D8:  BCF    FA6.2
076DA:  MOVF   00,W
076DC:  IORWF  FF2,F
....................          delay_ms(20); 
076DE:  MOVLW  14
076E0:  MOVLB  5
076E2:  MOVWF  xDC
076E4:  MOVLB  0
076E6:  CALL   1364
....................          write_eeprom(5,Tpurgap[1]); 
076EA:  CLRF   FAA
076EC:  MOVLW  05
076EE:  MOVWF  FA9
076F0:  MOVFF  4E1,FA8
076F4:  BCF    FA6.6
076F6:  BCF    FA6.7
076F8:  BSF    FA6.2
076FA:  MOVF   FF2,W
076FC:  MOVWF  00
076FE:  BCF    FF2.7
07700:  MOVLB  F
07702:  MOVLW  55
07704:  MOVWF  FA7
07706:  MOVLW  AA
07708:  MOVWF  FA7
0770A:  BSF    FA6.1
0770C:  BTFSC  FA6.1
0770E:  BRA    770C
07710:  BCF    FA6.2
07712:  MOVF   00,W
07714:  IORWF  FF2,F
....................          delay_ms(20); 
07716:  MOVLW  14
07718:  MOVLB  5
0771A:  MOVWF  xDC
0771C:  MOVLB  0
0771E:  CALL   1364
....................          write_eeprom(6,Tpurgap[2]); 
07722:  CLRF   FAA
07724:  MOVLW  06
07726:  MOVWF  FA9
07728:  MOVFF  4E2,FA8
0772C:  BCF    FA6.6
0772E:  BCF    FA6.7
07730:  BSF    FA6.2
07732:  MOVF   FF2,W
07734:  MOVWF  00
07736:  BCF    FF2.7
07738:  MOVLB  F
0773A:  MOVLW  55
0773C:  MOVWF  FA7
0773E:  MOVLW  AA
07740:  MOVWF  FA7
07742:  BSF    FA6.1
07744:  BTFSC  FA6.1
07746:  BRA    7744
07748:  BCF    FA6.2
0774A:  MOVF   00,W
0774C:  IORWF  FF2,F
....................          delay_ms(20); 
0774E:  MOVLW  14
07750:  MOVLB  5
07752:  MOVWF  xDC
07754:  MOVLB  0
07756:  CALL   1364
....................          write_eeprom(7,Tpurgap[3]); 
0775A:  CLRF   FAA
0775C:  MOVLW  07
0775E:  MOVWF  FA9
07760:  MOVFF  4E3,FA8
07764:  BCF    FA6.6
07766:  BCF    FA6.7
07768:  BSF    FA6.2
0776A:  MOVF   FF2,W
0776C:  MOVWF  00
0776E:  BCF    FF2.7
07770:  MOVLB  F
07772:  MOVLW  55
07774:  MOVWF  FA7
07776:  MOVLW  AA
07778:  MOVWF  FA7
0777A:  BSF    FA6.1
0777C:  BTFSC  FA6.1
0777E:  BRA    777C
07780:  BCF    FA6.2
07782:  MOVF   00,W
07784:  IORWF  FF2,F
....................          delay_ms(20); 
07786:  MOVLW  14
07788:  MOVLB  5
0778A:  MOVWF  xDC
0778C:  MOVLB  0
0778E:  CALL   1364
....................       } 
....................        
....................       for(i=0;i<4;i++) 
07792:  MOVLB  5
07794:  CLRF   xB8
07796:  MOVF   xB8,W
07798:  SUBLW  03
0779A:  BNC   77EE
....................       { 
....................          if(Tpurgap[i]>9) 
0779C:  CLRF   03
0779E:  MOVF   xB8,W
077A0:  ADDLW  E0
077A2:  MOVWF  FE9
077A4:  MOVLW  04
077A6:  ADDWFC 03,W
077A8:  MOVWF  FEA
077AA:  BTFSC  FEF.7
077AC:  BRA    77C4
077AE:  MOVF   FEF,W
077B0:  SUBLW  09
077B2:  BC    77C4
....................          {Tpurgap[i]=0;} 
077B4:  CLRF   03
077B6:  MOVF   xB8,W
077B8:  ADDLW  E0
077BA:  MOVWF  FE9
077BC:  MOVLW  04
077BE:  ADDWFC 03,W
077C0:  MOVWF  FEA
077C2:  CLRF   FEF
....................           
....................          if(Tpurgap[i]<0) 
077C4:  CLRF   03
077C6:  MOVF   xB8,W
077C8:  ADDLW  E0
077CA:  MOVWF  FE9
077CC:  MOVLW  04
077CE:  ADDWFC 03,W
077D0:  MOVWF  FEA
077D2:  BTFSC  FEF.7
077D4:  BRA    77D8
077D6:  BRA    77EA
....................          {Tpurgap[i]=9;} 
077D8:  CLRF   03
077DA:  MOVF   xB8,W
077DC:  ADDLW  E0
077DE:  MOVWF  FE9
077E0:  MOVLW  04
077E2:  ADDWFC 03,W
077E4:  MOVWF  FEA
077E6:  MOVLW  09
077E8:  MOVWF  FEF
....................       }       
077EA:  INCF   xB8,F
077EC:  BRA    7796
....................       for(i=1;i<4;i++) 
077EE:  MOVLW  01
077F0:  MOVWF  xB8
077F2:  MOVF   xB8,W
077F4:  SUBLW  03
077F6:  BNC   784C
....................       { 
....................          if(Tpurgap[i]>5) 
077F8:  CLRF   03
077FA:  MOVF   xB8,W
077FC:  ADDLW  E0
077FE:  MOVWF  FE9
07800:  MOVLW  04
07802:  ADDWFC 03,W
07804:  MOVWF  FEA
07806:  BTFSC  FEF.7
07808:  BRA    7820
0780A:  MOVF   FEF,W
0780C:  SUBLW  05
0780E:  BC    7820
....................          {Tpurgap[i]=0;} 
07810:  CLRF   03
07812:  MOVF   xB8,W
07814:  ADDLW  E0
07816:  MOVWF  FE9
07818:  MOVLW  04
0781A:  ADDWFC 03,W
0781C:  MOVWF  FEA
0781E:  CLRF   FEF
....................           
....................          if(Tpurgap[i]<0) 
07820:  CLRF   03
07822:  MOVF   xB8,W
07824:  ADDLW  E0
07826:  MOVWF  FE9
07828:  MOVLW  04
0782A:  ADDWFC 03,W
0782C:  MOVWF  FEA
0782E:  BTFSC  FEF.7
07830:  BRA    7834
07832:  BRA    7846
....................          {Tpurgap[i]=5;} 
07834:  CLRF   03
07836:  MOVF   xB8,W
07838:  ADDLW  E0
0783A:  MOVWF  FE9
0783C:  MOVLW  04
0783E:  ADDWFC 03,W
07840:  MOVWF  FEA
07842:  MOVLW  05
07844:  MOVWF  FEF
....................         i++;  
07846:  INCF   xB8,F
....................       } 
07848:  INCF   xB8,F
0784A:  BRA    77F2
....................       if(unidad<1) 
0784C:  MOVLB  4
0784E:  MOVF   xC1,F
07850:  BNZ   7856
....................       {unidad=4;} 
07852:  MOVLW  04
07854:  MOVWF  xC1
....................       if(Opcion<1) 
07856:  MOVF   xC2,F
07858:  BNZ   785E
....................       {Opcion=4;} 
0785A:  MOVLW  04
0785C:  MOVWF  xC2
....................      
....................     } 
.................... //_--------------------------------------------------------------------------------------------------------------------------------------------------------        
....................  
.................... //_-------------------------------------------------------------------------------------------------------------------------------------------------------- 
....................       if(Menu==5){ //Menu de Clave. 
0785E:  MOVF   xC0,W
07860:  SUBLW  05
07862:  BNZ   78BE
....................  
....................       PidePassword(3,5,211,Password[0],Password[1],Password[2],Password[3]); 
07864:  MOVLW  03
07866:  MOVLB  5
07868:  MOVWF  xC9
0786A:  MOVLW  05
0786C:  MOVWF  xCA
0786E:  MOVLW  D3
07870:  MOVWF  xCB
07872:  MOVFF  4F8,5CC
07876:  MOVFF  4F9,5CD
0787A:  MOVFF  4FA,5CE
0787E:  MOVFF  4FB,5CF
07882:  MOVLB  0
07884:  CALL   4C3C
....................              
....................       if(LEFT)//Si oprime boton de Toma. 
07888:  BSF    F96.2
0788A:  BTFSC  F84.2
0788C:  BRA    78C0
....................       { 
....................          delay_ms(200); 
0788E:  MOVLW  C8
07890:  MOVLB  5
07892:  MOVWF  xDC
07894:  MOVLB  0
07896:  CALL   1364
....................          if(unidad==1){ 
0789A:  MOVLB  4
0789C:  DECFSZ xC1,W
0789E:  BRA    78BE
....................             Menu=3;glcd_fillscreen(OFF);Opcion=1;unidad=1;Contrasena[0]=0;Contrasena[1]=0;Contrasena[2]=0;Contrasena[3]=0; 
078A0:  MOVLW  03
078A2:  MOVWF  xC0
078A4:  MOVLB  5
078A6:  CLRF   xD0
078A8:  MOVLB  0
078AA:  CALL   1444
078AE:  MOVLW  01
078B0:  MOVLB  4
078B2:  MOVWF  xC2
078B4:  MOVWF  xC1
078B6:  CLRF   xF4
078B8:  CLRF   xF5
078BA:  CLRF   xF6
078BC:  CLRF   xF7
078BE:  MOVLB  0
....................          } 
....................       }  
....................     } 
.................... //_--------------------------------------------------------------------------------------------------------------------------------------------------------        
....................  
.................... //_-------------------------------------------------------------------------------------------------------------------------------------------------------- 
....................       if(Menu==211){ //Menu de Cambio Clave. 
078C0:  MOVLB  4
078C2:  MOVF   xC0,W
078C4:  SUBLW  D3
078C6:  BTFSS  FD8.2
078C8:  BRA    7D60
....................        
....................       if(n==0) 
078CA:  BTFSC  x2F.0
078CC:  BRA    792C
....................       { 
....................          displayContrasena(Contrasena[0],20,30,1);displayContrasena(Contrasena[1],40,30,0); 
078CE:  MOVFF  4F4,5D2
078D2:  MOVLW  14
078D4:  MOVLB  5
078D6:  MOVWF  xD3
078D8:  MOVLW  1E
078DA:  MOVWF  xD4
078DC:  MOVLW  01
078DE:  MOVWF  xD5
078E0:  MOVLB  0
078E2:  CALL   4AB0
078E6:  MOVFF  4F5,5D2
078EA:  MOVLW  28
078EC:  MOVLB  5
078EE:  MOVWF  xD3
078F0:  MOVLW  1E
078F2:  MOVWF  xD4
078F4:  CLRF   xD5
078F6:  MOVLB  0
078F8:  CALL   4AB0
....................          displayContrasena(Contrasena[2],60,30,0);displayContrasena(Contrasena[0],80,30,0); 
078FC:  MOVFF  4F6,5D2
07900:  MOVLW  3C
07902:  MOVLB  5
07904:  MOVWF  xD3
07906:  MOVLW  1E
07908:  MOVWF  xD4
0790A:  CLRF   xD5
0790C:  MOVLB  0
0790E:  CALL   4AB0
07912:  MOVFF  4F4,5D2
07916:  MOVLW  50
07918:  MOVLB  5
0791A:  MOVWF  xD3
0791C:  MOVLW  1E
0791E:  MOVWF  xD4
07920:  CLRF   xD5
07922:  MOVLB  0
07924:  CALL   4AB0
....................          n=1; 
07928:  MOVLB  4
0792A:  BSF    x2F.0
....................       } 
....................       strcpy(Menus.Letra,"Clave Nueva"); 
0792C:  MOVLW  04
0792E:  MOVWF  FEA
07930:  MOVLW  17
07932:  MOVWF  FE9
07934:  MOVFF  FF2,5C8
07938:  BCF    FF2.7
0793A:  MOVLW  00
0793C:  MOVLB  0
0793E:  CALL   10EE
07942:  TBLRD*-
07944:  TBLRD*+
07946:  MOVF   FF5,W
07948:  MOVWF  FEE
0794A:  IORLW  00
0794C:  BNZ   7944
0794E:  MOVLB  5
07950:  BTFSC  xC8.7
07952:  BSF    FF2.7
....................       displayMenu(Menus.Letra,0,0,1,2); 
07954:  MOVLW  04
07956:  MOVWF  xD1
07958:  MOVLW  17
0795A:  MOVWF  xD0
0795C:  CLRF   xD2
0795E:  CLRF   xD3
07960:  MOVLW  01
07962:  MOVWF  xD4
07964:  MOVLW  02
07966:  MOVWF  xD5
07968:  MOVLB  0
0796A:  CALL   4B6C
....................          
....................        
....................       if(UP)//Si oprime hacia arriba 
0796E:  BSF    F92.5
07970:  BTFSC  F80.5
07972:  BRA    7A4C
....................       {  if(Flanco == 0)  
07974:  MOVLB  4
07976:  BTFSC  x2D.0
07978:  BRA    7A4A
....................             {Flanco = 1;delay_ms(30); 
0797A:  BSF    x2D.0
0797C:  MOVLW  1E
0797E:  MOVLB  5
07980:  MOVWF  xDC
07982:  MOVLB  0
07984:  CALL   1364
....................             for(i=1;i<=4;i++) 
07988:  MOVLW  01
0798A:  MOVLB  5
0798C:  MOVWF  xB8
0798E:  MOVF   xB8,W
07990:  SUBLW  04
07992:  BNC   7A48
....................                { 
....................                   if(unidad==i) 
07994:  MOVF   xB8,W
07996:  MOVLB  4
07998:  SUBWF  xC1,W
0799A:  BNZ   7A10
....................                   {Contrasena[i-1]++; 
0799C:  MOVLW  01
0799E:  MOVLB  5
079A0:  SUBWF  xB8,W
079A2:  CLRF   03
079A4:  ADDLW  F4
079A6:  MOVWF  FE9
079A8:  MOVLW  04
079AA:  ADDWFC 03,W
079AC:  MOVWF  FEA
079AE:  INCF   FEF,F
....................                   if(Contrasena[i-1]>9) 
079B0:  MOVLW  01
079B2:  SUBWF  xB8,W
079B4:  CLRF   03
079B6:  ADDLW  F4
079B8:  MOVWF  FE9
079BA:  MOVLW  04
079BC:  ADDWFC 03,W
079BE:  MOVWF  FEA
079C0:  BTFSC  FEF.7
079C2:  BRA    79DC
079C4:  MOVF   FEF,W
079C6:  SUBLW  09
079C8:  BC    79DC
....................                         {Contrasena[i-1]=0;} 
079CA:  MOVLW  01
079CC:  SUBWF  xB8,W
079CE:  CLRF   03
079D0:  ADDLW  F4
079D2:  MOVWF  FE9
079D4:  MOVLW  04
079D6:  ADDWFC 03,W
079D8:  MOVWF  FEA
079DA:  CLRF   FEF
....................                   displayContrasena(Contrasena[i-1],i*20,30,1);} 
079DC:  MOVLW  01
079DE:  SUBWF  xB8,W
079E0:  CLRF   03
079E2:  ADDLW  F4
079E4:  MOVWF  FE9
079E6:  MOVLW  04
079E8:  ADDWFC 03,W
079EA:  MOVWF  FEA
079EC:  MOVFF  FEF,5C8
079F0:  MOVF   xB8,W
079F2:  MULLW  14
079F4:  MOVFF  FF3,5C9
079F8:  MOVFF  5C8,5D2
079FC:  MOVFF  5C9,5D3
07A00:  MOVLW  1E
07A02:  MOVWF  xD4
07A04:  MOVLW  01
07A06:  MOVWF  xD5
07A08:  MOVLB  0
07A0A:  CALL   4AB0
....................                   else 
07A0E:  BRA    7A42
....................                   {displayContrasena(Contrasena[i-1],i*20,30,0);} 
07A10:  MOVLW  01
07A12:  MOVLB  5
07A14:  SUBWF  xB8,W
07A16:  CLRF   03
07A18:  ADDLW  F4
07A1A:  MOVWF  FE9
07A1C:  MOVLW  04
07A1E:  ADDWFC 03,W
07A20:  MOVWF  FEA
07A22:  MOVFF  FEF,5C8
07A26:  MOVF   xB8,W
07A28:  MULLW  14
07A2A:  MOVFF  FF3,5C9
07A2E:  MOVFF  5C8,5D2
07A32:  MOVFF  5C9,5D3
07A36:  MOVLW  1E
07A38:  MOVWF  xD4
07A3A:  CLRF   xD5
07A3C:  MOVLB  0
07A3E:  CALL   4AB0
....................                } 
07A42:  MOVLB  5
07A44:  INCF   xB8,F
07A46:  BRA    798E
07A48:  MOVLB  4
....................             } 
....................       } 
....................          else 
07A4A:  BRA    7A50
....................             {Flanco = 0;} 
07A4C:  MOVLB  4
07A4E:  BCF    x2D.0
....................              
....................       if(DOWN )//Si oprime hacia abajo 
07A50:  BSF    F96.0
07A52:  BTFSC  F84.0
07A54:  BRA    7B2A
....................       {  if(Flanco2 == 0)  
07A56:  BTFSC  x2D.2
07A58:  BRA    7B28
....................             {Flanco2 = 1;delay_ms(30); 
07A5A:  BSF    x2D.2
07A5C:  MOVLW  1E
07A5E:  MOVLB  5
07A60:  MOVWF  xDC
07A62:  MOVLB  0
07A64:  CALL   1364
....................                for(i=1;i<=4;i++) 
07A68:  MOVLW  01
07A6A:  MOVLB  5
07A6C:  MOVWF  xB8
07A6E:  MOVF   xB8,W
07A70:  SUBLW  04
07A72:  BNC   7B26
....................                { 
....................                   if(unidad==i) 
07A74:  MOVF   xB8,W
07A76:  MOVLB  4
07A78:  SUBWF  xC1,W
07A7A:  BNZ   7AEE
....................                   {Contrasena[i-1]--;  
07A7C:  MOVLW  01
07A7E:  MOVLB  5
07A80:  SUBWF  xB8,W
07A82:  CLRF   03
07A84:  ADDLW  F4
07A86:  MOVWF  FE9
07A88:  MOVLW  04
07A8A:  ADDWFC 03,W
07A8C:  MOVWF  FEA
07A8E:  DECF   FEF,F
....................                      if(Contrasena[i-1]<0) 
07A90:  MOVLW  01
07A92:  SUBWF  xB8,W
07A94:  CLRF   03
07A96:  ADDLW  F4
07A98:  MOVWF  FE9
07A9A:  MOVLW  04
07A9C:  ADDWFC 03,W
07A9E:  MOVWF  FEA
07AA0:  BTFSC  FEF.7
07AA2:  BRA    7AA6
07AA4:  BRA    7ABA
....................                         {Contrasena[i-1]=9;} 
07AA6:  MOVLW  01
07AA8:  SUBWF  xB8,W
07AAA:  CLRF   03
07AAC:  ADDLW  F4
07AAE:  MOVWF  FE9
07AB0:  MOVLW  04
07AB2:  ADDWFC 03,W
07AB4:  MOVWF  FEA
07AB6:  MOVLW  09
07AB8:  MOVWF  FEF
....................                    displayContrasena(Contrasena[i-1],i*20,30,1);} 
07ABA:  MOVLW  01
07ABC:  SUBWF  xB8,W
07ABE:  CLRF   03
07AC0:  ADDLW  F4
07AC2:  MOVWF  FE9
07AC4:  MOVLW  04
07AC6:  ADDWFC 03,W
07AC8:  MOVWF  FEA
07ACA:  MOVFF  FEF,5C8
07ACE:  MOVF   xB8,W
07AD0:  MULLW  14
07AD2:  MOVFF  FF3,5C9
07AD6:  MOVFF  5C8,5D2
07ADA:  MOVFF  5C9,5D3
07ADE:  MOVLW  1E
07AE0:  MOVWF  xD4
07AE2:  MOVLW  01
07AE4:  MOVWF  xD5
07AE6:  MOVLB  0
07AE8:  CALL   4AB0
....................                   else 
07AEC:  BRA    7B20
....................                   {displayContrasena(Contrasena[i-1],i*20,30,0);} 
07AEE:  MOVLW  01
07AF0:  MOVLB  5
07AF2:  SUBWF  xB8,W
07AF4:  CLRF   03
07AF6:  ADDLW  F4
07AF8:  MOVWF  FE9
07AFA:  MOVLW  04
07AFC:  ADDWFC 03,W
07AFE:  MOVWF  FEA
07B00:  MOVFF  FEF,5C8
07B04:  MOVF   xB8,W
07B06:  MULLW  14
07B08:  MOVFF  FF3,5C9
07B0C:  MOVFF  5C8,5D2
07B10:  MOVFF  5C9,5D3
07B14:  MOVLW  1E
07B16:  MOVWF  xD4
07B18:  CLRF   xD5
07B1A:  MOVLB  0
07B1C:  CALL   4AB0
....................                }       
07B20:  MOVLB  5
07B22:  INCF   xB8,F
07B24:  BRA    7A6E
07B26:  MOVLB  4
....................             }      
....................       } 
....................          else 
07B28:  BRA    7B2C
....................             {Flanco2 = 0;}   
07B2A:  BCF    x2D.2
....................              
....................       if(RIGHT)//Si oprime SET 
07B2C:  BSF    F96.1
07B2E:  BTFSC  F84.1
07B30:  BRA    7BCE
....................       {  if(Flanco1 == 0)  
07B32:  BTFSC  x2D.1
07B34:  BRA    7BCC
....................             {Flanco1 = 1;delay_ms(30);unidad++; 
07B36:  BSF    x2D.1
07B38:  MOVLW  1E
07B3A:  MOVLB  5
07B3C:  MOVWF  xDC
07B3E:  MOVLB  0
07B40:  CALL   1364
07B44:  MOVLB  4
07B46:  INCF   xC1,F
....................                for(i=1;i<=4;i++) 
07B48:  MOVLW  01
07B4A:  MOVLB  5
07B4C:  MOVWF  xB8
07B4E:  MOVF   xB8,W
07B50:  SUBLW  04
07B52:  BNC   7BCA
....................                { 
....................                   if(unidad==i) 
07B54:  MOVF   xB8,W
07B56:  MOVLB  4
07B58:  SUBWF  xC1,W
07B5A:  BNZ   7B92
....................                   {displayContrasena(Contrasena[i-1],i*20,30,1);} 
07B5C:  MOVLW  01
07B5E:  MOVLB  5
07B60:  SUBWF  xB8,W
07B62:  CLRF   03
07B64:  ADDLW  F4
07B66:  MOVWF  FE9
07B68:  MOVLW  04
07B6A:  ADDWFC 03,W
07B6C:  MOVWF  FEA
07B6E:  MOVFF  FEF,5C8
07B72:  MOVF   xB8,W
07B74:  MULLW  14
07B76:  MOVFF  FF3,5C9
07B7A:  MOVFF  5C8,5D2
07B7E:  MOVFF  5C9,5D3
07B82:  MOVLW  1E
07B84:  MOVWF  xD4
07B86:  MOVLW  01
07B88:  MOVWF  xD5
07B8A:  MOVLB  0
07B8C:  CALL   4AB0
....................                   else 
07B90:  BRA    7BC4
....................                   {displayContrasena(Contrasena[i-1],i*20,30,0);} 
07B92:  MOVLW  01
07B94:  MOVLB  5
07B96:  SUBWF  xB8,W
07B98:  CLRF   03
07B9A:  ADDLW  F4
07B9C:  MOVWF  FE9
07B9E:  MOVLW  04
07BA0:  ADDWFC 03,W
07BA2:  MOVWF  FEA
07BA4:  MOVFF  FEF,5C8
07BA8:  MOVF   xB8,W
07BAA:  MULLW  14
07BAC:  MOVFF  FF3,5C9
07BB0:  MOVFF  5C8,5D2
07BB4:  MOVFF  5C9,5D3
07BB8:  MOVLW  1E
07BBA:  MOVWF  xD4
07BBC:  CLRF   xD5
07BBE:  MOVLB  0
07BC0:  CALL   4AB0
....................                } 
07BC4:  MOVLB  5
07BC6:  INCF   xB8,F
07BC8:  BRA    7B4E
07BCA:  MOVLB  4
....................             } 
....................       } 
....................          else 
07BCC:  BRA    7BD0
....................             {Flanco1 = 0;}   
07BCE:  BCF    x2D.1
....................              
....................       if(LEFT)//Si oprime boton de Toma. 
07BD0:  BSF    F96.2
07BD2:  BTFSC  F84.2
07BD4:  BRA    7C10
....................       { 
....................          
....................          delay_ms(700); 
07BD6:  MOVLW  04
07BD8:  MOVLB  5
07BDA:  MOVWF  xC8
07BDC:  MOVLW  AF
07BDE:  MOVWF  xDC
07BE0:  MOVLB  0
07BE2:  CALL   1364
07BE6:  MOVLB  5
07BE8:  DECFSZ xC8,F
07BEA:  BRA    7BDC
....................          if(unidad==1){ 
07BEC:  MOVLB  4
07BEE:  DECFSZ xC1,W
07BF0:  BRA    7C10
....................             Menu=3;glcd_fillscreen(OFF);Opcion=1;unidad=1;Contrasena[0]=0;Contrasena[1]=0;Contrasena[2]=0;Contrasena[3]=0; 
07BF2:  MOVLW  03
07BF4:  MOVWF  xC0
07BF6:  MOVLB  5
07BF8:  CLRF   xD0
07BFA:  MOVLB  0
07BFC:  CALL   1444
07C00:  MOVLW  01
07C02:  MOVLB  4
07C04:  MOVWF  xC2
07C06:  MOVWF  xC1
07C08:  CLRF   xF4
07C0A:  CLRF   xF5
07C0C:  CLRF   xF6
07C0E:  CLRF   xF7
....................          } 
....................       } 
....................        
....................       if(unidad>4) 
07C10:  MOVF   xC1,W
07C12:  SUBLW  04
07C14:  BTFSC  FD8.0
07C16:  BRA    7D60
....................       { 
....................          Opcion=1;glcd_fillscreen(OFF);unidad=1;n=0; 
07C18:  MOVLW  01
07C1A:  MOVWF  xC2
07C1C:  MOVLB  5
07C1E:  CLRF   xD0
07C20:  MOVLB  0
07C22:  CALL   1444
07C26:  MOVLW  01
07C28:  MOVLB  4
07C2A:  MOVWF  xC1
07C2C:  BCF    x2F.0
....................          Password[0]=Contrasena[0];Password[1]=Contrasena[1];Password[2]=Contrasena[2];Password[3]=Contrasena[3]; 
07C2E:  MOVFF  4F4,4F8
07C32:  MOVFF  4F5,4F9
07C36:  MOVFF  4F6,4FA
07C3A:  MOVFF  4F7,4FB
....................          write_eeprom(0,Password[0]); 
07C3E:  CLRF   FAA
07C40:  CLRF   FA9
07C42:  MOVFF  4F8,FA8
07C46:  BCF    FA6.6
07C48:  BCF    FA6.7
07C4A:  BSF    FA6.2
07C4C:  MOVF   FF2,W
07C4E:  MOVWF  00
07C50:  BCF    FF2.7
07C52:  MOVLB  F
07C54:  MOVLW  55
07C56:  MOVWF  FA7
07C58:  MOVLW  AA
07C5A:  MOVWF  FA7
07C5C:  BSF    FA6.1
07C5E:  BTFSC  FA6.1
07C60:  BRA    7C5E
07C62:  BCF    FA6.2
07C64:  MOVF   00,W
07C66:  IORWF  FF2,F
....................          delay_ms(20); 
07C68:  MOVLW  14
07C6A:  MOVLB  5
07C6C:  MOVWF  xDC
07C6E:  MOVLB  0
07C70:  CALL   1364
....................          write_eeprom(1,Password[1]); 
07C74:  CLRF   FAA
07C76:  MOVLW  01
07C78:  MOVWF  FA9
07C7A:  MOVFF  4F9,FA8
07C7E:  BCF    FA6.6
07C80:  BCF    FA6.7
07C82:  BSF    FA6.2
07C84:  MOVF   FF2,W
07C86:  MOVWF  00
07C88:  BCF    FF2.7
07C8A:  MOVLB  F
07C8C:  MOVLW  55
07C8E:  MOVWF  FA7
07C90:  MOVLW  AA
07C92:  MOVWF  FA7
07C94:  BSF    FA6.1
07C96:  BTFSC  FA6.1
07C98:  BRA    7C96
07C9A:  BCF    FA6.2
07C9C:  MOVF   00,W
07C9E:  IORWF  FF2,F
....................          delay_ms(20); 
07CA0:  MOVLW  14
07CA2:  MOVLB  5
07CA4:  MOVWF  xDC
07CA6:  MOVLB  0
07CA8:  CALL   1364
....................          write_eeprom(2,Password[2]); 
07CAC:  CLRF   FAA
07CAE:  MOVLW  02
07CB0:  MOVWF  FA9
07CB2:  MOVFF  4FA,FA8
07CB6:  BCF    FA6.6
07CB8:  BCF    FA6.7
07CBA:  BSF    FA6.2
07CBC:  MOVF   FF2,W
07CBE:  MOVWF  00
07CC0:  BCF    FF2.7
07CC2:  MOVLB  F
07CC4:  MOVLW  55
07CC6:  MOVWF  FA7
07CC8:  MOVLW  AA
07CCA:  MOVWF  FA7
07CCC:  BSF    FA6.1
07CCE:  BTFSC  FA6.1
07CD0:  BRA    7CCE
07CD2:  BCF    FA6.2
07CD4:  MOVF   00,W
07CD6:  IORWF  FF2,F
....................          delay_ms(20); 
07CD8:  MOVLW  14
07CDA:  MOVLB  5
07CDC:  MOVWF  xDC
07CDE:  MOVLB  0
07CE0:  CALL   1364
....................          write_eeprom(3,Password[3]); 
07CE4:  CLRF   FAA
07CE6:  MOVLW  03
07CE8:  MOVWF  FA9
07CEA:  MOVFF  4FB,FA8
07CEE:  BCF    FA6.6
07CF0:  BCF    FA6.7
07CF2:  BSF    FA6.2
07CF4:  MOVF   FF2,W
07CF6:  MOVWF  00
07CF8:  BCF    FF2.7
07CFA:  MOVLB  F
07CFC:  MOVLW  55
07CFE:  MOVWF  FA7
07D00:  MOVLW  AA
07D02:  MOVWF  FA7
07D04:  BSF    FA6.1
07D06:  BTFSC  FA6.1
07D08:  BRA    7D06
07D0A:  BCF    FA6.2
07D0C:  MOVF   00,W
07D0E:  IORWF  FF2,F
....................          delay_ms(20); 
07D10:  MOVLW  14
07D12:  MOVLB  5
07D14:  MOVWF  xDC
07D16:  MOVLB  0
07D18:  CALL   1364
....................          glcd_imagen(1);glcd_update();Menu=211;delay_ms(1000);glcd_fillScreen(OFF);Menu=3; 
07D1C:  MOVLW  01
07D1E:  MOVLB  5
07D20:  MOVWF  xC8
07D22:  MOVLB  0
07D24:  CALL   57B6
07D28:  CALL   149E
07D2C:  MOVLW  D3
07D2E:  MOVLB  4
07D30:  MOVWF  xC0
07D32:  MOVLW  04
07D34:  MOVLB  5
07D36:  MOVWF  xC8
07D38:  MOVLW  FA
07D3A:  MOVWF  xDC
07D3C:  MOVLB  0
07D3E:  CALL   1364
07D42:  MOVLB  5
07D44:  DECFSZ xC8,F
07D46:  BRA    7D38
07D48:  CLRF   xD0
07D4A:  MOVLB  0
07D4C:  CALL   1444
07D50:  MOVLW  03
07D52:  MOVLB  4
07D54:  MOVWF  xC0
....................          n=0; 
07D56:  BCF    x2F.0
....................          Contrasena[0]=0;Contrasena[1]=0;Contrasena[2]=0;Contrasena[3]=0; 
07D58:  CLRF   xF4
07D5A:  CLRF   xF5
07D5C:  CLRF   xF6
07D5E:  CLRF   xF7
....................       } 
....................      
....................     } 
.................... //_--------------------------------------------------------------------------------------------------------------------------------------------------------        
....................  
.................... //_-------------------------------------------------------------------------------------------------------------------------------------------------------- 
....................       if(Menu==31){ //Menu de Mantenimiento. 
07D60:  MOVF   xC0,W
07D62:  SUBLW  1F
07D64:  BTFSS  FD8.2
07D66:  BRA    80C2
....................        
....................          strcpy(Menus.Letra,"Manteniento"); 
07D68:  MOVLW  04
07D6A:  MOVWF  FEA
07D6C:  MOVLW  17
07D6E:  MOVWF  FE9
07D70:  MOVFF  FF2,5C8
07D74:  BCF    FF2.7
07D76:  MOVLW  00
07D78:  MOVLB  0
07D7A:  CALL   1118
07D7E:  TBLRD*-
07D80:  TBLRD*+
07D82:  MOVF   FF5,W
07D84:  MOVWF  FEE
07D86:  IORLW  00
07D88:  BNZ   7D80
07D8A:  MOVLB  5
07D8C:  BTFSC  xC8.7
07D8E:  BSF    FF2.7
....................          displayMenu(Menus.Letra,0,0,1,2); 
07D90:  MOVLW  04
07D92:  MOVWF  xD1
07D94:  MOVLW  17
07D96:  MOVWF  xD0
07D98:  CLRF   xD2
07D9A:  CLRF   xD3
07D9C:  MOVLW  01
07D9E:  MOVWF  xD4
07DA0:  MOVLW  02
07DA2:  MOVWF  xD5
07DA4:  MOVLB  0
07DA6:  CALL   4B6C
....................           
....................          strcpy(Menus.Letra,"Trabajo Filtro(h):"); 
07DAA:  MOVLW  04
07DAC:  MOVWF  FEA
07DAE:  MOVLW  17
07DB0:  MOVWF  FE9
07DB2:  MOVFF  FF2,5C8
07DB6:  BCF    FF2.7
07DB8:  MOVLW  00
07DBA:  CALL   1142
07DBE:  TBLRD*-
07DC0:  TBLRD*+
07DC2:  MOVF   FF5,W
07DC4:  MOVWF  FEE
07DC6:  IORLW  00
07DC8:  BNZ   7DC0
07DCA:  MOVLB  5
07DCC:  BTFSC  xC8.7
07DCE:  BSF    FF2.7
....................          displayMenu(Menus.Letra,10,20,1,1); 
07DD0:  MOVLW  04
07DD2:  MOVWF  xD1
07DD4:  MOVLW  17
07DD6:  MOVWF  xD0
07DD8:  MOVLW  0A
07DDA:  MOVWF  xD2
07DDC:  MOVLW  14
07DDE:  MOVWF  xD3
07DE0:  MOVLW  01
07DE2:  MOVWF  xD4
07DE4:  MOVWF  xD5
07DE6:  MOVLB  0
07DE8:  CALL   4B6C
....................          glcd_text57(0, 31, Vida_Filtro, 1, ON); 
07DEC:  MOVLB  5
07DEE:  CLRF   xE1
07DF0:  MOVLW  1F
07DF2:  MOVWF  xE2
07DF4:  MOVLW  04
07DF6:  MOVWF  xE4
07DF8:  MOVLW  95
07DFA:  MOVWF  xE3
07DFC:  MOVLW  01
07DFE:  MOVWF  xE5
07E00:  MOVWF  xE6
07E02:  MOVLB  0
07E04:  CALL   16DA
....................          displayTiempo(Ttrabajo[3],60,30,0,1);displayTiempo(Ttrabajo[2],67,30,0,1);displayTiempo(Ttrabajo[1],74,30,0,1);displayTiempo(Ttrabajo[0],82,30,0,1); 
07E08:  MOVFF  4F3,5C8
07E0C:  MOVLW  3C
07E0E:  MOVLB  5
07E10:  MOVWF  xC9
07E12:  MOVLW  1E
07E14:  MOVWF  xCA
07E16:  CLRF   xCB
07E18:  MOVLW  01
07E1A:  MOVWF  xCC
07E1C:  MOVLB  0
07E1E:  CALL   533E
07E22:  MOVFF  4F2,5C8
07E26:  MOVLW  43
07E28:  MOVLB  5
07E2A:  MOVWF  xC9
07E2C:  MOVLW  1E
07E2E:  MOVWF  xCA
07E30:  CLRF   xCB
07E32:  MOVLW  01
07E34:  MOVWF  xCC
07E36:  MOVLB  0
07E38:  CALL   533E
07E3C:  MOVFF  4F1,5C8
07E40:  MOVLW  4A
07E42:  MOVLB  5
07E44:  MOVWF  xC9
07E46:  MOVLW  1E
07E48:  MOVWF  xCA
07E4A:  CLRF   xCB
07E4C:  MOVLW  01
07E4E:  MOVWF  xCC
07E50:  MOVLB  0
07E52:  CALL   533E
07E56:  MOVFF  4F0,5C8
07E5A:  MOVLW  52
07E5C:  MOVLB  5
07E5E:  MOVWF  xC9
07E60:  MOVLW  1E
07E62:  MOVWF  xCA
07E64:  CLRF   xCB
07E66:  MOVLW  01
07E68:  MOVWF  xCC
07E6A:  MOVLB  0
07E6C:  CALL   533E
....................           
....................          LuzBlanca_on; 
07E70:  BSF    F8B.0
07E72:  BCF    F94.0
....................           
....................             if(UP && RIGHT) // Reinicia Tiempo de Luz UV 
07E74:  BSF    F92.5
07E76:  BTFSC  F80.5
07E78:  BRA    7F8A
07E7A:  BSF    F96.1
07E7C:  BTFSC  F84.1
07E7E:  BRA    7F8A
....................             { 
....................                   delay_ms(2000); 
07E80:  MOVLW  08
07E82:  MOVLB  5
07E84:  MOVWF  xC8
07E86:  MOVLW  FA
07E88:  MOVWF  xDC
07E8A:  MOVLB  0
07E8C:  CALL   1364
07E90:  MOVLB  5
07E92:  DECFSZ xC8,F
07E94:  BRA    7E86
....................                   write_eeprom(12,0); 
07E96:  CLRF   FAA
07E98:  MOVLW  0C
07E9A:  MOVWF  FA9
07E9C:  CLRF   FA8
07E9E:  BCF    FA6.6
07EA0:  BCF    FA6.7
07EA2:  BSF    FA6.2
07EA4:  MOVF   FF2,W
07EA6:  MOVWF  00
07EA8:  BCF    FF2.7
07EAA:  MOVLB  F
07EAC:  MOVLW  55
07EAE:  MOVWF  FA7
07EB0:  MOVLW  AA
07EB2:  MOVWF  FA7
07EB4:  BSF    FA6.1
07EB6:  BTFSC  FA6.1
07EB8:  BRA    7EB6
07EBA:  BCF    FA6.2
07EBC:  MOVF   00,W
07EBE:  IORWF  FF2,F
....................                   delay_ms(20); 
07EC0:  MOVLW  14
07EC2:  MOVLB  5
07EC4:  MOVWF  xDC
07EC6:  MOVLB  0
07EC8:  CALL   1364
....................                   write_eeprom(13,0); 
07ECC:  CLRF   FAA
07ECE:  MOVLW  0D
07ED0:  MOVWF  FA9
07ED2:  CLRF   FA8
07ED4:  BCF    FA6.6
07ED6:  BCF    FA6.7
07ED8:  BSF    FA6.2
07EDA:  MOVF   FF2,W
07EDC:  MOVWF  00
07EDE:  BCF    FF2.7
07EE0:  MOVLB  F
07EE2:  MOVLW  55
07EE4:  MOVWF  FA7
07EE6:  MOVLW  AA
07EE8:  MOVWF  FA7
07EEA:  BSF    FA6.1
07EEC:  BTFSC  FA6.1
07EEE:  BRA    7EEC
07EF0:  BCF    FA6.2
07EF2:  MOVF   00,W
07EF4:  IORWF  FF2,F
....................                   delay_ms(20); 
07EF6:  MOVLW  14
07EF8:  MOVLB  5
07EFA:  MOVWF  xDC
07EFC:  MOVLB  0
07EFE:  CALL   1364
....................                   write_eeprom(14,0); 
07F02:  CLRF   FAA
07F04:  MOVLW  0E
07F06:  MOVWF  FA9
07F08:  CLRF   FA8
07F0A:  BCF    FA6.6
07F0C:  BCF    FA6.7
07F0E:  BSF    FA6.2
07F10:  MOVF   FF2,W
07F12:  MOVWF  00
07F14:  BCF    FF2.7
07F16:  MOVLB  F
07F18:  MOVLW  55
07F1A:  MOVWF  FA7
07F1C:  MOVLW  AA
07F1E:  MOVWF  FA7
07F20:  BSF    FA6.1
07F22:  BTFSC  FA6.1
07F24:  BRA    7F22
07F26:  BCF    FA6.2
07F28:  MOVF   00,W
07F2A:  IORWF  FF2,F
....................                   delay_ms(20); 
07F2C:  MOVLW  14
07F2E:  MOVLB  5
07F30:  MOVWF  xDC
07F32:  MOVLB  0
07F34:  CALL   1364
....................                   write_eeprom(15,0); 
07F38:  CLRF   FAA
07F3A:  MOVLW  0F
07F3C:  MOVWF  FA9
07F3E:  CLRF   FA8
07F40:  BCF    FA6.6
07F42:  BCF    FA6.7
07F44:  BSF    FA6.2
07F46:  MOVF   FF2,W
07F48:  MOVWF  00
07F4A:  BCF    FF2.7
07F4C:  MOVLB  F
07F4E:  MOVLW  55
07F50:  MOVWF  FA7
07F52:  MOVLW  AA
07F54:  MOVWF  FA7
07F56:  BSF    FA6.1
07F58:  BTFSC  FA6.1
07F5A:  BRA    7F58
07F5C:  BCF    FA6.2
07F5E:  MOVF   00,W
07F60:  IORWF  FF2,F
....................                   delay_ms(20); 
07F62:  MOVLW  14
07F64:  MOVLB  5
07F66:  MOVWF  xDC
07F68:  MOVLB  0
07F6A:  CALL   1364
....................                   Tuv[3]=0;Tuv[2]=0;Tuv[1]=0;Tuv[0]=0; 
07F6E:  MOVLB  4
07F70:  CLRF   xEB
07F72:  CLRF   xEA
07F74:  CLRF   xE9
07F76:  CLRF   xE8
....................                   Menu=3;glcd_fillscreen(OFF);LuzBlanca_off; 
07F78:  MOVLW  03
07F7A:  MOVWF  xC0
07F7C:  MOVLB  5
07F7E:  CLRF   xD0
07F80:  MOVLB  0
07F82:  CALL   1444
07F86:  BCF    F8B.0
07F88:  BCF    F94.0
....................                 
....................             } 
....................             if(DOWN && RIGHT) // Reinicia Tiempo de Trabajo 
07F8A:  BSF    F96.0
07F8C:  BTFSC  F84.0
07F8E:  BRA    80A0
07F90:  BSF    F96.1
07F92:  BTFSC  F84.1
07F94:  BRA    80A0
....................             { 
....................                   delay_ms(2000); 
07F96:  MOVLW  08
07F98:  MOVLB  5
07F9A:  MOVWF  xC8
07F9C:  MOVLW  FA
07F9E:  MOVWF  xDC
07FA0:  MOVLB  0
07FA2:  CALL   1364
07FA6:  MOVLB  5
07FA8:  DECFSZ xC8,F
07FAA:  BRA    7F9C
....................                   write_eeprom(16,0); 
07FAC:  CLRF   FAA
07FAE:  MOVLW  10
07FB0:  MOVWF  FA9
07FB2:  CLRF   FA8
07FB4:  BCF    FA6.6
07FB6:  BCF    FA6.7
07FB8:  BSF    FA6.2
07FBA:  MOVF   FF2,W
07FBC:  MOVWF  00
07FBE:  BCF    FF2.7
07FC0:  MOVLB  F
07FC2:  MOVLW  55
07FC4:  MOVWF  FA7
07FC6:  MOVLW  AA
07FC8:  MOVWF  FA7
07FCA:  BSF    FA6.1
07FCC:  BTFSC  FA6.1
07FCE:  BRA    7FCC
07FD0:  BCF    FA6.2
07FD2:  MOVF   00,W
07FD4:  IORWF  FF2,F
....................                   delay_ms(20); 
07FD6:  MOVLW  14
07FD8:  MOVLB  5
07FDA:  MOVWF  xDC
07FDC:  MOVLB  0
07FDE:  CALL   1364
....................                   write_eeprom(17,0); 
07FE2:  CLRF   FAA
07FE4:  MOVLW  11
07FE6:  MOVWF  FA9
07FE8:  CLRF   FA8
07FEA:  BCF    FA6.6
07FEC:  BCF    FA6.7
07FEE:  BSF    FA6.2
07FF0:  MOVF   FF2,W
07FF2:  MOVWF  00
07FF4:  BCF    FF2.7
07FF6:  MOVLB  F
07FF8:  MOVLW  55
07FFA:  MOVWF  FA7
07FFC:  MOVLW  AA
07FFE:  MOVWF  FA7
08000:  BSF    FA6.1
08002:  BTFSC  FA6.1
08004:  BRA    8002
08006:  BCF    FA6.2
08008:  MOVF   00,W
0800A:  IORWF  FF2,F
....................                   delay_ms(20); 
0800C:  MOVLW  14
0800E:  MOVLB  5
08010:  MOVWF  xDC
08012:  MOVLB  0
08014:  CALL   1364
....................                   write_eeprom(18,0); 
08018:  CLRF   FAA
0801A:  MOVLW  12
0801C:  MOVWF  FA9
0801E:  CLRF   FA8
08020:  BCF    FA6.6
08022:  BCF    FA6.7
08024:  BSF    FA6.2
08026:  MOVF   FF2,W
08028:  MOVWF  00
0802A:  BCF    FF2.7
0802C:  MOVLB  F
0802E:  MOVLW  55
08030:  MOVWF  FA7
08032:  MOVLW  AA
08034:  MOVWF  FA7
08036:  BSF    FA6.1
08038:  BTFSC  FA6.1
0803A:  BRA    8038
0803C:  BCF    FA6.2
0803E:  MOVF   00,W
08040:  IORWF  FF2,F
....................                   delay_ms(20); 
08042:  MOVLW  14
08044:  MOVLB  5
08046:  MOVWF  xDC
08048:  MOVLB  0
0804A:  CALL   1364
....................                   write_eeprom(19,0); 
0804E:  CLRF   FAA
08050:  MOVLW  13
08052:  MOVWF  FA9
08054:  CLRF   FA8
08056:  BCF    FA6.6
08058:  BCF    FA6.7
0805A:  BSF    FA6.2
0805C:  MOVF   FF2,W
0805E:  MOVWF  00
08060:  BCF    FF2.7
08062:  MOVLB  F
08064:  MOVLW  55
08066:  MOVWF  FA7
08068:  MOVLW  AA
0806A:  MOVWF  FA7
0806C:  BSF    FA6.1
0806E:  BTFSC  FA6.1
08070:  BRA    806E
08072:  BCF    FA6.2
08074:  MOVF   00,W
08076:  IORWF  FF2,F
....................                   delay_ms(20); 
08078:  MOVLW  14
0807A:  MOVLB  5
0807C:  MOVWF  xDC
0807E:  MOVLB  0
08080:  CALL   1364
....................                   Ttrabajo[3]=0;Ttrabajo[2]=0;Ttrabajo[1]=0;Ttrabajo[0]=0; 
08084:  MOVLB  4
08086:  CLRF   xF3
08088:  CLRF   xF2
0808A:  CLRF   xF1
0808C:  CLRF   xF0
....................                   Menu=3;glcd_fillscreen(OFF);LuzBlanca_off; 
0808E:  MOVLW  03
08090:  MOVWF  xC0
08092:  MOVLB  5
08094:  CLRF   xD0
08096:  MOVLB  0
08098:  CALL   1444
0809C:  BCF    F8B.0
0809E:  BCF    F94.0
....................             } 
....................              
....................             if(LEFT) 
080A0:  BSF    F96.2
080A2:  BTFSC  F84.2
080A4:  BRA    80C4
....................             { 
....................                Menu=6;glcd_fillscreen(OFF);LuzBlanca_off;Opcion=1;unidad=1; 
080A6:  MOVLW  06
080A8:  MOVLB  4
080AA:  MOVWF  xC0
080AC:  MOVLB  5
080AE:  CLRF   xD0
080B0:  MOVLB  0
080B2:  CALL   1444
080B6:  BCF    F8B.0
080B8:  BCF    F94.0
080BA:  MOVLW  01
080BC:  MOVLB  4
080BE:  MOVWF  xC2
080C0:  MOVWF  xC1
080C2:  MOVLB  0
....................             } 
....................     } 
.................... //_--------------------------------------------------------------------------------------------------------------------------------------------------------        
....................  
.................... //_-------------------------------------------------------------------------------------------------------------------------------------------------------- 
....................       if(Menu==32){ //Menu de Servicio 
080C4:  MOVLB  4
080C6:  MOVF   xC0,W
080C8:  SUBLW  20
080CA:  BTFSS  FD8.2
080CC:  BRA    83E4
....................        
....................       strcpy(Menus.Letra,"Servicio"); 
080CE:  MOVLW  04
080D0:  MOVWF  FEA
080D2:  MOVLW  17
080D4:  MOVWF  FE9
080D6:  MOVFF  FF2,5C8
080DA:  BCF    FF2.7
080DC:  MOVLW  00
080DE:  MOVLB  0
080E0:  CALL   109E
080E4:  TBLRD*-
080E6:  TBLRD*+
080E8:  MOVF   FF5,W
080EA:  MOVWF  FEE
080EC:  IORLW  00
080EE:  BNZ   80E6
080F0:  MOVLB  5
080F2:  BTFSC  xC8.7
080F4:  BSF    FF2.7
....................       displayMenu(Menus.Letra,10,0,1,2); 
080F6:  MOVLW  04
080F8:  MOVWF  xD1
080FA:  MOVLW  17
080FC:  MOVWF  xD0
080FE:  MOVLW  0A
08100:  MOVWF  xD2
08102:  CLRF   xD3
08104:  MOVLW  01
08106:  MOVWF  xD4
08108:  MOVLW  02
0810A:  MOVWF  xD5
0810C:  MOVLB  0
0810E:  CALL   4B6C
....................        
....................       if(Opcion==1)    
08112:  MOVLB  4
08114:  DECFSZ xC2,W
08116:  BRA    815E
....................          {strcpy(Menus.Letra,"Sensor de Flujo"); 
08118:  MOVLW  04
0811A:  MOVWF  FEA
0811C:  MOVLW  17
0811E:  MOVWF  FE9
08120:  MOVFF  FF2,5C8
08124:  BCF    FF2.7
08126:  MOVLW  00
08128:  MOVLB  0
0812A:  CALL   1174
0812E:  TBLRD*-
08130:  TBLRD*+
08132:  MOVF   FF5,W
08134:  MOVWF  FEE
08136:  IORLW  00
08138:  BNZ   8130
0813A:  MOVLB  5
0813C:  BTFSC  xC8.7
0813E:  BSF    FF2.7
....................          displayMenu(Menus.Letra,0,18,1,1);} 
08140:  MOVLW  04
08142:  MOVWF  xD1
08144:  MOVLW  17
08146:  MOVWF  xD0
08148:  CLRF   xD2
0814A:  MOVLW  12
0814C:  MOVWF  xD3
0814E:  MOVLW  01
08150:  MOVWF  xD4
08152:  MOVWF  xD5
08154:  MOVLB  0
08156:  CALL   4B6C
....................       else 
0815A:  BRA    81A0
0815C:  MOVLB  4
....................          {strcpy(Menus.Letra,"Sensor de Flujo"); 
0815E:  MOVLW  04
08160:  MOVWF  FEA
08162:  MOVLW  17
08164:  MOVWF  FE9
08166:  MOVFF  FF2,5C8
0816A:  BCF    FF2.7
0816C:  MOVLW  00
0816E:  MOVLB  0
08170:  CALL   1174
08174:  TBLRD*-
08176:  TBLRD*+
08178:  MOVF   FF5,W
0817A:  MOVWF  FEE
0817C:  IORLW  00
0817E:  BNZ   8176
08180:  MOVLB  5
08182:  BTFSC  xC8.7
08184:  BSF    FF2.7
....................          displayMenu(Menus.Letra,0,18,0,1);}  
08186:  MOVLW  04
08188:  MOVWF  xD1
0818A:  MOVLW  17
0818C:  MOVWF  xD0
0818E:  CLRF   xD2
08190:  MOVLW  12
08192:  MOVWF  xD3
08194:  CLRF   xD4
08196:  MOVLW  01
08198:  MOVWF  xD5
0819A:  MOVLB  0
0819C:  CALL   4B6C
....................           
....................       if(Opcion==2)    
081A0:  MOVLB  4
081A2:  MOVF   xC2,W
081A4:  SUBLW  02
081A6:  BNZ   81EE
....................          {strcpy(Menus.Letra,"Sensor de Presion"); 
081A8:  MOVLW  04
081AA:  MOVWF  FEA
081AC:  MOVLW  17
081AE:  MOVWF  FE9
081B0:  MOVFF  FF2,5C8
081B4:  BCF    FF2.7
081B6:  MOVLW  00
081B8:  MOVLB  0
081BA:  CALL   11A2
081BE:  TBLRD*-
081C0:  TBLRD*+
081C2:  MOVF   FF5,W
081C4:  MOVWF  FEE
081C6:  IORLW  00
081C8:  BNZ   81C0
081CA:  MOVLB  5
081CC:  BTFSC  xC8.7
081CE:  BSF    FF2.7
....................          displayMenu(Menus.Letra,0,29,1,1);} 
081D0:  MOVLW  04
081D2:  MOVWF  xD1
081D4:  MOVLW  17
081D6:  MOVWF  xD0
081D8:  CLRF   xD2
081DA:  MOVLW  1D
081DC:  MOVWF  xD3
081DE:  MOVLW  01
081E0:  MOVWF  xD4
081E2:  MOVWF  xD5
081E4:  MOVLB  0
081E6:  CALL   4B6C
....................       else 
081EA:  BRA    8230
081EC:  MOVLB  4
....................          {strcpy(Menus.Letra,"Sensor de Presion"); 
081EE:  MOVLW  04
081F0:  MOVWF  FEA
081F2:  MOVLW  17
081F4:  MOVWF  FE9
081F6:  MOVFF  FF2,5C8
081FA:  BCF    FF2.7
081FC:  MOVLW  00
081FE:  MOVLB  0
08200:  CALL   11A2
08204:  TBLRD*-
08206:  TBLRD*+
08208:  MOVF   FF5,W
0820A:  MOVWF  FEE
0820C:  IORLW  00
0820E:  BNZ   8206
08210:  MOVLB  5
08212:  BTFSC  xC8.7
08214:  BSF    FF2.7
....................          displayMenu(Menus.Letra,0,29,0,1);}   
08216:  MOVLW  04
08218:  MOVWF  xD1
0821A:  MOVLW  17
0821C:  MOVWF  xD0
0821E:  CLRF   xD2
08220:  MOVLW  1D
08222:  MOVWF  xD3
08224:  CLRF   xD4
08226:  MOVLW  01
08228:  MOVWF  xD5
0822A:  MOVLB  0
0822C:  CALL   4B6C
....................        
....................       if(Opcion==3)    
08230:  MOVLB  4
08232:  MOVF   xC2,W
08234:  SUBLW  03
08236:  BNZ   827E
....................          {strcpy(Menus.Letra,"Velocidad Ventilador"); 
08238:  MOVLW  04
0823A:  MOVWF  FEA
0823C:  MOVLW  17
0823E:  MOVWF  FE9
08240:  MOVFF  FF2,5C8
08244:  BCF    FF2.7
08246:  MOVLW  00
08248:  MOVLB  0
0824A:  CALL   11D2
0824E:  TBLRD*-
08250:  TBLRD*+
08252:  MOVF   FF5,W
08254:  MOVWF  FEE
08256:  IORLW  00
08258:  BNZ   8250
0825A:  MOVLB  5
0825C:  BTFSC  xC8.7
0825E:  BSF    FF2.7
....................          displayMenu(Menus.Letra,0,40,1,1);} 
08260:  MOVLW  04
08262:  MOVWF  xD1
08264:  MOVLW  17
08266:  MOVWF  xD0
08268:  CLRF   xD2
0826A:  MOVLW  28
0826C:  MOVWF  xD3
0826E:  MOVLW  01
08270:  MOVWF  xD4
08272:  MOVWF  xD5
08274:  MOVLB  0
08276:  CALL   4B6C
....................       else 
0827A:  BRA    82C0
0827C:  MOVLB  4
....................          {strcpy(Menus.Letra,"Velocidad Ventilador"); 
0827E:  MOVLW  04
08280:  MOVWF  FEA
08282:  MOVLW  17
08284:  MOVWF  FE9
08286:  MOVFF  FF2,5C8
0828A:  BCF    FF2.7
0828C:  MOVLW  00
0828E:  MOVLB  0
08290:  CALL   11D2
08294:  TBLRD*-
08296:  TBLRD*+
08298:  MOVF   FF5,W
0829A:  MOVWF  FEE
0829C:  IORLW  00
0829E:  BNZ   8296
082A0:  MOVLB  5
082A2:  BTFSC  xC8.7
082A4:  BSF    FF2.7
....................          displayMenu(Menus.Letra,0,40,0,1);}  
082A6:  MOVLW  04
082A8:  MOVWF  xD1
082AA:  MOVLW  17
082AC:  MOVWF  xD0
082AE:  CLRF   xD2
082B0:  MOVLW  28
082B2:  MOVWF  xD3
082B4:  CLRF   xD4
082B6:  MOVLW  01
082B8:  MOVWF  xD5
082BA:  MOVLB  0
082BC:  CALL   4B6C
....................        
....................          
....................       if(UP)//Si oprime hacia arriba 
082C0:  BSF    F92.5
082C2:  BTFSC  F80.5
082C4:  BRA    82E0
....................       {  if(Flanco == 0)  
082C6:  MOVLB  4
082C8:  BTFSC  x2D.0
082CA:  BRA    82DE
....................             {Flanco = 1;delay_ms(30);Opcion--; 
082CC:  BSF    x2D.0
082CE:  MOVLW  1E
082D0:  MOVLB  5
082D2:  MOVWF  xDC
082D4:  MOVLB  0
082D6:  CALL   1364
082DA:  MOVLB  4
082DC:  DECF   xC2,F
....................             } 
....................       } 
....................          else 
082DE:  BRA    82E4
....................             {Flanco = 0;} 
082E0:  MOVLB  4
082E2:  BCF    x2D.0
....................              
....................       if(DOWN)//Si oprime hacia abajo 
082E4:  BSF    F96.0
082E6:  BTFSC  F84.0
082E8:  BRA    8302
....................       {  if(Flanco2 == 0)  
082EA:  BTFSC  x2D.2
082EC:  BRA    8300
....................             {Flanco2 = 1;delay_ms(30);Opcion++; 
082EE:  BSF    x2D.2
082F0:  MOVLW  1E
082F2:  MOVLB  5
082F4:  MOVWF  xDC
082F6:  MOVLB  0
082F8:  CALL   1364
082FC:  MOVLB  4
082FE:  INCF   xC2,F
....................             }      
....................       } 
....................          else 
08300:  BRA    8304
....................             {Flanco2 = 0;}   
08302:  BCF    x2D.2
....................              
....................       if(RIGHT)//Si oprime SET 
08304:  BSF    F96.1
08306:  BTFSC  F84.1
08308:  BRA    839A
....................       {   
....................          delay_ms(20); 
0830A:  MOVLW  14
0830C:  MOVLB  5
0830E:  MOVWF  xDC
08310:  MOVLB  0
08312:  CALL   1364
....................          if(RIGHT){ 
08316:  BSF    F96.1
08318:  BTFSC  F84.1
0831A:  BRA    839C
....................             delay_ms(100); 
0831C:  MOVLW  64
0831E:  MOVLB  5
08320:  MOVWF  xDC
08322:  MOVLB  0
08324:  CALL   1364
....................             glcd_fillScreen(OFF); 
08328:  MOVLB  5
0832A:  CLRF   xD0
0832C:  MOVLB  0
0832E:  CALL   1444
....................             while(!PidePassword(6,32,Opcion+40,4,4,4,4)){ 
08332:  MOVLW  28
08334:  MOVLB  4
08336:  ADDWF  xC2,W
08338:  MOVLB  5
0833A:  MOVWF  xC8
0833C:  MOVLW  06
0833E:  MOVWF  xC9
08340:  MOVLW  20
08342:  MOVWF  xCA
08344:  MOVFF  5C8,5CB
08348:  MOVLW  04
0834A:  MOVWF  xCC
0834C:  MOVWF  xCD
0834E:  MOVWF  xCE
08350:  MOVWF  xCF
08352:  MOVLB  0
08354:  CALL   4C3C
08358:  MOVF   01,F
0835A:  BNZ   8388
....................                PidePassword(6,32,Opcion+40,4,4,4,4);glcd_update(); 
0835C:  MOVLW  28
0835E:  MOVLB  4
08360:  ADDWF  xC2,W
08362:  MOVLB  5
08364:  MOVWF  xC8
08366:  MOVLW  06
08368:  MOVWF  xC9
0836A:  MOVLW  20
0836C:  MOVWF  xCA
0836E:  MOVFF  5C8,5CB
08372:  MOVLW  04
08374:  MOVWF  xCC
08376:  MOVWF  xCD
08378:  MOVWF  xCE
0837A:  MOVWF  xCF
0837C:  MOVLB  0
0837E:  CALL   4C3C
08382:  CALL   149E
....................             }             
08386:  BRA    8332
....................             glcd_fillScreen(OFF);Opcion=1;unidad=1; 
08388:  MOVLB  5
0838A:  CLRF   xD0
0838C:  MOVLB  0
0838E:  CALL   1444
08392:  MOVLW  01
08394:  MOVLB  4
08396:  MOVWF  xC2
08398:  MOVWF  xC1
0839A:  MOVLB  0
....................          } 
....................       } 
....................              
....................       if(LEFT)//Si oprime boton de Toma. 
0839C:  BSF    F96.2
0839E:  BTFSC  F84.2
083A0:  BRA    83D0
....................         {delay_ms(700);Menu=6;glcd_fillscreen(OFF);Opcion=1;unidad=1;} 
083A2:  MOVLW  04
083A4:  MOVLB  5
083A6:  MOVWF  xC8
083A8:  MOVLW  AF
083AA:  MOVWF  xDC
083AC:  MOVLB  0
083AE:  CALL   1364
083B2:  MOVLB  5
083B4:  DECFSZ xC8,F
083B6:  BRA    83A8
083B8:  MOVLW  06
083BA:  MOVLB  4
083BC:  MOVWF  xC0
083BE:  MOVLB  5
083C0:  CLRF   xD0
083C2:  MOVLB  0
083C4:  CALL   1444
083C8:  MOVLW  01
083CA:  MOVLB  4
083CC:  MOVWF  xC2
083CE:  MOVWF  xC1
....................          
....................       if(Opcion>3) 
083D0:  MOVLB  4
083D2:  MOVF   xC2,W
083D4:  SUBLW  03
083D6:  BC    83DC
....................       {Opcion=1;} 
083D8:  MOVLW  01
083DA:  MOVWF  xC2
....................       if(Opcion<1) 
083DC:  MOVF   xC2,F
083DE:  BNZ   83E4
....................       {Opcion=3;} 
083E0:  MOVLW  03
083E2:  MOVWF  xC2
....................     } 
.................... //_--------------------------------------------------------------------------------------------------------------------------------------------------------        
....................  
.................... //_-------------------------------------------------------------------------------------------------------------------------------------------------------- 
....................       if(Menu==41){ //Menu de Sensor de Flujo. 
083E4:  MOVF   xC0,W
083E6:  SUBLW  29
083E8:  BTFSS  FD8.2
083EA:  BRA    89B2
....................        
....................       if(Ajuste1>10.0) 
083EC:  MOVLB  5
083EE:  CLRF   xFC
083F0:  CLRF   xFB
083F2:  MOVLW  20
083F4:  MOVWF  xFA
083F6:  MOVLW  82
083F8:  MOVWF  xF9
083FA:  MOVFF  51F,600
083FE:  MOVFF  51E,5FF
08402:  MOVFF  51D,5FE
08406:  MOVFF  51C,5FD
0840A:  MOVLB  0
0840C:  CALL   248C
08410:  BNC   841E
....................          Ajuste1=0.0; 
08412:  MOVLB  5
08414:  CLRF   x1F
08416:  CLRF   x1E
08418:  CLRF   x1D
0841A:  CLRF   x1C
0841C:  MOVLB  0
....................        
....................       strcpy(Menus.Letra,"Sensor de Flujo"); 
0841E:  MOVLW  04
08420:  MOVWF  FEA
08422:  MOVLW  17
08424:  MOVWF  FE9
08426:  MOVFF  FF2,5C8
0842A:  BCF    FF2.7
0842C:  MOVLW  00
0842E:  CALL   1174
08432:  TBLRD*-
08434:  TBLRD*+
08436:  MOVF   FF5,W
08438:  MOVWF  FEE
0843A:  IORLW  00
0843C:  BNZ   8434
0843E:  MOVLB  5
08440:  BTFSC  xC8.7
08442:  BSF    FF2.7
....................       displayMenu(Menus.Letra,10,0,1,1); 
08444:  MOVLW  04
08446:  MOVWF  xD1
08448:  MOVLW  17
0844A:  MOVWF  xD0
0844C:  MOVLW  0A
0844E:  MOVWF  xD2
08450:  CLRF   xD3
08452:  MOVLW  01
08454:  MOVWF  xD4
08456:  MOVWF  xD5
08458:  MOVLB  0
0845A:  CALL   4B6C
....................        
....................       glcd_text57(0, 12, ZF, 1, ON); 
0845E:  MOVLB  5
08460:  CLRF   xE1
08462:  MOVLW  0C
08464:  MOVWF  xE2
08466:  MOVLW  04
08468:  MOVWF  xE4
0846A:  MOVLW  77
0846C:  MOVWF  xE3
0846E:  MOVLW  01
08470:  MOVWF  xE5
08472:  MOVWF  xE6
08474:  MOVLB  0
08476:  CALL   16DA
....................        
....................       glcd_text57(0, 20, ZA, 1, ON); 
0847A:  MOVLB  5
0847C:  CLRF   xE1
0847E:  MOVLW  14
08480:  MOVWF  xE2
08482:  MOVLW  04
08484:  MOVWF  xE4
08486:  MOVLW  85
08488:  MOVWF  xE3
0848A:  MOVLW  01
0848C:  MOVWF  xE5
0848E:  MOVWF  xE6
08490:  MOVLB  0
08492:  CALL   16DA
....................        
....................       glcd_text57(0, 30, AJ, 1, ON);            
08496:  MOVLB  5
08498:  CLRF   xE1
0849A:  MOVLW  1E
0849C:  MOVWF  xE2
0849E:  MOVLW  04
084A0:  MOVWF  xE4
084A2:  MOVLW  8D
084A4:  MOVWF  xE3
084A6:  MOVLW  01
084A8:  MOVWF  xE5
084AA:  MOVWF  xE6
084AC:  MOVLB  0
084AE:  CALL   16DA
....................        
....................       displayfloat(zero_actual,44,20,0,1); 
084B2:  MOVFF  5A7,5CF
084B6:  MOVFF  5A6,5CE
084BA:  MOVFF  5A5,5CD
084BE:  MOVFF  5A4,5CC
084C2:  MOVLW  2C
084C4:  MOVLB  5
084C6:  MOVWF  xD0
084C8:  MOVLW  14
084CA:  MOVWF  xD1
084CC:  CLRF   xD2
084CE:  MOVLW  01
084D0:  MOVWF  xD3
084D2:  MOVLB  0
084D4:  CALL   5696
....................       displayfloat(Ajuste1,44,30,0,1); 
084D8:  MOVFF  51F,5CF
084DC:  MOVFF  51E,5CE
084E0:  MOVFF  51D,5CD
084E4:  MOVFF  51C,5CC
084E8:  MOVLW  2C
084EA:  MOVLB  5
084EC:  MOVWF  xD0
084EE:  MOVLW  1E
084F0:  MOVWF  xD1
084F2:  CLRF   xD2
084F4:  MOVLW  01
084F6:  MOVWF  xD3
084F8:  MOVLB  0
084FA:  CALL   5696
....................       displayfloat(Inflow_adc,0,40,0,1); 
084FE:  MOVFF  4CF,5FE
08502:  MOVFF  4CE,5FD
08506:  CALL   1892
0850A:  MOVFF  00,5C8
0850E:  MOVFF  01,5C9
08512:  MOVFF  02,5CA
08516:  MOVFF  03,5CB
0851A:  MOVFF  03,5CF
0851E:  MOVFF  02,5CE
08522:  MOVFF  01,5CD
08526:  MOVFF  00,5CC
0852A:  MOVLB  5
0852C:  CLRF   xD0
0852E:  MOVLW  28
08530:  MOVWF  xD1
08532:  CLRF   xD2
08534:  MOVLW  01
08536:  MOVWF  xD3
08538:  MOVLB  0
0853A:  CALL   5696
.................... //      displayfloat(Diferencia,0,50,0,1); 
....................        
....................       if(UP)//Si oprime hacia arriba 
0853E:  BSF    F92.5
08540:  BTFSC  F80.5
08542:  BRA    858A
....................       {   
....................          delay_ms(30);Ajuste1+=0.01; 
08544:  MOVLW  1E
08546:  MOVLB  5
08548:  MOVWF  xDC
0854A:  MOVLB  0
0854C:  CALL   1364
08550:  BCF    FD8.1
08552:  MOVFF  51F,600
08556:  MOVFF  51E,5FF
0855A:  MOVFF  51D,5FE
0855E:  MOVFF  51C,5FD
08562:  MOVLW  0A
08564:  MOVLB  6
08566:  MOVWF  x04
08568:  MOVLW  D7
0856A:  MOVWF  x03
0856C:  MOVLW  23
0856E:  MOVWF  x02
08570:  MOVLW  78
08572:  MOVWF  x01
08574:  MOVLB  0
08576:  CALL   1A66
0857A:  MOVFF  03,51F
0857E:  MOVFF  02,51E
08582:  MOVFF  01,51D
08586:  MOVFF  00,51C
....................       } 
....................              
....................       if(DOWN)//Si oprime hacia abajo 
0858A:  BSF    F96.0
0858C:  BTFSC  F84.0
0858E:  BRA    85D6
....................       {    
....................          delay_ms(30);Ajuste1-=0.01; 
08590:  MOVLW  1E
08592:  MOVLB  5
08594:  MOVWF  xDC
08596:  MOVLB  0
08598:  CALL   1364
0859C:  BSF    FD8.1
0859E:  MOVFF  51F,600
085A2:  MOVFF  51E,5FF
085A6:  MOVFF  51D,5FE
085AA:  MOVFF  51C,5FD
085AE:  MOVLW  0A
085B0:  MOVLB  6
085B2:  MOVWF  x04
085B4:  MOVLW  D7
085B6:  MOVWF  x03
085B8:  MOVLW  23
085BA:  MOVWF  x02
085BC:  MOVLW  78
085BE:  MOVWF  x01
085C0:  MOVLB  0
085C2:  CALL   1A66
085C6:  MOVFF  03,51F
085CA:  MOVFF  02,51E
085CE:  MOVFF  01,51D
085D2:  MOVFF  00,51C
....................       } 
....................              
....................       if(RIGHT)//Si oprime SET 
085D6:  BSF    F96.1
085D8:  BTFSC  F84.1
085DA:  BRA    884A
....................       {   
....................          zero_actual=Inflow_adc; 
085DC:  MOVFF  4CF,5FE
085E0:  MOVFF  4CE,5FD
085E4:  CALL   1892
085E8:  MOVFF  03,5A7
085EC:  MOVFF  02,5A6
085F0:  MOVFF  01,5A5
085F4:  MOVFF  00,5A4
....................          Diferencia=zero_fabrica-Inflow_adc; 
085F8:  MOVFF  4CF,5FE
085FC:  MOVFF  4CE,5FD
08600:  CALL   1892
08604:  BSF    FD8.1
08606:  MOVFF  5A3,600
0860A:  MOVFF  5A2,5FF
0860E:  MOVFF  5A1,5FE
08612:  MOVFF  5A0,5FD
08616:  MOVFF  03,604
0861A:  MOVFF  02,603
0861E:  MOVFF  01,602
08622:  MOVFF  00,601
08626:  CALL   1A66
0862A:  MOVFF  03,50B
0862E:  MOVFF  02,50A
08632:  MOVFF  01,509
08636:  MOVFF  00,508
....................              
....................          if(Diferencia>=0) 
0863A:  MOVLB  5
0863C:  CLRF   xFC
0863E:  CLRF   xFB
08640:  CLRF   xFA
08642:  CLRF   xF9
08644:  MOVFF  50B,600
08648:  MOVFF  50A,5FF
0864C:  MOVFF  509,5FE
08650:  MOVFF  508,5FD
08654:  MOVLB  0
08656:  CALL   248C
0865A:  BC    865E
0865C:  BNZ   869C
....................          { 
....................             negativo=10;write_eeprom(50,negativo);delay_ms(20); 
0865E:  MOVLW  0A
08660:  MOVLB  4
08662:  MOVWF  xC3
08664:  CLRF   FAA
08666:  MOVLW  32
08668:  MOVWF  FA9
0866A:  MOVFF  4C3,FA8
0866E:  BCF    FA6.6
08670:  BCF    FA6.7
08672:  BSF    FA6.2
08674:  MOVF   FF2,W
08676:  MOVWF  00
08678:  BCF    FF2.7
0867A:  MOVLB  F
0867C:  MOVLW  55
0867E:  MOVWF  FA7
08680:  MOVLW  AA
08682:  MOVWF  FA7
08684:  BSF    FA6.1
08686:  BTFSC  FA6.1
08688:  BRA    8686
0868A:  BCF    FA6.2
0868C:  MOVF   00,W
0868E:  IORWF  FF2,F
08690:  MOVLW  14
08692:  MOVLB  5
08694:  MOVWF  xDC
08696:  MOVLB  0
08698:  CALL   1364
....................          } 
....................          if(Diferencia<0) 
0869C:  MOVFF  50B,5FC
086A0:  MOVFF  50A,5FB
086A4:  MOVFF  509,5FA
086A8:  MOVFF  508,5F9
086AC:  MOVLB  6
086AE:  CLRF   x00
086B0:  MOVLB  5
086B2:  CLRF   xFF
086B4:  CLRF   xFE
086B6:  CLRF   xFD
086B8:  MOVLB  0
086BA:  CALL   248C
086BE:  BNC   86FE
....................          { 
....................             negativo=20;write_eeprom(50,negativo);delay_ms(20); 
086C0:  MOVLW  14
086C2:  MOVLB  4
086C4:  MOVWF  xC3
086C6:  CLRF   FAA
086C8:  MOVLW  32
086CA:  MOVWF  FA9
086CC:  MOVFF  4C3,FA8
086D0:  BCF    FA6.6
086D2:  BCF    FA6.7
086D4:  BSF    FA6.2
086D6:  MOVF   FF2,W
086D8:  MOVWF  00
086DA:  BCF    FF2.7
086DC:  MOVLB  F
086DE:  MOVLW  55
086E0:  MOVWF  FA7
086E2:  MOVLW  AA
086E4:  MOVWF  FA7
086E6:  BSF    FA6.1
086E8:  BTFSC  FA6.1
086EA:  BRA    86E8
086EC:  BCF    FA6.2
086EE:  MOVF   00,W
086F0:  IORWF  FF2,F
086F2:  MOVLW  14
086F4:  MOVLB  5
086F6:  MOVWF  xDC
086F8:  MOVLB  0
086FA:  CALL   1364
....................          } 
....................          Diferencia=abs(Diferencia); 
086FE:  MOVFF  508,00
08702:  MOVFF  509,01
08706:  MOVFF  50A,02
0870A:  MOVFF  50B,03
0870E:  BCF    01.7
08710:  MOVFF  50B,50B
08714:  MOVFF  50A,50A
08718:  MOVFF  01,509
0871C:  MOVFF  508,508
....................          Temporal1=(int16)Diferencia; 
08720:  MOVFF  50B,5FC
08724:  MOVFF  50A,5FB
08728:  MOVFF  509,5FA
0872C:  MOVFF  508,5F9
08730:  CALL   2EFE
08734:  MOVFF  02,4D3
08738:  MOVFF  01,4D2
....................          write_eeprom(60,make8(Temporal1,0)); 
0873C:  MOVFF  4D2,5C8
08740:  CLRF   FAA
08742:  MOVLW  3C
08744:  MOVWF  FA9
08746:  MOVFF  5C8,FA8
0874A:  BCF    FA6.6
0874C:  BCF    FA6.7
0874E:  BSF    FA6.2
08750:  MOVF   FF2,W
08752:  MOVWF  00
08754:  BCF    FF2.7
08756:  MOVLB  F
08758:  MOVLW  55
0875A:  MOVWF  FA7
0875C:  MOVLW  AA
0875E:  MOVWF  FA7
08760:  BSF    FA6.1
08762:  BTFSC  FA6.1
08764:  BRA    8762
08766:  BCF    FA6.2
08768:  MOVF   00,W
0876A:  IORWF  FF2,F
....................          delay_ms(20); 
0876C:  MOVLW  14
0876E:  MOVLB  5
08770:  MOVWF  xDC
08772:  MOVLB  0
08774:  CALL   1364
....................          write_eeprom(61,make8(Temporal1,1));//Guardar valor de Setpoint en eeprom 
08778:  MOVFF  4D3,5C8
0877C:  CLRF   FAA
0877E:  MOVLW  3D
08780:  MOVWF  FA9
08782:  MOVFF  5C8,FA8
08786:  BCF    FA6.6
08788:  BCF    FA6.7
0878A:  BSF    FA6.2
0878C:  MOVF   FF2,W
0878E:  MOVWF  00
08790:  BCF    FF2.7
08792:  MOVLB  F
08794:  MOVLW  55
08796:  MOVWF  FA7
08798:  MOVLW  AA
0879A:  MOVWF  FA7
0879C:  BSF    FA6.1
0879E:  BTFSC  FA6.1
087A0:  BRA    879E
087A2:  BCF    FA6.2
087A4:  MOVF   00,W
087A6:  IORWF  FF2,F
....................          delay_ms(20); 
087A8:  MOVLW  14
087AA:  MOVLB  5
087AC:  MOVWF  xDC
087AE:  MOVLB  0
087B0:  CALL   1364
....................  
....................          Temporal1=(int16)zero_actual; 
087B4:  MOVFF  5A7,5FC
087B8:  MOVFF  5A6,5FB
087BC:  MOVFF  5A5,5FA
087C0:  MOVFF  5A4,5F9
087C4:  CALL   2EFE
087C8:  MOVFF  02,4D3
087CC:  MOVFF  01,4D2
....................          write_eeprom(29,make8(Temporal1,0)); 
087D0:  MOVFF  4D2,5C8
087D4:  CLRF   FAA
087D6:  MOVLW  1D
087D8:  MOVWF  FA9
087DA:  MOVFF  5C8,FA8
087DE:  BCF    FA6.6
087E0:  BCF    FA6.7
087E2:  BSF    FA6.2
087E4:  MOVF   FF2,W
087E6:  MOVWF  00
087E8:  BCF    FF2.7
087EA:  MOVLB  F
087EC:  MOVLW  55
087EE:  MOVWF  FA7
087F0:  MOVLW  AA
087F2:  MOVWF  FA7
087F4:  BSF    FA6.1
087F6:  BTFSC  FA6.1
087F8:  BRA    87F6
087FA:  BCF    FA6.2
087FC:  MOVF   00,W
087FE:  IORWF  FF2,F
....................          delay_ms(20); 
08800:  MOVLW  14
08802:  MOVLB  5
08804:  MOVWF  xDC
08806:  MOVLB  0
08808:  CALL   1364
....................          write_eeprom(30,make8(Temporal1,1));//Guardar valor de Setpoint en eeprom 
0880C:  MOVFF  4D3,5C8
08810:  CLRF   FAA
08812:  MOVLW  1E
08814:  MOVWF  FA9
08816:  MOVFF  5C8,FA8
0881A:  BCF    FA6.6
0881C:  BCF    FA6.7
0881E:  BSF    FA6.2
08820:  MOVF   FF2,W
08822:  MOVWF  00
08824:  BCF    FF2.7
08826:  MOVLB  F
08828:  MOVLW  55
0882A:  MOVWF  FA7
0882C:  MOVLW  AA
0882E:  MOVWF  FA7
08830:  BSF    FA6.1
08832:  BTFSC  FA6.1
08834:  BRA    8832
08836:  BCF    FA6.2
08838:  MOVF   00,W
0883A:  IORWF  FF2,F
....................          delay_ms(20); 
0883C:  MOVLW  14
0883E:  MOVLB  5
08840:  MOVWF  xDC
08842:  MOVLB  0
08844:  CALL   1364
....................       } 
....................          else 
08848:  BRA    8850
....................             {Flanco1 = 0;}   
0884A:  MOVLB  4
0884C:  BCF    x2D.1
0884E:  MOVLB  0
....................              
....................       if(LEFT)//Si oprime boton de Toma. 
08850:  BSF    F96.2
08852:  BTFSC  F84.2
08854:  BRA    89B0
....................       { 
....................          delay_ms(700);Menu=32;glcd_fillscreen(OFF);Opcion=1;unidad=1; 
08856:  MOVLW  04
08858:  MOVLB  5
0885A:  MOVWF  xC8
0885C:  MOVLW  AF
0885E:  MOVWF  xDC
08860:  MOVLB  0
08862:  CALL   1364
08866:  MOVLB  5
08868:  DECFSZ xC8,F
0886A:  BRA    885C
0886C:  MOVLW  20
0886E:  MOVLB  4
08870:  MOVWF  xC0
08872:  MOVLB  5
08874:  CLRF   xD0
08876:  MOVLB  0
08878:  CALL   1444
0887C:  MOVLW  01
0887E:  MOVLB  4
08880:  MOVWF  xC2
08882:  MOVWF  xC1
....................          Temporal=Ajuste1; 
08884:  MOVFF  51F,527
08888:  MOVFF  51E,526
0888C:  MOVFF  51D,525
08890:  MOVFF  51C,524
....................          Entero=(int)Ajuste1; 
08894:  MOVFF  51F,5FC
08898:  MOVFF  51E,5FB
0889C:  MOVFF  51D,5FA
088A0:  MOVFF  51C,5F9
088A4:  MOVLB  0
088A6:  CALL   2EFE
088AA:  MOVFF  01,4CB
....................          Temporal=Temporal-Entero; 
088AE:  MOVLB  5
088B0:  CLRF   xFE
088B2:  MOVFF  4CB,5FD
088B6:  MOVLB  0
088B8:  CALL   1892
088BC:  BSF    FD8.1
088BE:  MOVFF  527,600
088C2:  MOVFF  526,5FF
088C6:  MOVFF  525,5FE
088CA:  MOVFF  524,5FD
088CE:  MOVFF  03,604
088D2:  MOVFF  02,603
088D6:  MOVFF  01,602
088DA:  MOVFF  00,601
088DE:  CALL   1A66
088E2:  MOVFF  03,527
088E6:  MOVFF  02,526
088EA:  MOVFF  01,525
088EE:  MOVFF  00,524
....................          Temporal2=Temporal*10.0; 
088F2:  MOVFF  527,5FC
088F6:  MOVFF  526,5FB
088FA:  MOVFF  525,5FA
088FE:  MOVFF  524,5F9
08902:  MOVLB  6
08904:  CLRF   x00
08906:  MOVLB  5
08908:  CLRF   xFF
0890A:  MOVLW  20
0890C:  MOVWF  xFE
0890E:  MOVLW  82
08910:  MOVWF  xFD
08912:  MOVLB  0
08914:  CALL   2F3A
08918:  MOVFF  03,52B
0891C:  MOVFF  02,52A
08920:  MOVFF  01,529
08924:  MOVFF  00,528
....................          Decimal1=(int8)Temporal2; 
08928:  MOVFF  52B,5FC
0892C:  MOVFF  52A,5FB
08930:  MOVFF  529,5FA
08934:  MOVFF  528,5F9
08938:  CALL   2EFE
0893C:  MOVFF  01,4CC
....................          write_eeprom(25,Entero); 
08940:  CLRF   FAA
08942:  MOVLW  19
08944:  MOVWF  FA9
08946:  MOVFF  4CB,FA8
0894A:  BCF    FA6.6
0894C:  BCF    FA6.7
0894E:  BSF    FA6.2
08950:  MOVF   FF2,W
08952:  MOVWF  00
08954:  BCF    FF2.7
08956:  MOVLB  F
08958:  MOVLW  55
0895A:  MOVWF  FA7
0895C:  MOVLW  AA
0895E:  MOVWF  FA7
08960:  BSF    FA6.1
08962:  BTFSC  FA6.1
08964:  BRA    8962
08966:  BCF    FA6.2
08968:  MOVF   00,W
0896A:  IORWF  FF2,F
....................          delay_ms(20); 
0896C:  MOVLW  14
0896E:  MOVLB  5
08970:  MOVWF  xDC
08972:  MOVLB  0
08974:  CALL   1364
....................          write_eeprom(26,Decimal1); 
08978:  CLRF   FAA
0897A:  MOVLW  1A
0897C:  MOVWF  FA9
0897E:  MOVFF  4CC,FA8
08982:  BCF    FA6.6
08984:  BCF    FA6.7
08986:  BSF    FA6.2
08988:  MOVF   FF2,W
0898A:  MOVWF  00
0898C:  BCF    FF2.7
0898E:  MOVLB  F
08990:  MOVLW  55
08992:  MOVWF  FA7
08994:  MOVLW  AA
08996:  MOVWF  FA7
08998:  BSF    FA6.1
0899A:  BTFSC  FA6.1
0899C:  BRA    899A
0899E:  BCF    FA6.2
089A0:  MOVF   00,W
089A2:  IORWF  FF2,F
....................          delay_ms(20); 
089A4:  MOVLW  14
089A6:  MOVLB  5
089A8:  MOVWF  xDC
089AA:  MOVLB  0
089AC:  CALL   1364
089B0:  MOVLB  4
....................       } 
....................     } 
.................... //_--------------------------------------------------------------------------------------------------------------------------------------------------------        
....................  
.................... //_-------------------------------------------------------------------------------------------------------------------------------------------------------- 
....................       if(Menu==42){ //Menu de Sensor de Presin. 
089B2:  MOVF   xC0,W
089B4:  SUBLW  2A
089B6:  BTFSS  FD8.2
089B8:  BRA    8DE8
....................        
....................       if(Ajuste2>10.0) 
089BA:  MOVLB  5
089BC:  CLRF   xFC
089BE:  CLRF   xFB
089C0:  MOVLW  20
089C2:  MOVWF  xFA
089C4:  MOVLW  82
089C6:  MOVWF  xF9
089C8:  MOVFF  523,600
089CC:  MOVFF  522,5FF
089D0:  MOVFF  521,5FE
089D4:  MOVFF  520,5FD
089D8:  MOVLB  0
089DA:  CALL   248C
089DE:  BNC   89EC
....................          Ajuste2=0.0; 
089E0:  MOVLB  5
089E2:  CLRF   x23
089E4:  CLRF   x22
089E6:  CLRF   x21
089E8:  CLRF   x20
089EA:  MOVLB  0
....................        
....................       strcpy(Menus.Letra,"Sensor de Presion"); 
089EC:  MOVLW  04
089EE:  MOVWF  FEA
089F0:  MOVLW  17
089F2:  MOVWF  FE9
089F4:  MOVFF  FF2,5C8
089F8:  BCF    FF2.7
089FA:  MOVLW  00
089FC:  CALL   11A2
08A00:  TBLRD*-
08A02:  TBLRD*+
08A04:  MOVF   FF5,W
08A06:  MOVWF  FEE
08A08:  IORLW  00
08A0A:  BNZ   8A02
08A0C:  MOVLB  5
08A0E:  BTFSC  xC8.7
08A10:  BSF    FF2.7
....................       displayMenu(Menus.Letra,10,0,1,1); 
08A12:  MOVLW  04
08A14:  MOVWF  xD1
08A16:  MOVLW  17
08A18:  MOVWF  xD0
08A1A:  MOVLW  0A
08A1C:  MOVWF  xD2
08A1E:  CLRF   xD3
08A20:  MOVLW  01
08A22:  MOVWF  xD4
08A24:  MOVWF  xD5
08A26:  MOVLB  0
08A28:  CALL   4B6C
....................        
....................       glcd_text57(0, 12, ZFP, 1, ON); 
08A2C:  MOVLB  5
08A2E:  CLRF   xE1
08A30:  MOVLW  0C
08A32:  MOVWF  xE2
08A34:  MOVLW  04
08A36:  MOVWF  xE4
08A38:  MOVLW  A0
08A3A:  MOVWF  xE3
08A3C:  MOVLW  01
08A3E:  MOVWF  xE5
08A40:  MOVWF  xE6
08A42:  MOVLB  0
08A44:  CALL   16DA
....................        
....................       glcd_text57(0, 20, ZA, 1, ON); 
08A48:  MOVLB  5
08A4A:  CLRF   xE1
08A4C:  MOVLW  14
08A4E:  MOVWF  xE2
08A50:  MOVLW  04
08A52:  MOVWF  xE4
08A54:  MOVLW  85
08A56:  MOVWF  xE3
08A58:  MOVLW  01
08A5A:  MOVWF  xE5
08A5C:  MOVWF  xE6
08A5E:  MOVLB  0
08A60:  CALL   16DA
....................        
....................       glcd_text57(0, 30, AJ, 1, ON);            
08A64:  MOVLB  5
08A66:  CLRF   xE1
08A68:  MOVLW  1E
08A6A:  MOVWF  xE2
08A6C:  MOVLW  04
08A6E:  MOVWF  xE4
08A70:  MOVLW  8D
08A72:  MOVWF  xE3
08A74:  MOVLW  01
08A76:  MOVWF  xE5
08A78:  MOVWF  xE6
08A7A:  MOVLB  0
08A7C:  CALL   16DA
....................        
....................       displayfloat(G,44,20,0,1); 
08A80:  MOVFF  5B3,5CF
08A84:  MOVFF  5B2,5CE
08A88:  MOVFF  5B1,5CD
08A8C:  MOVFF  5B0,5CC
08A90:  MOVLW  2C
08A92:  MOVLB  5
08A94:  MOVWF  xD0
08A96:  MOVLW  14
08A98:  MOVWF  xD1
08A9A:  CLRF   xD2
08A9C:  MOVLW  01
08A9E:  MOVWF  xD3
08AA0:  MOVLB  0
08AA2:  CALL   5696
....................       displayfloat(Ajuste2,44,30,0,1); 
08AA6:  MOVFF  523,5CF
08AAA:  MOVFF  522,5CE
08AAE:  MOVFF  521,5CD
08AB2:  MOVFF  520,5CC
08AB6:  MOVLW  2C
08AB8:  MOVLB  5
08ABA:  MOVWF  xD0
08ABC:  MOVLW  1E
08ABE:  MOVWF  xD1
08AC0:  CLRF   xD2
08AC2:  MOVLW  01
08AC4:  MOVWF  xD3
08AC6:  MOVLB  0
08AC8:  CALL   5696
....................       displayfloat(Filtro_DownFlow_adc,0,40,0,1); 
08ACC:  MOVFF  4D1,5FE
08AD0:  MOVFF  4D0,5FD
08AD4:  CALL   1892
08AD8:  MOVFF  00,5C8
08ADC:  MOVFF  01,5C9
08AE0:  MOVFF  02,5CA
08AE4:  MOVFF  03,5CB
08AE8:  MOVFF  03,5CF
08AEC:  MOVFF  02,5CE
08AF0:  MOVFF  01,5CD
08AF4:  MOVFF  00,5CC
08AF8:  MOVLB  5
08AFA:  CLRF   xD0
08AFC:  MOVLW  28
08AFE:  MOVWF  xD1
08B00:  CLRF   xD2
08B02:  MOVLW  01
08B04:  MOVWF  xD3
08B06:  MOVLB  0
08B08:  CALL   5696
....................       displayfloat(Filtro_DownFlow,0,50,0,1); 
08B0C:  MOVFF  507,5CF
08B10:  MOVFF  506,5CE
08B14:  MOVFF  505,5CD
08B18:  MOVFF  504,5CC
08B1C:  MOVLB  5
08B1E:  CLRF   xD0
08B20:  MOVLW  32
08B22:  MOVWF  xD1
08B24:  CLRF   xD2
08B26:  MOVLW  01
08B28:  MOVWF  xD3
08B2A:  MOVLB  0
08B2C:  CALL   5696
....................        
....................       if(UP)//Si oprime hacia arriba 
08B30:  BSF    F92.5
08B32:  BTFSC  F80.5
08B34:  BRA    8B7C
....................       {   
....................          delay_ms(30);Ajuste2+=0.01; 
08B36:  MOVLW  1E
08B38:  MOVLB  5
08B3A:  MOVWF  xDC
08B3C:  MOVLB  0
08B3E:  CALL   1364
08B42:  BCF    FD8.1
08B44:  MOVFF  523,600
08B48:  MOVFF  522,5FF
08B4C:  MOVFF  521,5FE
08B50:  MOVFF  520,5FD
08B54:  MOVLW  0A
08B56:  MOVLB  6
08B58:  MOVWF  x04
08B5A:  MOVLW  D7
08B5C:  MOVWF  x03
08B5E:  MOVLW  23
08B60:  MOVWF  x02
08B62:  MOVLW  78
08B64:  MOVWF  x01
08B66:  MOVLB  0
08B68:  CALL   1A66
08B6C:  MOVFF  03,523
08B70:  MOVFF  02,522
08B74:  MOVFF  01,521
08B78:  MOVFF  00,520
....................       } 
....................              
....................       if(DOWN)//Si oprime hacia abajo 
08B7C:  BSF    F96.0
08B7E:  BTFSC  F84.0
08B80:  BRA    8BC8
....................       {   
....................          delay_ms(30);Ajuste2-=0.01; 
08B82:  MOVLW  1E
08B84:  MOVLB  5
08B86:  MOVWF  xDC
08B88:  MOVLB  0
08B8A:  CALL   1364
08B8E:  BSF    FD8.1
08B90:  MOVFF  523,600
08B94:  MOVFF  522,5FF
08B98:  MOVFF  521,5FE
08B9C:  MOVFF  520,5FD
08BA0:  MOVLW  0A
08BA2:  MOVLB  6
08BA4:  MOVWF  x04
08BA6:  MOVLW  D7
08BA8:  MOVWF  x03
08BAA:  MOVLW  23
08BAC:  MOVWF  x02
08BAE:  MOVLW  78
08BB0:  MOVWF  x01
08BB2:  MOVLB  0
08BB4:  CALL   1A66
08BB8:  MOVFF  03,523
08BBC:  MOVFF  02,522
08BC0:  MOVFF  01,521
08BC4:  MOVFF  00,520
....................       } 
....................              
....................       if(RIGHT)//Si oprime SET 
08BC8:  BSF    F96.1
08BCA:  BTFSC  F84.1
08BCC:  BRA    8C80
....................       {            
....................          G=Filtro_Downflow_adc; 
08BCE:  MOVFF  4D1,5FE
08BD2:  MOVFF  4D0,5FD
08BD6:  CALL   1892
08BDA:  MOVFF  03,5B3
08BDE:  MOVFF  02,5B2
08BE2:  MOVFF  01,5B1
08BE6:  MOVFF  00,5B0
....................          G16=(int16)G; 
08BEA:  MOVFF  5B3,5FC
08BEE:  MOVFF  5B2,5FB
08BF2:  MOVFF  5B1,5FA
08BF6:  MOVFF  5B0,5F9
08BFA:  CALL   2EFE
08BFE:  MOVFF  02,4DB
08C02:  MOVFF  01,4DA
....................          G_l=G16; G_h=(G16>>8); 
08C06:  MOVFF  4DA,4C4
08C0A:  MOVFF  4DB,4C5
....................              
....................          write_eeprom(62,G_l); 
08C0E:  CLRF   FAA
08C10:  MOVLW  3E
08C12:  MOVWF  FA9
08C14:  MOVFF  4C4,FA8
08C18:  BCF    FA6.6
08C1A:  BCF    FA6.7
08C1C:  BSF    FA6.2
08C1E:  MOVF   FF2,W
08C20:  MOVWF  00
08C22:  BCF    FF2.7
08C24:  MOVLB  F
08C26:  MOVLW  55
08C28:  MOVWF  FA7
08C2A:  MOVLW  AA
08C2C:  MOVWF  FA7
08C2E:  BSF    FA6.1
08C30:  BTFSC  FA6.1
08C32:  BRA    8C30
08C34:  BCF    FA6.2
08C36:  MOVF   00,W
08C38:  IORWF  FF2,F
....................          delay_ms(20); 
08C3A:  MOVLW  14
08C3C:  MOVLB  5
08C3E:  MOVWF  xDC
08C40:  MOVLB  0
08C42:  CALL   1364
....................          write_eeprom(63,G_h);//Guardar valor de Setpoint en eeprom 
08C46:  CLRF   FAA
08C48:  MOVLW  3F
08C4A:  MOVWF  FA9
08C4C:  MOVFF  4C5,FA8
08C50:  BCF    FA6.6
08C52:  BCF    FA6.7
08C54:  BSF    FA6.2
08C56:  MOVF   FF2,W
08C58:  MOVWF  00
08C5A:  BCF    FF2.7
08C5C:  MOVLB  F
08C5E:  MOVLW  55
08C60:  MOVWF  FA7
08C62:  MOVLW  AA
08C64:  MOVWF  FA7
08C66:  BSF    FA6.1
08C68:  BTFSC  FA6.1
08C6A:  BRA    8C68
08C6C:  BCF    FA6.2
08C6E:  MOVF   00,W
08C70:  IORWF  FF2,F
....................          delay_ms(20); 
08C72:  MOVLW  14
08C74:  MOVLB  5
08C76:  MOVWF  xDC
08C78:  MOVLB  0
08C7A:  CALL   1364
....................       } 
....................          else 
08C7E:  BRA    8C86
....................             {Flanco1 = 0;}   
08C80:  MOVLB  4
08C82:  BCF    x2D.1
08C84:  MOVLB  0
....................              
....................       if(LEFT)//Si oprime boton de Toma. 
08C86:  BSF    F96.2
08C88:  BTFSC  F84.2
08C8A:  BRA    8DE6
....................       {                   
....................          delay_ms(700);Menu=32;glcd_fillscreen(OFF);Opcion=1;unidad=1; 
08C8C:  MOVLW  04
08C8E:  MOVLB  5
08C90:  MOVWF  xC8
08C92:  MOVLW  AF
08C94:  MOVWF  xDC
08C96:  MOVLB  0
08C98:  CALL   1364
08C9C:  MOVLB  5
08C9E:  DECFSZ xC8,F
08CA0:  BRA    8C92
08CA2:  MOVLW  20
08CA4:  MOVLB  4
08CA6:  MOVWF  xC0
08CA8:  MOVLB  5
08CAA:  CLRF   xD0
08CAC:  MOVLB  0
08CAE:  CALL   1444
08CB2:  MOVLW  01
08CB4:  MOVLB  4
08CB6:  MOVWF  xC2
08CB8:  MOVWF  xC1
....................          Temporal=Ajuste2; 
08CBA:  MOVFF  523,527
08CBE:  MOVFF  522,526
08CC2:  MOVFF  521,525
08CC6:  MOVFF  520,524
....................          Entero=(int)Ajuste2; 
08CCA:  MOVFF  523,5FC
08CCE:  MOVFF  522,5FB
08CD2:  MOVFF  521,5FA
08CD6:  MOVFF  520,5F9
08CDA:  MOVLB  0
08CDC:  CALL   2EFE
08CE0:  MOVFF  01,4CB
....................          Temporal=Temporal-Entero; 
08CE4:  MOVLB  5
08CE6:  CLRF   xFE
08CE8:  MOVFF  4CB,5FD
08CEC:  MOVLB  0
08CEE:  CALL   1892
08CF2:  BSF    FD8.1
08CF4:  MOVFF  527,600
08CF8:  MOVFF  526,5FF
08CFC:  MOVFF  525,5FE
08D00:  MOVFF  524,5FD
08D04:  MOVFF  03,604
08D08:  MOVFF  02,603
08D0C:  MOVFF  01,602
08D10:  MOVFF  00,601
08D14:  CALL   1A66
08D18:  MOVFF  03,527
08D1C:  MOVFF  02,526
08D20:  MOVFF  01,525
08D24:  MOVFF  00,524
....................          Temporal2=Temporal*10.0; 
08D28:  MOVFF  527,5FC
08D2C:  MOVFF  526,5FB
08D30:  MOVFF  525,5FA
08D34:  MOVFF  524,5F9
08D38:  MOVLB  6
08D3A:  CLRF   x00
08D3C:  MOVLB  5
08D3E:  CLRF   xFF
08D40:  MOVLW  20
08D42:  MOVWF  xFE
08D44:  MOVLW  82
08D46:  MOVWF  xFD
08D48:  MOVLB  0
08D4A:  CALL   2F3A
08D4E:  MOVFF  03,52B
08D52:  MOVFF  02,52A
08D56:  MOVFF  01,529
08D5A:  MOVFF  00,528
....................          Decimal1=(int8)Temporal2; 
08D5E:  MOVFF  52B,5FC
08D62:  MOVFF  52A,5FB
08D66:  MOVFF  529,5FA
08D6A:  MOVFF  528,5F9
08D6E:  CALL   2EFE
08D72:  MOVFF  01,4CC
....................          write_eeprom(27,Entero); 
08D76:  CLRF   FAA
08D78:  MOVLW  1B
08D7A:  MOVWF  FA9
08D7C:  MOVFF  4CB,FA8
08D80:  BCF    FA6.6
08D82:  BCF    FA6.7
08D84:  BSF    FA6.2
08D86:  MOVF   FF2,W
08D88:  MOVWF  00
08D8A:  BCF    FF2.7
08D8C:  MOVLB  F
08D8E:  MOVLW  55
08D90:  MOVWF  FA7
08D92:  MOVLW  AA
08D94:  MOVWF  FA7
08D96:  BSF    FA6.1
08D98:  BTFSC  FA6.1
08D9A:  BRA    8D98
08D9C:  BCF    FA6.2
08D9E:  MOVF   00,W
08DA0:  IORWF  FF2,F
....................          delay_ms(20); 
08DA2:  MOVLW  14
08DA4:  MOVLB  5
08DA6:  MOVWF  xDC
08DA8:  MOVLB  0
08DAA:  CALL   1364
....................          write_eeprom(28,Decimal1); 
08DAE:  CLRF   FAA
08DB0:  MOVLW  1C
08DB2:  MOVWF  FA9
08DB4:  MOVFF  4CC,FA8
08DB8:  BCF    FA6.6
08DBA:  BCF    FA6.7
08DBC:  BSF    FA6.2
08DBE:  MOVF   FF2,W
08DC0:  MOVWF  00
08DC2:  BCF    FF2.7
08DC4:  MOVLB  F
08DC6:  MOVLW  55
08DC8:  MOVWF  FA7
08DCA:  MOVLW  AA
08DCC:  MOVWF  FA7
08DCE:  BSF    FA6.1
08DD0:  BTFSC  FA6.1
08DD2:  BRA    8DD0
08DD4:  BCF    FA6.2
08DD6:  MOVF   00,W
08DD8:  IORWF  FF2,F
....................          delay_ms(20); 
08DDA:  MOVLW  14
08DDC:  MOVLB  5
08DDE:  MOVWF  xDC
08DE0:  MOVLB  0
08DE2:  CALL   1364
08DE6:  MOVLB  4
....................       } 
....................     } 
.................... //_--------------------------------------------------------------------------------------------------------------------------------------------------------        
....................  
.................... //_-------------------------------------------------------------------------------------------------------------------------------------------------------- 
....................       if(Menu==43){ //Menu de Velocidad de Motor 
08DE8:  MOVF   xC0,W
08DEA:  SUBLW  2B
08DEC:  BTFSS  FD8.2
08DEE:  BRA    8FBA
....................        
....................       if(VelMotor>6)VelMotor=6; 
08DF0:  MOVLB  5
08DF2:  MOVF   xBF,W
08DF4:  SUBLW  06
08DF6:  BC    8DFC
08DF8:  MOVLW  06
08DFA:  MOVWF  xBF
....................        
....................       strcpy(Menus.Letra,"Seleccion Vel"); 
08DFC:  MOVLW  04
08DFE:  MOVWF  FEA
08E00:  MOVLW  17
08E02:  MOVWF  FE9
08E04:  MOVFF  FF2,5C8
08E08:  BCF    FF2.7
08E0A:  MOVLW  00
08E0C:  MOVLB  0
08E0E:  CALL   1206
08E12:  TBLRD*-
08E14:  TBLRD*+
08E16:  MOVF   FF5,W
08E18:  MOVWF  FEE
08E1A:  IORLW  00
08E1C:  BNZ   8E14
08E1E:  MOVLB  5
08E20:  BTFSC  xC8.7
08E22:  BSF    FF2.7
....................       displayMenu(Menus.Letra,10,0,1,1); 
08E24:  MOVLW  04
08E26:  MOVWF  xD1
08E28:  MOVLW  17
08E2A:  MOVWF  xD0
08E2C:  MOVLW  0A
08E2E:  MOVWF  xD2
08E30:  CLRF   xD3
08E32:  MOVLW  01
08E34:  MOVWF  xD4
08E36:  MOVWF  xD5
08E38:  MOVLB  0
08E3A:  CALL   4B6C
....................        
....................       displayTiempo(VelMotor,50,40,1,2); 
08E3E:  MOVFF  5BF,5C8
08E42:  MOVLW  32
08E44:  MOVLB  5
08E46:  MOVWF  xC9
08E48:  MOVLW  28
08E4A:  MOVWF  xCA
08E4C:  MOVLW  01
08E4E:  MOVWF  xCB
08E50:  MOVLW  02
08E52:  MOVWF  xCC
08E54:  MOVLB  0
08E56:  CALL   533E
....................        
....................       if(UP && VelMotor<6)//Si oprime hacia arriba 
08E5A:  BSF    F92.5
08E5C:  BTFSC  F80.5
08E5E:  BRA    8E7E
08E60:  MOVLB  5
08E62:  MOVF   xBF,W
08E64:  SUBLW  05
08E66:  BTFSC  FD8.0
08E68:  BRA    8E6E
08E6A:  MOVLB  0
08E6C:  BRA    8E7E
....................       {   
....................          delay_ms(200);VelMotor++; 
08E6E:  MOVLW  C8
08E70:  MOVWF  xDC
08E72:  MOVLB  0
08E74:  CALL   1364
08E78:  MOVLB  5
08E7A:  INCF   xBF,F
08E7C:  MOVLB  0
....................       } 
....................              
....................       if(DOWN && VelMotor>0)//Si oprime hacia abajo 
08E7E:  BSF    F96.0
08E80:  BTFSC  F84.0
08E82:  BRA    8EA0
08E84:  MOVLB  5
08E86:  MOVF   xBF,F
08E88:  BTFSS  FD8.2
08E8A:  BRA    8E90
08E8C:  MOVLB  0
08E8E:  BRA    8EA0
....................       {   
....................          delay_ms(200);VelMotor--; 
08E90:  MOVLW  C8
08E92:  MOVWF  xDC
08E94:  MOVLB  0
08E96:  CALL   1364
08E9A:  MOVLB  5
08E9C:  DECF   xBF,F
08E9E:  MOVLB  0
....................       } 
....................              
....................       if(RIGHT)//Si oprime SET 
08EA0:  BSF    F96.1
08EA2:  BTFSC  F84.1
08EA4:  BRA    8EAE
....................       {            
....................          VelocidadMotor(VelMotor); 
08EA6:  MOVFF  5BF,5C8
08EAA:  CALL   138C
....................       }  
....................              
....................       if(LEFT)//Si oprime boton de Toma. 
08EAE:  BSF    F96.2
08EB0:  BTFSC  F84.2
08EB2:  BRA    8FBC
....................       {                   
....................          delay_ms(100);glcd_fillscreen(OFF);Opcion=1;unidad=1; 
08EB4:  MOVLW  64
08EB6:  MOVLB  5
08EB8:  MOVWF  xDC
08EBA:  MOVLB  0
08EBC:  CALL   1364
08EC0:  MOVLB  5
08EC2:  CLRF   xD0
08EC4:  MOVLB  0
08EC6:  CALL   1444
08ECA:  MOVLW  01
08ECC:  MOVLB  4
08ECE:  MOVWF  xC2
08ED0:  MOVWF  xC1
....................          write_eeprom(32,VelMotor);//Guardar valor de Setpoint en eeprom 
08ED2:  CLRF   FAA
08ED4:  MOVLW  20
08ED6:  MOVWF  FA9
08ED8:  MOVFF  5BF,FA8
08EDC:  BCF    FA6.6
08EDE:  BCF    FA6.7
08EE0:  BSF    FA6.2
08EE2:  MOVF   FF2,W
08EE4:  MOVWF  00
08EE6:  BCF    FF2.7
08EE8:  MOVLB  F
08EEA:  MOVLW  55
08EEC:  MOVWF  FA7
08EEE:  MOVLW  AA
08EF0:  MOVWF  FA7
08EF2:  BSF    FA6.1
08EF4:  BTFSC  FA6.1
08EF6:  BRA    8EF4
08EF8:  BCF    FA6.2
08EFA:  MOVF   00,W
08EFC:  IORWF  FF2,F
....................          delay_ms(20); 
08EFE:  MOVLW  14
08F00:  MOVLB  5
08F02:  MOVWF  xDC
08F04:  MOVLB  0
08F06:  CALL   1364
....................          glcd_fillScreen(OFF); 
08F0A:  MOVLB  5
08F0C:  CLRF   xD0
08F0E:  MOVLB  0
08F10:  CALL   1444
....................          strcpy(Menus.Letra,"Velocidad"); 
08F14:  MOVLW  04
08F16:  MOVWF  FEA
08F18:  MOVLW  17
08F1A:  MOVWF  FE9
08F1C:  MOVFF  FF2,5C8
08F20:  BCF    FF2.7
08F22:  MOVLW  00
08F24:  CALL   1232
08F28:  TBLRD*-
08F2A:  TBLRD*+
08F2C:  MOVF   FF5,W
08F2E:  MOVWF  FEE
08F30:  IORLW  00
08F32:  BNZ   8F2A
08F34:  MOVLB  5
08F36:  BTFSC  xC8.7
08F38:  BSF    FF2.7
....................          displayMenu(Menus.Letra,0,0,0,2); 
08F3A:  MOVLW  04
08F3C:  MOVWF  xD1
08F3E:  MOVLW  17
08F40:  MOVWF  xD0
08F42:  CLRF   xD2
08F44:  CLRF   xD3
08F46:  CLRF   xD4
08F48:  MOVLW  02
08F4A:  MOVWF  xD5
08F4C:  MOVLB  0
08F4E:  CALL   4B6C
....................          strcpy(Menus.Letra,"Guardada"); 
08F52:  MOVLW  04
08F54:  MOVWF  FEA
08F56:  MOVLW  17
08F58:  MOVWF  FE9
08F5A:  MOVFF  FF2,5C8
08F5E:  BCF    FF2.7
08F60:  MOVLW  00
08F62:  CALL   125A
08F66:  TBLRD*-
08F68:  TBLRD*+
08F6A:  MOVF   FF5,W
08F6C:  MOVWF  FEE
08F6E:  IORLW  00
08F70:  BNZ   8F68
08F72:  MOVLB  5
08F74:  BTFSC  xC8.7
08F76:  BSF    FF2.7
....................          displayMenu(Menus.Letra,0,30,0,2); 
08F78:  MOVLW  04
08F7A:  MOVWF  xD1
08F7C:  MOVLW  17
08F7E:  MOVWF  xD0
08F80:  CLRF   xD2
08F82:  MOVLW  1E
08F84:  MOVWF  xD3
08F86:  CLRF   xD4
08F88:  MOVLW  02
08F8A:  MOVWF  xD5
08F8C:  MOVLB  0
08F8E:  CALL   4B6C
....................          glcd_update(); 
08F92:  CALL   149E
....................          delay_ms(1000); 
08F96:  MOVLW  04
08F98:  MOVLB  5
08F9A:  MOVWF  xC8
08F9C:  MOVLW  FA
08F9E:  MOVWF  xDC
08FA0:  MOVLB  0
08FA2:  CALL   1364
08FA6:  MOVLB  5
08FA8:  DECFSZ xC8,F
08FAA:  BRA    8F9C
....................          glcd_fillScreen(OFF); 
08FAC:  CLRF   xD0
08FAE:  MOVLB  0
08FB0:  CALL   1444
....................          Menu=32; 
08FB4:  MOVLW  20
08FB6:  MOVLB  4
08FB8:  MOVWF  xC0
08FBA:  MOVLB  0
....................       } 
....................     } 
.................... //_--------------------------------------------------------------------------------------------------------------------------------------------------------        
....................  
....................    if(tiemporeset>=60) 
08FBC:  MOVLB  4
08FBE:  MOVF   xC6,W
08FC0:  SUBLW  3B
08FC2:  BC    8FDA
....................    { 
....................       if(Menu!=200){ 
08FC4:  MOVF   xC0,W
08FC6:  SUBLW  C8
08FC8:  BZ    8FDA
....................          glcd_init(ON); 
08FCA:  MOVLW  01
08FCC:  MOVLB  5
08FCE:  MOVWF  xC8
08FD0:  MOVLB  0
08FD2:  CALL   1556
....................          tiemporeset=0; 
08FD6:  MOVLB  4
08FD8:  CLRF   xC6
....................       } 
....................    }  
.................... } 
08FDA:  MOVLB  0
08FDC:  GOTO   5F82
....................  
.................... } 
....................  
08FE0:  SLEEP 

Configuration Fuses:
   Word  1: 0200   HS NOIESO NOFCMEN
   Word  2: 1E1F   BROWNOUT NOWDT BORV20 NOPUT WDT32768
   Word  3: 0000   NOPBADEN NOLPT1OSC NOMCLR
   Word  4: 00B0   NOSTVREN NODEBUG NOLVP NOXINST BBSIZ4K
   Word  5: C03F   NOPROTECT NOCPD NOCPB
   Word  6: E03F   NOWRT NOWRTD NOWRTC NOWRTB
   Word  7: 403F   NOEBTR NOEBTRB
