CCS PCH C Compiler, Version 4.104, 5967               12-mar.-19 14:10

               Filename: H:\JP\JP\Laboratorio\Cabina Extractora de Gases y  Humos\2019\Cabina Extractora Sin Ductos BioWeb #004587943\Firmware\Maestro_v2.lst

               ROM used: 30340 bytes (31%)
                         Largest free fragment is 35192
               RAM used: 1617 (49%) at main() level
                         1679 (50%) worst case
               Stack:    7 worst case (6 in main + 1 for interrupts)

*
00000:  GOTO   3E62
*
00008:  MOVWF  04
0000A:  MOVFF  FD8,05
0000E:  MOVFF  FE0,06
00012:  MOVLB  0
00014:  MOVFF  FE9,0C
00018:  MOVFF  FEA,07
0001C:  MOVFF  FE1,08
00020:  MOVFF  FE2,09
00024:  MOVFF  FD9,0A
00028:  MOVFF  FDA,0B
0002C:  MOVFF  FF3,12
00030:  MOVFF  FF4,13
00034:  MOVFF  FFA,14
00038:  MOVFF  FFB,15
0003C:  MOVFF  00,0E
00040:  MOVFF  01,0F
00044:  MOVFF  02,10
00048:  MOVFF  03,11
0004C:  BTFSS  F9D.0
0004E:  GOTO   0058
00052:  BTFSC  F9E.0
00054:  GOTO   10CE
00058:  MOVFF  0E,00
0005C:  MOVFF  0F,01
00060:  MOVFF  10,02
00064:  MOVFF  11,03
00068:  MOVFF  0C,FE9
0006C:  MOVFF  07,FEA
00070:  BSF    07.7
00072:  MOVFF  08,FE1
00076:  MOVFF  09,FE2
0007A:  MOVFF  0A,FD9
0007E:  MOVFF  0B,FDA
00082:  MOVFF  12,FF3
00086:  MOVFF  13,FF4
0008A:  MOVFF  14,FFA
0008E:  MOVFF  15,FFB
00092:  MOVF   04,W
00094:  MOVFF  06,FE0
00098:  MOVFF  05,FD8
0009C:  RETFIE 0
.................... //Programa para Cabina de Bioseguridad 
....................  
.................... #include <18F4685.h> 
.................... //////// Standard Header file for the PIC18F4685 device //////////////// 
.................... #device PIC18F4685 
.................... #list 
....................  
.................... #device adc=10 
.................... #fuses HS,NOWDT,NOPROTECT,NOLVP,NODEBUG,NOSTVREN,NOPUT,NOCPD,NOWRT,NOIESO,NOFCMEN,NOPBADEN,NOWRTC,NOWRTB,NOEBTR,NOEBTRB,NOCPB,NOXINST,,NOLPT1OSC,NOMCLR 
.................... #use delay(clock=20000000) 
*
0118C:  MOVLW  06
0118E:  MOVWF  FEA
01190:  MOVLW  51
01192:  MOVWF  FE9
01194:  MOVF   FEF,W
01196:  BZ    11B2
01198:  MOVLW  06
0119A:  MOVWF  01
0119C:  CLRF   00
0119E:  DECFSZ 00,F
011A0:  BRA    119E
011A2:  DECFSZ 01,F
011A4:  BRA    119C
011A6:  MOVLW  7B
011A8:  MOVWF  00
011AA:  DECFSZ 00,F
011AC:  BRA    11AA
011AE:  DECFSZ FEF,F
011B0:  BRA    1198
011B2:  RETLW  00
.................... #include <MATH.h> 
.................... //////////////////////////////////////////////////////////////////////////// 
.................... ////        (C) Copyright 1996,2008 Custom Computer Services            //// 
.................... //// This source code may only be used by licensed users of the CCS C   //// 
.................... //// compiler.  This source code may only be distributed to other       //// 
.................... //// licensed users of the CCS C compiler.  No other use, reproduction  //// 
.................... //// or distribution is permitted without written permission.           //// 
.................... //// Derivative programs created using this software in object code     //// 
.................... //// form are not restricted in any way.                                //// 
.................... //////////////////////////////////////////////////////////////////////////// 
.................... ////                                                                    //// 
.................... //// History:                                                           //// 
.................... ////  * 9/20/2001 :  Improvments are made to sin/cos code.              //// 
.................... ////                 The code now is small, much faster,                //// 
.................... ////                 and more accurate.                                 //// 
.................... ////  * 2/21/2007 :  Compiler handles & operator differently and does 
.................... ////                 not return generic (int8 *) so type cast is done   //// 
.................... ////                                                                    //// 
.................... //////////////////////////////////////////////////////////////////////////// 
....................  
.................... #ifndef MATH_H 
.................... #define MATH_H 
....................  
.................... #ifdef PI 
.................... #undef  PI 
.................... #endif 
.................... #define PI     3.1415926535897932 
....................  
....................  
.................... #define SQRT2  1.4142135623730950 
....................  
.................... //float const ps[4] = {5.9304945, 21.125224, 8.9403076, 0.29730279}; 
.................... //float const qs[4] = {1.0000000, 15.035723, 17.764134, 2.4934718}; 
....................  
.................... ///////////////////////////// Round Functions ////////////////////////////// 
....................  
.................... float32 CEIL_FLOOR(float32 x, unsigned int8 n) 
.................... { 
....................    float32 y, res; 
....................    unsigned int16 l; 
....................    int1 s; 
....................  
....................    s = 0; 
*
018DA:  MOVLB  6
018DC:  BCF    x79.0
....................    y = x; 
018DE:  MOVFF  66D,672
018E2:  MOVFF  66C,671
018E6:  MOVFF  66B,670
018EA:  MOVFF  66A,66F
....................  
....................    if (x < 0) 
018EE:  MOVFF  66D,67D
018F2:  MOVFF  66C,67C
018F6:  MOVFF  66B,67B
018FA:  MOVFF  66A,67A
018FE:  CLRF   x81
01900:  CLRF   x80
01902:  CLRF   x7F
01904:  CLRF   x7E
01906:  MOVLB  0
01908:  RCALL  15C0
0190A:  BNC   1916
....................    { 
....................       s = 1; 
0190C:  MOVLB  6
0190E:  BSF    x79.0
....................       y = -y; 
01910:  MOVF   x70,W
01912:  XORLW  80
01914:  MOVWF  x70
....................    } 
....................  
....................    if (y <= 32768.0) 
01916:  MOVFF  672,67D
0191A:  MOVFF  671,67C
0191E:  MOVFF  670,67B
01922:  MOVFF  66F,67A
01926:  MOVLB  6
01928:  CLRF   x81
0192A:  CLRF   x80
0192C:  CLRF   x7F
0192E:  MOVLW  8E
01930:  MOVWF  x7E
01932:  MOVLB  0
01934:  RCALL  15C0
01936:  BC    193A
01938:  BNZ   1968
....................   res = (float32)(unsigned int16)y; 
0193A:  MOVFF  672,67D
0193E:  MOVFF  671,67C
01942:  MOVFF  670,67B
01946:  MOVFF  66F,67A
0194A:  RCALL  17A8
0194C:  MOVFF  02,67F
01950:  MOVFF  01,67E
01954:  RCALL  11B4
01956:  MOVFF  03,676
0195A:  MOVFF  02,675
0195E:  MOVFF  01,674
01962:  MOVFF  00,673
....................  
....................  else if (y < 10000000.0) 
01966:  BRA    1AFE
01968:  MOVFF  672,67D
0196C:  MOVFF  671,67C
01970:  MOVFF  670,67B
01974:  MOVFF  66F,67A
01978:  MOVLW  80
0197A:  MOVLB  6
0197C:  MOVWF  x81
0197E:  MOVLW  96
01980:  MOVWF  x80
01982:  MOVLW  18
01984:  MOVWF  x7F
01986:  MOVLW  96
01988:  MOVWF  x7E
0198A:  MOVLB  0
0198C:  RCALL  15C0
0198E:  BTFSS  FD8.0
01990:  BRA    1AEE
....................    { 
....................   l = (unsigned int16)(y/32768.0); 
01992:  MOVFF  672,67D
01996:  MOVFF  671,67C
0199A:  MOVFF  670,67B
0199E:  MOVFF  66F,67A
019A2:  MOVLB  6
019A4:  CLRF   x81
019A6:  CLRF   x80
019A8:  CLRF   x7F
019AA:  MOVLW  8E
019AC:  MOVWF  x7E
019AE:  MOVLB  0
019B0:  RCALL  11EA
019B2:  MOVFF  03,67D
019B6:  MOVFF  02,67C
019BA:  MOVFF  01,67B
019BE:  MOVFF  00,67A
019C2:  RCALL  17A8
019C4:  MOVFF  02,678
019C8:  MOVFF  01,677
....................       y = 32768.0*(y/32768.0 - (float32)l); 
019CC:  MOVFF  672,67D
019D0:  MOVFF  671,67C
019D4:  MOVFF  670,67B
019D8:  MOVFF  66F,67A
019DC:  MOVLB  6
019DE:  CLRF   x81
019E0:  CLRF   x80
019E2:  CLRF   x7F
019E4:  MOVLW  8E
019E6:  MOVWF  x7E
019E8:  MOVLB  0
019EA:  CALL   11EA
019EE:  MOVFF  00,67A
019F2:  MOVFF  01,67B
019F6:  MOVFF  02,67C
019FA:  MOVFF  03,67D
019FE:  MOVFF  678,67F
01A02:  MOVFF  677,67E
01A06:  CALL   11B4
01A0A:  BSF    FD8.1
01A0C:  MOVFF  67D,681
01A10:  MOVFF  67C,680
01A14:  MOVFF  67B,67F
01A18:  MOVFF  67A,67E
01A1C:  MOVFF  03,685
01A20:  MOVFF  02,684
01A24:  MOVFF  01,683
01A28:  MOVFF  00,682
01A2C:  RCALL  1348
01A2E:  MOVLB  6
01A30:  CLRF   x7D
01A32:  CLRF   x7C
01A34:  CLRF   x7B
01A36:  MOVLW  8E
01A38:  MOVWF  x7A
01A3A:  MOVFF  03,681
01A3E:  MOVFF  02,680
01A42:  MOVFF  01,67F
01A46:  MOVFF  00,67E
01A4A:  MOVLB  0
01A4C:  RCALL  17E4
01A4E:  MOVFF  03,672
01A52:  MOVFF  02,671
01A56:  MOVFF  01,670
01A5A:  MOVFF  00,66F
....................   res = 32768.0*(float32)l; 
01A5E:  MOVFF  678,67F
01A62:  MOVFF  677,67E
01A66:  CALL   11B4
01A6A:  MOVLB  6
01A6C:  CLRF   x7D
01A6E:  CLRF   x7C
01A70:  CLRF   x7B
01A72:  MOVLW  8E
01A74:  MOVWF  x7A
01A76:  MOVFF  03,681
01A7A:  MOVFF  02,680
01A7E:  MOVFF  01,67F
01A82:  MOVFF  00,67E
01A86:  MOVLB  0
01A88:  RCALL  17E4
01A8A:  MOVFF  03,676
01A8E:  MOVFF  02,675
01A92:  MOVFF  01,674
01A96:  MOVFF  00,673
....................   res += (float32)(unsigned int16)y; 
01A9A:  MOVFF  672,67D
01A9E:  MOVFF  671,67C
01AA2:  MOVFF  670,67B
01AA6:  MOVFF  66F,67A
01AAA:  RCALL  17A8
01AAC:  MOVFF  02,67F
01AB0:  MOVFF  01,67E
01AB4:  CALL   11B4
01AB8:  BCF    FD8.1
01ABA:  MOVFF  676,681
01ABE:  MOVFF  675,680
01AC2:  MOVFF  674,67F
01AC6:  MOVFF  673,67E
01ACA:  MOVFF  03,685
01ACE:  MOVFF  02,684
01AD2:  MOVFF  01,683
01AD6:  MOVFF  00,682
01ADA:  RCALL  1348
01ADC:  MOVFF  03,676
01AE0:  MOVFF  02,675
01AE4:  MOVFF  01,674
01AE8:  MOVFF  00,673
....................  } 
....................  
....................  else 
01AEC:  BRA    1AFE
....................   res = y; 
01AEE:  MOVFF  672,676
01AF2:  MOVFF  671,675
01AF6:  MOVFF  670,674
01AFA:  MOVFF  66F,673
....................  
....................  y = y - (float32)(unsigned int16)y; 
01AFE:  MOVFF  672,67D
01B02:  MOVFF  671,67C
01B06:  MOVFF  670,67B
01B0A:  MOVFF  66F,67A
01B0E:  RCALL  17A8
01B10:  MOVFF  02,67F
01B14:  MOVFF  01,67E
01B18:  CALL   11B4
01B1C:  BSF    FD8.1
01B1E:  MOVFF  672,681
01B22:  MOVFF  671,680
01B26:  MOVFF  670,67F
01B2A:  MOVFF  66F,67E
01B2E:  MOVFF  03,685
01B32:  MOVFF  02,684
01B36:  MOVFF  01,683
01B3A:  MOVFF  00,682
01B3E:  RCALL  1348
01B40:  MOVFF  03,672
01B44:  MOVFF  02,671
01B48:  MOVFF  01,670
01B4C:  MOVFF  00,66F
....................  
....................  if (s) 
01B50:  MOVLB  6
01B52:  BTFSS  x79.0
01B54:  BRA    1B5C
....................   res = -res; 
01B56:  MOVF   x74,W
01B58:  XORLW  80
01B5A:  MOVWF  x74
....................  
....................  if (y != 0) 
01B5C:  MOVFF  672,67D
01B60:  MOVFF  671,67C
01B64:  MOVFF  670,67B
01B68:  MOVFF  66F,67A
01B6C:  CLRF   x81
01B6E:  CLRF   x80
01B70:  CLRF   x7F
01B72:  CLRF   x7E
01B74:  MOVLB  0
01B76:  RCALL  15C0
01B78:  BZ    1BF2
....................  { 
....................   if (s == 1 && n == 0) 
01B7A:  MOVLB  6
01B7C:  BTFSS  x79.0
01B7E:  BRA    1BB8
01B80:  MOVF   x6E,F
01B82:  BNZ   1BB8
....................    res -= 1.0; 
01B84:  BSF    FD8.1
01B86:  MOVFF  676,681
01B8A:  MOVFF  675,680
01B8E:  MOVFF  674,67F
01B92:  MOVFF  673,67E
01B96:  CLRF   x85
01B98:  CLRF   x84
01B9A:  CLRF   x83
01B9C:  MOVLW  7F
01B9E:  MOVWF  x82
01BA0:  MOVLB  0
01BA2:  CALL   1348
01BA6:  MOVFF  03,676
01BAA:  MOVFF  02,675
01BAE:  MOVFF  01,674
01BB2:  MOVFF  00,673
01BB6:  MOVLB  6
....................  
....................   if (s == 0 && n == 1) 
01BB8:  BTFSC  x79.0
01BBA:  BRA    1BF4
01BBC:  DECFSZ x6E,W
01BBE:  BRA    1BF4
....................    res += 1.0; 
01BC0:  BCF    FD8.1
01BC2:  MOVFF  676,681
01BC6:  MOVFF  675,680
01BCA:  MOVFF  674,67F
01BCE:  MOVFF  673,67E
01BD2:  CLRF   x85
01BD4:  CLRF   x84
01BD6:  CLRF   x83
01BD8:  MOVLW  7F
01BDA:  MOVWF  x82
01BDC:  MOVLB  0
01BDE:  CALL   1348
01BE2:  MOVFF  03,676
01BE6:  MOVFF  02,675
01BEA:  MOVFF  01,674
01BEE:  MOVFF  00,673
01BF2:  MOVLB  6
....................  } 
....................  if (x == 0) 
01BF4:  MOVFF  66D,67D
01BF8:  MOVFF  66C,67C
01BFC:  MOVFF  66B,67B
01C00:  MOVFF  66A,67A
01C04:  CLRF   x81
01C06:  CLRF   x80
01C08:  CLRF   x7F
01C0A:  CLRF   x7E
01C0C:  MOVLB  0
01C0E:  RCALL  15C0
01C10:  BNZ   1C1E
....................     res = 0; 
01C12:  MOVLB  6
01C14:  CLRF   x76
01C16:  CLRF   x75
01C18:  CLRF   x74
01C1A:  CLRF   x73
01C1C:  MOVLB  0
....................  
....................  return (res); 
01C1E:  MOVFF  673,00
01C22:  MOVFF  674,01
01C26:  MOVFF  675,02
01C2A:  MOVFF  676,03
.................... } 
01C2E:  RETLW  00
....................  
.................... // Overloaded Functions to take care for new Data types in PCD 
.................... // Overloaded function CEIL_FLOOR() for data type - Float48 
.................... #if defined(__PCD__) 
.................... float48 CEIL_FLOOR(float48 x, unsigned int8 n) 
.................... { 
....................    float48 y, res; 
....................    unsigned int16 l; 
....................    int1 s; 
....................  
....................    s = 0; 
....................    y = x; 
....................  
....................    if (x < 0) 
....................    { 
....................       s = 1; 
....................       y = -y; 
....................    } 
....................  
....................    if (y <= 32768.0) 
....................   res = (float48)(unsigned int16)y; 
....................  
....................  else if (y < 10000000.0) 
....................    { 
....................   l = (unsigned int16)(y/32768.0); 
....................       y = 32768.0*(y/32768.0 - (float48)l); 
....................   res = 32768.0*(float32)l; 
....................   res += (float48)(unsigned int16)y; 
....................  } 
....................  
....................  else 
....................   res = y; 
....................  
....................  y = y - (float48)(unsigned int16)y; 
....................  
....................  if (s) 
....................   res = -res; 
....................  
....................  if (y != 0) 
....................  { 
....................   if (s == 1 && n == 0) 
....................    res -= 1.0; 
....................  
....................   if (s == 0 && n == 1) 
....................    res += 1.0; 
....................  } 
....................  if (x == 0) 
....................     res = 0; 
....................  
....................  return (res); 
.................... } 
....................  
....................  
.................... // Overloaded function CEIL_FLOOR() for data type - Float64 
.................... float64 CEIL_FLOOR(float64 x, unsigned int8 n) 
.................... { 
....................    float64 y, res; 
....................    unsigned int16 l; 
....................    int1 s; 
....................  
....................    s = 0; 
....................    y = x; 
....................  
....................    if (x < 0) 
....................    { 
....................       s = 1; 
....................       y = -y; 
....................    } 
....................  
....................    if (y <= 32768.0) 
....................   res = (float64)(unsigned int16)y; 
....................  
....................  else if (y < 10000000.0) 
....................    { 
....................   l = (unsigned int16)(y/32768.0); 
....................       y = 32768.0*(y/32768.0 - (float64)l); 
....................   res = 32768.0*(float64)l; 
....................   res += (float64)(unsigned int16)y; 
....................  } 
....................  
....................  else 
....................   res = y; 
....................  
....................  y = y - (float64)(unsigned int16)y; 
....................  
....................  if (s) 
....................   res = -res; 
....................  
....................  if (y != 0) 
....................  { 
....................   if (s == 1 && n == 0) 
....................    res -= 1.0; 
....................  
....................   if (s == 0 && n == 1) 
....................    res += 1.0; 
....................  } 
....................  if (x == 0) 
....................     res = 0; 
....................  
....................  return (res); 
.................... } 
.................... #endif 
....................  
.................... //////////////////////////////////////////////////////////////////////////// 
.................... //   float floor(float x) 
.................... //////////////////////////////////////////////////////////////////////////// 
.................... // Description : rounds down the number x. 
.................... // Date : N/A 
.................... // 
.................... float32 floor(float32 x) 
.................... { 
....................    return CEIL_FLOOR(x, 0); 
*
01C4E:  MOVFF  669,66D
01C52:  MOVFF  668,66C
01C56:  MOVFF  667,66B
01C5A:  MOVFF  666,66A
01C5E:  MOVLB  6
01C60:  CLRF   x6E
01C62:  MOVLB  0
01C64:  RCALL  18DA
.................... } 
01C66:  GOTO   1D6E (RETURN)
.................... // Following 2 functions are overloaded functions of floor() for PCD 
.................... // Overloaded function floor() for data type - Float48 
.................... #if defined(__PCD__) 
.................... float48 floor(float48 x) 
.................... { 
....................    return CEIL_FLOOR(x, 0); 
.................... } 
....................  
.................... // Overloaded function floor() for data type - Float64 
.................... float64 floor(float64 x) 
.................... { 
....................    return CEIL_FLOOR(x, 0); 
.................... } 
.................... #endif 
....................  
....................  
.................... //////////////////////////////////////////////////////////////////////////// 
.................... //   float ceil(float x) 
.................... //////////////////////////////////////////////////////////////////////////// 
.................... // Description : rounds up the number x. 
.................... // Date : N/A 
.................... // 
.................... float32 ceil(float32 x) 
.................... { 
....................    return CEIL_FLOOR(x, 1); 
*
01C30:  MOVFF  669,66D
01C34:  MOVFF  668,66C
01C38:  MOVFF  667,66B
01C3C:  MOVFF  666,66A
01C40:  MOVLW  01
01C42:  MOVLB  6
01C44:  MOVWF  x6E
01C46:  MOVLB  0
01C48:  RCALL  18DA
.................... } 
01C4A:  GOTO   1D26 (RETURN)
.................... // Following 2 functions are overloaded functions of ceil() for PCD 
.................... // Overloaded function ceil() for data type - Float48 
.................... #if defined(__PCD__) 
.................... float48 ceil(float48 x) 
.................... { 
....................    return CEIL_FLOOR(x, 1); 
.................... } 
....................  
.................... // Overloaded function ceil() for data type - Float64 
.................... float64 ceil(float64 x) 
.................... { 
....................    return CEIL_FLOOR(x, 1); 
.................... } 
.................... #endif 
....................  
....................  //////////////////////////////////////////////////////////////////////////// 
.................... //   float fabs(float x) 
.................... //////////////////////////////////////////////////////////////////////////// 
.................... // Description : Computes the absolute value of floating point number x 
.................... // Returns : returns the absolute value of x 
.................... // Date : N/A 
.................... // 
.................... #define fabs abs 
....................  
.................... //////////////////////////////////////////////////////////////////////////// 
.................... //   float fmod(float x) 
.................... //////////////////////////////////////////////////////////////////////////// 
.................... // Description : Computes the floating point remainder of x/y 
.................... // Returns : returns the value of x= i*y, for some integer i such that, if y 
.................... // is non zero, the result has the same isgn of x na dmagnitude less than the 
.................... // magnitude of y. If y is zero then a domain error occurs. 
.................... // Date : N/A 
.................... // 
....................  
.................... float fmod(float32 x,float32 y) 
.................... { 
....................    float32 i; 
....................    if (y!=0.0) 
*
01C6A:  MOVFF  65D,67D
01C6E:  MOVFF  65C,67C
01C72:  MOVFF  65B,67B
01C76:  MOVFF  65A,67A
01C7A:  MOVLB  6
01C7C:  CLRF   x81
01C7E:  CLRF   x80
01C80:  CLRF   x7F
01C82:  CLRF   x7E
01C84:  MOVLB  0
01C86:  RCALL  15C0
01C88:  BTFSC  FD8.2
01C8A:  BRA    1DCA
....................    { 
....................       i=(x/y < 0.0)? ceil(x/y): floor(x/y); 
01C8C:  MOVFF  659,67D
01C90:  MOVFF  658,67C
01C94:  MOVFF  657,67B
01C98:  MOVFF  656,67A
01C9C:  MOVFF  65D,681
01CA0:  MOVFF  65C,680
01CA4:  MOVFF  65B,67F
01CA8:  MOVFF  65A,67E
01CAC:  CALL   11EA
01CB0:  MOVFF  00,662
01CB4:  MOVFF  01,663
01CB8:  MOVFF  02,664
01CBC:  MOVFF  03,665
01CC0:  MOVFF  03,67D
01CC4:  MOVFF  02,67C
01CC8:  MOVFF  01,67B
01CCC:  MOVFF  00,67A
01CD0:  MOVLB  6
01CD2:  CLRF   x81
01CD4:  CLRF   x80
01CD6:  CLRF   x7F
01CD8:  CLRF   x7E
01CDA:  MOVLB  0
01CDC:  RCALL  15C0
01CDE:  BNC   1D28
01CE0:  MOVFF  659,67D
01CE4:  MOVFF  658,67C
01CE8:  MOVFF  657,67B
01CEC:  MOVFF  656,67A
01CF0:  MOVFF  65D,681
01CF4:  MOVFF  65C,680
01CF8:  MOVFF  65B,67F
01CFC:  MOVFF  65A,67E
01D00:  CALL   11EA
01D04:  MOVFF  00,662
01D08:  MOVFF  01,663
01D0C:  MOVFF  02,664
01D10:  MOVFF  03,665
01D14:  MOVFF  03,669
01D18:  MOVFF  02,668
01D1C:  MOVFF  01,667
01D20:  MOVFF  00,666
01D24:  BRA    1C30
01D26:  BRA    1D6E
01D28:  MOVFF  659,67D
01D2C:  MOVFF  658,67C
01D30:  MOVFF  657,67B
01D34:  MOVFF  656,67A
01D38:  MOVFF  65D,681
01D3C:  MOVFF  65C,680
01D40:  MOVFF  65B,67F
01D44:  MOVFF  65A,67E
01D48:  CALL   11EA
01D4C:  MOVFF  00,662
01D50:  MOVFF  01,663
01D54:  MOVFF  02,664
01D58:  MOVFF  03,665
01D5C:  MOVFF  03,669
01D60:  MOVFF  02,668
01D64:  MOVFF  01,667
01D68:  MOVFF  00,666
01D6C:  BRA    1C4E
01D6E:  MOVFF  03,661
01D72:  MOVFF  02,660
01D76:  MOVFF  01,65F
01D7A:  MOVFF  00,65E
....................       return(x-(i*y)); 
01D7E:  MOVFF  661,67D
01D82:  MOVFF  660,67C
01D86:  MOVFF  65F,67B
01D8A:  MOVFF  65E,67A
01D8E:  MOVFF  65D,681
01D92:  MOVFF  65C,680
01D96:  MOVFF  65B,67F
01D9A:  MOVFF  65A,67E
01D9E:  RCALL  17E4
01DA0:  BSF    FD8.1
01DA2:  MOVFF  659,681
01DA6:  MOVFF  658,680
01DAA:  MOVFF  657,67F
01DAE:  MOVFF  656,67E
01DB2:  MOVFF  03,685
01DB6:  MOVFF  02,684
01DBA:  MOVFF  01,683
01DBE:  MOVFF  00,682
01DC2:  CALL   1348
01DC6:  BRA    1DCA
....................    } 
....................    else 
01DC8:  BRA    1DCA
....................    { 
....................    #ifdef _ERRNO 
....................    { 
....................       errno=EDOM; 
....................    } 
....................    #endif 
....................    } 
.................... } 
01DCA:  RETLW  00
.................... //Overloaded function for fmod() for PCD 
.................... // Overloaded function fmod() for data type - Float48 
.................... #if defined(__PCD__) 
.................... float48 fmod(float48 x,float48 y) 
.................... { 
....................    float48 i; 
....................    if (y!=0.0) 
....................    { 
....................       i=(x/y < 0.0)? ceil(x/y): floor(x/y); 
....................       return(x-(i*y)); 
....................    } 
....................    else 
....................    { 
....................    #ifdef _ERRNO 
....................    { 
....................       errno=EDOM; 
....................    } 
....................    #endif 
....................    } 
.................... } 
.................... // Overloaded function fmod() for data type - Float64 
.................... float64 fmod(float64 x,float64 y) 
.................... { 
....................    float64 i; 
....................    if (y!=0.0) 
....................    { 
....................       i=(x/y < 0.0)? ceil(x/y): floor(x/y); 
....................       return(x-(i*y)); 
....................    } 
....................    else 
....................    { 
....................    #ifdef _ERRNO 
....................    { 
....................       errno=EDOM; 
....................    } 
....................    #endif 
....................    } 
.................... } 
.................... #endif 
.................... //////////////////// Exponential and logarithmic functions //////////////////// 
.................... //////////////////////////////////////////////////////////////////////////// 
.................... //   float exp(float x) 
.................... //////////////////////////////////////////////////////////////////////////// 
.................... // Description : returns the value (e^x) 
.................... // Date : N/A 
.................... // 
.................... #define LN2 0.6931471805599453 
....................  
.................... float const pe[6] = {0.000207455774, 0.00127100575, 0.00965065093, 
....................                      0.0554965651,  0.240227138,  0.693147172}; 
....................  
....................  
.................... float32 exp(float32 x) 
.................... { 
....................    float32 y, res, r; 
....................    #if defined(__PCD__) 
....................    int8 data1; 
....................    #endif 
....................    signed int8 n; 
....................    int1 s; 
....................    #ifdef _ERRNO 
....................    if(x > 88.722838) 
....................    { 
....................       errno=ERANGE; 
....................       return(0); 
....................    } 
....................    #endif 
....................    n = (signed int16)(x/LN2); 
*
022F6:  MOVFF  65D,67D
022FA:  MOVFF  65C,67C
022FE:  MOVFF  65B,67B
02302:  MOVFF  65A,67A
02306:  MOVLW  18
02308:  MOVLB  6
0230A:  MOVWF  x81
0230C:  MOVLW  72
0230E:  MOVWF  x80
02310:  MOVLW  31
02312:  MOVWF  x7F
02314:  MOVLW  7E
02316:  MOVWF  x7E
02318:  MOVLB  0
0231A:  CALL   11EA
0231E:  MOVFF  03,67D
02322:  MOVFF  02,67C
02326:  MOVFF  01,67B
0232A:  MOVFF  00,67A
0232E:  CALL   17A8
02332:  MOVFF  01,66A
....................    s = 0; 
02336:  MOVLB  6
02338:  BCF    x6B.0
....................    y = x; 
0233A:  MOVFF  65D,661
0233E:  MOVFF  65C,660
02342:  MOVFF  65B,65F
02346:  MOVFF  65A,65E
....................  
....................    if (x < 0) 
0234A:  MOVFF  65D,67D
0234E:  MOVFF  65C,67C
02352:  MOVFF  65B,67B
02356:  MOVFF  65A,67A
0235A:  CLRF   x81
0235C:  CLRF   x80
0235E:  CLRF   x7F
02360:  CLRF   x7E
02362:  MOVLB  0
02364:  CALL   15C0
02368:  BNC   2376
....................    { 
....................       s = 1; 
0236A:  MOVLB  6
0236C:  BSF    x6B.0
....................       n = -n; 
0236E:  NEGF   x6A
....................       y = -y; 
02370:  MOVF   x5F,W
02372:  XORLW  80
02374:  MOVWF  x5F
....................    } 
....................  
....................    res = 0.0; 
02376:  MOVLB  6
02378:  CLRF   x65
0237A:  CLRF   x64
0237C:  CLRF   x63
0237E:  CLRF   x62
.................... #if !defined(__PCD__) 
....................    *((unsigned int8 *)(&res)) = n + 0x7F; 
02380:  MOVLW  06
02382:  MOVWF  x6D
02384:  MOVLW  62
02386:  MOVWF  FE9
02388:  MOVFF  66D,FEA
0238C:  MOVLW  7F
0238E:  ADDWF  x6A,W
02390:  MOVWF  FEF
.................... #endif 
....................  
.................... #if defined(__PCD__)  // Takes care of IEEE format for PCD 
....................    data1 = n+0x7F; 
....................    if(bit_test(data1,0)) 
....................    bit_set(*(((unsigned int8 *)(&res)+2)),7); 
....................    rotate_right(&data1,1); 
....................    bit_clear(data1,7); 
....................    *(((unsigned int8 *)(&res)+3)) = data1; 
.................... #endif 
....................  
....................    y = y/LN2 - (float32)n; 
02392:  MOVFF  661,67D
02396:  MOVFF  660,67C
0239A:  MOVFF  65F,67B
0239E:  MOVFF  65E,67A
023A2:  MOVLW  18
023A4:  MOVWF  x81
023A6:  MOVLW  72
023A8:  MOVWF  x80
023AA:  MOVLW  31
023AC:  MOVWF  x7F
023AE:  MOVLW  7E
023B0:  MOVWF  x7E
023B2:  MOVLB  0
023B4:  CALL   11EA
023B8:  MOVFF  00,66C
023BC:  MOVFF  01,66D
023C0:  MOVFF  02,66E
023C4:  MOVFF  03,66F
023C8:  MOVLB  6
023CA:  CLRF   x71
023CC:  MOVFF  66A,670
023D0:  BTFSC  x70.7
023D2:  DECF   x71,F
023D4:  MOVLB  0
023D6:  RCALL  1DCC
023D8:  BSF    FD8.1
023DA:  MOVFF  66F,681
023DE:  MOVFF  66E,680
023E2:  MOVFF  66D,67F
023E6:  MOVFF  66C,67E
023EA:  MOVFF  03,685
023EE:  MOVFF  02,684
023F2:  MOVFF  01,683
023F6:  MOVFF  00,682
023FA:  CALL   1348
023FE:  MOVFF  03,661
02402:  MOVFF  02,660
02406:  MOVFF  01,65F
0240A:  MOVFF  00,65E
....................  
....................    r = pe[0]*y + pe[1]; 
0240E:  MOVLW  7C
02410:  MOVLB  6
02412:  MOVWF  x7D
02414:  MOVLW  88
02416:  MOVWF  x7C
02418:  MOVLW  59
0241A:  MOVWF  x7B
0241C:  MOVLW  72
0241E:  MOVWF  x7A
02420:  MOVFF  661,681
02424:  MOVFF  660,680
02428:  MOVFF  65F,67F
0242C:  MOVFF  65E,67E
02430:  MOVLB  0
02432:  CALL   17E4
02436:  MOVFF  00,66C
0243A:  MOVFF  01,66D
0243E:  MOVFF  02,66E
02442:  MOVFF  03,66F
02446:  BCF    FD8.1
02448:  MOVFF  03,681
0244C:  MOVFF  02,680
02450:  MOVFF  01,67F
02454:  MOVFF  00,67E
02458:  MOVLW  E0
0245A:  MOVLB  6
0245C:  MOVWF  x85
0245E:  MOVLW  97
02460:  MOVWF  x84
02462:  MOVLW  26
02464:  MOVWF  x83
02466:  MOVLW  75
02468:  MOVWF  x82
0246A:  MOVLB  0
0246C:  CALL   1348
02470:  MOVFF  03,669
02474:  MOVFF  02,668
02478:  MOVFF  01,667
0247C:  MOVFF  00,666
....................    r = r*y + pe[2]; 
02480:  MOVFF  669,67D
02484:  MOVFF  668,67C
02488:  MOVFF  667,67B
0248C:  MOVFF  666,67A
02490:  MOVFF  661,681
02494:  MOVFF  660,680
02498:  MOVFF  65F,67F
0249C:  MOVFF  65E,67E
024A0:  CALL   17E4
024A4:  MOVFF  00,66C
024A8:  MOVFF  01,66D
024AC:  MOVFF  02,66E
024B0:  MOVFF  03,66F
024B4:  BCF    FD8.1
024B6:  MOVFF  03,681
024BA:  MOVFF  02,680
024BE:  MOVFF  01,67F
024C2:  MOVFF  00,67E
024C6:  MOVLW  C4
024C8:  MOVLB  6
024CA:  MOVWF  x85
024CC:  MOVLW  1D
024CE:  MOVWF  x84
024D0:  MOVLW  1E
024D2:  MOVWF  x83
024D4:  MOVLW  78
024D6:  MOVWF  x82
024D8:  MOVLB  0
024DA:  CALL   1348
024DE:  MOVFF  03,669
024E2:  MOVFF  02,668
024E6:  MOVFF  01,667
024EA:  MOVFF  00,666
....................    r = r*y + pe[3]; 
024EE:  MOVFF  669,67D
024F2:  MOVFF  668,67C
024F6:  MOVFF  667,67B
024FA:  MOVFF  666,67A
024FE:  MOVFF  661,681
02502:  MOVFF  660,680
02506:  MOVFF  65F,67F
0250A:  MOVFF  65E,67E
0250E:  CALL   17E4
02512:  MOVFF  00,66C
02516:  MOVFF  01,66D
0251A:  MOVFF  02,66E
0251E:  MOVFF  03,66F
02522:  BCF    FD8.1
02524:  MOVFF  03,681
02528:  MOVFF  02,680
0252C:  MOVFF  01,67F
02530:  MOVFF  00,67E
02534:  MOVLW  5E
02536:  MOVLB  6
02538:  MOVWF  x85
0253A:  MOVLW  50
0253C:  MOVWF  x84
0253E:  MOVLW  63
02540:  MOVWF  x83
02542:  MOVLW  7A
02544:  MOVWF  x82
02546:  MOVLB  0
02548:  CALL   1348
0254C:  MOVFF  03,669
02550:  MOVFF  02,668
02554:  MOVFF  01,667
02558:  MOVFF  00,666
....................    r = r*y + pe[4]; 
0255C:  MOVFF  669,67D
02560:  MOVFF  668,67C
02564:  MOVFF  667,67B
02568:  MOVFF  666,67A
0256C:  MOVFF  661,681
02570:  MOVFF  660,680
02574:  MOVFF  65F,67F
02578:  MOVFF  65E,67E
0257C:  CALL   17E4
02580:  MOVFF  00,66C
02584:  MOVFF  01,66D
02588:  MOVFF  02,66E
0258C:  MOVFF  03,66F
02590:  BCF    FD8.1
02592:  MOVFF  03,681
02596:  MOVFF  02,680
0259A:  MOVFF  01,67F
0259E:  MOVFF  00,67E
025A2:  MOVLW  1A
025A4:  MOVLB  6
025A6:  MOVWF  x85
025A8:  MOVLW  FE
025AA:  MOVWF  x84
025AC:  MOVLW  75
025AE:  MOVWF  x83
025B0:  MOVLW  7C
025B2:  MOVWF  x82
025B4:  MOVLB  0
025B6:  CALL   1348
025BA:  MOVFF  03,669
025BE:  MOVFF  02,668
025C2:  MOVFF  01,667
025C6:  MOVFF  00,666
....................    r = r*y + pe[5]; 
025CA:  MOVFF  669,67D
025CE:  MOVFF  668,67C
025D2:  MOVFF  667,67B
025D6:  MOVFF  666,67A
025DA:  MOVFF  661,681
025DE:  MOVFF  660,680
025E2:  MOVFF  65F,67F
025E6:  MOVFF  65E,67E
025EA:  CALL   17E4
025EE:  MOVFF  00,66C
025F2:  MOVFF  01,66D
025F6:  MOVFF  02,66E
025FA:  MOVFF  03,66F
025FE:  BCF    FD8.1
02600:  MOVFF  03,681
02604:  MOVFF  02,680
02608:  MOVFF  01,67F
0260C:  MOVFF  00,67E
02610:  MOVLW  18
02612:  MOVLB  6
02614:  MOVWF  x85
02616:  MOVLW  72
02618:  MOVWF  x84
0261A:  MOVLW  31
0261C:  MOVWF  x83
0261E:  MOVLW  7E
02620:  MOVWF  x82
02622:  MOVLB  0
02624:  CALL   1348
02628:  MOVFF  03,669
0262C:  MOVFF  02,668
02630:  MOVFF  01,667
02634:  MOVFF  00,666
....................  
....................    res = res*(1.0 + y*r); 
02638:  MOVFF  661,67D
0263C:  MOVFF  660,67C
02640:  MOVFF  65F,67B
02644:  MOVFF  65E,67A
02648:  MOVFF  669,681
0264C:  MOVFF  668,680
02650:  MOVFF  667,67F
02654:  MOVFF  666,67E
02658:  CALL   17E4
0265C:  BCF    FD8.1
0265E:  MOVLB  6
02660:  CLRF   x81
02662:  CLRF   x80
02664:  CLRF   x7F
02666:  MOVLW  7F
02668:  MOVWF  x7E
0266A:  MOVFF  03,685
0266E:  MOVFF  02,684
02672:  MOVFF  01,683
02676:  MOVFF  00,682
0267A:  MOVLB  0
0267C:  CALL   1348
02680:  MOVFF  665,67D
02684:  MOVFF  664,67C
02688:  MOVFF  663,67B
0268C:  MOVFF  662,67A
02690:  MOVFF  03,681
02694:  MOVFF  02,680
02698:  MOVFF  01,67F
0269C:  MOVFF  00,67E
026A0:  CALL   17E4
026A4:  MOVFF  03,665
026A8:  MOVFF  02,664
026AC:  MOVFF  01,663
026B0:  MOVFF  00,662
....................  
....................    if (s) 
026B4:  MOVLB  6
026B6:  BTFSS  x6B.0
026B8:  BRA    26EC
....................       res = 1.0/res; 
026BA:  CLRF   x7D
026BC:  CLRF   x7C
026BE:  CLRF   x7B
026C0:  MOVLW  7F
026C2:  MOVWF  x7A
026C4:  MOVFF  665,681
026C8:  MOVFF  664,680
026CC:  MOVFF  663,67F
026D0:  MOVFF  662,67E
026D4:  MOVLB  0
026D6:  CALL   11EA
026DA:  MOVFF  03,665
026DE:  MOVFF  02,664
026E2:  MOVFF  01,663
026E6:  MOVFF  00,662
026EA:  MOVLB  6
....................    return(res); 
026EC:  MOVFF  662,00
026F0:  MOVFF  663,01
026F4:  MOVFF  664,02
026F8:  MOVFF  665,03
.................... } 
026FC:  MOVLB  0
026FE:  RETLW  00
....................  
....................  
.................... //Overloaded function for exp() for PCD 
.................... // Overloaded function exp() for data type - Float48 
.................... #if defined(__PCD__) 
.................... float48 exp(float48 x) 
.................... { 
....................    float48 y, res, r; 
....................    int8 data1; 
....................    signed int8 n; 
....................    int1 s; 
....................    #ifdef _ERRNO 
....................    if(x > 88.722838) 
....................    { 
....................       errno=ERANGE; 
....................       return(0); 
....................    } 
....................    #endif 
....................    n = (signed int16)(x/LN2); 
....................    s = 0; 
....................    y = x; 
....................  
....................    if (x < 0) 
....................    { 
....................       s = 1; 
....................       n = -n; 
....................       y = -y; 
....................    } 
....................  
....................    res = 0.0; 
....................  
....................    data1 = n+0x7F; 
....................    if(bit_test(data1,0)) 
....................    bit_set(*(((unsigned int8 *)(&res)+4)),7); 
....................    rotate_right(&data1,1); 
....................    bit_clear(data1,7); 
....................    *(((unsigned int8 *)(&res)+5)) = data1; 
....................  
....................    y = y/LN2 - (float48)n; 
....................  
....................    r = pe[0]*y + pe[1]; 
....................    r = r*y + pe[2]; 
....................    r = r*y + pe[3]; 
....................    r = r*y + pe[4]; 
....................    r = r*y + pe[5]; 
....................  
....................    res = res*(1.0 + y*r); 
....................  
....................    if (s) 
....................       res = 1.0/res; 
....................    return(res); 
.................... } 
....................  
.................... // Overloaded function exp() for data type - Float64 
.................... float64 exp(float64 x) 
.................... { 
....................    float64 y, res, r; 
....................    unsigned int16 data1, data2; 
....................    unsigned int16 *p; 
....................    signed int16 n; 
....................    int1 s; 
....................    #ifdef _ERRNO 
....................    if(x > 709.7827128) 
....................    { 
....................       errno=ERANGE; 
....................       return(0); 
....................    } 
....................    #endif 
....................    n = (signed int16)(x/LN2); 
....................    s = 0; 
....................    y = x; 
....................  
....................    if (x < 0) 
....................    { 
....................       s = 1; 
....................       n = -n; 
....................       y = -y; 
....................    } 
....................  
....................    res = 0.0; 
....................  
.................... #if !defined(__PCD__) 
....................    *((unsigned int16 *)(&res)) = n + 0x7F; 
.................... #endif 
....................    p= (((unsigned int16 *)(&res))+3); 
....................    data1 = *p; 
....................    data2 = *p;    
....................    data1 = n + 0x3FF; 
....................    data1 = data1 <<4; 
....................    if(bit_test(data2,15)) 
....................    bit_set(data1,15); 
....................    data2 = data2 & 0x000F; 
....................    data1 ^= data2; 
....................  
....................    *(((unsigned int16 *)(&res)+3)) = data1; 
....................  
....................  
....................    y = y/LN2 - (float64)n; 
....................  
....................    r = pe[0]*y + pe[1]; 
....................    r = r*y + pe[2]; 
....................    r = r*y + pe[3]; 
....................    r = r*y + pe[4]; 
....................    r = r*y + pe[5]; 
....................  
....................    res = res*(1.0 + y*r); 
....................  
....................    if (s) 
....................       res = 1.0/res; 
....................    return(res); 
.................... } 
....................  
.................... #ENDIF 
....................  
....................  
.................... /************************************************************/ 
....................  
.................... float32 const pl[4] = {0.45145214, -9.0558803, 26.940971, -19.860189}; 
.................... float32 const ql[4] = {1.0000000,  -8.1354259, 16.780517, -9.9300943}; 
....................  
.................... //////////////////////////////////////////////////////////////////////////// 
.................... //   float log(float x) 
.................... //////////////////////////////////////////////////////////////////////////// 
.................... // Description : returns the the natural log of x 
.................... // Date : N/A 
.................... // 
.................... float32 log(float32 x) 
.................... { 
....................    float32 y, res, r, y2; 
....................    #if defined(__PCD__) 
....................    unsigned int8  data1,data2; 
....................    #endif 
....................    signed int8 n; 
....................    #ifdef _ERRNO 
....................    if(x <0) 
....................    { 
....................       errno=EDOM; 
....................    } 
....................    if(x ==0) 
....................    { 
....................       errno=ERANGE; 
....................       return(0); 
....................    } 
....................    #endif 
....................    y = x; 
*
01E1C:  MOVFF  65D,661
01E20:  MOVFF  65C,660
01E24:  MOVFF  65B,65F
01E28:  MOVFF  65A,65E
....................  
....................    if (y != 1.0) 
01E2C:  MOVFF  661,67D
01E30:  MOVFF  660,67C
01E34:  MOVFF  65F,67B
01E38:  MOVFF  65E,67A
01E3C:  MOVLB  6
01E3E:  CLRF   x81
01E40:  CLRF   x80
01E42:  CLRF   x7F
01E44:  MOVLW  7F
01E46:  MOVWF  x7E
01E48:  MOVLB  0
01E4A:  CALL   15C0
01E4E:  BTFSC  FD8.2
01E50:  BRA    22D8
....................    { 
.................... #if !defined(__PCD__) 
....................     *((unsigned int8 *)(&y)) = 0x7E;  
01E52:  MOVLW  06
01E54:  MOVLB  6
01E56:  MOVWF  x70
01E58:  MOVLW  5E
01E5A:  MOVWF  FE9
01E5C:  MOVFF  670,FEA
01E60:  MOVLW  7E
01E62:  MOVWF  FEF
.................... #endif 
....................  
.................... #if defined(__PCD__) // Takes care of IEEE format 
....................    data2 = *(((unsigned int8 *)(&y))+3); 
....................    *(((unsigned int8 *)(&y))+3) = 0x3F; 
....................    data1 = *(((unsigned int8 *)(&y))+2); 
....................    bit_clear(data1,7); 
....................    *(((unsigned int8 *)(&y))+2) = data1; 
....................    if(bit_test(data2,7)) 
....................    bit_set(*(((unsigned int8 *)(&y))+3),7); 
.................... #endif 
....................  
....................       y = (y - 1.0)/(y + 1.0); 
01E64:  BSF    FD8.1
01E66:  MOVFF  661,681
01E6A:  MOVFF  660,680
01E6E:  MOVFF  65F,67F
01E72:  MOVFF  65E,67E
01E76:  CLRF   x85
01E78:  CLRF   x84
01E7A:  CLRF   x83
01E7C:  MOVLW  7F
01E7E:  MOVWF  x82
01E80:  MOVLB  0
01E82:  CALL   1348
01E86:  MOVFF  00,66F
01E8A:  MOVFF  01,670
01E8E:  MOVFF  02,671
01E92:  MOVFF  03,672
01E96:  BCF    FD8.1
01E98:  MOVFF  661,681
01E9C:  MOVFF  660,680
01EA0:  MOVFF  65F,67F
01EA4:  MOVFF  65E,67E
01EA8:  MOVLB  6
01EAA:  CLRF   x85
01EAC:  CLRF   x84
01EAE:  CLRF   x83
01EB0:  MOVLW  7F
01EB2:  MOVWF  x82
01EB4:  MOVLB  0
01EB6:  CALL   1348
01EBA:  MOVFF  672,67D
01EBE:  MOVFF  671,67C
01EC2:  MOVFF  670,67B
01EC6:  MOVFF  66F,67A
01ECA:  MOVFF  03,681
01ECE:  MOVFF  02,680
01ED2:  MOVFF  01,67F
01ED6:  MOVFF  00,67E
01EDA:  CALL   11EA
01EDE:  MOVFF  03,661
01EE2:  MOVFF  02,660
01EE6:  MOVFF  01,65F
01EEA:  MOVFF  00,65E
....................  
....................       y2=y*y; 
01EEE:  MOVFF  661,67D
01EF2:  MOVFF  660,67C
01EF6:  MOVFF  65F,67B
01EFA:  MOVFF  65E,67A
01EFE:  MOVFF  661,681
01F02:  MOVFF  660,680
01F06:  MOVFF  65F,67F
01F0A:  MOVFF  65E,67E
01F0E:  RCALL  17E4
01F10:  MOVFF  03,66D
01F14:  MOVFF  02,66C
01F18:  MOVFF  01,66B
01F1C:  MOVFF  00,66A
....................  
....................       res = pl[0]*y2 + pl[1]; 
01F20:  MOVLW  BC
01F22:  MOVLB  6
01F24:  MOVWF  x7D
01F26:  MOVLW  24
01F28:  MOVWF  x7C
01F2A:  MOVLW  67
01F2C:  MOVWF  x7B
01F2E:  MOVLW  7D
01F30:  MOVWF  x7A
01F32:  MOVFF  66D,681
01F36:  MOVFF  66C,680
01F3A:  MOVFF  66B,67F
01F3E:  MOVFF  66A,67E
01F42:  MOVLB  0
01F44:  RCALL  17E4
01F46:  MOVFF  00,66F
01F4A:  MOVFF  01,670
01F4E:  MOVFF  02,671
01F52:  MOVFF  03,672
01F56:  BCF    FD8.1
01F58:  MOVFF  03,681
01F5C:  MOVFF  02,680
01F60:  MOVFF  01,67F
01F64:  MOVFF  00,67E
01F68:  MOVLW  E3
01F6A:  MOVLB  6
01F6C:  MOVWF  x85
01F6E:  MOVLW  E4
01F70:  MOVWF  x84
01F72:  MOVLW  90
01F74:  MOVWF  x83
01F76:  MOVLW  82
01F78:  MOVWF  x82
01F7A:  MOVLB  0
01F7C:  CALL   1348
01F80:  MOVFF  03,665
01F84:  MOVFF  02,664
01F88:  MOVFF  01,663
01F8C:  MOVFF  00,662
....................       res = res*y2 + pl[2]; 
01F90:  MOVFF  665,67D
01F94:  MOVFF  664,67C
01F98:  MOVFF  663,67B
01F9C:  MOVFF  662,67A
01FA0:  MOVFF  66D,681
01FA4:  MOVFF  66C,680
01FA8:  MOVFF  66B,67F
01FAC:  MOVFF  66A,67E
01FB0:  RCALL  17E4
01FB2:  MOVFF  00,66F
01FB6:  MOVFF  01,670
01FBA:  MOVFF  02,671
01FBE:  MOVFF  03,672
01FC2:  BCF    FD8.1
01FC4:  MOVFF  03,681
01FC8:  MOVFF  02,680
01FCC:  MOVFF  01,67F
01FD0:  MOVFF  00,67E
01FD4:  MOVLW  1C
01FD6:  MOVLB  6
01FD8:  MOVWF  x85
01FDA:  MOVLW  87
01FDC:  MOVWF  x84
01FDE:  MOVLW  57
01FE0:  MOVWF  x83
01FE2:  MOVLW  83
01FE4:  MOVWF  x82
01FE6:  MOVLB  0
01FE8:  CALL   1348
01FEC:  MOVFF  03,665
01FF0:  MOVFF  02,664
01FF4:  MOVFF  01,663
01FF8:  MOVFF  00,662
....................       res = res*y2 + pl[3]; 
01FFC:  MOVFF  665,67D
02000:  MOVFF  664,67C
02004:  MOVFF  663,67B
02008:  MOVFF  662,67A
0200C:  MOVFF  66D,681
02010:  MOVFF  66C,680
02014:  MOVFF  66B,67F
02018:  MOVFF  66A,67E
0201C:  CALL   17E4
02020:  MOVFF  00,66F
02024:  MOVFF  01,670
02028:  MOVFF  02,671
0202C:  MOVFF  03,672
02030:  BCF    FD8.1
02032:  MOVFF  03,681
02036:  MOVFF  02,680
0203A:  MOVFF  01,67F
0203E:  MOVFF  00,67E
02042:  MOVLW  AB
02044:  MOVLB  6
02046:  MOVWF  x85
02048:  MOVLW  E1
0204A:  MOVWF  x84
0204C:  MOVLW  9E
0204E:  MOVWF  x83
02050:  MOVLW  83
02052:  MOVWF  x82
02054:  MOVLB  0
02056:  CALL   1348
0205A:  MOVFF  03,665
0205E:  MOVFF  02,664
02062:  MOVFF  01,663
02066:  MOVFF  00,662
....................  
....................       r = ql[0]*y2 + ql[1]; 
0206A:  MOVLB  6
0206C:  CLRF   x7D
0206E:  CLRF   x7C
02070:  CLRF   x7B
02072:  MOVLW  7F
02074:  MOVWF  x7A
02076:  MOVFF  66D,681
0207A:  MOVFF  66C,680
0207E:  MOVFF  66B,67F
02082:  MOVFF  66A,67E
02086:  MOVLB  0
02088:  CALL   17E4
0208C:  MOVFF  00,66F
02090:  MOVFF  01,670
02094:  MOVFF  02,671
02098:  MOVFF  03,672
0209C:  BCF    FD8.1
0209E:  MOVFF  03,681
020A2:  MOVFF  02,680
020A6:  MOVFF  01,67F
020AA:  MOVFF  00,67E
020AE:  MOVLW  B4
020B0:  MOVLB  6
020B2:  MOVWF  x85
020B4:  MOVLW  2A
020B6:  MOVWF  x84
020B8:  MOVLW  82
020BA:  MOVWF  x83
020BC:  MOVWF  x82
020BE:  MOVLB  0
020C0:  CALL   1348
020C4:  MOVFF  03,669
020C8:  MOVFF  02,668
020CC:  MOVFF  01,667
020D0:  MOVFF  00,666
....................       r = r*y2 + ql[2]; 
020D4:  MOVFF  669,67D
020D8:  MOVFF  668,67C
020DC:  MOVFF  667,67B
020E0:  MOVFF  666,67A
020E4:  MOVFF  66D,681
020E8:  MOVFF  66C,680
020EC:  MOVFF  66B,67F
020F0:  MOVFF  66A,67E
020F4:  CALL   17E4
020F8:  MOVFF  00,66F
020FC:  MOVFF  01,670
02100:  MOVFF  02,671
02104:  MOVFF  03,672
02108:  BCF    FD8.1
0210A:  MOVFF  03,681
0210E:  MOVFF  02,680
02112:  MOVFF  01,67F
02116:  MOVFF  00,67E
0211A:  MOVLW  80
0211C:  MOVLB  6
0211E:  MOVWF  x85
02120:  MOVLW  3E
02122:  MOVWF  x84
02124:  MOVLW  06
02126:  MOVWF  x83
02128:  MOVLW  83
0212A:  MOVWF  x82
0212C:  MOVLB  0
0212E:  CALL   1348
02132:  MOVFF  03,669
02136:  MOVFF  02,668
0213A:  MOVFF  01,667
0213E:  MOVFF  00,666
....................       r = r*y2 + ql[3]; 
02142:  MOVFF  669,67D
02146:  MOVFF  668,67C
0214A:  MOVFF  667,67B
0214E:  MOVFF  666,67A
02152:  MOVFF  66D,681
02156:  MOVFF  66C,680
0215A:  MOVFF  66B,67F
0215E:  MOVFF  66A,67E
02162:  CALL   17E4
02166:  MOVFF  00,66F
0216A:  MOVFF  01,670
0216E:  MOVFF  02,671
02172:  MOVFF  03,672
02176:  BCF    FD8.1
02178:  MOVFF  03,681
0217C:  MOVFF  02,680
02180:  MOVFF  01,67F
02184:  MOVFF  00,67E
02188:  MOVLW  AB
0218A:  MOVLB  6
0218C:  MOVWF  x85
0218E:  MOVLW  E1
02190:  MOVWF  x84
02192:  MOVLW  9E
02194:  MOVWF  x83
02196:  MOVLW  82
02198:  MOVWF  x82
0219A:  MOVLB  0
0219C:  CALL   1348
021A0:  MOVFF  03,669
021A4:  MOVFF  02,668
021A8:  MOVFF  01,667
021AC:  MOVFF  00,666
....................  
....................       res = y*res/r; 
021B0:  MOVFF  661,67D
021B4:  MOVFF  660,67C
021B8:  MOVFF  65F,67B
021BC:  MOVFF  65E,67A
021C0:  MOVFF  665,681
021C4:  MOVFF  664,680
021C8:  MOVFF  663,67F
021CC:  MOVFF  662,67E
021D0:  CALL   17E4
021D4:  MOVFF  00,66F
021D8:  MOVFF  01,670
021DC:  MOVFF  02,671
021E0:  MOVFF  03,672
021E4:  MOVFF  03,67D
021E8:  MOVFF  02,67C
021EC:  MOVFF  01,67B
021F0:  MOVFF  00,67A
021F4:  MOVFF  669,681
021F8:  MOVFF  668,680
021FC:  MOVFF  667,67F
02200:  MOVFF  666,67E
02204:  CALL   11EA
02208:  MOVFF  03,665
0220C:  MOVFF  02,664
02210:  MOVFF  01,663
02214:  MOVFF  00,662
.................... #if !defined(__PCD__) 
....................       n = *((unsigned int8 *)(&x)) - 0x7E; 
02218:  MOVLW  06
0221A:  MOVLB  6
0221C:  MOVWF  x70
0221E:  MOVLW  5A
02220:  MOVWF  FE9
02222:  MOVFF  670,FEA
02226:  MOVLW  7E
02228:  SUBWF  FEF,W
0222A:  MOVWF  x6E
.................... #endif 
.................... #if defined(__PCD__)  
....................     data1 = *(((unsigned int8 *)(&x)+3)); 
....................     rotate_left(&data1,1); 
....................     data2 = *(((unsigned int8 *)(&x)+2)); 
....................     if(bit_test (data2,7)) 
....................       bit_set(data1,0); 
....................     n = data1 - 0x7E; 
.................... #endif 
....................  
....................       if (n<0)  
0222C:  BTFSC  x6E.7
0222E:  BRA    2232
02230:  BRA    225A
....................          r = -(float32)-n; 
02232:  MOVLW  00
02234:  BSF    FD8.0
02236:  SUBFWB x6E,W
02238:  CLRF   x71
0223A:  MOVWF  x70
0223C:  BTFSC  x70.7
0223E:  DECF   x71,F
02240:  MOVLB  0
02242:  RCALL  1DCC
02244:  MOVFF  00,666
02248:  MOVF   01,W
0224A:  XORLW  80
0224C:  MOVLB  6
0224E:  MOVWF  x67
02250:  MOVFF  02,668
02254:  MOVFF  03,669
....................       else 
02258:  BRA    227A
....................          r = (float32)n; 
0225A:  CLRF   x71
0225C:  MOVFF  66E,670
02260:  BTFSC  x70.7
02262:  DECF   x71,F
02264:  MOVLB  0
02266:  RCALL  1DCC
02268:  MOVFF  03,669
0226C:  MOVFF  02,668
02270:  MOVFF  01,667
02274:  MOVFF  00,666
02278:  MOVLB  6
....................  
....................       res += r*LN2; 
0227A:  MOVFF  669,67D
0227E:  MOVFF  668,67C
02282:  MOVFF  667,67B
02286:  MOVFF  666,67A
0228A:  MOVLW  18
0228C:  MOVWF  x81
0228E:  MOVLW  72
02290:  MOVWF  x80
02292:  MOVLW  31
02294:  MOVWF  x7F
02296:  MOVLW  7E
02298:  MOVWF  x7E
0229A:  MOVLB  0
0229C:  CALL   17E4
022A0:  BCF    FD8.1
022A2:  MOVFF  665,681
022A6:  MOVFF  664,680
022AA:  MOVFF  663,67F
022AE:  MOVFF  662,67E
022B2:  MOVFF  03,685
022B6:  MOVFF  02,684
022BA:  MOVFF  01,683
022BE:  MOVFF  00,682
022C2:  CALL   1348
022C6:  MOVFF  03,665
022CA:  MOVFF  02,664
022CE:  MOVFF  01,663
022D2:  MOVFF  00,662
....................    } 
....................  
....................    else 
022D6:  BRA    22E4
....................       res = 0.0; 
022D8:  MOVLB  6
022DA:  CLRF   x65
022DC:  CLRF   x64
022DE:  CLRF   x63
022E0:  CLRF   x62
022E2:  MOVLB  0
....................  
....................    return(res); 
022E4:  MOVFF  662,00
022E8:  MOVFF  663,01
022EC:  MOVFF  664,02
022F0:  MOVFF  665,03
.................... } 
022F4:  RETLW  00
....................  
.................... //Overloaded function for log() for PCD 
.................... // Overloaded function log() for data type - Float48 
.................... #if defined(__PCD__) 
.................... float48 log(float48 x) 
.................... { 
....................    float48 y, res, r, y2; 
....................    unsigned int8  data1,data2; 
....................    signed int8 n; 
....................    #ifdef _ERRNO 
....................    if(x <0) 
....................    { 
....................       errno=EDOM; 
....................    } 
....................    if(x ==0) 
....................    { 
....................       errno=ERANGE; 
....................       return(0); 
....................    } 
....................    #endif 
....................    y = x; 
....................  
....................    if (y != 1.0) 
....................    { 
....................     
....................    #if !defined(__PCD__) 
....................        *((unsigned int8 *)(&y)) = 0x7E;  
....................    #endif 
....................       data2 = *(((unsigned int8 *)(&y))+5); 
....................       *(((unsigned int8 *)(&y))+5) = 0x3F; 
....................       data1 = *(((unsigned int8 *)(&y))+4); 
....................       bit_clear(data1,7); 
....................       *(((unsigned int8 *)(&y))+4) = data1; 
....................    
....................       if(bit_test(data2,7)) 
....................          bit_set(*(((unsigned int8 *)(&y))+4),7); 
....................       y = (y - 1.0)/(y + 1.0); 
....................  
....................       y2=y*y; 
....................  
....................       res = pl[0]*y2 + pl[1]; 
....................       res = res*y2 + pl[2]; 
....................       res = res*y2 + pl[3]; 
....................  
....................       r = ql[0]*y2 + ql[1]; 
....................       r = r*y2 + ql[2]; 
....................       r = r*y2 + ql[3]; 
....................  
....................       res = y*res/r; 
....................  
....................     data1 = *(((unsigned int8 *)(&x)+5)); 
....................     rotate_left(&data1,1); 
....................     data2 = *(((unsigned int8 *)(&x)+4)); 
....................     if(bit_test (data2,7)) 
....................        bit_set(data1,0); 
....................       
....................     n = data1 - 0x7E; 
....................  
....................       if (n<0) 
....................          r = -(float48)-n; 
....................       else 
....................          r = (float48)n; 
....................  
....................       res += r*LN2; 
....................    } 
....................  
....................    else 
....................       res = 0.0; 
....................  
....................    return(res); 
.................... } 
....................  
.................... // Overloaded function log() for data type - Float48 
.................... #if defined(__PCD__) 
.................... float32 const pl_64[4] = {0.45145214, -9.0558803, 26.940971, -19.860189}; 
.................... float32 const ql_64[4] = {1.0000000,  -8.1354259, 16.780517, -9.9300943}; 
.................... #endif 
.................... float64 log(float64 x) 
.................... { 
....................    float64 y, res, r, y2; 
....................    unsigned int16  data1,data2; 
....................    unsigned int16 *p; 
....................    signed int16 n; 
....................    #ifdef _ERRNO 
....................    if(x <0) 
....................    { 
....................       errno=EDOM; 
....................    } 
....................    if(x ==0) 
....................    { 
....................       errno=ERANGE; 
....................       return(0); 
....................    } 
....................    #endif 
....................    y = x; 
....................  
....................    if (y != 1.0) 
....................    { 
....................    #if !defined(__PCD__) 
....................        *((unsigned int8 *)(&y)) = 0x7E;  
....................    #endif 
....................       p= (((unsigned int16 *)(&y))+3); 
....................       data1 = *p; 
....................       data2 = *p; 
....................       data1 = 0x3FE; 
....................       data1 = data1 <<4; 
....................       if(bit_test (data2,15)) 
....................       bit_set(data1,15); 
....................       data2 = data2 & 0x000F; 
....................       data1 ^=data2; 
....................  
....................       *p = data1; 
....................  
....................       y = (y - 1.0)/(y + 1.0); 
....................  
....................       y2=y*y; 
....................  
....................       res = pl_64[0]*y2 + pl_64[1]; 
....................       res = res*y2 + pl_64[2]; 
....................       res = res*y2 + pl_64[3]; 
....................  
....................       r = ql_64[0]*y2 + ql_64[1]; 
....................       r = r*y2 + ql_64[2]; 
....................       r = r*y2 + ql_64[3]; 
....................  
....................       res = y*res/r; 
....................   
....................       p= (((unsigned int16 *)(&x))+3); 
....................       data1 = *p; 
....................       bit_clear(data1,15); 
....................       data1 = data1 >>4;     
....................       n = data1 - 0x3FE; 
....................  
....................  
....................       if (n<0) 
....................          r = -(float64)-n; 
....................       else 
....................          r = (float64)n; 
....................  
....................       res += r*LN2; 
....................    } 
....................  
....................    else 
....................       res = 0.0; 
....................  
....................    return(res); 
.................... } 
.................... #endif 
....................  
....................  
.................... #define LN10 2.3025850929940456 
....................  
.................... //////////////////////////////////////////////////////////////////////////// 
.................... //   float log10(float x) 
.................... //////////////////////////////////////////////////////////////////////////// 
.................... // Description : returns the the log base 10 of x 
.................... // Date : N/A 
.................... // 
.................... float32 log10(float32 x) 
.................... { 
....................    float32 r; 
....................  
....................    r = log(x); 
....................    r = r/LN10; 
....................    return(r); 
.................... } 
....................  
.................... //Overloaded functions for log10() for PCD 
.................... // Overloaded function log10() for data type - Float48 
.................... #if defined(__PCD__) 
.................... float48 log10(float48 x) 
.................... { 
....................    float48 r; 
....................  
....................    r = log(x); 
....................    r = r/LN10; 
....................    return(r); 
.................... } 
....................  
.................... // Overloaded function log10() for data type - Float64 
.................... float64 log10(float64 x) 
.................... { 
....................    float64 r; 
....................  
....................    r = log(x); 
....................    r = r/LN10; 
....................    return(r); 
.................... } 
.................... #endif 
.................... //////////////////////////////////////////////////////////////////////////// 
.................... //   float modf(float x) 
.................... //////////////////////////////////////////////////////////////////////////// 
.................... // Description :breaks the argument value int integral and fractional parts, 
.................... // ach of which have the same sign as the argument.  It stores the integral part 
.................... // as a float in the object pointed to by the iptr 
.................... // Returns : returns the signed fractional part of value. 
.................... // Date : N/A 
.................... // 
....................  
.................... float32 modf(float32 value,float32 *iptr) 
.................... { 
....................    *iptr=(value < 0.0)? ceil(value): floor(value); 
....................    return(value - *iptr); 
.................... } 
.................... //Overloaded functions for modf() for PCD 
.................... // Overloaded function modf() for data type - Float48 
.................... #if defined(__PCD__) 
.................... float48 modf(float48 value,float48 *iptr) 
.................... { 
....................    *iptr=(value < 0.0)? ceil(value): floor(value); 
....................    return(value - *iptr); 
.................... } 
.................... // Overloaded function modf() for data type - Float64 
.................... float64 modf(float64 value,float64 *iptr) 
.................... { 
....................    *iptr=(value < 0.0)? ceil(value): floor(value); 
....................    return(value - *iptr); 
.................... } 
.................... #endif 
....................  
.................... //////////////////////////////////////////////////////////////////////////// 
.................... //   float pwr(float x,float y) 
.................... //////////////////////////////////////////////////////////////////////////// 
.................... // Description : returns the value (x^y) 
.................... // Date : N/A 
.................... // Note : 0 is returned when the function will generate an imaginary number 
.................... // 
.................... float32 pwr(float32 x,float32 y) 
.................... { 
....................    if(0 > x && fmod(y, 1) == 0) { 
....................       if(fmod(y, 2) == 0) { 
....................          return (exp(log(-x) * y)); 
....................       } else { 
....................          return (-exp(log(-x) * y)); 
....................       } 
....................    } else if(0 > x && fmod(y, 1) != 0) { 
....................       return 0; 
....................    } else { 
....................       if(x != 0 || 0 >= y) { 
....................          return (exp(log(x) * y)); 
....................       } 
....................    } 
.................... } 
.................... //Overloaded functions for pwr() for PCD 
.................... // Overloaded function pwr() for data type - Float48 
.................... #if defined(__PCD__) 
.................... float48 pwr(float48 x,float48 y) 
.................... { 
....................    if(0 > x && fmod(y, 1) == 0) { 
....................       if(fmod(y, 2) == 0) { 
....................          return (exp(log(-x) * y)); 
....................       } else { 
....................          return (-exp(log(-x) * y)); 
....................       } 
....................    } else if(0 > x && fmod(y, 1) != 0) { 
....................       return 0; 
....................    } else { 
....................       if(x != 0 || 0 >= y) { 
....................          return (exp(log(x) * y)); 
....................       } 
....................    } 
.................... } 
.................... // Overloaded function pwr() for data type - Float64 
.................... float64 pwr(float64 x,float64 y) 
.................... { 
....................    if(0 > x && fmod(y, 1) == 0) { 
....................       if(fmod(y, 2) == 0) { 
....................          return (exp(log(-x) * y)); 
....................       } else { 
....................          return (-exp(log(-x) * y)); 
....................       } 
....................    } else if(0 > x && fmod(y, 1) != 0) { 
....................       return 0; 
....................    } else { 
....................       if(x != 0 || 0 >= y) { 
....................          return (exp(log(x) * y)); 
....................       } 
....................    } 
.................... } 
.................... #endif 
....................  
.................... //////////////////// Power functions //////////////////// 
....................  
.................... //////////////////////////////////////////////////////////////////////////// 
.................... //   float pow(float x,float y) 
.................... //////////////////////////////////////////////////////////////////////////// 
.................... // Description : returns the value (x^y) 
.................... // Date : N/A 
.................... // Note : 0 is returned when the function will generate an imaginary number 
.................... // 
.................... float32 pow(float32 x,float32 y) 
.................... { 
....................    if(0 > x && fmod(y, 1) == 0) { 
*
02700:  MOVFF  651,67D
02704:  MOVFF  650,67C
02708:  MOVFF  64F,67B
0270C:  MOVFF  64E,67A
02710:  MOVLB  6
02712:  CLRF   x81
02714:  CLRF   x80
02716:  CLRF   x7F
02718:  CLRF   x7E
0271A:  MOVLB  0
0271C:  CALL   15C0
02720:  BTFSS  FD8.0
02722:  BRA    28D6
02724:  MOVFF  655,659
02728:  MOVFF  654,658
0272C:  MOVFF  653,657
02730:  MOVFF  652,656
02734:  MOVLB  6
02736:  CLRF   x5D
02738:  CLRF   x5C
0273A:  CLRF   x5B
0273C:  MOVLW  7F
0273E:  MOVWF  x5A
02740:  MOVLB  0
02742:  CALL   1C6A
02746:  MOVFF  00,656
0274A:  MOVFF  01,657
0274E:  MOVFF  02,658
02752:  MOVFF  03,659
02756:  MOVFF  03,67D
0275A:  MOVFF  02,67C
0275E:  MOVFF  01,67B
02762:  MOVFF  00,67A
02766:  MOVLB  6
02768:  CLRF   x81
0276A:  CLRF   x80
0276C:  CLRF   x7F
0276E:  CLRF   x7E
02770:  MOVLB  0
02772:  CALL   15C0
02776:  BTFSS  FD8.2
02778:  BRA    28D6
....................       if(fmod(y, 2) == 0) { 
0277A:  MOVFF  655,659
0277E:  MOVFF  654,658
02782:  MOVFF  653,657
02786:  MOVFF  652,656
0278A:  MOVLB  6
0278C:  CLRF   x5D
0278E:  CLRF   x5C
02790:  CLRF   x5B
02792:  MOVLW  80
02794:  MOVWF  x5A
02796:  MOVLB  0
02798:  CALL   1C6A
0279C:  MOVFF  00,656
027A0:  MOVFF  01,657
027A4:  MOVFF  02,658
027A8:  MOVFF  03,659
027AC:  MOVFF  03,67D
027B0:  MOVFF  02,67C
027B4:  MOVFF  01,67B
027B8:  MOVFF  00,67A
027BC:  MOVLB  6
027BE:  CLRF   x81
027C0:  CLRF   x80
027C2:  CLRF   x7F
027C4:  CLRF   x7E
027C6:  MOVLB  0
027C8:  CALL   15C0
027CC:  BNZ   2850
....................          return (exp(log(-x) * y)); 
027CE:  MOVFF  64E,656
027D2:  MOVLB  6
027D4:  MOVF   x4F,W
027D6:  XORLW  80
027D8:  MOVWF  x57
027DA:  MOVFF  650,658
027DE:  MOVFF  651,659
027E2:  MOVFF  651,65D
027E6:  MOVFF  650,65C
027EA:  MOVWF  x5B
027EC:  MOVFF  64E,65A
027F0:  MOVLB  0
027F2:  CALL   1E1C
027F6:  MOVFF  00,656
027FA:  MOVFF  01,657
027FE:  MOVFF  02,658
02802:  MOVFF  03,659
02806:  MOVFF  03,67D
0280A:  MOVFF  02,67C
0280E:  MOVFF  01,67B
02812:  MOVFF  00,67A
02816:  MOVFF  655,681
0281A:  MOVFF  654,680
0281E:  MOVFF  653,67F
02822:  MOVFF  652,67E
02826:  CALL   17E4
0282A:  MOVFF  00,656
0282E:  MOVFF  01,657
02832:  MOVFF  02,658
02836:  MOVFF  03,659
0283A:  MOVFF  03,65D
0283E:  MOVFF  02,65C
02842:  MOVFF  01,65B
02846:  MOVFF  00,65A
0284A:  RCALL  22F6
0284C:  BRA    2A0A
....................       } else { 
0284E:  BRA    28D4
....................          return (-exp(log(-x) * y)); 
02850:  MOVFF  64E,656
02854:  MOVLB  6
02856:  MOVF   x4F,W
02858:  XORLW  80
0285A:  MOVWF  x57
0285C:  MOVFF  650,658
02860:  MOVFF  651,659
02864:  MOVFF  651,65D
02868:  MOVFF  650,65C
0286C:  MOVWF  x5B
0286E:  MOVFF  64E,65A
02872:  MOVLB  0
02874:  CALL   1E1C
02878:  MOVFF  00,656
0287C:  MOVFF  01,657
02880:  MOVFF  02,658
02884:  MOVFF  03,659
02888:  MOVFF  03,67D
0288C:  MOVFF  02,67C
02890:  MOVFF  01,67B
02894:  MOVFF  00,67A
02898:  MOVFF  655,681
0289C:  MOVFF  654,680
028A0:  MOVFF  653,67F
028A4:  MOVFF  652,67E
028A8:  CALL   17E4
028AC:  MOVFF  00,656
028B0:  MOVFF  01,657
028B4:  MOVFF  02,658
028B8:  MOVFF  03,659
028BC:  MOVFF  03,65D
028C0:  MOVFF  02,65C
028C4:  MOVFF  01,65B
028C8:  MOVFF  00,65A
028CC:  RCALL  22F6
028CE:  MOVLW  80
028D0:  XORWF  01,F
028D2:  BRA    2A0A
....................       } 
....................    } else if(0 > x && fmod(y, 1) != 0) { 
028D4:  BRA    2A0A
028D6:  MOVFF  651,67D
028DA:  MOVFF  650,67C
028DE:  MOVFF  64F,67B
028E2:  MOVFF  64E,67A
028E6:  MOVLB  6
028E8:  CLRF   x81
028EA:  CLRF   x80
028EC:  CLRF   x7F
028EE:  CLRF   x7E
028F0:  MOVLB  0
028F2:  CALL   15C0
028F6:  BNC   2958
028F8:  MOVFF  655,659
028FC:  MOVFF  654,658
02900:  MOVFF  653,657
02904:  MOVFF  652,656
02908:  MOVLB  6
0290A:  CLRF   x5D
0290C:  CLRF   x5C
0290E:  CLRF   x5B
02910:  MOVLW  7F
02912:  MOVWF  x5A
02914:  MOVLB  0
02916:  CALL   1C6A
0291A:  MOVFF  00,656
0291E:  MOVFF  01,657
02922:  MOVFF  02,658
02926:  MOVFF  03,659
0292A:  MOVFF  03,67D
0292E:  MOVFF  02,67C
02932:  MOVFF  01,67B
02936:  MOVFF  00,67A
0293A:  MOVLB  6
0293C:  CLRF   x81
0293E:  CLRF   x80
02940:  CLRF   x7F
02942:  CLRF   x7E
02944:  MOVLB  0
02946:  CALL   15C0
0294A:  BZ    2958
....................       return 0; 
0294C:  CLRF   00
0294E:  CLRF   01
02950:  CLRF   02
02952:  CLRF   03
02954:  BRA    2A0A
....................    } else { 
02956:  BRA    2A0A
....................       if(x != 0 || 0 >= y) { 
02958:  MOVFF  651,67D
0295C:  MOVFF  650,67C
02960:  MOVFF  64F,67B
02964:  MOVFF  64E,67A
02968:  MOVLB  6
0296A:  CLRF   x81
0296C:  CLRF   x80
0296E:  CLRF   x7F
02970:  CLRF   x7E
02972:  MOVLB  0
02974:  CALL   15C0
02978:  BNZ   299E
0297A:  MOVFF  655,67D
0297E:  MOVFF  654,67C
02982:  MOVFF  653,67B
02986:  MOVFF  652,67A
0298A:  MOVLB  6
0298C:  CLRF   x81
0298E:  CLRF   x80
02990:  CLRF   x7F
02992:  CLRF   x7E
02994:  MOVLB  0
02996:  CALL   15C0
0299A:  BC    299E
0299C:  BNZ   2A0A
....................          return (exp(log(x) * y)); 
0299E:  MOVFF  651,65D
029A2:  MOVFF  650,65C
029A6:  MOVFF  64F,65B
029AA:  MOVFF  64E,65A
029AE:  CALL   1E1C
029B2:  MOVFF  00,656
029B6:  MOVFF  01,657
029BA:  MOVFF  02,658
029BE:  MOVFF  03,659
029C2:  MOVFF  03,67D
029C6:  MOVFF  02,67C
029CA:  MOVFF  01,67B
029CE:  MOVFF  00,67A
029D2:  MOVFF  655,681
029D6:  MOVFF  654,680
029DA:  MOVFF  653,67F
029DE:  MOVFF  652,67E
029E2:  CALL   17E4
029E6:  MOVFF  00,656
029EA:  MOVFF  01,657
029EE:  MOVFF  02,658
029F2:  MOVFF  03,659
029F6:  MOVFF  03,65D
029FA:  MOVFF  02,65C
029FE:  MOVFF  01,65B
02A02:  MOVFF  00,65A
02A06:  RCALL  22F6
02A08:  BRA    2A0A
....................       } 
....................    } 
.................... } 
02A0A:  RETLW  00
.................... //Overloaded functions for pow() for PCD 
.................... // Overloaded function for pow() data type - Float48 
.................... #if defined(__PCD__) 
.................... float48 pow(float48 x,float48 y) 
.................... { 
....................    if(0 > x && fmod(y, 1) == 0) { 
....................       if(fmod(y, 2) == 0) { 
....................          return (exp(log(-x) * y)); 
....................       } else { 
....................          return (-exp(log(-x) * y)); 
....................       } 
....................    } else if(0 > x && fmod(y, 1) != 0) { 
....................       return 0; 
....................    } else { 
....................       if(x != 0 || 0 >= y) { 
....................          return (exp(log(x) * y)); 
....................       } 
....................    } 
.................... } 
....................  
.................... // Overloaded function pow() for data type - Float64 
.................... float64 pow(float64 x,float64 y) 
.................... { 
....................    if(0 > x && fmod(y, 1) == 0) { 
....................       if(fmod(y, 2) == 0) { 
....................          return (exp(log(-x) * y)); 
....................       } else { 
....................          return (-exp(log(-x) * y)); 
....................       } 
....................    } else if(0 > x && fmod(y, 1) != 0) { 
....................       return 0; 
....................    } else { 
....................       if(x != 0 || 0 >= y) { 
....................          return (exp(log(x) * y)); 
....................       } 
....................    } 
.................... } 
.................... #endif 
....................  
.................... //////////////////////////////////////////////////////////////////////////// 
.................... //   float sqrt(float x) 
.................... //////////////////////////////////////////////////////////////////////////// 
.................... // Description : returns the square root of x 
.................... // Date : N/A 
.................... // 
.................... float32 sqrt(float32 x) 
.................... { 
....................    float32 y, res; 
....................    #if defined(__PCD__) 
....................    unsigned int16 data1,data2; 
....................    #endif 
....................    BYTE *p; 
....................  
....................    #ifdef _ERRNO 
....................    if(x < 0) 
....................    { 
....................       errno=EDOM; 
....................    } 
....................    #endif 
....................  
....................    if( x<=0.0) 
....................       return(0.0); 
....................  
....................    y=x; 
....................     
....................    #if !defined(__PCD__) 
....................     p=&y; 
....................    (*p)=(BYTE)((((unsigned int16)(*p)) + 127) >> 1); 
....................    #endif 
....................     
....................    #if defined(__PCD__) 
....................     p = (((unsigned int8 *)(&y))+3); 
....................     data1 = *(((unsigned int8 *)(&y))+3); 
....................     data2 = *(((unsigned int8 *)(&y))+2); 
....................     rotate_left(&data1,1);     
....................     if(bit_test(data2,7))     
....................     bit_set(data1,0);     
....................     data1 = ((data1+127) >>1); 
....................     bit_clear(data2,7); 
....................     if(bit_test(data1,0)) 
....................     bit_set(data2,7); 
....................     data1 = data1 >>1; 
....................     *(((unsigned int8 *)(&y))+3) = data1; 
....................     *(((unsigned int8 *)(&y))+2) = data2; 
....................      
....................   #endif 
....................  
....................    do { 
....................       res=y; 
....................       y+=(x/y); 
....................  
....................       #if !defined(__PCD__) 
....................      (*p)--; 
....................    #endif 
....................     
....................    #if defined(__PCD__) 
....................     data1 = *(((unsigned int8 *)(&y))+3); 
....................     data2 = *(((unsigned int8 *)(&y))+2); 
....................     rotate_left(&data1,1); 
....................     if(bit_test(data2,7)) 
....................     bit_set(data1,0);     
....................     data1--; 
....................     bit_clear(data2,7); 
....................     if(bit_test(data1,0)) 
....................     bit_set(data2,7); 
....................     data1 = data1 >>1; 
....................     *(((unsigned int8 *)(&y))+3) = data1; 
....................     *(((unsigned int8 *)(&y))+2) = data2; 
....................      
....................   #endif 
....................    } while(res != y); 
....................  
....................    return(res); 
.................... } 
.................... //Overloaded functions for sqrt() for PCD 
.................... // Overloaded function sqrt() for data type - Float48 
.................... #if defined(__PCD__) 
.................... float48 sqrt(float48 x) 
.................... { 
....................    float48 y, res; 
....................    unsigned int16 data1,data2; 
....................    BYTE *p; 
....................  
....................    #ifdef _ERRNO 
....................    if(x < 0) 
....................    { 
....................       errno=EDOM; 
....................    } 
....................    #endif 
....................  
....................    if( x<=0.0) 
....................       return(0.0); 
....................  
....................    y=x; 
....................     
....................    #if !defined(__PCD__) 
....................     p=&y; 
....................    (*p)=(BYTE)((((unsigned int16)(*p)) + 127) >> 1); 
....................    #endif 
....................     
....................    #if defined(__PCD__) 
....................     p = (((unsigned int8 *)(&y))+5); 
....................     data1 = *(((unsigned int8 *)(&y))+5); 
....................     data2 = *(((unsigned int8 *)(&y))+4); 
....................     rotate_left(&data1,1); 
....................     if(bit_test(data2,7)) 
....................     bit_set(data1,0);     
....................     data1 = ((data1+127) >>1); 
....................     bit_clear(data2,7); 
....................     if(bit_test(data1,0)) 
....................     bit_set(data2,7); 
....................     data1 = data1 >>1; 
....................     *(((unsigned int8 *)(&y))+5) = data1; 
....................     *(((unsigned int8 *)(&y))+4) = data2; 
....................      
....................   #endif 
....................  
....................    do { 
....................       res=y; 
....................       y+=(x/y); 
....................  
....................       #if !defined(__PCD__) 
....................      (*p)--; 
....................    #endif 
....................     
....................     data1 = *(((unsigned int8 *)(&y))+5); 
....................     data2 = *(((unsigned int8 *)(&y))+4); 
....................     rotate_left(&data1,1); 
....................     if(bit_test(data2,7)) 
....................     bit_set(data1,0);     
....................     data1--; 
....................     bit_clear(data2,7); 
....................     if(bit_test(data1,0)) 
....................     bit_set(data2,7); 
....................     data1 = data1 >>1; 
....................     *(((unsigned int8 *)(&y))+5) = data1; 
....................     *(((unsigned int8 *)(&y))+4) = data2; 
....................      
....................    } while(res != y); 
....................  
....................    return(res); 
.................... } 
....................  
.................... // Overloaded function sqrt() for data type - Float64 
.................... float64 sqrt(float64 x) 
.................... { 
....................    float64 y, res; 
....................    unsigned int16 *p; 
....................    unsigned int16 temp1,temp2; 
....................  
....................    #ifdef _ERRNO 
....................    if(x < 0) 
....................    { 
....................       errno=EDOM; 
....................    } 
....................    #endif 
....................  
....................    if( x<=0.0) 
....................       return(0.0); 
....................  
....................    y=x; 
....................    p= (((unsigned int16 *)(&y))+3); 
....................    temp1 = *p; 
....................    temp2 = *p; 
....................    bit_clear(temp1,15); 
....................    temp1 = (temp1>>4)+1023; 
....................    temp1 = temp1 >> 1; 
....................    temp1 = (temp1<<4) & 0xFFF0; 
....................    if(bit_test(temp2,15)) 
....................    bit_set(temp1,15); 
....................    temp2 = temp2 & 0x000F; 
....................    temp1 ^= temp2; 
....................     
....................    (*p) = temp1; 
....................     
....................    do { 
....................       res=y; 
....................       y+=(x/y); 
....................      temp1 = *p; 
....................      temp2 = *p; 
....................      bit_clear(temp1,15); 
....................      temp1 = (temp1>>4); 
....................      temp1--; 
....................      temp1 = (temp1<<4) & 0xFFF0; 
....................      if(bit_test(temp2,15)) 
....................      bit_set(temp1,15); 
....................      temp2 = temp2 & 0x000F; 
....................      temp1 ^= temp2; 
....................      (*p) = temp1; 
....................  
....................    } while(res != y); 
....................  
....................    return(res); 
.................... } 
.................... #endif 
....................  
.................... ////////////////////////////// Trig Functions ////////////////////////////// 
.................... #ifdef PI_DIV_BY_TWO 
.................... #undef PI_DIV_BY_TWO 
.................... #endif 
.................... #define PI_DIV_BY_TWO   1.5707963267948966 
.................... #ifdef TWOBYPI 
.................... #undef TWOBYPI 
.................... #define TWOBYPI          0.6366197723675813 
.................... #endif 
.................... //////////////////////////////////////////////////////////////////////////// 
.................... //   float cos(float x) 
.................... //////////////////////////////////////////////////////////////////////////// 
.................... // Description : returns the cosine value of the angle x, which is in radian 
.................... // Date : 9/20/2001 
.................... // 
.................... float32 cos(float32 x) 
.................... { 
....................    float32 y, t, t2 = 1.0; 
....................    unsigned int8 quad, i; 
....................    float32 frac; 
....................    float32 p[6] = {                    //by the series definition for cosine 
....................       -0.5,                            // sum ( ( (-1)^n * x^2n )/(2n)! ) 
....................        0.04166666666667, 
....................       -0.00138888888889, 
....................        0.00002480158730, 
....................       -0.00000027557319, 
....................        0.00000000208767, 
....................       //-0.00000000001147, 
....................       // 0.00000000000005 
....................    }; 
....................  
....................    if (x < 0) x = -x;                  // absolute value of input 
....................  
....................    quad = (unsigned int8)(x / PI_DIV_BY_TWO);    // quadrant 
....................    frac = (x / PI_DIV_BY_TWO) - quad;  // fractional part of input 
....................    quad = quad % 4;                    // quadrant (0 to 3) 
....................  
....................    if (quad == 0 || quad == 2) 
....................       t = frac * PI_DIV_BY_TWO; 
....................    else if (quad == 1) 
....................       t = (1-frac) * PI_DIV_BY_TWO; 
....................    else // should be 3 
....................       t = (frac-1) * PI_DIV_BY_TWO; 
....................  
....................    y = 1.0; 
....................    t = t * t; 
....................    for (i = 0; i <= 5; i++) 
....................    { 
....................       t2 = t2 * t; 
....................       y = y + p[i] * t2; 
....................    } 
....................  
....................    if (quad == 2 || quad == 1) 
....................       y = -y;  // correct sign 
....................  
....................    return (y); 
.................... } 
....................  
....................  
.................... //Overloaded functions for cos() for PCD 
.................... // Overloaded function cos() for data type - Float48 
.................... #if defined(__PCD__) 
.................... float48 cos(float48 x) 
.................... { 
....................    float48 y, t, t2 = 1.0; 
....................    unsigned int8 quad, i; 
....................    float48 frac; 
....................    float48 p[6] = {                    //by the series definition for cosine 
....................       -0.5,                            // sum ( ( (-1)^n * x^2n )/(2n)! ) 
....................        0.04166666666667, 
....................       -0.00138888888889, 
....................        0.00002480158730, 
....................       -0.00000027557319, 
....................        0.00000000208767, 
....................       //-0.00000000001147, 
....................       // 0.00000000000005 
....................    }; 
....................  
....................    if (x < 0) x = -x;                  // absolute value of input 
....................  
....................    quad = (unsigned int8)(x / PI_DIV_BY_TWO);    // quadrant 
....................    frac = (x / PI_DIV_BY_TWO) - quad;  // fractional part of input 
....................    quad = quad % 4;                    // quadrant (0 to 3) 
....................  
....................    if (quad == 0 || quad == 2) 
....................       t = frac * PI_DIV_BY_TWO; 
....................    else if (quad == 1) 
....................       t = (1-frac) * PI_DIV_BY_TWO; 
....................    else // should be 3 
....................       t = (frac-1) * PI_DIV_BY_TWO; 
....................  
....................    y = 0.999999999781; 
....................    t = t * t; 
....................    for (i = 0; i <= 5; i++) 
....................    { 
....................       t2 = t2 * t; 
....................       y = y + p[i] * t2; 
....................    } 
....................  
....................    if (quad == 2 || quad == 1) 
....................       y = -y;  // correct sign 
....................  
....................    return (y); 
.................... } 
....................  
.................... // Overloaded function cos() for data type - Float48 
.................... float64 cos(float64 x) 
.................... { 
....................    float64 y, t, t2 = 1.0; 
....................    unsigned int8 quad, i; 
....................    float64 frac; 
....................    float64 p[6] = {                    //by the series definition for cosine 
....................       -0.5,                            // sum ( ( (-1)^n * x^2n )/(2n)! ) 
....................        0.04166666666667, 
....................       -0.00138888888889, 
....................        0.00002480158730, 
....................       -0.00000027557319, 
....................        0.00000000208767, 
....................       //-0.00000000001147, 
....................       // 0.00000000000005 
....................    }; 
....................  
....................    if (x < 0) x = -x;                  // absolute value of input 
....................  
....................    quad = (unsigned int8)(x / PI_DIV_BY_TWO);    // quadrant 
....................    frac = (x / PI_DIV_BY_TWO) - quad;  // fractional part of input 
....................    quad = quad % 4;                    // quadrant (0 to 3) 
....................  
....................    if (quad == 0 || quad == 2) 
....................       t = frac * PI_DIV_BY_TWO; 
....................    else if (quad == 1) 
....................       t = (1-frac) * PI_DIV_BY_TWO; 
....................    else // should be 3 
....................       t = (frac-1) * PI_DIV_BY_TWO; 
....................  
....................    y = 0.999999999781; 
....................    t = t * t; 
....................    for (i = 0; i <= 5; i++) 
....................    { 
....................       t2 = t2 * t; 
....................       y = y + p[i] * t2; 
....................    } 
....................  
....................    if (quad == 2 || quad == 1) 
....................       y = -y;  // correct sign 
....................  
....................    return (y); 
.................... } 
....................  
.................... #endif 
....................  
.................... //////////////////////////////////////////////////////////////////////////// 
.................... //   float sin(float x) 
.................... //////////////////////////////////////////////////////////////////////////// 
.................... // Description : returns the sine value of the angle x, which is in radian 
.................... // Date : 9/20/2001 
.................... // 
.................... float32 sin(float32 x) 
.................... { 
....................    return cos(x - PI_DIV_BY_TWO); 
.................... } 
....................  
.................... //Overloaded functions for sin() for PCD 
.................... // Overloaded function sin() for data type - Float48 
.................... #if defined(__PCD__) 
.................... float48 sin(float48 x) 
.................... { 
....................    return cos(x - PI_DIV_BY_TWO); 
.................... } 
....................  
.................... // Overloaded function sin() for data type - Float48 
.................... float64 sin(float64 x) 
.................... { 
....................    return cos(x - PI_DIV_BY_TWO); 
.................... } 
.................... #endif 
....................  
.................... //////////////////////////////////////////////////////////////////////////// 
.................... //   float tan(float x) 
.................... //////////////////////////////////////////////////////////////////////////// 
.................... // Description : returns the tangent value of the angle x, which is in radian 
.................... // Date : 9/20/2001 
.................... // 
.................... float32 tan(float32 x) 
.................... { 
....................    float32 c, s; 
....................  
....................    c = cos(x); 
....................    if (c == 0.0) 
....................       return (1.0e+36); 
....................  
....................    s = sin(x); 
....................    return(s/c); 
.................... } 
.................... //Overloaded functions for tan() for PCD 
.................... // Overloaded function tan() for data type - Float48 
.................... #if defined(__PCD__) 
.................... float48 tan(float48 x) 
.................... { 
....................    float48 c, s; 
....................  
....................    c = cos(x); 
....................    if (c == 0.0) 
....................       return (1.0e+36); 
....................  
....................    s = sin(x); 
....................    return(s/c); 
.................... } 
....................  
.................... // Overloaded function tan() for data type - Float48 
.................... float64 tan(float64 x) 
.................... { 
....................    float64 c, s; 
....................  
....................    c = cos(x); 
....................    if (c == 0.0) 
....................       return (1.0e+36); 
....................  
....................    s = sin(x); 
....................    return(s/c); 
.................... } 
.................... #endif 
....................  
.................... float32 const pas[3] = {0.49559947, -4.6145309, 5.6036290}; 
.................... float32 const qas[3] = {1.0000000,  -5.5484666, 5.6036290}; 
....................  
.................... float32 ASIN_COS(float32 x, unsigned int8 n) 
.................... { 
....................    float32 y, res, r, y2; 
....................    int1 s; 
....................    #ifdef _ERRNO 
....................    if(x <-1 || x > 1) 
....................    { 
....................       errno=EDOM; 
....................    } 
....................    #endif 
....................    s = 0; 
....................    y = x; 
....................  
....................    if (x < 0) 
....................    { 
....................       s = 1; 
....................       y = -y; 
....................    } 
....................  
....................    if (y > 0.5) 
....................    { 
....................       y = sqrt((1.0 - y)/2.0); 
....................       n += 2; 
....................    } 
....................  
....................    y2=y*y; 
....................  
....................    res = pas[0]*y2 + pas[1]; 
....................    res = res*y2 + pas[2]; 
....................  
....................    r = qas[0]*y2 + qas[1]; 
....................    r = r*y2 + qas[2]; 
....................  
....................    res = y*res/r; 
....................  
....................    if (n & 2)     // |x| > 0.5 
....................       res = PI_DIV_BY_TWO - 2.0*res; 
....................    if (s) 
....................       res = -res; 
....................    if (n & 1)           // take arccos 
....................       res = PI_DIV_BY_TWO - res; 
....................  
....................    return(res); 
.................... } 
....................  
.................... //Overloaded functions for ASIN_COS() for PCD 
.................... // Overloaded function ASIN_COS() for data type - Float48 
.................... #if defined(__PCD__) 
.................... float48 ASIN_COS(float48 x, unsigned int8 n) 
.................... { 
....................    float48 y, res, r, y2; 
....................    int1 s; 
....................    #ifdef _ERRNO 
....................    if(x <-1 || x > 1) 
....................    { 
....................       errno=EDOM; 
....................    } 
....................    #endif 
....................    s = 0; 
....................    y = x; 
....................  
....................    if (x < 0) 
....................    { 
....................       s = 1; 
....................       y = -y; 
....................    } 
....................  
....................    if (y > 0.5) 
....................    { 
....................       y = sqrt((1.0 - y)/2.0); 
....................       n += 2; 
....................    } 
....................  
....................    y2=y*y; 
....................  
....................    res = pas[0]*y2 + pas[1]; 
....................    res = res*y2 + pas[2]; 
....................  
....................    r = qas[0]*y2 + qas[1]; 
....................    r = r*y2 + qas[2]; 
....................  
....................    res = y*res/r; 
....................  
....................    if (n & 2)     // |x| > 0.5 
....................       res = PI_DIV_BY_TWO - 2.0*res; 
....................    if (s) 
....................       res = -res; 
....................    if (n & 1)           // take arccos 
....................       res = PI_DIV_BY_TWO - res; 
....................  
....................    return(res); 
.................... } 
....................  
.................... // Overloaded function ASIN_COS() for data type - Float64 
.................... float64 ASIN_COS(float64 x, unsigned int8 n) 
.................... { 
....................    float64 y, res, r, y2; 
....................    int1 s; 
....................    #ifdef _ERRNO 
....................    if(x <-1 || x > 1) 
....................    { 
....................       errno=EDOM; 
....................    } 
....................    #endif 
....................    s = 0; 
....................    y = x; 
....................  
....................    if (x < 0) 
....................    { 
....................       s = 1; 
....................       y = -y; 
....................    } 
....................  
....................    if (y > 0.5) 
....................    { 
....................       y = sqrt((1.0 - y)/2.0); 
....................       n += 2; 
....................    } 
....................  
....................    y2=y*y; 
....................  
....................    res = pas[0]*y2 + pas[1]; 
....................    res = res*y2 + pas[2]; 
....................  
....................    r = qas[0]*y2 + qas[1]; 
....................    r = r*y2 + qas[2]; 
....................  
....................    res = y*res/r; 
....................  
....................    if (n & 2)     // |x| > 0.5 
....................       res = PI_DIV_BY_TWO - 2.0*res; 
....................    if (s) 
....................       res = -res; 
....................    if (n & 1)           // take arccos 
....................       res = PI_DIV_BY_TWO - res; 
....................  
....................    return(res); 
.................... } 
.................... #endif 
....................  
.................... //////////////////////////////////////////////////////////////////////////// 
.................... //   float asin(float x) 
.................... //////////////////////////////////////////////////////////////////////////// 
.................... // Description : returns the arcsine value of the value x. 
.................... // Date : N/A 
.................... // 
.................... float32 asin(float32 x) 
.................... { 
....................    float32 r; 
....................  
....................    r = ASIN_COS(x, 0); 
....................    return(r); 
.................... } 
.................... //Overloaded functions for asin() for PCD 
.................... // Overloaded function asin() for data type - Float48 
.................... #if defined(__PCD__) 
.................... float48 asin(float48 x) 
.................... { 
....................    float48 r; 
....................  
....................    r = ASIN_COS(x, 0); 
....................    return(r); 
.................... } 
....................  
.................... // Overloaded function asin() for data type - Float64 
.................... float64 asin(float64 x) 
.................... { 
....................    float64 r; 
....................  
....................    r = ASIN_COS(x, 0); 
....................    return(r); 
.................... } 
.................... #endif 
....................  
.................... //////////////////////////////////////////////////////////////////////////// 
.................... //   float acos(float x) 
.................... //////////////////////////////////////////////////////////////////////////// 
.................... // Description : returns the arccosine value of the value x. 
.................... // Date : N/A 
.................... // 
.................... float32 acos(float32 x) 
.................... { 
....................    float32 r; 
....................  
....................    r = ASIN_COS(x, 1); 
....................    return(r); 
.................... } 
.................... //Overloaded functions for acos() for PCD 
.................... // Overloaded function acos() for data type - Float48 
.................... #if defined(__PCD__) 
.................... float48 acos(float48 x) 
.................... { 
....................    float48 r; 
....................  
....................    r = ASIN_COS(x, 1); 
....................    return(r); 
.................... } 
....................  
.................... // Overloaded function acos() for data type - Float64 
.................... float64 acos(float64 x) 
.................... { 
....................    float64 r; 
....................  
....................    r = ASIN_COS(x, 1); 
....................    return(r); 
.................... } 
.................... #endif 
....................  
.................... float32 const pat[4] = {0.17630401, 5.6710795, 22.376096, 19.818457}; 
.................... float32 const qat[4] = {1.0000000,  11.368190, 28.982246, 19.818457}; 
....................  
.................... //////////////////////////////////////////////////////////////////////////// 
.................... //   float atan(float x) 
.................... //////////////////////////////////////////////////////////////////////////// 
.................... // Description : returns the arctangent value of the value x. 
.................... // Date : N/A 
.................... // 
.................... float32 atan(float32 x) 
.................... { 
....................    float32 y, res, r; 
....................    int1 s, flag; 
....................  
....................    s = 0; 
....................    flag = 0; 
....................    y = x; 
....................  
....................    if (x < 0) 
....................    { 
....................       s = 1; 
....................       y = -y; 
....................    } 
....................  
....................    if (y > 1.0) 
....................    { 
....................       y = 1.0/y; 
....................       flag = 1; 
....................    } 
....................  
....................    res = pat[0]*y*y + pat[1]; 
....................    res = res*y*y + pat[2]; 
....................    res = res*y*y + pat[3]; 
....................  
....................    r = qat[0]*y*y + qat[1]; 
....................    r = r*y*y + qat[2]; 
....................    r = r*y*y + qat[3]; 
....................  
....................    res = y*res/r; 
....................  
....................  
....................    if (flag)                              // for |x| > 1 
....................       res = PI_DIV_BY_TWO - res; 
....................    if (s) 
....................       res = -res; 
....................  
....................    return(res); 
.................... } 
.................... //Overloaded functions for atan() for PCD 
.................... // Overloaded function atan() for data type - Float48 
.................... #if defined(__PCD__) 
.................... float48 atan(float48 x) 
.................... { 
....................    float48 y, res, r; 
....................    int1 s, flag; 
....................  
....................    s = 0; 
....................    flag = 0; 
....................    y = x; 
....................  
....................    if (x < 0) 
....................    { 
....................       s = 1; 
....................       y = -y; 
....................    } 
....................  
....................    if (y > 1.0) 
....................    { 
....................       y = 1.0/y; 
....................       flag = 1; 
....................    } 
....................  
....................    res = pat[0]*y*y + pat[1]; 
....................    res = res*y*y + pat[2]; 
....................    res = res*y*y + pat[3]; 
....................  
....................    r = qat[0]*y*y + qat[1]; 
....................    r = r*y*y + qat[2]; 
....................    r = r*y*y + qat[3]; 
....................  
....................    res = y*res/r; 
....................  
....................  
....................    if (flag)                              // for |x| > 1 
....................       res = PI_DIV_BY_TWO - res; 
....................    if (s) 
....................       res = -res; 
....................  
....................    return(res); 
.................... } 
....................  
.................... // Overloaded function atan() for data type - Float64 
.................... float64 atan(float64 x) 
.................... { 
....................    float64 y, res, r; 
....................    int1 s, flag; 
....................  
....................    s = 0; 
....................    flag = 0; 
....................    y = x; 
....................  
....................    if (x < 0) 
....................    { 
....................       s = 1; 
....................       y = -y; 
....................    } 
....................  
....................    if (y > 1.0) 
....................    { 
....................       y = 1.0/y; 
....................       flag = 1; 
....................    } 
....................  
....................    res = pat[0]*y*y + pat[1]; 
....................    res = res*y*y + pat[2]; 
....................    res = res*y*y + pat[3]; 
....................  
....................    r = qat[0]*y*y + qat[1]; 
....................    r = r*y*y + qat[2]; 
....................    r = r*y*y + qat[3]; 
....................  
....................    res = y*res/r; 
....................  
....................  
....................    if (flag)                              // for |x| > 1 
....................       res = PI_DIV_BY_TWO - res; 
....................    if (s) 
....................       res = -res; 
....................  
....................    return(res); 
.................... } 
.................... #endif 
....................  
.................... ///////////////////////////////////////////////////////////////////////////// 
.................... //   float atan2(float y, float x) 
.................... ///////////////////////////////////////////////////////////////////////////// 
.................... // Description :computes the principal value of arc tangent of y/x, using the 
.................... // signs of both the arguments to determine the quadrant of the return value 
.................... // Returns : returns the arc tangent of y/x. 
.................... // Date : N/A 
.................... // 
....................  
.................... float32 atan2(float32 y,float32 x) 
.................... { 
....................    float32 z; 
....................    int1 sign; 
....................    unsigned int8 quad; 
....................    sign=0; 
....................    quad=0; //quadrant 
....................    quad=((y<=0.0)?((x<=0.0)?3:4):((x<0.0)?2:1)); 
....................    if(y<0.0) 
....................    { 
....................       sign=1; 
....................       y=-y; 
....................    } 
....................    if(x<0.0) 
....................    { 
....................       x=-x; 
....................    } 
....................    if (x==0.0) 
....................    { 
....................       if(y==0.0) 
....................       { 
....................       #ifdef _ERRNO 
....................       { 
....................          errno=EDOM; 
....................       } 
....................       #endif 
....................       } 
....................       else 
....................       { 
....................          if(sign) 
....................          { 
....................          return (-(PI_DIV_BY_TWO)); 
....................          } 
....................          else 
....................          { 
....................          return (PI_DIV_BY_TWO); 
....................          } 
....................       } 
....................    } 
....................    else 
....................    { 
....................       z=y/x; 
....................       switch(quad) 
....................       { 
....................          case 1: 
....................          { 
....................             return atan(z); 
....................             break; 
....................          } 
....................          case 2: 
....................          { 
.................... //            return (atan(z)+PI_DIV_BY_TWO);  //2L3122 
....................             return (PI-atan(z)); 
....................             break; 
....................          } 
....................          case 3: 
....................          { 
....................             return (atan(z)-PI); 
....................             break; 
....................          } 
....................          case 4: 
....................          { 
....................             return (-atan(z)); 
....................             break; 
....................          } 
....................       } 
....................    } 
.................... } 
....................  
.................... //Overloaded functions for atan2() for PCD 
.................... // Overloaded function atan2() for data type - Float48 
.................... #if defined(__PCD__) 
.................... float48 atan2(float48 y,float48 x) 
.................... { 
....................    float48 z; 
....................    int1 sign; 
....................    unsigned int8 quad; 
....................    sign=0; 
....................    quad=0; //quadrant 
....................    quad=((y<=0.0)?((x<=0.0)?3:4):((x<0.0)?2:1)); 
....................    if(y<0.0) 
....................    { 
....................       sign=1; 
....................       y=-y; 
....................    } 
....................    if(x<0.0) 
....................    { 
....................       x=-x; 
....................    } 
....................    if (x==0.0) 
....................    { 
....................       if(y==0.0) 
....................       { 
....................       #ifdef _ERRNO 
....................       { 
....................          errno=EDOM; 
....................       } 
....................       #endif 
....................       } 
....................       else 
....................       { 
....................          if(sign) 
....................          { 
....................          return (-(PI_DIV_BY_TWO)); 
....................          } 
....................          else 
....................          { 
....................          return (PI_DIV_BY_TWO); 
....................          } 
....................       } 
....................    } 
....................    else 
....................    { 
....................       z=y/x; 
....................       switch(quad) 
....................       { 
....................          case 1: 
....................          { 
....................             return atan(z); 
....................             break; 
....................          } 
....................          case 2: 
....................          { 
.................... //            return (atan(z)+PI_DIV_BY_TWO);  //2L3122 
....................             return (PI-atan(z)); 
....................             break; 
....................          } 
....................          case 3: 
....................          { 
....................             return (atan(z)-PI); 
....................             break; 
....................          } 
....................          case 4: 
....................          { 
....................             return (-atan(z)); 
....................             break; 
....................          } 
....................       } 
....................    } 
.................... } 
....................  
.................... // Overloaded function atan2() for data type - Float64 
.................... float64 atan2(float64 y,float64 x) 
.................... { 
....................    float64 z; 
....................    int1 sign; 
....................    unsigned int8 quad; 
....................    sign=0; 
....................    quad=0; //quadrant 
....................    quad=((y<=0.0)?((x<=0.0)?3:4):((x<0.0)?2:1)); 
....................    if(y<0.0) 
....................    { 
....................       sign=1; 
....................       y=-y; 
....................    } 
....................    if(x<0.0) 
....................    { 
....................       x=-x; 
....................    } 
....................    if (x==0.0) 
....................    { 
....................       if(y==0.0) 
....................       { 
....................       #ifdef _ERRNO 
....................       { 
....................          errno=EDOM; 
....................       } 
....................       #endif 
....................       } 
....................       else 
....................       { 
....................          if(sign) 
....................          { 
....................          return (-(PI_DIV_BY_TWO)); 
....................          } 
....................          else 
....................          { 
....................          return (PI_DIV_BY_TWO); 
....................          } 
....................       } 
....................    } 
....................    else 
....................    { 
....................       z=y/x; 
....................       switch(quad) 
....................       { 
....................          case 1: 
....................          { 
....................             return atan(z); 
....................             break; 
....................          } 
....................          case 2: 
....................          { 
.................... //            return (atan(z)+PI_DIV_BY_TWO);  //2L3122 
....................             return (PI-atan(z)); 
....................             break; 
....................          } 
....................          case 3: 
....................          { 
....................             return (atan(z)-PI); 
....................             break; 
....................          } 
....................          case 4: 
....................          { 
....................             return (-atan(z)); 
....................             break; 
....................          } 
....................       } 
....................    } 
.................... } 
.................... #endif 
....................  
.................... //////////////////// Hyperbolic functions //////////////////// 
....................  
.................... //////////////////////////////////////////////////////////////////////////// 
.................... //   float cosh(float x) 
.................... //////////////////////////////////////////////////////////////////////////// 
.................... // Description : Computes the hyperbolic cosine value of x 
.................... // Returns : returns the hyperbolic cosine value of x 
.................... // Date : N/A 
.................... // 
....................  
.................... float32 cosh(float32 x) 
.................... { 
....................    return ((exp(x)+exp(-x))/2); 
.................... } 
.................... //Overloaded functions for cosh() for PCD 
.................... // Overloaded function cosh() for data type - Float48 
.................... #if defined(__PCD__) 
.................... float48 cosh(float48 x) 
.................... { 
....................    return ((exp(x)+exp(-x))/2); 
.................... } 
....................  
.................... // Overloaded function cosh() for data type - Float64 
.................... float64 cosh(float64 x) 
.................... { 
....................    return ((exp(x)+exp(-x))/2); 
.................... } 
.................... #endif 
....................  
.................... //////////////////////////////////////////////////////////////////////////// 
.................... //   float sinh(float x) 
.................... //////////////////////////////////////////////////////////////////////////// 
.................... // Description : Computes the hyperbolic sine value of x 
.................... // Returns : returns the hyperbolic sine value of x 
.................... // Date : N/A 
.................... // 
....................  
.................... float32 sinh(float32 x) 
.................... { 
....................  
....................    return ((exp(x) - exp(-x))/2); 
.................... } 
.................... //Overloaded functions for sinh() for PCD 
.................... // Overloaded function sinh() for data type - Float48 
.................... #if defined(__PCD__) 
.................... float48 sinh(float48 x) 
.................... { 
....................  
....................    return ((exp(x) - exp(-x))/2); 
.................... } 
....................  
.................... // Overloaded function sinh() for data type - Float48 
.................... float64 sinh(float64 x) 
.................... { 
....................  
....................    return ((exp(x) - exp(-x))/2); 
.................... } 
.................... #endif 
....................  
.................... //////////////////////////////////////////////////////////////////////////// 
.................... //   float tanh(float x) 
.................... //////////////////////////////////////////////////////////////////////////// 
.................... // Description : Computes the hyperbolic tangent value of x 
.................... // Returns : returns the hyperbolic tangent value of x 
.................... // Date : N/A 
.................... // 
....................  
.................... float32 tanh(float32 x) 
.................... { 
....................    return(sinh(x)/cosh(x)); 
.................... } 
.................... //Overloaded functions for tanh() for PCD 
.................... // Overloaded function tanh() for data type - Float48 
.................... #if defined(__PCD__) 
.................... float48 tanh(float48 x) 
.................... { 
....................    return(sinh(x)/cosh(x)); 
.................... } 
....................  
.................... // Overloaded function tanh() for data type - Float64 
.................... float64 tanh(float64 x) 
.................... { 
....................    return(sinh(x)/cosh(x)); 
.................... } 
.................... #endif 
....................  
.................... //////////////////////////////////////////////////////////////////////////// 
.................... //   float frexp(float x, signed int *exp) 
.................... //////////////////////////////////////////////////////////////////////////// 
.................... // Description : breaks a floating point number into a normalized fraction and an integral 
.................... // power of 2. It stores the integer in the signed int object pointed to by exp. 
.................... // Returns : returns the value x, such that x is a double with magnitude in the interval 
.................... // [1/2,1) or zero, and value equals x times 2 raised to the power *exp.If value is zero, 
.................... // both parts of the result are zero. 
.................... // Date : N/A 
.................... // 
....................  
.................... #define LOG2 .30102999566398119521 
.................... float32 frexp(float32 x, signed int8 *exp) 
.................... { 
....................    float32 res; 
....................    int1 sign = 0; 
....................    if(x == 0.0) 
....................    { 
....................       *exp=0; 
....................       return (0.0); 
....................    } 
....................    if(x < 0.0) 
....................    { 
....................      x=-x; 
....................      sign=1; 
....................    } 
....................    if (x > 1.0) 
....................    { 
....................       *exp=(ceil(log10(x)/LOG2)); 
....................       res=x/(pow(2, *exp)); 
....................       if (res == 1) 
....................       { 
....................          *exp=*exp+1; 
....................           res=.5; 
....................       } 
....................    } 
....................    else 
....................    { 
....................       if(x < 0.5) 
....................       { 
....................          *exp=-1; 
....................          res=x*2; 
....................       } 
....................       else 
....................       { 
....................          *exp=0; 
....................           res=x; 
....................       } 
....................    } 
....................    if(sign) 
....................    { 
....................       res=-res; 
....................    } 
....................    return res; 
.................... } 
....................  
.................... //Overloaded functions for frexp() for PCD 
.................... // Overloaded function frexp() for data type - Float48 
.................... #if defined(__PCD__) 
.................... float48 frexp(float48 x, signed int8 *exp) 
.................... { 
....................    float48 res; 
....................    int1 sign = 0; 
....................    if(x == 0.0) 
....................    { 
....................       *exp=0; 
....................       return (0.0); 
....................    } 
....................    if(x < 0.0) 
....................    { 
....................      x=-x; 
....................      sign=1; 
....................    } 
....................    if (x > 1.0) 
....................    { 
....................       *exp=(ceil(log10(x)/LOG2)); 
....................       res=x/(pow(2, *exp)); 
....................       if (res == 1) 
....................       { 
....................          *exp=*exp+1; 
....................           res=.5; 
....................       } 
....................    } 
....................    else 
....................    { 
....................       if(x < 0.5) 
....................       { 
....................          *exp=-1; 
....................          res=x*2; 
....................       } 
....................       else 
....................       { 
....................          *exp=0; 
....................           res=x; 
....................       } 
....................    } 
....................    if(sign) 
....................    { 
....................       res=-res; 
....................    } 
....................    return res; 
.................... } 
....................  
.................... // Overloaded function frexp() for data type - Float64 
.................... float64 frexp(float64 x, signed int8 *exp) 
.................... { 
....................    float64 res; 
....................    int1 sign = 0; 
....................    if(x == 0.0) 
....................    { 
....................       *exp=0; 
....................       return (0.0); 
....................    } 
....................    if(x < 0.0) 
....................    { 
....................      x=-x; 
....................      sign=1; 
....................    } 
....................    if (x > 1.0) 
....................    { 
....................       *exp=(ceil(log10(x)/LOG2)); 
....................       res=x/(pow(2, *exp)); 
....................       if (res == 1) 
....................       { 
....................          *exp=*exp+1; 
....................           res=.5; 
....................       } 
....................    } 
....................    else 
....................    { 
....................       if(x < 0.5) 
....................       { 
....................          *exp=-1; 
....................          res=x*2; 
....................       } 
....................       else 
....................       { 
....................          *exp=0; 
....................           res=x; 
....................       } 
....................    } 
....................    if(sign) 
....................    { 
....................       res=-res; 
....................    } 
....................    return res; 
.................... } 
.................... #endif 
....................  
.................... ////////////////////////////////////////////////////////////////////////////// 
.................... //   float ldexp(float x, signed int *exp) 
.................... ////////////////////////////////////////////////////////////////////////////// 
.................... // Description : multiplies a floating point number by an integral power of 2. 
.................... // Returns : returns the value of x times 2 raised to the power exp. 
.................... // Date : N/A 
.................... // 
....................  
.................... float32 ldexp(float32 value, signed int8 exp) 
.................... { 
....................    return (value * pow(2,exp)); 
.................... } 
.................... //Overloaded functions for ldexp() for PCD 
.................... // Overloaded function ldexp() for data type - Float48 
....................  
.................... #if defined(__PCD__) 
.................... float48 ldexp(float48 value, signed int8 exp) 
.................... { 
....................    return (value * pow(2,exp)); 
.................... } 
.................... // Overloaded function ldexp() for data type - Float64 
.................... float64 ldexp(float64 value, signed int8 exp) 
.................... { 
....................    return (value * pow(2,exp)); 
.................... } 
.................... #endif 
....................  
.................... #endif 
....................  
.................... #include "HDM64GS12.c" 
.................... ///////////////////////////////////////////////////////////////////////// 
.................... ////                           HDM64GS12.c                           //// 
.................... ////                                                                 //// 
.................... //// This file contains drivers for using a Hantronix HDM64GS12 with //// 
.................... //// a KS0108 display controller. The HDM64GS12 is 128 by 64 pixels. //// 
.................... //// The driver treats the upper left pixel as (0,0).                //// 
.................... ////                                                                 //// 
.................... //// Use #define FAST_GLCD if the target chip has at least 1k of RAM //// 
.................... //// to decrease the time it takes to update the display.            //// 
.................... //// glcd_update() must then be called to update the display after   //// 
.................... //// changing the pixel information.                                 //// 
.................... //// See ex_glcd.c for suggested usage.                              //// 
.................... //// See KS0108.c for controlling a single 64 by 64 display          //// 
.................... ///////////////////////////////////////////////////////////////////////// 
.................... ////                                                                 //// 
.................... //// LCD Pin connections:                                            //// 
.................... //// (These can be changed as needed in the following defines).      //// 
.................... ////  * 1: VSS is connected to GND                                   //// 
.................... ////  * 2: VDD is connected to +5V                                   //// 
.................... ////  * 3: V0  - LCD operating voltage (Constrast adjustment)        //// 
.................... ////  * 4: D/I - Data or Instruction is connected to B2              //// 
.................... ////  * 5: R/W - Read or Write is connected to B4                    //// 
.................... ////  * 6: Enable is connected to B5                                 //// 
.................... ////  *7-14: Data Bus 0 to 7 is connected to port d                  //// 
.................... ////  *15: Chip Select 1 is connected to B0                          //// 
.................... ////  *16: Chip Select 2 is connected to B1                          //// 
.................... ////  *17: Reset is connected to C0                                  //// 
.................... ////  *18: Negative voltage is also connected to the 20k Ohm POT     //// 
.................... ////  *19: Positive voltage for LED backlight is connected to +5V    //// 
.................... ////  *20: Negavtive voltage for LED backlight is connected to GND   //// 
.................... ////                                                                 //// 
.................... ///////////////////////////////////////////////////////////////////////// 
.................... ////                                                                 //// 
.................... ////  glcd_init(mode)                                                //// 
.................... ////     * Must be called before any other function.                 //// 
.................... ////       - mode can be ON or OFF to turn the LCD on or off         //// 
.................... ////                                                                 //// 
.................... ////  glcd_pixel(x,y,color)                                          //// 
.................... ////     * Sets the pixel to the given color.                        //// 
.................... ////       - color can be ON or OFF                                  //// 
.................... ////                                                                 //// 
.................... ////  glcd_fillScreen(color)                                         //// 
.................... ////     * Fills the entire LCD with the given color.                //// 
.................... ////       - color can be ON or OFF                                  //// 
.................... ////                                                                 //// 
.................... ////  glcd_update()                                                  //// 
.................... ////     * Write the display data stored in RAM to the LCD           //// 
.................... ////     * Only available if FAST_GLCD is defined                    //// 
.................... ////                                                                 //// 
.................... ///////////////////////////////////////////////////////////////////////// 
.................... ////        (C) Copyright 1996, 2004 Custom Computer Services        //// 
.................... //// This source code may only be used by licensed users of the CCS  //// 
.................... //// C compiler.  This source code may only be distributed to other  //// 
.................... //// licensed users of the CCS C compiler.  No other use,            //// 
.................... //// reproduction or distribution is permitted without written       //// 
.................... //// permission.  Derivative programs created using this software    //// 
.................... //// in object code form are not restricted in any way.              //// 
.................... ///////////////////////////////////////////////////////////////////////// 
....................  
....................  
....................  
.................... #ifndef HDM64GS12 
.................... #define HDM64GS12 
....................  
.................... #ifndef FAST_GLCD 
.................... #define FAST_GLCD 
....................  
.................... #ifndef GLCD_WIDTH 
.................... #define GLCD_WIDTH   128 
.................... #endif 
....................  
.................... #ifndef GLCD_CS1 
.................... #define GLCD_CS1     PIN_B2   // Chip Selection 1 
.................... #endif 
....................  
.................... #ifndef GLCD_CS2 
.................... #define GLCD_CS2     PIN_B3   // Chip Selection 2 
.................... #endif 
....................  
.................... #ifndef GLCD_DI 
.................... #define GLCD_DI      PIN_B5   // Data or Instruction input 
.................... #endif 
....................  
.................... #ifndef GLCD_RW 
.................... #define GLCD_RW      PIN_B6   // Read/Write 
.................... #endif 
....................  
.................... #ifndef GLCD_E 
.................... #define GLCD_E       PIN_B7   // Enable 
.................... #endif 
....................  
.................... #ifndef GLCD_RST 
.................... #define GLCD_RST     PIN_B4   // Reset 
.................... #endif 
....................  
.................... #define GLCD_LEFT    0 
.................... #define GLCD_RIGHT   1 
....................  
.................... #ifndef ON 
.................... #define ON           1 
.................... #endif 
....................  
.................... #ifndef OFF 
.................... #define OFF          0 
.................... #endif 
....................  
.................... ///////////////////////////////////////////////////////////////////////// 
.................... // Function Prototypes 
.................... ///////////////////////////////////////////////////////////////////////// 
.................... void glcd_init(int1 mode); 
.................... void glcd_pixel(int8 x, int8 y, int1 color); 
.................... void glcd_fillScreen(int1 color); 
.................... void glcd_writeByte(int1 side, BYTE data); 
.................... BYTE glcd_readByte(int1 side); 
.................... void glcd_update(); 
.................... ///////////////////////////////////////////////////////////////////////// 
....................  
.................... #ifdef FAST_GLCD 
.................... struct 
.................... { 
....................    int8 left[512]; 
....................    int8 right[512]; 
.................... } displayData; 
.................... #endif 
....................  
....................  
.................... // Purpose:       Initialize the LCD. 
.................... //                Call before using any other LCD function. 
.................... // Inputs:        OFF - Turns the LCD off 
.................... //                ON  - Turns the LCD on 
.................... void glcd_init(int1 mode) 
.................... { 
....................    // Initialze some pins 
....................    output_high(GLCD_RST); 
*
03030:  BCF    F93.4
03032:  BSF    F8A.4
....................    output_low(GLCD_E); 
03034:  BCF    F93.7
03036:  BCF    F8A.7
....................    output_low(GLCD_CS1); 
03038:  BCF    F93.2
0303A:  BCF    F8A.2
....................    output_low(GLCD_CS2); 
0303C:  BCF    F93.3
0303E:  BCF    F8A.3
....................  
....................    output_low(GLCD_DI);                 // Set for instruction 
03040:  BCF    F93.5
03042:  BCF    F8A.5
....................    glcd_writeByte(GLCD_LEFT,  0xC0);    // Specify first RAM line at the top 
03044:  MOVLB  6
03046:  CLRF   x51
03048:  MOVLW  C0
0304A:  MOVWF  x52
0304C:  MOVLB  0
0304E:  CALL   167E
....................    glcd_writeByte(GLCD_RIGHT, 0xC0);    //   of the screen 
03052:  MOVLW  01
03054:  MOVLB  6
03056:  MOVWF  x51
03058:  MOVLW  C0
0305A:  MOVWF  x52
0305C:  MOVLB  0
0305E:  CALL   167E
....................    glcd_writeByte(GLCD_LEFT,  0x40);    // Set the column address to 0 
03062:  MOVLB  6
03064:  CLRF   x51
03066:  MOVLW  40
03068:  MOVWF  x52
0306A:  MOVLB  0
0306C:  CALL   167E
....................    glcd_writeByte(GLCD_RIGHT, 0x40); 
03070:  MOVLW  01
03072:  MOVLB  6
03074:  MOVWF  x51
03076:  MOVLW  40
03078:  MOVWF  x52
0307A:  MOVLB  0
0307C:  CALL   167E
....................    glcd_writeByte(GLCD_LEFT,  0xB8);    // Set the page address to 0 
03080:  MOVLB  6
03082:  CLRF   x51
03084:  MOVLW  B8
03086:  MOVWF  x52
03088:  MOVLB  0
0308A:  CALL   167E
....................    glcd_writeByte(GLCD_RIGHT, 0xB8); 
0308E:  MOVLW  01
03090:  MOVLB  6
03092:  MOVWF  x51
03094:  MOVLW  B8
03096:  MOVWF  x52
03098:  MOVLB  0
0309A:  CALL   167E
....................  
....................    if(mode == ON) 
0309E:  MOVLB  6
030A0:  DECFSZ x49,W
030A2:  BRA    30C4
....................    { 
....................       glcd_writeByte(GLCD_LEFT,  0x3F); // Turn the display on 
030A4:  CLRF   x51
030A6:  MOVLW  3F
030A8:  MOVWF  x52
030AA:  MOVLB  0
030AC:  CALL   167E
....................       glcd_writeByte(GLCD_RIGHT, 0x3F); 
030B0:  MOVLW  01
030B2:  MOVLB  6
030B4:  MOVWF  x51
030B6:  MOVLW  3F
030B8:  MOVWF  x52
030BA:  MOVLB  0
030BC:  CALL   167E
....................    } 
....................    else 
030C0:  BRA    30E0
030C2:  MOVLB  6
....................    { 
....................       glcd_writeByte(GLCD_LEFT,  0x3E); // Turn the display off 
030C4:  CLRF   x51
030C6:  MOVLW  3E
030C8:  MOVWF  x52
030CA:  MOVLB  0
030CC:  CALL   167E
....................       glcd_writeByte(GLCD_RIGHT, 0x3E); 
030D0:  MOVLW  01
030D2:  MOVLB  6
030D4:  MOVWF  x51
030D6:  MOVLW  3E
030D8:  MOVWF  x52
030DA:  MOVLB  0
030DC:  CALL   167E
....................    } 
....................  
....................    glcd_fillScreen(OFF);                // Clear the display 
030E0:  MOVLB  6
030E2:  CLRF   x4A
030E4:  MOVLB  0
030E6:  RCALL  2FD6
....................  
....................    #ifdef FAST_GLCD 
....................    glcd_update(); 
030E8:  CALL   16B4
....................    #endif 
.................... } 
030EC:  RETLW  00
....................  
....................  
.................... // Purpose:    Update the LCD with data from the display arrays 
.................... #ifdef FAST_GLCD 
.................... void glcd_update() 
.................... { 
....................    int8 i, j; 
....................    int8 *p1, *p2; 
....................  
....................    p1 = displayData.left; 
*
016B4:  MOVLB  6
016B6:  CLRF   x4D
016B8:  MOVLW  17
016BA:  MOVWF  x4C
....................    p2 = displayData.right; 
016BC:  MOVLW  02
016BE:  MOVWF  x4F
016C0:  MOVLW  17
016C2:  MOVWF  x4E
....................  
....................    // Loop through the vertical pages 
....................    for(i = 0; i < 8; ++i) 
016C4:  CLRF   x4A
016C6:  MOVF   x4A,W
016C8:  SUBLW  07
016CA:  BNC   1768
....................    { 
....................       output_low(GLCD_DI);                      // Set for instruction 
016CC:  BCF    F93.5
016CE:  BCF    F8A.5
....................       glcd_writeByte(GLCD_LEFT, 0x40);          // Set horizontal address to 0 
016D0:  CLRF   x51
016D2:  MOVLW  40
016D4:  MOVWF  x52
016D6:  MOVLB  0
016D8:  RCALL  167E
....................       glcd_writeByte(GLCD_RIGHT, 0x40); 
016DA:  MOVLW  01
016DC:  MOVLB  6
016DE:  MOVWF  x51
016E0:  MOVLW  40
016E2:  MOVWF  x52
016E4:  MOVLB  0
016E6:  RCALL  167E
....................       glcd_writeByte(GLCD_LEFT, i | 0xB8);      // Set page address 
016E8:  MOVLB  6
016EA:  MOVF   x4A,W
016EC:  IORLW  B8
016EE:  MOVWF  x50
016F0:  CLRF   x51
016F2:  MOVWF  x52
016F4:  MOVLB  0
016F6:  RCALL  167E
....................       glcd_writeByte(GLCD_RIGHT, i | 0xB8); 
016F8:  MOVLB  6
016FA:  MOVF   x4A,W
016FC:  IORLW  B8
016FE:  MOVWF  x50
01700:  MOVLW  01
01702:  MOVWF  x51
01704:  MOVFF  650,652
01708:  MOVLB  0
0170A:  RCALL  167E
....................       output_high(GLCD_DI);                     // Set for data 
0170C:  BCF    F93.5
0170E:  BSF    F8A.5
....................  
....................       // Loop through the horizontal sections 
....................       for(j = 0; j < 64; ++j) 
01710:  MOVLB  6
01712:  CLRF   x4B
01714:  MOVF   x4B,W
01716:  SUBLW  3F
01718:  BNC   1764
....................       { 
....................          glcd_writeByte(GLCD_LEFT, *p1++);      // Turn pixels on or off 
0171A:  MOVFF  64D,03
0171E:  MOVF   x4C,W
01720:  INCF   x4C,F
01722:  BTFSC  FD8.2
01724:  INCF   x4D,F
01726:  MOVWF  FE9
01728:  MOVFF  03,FEA
0172C:  MOVFF  FEF,650
01730:  CLRF   x51
01732:  MOVFF  650,652
01736:  MOVLB  0
01738:  RCALL  167E
....................          glcd_writeByte(GLCD_RIGHT, *p2++);     // Turn pixels on or off 
0173A:  MOVLB  6
0173C:  MOVFF  64F,03
01740:  MOVF   x4E,W
01742:  INCF   x4E,F
01744:  BTFSC  FD8.2
01746:  INCF   x4F,F
01748:  MOVWF  FE9
0174A:  MOVFF  03,FEA
0174E:  MOVFF  FEF,650
01752:  MOVLW  01
01754:  MOVWF  x51
01756:  MOVFF  650,652
0175A:  MOVLB  0
0175C:  RCALL  167E
....................       } 
0175E:  MOVLB  6
01760:  INCF   x4B,F
01762:  BRA    1714
....................    } 
01764:  INCF   x4A,F
01766:  BRA    16C6
.................... } 
01768:  MOVLB  0
0176A:  RETLW  00
.................... #endif 
....................  
....................  
.................... // Purpose:    Turn a pixel on a graphic LCD on or off 
.................... // Inputs:     1) x - the x coordinate of the pixel 
.................... //             2) y - the y coordinate of the pixel 
.................... //             3) color - ON or OFF 
.................... void glcd_pixel(int8 x, int8 y, int1 color) 
.................... #ifdef FAST_GLCD 
.................... { 
....................    int8* p; 
....................    int16 temp; 
....................    temp =  y/8; 
*
0321A:  MOVLB  6
0321C:  CLRF   x81
0321E:  RRCF   x7C,W
03220:  MOVWF  x80
03222:  RRCF   x80,F
03224:  RRCF   x80,F
03226:  MOVLW  1F
03228:  ANDWF  x80,F
....................    temp *= 64; 
0322A:  RLCF   x80,F
0322C:  RLCF   x81,F
0322E:  RLCF   x80,F
03230:  RLCF   x81,F
03232:  RLCF   x80,F
03234:  RLCF   x81,F
03236:  RLCF   x80,F
03238:  RLCF   x81,F
0323A:  RLCF   x80,F
0323C:  RLCF   x81,F
0323E:  RLCF   x80,F
03240:  RLCF   x81,F
03242:  MOVLW  C0
03244:  ANDWF  x80,F
....................    temp += x; 
03246:  MOVF   x7B,W
03248:  ADDWF  x80,F
0324A:  MOVLW  00
0324C:  ADDWFC x81,F
....................  
....................    if(x > 63) 
0324E:  MOVF   x7B,W
03250:  SUBLW  3F
03252:  BC    326E
....................    { 
....................       p = displayData.right + temp - 64; 
03254:  MOVLW  17
03256:  ADDWF  x80,W
03258:  MOVWF  x82
0325A:  MOVLW  02
0325C:  ADDWFC x81,W
0325E:  MOVWF  x83
03260:  MOVLW  40
03262:  SUBWF  x82,W
03264:  MOVWF  x7E
03266:  MOVLW  00
03268:  SUBWFB x83,W
0326A:  MOVWF  x7F
....................    } 
....................    else 
0326C:  BRA    327A
....................    { 
....................       p = displayData.left + temp; 
0326E:  MOVLW  17
03270:  ADDWF  x80,W
03272:  MOVWF  x7E
03274:  MOVLW  00
03276:  ADDWFC x81,W
03278:  MOVWF  x7F
....................    } 
....................  
....................    if(color) 
0327A:  MOVF   x7D,F
0327C:  BZ    32A8
....................    { 
....................       bit_set(*p, y%8); 
0327E:  MOVFF  67F,03
03282:  MOVFF  67E,FE9
03286:  MOVFF  67F,FEA
0328A:  MOVF   x7C,W
0328C:  ANDLW  07
0328E:  MOVWF  x82
03290:  MOVLW  01
03292:  MOVWF  00
03294:  MOVF   x82,W
03296:  MOVWF  01
03298:  BZ    32A2
0329A:  BCF    FD8.0
0329C:  RLCF   00,F
0329E:  DECFSZ 01,F
032A0:  BRA    329A
032A2:  MOVF   00,W
032A4:  IORWF  FEF,F
....................    } 
....................    else 
032A6:  BRA    32D2
....................    { 
....................       bit_clear(*p, y%8); 
032A8:  MOVFF  67F,03
032AC:  MOVFF  67E,FE9
032B0:  MOVFF  67F,FEA
032B4:  MOVF   x7C,W
032B6:  ANDLW  07
032B8:  MOVWF  x82
032BA:  MOVLW  01
032BC:  MOVWF  00
032BE:  MOVF   x82,W
032C0:  MOVWF  01
032C2:  BZ    32CC
032C4:  BCF    FD8.0
032C6:  RLCF   00,F
032C8:  DECFSZ 01,F
032CA:  BRA    32C4
032CC:  MOVF   00,W
032CE:  XORLW  FF
032D0:  ANDWF  FEF,F
....................    } 
.................... } 
032D2:  MOVLB  0
032D4:  RETLW  00
.................... #else 
.................... { 
....................    BYTE data; 
....................    int1 side = GLCD_LEFT;  // Stores which chip to use on the LCD 
....................  
....................    if(x > 63)              // Check for first or second display area 
....................    { 
....................       x -= 64; 
....................       side = GLCD_RIGHT; 
....................    } 
....................  
....................    output_low(GLCD_DI);                         // Set for instruction 
....................    bit_clear(x,7);                              // Clear the MSB. Part of an instruction code 
....................    bit_set(x,6);                                // Set bit 6. Also part of an instruction code 
....................    glcd_writeByte(side, x);                     // Set the horizontal address 
....................    glcd_writeByte(side, (y/8 & 0xBF) | 0xB8);   // Set the vertical page address 
....................    output_high(GLCD_DI);                        // Set for data 
....................    glcd_readByte(side);                         // Need two reads to get data 
....................    data = glcd_readByte(side);                  //  at new address 
....................  
....................    if(color == ON) 
....................       bit_set(data, y%8);        // Turn the pixel on 
....................    else                          // or 
....................       bit_clear(data, y%8);      // turn the pixel off 
....................  
....................    output_low(GLCD_DI);          // Set for instruction 
....................    glcd_writeByte(side, x);      // Set the horizontal address 
....................    output_high(GLCD_DI);         // Set for data 
....................    glcd_writeByte(side, data);   // Write the pixel data 
.................... } 
.................... #endif 
....................  
....................  
.................... // Purpose:    Fill the LCD screen with the passed in color 
.................... // Inputs:     ON  - turn all the pixels on 
.................... //             OFF - turn all the pixels off 
.................... void glcd_fillScreen(int1 color) 
.................... #ifdef FAST_GLCD 
.................... { 
....................    int8  data; 
....................    int8  *p1, *p2; 
....................    int16 i; 
....................  
....................    p1 = displayData.left; 
*
02FD6:  MOVLB  6
02FD8:  CLRF   x4D
02FDA:  MOVLW  17
02FDC:  MOVWF  x4C
....................    p2 = displayData.right; 
02FDE:  MOVLW  02
02FE0:  MOVWF  x4F
02FE2:  MOVLW  17
02FE4:  MOVWF  x4E
....................    data = 0xFF * color; 
02FE6:  MOVF   x4A,W
02FE8:  MULLW  FF
02FEA:  MOVFF  FF3,64B
....................  
....................    for(i=0; i<512; ++i) 
02FEE:  CLRF   x51
02FF0:  CLRF   x50
02FF2:  MOVF   x51,W
02FF4:  SUBLW  01
02FF6:  BNC   302C
....................    { 
....................       *p1++ = data; 
02FF8:  MOVFF  64D,03
02FFC:  MOVF   x4C,W
02FFE:  INCF   x4C,F
03000:  BTFSC  FD8.2
03002:  INCF   x4D,F
03004:  MOVWF  FE9
03006:  MOVFF  03,FEA
0300A:  MOVFF  64B,FEF
....................       *p2++ = data; 
0300E:  MOVFF  64F,03
03012:  MOVF   x4E,W
03014:  INCF   x4E,F
03016:  BTFSC  FD8.2
03018:  INCF   x4F,F
0301A:  MOVWF  FE9
0301C:  MOVFF  03,FEA
03020:  MOVFF  64B,FEF
....................    } 
03024:  INCF   x50,F
03026:  BTFSC  FD8.2
03028:  INCF   x51,F
0302A:  BRA    2FF2
.................... } 
0302C:  MOVLB  0
0302E:  RETLW  00
.................... #else 
.................... { 
....................    int8 i, j; 
....................  
....................    // Loop through the vertical pages 
....................    for(i = 0; i < 8; ++i) 
....................    { 
....................       output_low(GLCD_DI);                      // Set for instruction 
....................       glcd_writeByte(GLCD_LEFT, 0b01000000);    // Set horizontal address to 0 
....................       glcd_writeByte(GLCD_RIGHT, 0b01000000); 
....................       glcd_writeByte(GLCD_LEFT, i | 0b10111000);// Set page address 
....................       glcd_writeByte(GLCD_RIGHT, i | 0b10111000); 
....................       output_high(GLCD_DI);                     // Set for data 
....................  
....................       // Loop through the horizontal sections 
....................       for(j = 0; j < 64; ++j) 
....................       { 
....................          glcd_writeByte(GLCD_LEFT, 0xFF*color);  // Turn pixels on or off 
....................          glcd_writeByte(GLCD_RIGHT, 0xFF*color); // Turn pixels on or off 
....................       } 
....................    } 
.................... } 
.................... #endif 
....................  
....................  
.................... // Purpose:    Write a byte of data to the specified chip 
.................... // Inputs:     1) chipSelect - which chip to write the data to 
.................... //             2) data - the byte of data to write 
.................... void glcd_writeByte(int1 side, BYTE data) 
.................... { 
....................    if(side)                   // Choose which side to write to 
*
0167E:  MOVLB  6
01680:  MOVF   x51,F
01682:  BZ    168A
....................       output_high(GLCD_CS2); 
01684:  BCF    F93.3
01686:  BSF    F8A.3
....................    else 
01688:  BRA    168E
....................       output_high(GLCD_CS1); 
0168A:  BCF    F93.2
0168C:  BSF    F8A.2
....................  
....................    output_low(GLCD_RW);       // Set for writing 
0168E:  BCF    F93.6
01690:  BCF    F8A.6
....................    output_d(data);            // Put the data on the port 
01692:  CLRF   F95
01694:  MOVFF  652,F8C
....................    delay_cycles(1); 
01698:  NOP   
....................    output_high(GLCD_E);       // Pulse the enable pin 
0169A:  BCF    F93.7
0169C:  BSF    F8A.7
....................    delay_cycles(5); 
0169E:  BRA    16A0
016A0:  BRA    16A2
016A2:  NOP   
....................    output_low(GLCD_E); 
016A4:  BCF    F93.7
016A6:  BCF    F8A.7
....................  
....................    output_low(GLCD_CS1);      // Reset the chip select lines 
016A8:  BCF    F93.2
016AA:  BCF    F8A.2
....................    output_low(GLCD_CS2); 
016AC:  BCF    F93.3
016AE:  BCF    F8A.3
.................... } 
016B0:  MOVLB  0
016B2:  RETLW  00
....................  
....................  
.................... // Purpose:    Reads a byte of data from the specified chip 
.................... // Ouputs:     A byte of data read from the chip 
.................... BYTE glcd_readByte(int1 side) 
.................... { 
....................    BYTE data;                 // Stores the data read from the LCD 
....................  
....................    set_tris_d(0xFF);          // Set port d to input 
....................    output_high(GLCD_RW);      // Set for reading 
....................  
....................    if(side)                   // Choose which side to write to 
....................       output_high(GLCD_CS2); 
....................    else 
....................       output_high(GLCD_CS1); 
....................  
....................    delay_cycles(1); 
....................    output_high(GLCD_E);       // Pulse the enable pin 
....................    delay_cycles(4); 
....................    data = input_d();          // Get the data from the display's output register 
....................    output_low(GLCD_E); 
....................  
....................    output_low(GLCD_CS1);      // Reset the chip select lines 
....................    output_low(GLCD_CS2); 
....................    return data;               // Return the read data 
.................... } 
....................  
.................... #endif 
....................  
.................... #include "GRAPHICS.c" 
.................... ///////////////////////////////////////////////////////////////////////// 
.................... ////                          graphics.c                             //// 
.................... ////                                                                 //// 
.................... ////   This file contains functions to draw lines, rectangles, bars, //// 
.................... ////   circles and text to a display. A function which draws a       //// 
.................... ////   single pixel must be defined before calling the functions in  //// 
.................... ////   this file. Call it glcd_pixel(x, y, color) where x is the     //// 
.................... ////   horizontal coordinate, y is the vertical coordinate, and      //// 
.................... ////   color is 1 bit to turn the pixel on or off.                   //// 
.................... ////                                                                 //// 
.................... ////   * Note: (0, 0) is treated as the upper left corner            //// 
.................... ////                                                                 //// 
.................... ///////////////////////////////////////////////////////////////////////// 
.................... ////                                                                 //// 
.................... ////  glcd_line(x1, y1, x2, y2, color)                               //// 
.................... ////     * Draws a line from the first point to the second point     //// 
.................... ////       with the given color                                      //// 
.................... ////       - color can be ON or OFF                                  //// 
.................... ////                                                                 //// 
.................... ////  glcd_rect(x1, y1, x2, y2, fill, color)                         //// 
.................... ////     * Draws a rectangle with one corner at point (x1,y1) and    //// 
.................... ////       the other corner at point (x2,y2)                         //// 
.................... ////       - fill can be YES or NO                                   //// 
.................... ////       - color can be ON or OFF                                  //// 
.................... ////                                                                 //// 
.................... ////  glcd_bar(x1, y1, x2, y2, width, color)                         //// 
.................... ////     * Draws a bar (wide line) from the first point to the       //// 
.................... ////       second point                                              //// 
.................... ////       - width is the number of pixels wide                      //// 
.................... ////       - color is ON or OFF                                      //// 
.................... ////                                                                 //// 
.................... ////  glcd_circle(x, y, radius, fill, color)                         //// 
.................... ////     * Draws a circle with center at (x,y)                       //// 
.................... ////       - fill can be YES or NO                                   //// 
.................... ////       - color can be ON or OFF                                  //// 
.................... ////                                                                 //// 
.................... ////  glcd_text57(x, y, textptr, size, color)                        //// 
.................... ////     * Write the null terminated text pointed to by textptr with //// 
.................... ////       the upper left coordinate of the first character at (x,y) //// 
.................... ////       Characters are 5 pixels wide and 7 pixels tall            //// 
.................... ////       - size is an integer that scales the size of the text     //// 
.................... ////       - color is ON or OFF                                      //// 
.................... ////     * Note - This function wraps characters to the next line    //// 
.................... ////              use #define GLCD_WIDTH to specify a display width  //// 
.................... ////                                                                 //// 
.................... ///////////////////////////////////////////////////////////////////////// 
.................... ////        (C) Copyright 1996, 2004 Custom Computer Services        //// 
.................... //// This source code may only be used by licensed users of the CCS  //// 
.................... //// C compiler.  This source code may only be distributed to other  //// 
.................... //// licensed users of the CCS C compiler.  No other use,            //// 
.................... //// reproduction or distribution is permitted without written       //// 
.................... //// permission.  Derivative programs created using this software    //// 
.................... //// in object code form are not restricted in any way.              //// 
.................... ///////////////////////////////////////////////////////////////////////// 
....................  
....................  
.................... ///////////////////////////////////////////////////////////////////////// 
.................... #ifndef GRAPHICS_DRAWING_FUNCTIONS 
.................... #define GRAPHICS_DRAWING_FUNCTIONS 
.................... ///////////////////////////////////////////////////////////////////////// 
....................  
....................  
.................... ///////////////////////////////////////////////////////////////////////// 
.................... #ifndef ON 
.................... #define ON  1 
.................... #endif 
....................  
.................... #ifndef OFF 
.................... #define OFF 0 
.................... #endif 
....................  
.................... #ifndef YES 
.................... #define YES 1 
.................... #endif 
....................  
.................... #ifndef NO 
.................... #define NO  0 
.................... #endif 
.................... ///////////////////////////////////////////////////////////////////////// 
....................  
....................  
.................... ///////////////////////////////////////////////////////////////////////// 
.................... //// Defines a 5x7 font 
.................... ///////////////////////////////////////////////////////////////////////// 
.................... const int8 FONT[51][5] ={0x00, 0x00, 0x00, 0x00, 0x00, // SPACE 
....................                          0x00, 0x00, 0x5F, 0x00, 0x00, // ! 
....................                          0x00, 0x03, 0x00, 0x03, 0x00, // " 
....................                          0x14, 0x3E, 0x14, 0x3E, 0x14, // # 
....................                          0x24, 0x2A, 0x7F, 0x2A, 0x12, // $ 
....................                          0x43, 0x33, 0x08, 0x66, 0x61, // % 
....................                          0x36, 0x49, 0x55, 0x22, 0x50, // & 
....................                          0x00, 0x05, 0x03, 0x00, 0x00, // ' 
....................                          0x00, 0x1C, 0x22, 0x41, 0x00, // ( 
....................                          0x00, 0x41, 0x22, 0x1C, 0x00, // ) 
....................                          0x14, 0x08, 0x3E, 0x08, 0x14, // * 
....................                          0x08, 0x08, 0x3E, 0x08, 0x08, // + 
....................                          0x00, 0x50, 0x30, 0x00, 0x00, // , 
....................                          0x08, 0x08, 0x08, 0x08, 0x08, // - 
....................                          0x00, 0x60, 0x60, 0x00, 0x00, // . 
....................                          0x20, 0x10, 0x08, 0x04, 0x02, // / 
....................                          0x3E, 0x51, 0x49, 0x45, 0x3E, // 0 
....................                          0x00, 0x04, 0x02, 0x7F, 0x00, // 1 
....................                          0x42, 0x61, 0x51, 0x49, 0x46, // 2 
....................                          0x22, 0x41, 0x49, 0x49, 0x36, // 3 
....................                          0x18, 0x14, 0x12, 0x7F, 0x10, // 4 
....................                          0x27, 0x45, 0x45, 0x45, 0x39, // 5 
....................                          0x3E, 0x49, 0x49, 0x49, 0x32, // 6 
....................                          0x01, 0x01, 0x71, 0x09, 0x07, // 7 
....................                          0x36, 0x49, 0x49, 0x49, 0x36, // 8 
....................                          0x26, 0x49, 0x49, 0x49, 0x3E, // 9 
....................                          0x00, 0x36, 0x36, 0x00, 0x00, // : 
....................                          0x00, 0x56, 0x36, 0x00, 0x00, // ; 
....................                          0x08, 0x14, 0x22, 0x41, 0x00, // < 
....................                          0x14, 0x14, 0x14, 0x14, 0x14, // = 
....................                          0x00, 0x41, 0x22, 0x14, 0x08, // > 
....................                          0x02, 0x01, 0x51, 0x09, 0x06, // ? 
....................                          0x3E, 0x41, 0x59, 0x55, 0x5E, // @ 
....................                          0x7E, 0x09, 0x09, 0x09, 0x7E, // A 
....................                          0x7F, 0x49, 0x49, 0x49, 0x36, // B 
....................                          0x3E, 0x41, 0x41, 0x41, 0x22, // C 
....................                          0x7F, 0x41, 0x41, 0x41, 0x3E, // D 
....................                          0x7F, 0x49, 0x49, 0x49, 0x41, // E 
....................                          0x7F, 0x09, 0x09, 0x09, 0x01, // F 
....................                          0x3E, 0x41, 0x41, 0x49, 0x3A, // G 
....................                          0x7F, 0x08, 0x08, 0x08, 0x7F, // H 
....................                          0x00, 0x41, 0x7F, 0x41, 0x00, // I 
....................                          0x30, 0x40, 0x40, 0x40, 0x3F, // J 
....................                          0x7F, 0x08, 0x14, 0x22, 0x41, // K 
....................                          0x7F, 0x40, 0x40, 0x40, 0x40, // L 
....................                          0x7F, 0x02, 0x0C, 0x02, 0x7F, // M 
....................                          0x7F, 0x02, 0x04, 0x08, 0x7F, // N 
....................                          0x3E, 0x41, 0x41, 0x41, 0x3E, // O 
....................                          0x7F, 0x09, 0x09, 0x09, 0x06, // P 
....................                          0x1E, 0x21, 0x21, 0x21, 0x5E, // Q 
....................                          0x7F, 0x09, 0x09, 0x09, 0x76};// R 
....................  
.................... const int8 FONT2[44][5]={0x26, 0x49, 0x49, 0x49, 0x32, // S 
....................                          0x01, 0x01, 0x7F, 0x01, 0x01, // T 
....................                          0x3F, 0x40, 0x40, 0x40, 0x3F, // U 
....................                          0x1F, 0x20, 0x40, 0x20, 0x1F, // V 
....................                          0x7F, 0x20, 0x10, 0x20, 0x7F, // W 
....................                          0x41, 0x22, 0x1C, 0x22, 0x41, // X 
....................                          0x07, 0x08, 0x70, 0x08, 0x07, // Y 
....................                          0x61, 0x51, 0x49, 0x45, 0x43, // Z 
....................                          0x00, 0x7F, 0x41, 0x00, 0x00, // [ 
....................                          0x02, 0x04, 0x08, 0x10, 0x20, // \ 
....................                          0x00, 0x00, 0x41, 0x7F, 0x00, // ] 
....................                          0x04, 0x02, 0x01, 0x02, 0x04, // ^ 
....................                          0x40, 0x40, 0x40, 0x40, 0x40, // _ 
....................                          0x00, 0x01, 0x02, 0x04, 0x00, // ` 
....................                          0x20, 0x54, 0x54, 0x54, 0x78, // a 
....................                          0x7F, 0x44, 0x44, 0x44, 0x38, // b 
....................                          0x38, 0x44, 0x44, 0x44, 0x44, // c 
....................                          0x38, 0x44, 0x44, 0x44, 0x7F, // d 
....................                          0x38, 0x54, 0x54, 0x54, 0x18, // e 
....................                          0x04, 0x04, 0x7E, 0x05, 0x05, // f 
....................                          0x08, 0x54, 0x54, 0x54, 0x3C, // g 
....................                          0x7F, 0x08, 0x04, 0x04, 0x78, // h 
....................                          0x00, 0x44, 0x7D, 0x40, 0x00, // i 
....................                          0x20, 0x40, 0x44, 0x3D, 0x00, // j 
....................                          0x7F, 0x10, 0x28, 0x44, 0x00, // k 
....................                          0x00, 0x41, 0x7F, 0x40, 0x00, // l 
....................                          0x7C, 0x04, 0x78, 0x04, 0x78, // m 
....................                          0x7C, 0x08, 0x04, 0x04, 0x78, // n 
....................                          0x38, 0x44, 0x44, 0x44, 0x38, // o 
....................                          0x7C, 0x14, 0x14, 0x14, 0x08, // p 
....................                          0x08, 0x14, 0x14, 0x14, 0x7C, // q 
....................                          0x00, 0x7C, 0x08, 0x04, 0x04, // r 
....................                          0x48, 0x54, 0x54, 0x54, 0x20, // s 
....................                          0x04, 0x04, 0x3F, 0x44, 0x44, // t 
....................                          0x3C, 0x40, 0x40, 0x20, 0x7C, // u 
....................                          0x1C, 0x20, 0x40, 0x20, 0x1C, // v 
....................                          0x3C, 0x40, 0x30, 0x40, 0x3C, // w 
....................                          0x44, 0x28, 0x10, 0x28, 0x44, // x 
....................                          0x0C, 0x50, 0x50, 0x50, 0x3C, // y 
....................                          0x44, 0x64, 0x54, 0x4C, 0x44, // z 
....................                          0x00, 0x08, 0x36, 0x41, 0x41, // { 
....................                          0x00, 0x00, 0x7F, 0x00, 0x00, // | 
....................                          0x41, 0x41, 0x36, 0x08, 0x00, // } 
....................                          0x02, 0x01, 0x02, 0x04, 0x02};// ~ 
.................... ///////////////////////////////////////////////////////////////////////// 
....................  
....................  
.................... ///////////////////////////////////////////////////////////////////////// 
.................... // Purpose:       Draw a line on a graphic LCD using Bresenham's 
.................... //                line drawing algorithm 
.................... // Inputs:        (x1, y1) - the start coordinate 
.................... //                (x2, y2) - the end coordinate 
.................... //                color - ON or OFF 
.................... // Dependencies:  glcd_pixel() 
.................... ///////////////////////////////////////////////////////////////////////// 
.................... #ifdef LARGE_LCD 
.................... void glcd_line(int16 x1, int16 y1, int16 x2, int16 y2, int1 color) 
.................... #else 
.................... void glcd_line(int8 x1, int8 y1, int8 x2, int8 y2, int1 color) 
.................... #endif 
.................... { 
*
032D6:  MOVLW  01
032D8:  MOVLB  6
032DA:  MOVWF  x74
032DC:  MOVWF  x75
032DE:  CLRF   x7A
....................    int16        dy, dx; 
....................    signed int8  addx=1, addy=1; 
....................    signed int16 P, diff; 
....................  
....................    #ifdef LARGE_LCD 
....................    int16 i=0; 
....................    dx = abs((signed int16)(x2 - x1)); 
....................    dy = abs((signed int16)(y2 - y1)); 
....................    #else 
....................    int8 i=0; 
....................    dx = abs((signed int8)(x2 - x1)); 
032E0:  MOVF   x6B,W
032E2:  SUBWF  x6D,W
032E4:  MOVWF  x7B
032E6:  MOVF   x7B,W
032E8:  BTFSS  x7B.7
032EA:  BRA    32F2
032EC:  MOVLW  00
032EE:  BSF    FD8.0
032F0:  SUBFWB x7B,W
032F2:  CLRF   03
032F4:  MOVWF  x72
032F6:  MOVFF  03,673
....................    dy = abs((signed int8)(y2 - y1)); 
032FA:  MOVF   x6C,W
032FC:  SUBWF  x6E,W
032FE:  MOVWF  x7B
03300:  MOVF   x7B,W
03302:  BTFSS  x7B.7
03304:  BRA    330C
03306:  MOVLW  00
03308:  BSF    FD8.0
0330A:  SUBFWB x7B,W
0330C:  CLRF   03
0330E:  MOVWF  x70
03310:  MOVFF  03,671
....................    #endif 
....................  
....................    if(x1 > x2) 
03314:  MOVF   x6B,W
03316:  SUBWF  x6D,W
03318:  BC    331E
....................       addx = -1; 
0331A:  MOVLW  FF
0331C:  MOVWF  x74
....................    if(y1 > y2) 
0331E:  MOVF   x6C,W
03320:  SUBWF  x6E,W
03322:  BC    3328
....................       addy = -1; 
03324:  MOVLW  FF
03326:  MOVWF  x75
....................  
....................    if(dx >= dy) 
03328:  MOVF   x71,W
0332A:  SUBWF  x73,W
0332C:  BNC   33A4
0332E:  BNZ   3336
03330:  MOVF   x70,W
03332:  SUBWF  x72,W
03334:  BNC   33A4
....................    { 
....................       dy *= 2; 
03336:  BCF    FD8.0
03338:  RLCF   x70,F
0333A:  RLCF   x71,F
....................       P = dy - dx; 
0333C:  MOVF   x72,W
0333E:  SUBWF  x70,W
03340:  MOVWF  00
03342:  MOVF   x73,W
03344:  SUBWFB x71,W
03346:  MOVFF  00,676
0334A:  MOVWF  x77
....................       diff = P - dx; 
0334C:  MOVF   x72,W
0334E:  SUBWF  x76,W
03350:  MOVWF  x78
03352:  MOVF   x73,W
03354:  SUBWFB x77,W
03356:  MOVWF  x79
....................  
....................       for(; i<=dx; ++i) 
03358:  MOVF   x73,F
0335A:  BNZ   3362
0335C:  MOVF   x7A,W
0335E:  SUBWF  x72,W
03360:  BNC   33A2
....................       { 
....................          glcd_pixel(x1, y1, color); 
03362:  MOVFF  66B,67B
03366:  MOVFF  66C,67C
0336A:  MOVFF  66F,67D
0336E:  MOVLB  0
03370:  RCALL  321A
....................  
....................          if(P < 0) 
03372:  MOVLB  6
03374:  BTFSC  x77.7
03376:  BRA    337A
03378:  BRA    338A
....................          { 
....................             P  += dy; 
0337A:  MOVF   x70,W
0337C:  ADDWF  x76,F
0337E:  MOVF   x71,W
03380:  ADDWFC x77,F
....................             x1 += addx; 
03382:  MOVF   x74,W
03384:  ADDWF  x6B,W
03386:  MOVWF  x6B
....................          } 
....................          else 
03388:  BRA    339E
....................          { 
....................             P  += diff; 
0338A:  MOVF   x78,W
0338C:  ADDWF  x76,F
0338E:  MOVF   x79,W
03390:  ADDWFC x77,F
....................             x1 += addx; 
03392:  MOVF   x74,W
03394:  ADDWF  x6B,W
03396:  MOVWF  x6B
....................             y1 += addy; 
03398:  MOVF   x75,W
0339A:  ADDWF  x6C,W
0339C:  MOVWF  x6C
....................          } 
....................       } 
0339E:  INCF   x7A,F
033A0:  BRA    3358
....................    } 
....................    else 
033A2:  BRA    3410
....................    { 
....................       dx *= 2; 
033A4:  BCF    FD8.0
033A6:  RLCF   x72,F
033A8:  RLCF   x73,F
....................       P = dx - dy; 
033AA:  MOVF   x70,W
033AC:  SUBWF  x72,W
033AE:  MOVWF  00
033B0:  MOVF   x71,W
033B2:  SUBWFB x73,W
033B4:  MOVFF  00,676
033B8:  MOVWF  x77
....................       diff = P - dy; 
033BA:  MOVF   x70,W
033BC:  SUBWF  x76,W
033BE:  MOVWF  x78
033C0:  MOVF   x71,W
033C2:  SUBWFB x77,W
033C4:  MOVWF  x79
....................  
....................       for(; i<=dy; ++i) 
033C6:  MOVF   x71,F
033C8:  BNZ   33D0
033CA:  MOVF   x7A,W
033CC:  SUBWF  x70,W
033CE:  BNC   3410
....................       { 
....................          glcd_pixel(x1, y1, color); 
033D0:  MOVFF  66B,67B
033D4:  MOVFF  66C,67C
033D8:  MOVFF  66F,67D
033DC:  MOVLB  0
033DE:  RCALL  321A
....................  
....................          if(P < 0) 
033E0:  MOVLB  6
033E2:  BTFSC  x77.7
033E4:  BRA    33E8
033E6:  BRA    33F8
....................          { 
....................             P  += dx; 
033E8:  MOVF   x72,W
033EA:  ADDWF  x76,F
033EC:  MOVF   x73,W
033EE:  ADDWFC x77,F
....................             y1 += addy; 
033F0:  MOVF   x75,W
033F2:  ADDWF  x6C,W
033F4:  MOVWF  x6C
....................          } 
....................          else 
033F6:  BRA    340C
....................          { 
....................             P  += diff; 
033F8:  MOVF   x78,W
033FA:  ADDWF  x76,F
033FC:  MOVF   x79,W
033FE:  ADDWFC x77,F
....................             x1 += addx; 
03400:  MOVF   x74,W
03402:  ADDWF  x6B,W
03404:  MOVWF  x6B
....................             y1 += addy; 
03406:  MOVF   x75,W
03408:  ADDWF  x6C,W
0340A:  MOVWF  x6C
....................          } 
....................       } 
0340C:  INCF   x7A,F
0340E:  BRA    33C6
....................    } 
.................... } 
03410:  MOVLB  0
03412:  RETLW  00
....................  
....................  
.................... ///////////////////////////////////////////////////////////////////////// 
.................... // Purpose:       Draw a rectangle on a graphic LCD 
.................... // Inputs:        (x1, y1) - the start coordinate 
.................... //                (x2, y2) - the end coordinate 
.................... //                fill  - YES or NO 
.................... //                color - ON or OFF 
.................... // Dependencies:  glcd_pixel(), glcd_line() 
.................... ///////////////////////////////////////////////////////////////////////// 
.................... #ifdef LARGE_LCD 
.................... void glcd_rect(int16 x1, int16 y1, int16 x2, int16 y2, int1 fill, int1 color) 
.................... #else 
.................... void glcd_rect(int8 x1, int8 y1, int8 x2, int8 y2, int1 fill, int1 color) 
.................... #endif 
.................... { 
....................    if(fill) 
03414:  MOVLB  6
03416:  MOVF   x64,F
03418:  BZ    3476
....................    { 
....................       #ifdef LARGE_LCD 
....................       int16 i, xmin, xmax, ymin, ymax; 
....................       #else 
....................       int8  i, xmin, xmax, ymin, ymax; 
....................       #endif 
....................  
....................       if(x1 < x2)                            //  Find x min and max 
0341A:  MOVF   x62,W
0341C:  SUBWF  x60,W
0341E:  BC    342A
....................       { 
....................          xmin = x1; 
03420:  MOVFF  660,667
....................          xmax = x2; 
03424:  MOVFF  662,668
....................       } 
....................       else 
03428:  BRA    3432
....................       { 
....................          xmin = x2; 
0342A:  MOVFF  662,667
....................          xmax = x1; 
0342E:  MOVFF  660,668
....................       } 
....................  
....................       if(y1 < y2)                            // Find the y min and max 
03432:  MOVF   x63,W
03434:  SUBWF  x61,W
03436:  BC    3442
....................       { 
....................          ymin = y1; 
03438:  MOVFF  661,669
....................          ymax = y2; 
0343C:  MOVFF  663,66A
....................       } 
....................       else 
03440:  BRA    344A
....................       { 
....................          ymin = y2; 
03442:  MOVFF  663,669
....................          ymax = y1; 
03446:  MOVFF  661,66A
....................       } 
....................  
....................       for(; xmin <= xmax; ++xmin) 
0344A:  MOVF   x67,W
0344C:  SUBWF  x68,W
0344E:  BNC   3474
....................       { 
....................          for(i=ymin; i<=ymax; ++i) 
03450:  MOVFF  669,666
03454:  MOVF   x66,W
03456:  SUBWF  x6A,W
03458:  BNC   3470
....................          { 
....................             glcd_pixel(xmin, i, color); 
0345A:  MOVFF  667,67B
0345E:  MOVFF  666,67C
03462:  MOVFF  665,67D
03466:  MOVLB  0
03468:  RCALL  321A
....................          } 
0346A:  MOVLB  6
0346C:  INCF   x66,F
0346E:  BRA    3454
....................       } 
03470:  INCF   x67,F
03472:  BRA    344A
....................    } 
....................    else 
03474:  BRA    34D2
....................    { 
....................       glcd_line(x1, y1, x2, y1, color);      // Draw the 4 sides 
03476:  MOVFF  660,66B
0347A:  MOVFF  661,66C
0347E:  MOVFF  662,66D
03482:  MOVFF  661,66E
03486:  MOVFF  665,66F
0348A:  MOVLB  0
0348C:  RCALL  32D6
....................       glcd_line(x1, y2, x2, y2, color); 
0348E:  MOVFF  660,66B
03492:  MOVFF  663,66C
03496:  MOVFF  662,66D
0349A:  MOVFF  663,66E
0349E:  MOVFF  665,66F
034A2:  RCALL  32D6
....................       glcd_line(x1, y1, x1, y2, color); 
034A4:  MOVFF  660,66B
034A8:  MOVFF  661,66C
034AC:  MOVFF  660,66D
034B0:  MOVFF  663,66E
034B4:  MOVFF  665,66F
034B8:  RCALL  32D6
....................       glcd_line(x2, y1, x2, y2, color); 
034BA:  MOVFF  662,66B
034BE:  MOVFF  661,66C
034C2:  MOVFF  662,66D
034C6:  MOVFF  663,66E
034CA:  MOVFF  665,66F
034CE:  RCALL  32D6
034D0:  MOVLB  6
....................    } 
.................... } 
034D2:  MOVLB  0
034D4:  RETLW  00
....................  
.................... ///////////////////////////////////////////////////////////////////////// 
.................... // Purpose:       Draw a bar (wide line) on a graphic LCD 
.................... // Inputs:        (x1, y1) - the start coordinate 
.................... //                (x2, y2) - the end coordinate 
.................... //                width  - The number of pixels wide 
.................... //                color - ON or OFF 
.................... ///////////////////////////////////////////////////////////////////////// 
.................... #ifdef LARGE_LCD 
.................... void glcd_bar(int16 x1, int16 y1, int16 x2, int16 y2, int8 width, int1 color) 
.................... #else 
.................... void glcd_bar(int8 x1, int8 y1, int8 x2, int8 y2, int8 width, int1 color) 
.................... #endif 
.................... { 
....................    int8         half_width; 
....................    signed int16 dy, dx; 
....................    signed int8  addx=1, addy=1, j; 
....................    signed int16 P, diff, c1, c2; 
....................  
....................    #ifdef LARGE_LCD 
....................    int16 i=0; 
....................    dx = abs((signed int16)(x2 - x1)); 
....................    dy = abs((signed int16)(y2 - y1)); 
....................    #else 
....................    int8 i=0; 
....................    dx = abs((signed int8)(x2 - x1)); 
....................    dy = abs((signed int8)(y2 - y1)); 
....................    #endif 
....................  
....................    half_width = width/2; 
....................    c1 = -(dx*x1 + dy*y1); 
....................    c2 = -(dx*x2 + dy*y2); 
....................  
....................    if(x1 > x2) 
....................    { 
....................       signed int16 temp; 
....................       temp = c1; 
....................       c1 = c2; 
....................       c2 = temp; 
....................       addx = -1; 
....................    } 
....................    if(y1 > y2) 
....................    { 
....................       signed int16 temp; 
....................       temp = c1; 
....................       c1 = c2; 
....................       c2 = temp; 
....................       addy = -1; 
....................    } 
....................  
....................    if(dx >= dy) 
....................    { 
....................       P = 2*dy - dx; 
....................       diff = P - dx; 
....................  
....................       for(i=0; i<=dx; ++i) 
....................       { 
....................          for(j=-half_width; j<half_width+width%2; ++j) 
....................          { 
....................             #ifdef LARGE_LCD 
....................             int16 temp; 
....................             #else 
....................             int8 temp; 
....................             #endif 
....................  
....................             temp = dx*x1+dy*(y1+j);    // Use more RAM to increase speed 
....................             if(temp+c1 >= 0 && temp+c2 <=0) 
....................                glcd_pixel(x1, y1+j, color); 
....................          } 
....................          if(P < 0) 
....................          { 
....................             P  += 2*dy; 
....................             x1 += addx; 
....................          } 
....................          else 
....................          { 
....................             P  += diff; 
....................             x1 += addx; 
....................             y1 += addy; 
....................          } 
....................       } 
....................    } 
....................    else 
....................    { 
....................       P = 2*dx - dy; 
....................       diff = P - dy; 
....................  
....................       for(i=0; i<=dy; ++i) 
....................       { 
....................          if(P < 0) 
....................          { 
....................             P  += 2*dx; 
....................             y1 += addy; 
....................          } 
....................          else 
....................          { 
....................             P  += diff; 
....................             x1 += addx; 
....................             y1 += addy; 
....................          } 
....................          for(j=-half_width; j<half_width+width%2; ++j) 
....................          { 
....................             #ifdef LARGE_LCD 
....................             int16 temp; 
....................             #else 
....................             int8 temp; 
....................             #endif 
....................  
....................             temp = dx*x1+dy*(y1+j);    // Use more RAM to increase speed 
....................             if(temp+c1 >= 0 && temp+c2 <=0) 
....................                glcd_pixel(x1+j, y1, color); 
....................          } 
....................       } 
....................    } 
.................... } 
....................  
....................  
.................... ///////////////////////////////////////////////////////////////////////// 
.................... // Purpose:       Draw a circle on a graphic LCD 
.................... // Inputs:        (x,y) - the center of the circle 
.................... //                radius - the radius of the circle 
.................... //                fill - YES or NO 
.................... //                color - ON or OFF 
.................... ///////////////////////////////////////////////////////////////////////// 
.................... #ifdef LARGE_LCD 
.................... void glcd_circle(int16 x, int16 y, int16 radius, int1 fill, int1 color) 
.................... #else 
.................... void glcd_circle(int8 x, int8 y, int8 radius, int1 fill, int1 color) 
.................... #endif 
.................... { 
....................    #ifdef LARGE_LCD 
....................    signed int16 a, b, P; 
....................    #else 
....................    signed int8  a, b, P; 
....................    #endif 
....................  
....................    a = 0; 
....................    b = radius; 
....................    P = 1 - radius; 
....................  
....................    do 
....................    { 
....................       if(fill) 
....................       { 
....................          glcd_line(x-a, y+b, x+a, y+b, color); 
....................          glcd_line(x-a, y-b, x+a, y-b, color); 
....................          glcd_line(x-b, y+a, x+b, y+a, color); 
....................          glcd_line(x-b, y-a, x+b, y-a, color); 
....................       } 
....................       else 
....................       { 
....................          glcd_pixel(a+x, b+y, color); 
....................          glcd_pixel(b+x, a+y, color); 
....................          glcd_pixel(x-a, b+y, color); 
....................          glcd_pixel(x-b, a+y, color); 
....................          glcd_pixel(b+x, y-a, color); 
....................          glcd_pixel(a+x, y-b, color); 
....................          glcd_pixel(x-a, y-b, color); 
....................          glcd_pixel(x-b, y-a, color); 
....................       } 
....................  
....................       if(P < 0) 
....................          P += 3 + 2 * a++; 
....................       else 
....................          P += 5 + 2 * (a++ - b--); 
....................     } while(a <= b); 
.................... } 
....................  
....................  
.................... ///////////////////////////////////////////////////////////////////////// 
.................... // Purpose:       Write text on a graphic LCD 
.................... // Inputs:        (x,y) - The upper left coordinate of the first letter 
.................... //                textptr - A pointer to an array of text to display 
.................... //                size - The size of the text: 1 = 5x7, 2 = 10x14, ... 
.................... //                color - ON or OFF 
.................... ///////////////////////////////////////////////////////////////////////// 
.................... #ifdef LARGE_LCD 
.................... void glcd_text57(int16 x, int16 y, char* textptr, int8 size, int1 color) 
.................... #else 
.................... void glcd_text57(int8 x, int8 y, char* textptr, int8 size, int1 color) 
.................... #endif 
.................... { 
....................    int8 j, k, l, m;                       // Loop counters 
....................    int8 pixelData[5];                     // Stores character data 
....................  
....................    for(; *textptr != '\0'; ++textptr, ++x)// Loop through the passed string 
034D6:  MOVFF  663,03
034DA:  MOVLB  6
034DC:  MOVFF  662,FE9
034E0:  MOVFF  663,FEA
034E4:  MOVF   FEF,F
034E6:  BTFSC  FD8.2
034E8:  BRA    368A
....................    { 
....................       if(*textptr < 'S') // Checks if the letter is in the first font array 
034EA:  MOVFF  663,03
034EE:  MOVFF  662,FE9
034F2:  MOVFF  663,FEA
034F6:  MOVF   FEF,W
034F8:  SUBLW  52
034FA:  BNC   354A
....................          memcpy(pixelData, FONT[*textptr - ' '], 5); 
034FC:  MOVFF  663,03
03500:  MOVFF  662,FE9
03504:  MOVFF  663,FEA
03508:  MOVLW  20
0350A:  SUBWF  FEF,W
0350C:  MULLW  05
0350E:  MOVF   FF3,W
03510:  CLRF   03
03512:  MOVWF  x6F
03514:  MOVLW  06
03516:  MOVWF  FEA
03518:  MOVLW  6A
0351A:  MOVWF  FE9
0351C:  CLRF   x73
0351E:  MOVFF  66F,672
03522:  MOVFF  FF2,670
03526:  BCF    FF2.7
03528:  MOVLW  05
0352A:  MOVWF  01
0352C:  CLRF   FF7
0352E:  MOVF   x6F,W
03530:  MOVLB  0
03532:  CALL   009E
03536:  TBLRD*-
03538:  TBLRD*+
0353A:  MOVFF  FF5,FEE
0353E:  DECFSZ 01,F
03540:  BRA    3538
03542:  MOVLB  6
03544:  BTFSC  x70.7
03546:  BSF    FF2.7
....................       else if(*textptr <= '~') // Check if the letter is in the second font array 
03548:  BRA    35B4
0354A:  MOVFF  663,03
0354E:  MOVFF  662,FE9
03552:  MOVFF  663,FEA
03556:  MOVF   FEF,W
03558:  SUBLW  7E
0355A:  BNC   35AA
....................          memcpy(pixelData, FONT2[*textptr - 'S'], 5); 
0355C:  MOVFF  663,03
03560:  MOVFF  662,FE9
03564:  MOVFF  663,FEA
03568:  MOVLW  53
0356A:  SUBWF  FEF,W
0356C:  MULLW  05
0356E:  MOVF   FF3,W
03570:  CLRF   03
03572:  MOVWF  x6F
03574:  MOVLW  06
03576:  MOVWF  FEA
03578:  MOVLW  6A
0357A:  MOVWF  FE9
0357C:  CLRF   x73
0357E:  MOVFF  66F,672
03582:  MOVFF  FF2,670
03586:  BCF    FF2.7
03588:  MOVLW  05
0358A:  MOVWF  01
0358C:  CLRF   FF7
0358E:  MOVF   x6F,W
03590:  MOVLB  0
03592:  CALL   01BC
03596:  TBLRD*-
03598:  TBLRD*+
0359A:  MOVFF  FF5,FEE
0359E:  DECFSZ 01,F
035A0:  BRA    3598
035A2:  MOVLB  6
035A4:  BTFSC  x70.7
035A6:  BSF    FF2.7
....................       else 
035A8:  BRA    35B4
....................          memcpy(pixelData, FONT[0], 5);   // Default to space 
035AA:  CLRF   x6A
035AC:  CLRF   x6B
035AE:  CLRF   x6C
035B0:  CLRF   x6D
035B2:  CLRF   x6E
....................  
....................       // Handles newline and carriage returns 
....................       switch(*textptr) 
....................       { 
035B4:  MOVFF  663,03
035B8:  MOVF   x62,W
035BA:  MOVWF  FE9
035BC:  MOVFF  03,FEA
035C0:  MOVF   FEF,W
035C2:  XORLW  0A
035C4:  MOVLB  0
035C6:  BZ    35CE
035C8:  XORLW  07
035CA:  BZ    35DE
035CC:  BRA    35E4
....................          case '\n': 
....................             y += 7*size + 1; 
035CE:  MOVLB  6
035D0:  MOVF   x64,W
035D2:  MULLW  07
035D4:  MOVF   FF3,W
035D6:  ADDLW  01
035D8:  ADDWF  x61,F
....................             continue; 
035DA:  BRA    367C
035DC:  MOVLB  0
....................          case '\r': 
....................             x = 0; 
035DE:  MOVLB  6
035E0:  CLRF   x60
....................             continue; 
035E2:  BRA    367C
....................       } 
....................  
....................       if(x+5*size >= GLCD_WIDTH)          // Performs character wrapping 
035E4:  MOVLB  6
035E6:  MOVF   x64,W
035E8:  MULLW  05
035EA:  MOVF   FF3,W
035EC:  ADDWF  x60,W
035EE:  SUBLW  7F
035F0:  BC    35FE
....................       { 
....................          x = 0;                           // Set x at far left position 
035F2:  CLRF   x60
....................          y += 7*size + 1;                 // Set y at next position down 
035F4:  MOVF   x64,W
035F6:  MULLW  07
035F8:  MOVF   FF3,W
035FA:  ADDLW  01
035FC:  ADDWF  x61,F
....................       } 
....................       for(j=0; j<5; ++j, x+=size)         // Loop through character byte data 
035FE:  CLRF   x66
03600:  MOVF   x66,W
03602:  SUBLW  04
03604:  BNC   367C
....................       { 
....................          for(k=0; k < 7; ++k)             // Loop through the vertical pixels 
03606:  CLRF   x67
03608:  MOVF   x67,W
0360A:  SUBLW  06
0360C:  BNC   3674
....................          { 
....................             if(bit_test(pixelData[j], k)) // Check if the pixel should be set 
0360E:  CLRF   03
03610:  MOVF   x66,W
03612:  ADDLW  6A
03614:  MOVWF  FE9
03616:  MOVLW  06
03618:  ADDWFC 03,W
0361A:  MOVWF  FEA
0361C:  MOVFF  FEF,66F
03620:  MOVFF  66F,00
03624:  MOVF   x67,W
03626:  MOVWF  01
03628:  BZ    3632
0362A:  BCF    FD8.0
0362C:  RRCF   00,F
0362E:  DECFSZ 01,F
03630:  BRA    362A
03632:  BTFSS  00.0
03634:  BRA    3670
....................             { 
....................                for(l=0; l < size; ++l)    // These two loops change the 
03636:  CLRF   x68
03638:  MOVF   x64,W
0363A:  SUBWF  x68,W
0363C:  BC    3670
....................                {                          // character's size 
....................                   for(m=0; m < size; ++m) 
0363E:  CLRF   x69
03640:  MOVF   x64,W
03642:  SUBWF  x69,W
03644:  BC    366C
....................                   { 
....................                      glcd_pixel(x+m, y+k*size+l, color); // Draws the pixel 
03646:  MOVF   x69,W
03648:  ADDWF  x60,W
0364A:  MOVWF  x6F
0364C:  MOVF   x67,W
0364E:  MULWF  x64
03650:  MOVF   FF3,W
03652:  ADDWF  x61,W
03654:  ADDWF  x68,W
03656:  MOVWF  x70
03658:  MOVFF  66F,67B
0365C:  MOVWF  x7C
0365E:  MOVFF  665,67D
03662:  MOVLB  0
03664:  RCALL  321A
....................                   } 
03666:  MOVLB  6
03668:  INCF   x69,F
0366A:  BRA    3640
....................                } 
0366C:  INCF   x68,F
0366E:  BRA    3638
....................             } 
....................          } 
03670:  INCF   x67,F
03672:  BRA    3608
....................       } 
03674:  INCF   x66,F
03676:  MOVF   x64,W
03678:  ADDWF  x60,F
0367A:  BRA    3600
....................    } 
0367C:  INCF   x62,F
0367E:  BTFSC  FD8.2
03680:  INCF   x63,F
03682:  INCF   x60,F
03684:  MOVLB  0
03686:  BRA    34D6
03688:  MOVLB  6
.................... } 
0368A:  MOVLB  0
0368C:  RETLW  00
....................  
.................... #endif 
....................  
.................... #include "imagen.h" 
.................... const int8 Bombillo [64][16] = { 
.................... 0x00, 0x00, 0x00, 0x00, 0x00, 0x00, 0x00, 0x00, 0x00, 0x00, 0x00, 0x00, 0x00, 0x00, 0x00, 0x00, 
.................... 0x00, 0x00, 0x00, 0x00, 0x00, 0x00, 0x00, 0x00, 0x00, 0x00, 0x00, 0x00, 0x00, 0x00, 0x00, 0x00, 
.................... 0x00, 0x00, 0x00, 0x00, 0x00, 0x00, 0x00, 0x00, 0x00, 0x00, 0x00, 0x00, 0x00, 0x00, 0x00, 0x00, 
.................... 0x00, 0x00, 0x00, 0x00, 0x00, 0x00, 0x00, 0x00, 0x00, 0x00, 0x00, 0x00, 0x00, 0x00, 0x00, 0x00, 
.................... 0x00, 0x00, 0x00, 0x00, 0x00, 0x00, 0x00, 0x00, 0x00, 0x00, 0x00, 0x00, 0x00, 0x00, 0x00, 0x00, 
.................... 0x00, 0x00, 0x00, 0x00, 0x00, 0x00, 0x00, 0x00, 0x00, 0x00, 0x00, 0x00, 0x00, 0x00, 0x00, 0x00, 
.................... 0x00, 0x00, 0x00, 0x00, 0x00, 0x00, 0x00, 0x00, 0x00, 0x00, 0x00, 0x00, 0x00, 0x00, 0x00, 0x00, 
.................... 0x00, 0x00, 0x00, 0x00, 0x00, 0x00, 0x00, 0x00, 0x00, 0x00, 0x00, 0x00, 0x00, 0x00, 0x00, 0x00, 
.................... 0x00, 0x00, 0x00, 0x00, 0x00, 0x00, 0x00, 0x00, 0x00, 0x00, 0x00, 0x00, 0x00, 0x00, 0x00, 0x00, 
.................... 0x00, 0x00, 0x00, 0x00, 0x00, 0x00, 0x00, 0x00, 0x00, 0x00, 0x00, 0x00, 0x00, 0x00, 0x00, 0x00, 
.................... 0x00, 0x00, 0x00, 0x00, 0x00, 0x00, 0x00, 0x00, 0x00, 0x00, 0x00, 0x00, 0x00, 0x00, 0x00, 0x00, 
.................... 0x00, 0x00, 0x00, 0x00, 0x00, 0x00, 0x00, 0x00, 0x00, 0x00, 0x00, 0x00, 0x00, 0x00, 0x00, 0x00, 
.................... 0x00, 0x00, 0x00, 0x00, 0x00, 0x00, 0x00, 0x00, 0x00, 0x00, 0x00, 0x00, 0x00, 0x00, 0x00, 0x00, 
.................... 0x00, 0x00, 0x00, 0x00, 0x00, 0x00, 0x00, 0x00, 0x00, 0x00, 0x00, 0x00, 0x00, 0x00, 0x00, 0x00, 
.................... 0x00, 0x00, 0x00, 0x00, 0x00, 0x00, 0x00, 0x00, 0x00, 0x00, 0x00, 0x00, 0x00, 0x00, 0x00, 0x00, 
.................... 0x00, 0x00, 0x00, 0x00, 0x00, 0x00, 0x00, 0x00, 0x00, 0x00, 0x00, 0x00, 0x00, 0x08, 0x00, 0x80, 
.................... 0x00, 0x00, 0x00, 0x00, 0x00, 0x00, 0x00, 0x00, 0x00, 0x00, 0x00, 0x00, 0x00, 0x04, 0x01, 0x00, 
.................... 0x00, 0x00, 0x00, 0x00, 0x00, 0x00, 0x00, 0x00, 0x00, 0x00, 0x00, 0x00, 0x00, 0x02, 0x02, 0x00, 
.................... 0x00, 0x00, 0x00, 0x00, 0x00, 0x00, 0x00, 0x00, 0x00, 0x00, 0x00, 0x00, 0x00, 0x00, 0x78, 0x00, 
.................... 0x00, 0x00, 0x00, 0x00, 0x00, 0x00, 0x00, 0x00, 0x00, 0x00, 0x00, 0x00, 0x00, 0x00, 0x84, 0x00, 
.................... 0x00, 0x00, 0x00, 0x00, 0x00, 0x00, 0x00, 0x00, 0x00, 0x00, 0x00, 0x00, 0x00, 0x01, 0x02, 0x00, 
.................... 0x00, 0x00, 0x00, 0x00, 0x00, 0x00, 0x00, 0x00, 0x00, 0x00, 0x00, 0x00, 0x00, 0xF9, 0x02, 0xF8, 
.................... 0x00, 0x00, 0x00, 0x00, 0x00, 0x00, 0x00, 0x00, 0x00, 0x00, 0x00, 0x00, 0x00, 0x01, 0x02, 0x00, 
.................... 0x00, 0x00, 0x00, 0x00, 0x00, 0x00, 0x00, 0x00, 0x00, 0x00, 0x00, 0x00, 0x00, 0x01, 0x02, 0x00, 
.................... 0x00, 0x00, 0x00, 0x00, 0x00, 0x00, 0x00, 0x00, 0x00, 0x00, 0x00, 0x00, 0x00, 0x04, 0x84, 0x80, 
.................... 0x00, 0x00, 0x00, 0x00, 0x00, 0x00, 0x00, 0x00, 0x00, 0x00, 0x00, 0x00, 0x00, 0x08, 0x78, 0x40, 
.................... 0x00, 0x00, 0x00, 0x00, 0x00, 0x00, 0x00, 0x00, 0x00, 0x00, 0x00, 0x00, 0x00, 0x10, 0x48, 0x20, 
.................... 0x00, 0x00, 0x00, 0x00, 0x00, 0x00, 0x00, 0x00, 0x00, 0x00, 0x00, 0x00, 0x00, 0x20, 0x48, 0x10, 
.................... 0x00, 0x00, 0x00, 0x00, 0x00, 0x00, 0x00, 0x00, 0x00, 0x00, 0x00, 0x00, 0x00, 0x00, 0x78, 0x00, 
.................... 0x00, 0x00, 0x00, 0x00, 0x00, 0x00, 0x00, 0x00, 0x00, 0x00, 0x00, 0x00, 0x00, 0x00, 0x00, 0x00, 
.................... 0x00, 0x00, 0x00, 0x00, 0x00, 0x00, 0x00, 0x00, 0x00, 0x00, 0x00, 0x00, 0x00, 0x00, 0x00, 0x00, 
.................... 0x00, 0x00, 0x00, 0x00, 0x00, 0x00, 0x00, 0x00, 0x00, 0x00, 0x00, 0x00, 0x00, 0x00, 0x00, 0x00, 
.................... 0x00, 0x00, 0x00, 0x00, 0x00, 0x00, 0x00, 0x00, 0x00, 0x00, 0x00, 0x00, 0x00, 0x00, 0x00, 0x00, 
.................... 0x00, 0x00, 0x00, 0x00, 0x00, 0x00, 0x00, 0x00, 0x00, 0x00, 0x00, 0x00, 0x00, 0x00, 0x00, 0x00, 
.................... 0x00, 0x00, 0x00, 0x00, 0x00, 0x00, 0x00, 0x00, 0x00, 0x00, 0x00, 0x00, 0x00, 0x00, 0x00, 0x00, 
.................... 0x00, 0x00, 0x00, 0x00, 0x00, 0x00, 0x00, 0x00, 0x00, 0x00, 0x00, 0x00, 0x00, 0x00, 0x00, 0x00, 
.................... 0x00, 0x00, 0x00, 0x00, 0x00, 0x00, 0x00, 0x00, 0x00, 0x00, 0x00, 0x00, 0x00, 0x00, 0x00, 0x00, 
.................... 0x00, 0x00, 0x00, 0x00, 0x00, 0x00, 0x00, 0x00, 0x00, 0x00, 0x00, 0x00, 0x00, 0x00, 0x00, 0x00, 
.................... 0x00, 0x00, 0x00, 0x00, 0x00, 0x00, 0x00, 0x00, 0x00, 0x00, 0x00, 0x00, 0x00, 0x00, 0x00, 0x00, 
.................... 0x00, 0x00, 0x00, 0x00, 0x00, 0x00, 0x00, 0x00, 0x00, 0x00, 0x00, 0x00, 0x00, 0x00, 0x00, 0x00, 
.................... 0x00, 0x00, 0x00, 0x00, 0x00, 0x00, 0x00, 0x00, 0x00, 0x00, 0x00, 0x00, 0x00, 0x00, 0x00, 0x00, 
.................... 0x00, 0x00, 0x00, 0x00, 0x00, 0x00, 0x00, 0x00, 0x00, 0x00, 0x00, 0x00, 0x00, 0x00, 0x00, 0x00, 
.................... 0x00, 0x00, 0x00, 0x00, 0x00, 0x00, 0x00, 0x00, 0x00, 0x00, 0x00, 0x00, 0x00, 0x00, 0x00, 0x00, 
.................... 0x00, 0x00, 0x00, 0x00, 0x00, 0x00, 0x00, 0x00, 0x00, 0x00, 0x00, 0x00, 0x00, 0x00, 0x00, 0x00, 
.................... 0x00, 0x00, 0x00, 0x00, 0x00, 0x00, 0x00, 0x00, 0x00, 0x00, 0x00, 0x00, 0x00, 0x00, 0x00, 0x00, 
.................... 0x00, 0x00, 0x00, 0x00, 0x00, 0x00, 0x00, 0x00, 0x00, 0x00, 0x00, 0x00, 0x00, 0x00, 0x00, 0x00, 
.................... 0x00, 0x00, 0x00, 0x00, 0x00, 0x00, 0x00, 0x00, 0x00, 0x00, 0x00, 0x00, 0x00, 0x00, 0x00, 0x00, 
.................... 0x00, 0x00, 0x00, 0x00, 0x00, 0x00, 0x00, 0x00, 0x00, 0x00, 0x00, 0x00, 0x00, 0x00, 0x00, 0x00, 
.................... 0x00, 0x00, 0x00, 0x00, 0x00, 0x00, 0x00, 0x00, 0x00, 0x00, 0x00, 0x00, 0x00, 0x00, 0x00, 0x00, 
.................... 0x00, 0x00, 0x00, 0x00, 0x00, 0x00, 0x00, 0x00, 0x00, 0x00, 0x00, 0x00, 0x00, 0x00, 0x00, 0x00, 
.................... 0x00, 0x00, 0x00, 0x00, 0x00, 0x00, 0x00, 0x00, 0x00, 0x00, 0x00, 0x00, 0x00, 0x00, 0x00, 0x00, 
.................... 0x00, 0x00, 0x00, 0x00, 0x00, 0x00, 0x00, 0x00, 0x00, 0x00, 0x00, 0x00, 0x00, 0x00, 0x00, 0x00, 
.................... 0x00, 0x00, 0x00, 0x00, 0x00, 0x00, 0x00, 0x00, 0x00, 0x00, 0x00, 0x00, 0x00, 0x00, 0x00, 0x00, 
.................... 0x00, 0x00, 0x00, 0x00, 0x00, 0x00, 0x00, 0x00, 0x00, 0x00, 0x00, 0x00, 0x00, 0x00, 0x00, 0x00, 
.................... 0x00, 0x00, 0x00, 0x00, 0x00, 0x00, 0x00, 0x00, 0x00, 0x00, 0x00, 0x00, 0x00, 0x00, 0x00, 0x00, 
.................... 0x00, 0x00, 0x00, 0x00, 0x00, 0x00, 0x00, 0x00, 0x00, 0x00, 0x00, 0x00, 0x00, 0x00, 0x00, 0x00, 
.................... 0x00, 0x00, 0x00, 0x00, 0x00, 0x00, 0x00, 0x00, 0x00, 0x00, 0x00, 0x00, 0x00, 0x00, 0x00, 0x00, 
.................... 0x00, 0x00, 0x00, 0x00, 0x00, 0x00, 0x00, 0x00, 0x00, 0x00, 0x00, 0x00, 0x00, 0x00, 0x00, 0x00, 
.................... 0x00, 0x00, 0x00, 0x00, 0x00, 0x00, 0x00, 0x00, 0x00, 0x00, 0x00, 0x00, 0x00, 0x00, 0x00, 0x00, 
.................... 0x00, 0x00, 0x00, 0x00, 0x00, 0x00, 0x00, 0x00, 0x00, 0x00, 0x00, 0x00, 0x00, 0x00, 0x00, 0x00, 
.................... 0x00, 0x00, 0x00, 0x00, 0x00, 0x00, 0x00, 0x00, 0x00, 0x00, 0x00, 0x00, 0x00, 0x00, 0x00, 0x00, 
.................... 0x00, 0x00, 0x00, 0x00, 0x00, 0x00, 0x00, 0x00, 0x00, 0x00, 0x00, 0x00, 0x00, 0x00, 0x00, 0x00, 
.................... 0x00, 0x00, 0x00, 0x00, 0x00, 0x00, 0x00, 0x00, 0x00, 0x00, 0x00, 0x00, 0x00, 0x00, 0x00, 0x00, 
.................... 0x00, 0x00, 0x00, 0x00, 0x00, 0x00, 0x00, 0x00, 0x00, 0x00, 0x00, 0x00, 0x00, 0x00, 0x00, 0x00 
.................... }; 
....................  
.................... const int8 Tomai [64][16] = { 
.................... 0x00, 0x00, 0x00, 0x00, 0x00, 0x00, 0x00, 0x00, 0x00, 0x00, 0x00, 0x00, 0x00, 0x00, 0x00, 0x00, 
.................... 0x00, 0x00, 0x00, 0x00, 0x00, 0x00, 0x00, 0x00, 0x00, 0x00, 0x00, 0x00, 0x00, 0x00, 0x00, 0x00, 
.................... 0x00, 0x00, 0x00, 0x00, 0x00, 0x00, 0x00, 0x00, 0x00, 0x00, 0x00, 0x00, 0x00, 0x00, 0x00, 0x00, 
.................... 0x00, 0x00, 0x00, 0x00, 0x00, 0x00, 0x00, 0x00, 0x00, 0x00, 0x00, 0x00, 0x00, 0x00, 0x00, 0x00, 
.................... 0x00, 0x00, 0x00, 0x00, 0x00, 0x00, 0x00, 0x00, 0x00, 0x00, 0x00, 0x00, 0x00, 0x00, 0x00, 0x00, 
.................... 0x00, 0x00, 0x00, 0x00, 0x00, 0x00, 0x00, 0x00, 0x00, 0x00, 0x00, 0x00, 0x00, 0x00, 0x00, 0x00, 
.................... 0x00, 0x00, 0x00, 0x00, 0x00, 0x00, 0x00, 0x00, 0x00, 0x00, 0x00, 0x00, 0x00, 0x00, 0x00, 0x00, 
.................... 0x00, 0x00, 0x00, 0x00, 0x00, 0x00, 0x00, 0x00, 0x00, 0x00, 0x00, 0x00, 0x00, 0x00, 0x00, 0x00, 
.................... 0x00, 0x00, 0x00, 0x00, 0x00, 0x00, 0x00, 0x00, 0x00, 0x00, 0x00, 0x00, 0x00, 0x00, 0x00, 0x00, 
.................... 0x00, 0x00, 0x00, 0x00, 0x00, 0x00, 0x00, 0x00, 0x00, 0x00, 0x00, 0x00, 0x00, 0x00, 0x00, 0x00, 
.................... 0x00, 0x00, 0x00, 0x00, 0x00, 0x00, 0x00, 0x00, 0x00, 0x00, 0x00, 0x00, 0x00, 0x00, 0x00, 0x00, 
.................... 0x00, 0x00, 0x00, 0x00, 0x00, 0x00, 0x00, 0x00, 0x00, 0x00, 0x00, 0x00, 0x00, 0x00, 0x00, 0x00, 
.................... 0x00, 0x00, 0x00, 0x00, 0x00, 0x00, 0x00, 0x00, 0x00, 0x00, 0x00, 0x00, 0x00, 0x00, 0x00, 0x00, 
.................... 0x00, 0x00, 0x00, 0x00, 0x00, 0x00, 0x00, 0x00, 0x00, 0x00, 0x00, 0x00, 0x00, 0x00, 0x00, 0x00, 
.................... 0x00, 0x00, 0x00, 0x00, 0x00, 0x00, 0x00, 0x00, 0x00, 0x00, 0x00, 0x00, 0x00, 0x00, 0x00, 0x00, 
.................... 0x00, 0x00, 0x00, 0x00, 0x00, 0x00, 0x00, 0x00, 0x00, 0x00, 0x00, 0x00, 0x00, 0x00, 0x00, 0x00, 
.................... 0x00, 0x00, 0x00, 0x00, 0x00, 0x00, 0x00, 0x00, 0x00, 0x00, 0x00, 0x00, 0x00, 0x00, 0x00, 0x00, 
.................... 0x00, 0x00, 0x00, 0x00, 0x00, 0x00, 0x00, 0x00, 0x00, 0x00, 0x00, 0x00, 0x00, 0x00, 0x00, 0x00, 
.................... 0x00, 0x00, 0x00, 0x00, 0x00, 0x00, 0x00, 0x00, 0x00, 0x00, 0x00, 0x00, 0x00, 0x00, 0x00, 0x00, 
.................... 0x00, 0x00, 0x00, 0x00, 0x00, 0x00, 0x00, 0x00, 0x00, 0x00, 0x00, 0x00, 0x00, 0x00, 0x00, 0x00, 
.................... 0x00, 0x00, 0x00, 0x00, 0x00, 0x00, 0x00, 0x00, 0x00, 0x00, 0x00, 0x00, 0x00, 0x00, 0x00, 0x00, 
.................... 0x00, 0x00, 0x00, 0x00, 0x00, 0x00, 0x00, 0x00, 0x00, 0x00, 0x00, 0x00, 0x00, 0x00, 0x00, 0x00, 
.................... 0x00, 0x00, 0x00, 0x00, 0x00, 0x00, 0x00, 0x00, 0x00, 0x00, 0x00, 0x00, 0x00, 0x00, 0x00, 0x00, 
.................... 0x00, 0x00, 0x00, 0x00, 0x00, 0x00, 0x00, 0x00, 0x00, 0x00, 0x00, 0x00, 0x00, 0x00, 0x00, 0x00, 
.................... 0x00, 0x00, 0x00, 0x00, 0x00, 0x00, 0x00, 0x00, 0x00, 0x00, 0x00, 0x00, 0x00, 0x00, 0x00, 0x00, 
.................... 0x00, 0x00, 0x00, 0x00, 0x00, 0x00, 0x00, 0x00, 0x00, 0x00, 0x00, 0x00, 0x00, 0x00, 0x00, 0x00, 
.................... 0x00, 0x00, 0x00, 0x00, 0x00, 0x00, 0x00, 0x00, 0x00, 0x00, 0x00, 0x00, 0x00, 0x00, 0x00, 0x00, 
.................... 0x00, 0x00, 0x00, 0x00, 0x00, 0x00, 0x00, 0x00, 0x00, 0x00, 0x00, 0x00, 0x00, 0x00, 0x00, 0x00, 
.................... 0x00, 0x00, 0x00, 0x00, 0x00, 0x00, 0x00, 0x00, 0x00, 0x00, 0x00, 0x00, 0x00, 0x00, 0x00, 0x00, 
.................... 0x00, 0x00, 0x00, 0x00, 0x00, 0x00, 0x00, 0x00, 0x00, 0x00, 0x00, 0x00, 0x00, 0x00, 0x00, 0x00, 
.................... 0x00, 0x00, 0x00, 0x00, 0x00, 0x00, 0x00, 0x00, 0x00, 0x00, 0x00, 0x00, 0x00, 0x7F, 0xFF, 0xF8, 
.................... 0x00, 0x00, 0x00, 0x00, 0x00, 0x00, 0x00, 0x00, 0x00, 0x00, 0x00, 0x00, 0x00, 0x40, 0x00, 0x08, 
.................... 0x00, 0x00, 0x00, 0x00, 0x00, 0x00, 0x00, 0x00, 0x00, 0x00, 0x00, 0x00, 0x00, 0x47, 0x03, 0x88, 
.................... 0x00, 0x00, 0x00, 0x00, 0x00, 0x00, 0x00, 0x00, 0x00, 0x00, 0x00, 0x00, 0x00, 0x45, 0x02, 0x88, 
.................... 0x00, 0x00, 0x00, 0x00, 0x00, 0x00, 0x00, 0x00, 0x00, 0x00, 0x00, 0x00, 0x00, 0x45, 0x02, 0x88, 
.................... 0x00, 0x00, 0x00, 0x00, 0x00, 0x00, 0x00, 0x00, 0x00, 0x00, 0x00, 0x00, 0x00, 0x45, 0x02, 0x88, 
.................... 0x00, 0x00, 0x00, 0x00, 0x00, 0x00, 0x00, 0x00, 0x00, 0x00, 0x00, 0x00, 0x00, 0x45, 0x02, 0x88, 
.................... 0x00, 0x00, 0x00, 0x00, 0x00, 0x00, 0x00, 0x00, 0x00, 0x00, 0x00, 0x00, 0x00, 0x47, 0x03, 0x88, 
.................... 0x00, 0x00, 0x00, 0x00, 0x00, 0x00, 0x00, 0x00, 0x00, 0x00, 0x00, 0x00, 0x00, 0x40, 0x00, 0x08, 
.................... 0x00, 0x00, 0x00, 0x00, 0x00, 0x00, 0x00, 0x00, 0x00, 0x00, 0x00, 0x00, 0x00, 0x40, 0xFC, 0x08, 
.................... 0x00, 0x00, 0x00, 0x00, 0x00, 0x00, 0x00, 0x00, 0x00, 0x00, 0x00, 0x00, 0x00, 0x40, 0x84, 0x08, 
.................... 0x00, 0x00, 0x00, 0x00, 0x00, 0x00, 0x00, 0x00, 0x00, 0x00, 0x00, 0x00, 0x00, 0x40, 0x84, 0x08, 
.................... 0x00, 0x00, 0x00, 0x00, 0x00, 0x00, 0x00, 0x00, 0x00, 0x00, 0x00, 0x00, 0x00, 0x40, 0xFC, 0x08, 
.................... 0x00, 0x00, 0x00, 0x00, 0x00, 0x00, 0x00, 0x00, 0x00, 0x00, 0x00, 0x00, 0x00, 0x40, 0x00, 0x08, 
.................... 0x00, 0x00, 0x00, 0x00, 0x00, 0x00, 0x00, 0x00, 0x00, 0x00, 0x00, 0x00, 0x00, 0x7F, 0xFF, 0xF8, 
.................... 0x00, 0x00, 0x00, 0x00, 0x00, 0x00, 0x00, 0x00, 0x00, 0x00, 0x00, 0x00, 0x00, 0x00, 0x00, 0x00, 
.................... 0x00, 0x00, 0x00, 0x00, 0x00, 0x00, 0x00, 0x00, 0x00, 0x00, 0x00, 0x00, 0x00, 0x00, 0x00, 0x00, 
.................... 0x00, 0x00, 0x00, 0x00, 0x00, 0x00, 0x00, 0x00, 0x00, 0x00, 0x00, 0x00, 0x00, 0x00, 0x00, 0x00, 
.................... 0x00, 0x00, 0x00, 0x00, 0x00, 0x00, 0x00, 0x00, 0x00, 0x00, 0x00, 0x00, 0x00, 0x00, 0x00, 0x00, 
.................... 0x00, 0x00, 0x00, 0x00, 0x00, 0x00, 0x00, 0x00, 0x00, 0x00, 0x00, 0x00, 0x00, 0x00, 0x00, 0x00, 
.................... 0x00, 0x00, 0x00, 0x00, 0x00, 0x00, 0x00, 0x00, 0x00, 0x00, 0x00, 0x00, 0x00, 0x00, 0x00, 0x00, 
.................... 0x00, 0x00, 0x00, 0x00, 0x00, 0x00, 0x00, 0x00, 0x00, 0x00, 0x00, 0x00, 0x00, 0x00, 0x00, 0x00, 
.................... 0x00, 0x00, 0x00, 0x00, 0x00, 0x00, 0x00, 0x00, 0x00, 0x00, 0x00, 0x00, 0x00, 0x00, 0x00, 0x00, 
.................... 0x00, 0x00, 0x00, 0x00, 0x00, 0x00, 0x00, 0x00, 0x00, 0x00, 0x00, 0x00, 0x00, 0x00, 0x00, 0x00, 
.................... 0x00, 0x00, 0x00, 0x00, 0x00, 0x00, 0x00, 0x00, 0x00, 0x00, 0x00, 0x00, 0x00, 0x00, 0x00, 0x00, 
.................... 0x00, 0x00, 0x00, 0x00, 0x00, 0x00, 0x00, 0x00, 0x00, 0x00, 0x00, 0x00, 0x00, 0x00, 0x00, 0x00, 
.................... 0x00, 0x00, 0x00, 0x00, 0x00, 0x00, 0x00, 0x00, 0x00, 0x00, 0x00, 0x00, 0x00, 0x00, 0x00, 0x00, 
.................... 0x00, 0x00, 0x00, 0x00, 0x00, 0x00, 0x00, 0x00, 0x00, 0x00, 0x00, 0x00, 0x00, 0x00, 0x00, 0x00, 
.................... 0x00, 0x00, 0x00, 0x00, 0x00, 0x00, 0x00, 0x00, 0x00, 0x00, 0x00, 0x00, 0x00, 0x00, 0x00, 0x00, 
.................... 0x00, 0x00, 0x00, 0x00, 0x00, 0x00, 0x00, 0x00, 0x00, 0x00, 0x00, 0x00, 0x00, 0x00, 0x00, 0x00, 
.................... 0x00, 0x00, 0x00, 0x00, 0x00, 0x00, 0x00, 0x00, 0x00, 0x00, 0x00, 0x00, 0x00, 0x00, 0x00, 0x00, 
.................... 0x00, 0x00, 0x00, 0x00, 0x00, 0x00, 0x00, 0x00, 0x00, 0x00, 0x00, 0x00, 0x00, 0x00, 0x00, 0x00, 
.................... 0x00, 0x00, 0x00, 0x00, 0x00, 0x00, 0x00, 0x00, 0x00, 0x00, 0x00, 0x00, 0x00, 0x00, 0x00, 0x00, 
.................... 0x00, 0x00, 0x00, 0x00, 0x00, 0x00, 0x00, 0x00, 0x00, 0x00, 0x00, 0x00, 0x00, 0x00, 0x00, 0x00 
.................... }; 
....................  
.................... const int8 Ventilador [64][16] = { 
.................... 0x00, 0x00, 0x00, 0x00, 0x00, 0x00, 0x00, 0x00, 0x00, 0x00, 0x00, 0x00, 0x00, 0x00, 0x00, 0x00, 
.................... 0x00, 0x00, 0x00, 0x00, 0x00, 0x00, 0x00, 0x00, 0x00, 0x00, 0x00, 0x00, 0x00, 0x00, 0x00, 0x00, 
.................... 0x00, 0x00, 0x00, 0x00, 0x00, 0x00, 0x00, 0x00, 0x00, 0x00, 0x00, 0x00, 0x00, 0x00, 0x00, 0x00, 
.................... 0x00, 0x00, 0x00, 0x00, 0x00, 0x00, 0x00, 0x00, 0x00, 0x00, 0x00, 0x00, 0x00, 0x00, 0x00, 0x00, 
.................... 0x00, 0x00, 0x00, 0x00, 0x00, 0x00, 0x00, 0x00, 0x00, 0x00, 0x00, 0x00, 0x00, 0x00, 0x00, 0x00, 
.................... 0x00, 0x00, 0x00, 0x00, 0x00, 0x00, 0x00, 0x00, 0x00, 0x00, 0x00, 0x00, 0x00, 0x00, 0x00, 0x00, 
.................... 0x00, 0x00, 0x00, 0x00, 0x00, 0x00, 0x00, 0x00, 0x00, 0x00, 0x00, 0x00, 0x00, 0x00, 0x00, 0x00, 
.................... 0x00, 0x00, 0x00, 0x00, 0x00, 0x00, 0x00, 0x00, 0x00, 0x00, 0x00, 0x00, 0x00, 0x00, 0x00, 0x00, 
.................... 0x00, 0x00, 0x00, 0x00, 0x00, 0x00, 0x00, 0x00, 0x00, 0x00, 0x00, 0x00, 0x00, 0x00, 0x00, 0x00, 
.................... 0x00, 0x00, 0x00, 0x00, 0x00, 0x00, 0x00, 0x00, 0x00, 0x00, 0x00, 0x00, 0x00, 0x00, 0x00, 0x00, 
.................... 0x00, 0x00, 0x00, 0x00, 0x00, 0x00, 0x00, 0x00, 0x00, 0x00, 0x00, 0x00, 0x00, 0x00, 0x00, 0x00, 
.................... 0x00, 0x00, 0x00, 0x00, 0x00, 0x00, 0x00, 0x00, 0x00, 0x00, 0x00, 0x00, 0x00, 0x00, 0x00, 0x00, 
.................... 0x00, 0x00, 0x00, 0x00, 0x00, 0x00, 0x00, 0x00, 0x00, 0x00, 0x00, 0x00, 0x00, 0x00, 0x00, 0x00, 
.................... 0x00, 0x00, 0x00, 0x00, 0x00, 0x00, 0x00, 0x00, 0x00, 0x00, 0x00, 0x00, 0x00, 0x00, 0x00, 0x00, 
.................... 0x00, 0x00, 0x00, 0x00, 0x00, 0x00, 0x00, 0x00, 0x00, 0x00, 0x00, 0x00, 0x00, 0x00, 0x00, 0x00, 
.................... 0x00, 0x00, 0x00, 0x00, 0x00, 0x00, 0x00, 0x00, 0x00, 0x00, 0x00, 0x00, 0x00, 0x00, 0x00, 0x00, 
.................... 0x00, 0x00, 0x00, 0x00, 0x00, 0x00, 0x00, 0x00, 0x00, 0x00, 0x00, 0x00, 0x00, 0x00, 0x00, 0x00, 
.................... 0x00, 0x00, 0x00, 0x00, 0x00, 0x00, 0x00, 0x00, 0x00, 0x00, 0x00, 0x00, 0x00, 0x00, 0x00, 0x00, 
.................... 0x00, 0x00, 0x00, 0x00, 0x00, 0x00, 0x00, 0x00, 0x00, 0x00, 0x00, 0x00, 0x00, 0x00, 0x00, 0x00, 
.................... 0x00, 0x00, 0x00, 0x00, 0x00, 0x00, 0x00, 0x00, 0x00, 0x00, 0x00, 0x00, 0x00, 0x00, 0x00, 0x00, 
.................... 0x00, 0x00, 0x00, 0x00, 0x00, 0x00, 0x00, 0x00, 0x00, 0x00, 0x00, 0x00, 0x00, 0x00, 0x00, 0x00, 
.................... 0x00, 0x00, 0x00, 0x00, 0x00, 0x00, 0x00, 0x00, 0x00, 0x00, 0x00, 0x00, 0x00, 0x00, 0x00, 0x00, 
.................... 0x00, 0x00, 0x00, 0x00, 0x00, 0x00, 0x00, 0x00, 0x00, 0x00, 0x00, 0x00, 0x00, 0x00, 0x00, 0x00, 
.................... 0x00, 0x00, 0x00, 0x00, 0x00, 0x00, 0x00, 0x00, 0x00, 0x00, 0x00, 0x00, 0x00, 0x00, 0x00, 0x00, 
.................... 0x00, 0x00, 0x00, 0x00, 0x00, 0x00, 0x00, 0x00, 0x00, 0x00, 0x00, 0x00, 0x00, 0x00, 0x00, 0x00, 
.................... 0x00, 0x00, 0x00, 0x00, 0x00, 0x00, 0x00, 0x00, 0x00, 0x00, 0x00, 0x00, 0x00, 0x00, 0x00, 0x00, 
.................... 0x00, 0x00, 0x00, 0x00, 0x00, 0x00, 0x00, 0x00, 0x00, 0x00, 0x00, 0x00, 0x00, 0x00, 0x00, 0x00, 
.................... 0x00, 0x00, 0x00, 0x00, 0x00, 0x00, 0x00, 0x00, 0x00, 0x00, 0x00, 0x00, 0x00, 0x00, 0x00, 0x00, 
.................... 0x00, 0x00, 0x00, 0x00, 0x00, 0x00, 0x00, 0x00, 0x00, 0x00, 0x00, 0x00, 0x00, 0x00, 0x00, 0x00, 
.................... 0x00, 0x00, 0x00, 0x00, 0x00, 0x00, 0x00, 0x00, 0x00, 0x00, 0x00, 0x00, 0x00, 0x00, 0x00, 0x00, 
.................... 0x00, 0x00, 0x00, 0x00, 0x00, 0x00, 0x00, 0x00, 0x00, 0x00, 0x00, 0x00, 0x00, 0x00, 0x00, 0x00, 
.................... 0x00, 0x00, 0x00, 0x00, 0x00, 0x00, 0x00, 0x00, 0x00, 0x00, 0x00, 0x00, 0x00, 0x00, 0x00, 0x00, 
.................... 0x00, 0x00, 0x00, 0x00, 0x00, 0x00, 0x00, 0x00, 0x00, 0x00, 0x00, 0x00, 0x00, 0x00, 0x00, 0x00, 
.................... 0x00, 0x00, 0x00, 0x00, 0x00, 0x00, 0x00, 0x00, 0x00, 0x00, 0x00, 0x00, 0x00, 0x00, 0x00, 0x00, 
.................... 0x00, 0x00, 0x00, 0x00, 0x00, 0x00, 0x00, 0x00, 0x00, 0x00, 0x00, 0x00, 0x00, 0x00, 0x00, 0x00, 
.................... 0x00, 0x00, 0x00, 0x00, 0x00, 0x00, 0x00, 0x00, 0x00, 0x00, 0x00, 0x00, 0x00, 0x00, 0x00, 0x00, 
.................... 0x00, 0x00, 0x00, 0x00, 0x00, 0x00, 0x00, 0x00, 0x00, 0x00, 0x00, 0x00, 0x00, 0x00, 0x00, 0x00, 
.................... 0x00, 0x00, 0x00, 0x00, 0x00, 0x00, 0x00, 0x00, 0x00, 0x00, 0x00, 0x00, 0x00, 0x00, 0x00, 0x00, 
.................... 0x00, 0x00, 0x00, 0x00, 0x00, 0x00, 0x00, 0x00, 0x00, 0x00, 0x00, 0x00, 0x00, 0x00, 0x00, 0x00, 
.................... 0x00, 0x00, 0x00, 0x00, 0x00, 0x00, 0x00, 0x00, 0x00, 0x00, 0x00, 0x00, 0x00, 0x00, 0x00, 0x00, 
.................... 0x00, 0x00, 0x00, 0x00, 0x00, 0x00, 0x00, 0x00, 0x00, 0x00, 0x00, 0x00, 0x00, 0x00, 0x00, 0x00, 
.................... 0x00, 0x00, 0x00, 0x00, 0x00, 0x00, 0x00, 0x00, 0x00, 0x00, 0x00, 0x00, 0x00, 0x00, 0x00, 0x00, 
.................... 0x00, 0x00, 0x00, 0x00, 0x00, 0x00, 0x00, 0x00, 0x00, 0x00, 0x00, 0x00, 0x00, 0x00, 0x00, 0x00, 
.................... 0x00, 0x00, 0x00, 0x00, 0x00, 0x00, 0x00, 0x00, 0x00, 0x00, 0x00, 0x00, 0x00, 0x00, 0x00, 0x00, 
.................... 0x00, 0x00, 0x00, 0x00, 0x00, 0x00, 0x00, 0x00, 0x00, 0x00, 0x00, 0x00, 0x00, 0x00, 0x00, 0x00, 
.................... 0x00, 0x00, 0x00, 0x00, 0x00, 0x00, 0x00, 0x00, 0x00, 0x00, 0x00, 0x00, 0x00, 0x00, 0x00, 0x00, 
.................... 0x00, 0x00, 0x00, 0x00, 0x00, 0x00, 0x00, 0x00, 0x00, 0x00, 0x00, 0x00, 0x00, 0x00, 0x60, 0x00, 
.................... 0x00, 0x00, 0x00, 0x00, 0x00, 0x00, 0x00, 0x00, 0x00, 0x00, 0x00, 0x00, 0x00, 0x00, 0xF0, 0x00, 
.................... 0x00, 0x00, 0x00, 0x00, 0x00, 0x00, 0x00, 0x00, 0x00, 0x00, 0x00, 0x00, 0x00, 0x01, 0xF8, 0x00, 
.................... 0x00, 0x00, 0x00, 0x00, 0x00, 0x00, 0x00, 0x00, 0x00, 0x00, 0x00, 0x00, 0x00, 0x01, 0xF8, 0x00, 
.................... 0x00, 0x00, 0x00, 0x00, 0x00, 0x00, 0x00, 0x00, 0x00, 0x00, 0x00, 0x00, 0x00, 0x01, 0xF8, 0x00, 
.................... 0x00, 0x00, 0x00, 0x00, 0x00, 0x00, 0x00, 0x00, 0x00, 0x00, 0x00, 0x00, 0x00, 0x00, 0xF0, 0x00, 
.................... 0x00, 0x00, 0x00, 0x00, 0x00, 0x00, 0x00, 0x00, 0x00, 0x00, 0x00, 0x00, 0x00, 0x38, 0x71, 0xC0, 
.................... 0x00, 0x00, 0x00, 0x00, 0x00, 0x00, 0x00, 0x00, 0x00, 0x00, 0x00, 0x00, 0x00, 0x7C, 0x93, 0xE0, 
.................... 0x00, 0x00, 0x00, 0x00, 0x00, 0x00, 0x00, 0x00, 0x00, 0x00, 0x00, 0x00, 0x00, 0xFF, 0x0F, 0xF0, 
.................... 0x00, 0x00, 0x00, 0x00, 0x00, 0x00, 0x00, 0x00, 0x00, 0x00, 0x00, 0x00, 0x00, 0xFF, 0x0F, 0xF0, 
.................... 0x00, 0x00, 0x00, 0x00, 0x00, 0x00, 0x00, 0x00, 0x00, 0x00, 0x00, 0x00, 0x00, 0x7D, 0x93, 0xE0, 
.................... 0x00, 0x00, 0x00, 0x00, 0x00, 0x00, 0x00, 0x00, 0x00, 0x00, 0x00, 0x00, 0x00, 0x38, 0x61, 0xC0, 
.................... 0x00, 0x00, 0x00, 0x00, 0x00, 0x00, 0x00, 0x00, 0x00, 0x00, 0x00, 0x00, 0x00, 0x00, 0xF0, 0x00, 
.................... 0x00, 0x00, 0x00, 0x00, 0x00, 0x00, 0x00, 0x00, 0x00, 0x00, 0x00, 0x00, 0x00, 0x01, 0xF8, 0x00, 
.................... 0x00, 0x00, 0x00, 0x00, 0x00, 0x00, 0x00, 0x00, 0x00, 0x00, 0x00, 0x00, 0x00, 0x01, 0xF8, 0x00, 
.................... 0x00, 0x00, 0x00, 0x00, 0x00, 0x00, 0x00, 0x00, 0x00, 0x00, 0x00, 0x00, 0x00, 0x01, 0xF8, 0x00, 
.................... 0x00, 0x00, 0x00, 0x00, 0x00, 0x00, 0x00, 0x00, 0x00, 0x00, 0x00, 0x00, 0x00, 0x00, 0xF0, 0x00, 
.................... 0x00, 0x00, 0x00, 0x00, 0x00, 0x00, 0x00, 0x00, 0x00, 0x00, 0x00, 0x00, 0x00, 0x00, 0x60, 0x00 
.................... }; 
....................  
.................... #include "FuncionesDisplay.h" 
....................  
.................... typedef struct{ 
....................    char Letra[20]; 
.................... }MENUU; 
....................  
.................... MENUU Menus; 
....................   
.................... void displayContrasena(int digito, int x, int y, int sombreado) 
.................... { 
....................    char voltage[9]; 
....................    sprintf(voltage, "%i", digito); 
0368E:  MOVLW  06
03690:  MOVLB  4
03692:  MOVWF  x2C
03694:  MOVLW  4F
03696:  MOVWF  x2B
03698:  MOVFF  64B,658
0369C:  MOVLW  1F
0369E:  MOVLB  6
036A0:  MOVWF  x59
036A2:  MOVLB  0
036A4:  RCALL  313C
....................     
....................    if(sombreado==1) 
036A6:  MOVLB  6
036A8:  DECFSZ x4E,W
036AA:  BRA    36FA
....................       {glcd_rect(x, y, x+18, y+24, YES, ON);glcd_text57(x+2, y+1, voltage, 2, OFF);} 
036AC:  MOVLW  12
036AE:  ADDWF  x4C,W
036B0:  MOVWF  x58
036B2:  MOVLW  18
036B4:  ADDWF  x4D,W
036B6:  MOVWF  x59
036B8:  MOVFF  64C,660
036BC:  MOVFF  64D,661
036C0:  MOVFF  658,662
036C4:  MOVWF  x63
036C6:  MOVLW  01
036C8:  MOVWF  x64
036CA:  MOVWF  x65
036CC:  MOVLB  0
036CE:  RCALL  3414
036D0:  MOVLW  02
036D2:  MOVLB  6
036D4:  ADDWF  x4C,W
036D6:  MOVWF  x58
036D8:  MOVLW  01
036DA:  ADDWF  x4D,W
036DC:  MOVWF  x59
036DE:  MOVFF  658,660
036E2:  MOVWF  x61
036E4:  MOVLW  06
036E6:  MOVWF  x63
036E8:  MOVLW  4F
036EA:  MOVWF  x62
036EC:  MOVLW  02
036EE:  MOVWF  x64
036F0:  CLRF   x65
036F2:  MOVLB  0
036F4:  RCALL  34D6
....................    else    
036F6:  BRA    3744
036F8:  MOVLB  6
....................       {glcd_rect(x, y, x+18, y+24, NO, OFF);glcd_text57(x+2, y+1, voltage, 2, ON);} 
036FA:  MOVLW  12
036FC:  ADDWF  x4C,W
036FE:  MOVWF  x58
03700:  MOVLW  18
03702:  ADDWF  x4D,W
03704:  MOVWF  x59
03706:  MOVFF  64C,660
0370A:  MOVFF  64D,661
0370E:  MOVFF  658,662
03712:  MOVWF  x63
03714:  CLRF   x64
03716:  CLRF   x65
03718:  MOVLB  0
0371A:  RCALL  3414
0371C:  MOVLW  02
0371E:  MOVLB  6
03720:  ADDWF  x4C,W
03722:  MOVWF  x58
03724:  MOVLW  01
03726:  ADDWF  x4D,W
03728:  MOVWF  x59
0372A:  MOVFF  658,660
0372E:  MOVWF  x61
03730:  MOVLW  06
03732:  MOVWF  x63
03734:  MOVLW  4F
03736:  MOVWF  x62
03738:  MOVLW  02
0373A:  MOVWF  x64
0373C:  MOVLW  01
0373E:  MOVWF  x65
03740:  MOVLB  0
03742:  RCALL  34D6
....................  
.................... } 
03744:  RETLW  00
....................  
.................... void displayTiempo(int digito, int x, int y, int sombreado, int tamano) 
.................... { 
....................    char voltage[9]; 
....................    sprintf(voltage, "%i", digito); 
*
03812:  MOVLW  06
03814:  MOVLB  4
03816:  MOVWF  x2C
03818:  MOVLW  4E
0381A:  MOVWF  x2B
0381C:  MOVFF  649,658
03820:  MOVLW  1F
03822:  MOVLB  6
03824:  MOVWF  x59
03826:  MOVLB  0
03828:  RCALL  313C
....................     
....................    if(sombreado==1) 
0382A:  MOVLB  6
0382C:  DECFSZ x4C,W
0382E:  BRA    3884
....................       {glcd_rect(x, y, x+(tamano*6), y+(tamano*8), YES, ON);glcd_text57(x+2, y+1, voltage, tamano, OFF);} 
03830:  MOVF   x4D,W
03832:  MULLW  06
03834:  MOVF   FF3,W
03836:  ADDWF  x4A,W
03838:  MOVWF  x57
0383A:  MOVF   x4D,W
0383C:  MULLW  08
0383E:  MOVF   FF3,W
03840:  ADDWF  x4B,W
03842:  MOVWF  x58
03844:  MOVFF  64A,660
03848:  MOVFF  64B,661
0384C:  MOVFF  657,662
03850:  MOVWF  x63
03852:  MOVLW  01
03854:  MOVWF  x64
03856:  MOVWF  x65
03858:  MOVLB  0
0385A:  RCALL  3414
0385C:  MOVLW  02
0385E:  MOVLB  6
03860:  ADDWF  x4A,W
03862:  MOVWF  x57
03864:  MOVLW  01
03866:  ADDWF  x4B,W
03868:  MOVWF  x58
0386A:  MOVFF  657,660
0386E:  MOVWF  x61
03870:  MOVLW  06
03872:  MOVWF  x63
03874:  MOVLW  4E
03876:  MOVWF  x62
03878:  MOVFF  64D,664
0387C:  CLRF   x65
0387E:  MOVLB  0
03880:  RCALL  34D6
03882:  MOVLB  6
....................    if(sombreado==0) 
03884:  MOVF   x4C,F
03886:  BNZ   38DE
....................       {glcd_rect(x, y, x+(tamano*6), y+(tamano*8), YES, OFF);glcd_text57(x+2, y+1, voltage, tamano, ON);} 
03888:  MOVF   x4D,W
0388A:  MULLW  06
0388C:  MOVF   FF3,W
0388E:  ADDWF  x4A,W
03890:  MOVWF  x57
03892:  MOVF   x4D,W
03894:  MULLW  08
03896:  MOVF   FF3,W
03898:  ADDWF  x4B,W
0389A:  MOVWF  x58
0389C:  MOVFF  64A,660
038A0:  MOVFF  64B,661
038A4:  MOVFF  657,662
038A8:  MOVWF  x63
038AA:  MOVLW  01
038AC:  MOVWF  x64
038AE:  CLRF   x65
038B0:  MOVLB  0
038B2:  RCALL  3414
038B4:  MOVLW  02
038B6:  MOVLB  6
038B8:  ADDWF  x4A,W
038BA:  MOVWF  x57
038BC:  MOVLW  01
038BE:  ADDWF  x4B,W
038C0:  MOVWF  x58
038C2:  MOVFF  657,660
038C6:  MOVWF  x61
038C8:  MOVLW  06
038CA:  MOVWF  x63
038CC:  MOVLW  4E
038CE:  MOVWF  x62
038D0:  MOVFF  64D,664
038D4:  MOVLW  01
038D6:  MOVWF  x65
038D8:  MOVLB  0
038DA:  RCALL  34D6
038DC:  MOVLB  6
....................  
.................... } 
038DE:  MOVLB  0
038E0:  RETLW  00
....................  
.................... void displayMenu(char palabra[100], int x, int y, int sombreado, int tamano) 
.................... { 
....................    strcpy(Menus.Letra,palabra); 
*
03746:  MOVLB  6
03748:  MOVFF  649,01
0374C:  MOVFF  64A,03
03750:  MOVFF  649,64F
03754:  MOVFF  64A,650
03758:  MOVLW  04
0375A:  MOVWF  FEA
0375C:  MOVLW  17
0375E:  MOVWF  FE9
03760:  MOVFF  64A,FE2
03764:  MOVFF  649,FE1
03768:  MOVF   FE7,F
0376A:  MOVFF  FE6,FEE
0376E:  BNZ   3768
....................    if(sombreado==1) 
03770:  DECFSZ x4D,W
03772:  BRA    37BE
....................       {glcd_rect(0, y, 127, y+(tamano*8), YES, ON);glcd_text57(x+1, y+1, Menus.Letra, tamano, OFF);} 
03774:  MOVF   x4E,W
03776:  MULLW  08
03778:  MOVF   FF3,W
0377A:  ADDWF  x4C,W
0377C:  MOVWF  x4F
0377E:  CLRF   x60
03780:  MOVFF  64C,661
03784:  MOVLW  7F
03786:  MOVWF  x62
03788:  MOVFF  64F,663
0378C:  MOVLW  01
0378E:  MOVWF  x64
03790:  MOVWF  x65
03792:  MOVLB  0
03794:  RCALL  3414
03796:  MOVLW  01
03798:  MOVLB  6
0379A:  ADDWF  x4B,W
0379C:  MOVWF  x4F
0379E:  MOVLW  01
037A0:  ADDWF  x4C,W
037A2:  MOVWF  x50
037A4:  MOVFF  64F,660
037A8:  MOVWF  x61
037AA:  MOVLW  04
037AC:  MOVWF  x63
037AE:  MOVLW  17
037B0:  MOVWF  x62
037B2:  MOVFF  64E,664
037B6:  CLRF   x65
037B8:  MOVLB  0
037BA:  RCALL  34D6
037BC:  MOVLB  6
....................    if(sombreado==0) 
037BE:  MOVF   x4D,F
037C0:  BNZ   380E
....................       {glcd_rect(0, y, 127, y+(tamano*8), YES, OFF);glcd_text57(x+1, y+1, Menus.Letra, tamano, ON);} 
037C2:  MOVF   x4E,W
037C4:  MULLW  08
037C6:  MOVF   FF3,W
037C8:  ADDWF  x4C,W
037CA:  MOVWF  x4F
037CC:  CLRF   x60
037CE:  MOVFF  64C,661
037D2:  MOVLW  7F
037D4:  MOVWF  x62
037D6:  MOVFF  64F,663
037DA:  MOVLW  01
037DC:  MOVWF  x64
037DE:  CLRF   x65
037E0:  MOVLB  0
037E2:  RCALL  3414
037E4:  MOVLW  01
037E6:  MOVLB  6
037E8:  ADDWF  x4B,W
037EA:  MOVWF  x4F
037EC:  MOVLW  01
037EE:  ADDWF  x4C,W
037F0:  MOVWF  x50
037F2:  MOVFF  64F,660
037F6:  MOVWF  x61
037F8:  MOVLW  04
037FA:  MOVWF  x63
037FC:  MOVLW  17
037FE:  MOVWF  x62
03800:  MOVFF  64E,664
03804:  MOVLW  01
03806:  MOVWF  x65
03808:  MOVLB  0
0380A:  RCALL  34D6
0380C:  MOVLB  6
....................  
.................... } 
0380E:  MOVLB  0
03810:  RETLW  00
....................  
.................... void displayfloat(float adc,int x,int y,int sombreado, int tamano) { 
....................    char voltage[9];     
....................       sprintf(voltage, "%1.2f",adc); // Converts adc to text 
*
03D7A:  MOVLW  06
03D7C:  MOVLB  4
03D7E:  MOVWF  x2C
03D80:  MOVLW  55
03D82:  MOVWF  x2B
03D84:  MOVLW  89
03D86:  MOVWF  FE9
03D88:  MOVFF  650,661
03D8C:  MOVFF  64F,660
03D90:  MOVFF  64E,65F
03D94:  MOVFF  64D,65E
03D98:  MOVLW  02
03D9A:  MOVLB  6
03D9C:  MOVWF  x62
03D9E:  MOVLB  0
03DA0:  BRA    3BC4
....................        
....................    if(sombreado==1) 
03DA2:  MOVLB  6
03DA4:  DECFSZ x53,W
03DA6:  BRA    3E00
....................       {glcd_rect(x, y, x+(tamano*48), y+(tamano*8), YES, ON);glcd_text57(x+2, y+1, voltage, tamano, OFF);} 
03DA8:  MOVF   x54,W
03DAA:  MULLW  30
03DAC:  MOVF   FF3,W
03DAE:  ADDWF  x51,W
03DB0:  MOVWF  x5E
03DB2:  MOVF   x54,W
03DB4:  MULLW  08
03DB6:  MOVF   FF3,W
03DB8:  ADDWF  x52,W
03DBA:  MOVWF  x5F
03DBC:  MOVFF  651,660
03DC0:  MOVFF  652,661
03DC4:  MOVFF  65E,662
03DC8:  MOVWF  x63
03DCA:  MOVLW  01
03DCC:  MOVWF  x64
03DCE:  MOVWF  x65
03DD0:  MOVLB  0
03DD2:  CALL   3414
03DD6:  MOVLW  02
03DD8:  MOVLB  6
03DDA:  ADDWF  x51,W
03DDC:  MOVWF  x5E
03DDE:  MOVLW  01
03DE0:  ADDWF  x52,W
03DE2:  MOVWF  x5F
03DE4:  MOVFF  65E,660
03DE8:  MOVWF  x61
03DEA:  MOVLW  06
03DEC:  MOVWF  x63
03DEE:  MOVLW  55
03DF0:  MOVWF  x62
03DF2:  MOVFF  654,664
03DF6:  CLRF   x65
03DF8:  MOVLB  0
03DFA:  CALL   34D6
03DFE:  MOVLB  6
....................    if(sombreado==0) 
03E00:  MOVF   x53,F
03E02:  BNZ   3E5E
....................       {glcd_rect(x, y, x+(tamano*48), y+(tamano*8), YES, OFF);glcd_text57(x+2, y+1, voltage, tamano, ON);} 
03E04:  MOVF   x54,W
03E06:  MULLW  30
03E08:  MOVF   FF3,W
03E0A:  ADDWF  x51,W
03E0C:  MOVWF  x5E
03E0E:  MOVF   x54,W
03E10:  MULLW  08
03E12:  MOVF   FF3,W
03E14:  ADDWF  x52,W
03E16:  MOVWF  x5F
03E18:  MOVFF  651,660
03E1C:  MOVFF  652,661
03E20:  MOVFF  65E,662
03E24:  MOVWF  x63
03E26:  MOVLW  01
03E28:  MOVWF  x64
03E2A:  CLRF   x65
03E2C:  MOVLB  0
03E2E:  CALL   3414
03E32:  MOVLW  02
03E34:  MOVLB  6
03E36:  ADDWF  x51,W
03E38:  MOVWF  x5E
03E3A:  MOVLW  01
03E3C:  ADDWF  x52,W
03E3E:  MOVWF  x5F
03E40:  MOVFF  65E,660
03E44:  MOVWF  x61
03E46:  MOVLW  06
03E48:  MOVWF  x63
03E4A:  MOVLW  55
03E4C:  MOVWF  x62
03E4E:  MOVFF  654,664
03E52:  MOVLW  01
03E54:  MOVWF  x65
03E56:  MOVLB  0
03E58:  CALL   34D6
03E5C:  MOVLB  6
....................        
.................... } 
03E5E:  MOVLB  0
03E60:  RETLW  00
....................  
.................... // Funcion para conversor analogo-digital 
.................... unsigned int16 sensores(int x){ 
.................... unsigned int16 y;set_adc_channel(x);delay_ms(1);y=read_adc();return (y); 
*
0176C:  MOVLB  6
0176E:  RLCF   x4E,W
01770:  MOVWF  00
01772:  RLCF   00,F
01774:  MOVLW  FC
01776:  ANDWF  00,F
01778:  MOVFF  00,01
0177C:  MOVF   FC2,W
0177E:  ANDLW  C3
01780:  IORWF  00,W
01782:  MOVWF  FC2
01784:  MOVLW  01
01786:  MOVWF  x51
01788:  MOVLB  0
0178A:  RCALL  118C
0178C:  BSF    FC2.1
0178E:  BTFSC  FC2.1
01790:  BRA    178E
01792:  MOVFF  FC4,650
01796:  MOVLB  6
01798:  MOVFF  FC3,64F
0179C:  MOVFF  64F,01
017A0:  MOVFF  650,02
.................... } 
017A4:  MOVLB  0
017A6:  RETLW  00
....................  
....................  
.................... #define   UP               input(PIN_E1) 
.................... #define   DOWN             input(PIN_E2) 
.................... #define   RIGHT            input(PIN_C0) 
.................... #define   LEFT             input(PIN_C1) 
.................... #define   VIDRIOUP         input(PIN_A5) 
.................... #define   VIDRIODN         input(PIN_A4) 
....................  
.................... #define   Alarma_on           output_bit(PIN_C2,1) 
.................... #define   Alarma_off          output_bit(PIN_C2,0) 
.................... #define   LuzBlanca_on        output_bit(PIN_C4,1) 
.................... #define   LuzBlanca_off       output_bit(PIN_C4,0) 
.................... #define   LuzUV_on            output_bit(PIN_C5,1) 
.................... #define   LuzUV_off           output_bit(PIN_C5,0) 
.................... #define   Motor_on            output_bit(PIN_C6,1) 
.................... #define   Motor_off           output_bit(PIN_C6,0) 
.................... #define   Toma_on             output_bit(PIN_C7,1) 
.................... #define   Toma_off            output_bit(PIN_C7,0) 
.................... #define   Display_on          output_bit(PIN_B1,1) 
.................... #define   Display_off         output_bit(PIN_B1,0) 
.................... #define   O1_on               output_bit(PIN_E0,1) 
.................... #define   O1_off              output_bit(PIN_E0,0) 
.................... #define   O2_on               output_bit(PIN_C3,1) 
.................... #define   O2_off              output_bit(PIN_C3,0) 
....................  
.................... int16 tiempos=0; 
.................... int8 i=0; 
....................  
.................... short Flanco=0,Flanco1=0,Flanco2=0,Flanco3=0,Flanco4=0,Flanco5=0,Flanco6=0,imprimir=0,flag_uv=0,flag_blower=0,flag_toma=0,flag_luz=0,flag_alarma=0,w=0; 
.................... short tiempo_purga=0,tiempo_uv=0,tiempo_trabajo=0,tiempo_postpurga=0,Latencia=0,flag_latencia=0; 
.................... short guardauv=0,guardatrabajo=0,Lectura=0,n=0,flag_alarma2=0; 
.................... char  JP[] = "JP Inglobal", Cabina[] = "Cabina Extractora",tiempo_est[]="T est=", Dos_puntos[]=":"; 
.................... char  Clase[] = "Sin Ductos", Tiempo[] = "Tiempo de Purga", UV[]="UV"; 
.................... char  Baje_Vidrio[] = "!!Ubique Vidrio!!",Inflowt[] = "JPCEGH-F-A",Downflowt[] = "Pres(inH2O):", ZF[] = "Fabrica:208.0", ZA[] = "Actual:",AJ[]="Ajuste:"; 
.................... char  Vida_UV[] = "UVLife:",Vida_Filtro[] = "Filter:",ZFP[] = "Fabrica:235.0", Perdida[]="!Filtro Saturado!"; 
.................... int8 Menu=200, unidad=1, Opcion=1,inicie=0,negativo=10,G_l=0,G_h=0,tiemporeset=0; 
.................... int8 q=0,r=0,l=0,h=0,Entero=0,Decimal1=0,LuzUV=10,Motor=10,Alarma=10,UV2=0,e=0,m=0; 
....................  
.................... unsigned int16 Inflow_adc=0,Filtro_Downflow_adc=0,Temporal1=0; 
....................  
.................... int16 t_latencia=0,minutos_uv=0,minutos_trabajo=0,G16=0; 
.................... signed int  Tpurga[4]={0,0,0,0};       // Tiempo de Purga transcurrido 
.................... signed int  Tpurgap[4]={9,0,0,0};      // Tiempo de Purga programado 
.................... signed int  Tppurga[4]={0,0,0,0};      // Tiempo de Post-Purga transcurrido 
.................... signed int  Tppurgap[4]={9,0,0,0};     // Tiempo de Post-Purga programado 
.................... signed int  Tuv[4]={0,0,0,0};          // Tiempo de UV transcurrido(en Horas) 
.................... signed int  Tempouv[4]={0,0,0,0};         // Tiempo de UV transcurrido 
.................... signed int  Tempouvp[4]={0,0,0,0};        // Tiempo de UV transcurrido 
.................... signed int  Ttrabajo[4]={0,0,0,0};        // Tiempo de trabajo transcurrido (en Horas) 
.................... signed int  Contrasena[4]={0,0,0,0};      // Contrasena de 4 digitos 
.................... signed int  Password[4]={0,0,0,0};        // Contrasena Almacenada de 4 digitos 
.................... float Inflow=0.0,Downflow=0.0,Filtro_Downflow=0.0,Diferencia=0.0,barra=0.0,barra_old=0.0,barra2=0.0,barra_old2=0.0; 
.................... float Velocidad=0.0,x_uno=0.0,x_cuadrado=0.0,x_cubo=0.0,Ajuste1=0.0,Ajuste2=0.0; 
.................... float ADC=0,Temporal=0.0,Temporal2=0.0; 
.................... float a=0.00000957915546738639,b=-0.00727819571978831,c= 1.85375754678451,d= -156.816806902063; 
.................... //float t=378.463968402560,f=-18275.0402762787;//Sensor 2 Posible bueno 
....................  
.................... float promedio[8]={0.0,0.0,0.0,0.0,0.0,0.0,0.0,0.0}; 
.................... float PromPresion[8]={0.0,0.0,0.0,0.0,0.0,0.0,0.0,0.0}; 
.................... float Flujo=0.0,zero_fabrica=208.0,zero_actual=0.0; 
.................... float V1=0.0,Presion=0.0,G=2.0,UVTime=0.0; 
....................  
.................... int16 Vector[40]; 
....................  
.................... int1 BITS[32]; 
.................... int16 Ta,Tb,TICK=0; 
.................... Int1 BIT_START, NUEVO_DATO=0; 
.................... int BYTE_IR[4]; 
.................... int8 BIT_BYTE(int1 D7, int1 D6, int1 D5, int1 D4, int1 D3, int1 D2, int1 D1, int1 D0); 
....................  
.................... void glcd_imagen(int8 x) 
.................... { 
....................    char i,j; 
....................    signed char k;  
....................       
....................    if(x==3){ 
*
03904:  MOVLB  6
03906:  MOVF   x49,W
03908:  SUBLW  03
0390A:  BNZ   39AC
....................    for( i = 0 ; i < 64 ; i ++ ) 
0390C:  CLRF   x4A
0390E:  MOVF   x4A,W
03910:  SUBLW  3F
03912:  BNC   39AC
....................    {  for( j = 0 ; j < 16 ; j ++) 
03914:  CLRF   x4B
03916:  MOVF   x4B,W
03918:  SUBLW  0F
0391A:  BNC   39A8
....................       {  for(k=7;k>-1;k--) 
0391C:  MOVLW  07
0391E:  MOVWF  x4C
03920:  MOVF   x4C,W
03922:  XORLW  80
03924:  SUBLW  7F
03926:  BC    39A4
....................          {       
....................             if( bit_test(Bombillo[i][j] ,7-k ))  
03928:  CLRF   x4E
0392A:  MOVFF  64A,64D
0392E:  CLRF   x50
03930:  MOVLW  10
03932:  MOVWF  x4F
03934:  MOVLB  0
03936:  RCALL  38E2
03938:  MOVFF  02,64E
0393C:  MOVFF  01,64D
03940:  MOVLB  6
03942:  MOVF   x4B,W
03944:  ADDWF  01,W
03946:  MOVWF  01
03948:  MOVLW  00
0394A:  ADDWFC 02,W
0394C:  MOVWF  03
0394E:  MOVF   01,W
03950:  MOVFF  FF2,64D
03954:  BCF    FF2.7
03956:  MOVFF  03,FF7
0395A:  MOVLB  0
0395C:  CALL   02B6
03960:  MOVLB  6
03962:  BTFSC  x4D.7
03964:  BSF    FF2.7
03966:  MOVWF  x4D
03968:  MOVLW  07
0396A:  BSF    FD8.0
0396C:  SUBFWB x4C,W
0396E:  MOVWF  x4E
03970:  MOVFF  64D,00
03974:  MOVF   x4E,W
03976:  MOVWF  01
03978:  BZ    3982
0397A:  BCF    FD8.0
0397C:  RRCF   00,F
0397E:  DECFSZ 01,F
03980:  BRA    397A
03982:  BTFSS  00.0
03984:  BRA    39A0
....................                glcd_pixel( j*8+k,i, ON ); 
03986:  MOVF   x4B,W
03988:  MULLW  08
0398A:  MOVF   FF3,W
0398C:  ADDWF  x4C,W
0398E:  MOVWF  x4D
03990:  MOVWF  x7B
03992:  MOVFF  64A,67C
03996:  MOVLW  01
03998:  MOVWF  x7D
0399A:  MOVLB  0
0399C:  RCALL  321A
0399E:  MOVLB  6
....................          }   
039A0:  DECF   x4C,F
039A2:  BRA    3920
....................       } 
039A4:  INCF   x4B,F
039A6:  BRA    3916
....................    } 
039A8:  INCF   x4A,F
039AA:  BRA    390E
....................    } 
....................     
....................    if(x==4){ 
039AC:  MOVF   x49,W
039AE:  SUBLW  04
039B0:  BNZ   3A54
....................    for( i = 0 ; i < 64 ; i ++ ) 
039B2:  CLRF   x4A
039B4:  MOVF   x4A,W
039B6:  SUBLW  3F
039B8:  BNC   3A54
....................    {  for( j = 0 ; j < 16 ; j ++) 
039BA:  CLRF   x4B
039BC:  MOVF   x4B,W
039BE:  SUBLW  0F
039C0:  BNC   3A50
....................       {  for(k=7;k>-1;k--) 
039C2:  MOVLW  07
039C4:  MOVWF  x4C
039C6:  MOVF   x4C,W
039C8:  XORLW  80
039CA:  SUBLW  7F
039CC:  BC    3A4C
....................          {       
....................             if( bit_test(Tomai[i][j] ,7-k ))  
039CE:  CLRF   x4E
039D0:  MOVFF  64A,64D
039D4:  CLRF   x50
039D6:  MOVLW  10
039D8:  MOVWF  x4F
039DA:  MOVLB  0
039DC:  RCALL  38E2
039DE:  MOVFF  02,64E
039E2:  MOVFF  01,64D
039E6:  MOVLB  6
039E8:  MOVF   x4B,W
039EA:  ADDWF  01,W
039EC:  MOVWF  01
039EE:  MOVLW  00
039F0:  ADDWFC 02,W
039F2:  MOVWF  03
039F4:  MOVF   01,W
039F6:  MOVFF  FF2,64D
039FA:  BCF    FF2.7
039FC:  MOVFF  03,FF7
03A00:  MOVLB  0
03A02:  CALL   06D2
03A06:  MOVLB  6
03A08:  BTFSC  x4D.7
03A0A:  BSF    FF2.7
03A0C:  MOVWF  x4D
03A0E:  MOVLW  07
03A10:  BSF    FD8.0
03A12:  SUBFWB x4C,W
03A14:  MOVWF  x4E
03A16:  MOVFF  64D,00
03A1A:  MOVF   x4E,W
03A1C:  MOVWF  01
03A1E:  BZ    3A28
03A20:  BCF    FD8.0
03A22:  RRCF   00,F
03A24:  DECFSZ 01,F
03A26:  BRA    3A20
03A28:  BTFSS  00.0
03A2A:  BRA    3A48
....................                glcd_pixel( j*8+k,i, ON ); 
03A2C:  MOVF   x4B,W
03A2E:  MULLW  08
03A30:  MOVF   FF3,W
03A32:  ADDWF  x4C,W
03A34:  MOVWF  x4D
03A36:  MOVWF  x7B
03A38:  MOVFF  64A,67C
03A3C:  MOVLW  01
03A3E:  MOVWF  x7D
03A40:  MOVLB  0
03A42:  CALL   321A
03A46:  MOVLB  6
....................          }   
03A48:  DECF   x4C,F
03A4A:  BRA    39C6
....................       } 
03A4C:  INCF   x4B,F
03A4E:  BRA    39BC
....................    } 
03A50:  INCF   x4A,F
03A52:  BRA    39B4
....................    } 
....................     
....................    if(x==5){ 
03A54:  MOVF   x49,W
03A56:  SUBLW  05
03A58:  BNZ   3AFC
....................    for( i = 0 ; i < 64 ; i ++ ) 
03A5A:  CLRF   x4A
03A5C:  MOVF   x4A,W
03A5E:  SUBLW  3F
03A60:  BNC   3AFC
....................    {  for( j = 0 ; j < 16 ; j ++) 
03A62:  CLRF   x4B
03A64:  MOVF   x4B,W
03A66:  SUBLW  0F
03A68:  BNC   3AF8
....................       {  for(k=7;k>-1;k--) 
03A6A:  MOVLW  07
03A6C:  MOVWF  x4C
03A6E:  MOVF   x4C,W
03A70:  XORLW  80
03A72:  SUBLW  7F
03A74:  BC    3AF4
....................          {       
....................             if( bit_test(Ventilador[i][j] ,7-k ))  
03A76:  CLRF   x4E
03A78:  MOVFF  64A,64D
03A7C:  CLRF   x50
03A7E:  MOVLW  10
03A80:  MOVWF  x4F
03A82:  MOVLB  0
03A84:  RCALL  38E2
03A86:  MOVFF  02,64E
03A8A:  MOVFF  01,64D
03A8E:  MOVLB  6
03A90:  MOVF   x4B,W
03A92:  ADDWF  01,W
03A94:  MOVWF  01
03A96:  MOVLW  00
03A98:  ADDWFC 02,W
03A9A:  MOVWF  03
03A9C:  MOVF   01,W
03A9E:  MOVFF  FF2,64D
03AA2:  BCF    FF2.7
03AA4:  MOVFF  03,FF7
03AA8:  MOVLB  0
03AAA:  CALL   0AEE
03AAE:  MOVLB  6
03AB0:  BTFSC  x4D.7
03AB2:  BSF    FF2.7
03AB4:  MOVWF  x4D
03AB6:  MOVLW  07
03AB8:  BSF    FD8.0
03ABA:  SUBFWB x4C,W
03ABC:  MOVWF  x4E
03ABE:  MOVFF  64D,00
03AC2:  MOVF   x4E,W
03AC4:  MOVWF  01
03AC6:  BZ    3AD0
03AC8:  BCF    FD8.0
03ACA:  RRCF   00,F
03ACC:  DECFSZ 01,F
03ACE:  BRA    3AC8
03AD0:  BTFSS  00.0
03AD2:  BRA    3AF0
....................                glcd_pixel( j*8+k,i, ON ); 
03AD4:  MOVF   x4B,W
03AD6:  MULLW  08
03AD8:  MOVF   FF3,W
03ADA:  ADDWF  x4C,W
03ADC:  MOVWF  x4D
03ADE:  MOVWF  x7B
03AE0:  MOVFF  64A,67C
03AE4:  MOVLW  01
03AE6:  MOVWF  x7D
03AE8:  MOVLB  0
03AEA:  CALL   321A
03AEE:  MOVLB  6
....................          }   
03AF0:  DECF   x4C,F
03AF2:  BRA    3A6E
....................       } 
03AF4:  INCF   x4B,F
03AF6:  BRA    3A64
....................    } 
03AF8:  INCF   x4A,F
03AFA:  BRA    3A5C
....................    } 
.................... } 
03AFC:  MOVLB  0
03AFE:  RETLW  00
....................  
....................  
.................... Float LeerFlujoInFlow(int media) 
.................... { 
....................     InFlow_adc=sensores(0); 
*
02A0C:  MOVLB  6
02A0E:  CLRF   x4E
02A10:  MOVLB  0
02A12:  CALL   176C
02A16:  MOVFF  02,506
02A1A:  MOVFF  01,505
....................        
....................     if(negativo==10) 
02A1E:  MOVLB  4
02A20:  MOVF   xF5,W
02A22:  SUBLW  0A
02A24:  BNZ   2A6C
....................     { 
....................       x_uno=Inflow_adc+Diferencia; 
02A26:  MOVFF  506,67F
02A2A:  MOVFF  505,67E
02A2E:  MOVLB  0
02A30:  CALL   11B4
02A34:  BCF    FD8.1
02A36:  MOVFF  03,681
02A3A:  MOVFF  02,680
02A3E:  MOVFF  01,67F
02A42:  MOVFF  00,67E
02A46:  MOVFF  54A,685
02A4A:  MOVFF  549,684
02A4E:  MOVFF  548,683
02A52:  MOVFF  547,682
02A56:  CALL   1348
02A5A:  MOVFF  03,562
02A5E:  MOVFF  02,561
02A62:  MOVFF  01,560
02A66:  MOVFF  00,55F
02A6A:  MOVLB  4
....................     } 
....................     if(negativo==20) 
02A6C:  MOVF   xF5,W
02A6E:  SUBLW  14
02A70:  BNZ   2AB6
....................     { 
....................       x_uno=Inflow_adc-Diferencia; 
02A72:  MOVFF  506,67F
02A76:  MOVFF  505,67E
02A7A:  MOVLB  0
02A7C:  CALL   11B4
02A80:  BSF    FD8.1
02A82:  MOVFF  03,681
02A86:  MOVFF  02,680
02A8A:  MOVFF  01,67F
02A8E:  MOVFF  00,67E
02A92:  MOVFF  54A,685
02A96:  MOVFF  549,684
02A9A:  MOVFF  548,683
02A9E:  MOVFF  547,682
02AA2:  CALL   1348
02AA6:  MOVFF  03,562
02AAA:  MOVFF  02,561
02AAE:  MOVFF  01,560
02AB2:  MOVFF  00,55F
....................     } 
....................     Velocidad=(pow(x_uno,3)*a)+(pow(x_uno,2)*b)+(x_uno*c)+(d); 
02AB6:  MOVFF  562,651
02ABA:  MOVFF  561,650
02ABE:  MOVFF  560,64F
02AC2:  MOVFF  55F,64E
02AC6:  MOVLB  6
02AC8:  CLRF   x55
02ACA:  CLRF   x54
02ACC:  MOVLW  40
02ACE:  MOVWF  x53
02AD0:  MOVLW  80
02AD2:  MOVWF  x52
02AD4:  MOVLB  0
02AD6:  RCALL  2700
02AD8:  MOVFF  00,64A
02ADC:  MOVFF  01,64B
02AE0:  MOVFF  02,64C
02AE4:  MOVFF  03,64D
02AE8:  MOVFF  03,67D
02AEC:  MOVFF  02,67C
02AF0:  MOVFF  01,67B
02AF4:  MOVFF  00,67A
02AF8:  MOVFF  582,681
02AFC:  MOVFF  581,680
02B00:  MOVFF  580,67F
02B04:  MOVFF  57F,67E
02B08:  CALL   17E4
02B0C:  MOVFF  00,64A
02B10:  MOVFF  01,64B
02B14:  MOVFF  02,64C
02B18:  MOVFF  03,64D
02B1C:  MOVFF  562,651
02B20:  MOVFF  561,650
02B24:  MOVFF  560,64F
02B28:  MOVFF  55F,64E
02B2C:  MOVLB  6
02B2E:  CLRF   x55
02B30:  CLRF   x54
02B32:  CLRF   x53
02B34:  MOVLW  80
02B36:  MOVWF  x52
02B38:  MOVLB  0
02B3A:  RCALL  2700
02B3C:  MOVFF  00,64E
02B40:  MOVFF  01,64F
02B44:  MOVFF  02,650
02B48:  MOVFF  03,651
02B4C:  MOVFF  03,67D
02B50:  MOVFF  02,67C
02B54:  MOVFF  01,67B
02B58:  MOVFF  00,67A
02B5C:  MOVFF  586,681
02B60:  MOVFF  585,680
02B64:  MOVFF  584,67F
02B68:  MOVFF  583,67E
02B6C:  CALL   17E4
02B70:  MOVFF  FEA,64F
02B74:  MOVFF  FE9,64E
02B78:  BCF    FD8.1
02B7A:  MOVFF  64D,681
02B7E:  MOVFF  64C,680
02B82:  MOVFF  64B,67F
02B86:  MOVFF  64A,67E
02B8A:  MOVFF  03,685
02B8E:  MOVFF  02,684
02B92:  MOVFF  01,683
02B96:  MOVFF  00,682
02B9A:  CALL   1348
02B9E:  MOVFF  64F,FEA
02BA2:  MOVFF  64E,FE9
02BA6:  MOVFF  00,64A
02BAA:  MOVFF  01,64B
02BAE:  MOVFF  02,64C
02BB2:  MOVFF  03,64D
02BB6:  MOVFF  562,67D
02BBA:  MOVFF  561,67C
02BBE:  MOVFF  560,67B
02BC2:  MOVFF  55F,67A
02BC6:  MOVFF  58A,681
02BCA:  MOVFF  589,680
02BCE:  MOVFF  588,67F
02BD2:  MOVFF  587,67E
02BD6:  CALL   17E4
02BDA:  MOVFF  FEA,651
02BDE:  MOVFF  FE9,650
02BE2:  BCF    FD8.1
02BE4:  MOVFF  64D,681
02BE8:  MOVFF  64C,680
02BEC:  MOVFF  64B,67F
02BF0:  MOVFF  64A,67E
02BF4:  MOVFF  03,685
02BF8:  MOVFF  02,684
02BFC:  MOVFF  01,683
02C00:  MOVFF  00,682
02C04:  CALL   1348
02C08:  MOVFF  651,FEA
02C0C:  MOVFF  650,FE9
02C10:  MOVFF  00,64A
02C14:  MOVFF  01,64B
02C18:  MOVFF  02,64C
02C1C:  MOVFF  03,64D
02C20:  MOVFF  FEA,653
02C24:  MOVFF  FE9,652
02C28:  BCF    FD8.1
02C2A:  MOVFF  03,681
02C2E:  MOVFF  02,680
02C32:  MOVFF  01,67F
02C36:  MOVFF  00,67E
02C3A:  MOVFF  58E,685
02C3E:  MOVFF  58D,684
02C42:  MOVFF  58C,683
02C46:  MOVFF  58B,682
02C4A:  CALL   1348
02C4E:  MOVFF  653,FEA
02C52:  MOVFF  652,FE9
02C56:  MOVFF  03,55E
02C5A:  MOVFF  02,55D
02C5E:  MOVFF  01,55C
02C62:  MOVFF  00,55B
....................     //Velocidad=Velocidad*correccion;//Ajuste de Temperatura 
....................      
....................     if(Velocidad<0.0) 
02C66:  MOVFF  55E,67D
02C6A:  MOVFF  55D,67C
02C6E:  MOVFF  55C,67B
02C72:  MOVFF  55B,67A
02C76:  MOVLB  6
02C78:  CLRF   x81
02C7A:  CLRF   x80
02C7C:  CLRF   x7F
02C7E:  CLRF   x7E
02C80:  MOVLB  0
02C82:  CALL   15C0
02C86:  BNC   2C92
....................      {Velocidad=0.0;} 
02C88:  MOVLB  5
02C8A:  CLRF   x5E
02C8C:  CLRF   x5D
02C8E:  CLRF   x5C
02C90:  CLRF   x5B
....................       
....................      if(l>=media) 
02C92:  MOVLB  6
02C94:  MOVF   x49,W
02C96:  MOVLB  4
02C98:  SUBWF  xFB,W
02C9A:  BNC   2C9E
....................        {l=0;} 
02C9C:  CLRF   xFB
....................       
....................      promedio[l]=Velocidad;l++; 
02C9E:  MOVF   xFB,W
02CA0:  MULLW  04
02CA2:  MOVF   FF3,W
02CA4:  CLRF   03
02CA6:  ADDLW  8F
02CA8:  MOVWF  FE9
02CAA:  MOVLW  05
02CAC:  ADDWFC 03,W
02CAE:  MOVWF  FEA
02CB0:  MOVFF  55B,FEF
02CB4:  MOVFF  55C,FEC
02CB8:  MOVFF  55D,FEC
02CBC:  MOVFF  55E,FEC
02CC0:  INCF   xFB,F
....................      Flujo=0; 
02CC2:  MOVLB  5
02CC4:  CLRF   xD2
02CC6:  CLRF   xD1
02CC8:  CLRF   xD0
02CCA:  CLRF   xCF
....................         for(h=0;h<=(media-1);h++) 
02CCC:  MOVLB  4
02CCE:  CLRF   xFC
02CD0:  MOVLW  01
02CD2:  MOVLB  6
02CD4:  SUBWF  x49,W
02CD6:  MOVLB  4
02CD8:  SUBWF  xFC,W
02CDA:  BZ    2CDE
02CDC:  BC    2D4E
....................         { 
....................            Flujo+=promedio[h]; 
02CDE:  MOVF   xFC,W
02CE0:  MULLW  04
02CE2:  MOVF   FF3,W
02CE4:  CLRF   03
02CE6:  ADDLW  8F
02CE8:  MOVWF  FE9
02CEA:  MOVLW  05
02CEC:  ADDWFC 03,W
02CEE:  MOVWF  FEA
02CF0:  MOVFF  FEF,00
02CF4:  MOVFF  FEC,01
02CF8:  MOVFF  FEC,02
02CFC:  MOVFF  FEC,03
02D00:  MOVFF  FEA,64B
02D04:  MOVFF  FE9,64A
02D08:  BCF    FD8.1
02D0A:  MOVFF  5D2,681
02D0E:  MOVFF  5D1,680
02D12:  MOVFF  5D0,67F
02D16:  MOVFF  5CF,67E
02D1A:  MOVFF  03,685
02D1E:  MOVFF  02,684
02D22:  MOVFF  01,683
02D26:  MOVFF  00,682
02D2A:  MOVLB  0
02D2C:  CALL   1348
02D30:  MOVFF  64B,FEA
02D34:  MOVFF  64A,FE9
02D38:  MOVFF  03,5D2
02D3C:  MOVFF  02,5D1
02D40:  MOVFF  01,5D0
02D44:  MOVFF  00,5CF
....................         }  
02D48:  MOVLB  4
02D4A:  INCF   xFC,F
02D4C:  BRA    2CD0
....................            Flujo=(Flujo/media)*Ajuste1;  
02D4E:  MOVLB  6
02D50:  CLRF   x7F
02D52:  MOVFF  649,67E
02D56:  MOVLB  0
02D58:  CALL   11B4
02D5C:  MOVFF  5D2,67D
02D60:  MOVFF  5D1,67C
02D64:  MOVFF  5D0,67B
02D68:  MOVFF  5CF,67A
02D6C:  MOVFF  03,681
02D70:  MOVFF  02,680
02D74:  MOVFF  01,67F
02D78:  MOVFF  00,67E
02D7C:  CALL   11EA
02D80:  MOVFF  00,64A
02D84:  MOVFF  01,64B
02D88:  MOVFF  02,64C
02D8C:  MOVFF  03,64D
02D90:  MOVFF  03,67D
02D94:  MOVFF  02,67C
02D98:  MOVFF  01,67B
02D9C:  MOVFF  00,67A
02DA0:  MOVFF  56E,681
02DA4:  MOVFF  56D,680
02DA8:  MOVFF  56C,67F
02DAC:  MOVFF  56B,67E
02DB0:  CALL   17E4
02DB4:  MOVFF  03,5D2
02DB8:  MOVFF  02,5D1
02DBC:  MOVFF  01,5D0
02DC0:  MOVFF  00,5CF
....................            return Flujo; 
02DC4:  MOVFF  5CF,00
02DC8:  MOVFF  5D0,01
02DCC:  MOVFF  5D1,02
02DD0:  MOVFF  5D2,03
.................... } 
02DD4:  GOTO   4D5E (RETURN)
....................  
.................... float Leer_Sensor_Presion(int media){ 
02DD8:  MOVLB  6
02DDA:  CLRF   x4D
02DDC:  CLRF   x4C
02DDE:  CLRF   x4B
02DE0:  CLRF   x4A
....................    float promediopresion=0.0; 
....................     
....................    Filtro_Downflow_adc=sensores(2); 
02DE2:  MOVLW  02
02DE4:  MOVWF  x4E
02DE6:  MOVLB  0
02DE8:  CALL   176C
02DEC:  MOVFF  02,508
02DF0:  MOVFF  01,507
....................    V1=Filtro_Downflow_adc;  
02DF4:  MOVFF  508,67F
02DF8:  MOVFF  507,67E
02DFC:  CALL   11B4
02E00:  MOVFF  03,5DE
02E04:  MOVFF  02,5DD
02E08:  MOVFF  01,5DC
02E0C:  MOVFF  00,5DB
....................    //V1 = (x_uno*5.0)/1023.0;   //Lectura de Divisor de Voltaje de PT100 con resistencia de 1k (+-10%) 
....................    Presion=(V1/G)-1.0;// Presion=(Voltaje/Ganancia)-1 
02E10:  MOVFF  5DE,67D
02E14:  MOVFF  5DD,67C
02E18:  MOVFF  5DC,67B
02E1C:  MOVFF  5DB,67A
02E20:  MOVFF  5E6,681
02E24:  MOVFF  5E5,680
02E28:  MOVFF  5E4,67F
02E2C:  MOVFF  5E3,67E
02E30:  CALL   11EA
02E34:  MOVFF  00,64E
02E38:  MOVFF  01,64F
02E3C:  MOVFF  02,650
02E40:  MOVFF  03,651
02E44:  BSF    FD8.1
02E46:  MOVFF  03,681
02E4A:  MOVFF  02,680
02E4E:  MOVFF  01,67F
02E52:  MOVFF  00,67E
02E56:  MOVLB  6
02E58:  CLRF   x85
02E5A:  CLRF   x84
02E5C:  CLRF   x83
02E5E:  MOVLW  7F
02E60:  MOVWF  x82
02E62:  MOVLB  0
02E64:  CALL   1348
02E68:  MOVFF  03,5E2
02E6C:  MOVFF  02,5E1
02E70:  MOVFF  01,5E0
02E74:  MOVFF  00,5DF
....................     
....................    if(Presion<0.0) 
02E78:  MOVFF  5E2,67D
02E7C:  MOVFF  5E1,67C
02E80:  MOVFF  5E0,67B
02E84:  MOVFF  5DF,67A
02E88:  MOVLB  6
02E8A:  CLRF   x81
02E8C:  CLRF   x80
02E8E:  CLRF   x7F
02E90:  CLRF   x7E
02E92:  MOVLB  0
02E94:  CALL   15C0
02E98:  BNC   2EA4
....................    { 
....................       Presion=0.0; 
02E9A:  MOVLB  5
02E9C:  CLRF   xE2
02E9E:  CLRF   xE1
02EA0:  CLRF   xE0
02EA2:  CLRF   xDF
....................    } 
....................  
....................    if(r>media-1) 
02EA4:  MOVLW  01
02EA6:  MOVLB  6
02EA8:  SUBWF  x49,W
02EAA:  MOVLB  4
02EAC:  SUBWF  xFA,W
02EAE:  BZ    2EB4
02EB0:  BNC   2EB4
....................    {r=0;} 
02EB2:  CLRF   xFA
....................    PromPresion[r]=Presion*4.02;r++; 
02EB4:  MOVF   xFA,W
02EB6:  MULLW  04
02EB8:  MOVF   FF3,W
02EBA:  CLRF   03
02EBC:  ADDLW  AF
02EBE:  MOVWF  FE9
02EC0:  MOVLW  05
02EC2:  ADDWFC 03,W
02EC4:  MOVWF  FEA
02EC6:  MOVFF  5E2,67D
02ECA:  MOVFF  5E1,67C
02ECE:  MOVFF  5E0,67B
02ED2:  MOVFF  5DF,67A
02ED6:  MOVLW  D7
02ED8:  MOVLB  6
02EDA:  MOVWF  x81
02EDC:  MOVLW  A3
02EDE:  MOVWF  x80
02EE0:  CLRF   x7F
02EE2:  MOVLW  81
02EE4:  MOVWF  x7E
02EE6:  MOVLB  0
02EE8:  CALL   17E4
02EEC:  MOVFF  00,FEF
02EF0:  MOVFF  01,FEC
02EF4:  MOVFF  02,FEC
02EF8:  MOVFF  03,FEC
02EFC:  MOVLB  4
02EFE:  INCF   xFA,F
....................           
....................    for(q=0;q<=(media-1);q++) 
02F00:  CLRF   xF9
02F02:  MOVLW  01
02F04:  MOVLB  6
02F06:  SUBWF  x49,W
02F08:  MOVLB  4
02F0A:  SUBWF  xF9,W
02F0C:  BZ    2F10
02F0E:  BC    2F80
....................    { 
....................       promediopresion+=PromPresion[q]; 
02F10:  MOVF   xF9,W
02F12:  MULLW  04
02F14:  MOVF   FF3,W
02F16:  CLRF   03
02F18:  ADDLW  AF
02F1A:  MOVWF  FE9
02F1C:  MOVLW  05
02F1E:  ADDWFC 03,W
02F20:  MOVWF  FEA
02F22:  MOVFF  FEF,00
02F26:  MOVFF  FEC,01
02F2A:  MOVFF  FEC,02
02F2E:  MOVFF  FEC,03
02F32:  MOVFF  FEA,64F
02F36:  MOVFF  FE9,64E
02F3A:  BCF    FD8.1
02F3C:  MOVFF  64D,681
02F40:  MOVFF  64C,680
02F44:  MOVFF  64B,67F
02F48:  MOVFF  64A,67E
02F4C:  MOVFF  03,685
02F50:  MOVFF  02,684
02F54:  MOVFF  01,683
02F58:  MOVFF  00,682
02F5C:  MOVLB  0
02F5E:  CALL   1348
02F62:  MOVFF  64F,FEA
02F66:  MOVFF  64E,FE9
02F6A:  MOVFF  03,64D
02F6E:  MOVFF  02,64C
02F72:  MOVFF  01,64B
02F76:  MOVFF  00,64A
....................    }  
02F7A:  MOVLB  4
02F7C:  INCF   xF9,F
02F7E:  BRA    2F02
....................    promediopresion=promediopresion/media;    
02F80:  MOVLB  6
02F82:  CLRF   x7F
02F84:  MOVFF  649,67E
02F88:  MOVLB  0
02F8A:  CALL   11B4
02F8E:  MOVFF  64D,67D
02F92:  MOVFF  64C,67C
02F96:  MOVFF  64B,67B
02F9A:  MOVFF  64A,67A
02F9E:  MOVFF  03,681
02FA2:  MOVFF  02,680
02FA6:  MOVFF  01,67F
02FAA:  MOVFF  00,67E
02FAE:  CALL   11EA
02FB2:  MOVFF  03,64D
02FB6:  MOVFF  02,64C
02FBA:  MOVFF  01,64B
02FBE:  MOVFF  00,64A
....................     
....................    return promediopresion; 
02FC2:  MOVFF  64A,00
02FC6:  MOVFF  64B,01
02FCA:  MOVFF  64C,02
02FCE:  MOVFF  64D,03
.................... } 
02FD2:  GOTO   4D7A (RETURN)
....................  
.................... #int_TIMER1 
.................... void temp1s(void){ 
....................    set_timer1(40536); 
*
010CE:  MOVLW  9E
010D0:  MOVWF  FCF
010D2:  MOVLW  58
010D4:  MOVWF  FCE
....................    tiempos++; 
010D6:  MOVLB  4
010D8:  INCF   x2D,F
010DA:  BTFSC  FD8.2
010DC:  INCF   x2E,F
....................     
....................    if(flag_latencia==1) 
010DE:  BTFSS  x32.3
010E0:  BRA    10EA
....................    { 
....................       t_latencia++;          
010E2:  MOVLB  5
010E4:  INCF   x0B,F
010E6:  BTFSC  FD8.2
010E8:  INCF   x0C,F
....................    } 
....................     
....................    if(t_latencia>=3000) 
010EA:  MOVLB  5
010EC:  MOVF   x0C,W
010EE:  SUBLW  0A
010F0:  BC    1100
010F2:  XORLW  FF
010F4:  BNZ   10FC
010F6:  MOVF   x0B,W
010F8:  SUBLW  B7
010FA:  BC    1100
....................    {Latencia=1;} 
010FC:  MOVLB  4
010FE:  BSF    x32.2
....................                  
....................    if(tiempos>=200) 
01100:  MOVLB  4
01102:  MOVF   x2E,F
01104:  BNZ   110C
01106:  MOVF   x2D,W
01108:  SUBLW  C7
0110A:  BC    1184
....................    { 
....................       tiempos=0;imprimir=1;inicie++;Lectura=1;tiemporeset++; 
0110C:  CLRF   x2E
0110E:  CLRF   x2D
01110:  BSF    x30.7
01112:  INCF   xF4,F
01114:  BSF    x32.6
01116:  INCF   xF8,F
....................        
....................       if(Alarma==5) 
01118:  MOVLB  5
0111A:  MOVF   x01,W
0111C:  SUBLW  05
0111E:  BNZ   1134
....................       { 
....................          if(flag_alarma2==0) 
01120:  MOVLB  4
01122:  BTFSC  x33.0
01124:  BRA    112E
....................          { 
....................             Alarma_on; 
01126:  BSF    F8B.2
01128:  BCF    F94.2
....................             flag_alarma2=1; 
0112A:  BSF    x33.0
....................          } 
....................          else 
0112C:  BRA    1134
....................          { 
....................             Alarma_off; 
0112E:  BCF    F8B.2
01130:  BCF    F94.2
....................             flag_alarma2=0; 
01132:  BCF    x33.0
....................          } 
....................       } 
....................     
....................    if(flag_blower==1) 
01134:  MOVLB  4
01136:  BTFSS  x31.1
01138:  BRA    1144
....................    { 
....................       minutos_trabajo++;  
0113A:  MOVLB  5
0113C:  INCF   x0F,F
0113E:  BTFSC  FD8.2
01140:  INCF   x10,F
01142:  MOVLB  4
....................    } 
....................    
....................    if(tiempo_purga==1) 
01144:  BTFSS  x31.6
01146:  BRA    1184
....................    {                   
....................       Tpurga[0]++; 
01148:  MOVLB  5
0114A:  INCF   x13,F
....................       if(Tpurga[0]>9) 
0114C:  BTFSC  x13.7
0114E:  BRA    115A
01150:  MOVF   x13,W
01152:  SUBLW  09
01154:  BC    115A
....................       { 
....................          Tpurga[0]=0; 
01156:  CLRF   x13
....................          Tpurga[1]++; 
01158:  INCF   x14,F
....................       } 
....................       if(Tpurga[1]>5) 
0115A:  BTFSC  x14.7
0115C:  BRA    1168
0115E:  MOVF   x14,W
01160:  SUBLW  05
01162:  BC    1168
....................       { 
....................          Tpurga[1]=0; 
01164:  CLRF   x14
....................          Tpurga[2]++; 
01166:  INCF   x15,F
....................       } 
....................       if(Tpurga[2]>9) 
01168:  BTFSC  x15.7
0116A:  BRA    1176
0116C:  MOVF   x15,W
0116E:  SUBLW  09
01170:  BC    1176
....................       { 
....................          Tpurga[2]=0; 
01172:  CLRF   x15
....................          Tpurga[3]++; 
01174:  INCF   x16,F
....................       } 
....................       if(Tpurga[3]>5) 
01176:  BTFSC  x16.7
01178:  BRA    1182
0117A:  MOVF   x16,W
0117C:  SUBLW  05
0117E:  BC    1182
....................       { 
....................          Tpurga[3]=0; 
01180:  CLRF   x16
01182:  MOVLB  4
....................       } 
....................    }        
....................          
....................    } 
.................... } 
....................  
01184:  BCF    F9E.0
01186:  MOVLB  0
01188:  GOTO   0058
.................... void main(){ 
*
03E62:  CLRF   FF8
03E64:  BCF    FD0.7
03E66:  BSF    07.7
03E68:  CLRF   FEA
03E6A:  CLRF   FE9
03E6C:  MOVLB  4
03E6E:  CLRF   x2E
03E70:  CLRF   x2D
03E72:  CLRF   x2F
03E74:  BCF    x30.0
03E76:  BCF    x30.1
03E78:  BCF    x30.2
03E7A:  BCF    x30.3
03E7C:  BCF    x30.4
03E7E:  BCF    x30.5
03E80:  BCF    x30.6
03E82:  BCF    x30.7
03E84:  BCF    x31.0
03E86:  BCF    x31.1
03E88:  BCF    x31.2
03E8A:  BCF    x31.3
03E8C:  BCF    x31.4
03E8E:  BCF    x31.5
03E90:  BCF    x31.6
03E92:  BCF    x31.7
03E94:  BCF    x32.0
03E96:  BCF    x32.1
03E98:  BCF    x32.2
03E9A:  BCF    x32.3
03E9C:  BCF    x32.4
03E9E:  BCF    x32.5
03EA0:  BCF    x32.6
03EA2:  BCF    x32.7
03EA4:  BCF    x33.0
03EA6:  MOVLW  C8
03EA8:  MOVWF  xF1
03EAA:  MOVLW  01
03EAC:  MOVWF  xF2
03EAE:  MOVWF  xF3
03EB0:  CLRF   xF4
03EB2:  MOVLW  0A
03EB4:  MOVWF  xF5
03EB6:  CLRF   xF6
03EB8:  CLRF   xF7
03EBA:  CLRF   xF8
03EBC:  CLRF   xF9
03EBE:  CLRF   xFA
03EC0:  CLRF   xFB
03EC2:  CLRF   xFC
03EC4:  CLRF   xFD
03EC6:  CLRF   xFE
03EC8:  MOVWF  xFF
03ECA:  MOVLB  5
03ECC:  MOVWF  x00
03ECE:  MOVWF  x01
03ED0:  CLRF   x02
03ED2:  CLRF   x03
03ED4:  CLRF   x04
03ED6:  CLRF   x06
03ED8:  CLRF   x05
03EDA:  CLRF   x08
03EDC:  CLRF   x07
03EDE:  CLRF   x0A
03EE0:  CLRF   x09
03EE2:  CLRF   x0C
03EE4:  CLRF   x0B
03EE6:  CLRF   x0E
03EE8:  CLRF   x0D
03EEA:  CLRF   x10
03EEC:  CLRF   x0F
03EEE:  CLRF   x12
03EF0:  CLRF   x11
03EF2:  CLRF   x3E
03EF4:  CLRF   x3D
03EF6:  CLRF   x3C
03EF8:  CLRF   x3B
03EFA:  CLRF   x42
03EFC:  CLRF   x41
03EFE:  CLRF   x40
03F00:  CLRF   x3F
03F02:  CLRF   x46
03F04:  CLRF   x45
03F06:  CLRF   x44
03F08:  CLRF   x43
03F0A:  CLRF   x4A
03F0C:  CLRF   x49
03F0E:  CLRF   x48
03F10:  CLRF   x47
03F12:  CLRF   x4E
03F14:  CLRF   x4D
03F16:  CLRF   x4C
03F18:  CLRF   x4B
03F1A:  CLRF   x52
03F1C:  CLRF   x51
03F1E:  CLRF   x50
03F20:  CLRF   x4F
03F22:  CLRF   x56
03F24:  CLRF   x55
03F26:  CLRF   x54
03F28:  CLRF   x53
03F2A:  CLRF   x5A
03F2C:  CLRF   x59
03F2E:  CLRF   x58
03F30:  CLRF   x57
03F32:  CLRF   x5E
03F34:  CLRF   x5D
03F36:  CLRF   x5C
03F38:  CLRF   x5B
03F3A:  CLRF   x62
03F3C:  CLRF   x61
03F3E:  CLRF   x60
03F40:  CLRF   x5F
03F42:  CLRF   x66
03F44:  CLRF   x65
03F46:  CLRF   x64
03F48:  CLRF   x63
03F4A:  CLRF   x6A
03F4C:  CLRF   x69
03F4E:  CLRF   x68
03F50:  CLRF   x67
03F52:  CLRF   x6E
03F54:  CLRF   x6D
03F56:  CLRF   x6C
03F58:  CLRF   x6B
03F5A:  CLRF   x72
03F5C:  CLRF   x71
03F5E:  CLRF   x70
03F60:  CLRF   x6F
03F62:  CLRF   x76
03F64:  CLRF   x75
03F66:  CLRF   x74
03F68:  CLRF   x73
03F6A:  CLRF   x7A
03F6C:  CLRF   x79
03F6E:  CLRF   x78
03F70:  CLRF   x77
03F72:  CLRF   x7E
03F74:  CLRF   x7D
03F76:  CLRF   x7C
03F78:  CLRF   x7B
03F7A:  MOVLW  29
03F7C:  MOVWF  x82
03F7E:  MOVLW  B6
03F80:  MOVWF  x81
03F82:  MOVLW  20
03F84:  MOVWF  x80
03F86:  MOVLW  6E
03F88:  MOVWF  x7F
03F8A:  MOVLW  EE
03F8C:  MOVWF  x86
03F8E:  MOVLW  7D
03F90:  MOVWF  x85
03F92:  MOVLW  EE
03F94:  MOVWF  x84
03F96:  MOVLW  77
03F98:  MOVWF  x83
03F9A:  MOVLW  ED
03F9C:  MOVWF  x8A
03F9E:  MOVLW  47
03FA0:  MOVWF  x89
03FA2:  MOVLW  6D
03FA4:  MOVWF  x88
03FA6:  MOVLW  7F
03FA8:  MOVWF  x87
03FAA:  MOVLW  1A
03FAC:  MOVWF  x8E
03FAE:  MOVLW  D1
03FB0:  MOVWF  x8D
03FB2:  MOVLW  9C
03FB4:  MOVWF  x8C
03FB6:  MOVLW  86
03FB8:  MOVWF  x8B
03FBA:  CLRF   xD2
03FBC:  CLRF   xD1
03FBE:  CLRF   xD0
03FC0:  CLRF   xCF
03FC2:  CLRF   xD6
03FC4:  CLRF   xD5
03FC6:  MOVLW  50
03FC8:  MOVWF  xD4
03FCA:  MOVLW  86
03FCC:  MOVWF  xD3
03FCE:  CLRF   xDA
03FD0:  CLRF   xD9
03FD2:  CLRF   xD8
03FD4:  CLRF   xD7
03FD6:  CLRF   xDE
03FD8:  CLRF   xDD
03FDA:  CLRF   xDC
03FDC:  CLRF   xDB
03FDE:  CLRF   xE2
03FE0:  CLRF   xE1
03FE2:  CLRF   xE0
03FE4:  CLRF   xDF
03FE6:  CLRF   xE6
03FE8:  CLRF   xE5
03FEA:  CLRF   xE4
03FEC:  MOVLW  80
03FEE:  MOVWF  xE3
03FF0:  CLRF   xEA
03FF2:  CLRF   xE9
03FF4:  CLRF   xE8
03FF6:  CLRF   xE7
03FF8:  MOVLB  6
03FFA:  CLRF   x44
03FFC:  CLRF   x43
03FFE:  MOVLB  4
04000:  BCF    x33.2
04002:  MOVF   FC1,W
04004:  ANDLW  C0
04006:  IORLW  0F
04008:  MOVWF  FC1
0400A:  MOVLW  07
0400C:  MOVWF  FB4
0400E:  CLRF   x2B
04010:  CLRF   x2C
04012:  MOVLW  4A
04014:  MOVWF  x34
04016:  MOVLW  50
04018:  MOVWF  x35
0401A:  MOVLW  20
0401C:  MOVWF  x36
0401E:  MOVLW  49
04020:  MOVWF  x37
04022:  MOVLW  6E
04024:  MOVWF  x38
04026:  MOVLW  67
04028:  MOVWF  x39
0402A:  MOVLW  6C
0402C:  MOVWF  x3A
0402E:  MOVLW  6F
04030:  MOVWF  x3B
04032:  MOVLW  62
04034:  MOVWF  x3C
04036:  MOVLW  61
04038:  MOVWF  x3D
0403A:  MOVLW  6C
0403C:  MOVWF  x3E
0403E:  CLRF   x3F
04040:  MOVLW  43
04042:  MOVWF  x40
04044:  MOVLW  61
04046:  MOVWF  x41
04048:  MOVLW  62
0404A:  MOVWF  x42
0404C:  MOVLW  69
0404E:  MOVWF  x43
04050:  MOVLW  6E
04052:  MOVWF  x44
04054:  MOVLW  61
04056:  MOVWF  x45
04058:  MOVLW  20
0405A:  MOVWF  x46
0405C:  MOVLW  45
0405E:  MOVWF  x47
04060:  MOVLW  78
04062:  MOVWF  x48
04064:  MOVLW  74
04066:  MOVWF  x49
04068:  MOVLW  72
0406A:  MOVWF  x4A
0406C:  MOVLW  61
0406E:  MOVWF  x4B
04070:  MOVLW  63
04072:  MOVWF  x4C
04074:  MOVLW  74
04076:  MOVWF  x4D
04078:  MOVLW  6F
0407A:  MOVWF  x4E
0407C:  MOVLW  72
0407E:  MOVWF  x4F
04080:  MOVLW  61
04082:  MOVWF  x50
04084:  CLRF   x51
04086:  MOVLW  54
04088:  MOVWF  x52
0408A:  MOVLW  20
0408C:  MOVWF  x53
0408E:  MOVLW  65
04090:  MOVWF  x54
04092:  MOVLW  73
04094:  MOVWF  x55
04096:  MOVLW  74
04098:  MOVWF  x56
0409A:  MOVLW  3D
0409C:  MOVWF  x57
0409E:  CLRF   x58
040A0:  MOVLW  3A
040A2:  MOVWF  x59
040A4:  CLRF   x5A
040A6:  MOVLW  53
040A8:  MOVWF  x5B
040AA:  MOVLW  69
040AC:  MOVWF  x5C
040AE:  MOVLW  6E
040B0:  MOVWF  x5D
040B2:  MOVLW  20
040B4:  MOVWF  x5E
040B6:  MOVLW  44
040B8:  MOVWF  x5F
040BA:  MOVLW  75
040BC:  MOVWF  x60
040BE:  MOVLW  63
040C0:  MOVWF  x61
040C2:  MOVLW  74
040C4:  MOVWF  x62
040C6:  MOVLW  6F
040C8:  MOVWF  x63
040CA:  MOVLW  73
040CC:  MOVWF  x64
040CE:  CLRF   x65
040D0:  MOVLW  54
040D2:  MOVWF  x66
040D4:  MOVLW  69
040D6:  MOVWF  x67
040D8:  MOVLW  65
040DA:  MOVWF  x68
040DC:  MOVLW  6D
040DE:  MOVWF  x69
040E0:  MOVLW  70
040E2:  MOVWF  x6A
040E4:  MOVLW  6F
040E6:  MOVWF  x6B
040E8:  MOVLW  20
040EA:  MOVWF  x6C
040EC:  MOVLW  64
040EE:  MOVWF  x6D
040F0:  MOVLW  65
040F2:  MOVWF  x6E
040F4:  MOVLW  20
040F6:  MOVWF  x6F
040F8:  MOVLW  50
040FA:  MOVWF  x70
040FC:  MOVLW  75
040FE:  MOVWF  x71
04100:  MOVLW  72
04102:  MOVWF  x72
04104:  MOVLW  67
04106:  MOVWF  x73
04108:  MOVLW  61
0410A:  MOVWF  x74
0410C:  CLRF   x75
0410E:  MOVLW  55
04110:  MOVWF  x76
04112:  MOVLW  56
04114:  MOVWF  x77
04116:  CLRF   x78
04118:  MOVLW  21
0411A:  MOVWF  x79
0411C:  MOVWF  x7A
0411E:  MOVLW  55
04120:  MOVWF  x7B
04122:  MOVLW  62
04124:  MOVWF  x7C
04126:  MOVLW  69
04128:  MOVWF  x7D
0412A:  MOVLW  71
0412C:  MOVWF  x7E
0412E:  MOVLW  75
04130:  MOVWF  x7F
04132:  MOVLW  65
04134:  MOVWF  x80
04136:  MOVLW  20
04138:  MOVWF  x81
0413A:  MOVLW  56
0413C:  MOVWF  x82
0413E:  MOVLW  69
04140:  MOVWF  x83
04142:  MOVLW  64
04144:  MOVWF  x84
04146:  MOVLW  72
04148:  MOVWF  x85
0414A:  MOVLW  69
0414C:  MOVWF  x86
0414E:  MOVLW  6F
04150:  MOVWF  x87
04152:  MOVLW  21
04154:  MOVWF  x88
04156:  MOVWF  x89
04158:  CLRF   x8A
0415A:  MOVLW  4A
0415C:  MOVWF  x8B
0415E:  MOVLW  50
04160:  MOVWF  x8C
04162:  MOVLW  43
04164:  MOVWF  x8D
04166:  MOVLW  45
04168:  MOVWF  x8E
0416A:  MOVLW  47
0416C:  MOVWF  x8F
0416E:  MOVLW  48
04170:  MOVWF  x90
04172:  MOVLW  2D
04174:  MOVWF  x91
04176:  MOVLW  46
04178:  MOVWF  x92
0417A:  MOVLW  2D
0417C:  MOVWF  x93
0417E:  MOVLW  41
04180:  MOVWF  x94
04182:  CLRF   x95
04184:  MOVLW  50
04186:  MOVWF  x96
04188:  MOVLW  72
0418A:  MOVWF  x97
0418C:  MOVLW  65
0418E:  MOVWF  x98
04190:  MOVLW  73
04192:  MOVWF  x99
04194:  MOVLW  28
04196:  MOVWF  x9A
04198:  MOVLW  69
0419A:  MOVWF  x9B
0419C:  MOVLW  6E
0419E:  MOVWF  x9C
041A0:  MOVLW  48
041A2:  MOVWF  x9D
041A4:  MOVLW  32
041A6:  MOVWF  x9E
041A8:  MOVLW  4F
041AA:  MOVWF  x9F
041AC:  MOVLW  29
041AE:  MOVWF  xA0
041B0:  MOVLW  3A
041B2:  MOVWF  xA1
041B4:  CLRF   xA2
041B6:  MOVLW  46
041B8:  MOVWF  xA3
041BA:  MOVLW  61
041BC:  MOVWF  xA4
041BE:  MOVLW  62
041C0:  MOVWF  xA5
041C2:  MOVLW  72
041C4:  MOVWF  xA6
041C6:  MOVLW  69
041C8:  MOVWF  xA7
041CA:  MOVLW  63
041CC:  MOVWF  xA8
041CE:  MOVLW  61
041D0:  MOVWF  xA9
041D2:  MOVLW  3A
041D4:  MOVWF  xAA
041D6:  MOVLW  32
041D8:  MOVWF  xAB
041DA:  MOVLW  30
041DC:  MOVWF  xAC
041DE:  MOVLW  38
041E0:  MOVWF  xAD
041E2:  MOVLW  2E
041E4:  MOVWF  xAE
041E6:  MOVLW  30
041E8:  MOVWF  xAF
041EA:  CLRF   xB0
041EC:  MOVLW  41
041EE:  MOVWF  xB1
041F0:  MOVLW  63
041F2:  MOVWF  xB2
041F4:  MOVLW  74
041F6:  MOVWF  xB3
041F8:  MOVLW  75
041FA:  MOVWF  xB4
041FC:  MOVLW  61
041FE:  MOVWF  xB5
04200:  MOVLW  6C
04202:  MOVWF  xB6
04204:  MOVLW  3A
04206:  MOVWF  xB7
04208:  CLRF   xB8
0420A:  MOVLW  41
0420C:  MOVWF  xB9
0420E:  MOVLW  6A
04210:  MOVWF  xBA
04212:  MOVLW  75
04214:  MOVWF  xBB
04216:  MOVLW  73
04218:  MOVWF  xBC
0421A:  MOVLW  74
0421C:  MOVWF  xBD
0421E:  MOVLW  65
04220:  MOVWF  xBE
04222:  MOVLW  3A
04224:  MOVWF  xBF
04226:  CLRF   xC0
04228:  MOVLW  55
0422A:  MOVWF  xC1
0422C:  MOVLW  56
0422E:  MOVWF  xC2
04230:  MOVLW  4C
04232:  MOVWF  xC3
04234:  MOVLW  69
04236:  MOVWF  xC4
04238:  MOVLW  66
0423A:  MOVWF  xC5
0423C:  MOVLW  65
0423E:  MOVWF  xC6
04240:  MOVLW  3A
04242:  MOVWF  xC7
04244:  CLRF   xC8
04246:  MOVLW  46
04248:  MOVWF  xC9
0424A:  MOVLW  69
0424C:  MOVWF  xCA
0424E:  MOVLW  6C
04250:  MOVWF  xCB
04252:  MOVLW  74
04254:  MOVWF  xCC
04256:  MOVLW  65
04258:  MOVWF  xCD
0425A:  MOVLW  72
0425C:  MOVWF  xCE
0425E:  MOVLW  3A
04260:  MOVWF  xCF
04262:  CLRF   xD0
04264:  MOVLW  46
04266:  MOVWF  xD1
04268:  MOVLW  61
0426A:  MOVWF  xD2
0426C:  MOVLW  62
0426E:  MOVWF  xD3
04270:  MOVLW  72
04272:  MOVWF  xD4
04274:  MOVLW  69
04276:  MOVWF  xD5
04278:  MOVLW  63
0427A:  MOVWF  xD6
0427C:  MOVLW  61
0427E:  MOVWF  xD7
04280:  MOVLW  3A
04282:  MOVWF  xD8
04284:  MOVLW  32
04286:  MOVWF  xD9
04288:  MOVLW  33
0428A:  MOVWF  xDA
0428C:  MOVLW  35
0428E:  MOVWF  xDB
04290:  MOVLW  2E
04292:  MOVWF  xDC
04294:  MOVLW  30
04296:  MOVWF  xDD
04298:  CLRF   xDE
0429A:  MOVLW  21
0429C:  MOVWF  xDF
0429E:  MOVLW  46
042A0:  MOVWF  xE0
042A2:  MOVLW  69
042A4:  MOVWF  xE1
042A6:  MOVLW  6C
042A8:  MOVWF  xE2
042AA:  MOVLW  74
042AC:  MOVWF  xE3
042AE:  MOVLW  72
042B0:  MOVWF  xE4
042B2:  MOVLW  6F
042B4:  MOVWF  xE5
042B6:  MOVLW  20
042B8:  MOVWF  xE6
042BA:  MOVLW  53
042BC:  MOVWF  xE7
042BE:  MOVLW  61
042C0:  MOVWF  xE8
042C2:  MOVLW  74
042C4:  MOVWF  xE9
042C6:  MOVLW  75
042C8:  MOVWF  xEA
042CA:  MOVLW  72
042CC:  MOVWF  xEB
042CE:  MOVLW  61
042D0:  MOVWF  xEC
042D2:  MOVLW  64
042D4:  MOVWF  xED
042D6:  MOVLW  6F
042D8:  MOVWF  xEE
042DA:  MOVLW  21
042DC:  MOVWF  xEF
042DE:  CLRF   xF0
042E0:  MOVLB  5
042E2:  CLRF   x13
042E4:  CLRF   x14
042E6:  CLRF   x15
042E8:  CLRF   x16
042EA:  MOVLW  09
042EC:  MOVWF  x17
042EE:  CLRF   x18
042F0:  CLRF   x19
042F2:  CLRF   x1A
042F4:  CLRF   x1B
042F6:  CLRF   x1C
042F8:  CLRF   x1D
042FA:  CLRF   x1E
042FC:  MOVWF  x1F
042FE:  CLRF   x20
04300:  CLRF   x21
04302:  CLRF   x22
04304:  CLRF   x23
04306:  CLRF   x24
04308:  CLRF   x25
0430A:  CLRF   x26
0430C:  CLRF   x27
0430E:  CLRF   x28
04310:  CLRF   x29
04312:  CLRF   x2A
04314:  CLRF   x2B
04316:  CLRF   x2C
04318:  CLRF   x2D
0431A:  CLRF   x2E
0431C:  CLRF   x2F
0431E:  CLRF   x30
04320:  CLRF   x31
04322:  CLRF   x32
04324:  CLRF   x33
04326:  CLRF   x34
04328:  CLRF   x35
0432A:  CLRF   x36
0432C:  CLRF   x37
0432E:  CLRF   x38
04330:  CLRF   x39
04332:  CLRF   x3A
04334:  CLRF   x8F
04336:  CLRF   x90
04338:  CLRF   x91
0433A:  CLRF   x92
0433C:  CLRF   x93
0433E:  CLRF   x94
04340:  CLRF   x95
04342:  CLRF   x96
04344:  CLRF   x97
04346:  CLRF   x98
04348:  CLRF   x99
0434A:  CLRF   x9A
0434C:  CLRF   x9B
0434E:  CLRF   x9C
04350:  CLRF   x9D
04352:  CLRF   x9E
04354:  CLRF   x9F
04356:  CLRF   xA0
04358:  CLRF   xA1
0435A:  CLRF   xA2
0435C:  CLRF   xA3
0435E:  CLRF   xA4
04360:  CLRF   xA5
04362:  CLRF   xA6
04364:  CLRF   xA7
04366:  CLRF   xA8
04368:  CLRF   xA9
0436A:  CLRF   xAA
0436C:  CLRF   xAB
0436E:  CLRF   xAC
04370:  CLRF   xAD
04372:  CLRF   xAE
04374:  CLRF   xAF
04376:  CLRF   xB0
04378:  CLRF   xB1
0437A:  CLRF   xB2
0437C:  CLRF   xB3
0437E:  CLRF   xB4
04380:  CLRF   xB5
04382:  CLRF   xB6
04384:  CLRF   xB7
04386:  CLRF   xB8
04388:  CLRF   xB9
0438A:  CLRF   xBA
0438C:  CLRF   xBB
0438E:  CLRF   xBC
04390:  CLRF   xBD
04392:  CLRF   xBE
04394:  CLRF   xBF
04396:  CLRF   xC0
04398:  CLRF   xC1
0439A:  CLRF   xC2
0439C:  CLRF   xC3
0439E:  CLRF   xC4
043A0:  CLRF   xC5
043A2:  CLRF   xC6
043A4:  CLRF   xC7
043A6:  CLRF   xC8
043A8:  CLRF   xC9
043AA:  CLRF   xCA
043AC:  CLRF   xCB
043AE:  CLRF   xCC
043B0:  CLRF   xCD
043B2:  CLRF   xCE
....................  
....................    setup_timer_1(T1_INTERNAL|T1_DIV_BY_1);     
043B4:  MOVLW  85
043B6:  MOVWF  FCD
....................    enable_interrupts(INT_TIMER1); 
043B8:  BSF    F9D.0
....................    setup_adc_ports(AN0_TO_AN3); 
043BA:  MOVF   FC1,W
043BC:  ANDLW  C0
043BE:  IORLW  0B
043C0:  MOVWF  FC1
....................    setup_adc(ADC_CLOCK_DIV_32 ); 
043C2:  MOVF   FC0,W
043C4:  ANDLW  C0
043C6:  IORLW  02
043C8:  MOVWF  FC0
043CA:  BSF    FC0.7
043CC:  BSF    FC2.0
....................    enable_interrupts(global);    
043CE:  MOVLW  C0
043D0:  IORWF  FF2,F
....................     
....................    Password[0]=read_eeprom(0); 
043D2:  MOVFF  FF2,649
043D6:  BCF    FF2.7
043D8:  CLRF   FAA
043DA:  CLRF   FA9
043DC:  BCF    FA6.6
043DE:  BCF    FA6.7
043E0:  BSF    FA6.0
043E2:  MOVF   FA8,W
043E4:  MOVLB  6
043E6:  BTFSC  x49.7
043E8:  BSF    FF2.7
043EA:  MOVLB  5
043EC:  MOVWF  x37
....................    delay_ms(10); 
043EE:  MOVLW  0A
043F0:  MOVLB  6
043F2:  MOVWF  x51
043F4:  MOVLB  0
043F6:  CALL   118C
....................    Password[1]=read_eeprom(1); 
043FA:  MOVFF  FF2,649
043FE:  BCF    FF2.7
04400:  CLRF   FAA
04402:  MOVLW  01
04404:  MOVWF  FA9
04406:  BCF    FA6.6
04408:  BCF    FA6.7
0440A:  BSF    FA6.0
0440C:  MOVF   FA8,W
0440E:  MOVLB  6
04410:  BTFSC  x49.7
04412:  BSF    FF2.7
04414:  MOVLB  5
04416:  MOVWF  x38
....................    delay_ms(10); 
04418:  MOVLW  0A
0441A:  MOVLB  6
0441C:  MOVWF  x51
0441E:  MOVLB  0
04420:  CALL   118C
....................    Password[2]=read_eeprom(2); 
04424:  MOVFF  FF2,649
04428:  BCF    FF2.7
0442A:  CLRF   FAA
0442C:  MOVLW  02
0442E:  MOVWF  FA9
04430:  BCF    FA6.6
04432:  BCF    FA6.7
04434:  BSF    FA6.0
04436:  MOVF   FA8,W
04438:  MOVLB  6
0443A:  BTFSC  x49.7
0443C:  BSF    FF2.7
0443E:  MOVLB  5
04440:  MOVWF  x39
....................    delay_ms(10); 
04442:  MOVLW  0A
04444:  MOVLB  6
04446:  MOVWF  x51
04448:  MOVLB  0
0444A:  CALL   118C
....................    Password[3]=read_eeprom(3); 
0444E:  MOVFF  FF2,649
04452:  BCF    FF2.7
04454:  CLRF   FAA
04456:  MOVLW  03
04458:  MOVWF  FA9
0445A:  BCF    FA6.6
0445C:  BCF    FA6.7
0445E:  BSF    FA6.0
04460:  MOVF   FA8,W
04462:  MOVLB  6
04464:  BTFSC  x49.7
04466:  BSF    FF2.7
04468:  MOVLB  5
0446A:  MOVWF  x3A
....................    delay_ms(10); 
0446C:  MOVLW  0A
0446E:  MOVLB  6
04470:  MOVWF  x51
04472:  MOVLB  0
04474:  CALL   118C
....................    Tpurgap[0]=read_eeprom(4); 
04478:  MOVFF  FF2,649
0447C:  BCF    FF2.7
0447E:  CLRF   FAA
04480:  MOVLW  04
04482:  MOVWF  FA9
04484:  BCF    FA6.6
04486:  BCF    FA6.7
04488:  BSF    FA6.0
0448A:  MOVF   FA8,W
0448C:  MOVLB  6
0448E:  BTFSC  x49.7
04490:  BSF    FF2.7
04492:  MOVLB  5
04494:  MOVWF  x17
....................    delay_ms(10); 
04496:  MOVLW  0A
04498:  MOVLB  6
0449A:  MOVWF  x51
0449C:  MOVLB  0
0449E:  CALL   118C
....................    Tpurgap[1]=read_eeprom(5); 
044A2:  MOVFF  FF2,649
044A6:  BCF    FF2.7
044A8:  CLRF   FAA
044AA:  MOVLW  05
044AC:  MOVWF  FA9
044AE:  BCF    FA6.6
044B0:  BCF    FA6.7
044B2:  BSF    FA6.0
044B4:  MOVF   FA8,W
044B6:  MOVLB  6
044B8:  BTFSC  x49.7
044BA:  BSF    FF2.7
044BC:  MOVLB  5
044BE:  MOVWF  x18
....................    delay_ms(10); 
044C0:  MOVLW  0A
044C2:  MOVLB  6
044C4:  MOVWF  x51
044C6:  MOVLB  0
044C8:  CALL   118C
....................    Tpurgap[2]=read_eeprom(6); 
044CC:  MOVFF  FF2,649
044D0:  BCF    FF2.7
044D2:  CLRF   FAA
044D4:  MOVLW  06
044D6:  MOVWF  FA9
044D8:  BCF    FA6.6
044DA:  BCF    FA6.7
044DC:  BSF    FA6.0
044DE:  MOVF   FA8,W
044E0:  MOVLB  6
044E2:  BTFSC  x49.7
044E4:  BSF    FF2.7
044E6:  MOVLB  5
044E8:  MOVWF  x19
....................    delay_ms(10); 
044EA:  MOVLW  0A
044EC:  MOVLB  6
044EE:  MOVWF  x51
044F0:  MOVLB  0
044F2:  CALL   118C
....................    Tpurgap[3]=read_eeprom(7); 
044F6:  MOVFF  FF2,649
044FA:  BCF    FF2.7
044FC:  CLRF   FAA
044FE:  MOVLW  07
04500:  MOVWF  FA9
04502:  BCF    FA6.6
04504:  BCF    FA6.7
04506:  BSF    FA6.0
04508:  MOVF   FA8,W
0450A:  MOVLB  6
0450C:  BTFSC  x49.7
0450E:  BSF    FF2.7
04510:  MOVLB  5
04512:  MOVWF  x1A
....................    delay_ms(10); 
04514:  MOVLW  0A
04516:  MOVLB  6
04518:  MOVWF  x51
0451A:  MOVLB  0
0451C:  CALL   118C
....................    Tppurgap[0]=read_eeprom(8); 
04520:  MOVFF  FF2,649
04524:  BCF    FF2.7
04526:  CLRF   FAA
04528:  MOVLW  08
0452A:  MOVWF  FA9
0452C:  BCF    FA6.6
0452E:  BCF    FA6.7
04530:  BSF    FA6.0
04532:  MOVF   FA8,W
04534:  MOVLB  6
04536:  BTFSC  x49.7
04538:  BSF    FF2.7
0453A:  MOVLB  5
0453C:  MOVWF  x1F
....................    delay_ms(10); 
0453E:  MOVLW  0A
04540:  MOVLB  6
04542:  MOVWF  x51
04544:  MOVLB  0
04546:  CALL   118C
....................    Tppurgap[1]=read_eeprom(9); 
0454A:  MOVFF  FF2,649
0454E:  BCF    FF2.7
04550:  CLRF   FAA
04552:  MOVLW  09
04554:  MOVWF  FA9
04556:  BCF    FA6.6
04558:  BCF    FA6.7
0455A:  BSF    FA6.0
0455C:  MOVF   FA8,W
0455E:  MOVLB  6
04560:  BTFSC  x49.7
04562:  BSF    FF2.7
04564:  MOVLB  5
04566:  MOVWF  x20
....................    delay_ms(10); 
04568:  MOVLW  0A
0456A:  MOVLB  6
0456C:  MOVWF  x51
0456E:  MOVLB  0
04570:  CALL   118C
....................    Tppurgap[2]=read_eeprom(10); 
04574:  MOVFF  FF2,649
04578:  BCF    FF2.7
0457A:  CLRF   FAA
0457C:  MOVLW  0A
0457E:  MOVWF  FA9
04580:  BCF    FA6.6
04582:  BCF    FA6.7
04584:  BSF    FA6.0
04586:  MOVF   FA8,W
04588:  MOVLB  6
0458A:  BTFSC  x49.7
0458C:  BSF    FF2.7
0458E:  MOVLB  5
04590:  MOVWF  x21
....................    delay_ms(10); 
04592:  MOVLW  0A
04594:  MOVLB  6
04596:  MOVWF  x51
04598:  MOVLB  0
0459A:  CALL   118C
....................    Tppurgap[3]=read_eeprom(11); 
0459E:  MOVFF  FF2,649
045A2:  BCF    FF2.7
045A4:  CLRF   FAA
045A6:  MOVLW  0B
045A8:  MOVWF  FA9
045AA:  BCF    FA6.6
045AC:  BCF    FA6.7
045AE:  BSF    FA6.0
045B0:  MOVF   FA8,W
045B2:  MOVLB  6
045B4:  BTFSC  x49.7
045B6:  BSF    FF2.7
045B8:  MOVLB  5
045BA:  MOVWF  x22
....................    delay_ms(10); 
045BC:  MOVLW  0A
045BE:  MOVLB  6
045C0:  MOVWF  x51
045C2:  MOVLB  0
045C4:  CALL   118C
....................    Tuv[0]=read_eeprom(12); 
045C8:  MOVFF  FF2,649
045CC:  BCF    FF2.7
045CE:  CLRF   FAA
045D0:  MOVLW  0C
045D2:  MOVWF  FA9
045D4:  BCF    FA6.6
045D6:  BCF    FA6.7
045D8:  BSF    FA6.0
045DA:  MOVF   FA8,W
045DC:  MOVLB  6
045DE:  BTFSC  x49.7
045E0:  BSF    FF2.7
045E2:  MOVLB  5
045E4:  MOVWF  x23
....................    delay_ms(10); 
045E6:  MOVLW  0A
045E8:  MOVLB  6
045EA:  MOVWF  x51
045EC:  MOVLB  0
045EE:  CALL   118C
....................    Tuv[1]=read_eeprom(13); 
045F2:  MOVFF  FF2,649
045F6:  BCF    FF2.7
045F8:  CLRF   FAA
045FA:  MOVLW  0D
045FC:  MOVWF  FA9
045FE:  BCF    FA6.6
04600:  BCF    FA6.7
04602:  BSF    FA6.0
04604:  MOVF   FA8,W
04606:  MOVLB  6
04608:  BTFSC  x49.7
0460A:  BSF    FF2.7
0460C:  MOVLB  5
0460E:  MOVWF  x24
....................    delay_ms(10); 
04610:  MOVLW  0A
04612:  MOVLB  6
04614:  MOVWF  x51
04616:  MOVLB  0
04618:  CALL   118C
....................    Tuv[2]=read_eeprom(14); 
0461C:  MOVFF  FF2,649
04620:  BCF    FF2.7
04622:  CLRF   FAA
04624:  MOVLW  0E
04626:  MOVWF  FA9
04628:  BCF    FA6.6
0462A:  BCF    FA6.7
0462C:  BSF    FA6.0
0462E:  MOVF   FA8,W
04630:  MOVLB  6
04632:  BTFSC  x49.7
04634:  BSF    FF2.7
04636:  MOVLB  5
04638:  MOVWF  x25
....................    delay_ms(10); 
0463A:  MOVLW  0A
0463C:  MOVLB  6
0463E:  MOVWF  x51
04640:  MOVLB  0
04642:  CALL   118C
....................    Tuv[3]=read_eeprom(15); 
04646:  MOVFF  FF2,649
0464A:  BCF    FF2.7
0464C:  CLRF   FAA
0464E:  MOVLW  0F
04650:  MOVWF  FA9
04652:  BCF    FA6.6
04654:  BCF    FA6.7
04656:  BSF    FA6.0
04658:  MOVF   FA8,W
0465A:  MOVLB  6
0465C:  BTFSC  x49.7
0465E:  BSF    FF2.7
04660:  MOVLB  5
04662:  MOVWF  x26
....................    delay_ms(10); 
04664:  MOVLW  0A
04666:  MOVLB  6
04668:  MOVWF  x51
0466A:  MOVLB  0
0466C:  CALL   118C
....................    Ttrabajo[0]=read_eeprom(16); 
04670:  MOVFF  FF2,649
04674:  BCF    FF2.7
04676:  CLRF   FAA
04678:  MOVLW  10
0467A:  MOVWF  FA9
0467C:  BCF    FA6.6
0467E:  BCF    FA6.7
04680:  BSF    FA6.0
04682:  MOVF   FA8,W
04684:  MOVLB  6
04686:  BTFSC  x49.7
04688:  BSF    FF2.7
0468A:  MOVLB  5
0468C:  MOVWF  x2F
....................    delay_ms(10); 
0468E:  MOVLW  0A
04690:  MOVLB  6
04692:  MOVWF  x51
04694:  MOVLB  0
04696:  CALL   118C
....................    Ttrabajo[1]=read_eeprom(17); 
0469A:  MOVFF  FF2,649
0469E:  BCF    FF2.7
046A0:  CLRF   FAA
046A2:  MOVLW  11
046A4:  MOVWF  FA9
046A6:  BCF    FA6.6
046A8:  BCF    FA6.7
046AA:  BSF    FA6.0
046AC:  MOVF   FA8,W
046AE:  MOVLB  6
046B0:  BTFSC  x49.7
046B2:  BSF    FF2.7
046B4:  MOVLB  5
046B6:  MOVWF  x30
....................    delay_ms(10); 
046B8:  MOVLW  0A
046BA:  MOVLB  6
046BC:  MOVWF  x51
046BE:  MOVLB  0
046C0:  CALL   118C
....................    Ttrabajo[2]=read_eeprom(18); 
046C4:  MOVFF  FF2,649
046C8:  BCF    FF2.7
046CA:  CLRF   FAA
046CC:  MOVLW  12
046CE:  MOVWF  FA9
046D0:  BCF    FA6.6
046D2:  BCF    FA6.7
046D4:  BSF    FA6.0
046D6:  MOVF   FA8,W
046D8:  MOVLB  6
046DA:  BTFSC  x49.7
046DC:  BSF    FF2.7
046DE:  MOVLB  5
046E0:  MOVWF  x31
....................    delay_ms(10); 
046E2:  MOVLW  0A
046E4:  MOVLB  6
046E6:  MOVWF  x51
046E8:  MOVLB  0
046EA:  CALL   118C
....................    Ttrabajo[3]=read_eeprom(19); 
046EE:  MOVFF  FF2,649
046F2:  BCF    FF2.7
046F4:  CLRF   FAA
046F6:  MOVLW  13
046F8:  MOVWF  FA9
046FA:  BCF    FA6.6
046FC:  BCF    FA6.7
046FE:  BSF    FA6.0
04700:  MOVF   FA8,W
04702:  MOVLB  6
04704:  BTFSC  x49.7
04706:  BSF    FF2.7
04708:  MOVLB  5
0470A:  MOVWF  x32
....................    delay_ms(10); 
0470C:  MOVLW  0A
0470E:  MOVLB  6
04710:  MOVWF  x51
04712:  MOVLB  0
04714:  CALL   118C
....................    flag_alarma=read_eeprom(20); 
04718:  MOVFF  FF2,649
0471C:  BCF    FF2.7
0471E:  CLRF   FAA
04720:  MOVLW  14
04722:  MOVWF  FA9
04724:  BCF    FA6.6
04726:  BCF    FA6.7
04728:  BSF    FA6.0
0472A:  MOVF   FA8,W
0472C:  MOVLB  6
0472E:  BTFSC  x49.7
04730:  BSF    FF2.7
04732:  MOVWF  01
04734:  MOVLB  4
04736:  BCF    x31.4
04738:  BTFSC  01.0
0473A:  BSF    x31.4
....................      
....................    delay_ms(10); 
0473C:  MOVLW  0A
0473E:  MOVLB  6
04740:  MOVWF  x51
04742:  MOVLB  0
04744:  CALL   118C
....................    Entero=read_eeprom(25);//Decimal1=read_eeprom(26); 
04748:  MOVFF  FF2,649
0474C:  BCF    FF2.7
0474E:  CLRF   FAA
04750:  MOVLW  19
04752:  MOVWF  FA9
04754:  BCF    FA6.6
04756:  BCF    FA6.7
04758:  BSF    FA6.0
0475A:  MOVF   FA8,W
0475C:  MOVLB  6
0475E:  BTFSC  x49.7
04760:  BSF    FF2.7
04762:  MOVLB  4
04764:  MOVWF  xFD
....................    delay_ms(10); 
04766:  MOVLW  0A
04768:  MOVLB  6
0476A:  MOVWF  x51
0476C:  MOVLB  0
0476E:  CALL   118C
....................    Temporal=read_eeprom(26); 
04772:  MOVFF  FF2,649
04776:  BCF    FF2.7
04778:  CLRF   FAA
0477A:  MOVLW  1A
0477C:  MOVWF  FA9
0477E:  BCF    FA6.6
04780:  BCF    FA6.7
04782:  BSF    FA6.0
04784:  MOVF   FA8,W
04786:  MOVLB  6
04788:  BTFSC  x49.7
0478A:  BSF    FF2.7
0478C:  CLRF   x7F
0478E:  MOVWF  x7E
04790:  MOVLB  0
04792:  CALL   11B4
04796:  MOVFF  03,57A
0479A:  MOVFF  02,579
0479E:  MOVFF  01,578
047A2:  MOVFF  00,577
....................    delay_ms(10); 
047A6:  MOVLW  0A
047A8:  MOVLB  6
047AA:  MOVWF  x51
047AC:  MOVLB  0
047AE:  CALL   118C
....................    Temporal=Temporal/100.0; 
047B2:  MOVFF  57A,67D
047B6:  MOVFF  579,67C
047BA:  MOVFF  578,67B
047BE:  MOVFF  577,67A
047C2:  MOVLB  6
047C4:  CLRF   x81
047C6:  CLRF   x80
047C8:  MOVLW  48
047CA:  MOVWF  x7F
047CC:  MOVLW  85
047CE:  MOVWF  x7E
047D0:  MOVLB  0
047D2:  CALL   11EA
047D6:  MOVFF  03,57A
047DA:  MOVFF  02,579
047DE:  MOVFF  01,578
047E2:  MOVFF  00,577
....................    Ajuste1=Entero+Temporal; 
047E6:  MOVLB  6
047E8:  CLRF   x7F
047EA:  MOVFF  4FD,67E
047EE:  MOVLB  0
047F0:  CALL   11B4
047F4:  BCF    FD8.1
047F6:  MOVFF  03,681
047FA:  MOVFF  02,680
047FE:  MOVFF  01,67F
04802:  MOVFF  00,67E
04806:  MOVFF  57A,685
0480A:  MOVFF  579,684
0480E:  MOVFF  578,683
04812:  MOVFF  577,682
04816:  CALL   1348
0481A:  MOVFF  03,56E
0481E:  MOVFF  02,56D
04822:  MOVFF  01,56C
04826:  MOVFF  00,56B
....................     
....................     
....................    Entero=read_eeprom(27);//Decimal1=read_eeprom(26); 
0482A:  MOVFF  FF2,649
0482E:  BCF    FF2.7
04830:  CLRF   FAA
04832:  MOVLW  1B
04834:  MOVWF  FA9
04836:  BCF    FA6.6
04838:  BCF    FA6.7
0483A:  BSF    FA6.0
0483C:  MOVF   FA8,W
0483E:  MOVLB  6
04840:  BTFSC  x49.7
04842:  BSF    FF2.7
04844:  MOVLB  4
04846:  MOVWF  xFD
....................    delay_ms(10); 
04848:  MOVLW  0A
0484A:  MOVLB  6
0484C:  MOVWF  x51
0484E:  MOVLB  0
04850:  CALL   118C
....................    Temporal=read_eeprom(28); 
04854:  MOVFF  FF2,649
04858:  BCF    FF2.7
0485A:  CLRF   FAA
0485C:  MOVLW  1C
0485E:  MOVWF  FA9
04860:  BCF    FA6.6
04862:  BCF    FA6.7
04864:  BSF    FA6.0
04866:  MOVF   FA8,W
04868:  MOVLB  6
0486A:  BTFSC  x49.7
0486C:  BSF    FF2.7
0486E:  CLRF   x7F
04870:  MOVWF  x7E
04872:  MOVLB  0
04874:  CALL   11B4
04878:  MOVFF  03,57A
0487C:  MOVFF  02,579
04880:  MOVFF  01,578
04884:  MOVFF  00,577
....................    delay_ms(10); 
04888:  MOVLW  0A
0488A:  MOVLB  6
0488C:  MOVWF  x51
0488E:  MOVLB  0
04890:  CALL   118C
....................    Temporal=Temporal/100.0; 
04894:  MOVFF  57A,67D
04898:  MOVFF  579,67C
0489C:  MOVFF  578,67B
048A0:  MOVFF  577,67A
048A4:  MOVLB  6
048A6:  CLRF   x81
048A8:  CLRF   x80
048AA:  MOVLW  48
048AC:  MOVWF  x7F
048AE:  MOVLW  85
048B0:  MOVWF  x7E
048B2:  MOVLB  0
048B4:  CALL   11EA
048B8:  MOVFF  03,57A
048BC:  MOVFF  02,579
048C0:  MOVFF  01,578
048C4:  MOVFF  00,577
....................    Ajuste2=Entero+Temporal; 
048C8:  MOVLB  6
048CA:  CLRF   x7F
048CC:  MOVFF  4FD,67E
048D0:  MOVLB  0
048D2:  CALL   11B4
048D6:  BCF    FD8.1
048D8:  MOVFF  03,681
048DC:  MOVFF  02,680
048E0:  MOVFF  01,67F
048E4:  MOVFF  00,67E
048E8:  MOVFF  57A,685
048EC:  MOVFF  579,684
048F0:  MOVFF  578,683
048F4:  MOVFF  577,682
048F8:  CALL   1348
048FC:  MOVFF  03,572
04900:  MOVFF  02,571
04904:  MOVFF  01,570
04908:  MOVFF  00,56F
....................     
....................     
....................    Entero=read_eeprom(29);//Decimal1=read_eeprom(26); 
0490C:  MOVFF  FF2,649
04910:  BCF    FF2.7
04912:  CLRF   FAA
04914:  MOVLW  1D
04916:  MOVWF  FA9
04918:  BCF    FA6.6
0491A:  BCF    FA6.7
0491C:  BSF    FA6.0
0491E:  MOVF   FA8,W
04920:  MOVLB  6
04922:  BTFSC  x49.7
04924:  BSF    FF2.7
04926:  MOVLB  4
04928:  MOVWF  xFD
....................    delay_ms(10); 
0492A:  MOVLW  0A
0492C:  MOVLB  6
0492E:  MOVWF  x51
04930:  MOVLB  0
04932:  CALL   118C
....................    zero_actual=Entero; 
04936:  MOVLB  6
04938:  CLRF   x7F
0493A:  MOVFF  4FD,67E
0493E:  MOVLB  0
04940:  CALL   11B4
04944:  MOVFF  03,5DA
04948:  MOVFF  02,5D9
0494C:  MOVFF  01,5D8
04950:  MOVFF  00,5D7
....................     
....................    Diferencia=make16(read_eeprom(61),read_eeprom(60)); 
04954:  MOVFF  FF2,649
04958:  BCF    FF2.7
0495A:  CLRF   FAA
0495C:  MOVLW  3D
0495E:  MOVWF  FA9
04960:  BCF    FA6.6
04962:  BCF    FA6.7
04964:  BSF    FA6.0
04966:  MOVF   FA8,W
04968:  MOVLB  6
0496A:  BTFSC  x49.7
0496C:  BSF    FF2.7
0496E:  MOVWF  x4A
04970:  MOVFF  FF2,64B
04974:  BCF    FF2.7
04976:  CLRF   FAA
04978:  MOVLW  3C
0497A:  MOVWF  FA9
0497C:  BCF    FA6.6
0497E:  BCF    FA6.7
04980:  BSF    FA6.0
04982:  MOVF   FA8,W
04984:  BTFSC  x4B.7
04986:  BSF    FF2.7
04988:  MOVWF  x4C
0498A:  MOVFF  64A,03
0498E:  MOVF   x4C,W
04990:  MOVWF  x7E
04992:  MOVFF  03,67F
04996:  MOVLB  0
04998:  CALL   11B4
0499C:  MOVFF  03,54A
049A0:  MOVFF  02,549
049A4:  MOVFF  01,548
049A8:  MOVFF  00,547
....................    delay_ms(10); 
049AC:  MOVLW  0A
049AE:  MOVLB  6
049B0:  MOVWF  x51
049B2:  MOVLB  0
049B4:  CALL   118C
....................    G=make16(read_eeprom(63),read_eeprom(62)); 
049B8:  MOVFF  FF2,649
049BC:  BCF    FF2.7
049BE:  CLRF   FAA
049C0:  MOVLW  3F
049C2:  MOVWF  FA9
049C4:  BCF    FA6.6
049C6:  BCF    FA6.7
049C8:  BSF    FA6.0
049CA:  MOVF   FA8,W
049CC:  MOVLB  6
049CE:  BTFSC  x49.7
049D0:  BSF    FF2.7
049D2:  MOVWF  x4A
049D4:  MOVFF  FF2,64B
049D8:  BCF    FF2.7
049DA:  CLRF   FAA
049DC:  MOVLW  3E
049DE:  MOVWF  FA9
049E0:  BCF    FA6.6
049E2:  BCF    FA6.7
049E4:  BSF    FA6.0
049E6:  MOVF   FA8,W
049E8:  BTFSC  x4B.7
049EA:  BSF    FF2.7
049EC:  MOVWF  x4C
049EE:  MOVFF  64A,03
049F2:  MOVF   x4C,W
049F4:  MOVWF  x7E
049F6:  MOVFF  03,67F
049FA:  MOVLB  0
049FC:  CALL   11B4
04A00:  MOVFF  03,5E6
04A04:  MOVFF  02,5E5
04A08:  MOVFF  01,5E4
04A0C:  MOVFF  00,5E3
....................    delay_ms(10); 
04A10:  MOVLW  0A
04A12:  MOVLB  6
04A14:  MOVWF  x51
04A16:  MOVLB  0
04A18:  CALL   118C
....................    negativo=read_eeprom(50); 
04A1C:  MOVFF  FF2,649
04A20:  BCF    FF2.7
04A22:  CLRF   FAA
04A24:  MOVLW  32
04A26:  MOVWF  FA9
04A28:  BCF    FA6.6
04A2A:  BCF    FA6.7
04A2C:  BSF    FA6.0
04A2E:  MOVF   FA8,W
04A30:  MOVLB  6
04A32:  BTFSC  x49.7
04A34:  BSF    FF2.7
04A36:  MOVLB  4
04A38:  MOVWF  xF5
....................    delay_ms(10); 
04A3A:  MOVLW  0A
04A3C:  MOVLB  6
04A3E:  MOVWF  x51
04A40:  MOVLB  0
04A42:  CALL   118C
....................    Menu=200; 
04A46:  MOVLW  C8
04A48:  MOVLB  4
04A4A:  MOVWF  xF1
....................  
....................    if(G>1000)G=240; 
04A4C:  MOVLB  6
04A4E:  CLRF   x7D
04A50:  CLRF   x7C
04A52:  MOVLW  7A
04A54:  MOVWF  x7B
04A56:  MOVLW  88
04A58:  MOVWF  x7A
04A5A:  MOVFF  5E6,681
04A5E:  MOVFF  5E5,680
04A62:  MOVFF  5E4,67F
04A66:  MOVFF  5E3,67E
04A6A:  MOVLB  0
04A6C:  CALL   15C0
04A70:  BNC   4A80
04A72:  MOVLB  5
04A74:  CLRF   xE6
04A76:  CLRF   xE5
04A78:  MOVLW  70
04A7A:  MOVWF  xE4
04A7C:  MOVLW  86
04A7E:  MOVWF  xE3
....................    if(Ajuste1<=0.0 || Ajuste1>5.0)Ajuste1=1.0; 
04A80:  MOVFF  56E,67D
04A84:  MOVFF  56D,67C
04A88:  MOVFF  56C,67B
04A8C:  MOVFF  56B,67A
04A90:  MOVLB  6
04A92:  CLRF   x81
04A94:  CLRF   x80
04A96:  CLRF   x7F
04A98:  CLRF   x7E
04A9A:  MOVLB  0
04A9C:  CALL   15C0
04AA0:  BC    4ACA
04AA2:  BZ    4ACA
04AA4:  MOVLB  6
04AA6:  CLRF   x7D
04AA8:  CLRF   x7C
04AAA:  MOVLW  20
04AAC:  MOVWF  x7B
04AAE:  MOVLW  81
04AB0:  MOVWF  x7A
04AB2:  MOVFF  56E,681
04AB6:  MOVFF  56D,680
04ABA:  MOVFF  56C,67F
04ABE:  MOVFF  56B,67E
04AC2:  MOVLB  0
04AC4:  CALL   15C0
04AC8:  BNC   4AD6
04ACA:  MOVLB  5
04ACC:  CLRF   x6E
04ACE:  CLRF   x6D
04AD0:  CLRF   x6C
04AD2:  MOVLW  7F
04AD4:  MOVWF  x6B
....................    if(Ajuste2<=0.0 || Ajuste2>5.0)Ajuste2=1.0; 
04AD6:  MOVFF  572,67D
04ADA:  MOVFF  571,67C
04ADE:  MOVFF  570,67B
04AE2:  MOVFF  56F,67A
04AE6:  MOVLB  6
04AE8:  CLRF   x81
04AEA:  CLRF   x80
04AEC:  CLRF   x7F
04AEE:  CLRF   x7E
04AF0:  MOVLB  0
04AF2:  CALL   15C0
04AF6:  BC    4B20
04AF8:  BZ    4B20
04AFA:  MOVLB  6
04AFC:  CLRF   x7D
04AFE:  CLRF   x7C
04B00:  MOVLW  20
04B02:  MOVWF  x7B
04B04:  MOVLW  81
04B06:  MOVWF  x7A
04B08:  MOVFF  572,681
04B0C:  MOVFF  571,680
04B10:  MOVFF  570,67F
04B14:  MOVFF  56F,67E
04B18:  MOVLB  0
04B1A:  CALL   15C0
04B1E:  BNC   4B2E
04B20:  MOVLB  5
04B22:  CLRF   x72
04B24:  CLRF   x71
04B26:  CLRF   x70
04B28:  MOVLW  7F
04B2A:  MOVWF  x6F
04B2C:  MOVLB  0
....................    while(true){ 
....................     
....................    if(NUEVO_DATO==1){ 
04B2E:  MOVLB  4
04B30:  BTFSS  x33.2
04B32:  BRA    4CEC
....................          NUEVO_DATO=0; 
04B34:  BCF    x33.2
....................          BYTE_IR[0]=BIT_BYTE(BITS[0],BITS[1],BITS[2],BITS[3],BITS[4],BITS[5],BITS[6],BITS[7]); 
04B36:  MOVLW  00
04B38:  MOVLB  6
04B3A:  BTFSC  x3B.0
04B3C:  MOVLW  01
04B3E:  MOVWF  x49
04B40:  MOVLW  00
04B42:  BTFSC  x3B.1
04B44:  MOVLW  01
04B46:  MOVWF  x4A
04B48:  MOVLW  00
04B4A:  BTFSC  x3B.2
04B4C:  MOVLW  01
04B4E:  MOVWF  x4B
04B50:  MOVLW  00
04B52:  BTFSC  x3B.3
04B54:  MOVLW  01
04B56:  MOVWF  x4C
04B58:  MOVLW  00
04B5A:  BTFSC  x3B.4
04B5C:  MOVLW  01
04B5E:  MOVWF  x4D
04B60:  MOVLW  00
04B62:  BTFSC  x3B.5
04B64:  MOVLW  01
04B66:  MOVWF  x4E
04B68:  MOVLW  00
04B6A:  BTFSC  x3B.6
04B6C:  MOVLW  01
04B6E:  MOVWF  x4F
04B70:  MOVLW  00
04B72:  BTFSC  x3B.7
04B74:  MOVLW  01
04B76:  MOVFF  649,651
04B7A:  MOVFF  64A,652
04B7E:  MOVFF  64B,653
04B82:  MOVFF  64C,654
04B86:  MOVFF  64D,655
04B8A:  MOVFF  64E,656
04B8E:  MOVFF  64F,657
04B92:  MOVWF  x58
04B94:  MOVLB  0
04B96:  CALL   163A
04B9A:  MOVFF  01,645
....................          BYTE_IR[1]=BIT_BYTE(BITS[8],BITS[9],BITS[10],BITS[11],BITS[12],BITS[13],BITS[14],BITS[15]); 
04B9E:  MOVLW  00
04BA0:  MOVLB  6
04BA2:  BTFSC  x3C.0
04BA4:  MOVLW  01
04BA6:  MOVWF  x49
04BA8:  MOVLW  00
04BAA:  BTFSC  x3C.1
04BAC:  MOVLW  01
04BAE:  MOVWF  x4A
04BB0:  MOVLW  00
04BB2:  BTFSC  x3C.2
04BB4:  MOVLW  01
04BB6:  MOVWF  x4B
04BB8:  MOVLW  00
04BBA:  BTFSC  x3C.3
04BBC:  MOVLW  01
04BBE:  MOVWF  x4C
04BC0:  MOVLW  00
04BC2:  BTFSC  x3C.4
04BC4:  MOVLW  01
04BC6:  MOVWF  x4D
04BC8:  MOVLW  00
04BCA:  BTFSC  x3C.5
04BCC:  MOVLW  01
04BCE:  MOVWF  x4E
04BD0:  MOVLW  00
04BD2:  BTFSC  x3C.6
04BD4:  MOVLW  01
04BD6:  MOVWF  x4F
04BD8:  MOVLW  00
04BDA:  BTFSC  x3C.7
04BDC:  MOVLW  01
04BDE:  MOVFF  649,651
04BE2:  MOVFF  64A,652
04BE6:  MOVFF  64B,653
04BEA:  MOVFF  64C,654
04BEE:  MOVFF  64D,655
04BF2:  MOVFF  64E,656
04BF6:  MOVFF  64F,657
04BFA:  MOVWF  x58
04BFC:  MOVLB  0
04BFE:  CALL   163A
04C02:  MOVFF  01,646
....................          BYTE_IR[2]=BIT_BYTE(BITS[16],BITS[17],BITS[18],BITS[19],BITS[20],BITS[21],BITS[22],BITS[23]); 
04C06:  MOVLW  00
04C08:  MOVLB  6
04C0A:  BTFSC  x3D.0
04C0C:  MOVLW  01
04C0E:  MOVWF  x49
04C10:  MOVLW  00
04C12:  BTFSC  x3D.1
04C14:  MOVLW  01
04C16:  MOVWF  x4A
04C18:  MOVLW  00
04C1A:  BTFSC  x3D.2
04C1C:  MOVLW  01
04C1E:  MOVWF  x4B
04C20:  MOVLW  00
04C22:  BTFSC  x3D.3
04C24:  MOVLW  01
04C26:  MOVWF  x4C
04C28:  MOVLW  00
04C2A:  BTFSC  x3D.4
04C2C:  MOVLW  01
04C2E:  MOVWF  x4D
04C30:  MOVLW  00
04C32:  BTFSC  x3D.5
04C34:  MOVLW  01
04C36:  MOVWF  x4E
04C38:  MOVLW  00
04C3A:  BTFSC  x3D.6
04C3C:  MOVLW  01
04C3E:  MOVWF  x4F
04C40:  MOVLW  00
04C42:  BTFSC  x3D.7
04C44:  MOVLW  01
04C46:  MOVFF  649,651
04C4A:  MOVFF  64A,652
04C4E:  MOVFF  64B,653
04C52:  MOVFF  64C,654
04C56:  MOVFF  64D,655
04C5A:  MOVFF  64E,656
04C5E:  MOVFF  64F,657
04C62:  MOVWF  x58
04C64:  MOVLB  0
04C66:  CALL   163A
04C6A:  MOVFF  01,647
....................          BYTE_IR[3]=BIT_BYTE(BITS[24],BITS[25],BITS[26],BITS[27],BITS[28],BITS[29],BITS[30],BITS[31]); 
04C6E:  MOVLW  00
04C70:  MOVLB  6
04C72:  BTFSC  x3E.0
04C74:  MOVLW  01
04C76:  MOVWF  x49
04C78:  MOVLW  00
04C7A:  BTFSC  x3E.1
04C7C:  MOVLW  01
04C7E:  MOVWF  x4A
04C80:  MOVLW  00
04C82:  BTFSC  x3E.2
04C84:  MOVLW  01
04C86:  MOVWF  x4B
04C88:  MOVLW  00
04C8A:  BTFSC  x3E.3
04C8C:  MOVLW  01
04C8E:  MOVWF  x4C
04C90:  MOVLW  00
04C92:  BTFSC  x3E.4
04C94:  MOVLW  01
04C96:  MOVWF  x4D
04C98:  MOVLW  00
04C9A:  BTFSC  x3E.5
04C9C:  MOVLW  01
04C9E:  MOVWF  x4E
04CA0:  MOVLW  00
04CA2:  BTFSC  x3E.6
04CA4:  MOVLW  01
04CA6:  MOVWF  x4F
04CA8:  MOVLW  00
04CAA:  BTFSC  x3E.7
04CAC:  MOVLW  01
04CAE:  MOVFF  649,651
04CB2:  MOVFF  64A,652
04CB6:  MOVFF  64B,653
04CBA:  MOVFF  64C,654
04CBE:  MOVFF  64D,655
04CC2:  MOVFF  64E,656
04CC6:  MOVFF  64F,657
04CCA:  MOVWF  x58
04CCC:  MOVLB  0
04CCE:  CALL   163A
04CD2:  MOVFF  01,648
....................           
....................          delay_ms(500); 
04CD6:  MOVLW  02
04CD8:  MOVLB  6
04CDA:  MOVWF  x49
04CDC:  MOVLW  FA
04CDE:  MOVWF  x51
04CE0:  MOVLB  0
04CE2:  CALL   118C
04CE6:  MOVLB  6
04CE8:  DECFSZ x49,F
04CEA:  BRA    4CDC
....................       } 
....................  
....................    if(BYTE_IR[3]==0XF2 && Menu!=200) //Subir Vidrio 
04CEC:  MOVLB  6
04CEE:  MOVF   x48,W
04CF0:  SUBLW  F2
04CF2:  BNZ   4D12
04CF4:  MOVLB  4
04CF6:  MOVF   xF1,W
04CF8:  SUBLW  C8
04CFA:  BTFSS  FD8.2
04CFC:  BRA    4D02
04CFE:  MOVLB  6
04D00:  BRA    4D12
....................    { 
....................       if(!VIDRIOUP) 
04D02:  BSF    F92.5
04D04:  BTFSC  F80.5
04D06:  BRA    4D0C
....................          O1_on;O2_off; 
04D08:  BSF    F8D.0
04D0A:  BCF    F96.0
04D0C:  BCF    F8B.3
04D0E:  BCF    F94.3
04D10:  MOVLB  6
....................    } 
....................     
....................    if(BYTE_IR[3]==0XE9 && Menu!=200) 
04D12:  MOVF   x48,W
04D14:  SUBLW  E9
04D16:  BNZ   4D36
04D18:  MOVLB  4
04D1A:  MOVF   xF1,W
04D1C:  SUBLW  C8
04D1E:  BTFSS  FD8.2
04D20:  BRA    4D26
04D22:  MOVLB  6
04D24:  BRA    4D36
....................    { 
....................       if(!VIDRIODN) 
04D26:  BSF    F92.4
04D28:  BTFSC  F80.4
04D2A:  BRA    4D30
....................          O1_off;O2_on; 
04D2C:  BCF    F8D.0
04D2E:  BCF    F96.0
04D30:  BSF    F8B.3
04D32:  BCF    F94.3
04D34:  MOVLB  6
....................    } 
....................    
....................    if(BYTE_IR[3]==0XE6) 
04D36:  MOVF   x48,W
04D38:  SUBLW  E6
04D3A:  BNZ   4D44
....................    { 
....................       O1_off;O2_off; 
04D3C:  BCF    F8D.0
04D3E:  BCF    F96.0
04D40:  BCF    F8B.3
04D42:  BCF    F94.3
....................    } 
....................     
....................    glcd_update(); 
04D44:  MOVLB  0
04D46:  CALL   16B4
....................     
....................    if(Lectura==1) 
04D4A:  MOVLB  4
04D4C:  BTFSS  x32.6
04D4E:  BRA    4D8A
....................    { 
....................       Lectura=0; 
04D50:  BCF    x32.6
....................       InFlow=LeerFlujoInFlow(8); 
04D52:  MOVLW  08
04D54:  MOVLB  6
04D56:  MOVWF  x49
04D58:  MOVLB  0
04D5A:  GOTO   2A0C
04D5E:  MOVFF  03,53E
04D62:  MOVFF  02,53D
04D66:  MOVFF  01,53C
04D6A:  MOVFF  00,53B
....................       Filtro_DownFlow=Leer_Sensor_Presion(8); 
04D6E:  MOVLW  08
04D70:  MOVLB  6
04D72:  MOVWF  x49
04D74:  MOVLB  0
04D76:  GOTO   2DD8
04D7A:  MOVFF  03,546
04D7E:  MOVFF  02,545
04D82:  MOVFF  01,544
04D86:  MOVFF  00,543
....................    } 
....................     
....................    if(minutos_trabajo>=3600) // Tiempo de Trabajo 
04D8A:  MOVLB  5
04D8C:  MOVF   x10,W
04D8E:  SUBLW  0D
04D90:  BC    4DD8
04D92:  XORLW  FF
04D94:  BNZ   4D9C
04D96:  MOVF   x0F,W
04D98:  SUBLW  0F
04D9A:  BC    4DD8
....................    { 
....................       minutos_trabajo=0; 
04D9C:  CLRF   x10
04D9E:  CLRF   x0F
....................       Ttrabajo[0]++; 
04DA0:  INCF   x2F,F
....................       if(Ttrabajo[0]>9) 
04DA2:  BTFSC  x2F.7
04DA4:  BRA    4DB0
04DA6:  MOVF   x2F,W
04DA8:  SUBLW  09
04DAA:  BC    4DB0
....................       { 
....................          Ttrabajo[0]=0; 
04DAC:  CLRF   x2F
....................          Ttrabajo[1]++; 
04DAE:  INCF   x30,F
....................       } 
....................       if(Ttrabajo[1]>9) 
04DB0:  BTFSC  x30.7
04DB2:  BRA    4DBE
04DB4:  MOVF   x30,W
04DB6:  SUBLW  09
04DB8:  BC    4DBE
....................       { 
....................          Ttrabajo[1]=0; 
04DBA:  CLRF   x30
....................          Ttrabajo[2]++; 
04DBC:  INCF   x31,F
....................       } 
....................       if(Ttrabajo[2]>9) 
04DBE:  BTFSC  x31.7
04DC0:  BRA    4DCC
04DC2:  MOVF   x31,W
04DC4:  SUBLW  09
04DC6:  BC    4DCC
....................       { 
....................          Ttrabajo[2]=0; 
04DC8:  CLRF   x31
....................          Ttrabajo[3]++; 
04DCA:  INCF   x32,F
....................       } 
....................       if(Ttrabajo[3]>9) 
04DCC:  BTFSC  x32.7
04DCE:  BRA    4DD8
04DD0:  MOVF   x32,W
04DD2:  SUBLW  09
04DD4:  BC    4DD8
....................       { 
....................          Ttrabajo[3]=0; 
04DD6:  CLRF   x32
....................       } 
....................    }           
....................     
....................    if(Menu!=2) 
04DD8:  MOVLB  4
04DDA:  MOVF   xF1,W
04DDC:  SUBLW  02
04DDE:  BZ    4DEC
....................    { 
....................       Alarma_off; 
04DE0:  BCF    F8B.2
04DE2:  BCF    F94.2
....................       Alarma=10; 
04DE4:  MOVLW  0A
04DE6:  MOVLB  5
04DE8:  MOVWF  x01
04DEA:  MOVLB  4
....................    } 
.................... //_-------------------------------------------------------------------------------------------------------------------------------------------------------- 
....................       if(Menu==0){ //Menu de Contrasea. 
04DEC:  MOVF   xF1,F
04DEE:  BTFSS  FD8.2
04DF0:  BRA    54C2
....................       flag_latencia=1; 
04DF2:  BSF    x32.3
....................       if(Latencia==1) 
04DF4:  BTFSS  x32.2
04DF6:  BRA    4E18
....................       { 
....................          glcd_fillScreen(OFF);glcd_init(OFF);Display_off;Menu=200;reset_cpu(); 
04DF8:  MOVLB  6
04DFA:  CLRF   x4A
04DFC:  MOVLB  0
04DFE:  CALL   2FD6
04E02:  MOVLB  6
04E04:  CLRF   x49
04E06:  MOVLB  0
04E08:  CALL   3030
04E0C:  BCF    F8A.1
04E0E:  BCF    F93.1
04E10:  MOVLW  C8
04E12:  MOVLB  4
04E14:  MOVWF  xF1
04E16:  RESET
....................       } 
....................        
....................       if(UP || BYTE_IR[2]==0X18)//Si oprime hacia arriba 
04E18:  BSF    F96.1
04E1A:  BTFSC  F84.1
04E1C:  BRA    4E2A
04E1E:  MOVLB  6
04E20:  MOVF   x47,W
04E22:  SUBLW  18
04E24:  BTFSS  FD8.2
04E26:  BRA    4F0E
04E28:  MOVLB  4
....................       { 
....................          flag_latencia=0;t_latencia=0;BYTE_IR[2]=0X00; 
04E2A:  BCF    x32.3
04E2C:  MOVLB  5
04E2E:  CLRF   x0C
04E30:  CLRF   x0B
04E32:  MOVLB  6
04E34:  CLRF   x47
....................          if(Flanco == 0) 
04E36:  MOVLB  4
04E38:  BTFSC  x30.0
04E3A:  BRA    4F0A
....................          { 
....................             Flanco = 1;delay_ms(5); 
04E3C:  BSF    x30.0
04E3E:  MOVLW  05
04E40:  MOVLB  6
04E42:  MOVWF  x51
04E44:  MOVLB  0
04E46:  CALL   118C
....................             for(i=1;i<=4;i++) 
04E4A:  MOVLW  01
04E4C:  MOVLB  4
04E4E:  MOVWF  x2F
04E50:  MOVF   x2F,W
04E52:  SUBLW  04
04E54:  BNC   4F0A
....................             { 
....................                if(unidad==i) 
04E56:  MOVF   x2F,W
04E58:  SUBWF  xF2,W
04E5A:  BNZ   4ED2
....................                { 
....................                   Contrasena[i-1]++; 
04E5C:  MOVLW  01
04E5E:  SUBWF  x2F,W
04E60:  CLRF   03
04E62:  ADDLW  33
04E64:  MOVWF  FE9
04E66:  MOVLW  05
04E68:  ADDWFC 03,W
04E6A:  MOVWF  FEA
04E6C:  INCF   FEF,F
....................                   if(Contrasena[i-1]>9) 
04E6E:  MOVLW  01
04E70:  SUBWF  x2F,W
04E72:  CLRF   03
04E74:  ADDLW  33
04E76:  MOVWF  FE9
04E78:  MOVLW  05
04E7A:  ADDWFC 03,W
04E7C:  MOVWF  FEA
04E7E:  BTFSC  FEF.7
04E80:  BRA    4E9A
04E82:  MOVF   FEF,W
04E84:  SUBLW  09
04E86:  BC    4E9A
....................                   { 
....................                      Contrasena[i-1]=0; 
04E88:  MOVLW  01
04E8A:  SUBWF  x2F,W
04E8C:  CLRF   03
04E8E:  ADDLW  33
04E90:  MOVWF  FE9
04E92:  MOVLW  05
04E94:  ADDWFC 03,W
04E96:  MOVWF  FEA
04E98:  CLRF   FEF
....................                   } 
....................                   displayContrasena(Contrasena[i-1],i*20,30,1); 
04E9A:  MOVLW  01
04E9C:  SUBWF  x2F,W
04E9E:  CLRF   03
04EA0:  ADDLW  33
04EA2:  MOVWF  FE9
04EA4:  MOVLW  05
04EA6:  ADDWFC 03,W
04EA8:  MOVWF  FEA
04EAA:  MOVFF  FEF,649
04EAE:  MOVF   x2F,W
04EB0:  MULLW  14
04EB2:  MOVFF  FF3,64A
04EB6:  MOVLB  6
04EB8:  MOVFF  649,64B
04EBC:  MOVFF  64A,64C
04EC0:  MOVLW  1E
04EC2:  MOVWF  x4D
04EC4:  MOVLW  01
04EC6:  MOVWF  x4E
04EC8:  MOVLB  0
04ECA:  CALL   368E
....................                } 
....................                else 
04ECE:  BRA    4F04
04ED0:  MOVLB  4
....................                { 
....................                   displayContrasena(Contrasena[i-1],i*20,30,0); 
04ED2:  MOVLW  01
04ED4:  SUBWF  x2F,W
04ED6:  CLRF   03
04ED8:  ADDLW  33
04EDA:  MOVWF  FE9
04EDC:  MOVLW  05
04EDE:  ADDWFC 03,W
04EE0:  MOVWF  FEA
04EE2:  MOVFF  FEF,649
04EE6:  MOVF   x2F,W
04EE8:  MULLW  14
04EEA:  MOVFF  FF3,64A
04EEE:  MOVLB  6
04EF0:  MOVFF  649,64B
04EF4:  MOVFF  64A,64C
04EF8:  MOVLW  1E
04EFA:  MOVWF  x4D
04EFC:  CLRF   x4E
04EFE:  MOVLB  0
04F00:  CALL   368E
....................                } 
....................             } 
04F04:  MOVLB  4
04F06:  INCF   x2F,F
04F08:  BRA    4E50
....................          } 
....................       } 
....................       else 
04F0A:  BRA    4F12
04F0C:  MOVLB  6
....................       { 
....................          Flanco = 0; 
04F0E:  MOVLB  4
04F10:  BCF    x30.0
....................       } 
....................              
....................       if(DOWN || BYTE_IR[2]==0X52)//Si oprime hacia abajo 
04F12:  BSF    F96.2
04F14:  BTFSC  F84.2
04F16:  BRA    4F22
04F18:  MOVLB  6
04F1A:  MOVF   x47,W
04F1C:  SUBLW  52
04F1E:  BNZ   5004
04F20:  MOVLB  4
....................       { 
....................          flag_latencia=0;t_latencia=0;BYTE_IR[2]=0X00; 
04F22:  BCF    x32.3
04F24:  MOVLB  5
04F26:  CLRF   x0C
04F28:  CLRF   x0B
04F2A:  MOVLB  6
04F2C:  CLRF   x47
....................          if(Flanco2 == 0) 
04F2E:  MOVLB  4
04F30:  BTFSC  x30.2
04F32:  BRA    5000
....................          { 
....................             Flanco2 = 1;delay_ms(5); 
04F34:  BSF    x30.2
04F36:  MOVLW  05
04F38:  MOVLB  6
04F3A:  MOVWF  x51
04F3C:  MOVLB  0
04F3E:  CALL   118C
....................             for(i=1;i<=4;i++) 
04F42:  MOVLW  01
04F44:  MOVLB  4
04F46:  MOVWF  x2F
04F48:  MOVF   x2F,W
04F4A:  SUBLW  04
04F4C:  BNC   5000
....................             { 
....................                if(unidad==i) 
04F4E:  MOVF   x2F,W
04F50:  SUBWF  xF2,W
04F52:  BNZ   4FC8
....................                { 
....................                   Contrasena[i-1]--; 
04F54:  MOVLW  01
04F56:  SUBWF  x2F,W
04F58:  CLRF   03
04F5A:  ADDLW  33
04F5C:  MOVWF  FE9
04F5E:  MOVLW  05
04F60:  ADDWFC 03,W
04F62:  MOVWF  FEA
04F64:  DECF   FEF,F
....................                   if(Contrasena[i-1]<0) 
04F66:  MOVLW  01
04F68:  SUBWF  x2F,W
04F6A:  CLRF   03
04F6C:  ADDLW  33
04F6E:  MOVWF  FE9
04F70:  MOVLW  05
04F72:  ADDWFC 03,W
04F74:  MOVWF  FEA
04F76:  BTFSC  FEF.7
04F78:  BRA    4F7C
04F7A:  BRA    4F90
....................                   { 
....................                      Contrasena[i-1]=9;} 
04F7C:  MOVLW  01
04F7E:  SUBWF  x2F,W
04F80:  CLRF   03
04F82:  ADDLW  33
04F84:  MOVWF  FE9
04F86:  MOVLW  05
04F88:  ADDWFC 03,W
04F8A:  MOVWF  FEA
04F8C:  MOVLW  09
04F8E:  MOVWF  FEF
....................                      displayContrasena(Contrasena[i-1],i*20,30,1); 
04F90:  MOVLW  01
04F92:  SUBWF  x2F,W
04F94:  CLRF   03
04F96:  ADDLW  33
04F98:  MOVWF  FE9
04F9A:  MOVLW  05
04F9C:  ADDWFC 03,W
04F9E:  MOVWF  FEA
04FA0:  MOVFF  FEF,649
04FA4:  MOVF   x2F,W
04FA6:  MULLW  14
04FA8:  MOVFF  FF3,64A
04FAC:  MOVLB  6
04FAE:  MOVFF  649,64B
04FB2:  MOVFF  64A,64C
04FB6:  MOVLW  1E
04FB8:  MOVWF  x4D
04FBA:  MOVLW  01
04FBC:  MOVWF  x4E
04FBE:  MOVLB  0
04FC0:  CALL   368E
....................                } 
....................                else 
04FC4:  BRA    4FFA
04FC6:  MOVLB  4
....................                { 
....................                   displayContrasena(Contrasena[i-1],i*20,30,0); 
04FC8:  MOVLW  01
04FCA:  SUBWF  x2F,W
04FCC:  CLRF   03
04FCE:  ADDLW  33
04FD0:  MOVWF  FE9
04FD2:  MOVLW  05
04FD4:  ADDWFC 03,W
04FD6:  MOVWF  FEA
04FD8:  MOVFF  FEF,649
04FDC:  MOVF   x2F,W
04FDE:  MULLW  14
04FE0:  MOVFF  FF3,64A
04FE4:  MOVLB  6
04FE6:  MOVFF  649,64B
04FEA:  MOVFF  64A,64C
04FEE:  MOVLW  1E
04FF0:  MOVWF  x4D
04FF2:  CLRF   x4E
04FF4:  MOVLB  0
04FF6:  CALL   368E
....................                } 
....................             }       
04FFA:  MOVLB  4
04FFC:  INCF   x2F,F
04FFE:  BRA    4F48
....................          }      
....................       } 
....................       else 
05000:  BRA    5008
05002:  MOVLB  6
....................       { 
....................          Flanco2 = 0; 
05004:  MOVLB  4
05006:  BCF    x30.2
....................       } 
....................              
....................       if(RIGHT || BYTE_IR[2]==0X5A)//Si oprime SET 
05008:  BSF    F94.0
0500A:  BTFSC  F82.0
0500C:  BRA    5018
0500E:  MOVLB  6
05010:  MOVF   x47,W
05012:  SUBLW  5A
05014:  BNZ   50C0
05016:  MOVLB  4
....................       { 
....................          flag_latencia=0;t_latencia=0;BYTE_IR[2]=0X00; 
05018:  BCF    x32.3
0501A:  MOVLB  5
0501C:  CLRF   x0C
0501E:  CLRF   x0B
05020:  MOVLB  6
05022:  CLRF   x47
....................          if(Flanco1 == 0) 
05024:  MOVLB  4
05026:  BTFSC  x30.1
05028:  BRA    50BC
....................          { 
....................             Flanco1 = 1;delay_ms(5);unidad++; 
0502A:  BSF    x30.1
0502C:  MOVLW  05
0502E:  MOVLB  6
05030:  MOVWF  x51
05032:  MOVLB  0
05034:  CALL   118C
05038:  MOVLB  4
0503A:  INCF   xF2,F
....................             for(i=1;i<=4;i++) 
0503C:  MOVLW  01
0503E:  MOVWF  x2F
05040:  MOVF   x2F,W
05042:  SUBLW  04
05044:  BNC   50BC
....................             { 
....................                if(unidad==i) 
05046:  MOVF   x2F,W
05048:  SUBWF  xF2,W
0504A:  BNZ   5084
....................                { 
....................                   displayContrasena(Contrasena[i-1],i*20,30,1); 
0504C:  MOVLW  01
0504E:  SUBWF  x2F,W
05050:  CLRF   03
05052:  ADDLW  33
05054:  MOVWF  FE9
05056:  MOVLW  05
05058:  ADDWFC 03,W
0505A:  MOVWF  FEA
0505C:  MOVFF  FEF,649
05060:  MOVF   x2F,W
05062:  MULLW  14
05064:  MOVFF  FF3,64A
05068:  MOVLB  6
0506A:  MOVFF  649,64B
0506E:  MOVFF  64A,64C
05072:  MOVLW  1E
05074:  MOVWF  x4D
05076:  MOVLW  01
05078:  MOVWF  x4E
0507A:  MOVLB  0
0507C:  CALL   368E
....................                } 
....................                else 
05080:  BRA    50B6
05082:  MOVLB  4
....................                { 
....................                   displayContrasena(Contrasena[i-1],i*20,30,0); 
05084:  MOVLW  01
05086:  SUBWF  x2F,W
05088:  CLRF   03
0508A:  ADDLW  33
0508C:  MOVWF  FE9
0508E:  MOVLW  05
05090:  ADDWFC 03,W
05092:  MOVWF  FEA
05094:  MOVFF  FEF,649
05098:  MOVF   x2F,W
0509A:  MULLW  14
0509C:  MOVFF  FF3,64A
050A0:  MOVLB  6
050A2:  MOVFF  649,64B
050A6:  MOVFF  64A,64C
050AA:  MOVLW  1E
050AC:  MOVWF  x4D
050AE:  CLRF   x4E
050B0:  MOVLB  0
050B2:  CALL   368E
....................                } 
....................             } 
050B6:  MOVLB  4
050B8:  INCF   x2F,F
050BA:  BRA    5040
....................          } 
....................       } 
....................       else 
050BC:  BRA    50C4
050BE:  MOVLB  6
....................       { 
....................          Flanco1 = 0; 
050C0:  MOVLB  4
050C2:  BCF    x30.1
....................       } 
....................      
....................       if(unidad>4) 
050C4:  MOVF   xF2,W
050C6:  SUBLW  04
050C8:  BTFSC  FD8.0
050CA:  BRA    54C2
....................       { 
....................          glcd_fillScreen(OFF);unidad=4;flag_latencia=0;t_latencia=0; 
050CC:  MOVLB  6
050CE:  CLRF   x4A
050D0:  MOVLB  0
050D2:  CALL   2FD6
050D6:  MOVLW  04
050D8:  MOVLB  4
050DA:  MOVWF  xF2
050DC:  BCF    x32.3
050DE:  MOVLB  5
050E0:  CLRF   x0C
050E2:  CLRF   x0B
....................          if(Contrasena[0]==3&&Contrasena[1]==8&&Contrasena[2]==9&&Contrasena[3]==2) // Si Ingresa clave para reset general del sistema. 
050E4:  MOVF   x33,W
050E6:  SUBLW  03
050E8:  BTFSS  FD8.2
050EA:  BRA    51D8
050EC:  MOVF   x34,W
050EE:  SUBLW  08
050F0:  BNZ   51D8
050F2:  MOVF   x35,W
050F4:  SUBLW  09
050F6:  BNZ   51D8
050F8:  MOVF   x36,W
050FA:  SUBLW  02
050FC:  BNZ   51D8
....................          { 
....................             write_eeprom(0,0);delay_ms(20);write_eeprom(1,0);delay_ms(20);// Reestablece a contrasea de Fabrica y reinicia Programa. 
050FE:  CLRF   FAA
05100:  CLRF   FA9
05102:  CLRF   FA8
05104:  BCF    FA6.6
05106:  BCF    FA6.7
05108:  BSF    FA6.2
0510A:  MOVF   FF2,W
0510C:  MOVWF  00
0510E:  BCF    FF2.7
05110:  MOVLB  F
05112:  MOVLW  55
05114:  MOVWF  FA7
05116:  MOVLW  AA
05118:  MOVWF  FA7
0511A:  BSF    FA6.1
0511C:  BTFSC  FA6.1
0511E:  BRA    511C
05120:  BCF    FA6.2
05122:  MOVF   00,W
05124:  IORWF  FF2,F
05126:  MOVLW  14
05128:  MOVLB  6
0512A:  MOVWF  x51
0512C:  MOVLB  0
0512E:  CALL   118C
05132:  CLRF   FAA
05134:  MOVLW  01
05136:  MOVWF  FA9
05138:  CLRF   FA8
0513A:  BCF    FA6.6
0513C:  BCF    FA6.7
0513E:  BSF    FA6.2
05140:  MOVF   FF2,W
05142:  MOVWF  00
05144:  BCF    FF2.7
05146:  MOVLB  F
05148:  MOVLW  55
0514A:  MOVWF  FA7
0514C:  MOVLW  AA
0514E:  MOVWF  FA7
05150:  BSF    FA6.1
05152:  BTFSC  FA6.1
05154:  BRA    5152
05156:  BCF    FA6.2
05158:  MOVF   00,W
0515A:  IORWF  FF2,F
0515C:  MOVLW  14
0515E:  MOVLB  6
05160:  MOVWF  x51
05162:  MOVLB  0
05164:  CALL   118C
....................             write_eeprom(2,0);delay_ms(20);write_eeprom(3,0);delay_ms(20); 
05168:  CLRF   FAA
0516A:  MOVLW  02
0516C:  MOVWF  FA9
0516E:  CLRF   FA8
05170:  BCF    FA6.6
05172:  BCF    FA6.7
05174:  BSF    FA6.2
05176:  MOVF   FF2,W
05178:  MOVWF  00
0517A:  BCF    FF2.7
0517C:  MOVLB  F
0517E:  MOVLW  55
05180:  MOVWF  FA7
05182:  MOVLW  AA
05184:  MOVWF  FA7
05186:  BSF    FA6.1
05188:  BTFSC  FA6.1
0518A:  BRA    5188
0518C:  BCF    FA6.2
0518E:  MOVF   00,W
05190:  IORWF  FF2,F
05192:  MOVLW  14
05194:  MOVLB  6
05196:  MOVWF  x51
05198:  MOVLB  0
0519A:  CALL   118C
0519E:  CLRF   FAA
051A0:  MOVLW  03
051A2:  MOVWF  FA9
051A4:  CLRF   FA8
051A6:  BCF    FA6.6
051A8:  BCF    FA6.7
051AA:  BSF    FA6.2
051AC:  MOVF   FF2,W
051AE:  MOVWF  00
051B0:  BCF    FF2.7
051B2:  MOVLB  F
051B4:  MOVLW  55
051B6:  MOVWF  FA7
051B8:  MOVLW  AA
051BA:  MOVWF  FA7
051BC:  BSF    FA6.1
051BE:  BTFSC  FA6.1
051C0:  BRA    51BE
051C2:  BCF    FA6.2
051C4:  MOVF   00,W
051C6:  IORWF  FF2,F
051C8:  MOVLW  14
051CA:  MOVLB  6
051CC:  MOVWF  x51
051CE:  MOVLB  0
051D0:  CALL   118C
....................             reset_cpu(); 
051D4:  RESET
051D6:  MOVLB  5
....................          } 
....................        
....................          if((Contrasena[0]==Password[0])&&(Contrasena[1]==Password[1])&&(Contrasena[2]==Password[2])&&(Contrasena[3]==Password[3])) 
051D8:  MOVF   x37,W
051DA:  SUBWF  x33,W
051DC:  BTFSS  FD8.2
051DE:  BRA    534A
051E0:  MOVF   x38,W
051E2:  SUBWF  x34,W
051E4:  BTFSS  FD8.2
051E6:  BRA    534A
051E8:  MOVF   x39,W
051EA:  SUBWF  x35,W
051EC:  BTFSS  FD8.2
051EE:  BRA    534A
051F0:  MOVF   x3A,W
051F2:  SUBWF  x36,W
051F4:  BTFSS  FD8.2
051F6:  BRA    534A
....................          { 
....................             glcd_fillScreen(OFF); 
051F8:  MOVLB  6
051FA:  CLRF   x4A
051FC:  MOVLB  0
051FE:  CALL   2FD6
....................             strcpy(Menus.Letra,"Clave"); 
05202:  MOVLW  04
05204:  MOVWF  FEA
05206:  MOVLW  17
05208:  MOVWF  FE9
0520A:  MOVFF  FF2,649
0520E:  BCF    FF2.7
05210:  MOVLW  00
05212:  CALL   0F0A
05216:  TBLRD*-
05218:  TBLRD*+
0521A:  MOVF   FF5,W
0521C:  MOVWF  FEE
0521E:  IORLW  00
05220:  BNZ   5218
05222:  MOVLB  6
05224:  BTFSC  x49.7
05226:  BSF    FF2.7
....................             displayMenu(Menus.Letra,30,0,0,2); 
05228:  MOVLW  04
0522A:  MOVWF  x4A
0522C:  MOVLW  17
0522E:  MOVWF  x49
05230:  MOVLW  1E
05232:  MOVWF  x4B
05234:  CLRF   x4C
05236:  CLRF   x4D
05238:  MOVLW  02
0523A:  MOVWF  x4E
0523C:  MOVLB  0
0523E:  CALL   3746
....................             strcpy(Menus.Letra,"Correcta"); 
05242:  MOVLW  04
05244:  MOVWF  FEA
05246:  MOVLW  17
05248:  MOVWF  FE9
0524A:  MOVFF  FF2,649
0524E:  BCF    FF2.7
05250:  MOVLW  00
05252:  CALL   0F2E
05256:  TBLRD*-
05258:  TBLRD*+
0525A:  MOVF   FF5,W
0525C:  MOVWF  FEE
0525E:  IORLW  00
05260:  BNZ   5258
05262:  MOVLB  6
05264:  BTFSC  x49.7
05266:  BSF    FF2.7
....................             displayMenu(Menus.Letra,15,30,0,2); 
05268:  MOVLW  04
0526A:  MOVWF  x4A
0526C:  MOVLW  17
0526E:  MOVWF  x49
05270:  MOVLW  0F
05272:  MOVWF  x4B
05274:  MOVLW  1E
05276:  MOVWF  x4C
05278:  CLRF   x4D
0527A:  MOVLW  02
0527C:  MOVWF  x4E
0527E:  MOVLB  0
05280:  CALL   3746
....................             Menu=1;glcd_update();delay_ms(1000);glcd_fillScreen(OFF); 
05284:  MOVLW  01
05286:  MOVLB  4
05288:  MOVWF  xF1
0528A:  MOVLB  0
0528C:  CALL   16B4
05290:  MOVLW  04
05292:  MOVLB  6
05294:  MOVWF  x49
05296:  MOVLW  FA
05298:  MOVWF  x51
0529A:  MOVLB  0
0529C:  CALL   118C
052A0:  MOVLB  6
052A2:  DECFSZ x49,F
052A4:  BRA    5296
052A6:  CLRF   x4A
052A8:  MOVLB  0
052AA:  CALL   2FD6
....................             Contrasena[0]=0;Contrasena[1]=0;Contrasena[2]=0;Contrasena[3]=0; 
052AE:  MOVLB  5
052B0:  CLRF   x33
052B2:  CLRF   x34
052B4:  CLRF   x35
052B6:  CLRF   x36
....................             displayTiempo(Tpurga[3],20,20,0,2);displayTiempo(Tpurga[2],40,20,0,2);glcd_text57(60, 22, Dos_puntos, 2, ON); 
052B8:  MOVFF  516,649
052BC:  MOVLW  14
052BE:  MOVLB  6
052C0:  MOVWF  x4A
052C2:  MOVWF  x4B
052C4:  CLRF   x4C
052C6:  MOVLW  02
052C8:  MOVWF  x4D
052CA:  MOVLB  0
052CC:  CALL   3812
052D0:  MOVFF  515,649
052D4:  MOVLW  28
052D6:  MOVLB  6
052D8:  MOVWF  x4A
052DA:  MOVLW  14
052DC:  MOVWF  x4B
052DE:  CLRF   x4C
052E0:  MOVLW  02
052E2:  MOVWF  x4D
052E4:  MOVLB  0
052E6:  CALL   3812
052EA:  MOVLW  3C
052EC:  MOVLB  6
052EE:  MOVWF  x60
052F0:  MOVLW  16
052F2:  MOVWF  x61
052F4:  MOVLW  04
052F6:  MOVWF  x63
052F8:  MOVLW  59
052FA:  MOVWF  x62
052FC:  MOVLW  02
052FE:  MOVWF  x64
05300:  MOVLW  01
05302:  MOVWF  x65
05304:  MOVLB  0
05306:  CALL   34D6
....................             displayTiempo(Tpurga[1],70,20,0,2);displayTiempo(Tpurga[0],90,20,0,2); 
0530A:  MOVFF  514,649
0530E:  MOVLW  46
05310:  MOVLB  6
05312:  MOVWF  x4A
05314:  MOVLW  14
05316:  MOVWF  x4B
05318:  CLRF   x4C
0531A:  MOVLW  02
0531C:  MOVWF  x4D
0531E:  MOVLB  0
05320:  CALL   3812
05324:  MOVFF  513,649
05328:  MOVLW  5A
0532A:  MOVLB  6
0532C:  MOVWF  x4A
0532E:  MOVLW  14
05330:  MOVWF  x4B
05332:  CLRF   x4C
05334:  MOVLW  02
05336:  MOVWF  x4D
05338:  MOVLB  0
0533A:  CALL   3812
....................             enable_interrupts(global);tiempo_purga=1; 
0533E:  MOVLW  C0
05340:  IORWF  FF2,F
05342:  MOVLB  4
05344:  BSF    x31.6
....................          }// Esta parte se puede agregar en el Menu 1 dependiendo de la ubicacin del vidrio. 
....................          else 
05346:  BRA    54C2
05348:  MOVLB  5
....................          { 
....................             glcd_fillScreen(OFF); 
0534A:  MOVLB  6
0534C:  CLRF   x4A
0534E:  MOVLB  0
05350:  CALL   2FD6
....................             strcpy(Menus.Letra,"Clave"); 
05354:  MOVLW  04
05356:  MOVWF  FEA
05358:  MOVLW  17
0535A:  MOVWF  FE9
0535C:  MOVFF  FF2,649
05360:  BCF    FF2.7
05362:  MOVLW  00
05364:  CALL   0F0A
05368:  TBLRD*-
0536A:  TBLRD*+
0536C:  MOVF   FF5,W
0536E:  MOVWF  FEE
05370:  IORLW  00
05372:  BNZ   536A
05374:  MOVLB  6
05376:  BTFSC  x49.7
05378:  BSF    FF2.7
....................             displayMenu(Menus.Letra,30,0,0,2); 
0537A:  MOVLW  04
0537C:  MOVWF  x4A
0537E:  MOVLW  17
05380:  MOVWF  x49
05382:  MOVLW  1E
05384:  MOVWF  x4B
05386:  CLRF   x4C
05388:  CLRF   x4D
0538A:  MOVLW  02
0538C:  MOVWF  x4E
0538E:  MOVLB  0
05390:  CALL   3746
....................             strcpy(Menus.Letra,"Incorrecta"); 
05394:  MOVLW  04
05396:  MOVWF  FEA
05398:  MOVLW  17
0539A:  MOVWF  FE9
0539C:  MOVFF  FF2,649
053A0:  BCF    FF2.7
053A2:  MOVLW  00
053A4:  CALL   0F56
053A8:  TBLRD*-
053AA:  TBLRD*+
053AC:  MOVF   FF5,W
053AE:  MOVWF  FEE
053B0:  IORLW  00
053B2:  BNZ   53AA
053B4:  MOVLB  6
053B6:  BTFSC  x49.7
053B8:  BSF    FF2.7
....................             displayMenu(Menus.Letra,0,30,0,2); 
053BA:  MOVLW  04
053BC:  MOVWF  x4A
053BE:  MOVLW  17
053C0:  MOVWF  x49
053C2:  CLRF   x4B
053C4:  MOVLW  1E
053C6:  MOVWF  x4C
053C8:  CLRF   x4D
053CA:  MOVLW  02
053CC:  MOVWF  x4E
053CE:  MOVLB  0
053D0:  CALL   3746
....................             unidad=1;glcd_update();delay_ms(1000);Contrasena[0]=0;Contrasena[1]=0;Contrasena[2]=0;Contrasena[3]=0;glcd_fillScreen(OFF); 
053D4:  MOVLW  01
053D6:  MOVLB  4
053D8:  MOVWF  xF2
053DA:  MOVLB  0
053DC:  CALL   16B4
053E0:  MOVLW  04
053E2:  MOVLB  6
053E4:  MOVWF  x49
053E6:  MOVLW  FA
053E8:  MOVWF  x51
053EA:  MOVLB  0
053EC:  CALL   118C
053F0:  MOVLB  6
053F2:  DECFSZ x49,F
053F4:  BRA    53E6
053F6:  MOVLB  5
053F8:  CLRF   x33
053FA:  CLRF   x34
053FC:  CLRF   x35
053FE:  CLRF   x36
05400:  MOVLB  6
05402:  CLRF   x4A
05404:  MOVLB  0
05406:  CALL   2FD6
....................             glcd_rect(0, 0, 127, 25, YES, ON);strcpy(Menus.Letra,"Clave");glcd_text57(25, 1, Menus.Letra, 3, OFF);displayContrasena(Contrasena[0],20,30,1); 
0540A:  MOVLB  6
0540C:  CLRF   x60
0540E:  CLRF   x61
05410:  MOVLW  7F
05412:  MOVWF  x62
05414:  MOVLW  19
05416:  MOVWF  x63
05418:  MOVLW  01
0541A:  MOVWF  x64
0541C:  MOVWF  x65
0541E:  MOVLB  0
05420:  CALL   3414
05424:  MOVLW  04
05426:  MOVWF  FEA
05428:  MOVLW  17
0542A:  MOVWF  FE9
0542C:  MOVFF  FF2,649
05430:  BCF    FF2.7
05432:  MOVLW  00
05434:  CALL   0F0A
05438:  TBLRD*-
0543A:  TBLRD*+
0543C:  MOVF   FF5,W
0543E:  MOVWF  FEE
05440:  IORLW  00
05442:  BNZ   543A
05444:  MOVLB  6
05446:  BTFSC  x49.7
05448:  BSF    FF2.7
0544A:  MOVLW  19
0544C:  MOVWF  x60
0544E:  MOVLW  01
05450:  MOVWF  x61
05452:  MOVLW  04
05454:  MOVWF  x63
05456:  MOVLW  17
05458:  MOVWF  x62
0545A:  MOVLW  03
0545C:  MOVWF  x64
0545E:  CLRF   x65
05460:  MOVLB  0
05462:  CALL   34D6
05466:  MOVFF  533,64B
0546A:  MOVLW  14
0546C:  MOVLB  6
0546E:  MOVWF  x4C
05470:  MOVLW  1E
05472:  MOVWF  x4D
05474:  MOVLW  01
05476:  MOVWF  x4E
05478:  MOVLB  0
0547A:  CALL   368E
....................             displayContrasena(Contrasena[1],40,30,0);displayContrasena(Contrasena[2],60,30,0);displayContrasena(Contrasena[0],80,30,0); 
0547E:  MOVFF  534,64B
05482:  MOVLW  28
05484:  MOVLB  6
05486:  MOVWF  x4C
05488:  MOVLW  1E
0548A:  MOVWF  x4D
0548C:  CLRF   x4E
0548E:  MOVLB  0
05490:  CALL   368E
05494:  MOVFF  535,64B
05498:  MOVLW  3C
0549A:  MOVLB  6
0549C:  MOVWF  x4C
0549E:  MOVLW  1E
054A0:  MOVWF  x4D
054A2:  CLRF   x4E
054A4:  MOVLB  0
054A6:  CALL   368E
054AA:  MOVFF  533,64B
054AE:  MOVLW  50
054B0:  MOVLB  6
054B2:  MOVWF  x4C
054B4:  MOVLW  1E
054B6:  MOVWF  x4D
054B8:  CLRF   x4E
054BA:  MOVLB  0
054BC:  CALL   368E
054C0:  MOVLB  4
....................          } 
....................       } 
....................       } 
.................... //_--------------------------------------------------------------------------------------------------------------------------------------------------------        
....................  
.................... //_-------------------------------------------------------------------------------------------------------------------------------------------------------- 
....................       if(Menu==1)//Menu de Purga. 
054C2:  DECFSZ xF1,W
054C4:  BRA    5644
....................       {  
....................          glcd_text57(15, 1, Tiempo, 1, ON); 
054C6:  MOVLW  0F
054C8:  MOVLB  6
054CA:  MOVWF  x60
054CC:  MOVLW  01
054CE:  MOVWF  x61
054D0:  MOVLW  04
054D2:  MOVWF  x63
054D4:  MOVLW  66
054D6:  MOVWF  x62
054D8:  MOVLW  01
054DA:  MOVWF  x64
054DC:  MOVWF  x65
054DE:  MOVLB  0
054E0:  CALL   34D6
....................          tiempo_purga=1;LuzBlanca_off;LuzUV_off;Toma_off;Alarma_off;Motor_on; 
054E4:  MOVLB  4
054E6:  BSF    x31.6
054E8:  BCF    F8B.4
054EA:  BCF    F94.4
054EC:  BCF    F8B.5
054EE:  BCF    F94.5
054F0:  BCF    F8B.7
054F2:  BCF    F94.7
054F4:  BCF    F8B.2
054F6:  BCF    F94.2
054F8:  BSF    F8B.6
054FA:  BCF    F94.6
....................          glcd_rect(9, 54, 120, 64, YES, OFF);          
054FC:  MOVLW  09
054FE:  MOVLB  6
05500:  MOVWF  x60
05502:  MOVLW  36
05504:  MOVWF  x61
05506:  MOVLW  78
05508:  MOVWF  x62
0550A:  MOVLW  40
0550C:  MOVWF  x63
0550E:  MOVLW  01
05510:  MOVWF  x64
05512:  CLRF   x65
05514:  MOVLB  0
05516:  CALL   3414
....................          displayTiempo(Tpurga[3],20,20,0,2);displayTiempo(Tpurga[2],40,20,0,2);glcd_text57(60, 22, Dos_puntos, 2, ON); 
0551A:  MOVFF  516,649
0551E:  MOVLW  14
05520:  MOVLB  6
05522:  MOVWF  x4A
05524:  MOVWF  x4B
05526:  CLRF   x4C
05528:  MOVLW  02
0552A:  MOVWF  x4D
0552C:  MOVLB  0
0552E:  CALL   3812
05532:  MOVFF  515,649
05536:  MOVLW  28
05538:  MOVLB  6
0553A:  MOVWF  x4A
0553C:  MOVLW  14
0553E:  MOVWF  x4B
05540:  CLRF   x4C
05542:  MOVLW  02
05544:  MOVWF  x4D
05546:  MOVLB  0
05548:  CALL   3812
0554C:  MOVLW  3C
0554E:  MOVLB  6
05550:  MOVWF  x60
05552:  MOVLW  16
05554:  MOVWF  x61
05556:  MOVLW  04
05558:  MOVWF  x63
0555A:  MOVLW  59
0555C:  MOVWF  x62
0555E:  MOVLW  02
05560:  MOVWF  x64
05562:  MOVLW  01
05564:  MOVWF  x65
05566:  MOVLB  0
05568:  CALL   34D6
....................          displayTiempo(Tpurga[1],70,20,0,2);displayTiempo(Tpurga[0],90,20,0,2);         
0556C:  MOVFF  514,649
05570:  MOVLW  46
05572:  MOVLB  6
05574:  MOVWF  x4A
05576:  MOVLW  14
05578:  MOVWF  x4B
0557A:  CLRF   x4C
0557C:  MOVLW  02
0557E:  MOVWF  x4D
05580:  MOVLB  0
05582:  CALL   3812
05586:  MOVFF  513,649
0558A:  MOVLW  5A
0558C:  MOVLB  6
0558E:  MOVWF  x4A
05590:  MOVLW  14
05592:  MOVWF  x4B
05594:  CLRF   x4C
05596:  MOVLW  02
05598:  MOVWF  x4D
0559A:  MOVLB  0
0559C:  CALL   3812
....................        
....................          if(RIGHT || BYTE_IR[2]==0X1C) 
055A0:  BSF    F94.0
055A2:  BTFSC  F82.0
055A4:  BRA    55B0
055A6:  MOVLB  6
055A8:  MOVF   x47,W
055AA:  SUBLW  1C
055AC:  BNZ   55E8
055AE:  MOVLB  0
....................          { 
....................             delay_ms(1000); 
055B0:  MOVLW  04
055B2:  MOVLB  6
055B4:  MOVWF  x49
055B6:  MOVLW  FA
055B8:  MOVWF  x51
055BA:  MOVLB  0
055BC:  CALL   118C
055C0:  MOVLB  6
055C2:  DECFSZ x49,F
055C4:  BRA    55B6
....................             if(RIGHT || BYTE_IR[2]==0X1C) 
055C6:  BSF    F94.0
055C8:  BTFSC  F82.0
055CA:  BRA    55D2
055CC:  MOVF   x47,W
055CE:  SUBLW  1C
055D0:  BNZ   55E8
....................             { 
....................                tiempo_purga=0;Menu=2;glcd_fillScreen(OFF);BYTE_IR[2]=0X00; 
055D2:  MOVLB  4
055D4:  BCF    x31.6
055D6:  MOVLW  02
055D8:  MOVWF  xF1
055DA:  MOVLB  6
055DC:  CLRF   x4A
055DE:  MOVLB  0
055E0:  CALL   2FD6
055E4:  MOVLB  6
055E6:  CLRF   x47
....................             } 
....................          } 
....................         
....................          if((Tpurga[0]>=Tpurgap[0])&&(Tpurga[1]>=Tpurgap[1])&&(Tpurga[2]>=Tpurgap[2])&&(Tpurga[3]>=Tpurgap[3])) 
055E8:  MOVLB  5
055EA:  MOVF   x17,W
055EC:  XORLW  80
055EE:  MOVWF  00
055F0:  MOVF   x13,W
055F2:  XORLW  80
055F4:  SUBWF  00,W
055F6:  BZ    55FA
055F8:  BC    5646
055FA:  MOVF   x18,W
055FC:  XORLW  80
055FE:  MOVWF  00
05600:  MOVF   x14,W
05602:  XORLW  80
05604:  SUBWF  00,W
05606:  BZ    560A
05608:  BC    5646
0560A:  MOVF   x19,W
0560C:  XORLW  80
0560E:  MOVWF  00
05610:  MOVF   x15,W
05612:  XORLW  80
05614:  SUBWF  00,W
05616:  BZ    561A
05618:  BC    5646
0561A:  MOVF   x1A,W
0561C:  XORLW  80
0561E:  MOVWF  00
05620:  MOVF   x16,W
05622:  XORLW  80
05624:  SUBWF  00,W
05626:  BZ    562A
05628:  BC    5646
....................          { 
....................             tiempo_purga=0;Menu=2;glcd_fillScreen(OFF);flag_luz=!flag_luz;flag_blower=1;flag_toma=1; 
0562A:  MOVLB  4
0562C:  BCF    x31.6
0562E:  MOVLW  02
05630:  MOVWF  xF1
05632:  MOVLB  6
05634:  CLRF   x4A
05636:  MOVLB  0
05638:  CALL   2FD6
0563C:  MOVLB  4
0563E:  BTG    x31.3
05640:  BSF    x31.1
05642:  BSF    x31.2
05644:  MOVLB  5
....................          }       
....................       } 
.................... //_--------------------------------------------------------------------------------------------------------------------------------------------------------        
....................  
.................... //_-------------------------------------------------------------------------------------------------------------------------------------------------------- 
....................       if(Menu==2) //Menu General. 
05646:  MOVLB  4
05648:  MOVF   xF1,W
0564A:  SUBLW  02
0564C:  BTFSS  FD8.2
0564E:  BRA    5D6A
....................       {          
....................          w=0; 
05650:  BCF    x31.5
....................          glcd_imagen(4); 
05652:  MOVLW  04
05654:  MOVLB  6
05656:  MOVWF  x49
05658:  MOVLB  0
0565A:  CALL   3904
....................          glcd_text57(0, 1, Inflowt, 1, ON); 
0565E:  MOVLB  6
05660:  CLRF   x60
05662:  MOVLW  01
05664:  MOVWF  x61
05666:  MOVLW  04
05668:  MOVWF  x63
0566A:  MOVLW  8B
0566C:  MOVWF  x62
0566E:  MOVLW  01
05670:  MOVWF  x64
05672:  MOVWF  x65
05674:  MOVLB  0
05676:  CALL   34D6
....................          glcd_text57(0, 21, Downflowt, 1, ON); 
0567A:  MOVLB  6
0567C:  CLRF   x60
0567E:  MOVLW  15
05680:  MOVWF  x61
05682:  MOVLW  04
05684:  MOVWF  x63
05686:  MOVLW  96
05688:  MOVWF  x62
0568A:  MOVLW  01
0568C:  MOVWF  x64
0568E:  MOVWF  x65
05690:  MOVLB  0
05692:  CALL   34D6
....................          glcd_text57(0, 35, Vida_Filtro, 1, ON); 
05696:  MOVLB  6
05698:  CLRF   x60
0569A:  MOVLW  23
0569C:  MOVWF  x61
0569E:  MOVLW  04
056A0:  MOVWF  x63
056A2:  MOVLW  C9
056A4:  MOVWF  x62
056A6:  MOVLW  01
056A8:  MOVWF  x64
056AA:  MOVWF  x65
056AC:  MOVLB  0
056AE:  CALL   34D6
....................          //displayTiempo(Ttrabajo[3],60,28,0,1);displayTiempo(Ttrabajo[2],67,28,0,1);displayTiempo(Ttrabajo[1],74,28,0,1);displayTiempo(Ttrabajo[0],82,28,0,1); 
....................          //glcd_text57(0, 43, Vida_UV, 1, ON); 
....................          //displayTiempo(Tuv[3],60,42,0,1);displayTiempo(Tuv[2],67,42,0,1);displayTiempo(Tuv[1],74,42,0,1);displayTiempo(Tuv[0],82,42,0,1);        
....................          //UVTime=Tuv[0]+(Tuv[1]*10)+(Tuv[2]*100)+(Tuv[3]*1000);          
....................           
....................          if(imprimir==1) 
056B2:  MOVLB  4
056B4:  BTFSS  x30.7
056B6:  BRA    56E2
....................          { 
....................             displayfloat(Filtro_Downflow,70,21,0,1);    
056B8:  MOVFF  546,650
056BC:  MOVFF  545,64F
056C0:  MOVFF  544,64E
056C4:  MOVFF  543,64D
056C8:  MOVLW  46
056CA:  MOVLB  6
056CC:  MOVWF  x51
056CE:  MOVLW  15
056D0:  MOVWF  x52
056D2:  CLRF   x53
056D4:  MOVLW  01
056D6:  MOVWF  x54
056D8:  MOVLB  0
056DA:  CALL   3D7A
....................             imprimir=0; 
056DE:  MOVLB  4
056E0:  BCF    x30.7
....................          } 
....................           
....................          if(flag_blower==1) 
056E2:  BTFSS  x31.1
056E4:  BRA    5828
....................          { 
....................             glcd_imagen(5);tiempo_trabajo=1;Motor_on; 
056E6:  MOVLW  05
056E8:  MOVLB  6
056EA:  MOVWF  x49
056EC:  MOVLB  0
056EE:  CALL   3904
056F2:  MOVLB  4
056F4:  BSF    x32.0
056F6:  BSF    F8B.6
056F8:  BCF    F94.6
....................             if(guardatrabajo==1) 
056FA:  BTFSS  x32.5
056FC:  BRA    5826
....................             { 
....................                guardatrabajo=0;write_eeprom(30,minutos_trabajo);delay_ms(2); 
056FE:  BCF    x32.5
05700:  CLRF   FAA
05702:  MOVLW  1E
05704:  MOVWF  FA9
05706:  MOVFF  50F,FA8
0570A:  BCF    FA6.6
0570C:  BCF    FA6.7
0570E:  BSF    FA6.2
05710:  MOVF   FF2,W
05712:  MOVWF  00
05714:  BCF    FF2.7
05716:  MOVLB  F
05718:  MOVLW  55
0571A:  MOVWF  FA7
0571C:  MOVLW  AA
0571E:  MOVWF  FA7
05720:  BSF    FA6.1
05722:  BTFSC  FA6.1
05724:  BRA    5722
05726:  BCF    FA6.2
05728:  MOVF   00,W
0572A:  IORWF  FF2,F
0572C:  MOVLW  02
0572E:  MOVLB  6
05730:  MOVWF  x51
05732:  MOVLB  0
05734:  CALL   118C
....................                write_eeprom(16,Ttrabajo[0]);delay_ms(2); 
05738:  CLRF   FAA
0573A:  MOVLW  10
0573C:  MOVWF  FA9
0573E:  MOVFF  52F,FA8
05742:  BCF    FA6.6
05744:  BCF    FA6.7
05746:  BSF    FA6.2
05748:  MOVF   FF2,W
0574A:  MOVWF  00
0574C:  BCF    FF2.7
0574E:  MOVLB  F
05750:  MOVLW  55
05752:  MOVWF  FA7
05754:  MOVLW  AA
05756:  MOVWF  FA7
05758:  BSF    FA6.1
0575A:  BTFSC  FA6.1
0575C:  BRA    575A
0575E:  BCF    FA6.2
05760:  MOVF   00,W
05762:  IORWF  FF2,F
05764:  MOVLW  02
05766:  MOVLB  6
05768:  MOVWF  x51
0576A:  MOVLB  0
0576C:  CALL   118C
....................                write_eeprom(17,Ttrabajo[1]);delay_ms(2); 
05770:  CLRF   FAA
05772:  MOVLW  11
05774:  MOVWF  FA9
05776:  MOVFF  530,FA8
0577A:  BCF    FA6.6
0577C:  BCF    FA6.7
0577E:  BSF    FA6.2
05780:  MOVF   FF2,W
05782:  MOVWF  00
05784:  BCF    FF2.7
05786:  MOVLB  F
05788:  MOVLW  55
0578A:  MOVWF  FA7
0578C:  MOVLW  AA
0578E:  MOVWF  FA7
05790:  BSF    FA6.1
05792:  BTFSC  FA6.1
05794:  BRA    5792
05796:  BCF    FA6.2
05798:  MOVF   00,W
0579A:  IORWF  FF2,F
0579C:  MOVLW  02
0579E:  MOVLB  6
057A0:  MOVWF  x51
057A2:  MOVLB  0
057A4:  CALL   118C
....................                write_eeprom(18,Ttrabajo[2]);delay_ms(2); 
057A8:  CLRF   FAA
057AA:  MOVLW  12
057AC:  MOVWF  FA9
057AE:  MOVFF  531,FA8
057B2:  BCF    FA6.6
057B4:  BCF    FA6.7
057B6:  BSF    FA6.2
057B8:  MOVF   FF2,W
057BA:  MOVWF  00
057BC:  BCF    FF2.7
057BE:  MOVLB  F
057C0:  MOVLW  55
057C2:  MOVWF  FA7
057C4:  MOVLW  AA
057C6:  MOVWF  FA7
057C8:  BSF    FA6.1
057CA:  BTFSC  FA6.1
057CC:  BRA    57CA
057CE:  BCF    FA6.2
057D0:  MOVF   00,W
057D2:  IORWF  FF2,F
057D4:  MOVLW  02
057D6:  MOVLB  6
057D8:  MOVWF  x51
057DA:  MOVLB  0
057DC:  CALL   118C
....................                write_eeprom(19,Ttrabajo[3]);delay_ms(2); 
057E0:  CLRF   FAA
057E2:  MOVLW  13
057E4:  MOVWF  FA9
057E6:  MOVFF  532,FA8
057EA:  BCF    FA6.6
057EC:  BCF    FA6.7
057EE:  BSF    FA6.2
057F0:  MOVF   FF2,W
057F2:  MOVWF  00
057F4:  BCF    FF2.7
057F6:  MOVLB  F
057F8:  MOVLW  55
057FA:  MOVWF  FA7
057FC:  MOVLW  AA
057FE:  MOVWF  FA7
05800:  BSF    FA6.1
05802:  BTFSC  FA6.1
05804:  BRA    5802
05806:  BCF    FA6.2
05808:  MOVF   00,W
0580A:  IORWF  FF2,F
0580C:  MOVLW  02
0580E:  MOVLB  6
05810:  MOVWF  x51
05812:  MOVLB  0
05814:  CALL   118C
....................                glcd_init(ON); 
05818:  MOVLW  01
0581A:  MOVLB  6
0581C:  MOVWF  x49
0581E:  MOVLB  0
05820:  CALL   3030
05824:  MOVLB  4
....................             } 
....................          } 
....................          else 
05826:  BRA    5984
....................          { 
....................             Filtro_Downflow=0; 
05828:  MOVLB  5
0582A:  CLRF   x46
0582C:  CLRF   x45
0582E:  CLRF   x44
05830:  CLRF   x43
....................             glcd_rect(102, 45, 127, 64, YES, OFF);tiempo_trabajo=0;Motor_off; 
05832:  MOVLW  66
05834:  MOVLB  6
05836:  MOVWF  x60
05838:  MOVLW  2D
0583A:  MOVWF  x61
0583C:  MOVLW  7F
0583E:  MOVWF  x62
05840:  MOVLW  40
05842:  MOVWF  x63
05844:  MOVLW  01
05846:  MOVWF  x64
05848:  CLRF   x65
0584A:  MOVLB  0
0584C:  CALL   3414
05850:  MOVLB  4
05852:  BCF    x32.0
05854:  BCF    F8B.6
05856:  BCF    F94.6
....................             if(guardatrabajo==0) 
05858:  BTFSC  x32.5
0585A:  BRA    5984
....................             { 
....................                guardatrabajo=1;write_eeprom(30,minutos_trabajo);delay_ms(2); 
0585C:  BSF    x32.5
0585E:  CLRF   FAA
05860:  MOVLW  1E
05862:  MOVWF  FA9
05864:  MOVFF  50F,FA8
05868:  BCF    FA6.6
0586A:  BCF    FA6.7
0586C:  BSF    FA6.2
0586E:  MOVF   FF2,W
05870:  MOVWF  00
05872:  BCF    FF2.7
05874:  MOVLB  F
05876:  MOVLW  55
05878:  MOVWF  FA7
0587A:  MOVLW  AA
0587C:  MOVWF  FA7
0587E:  BSF    FA6.1
05880:  BTFSC  FA6.1
05882:  BRA    5880
05884:  BCF    FA6.2
05886:  MOVF   00,W
05888:  IORWF  FF2,F
0588A:  MOVLW  02
0588C:  MOVLB  6
0588E:  MOVWF  x51
05890:  MOVLB  0
05892:  CALL   118C
....................                write_eeprom(16,Ttrabajo[0]);delay_ms(2); 
05896:  CLRF   FAA
05898:  MOVLW  10
0589A:  MOVWF  FA9
0589C:  MOVFF  52F,FA8
058A0:  BCF    FA6.6
058A2:  BCF    FA6.7
058A4:  BSF    FA6.2
058A6:  MOVF   FF2,W
058A8:  MOVWF  00
058AA:  BCF    FF2.7
058AC:  MOVLB  F
058AE:  MOVLW  55
058B0:  MOVWF  FA7
058B2:  MOVLW  AA
058B4:  MOVWF  FA7
058B6:  BSF    FA6.1
058B8:  BTFSC  FA6.1
058BA:  BRA    58B8
058BC:  BCF    FA6.2
058BE:  MOVF   00,W
058C0:  IORWF  FF2,F
058C2:  MOVLW  02
058C4:  MOVLB  6
058C6:  MOVWF  x51
058C8:  MOVLB  0
058CA:  CALL   118C
....................                write_eeprom(17,Ttrabajo[1]);delay_ms(2); 
058CE:  CLRF   FAA
058D0:  MOVLW  11
058D2:  MOVWF  FA9
058D4:  MOVFF  530,FA8
058D8:  BCF    FA6.6
058DA:  BCF    FA6.7
058DC:  BSF    FA6.2
058DE:  MOVF   FF2,W
058E0:  MOVWF  00
058E2:  BCF    FF2.7
058E4:  MOVLB  F
058E6:  MOVLW  55
058E8:  MOVWF  FA7
058EA:  MOVLW  AA
058EC:  MOVWF  FA7
058EE:  BSF    FA6.1
058F0:  BTFSC  FA6.1
058F2:  BRA    58F0
058F4:  BCF    FA6.2
058F6:  MOVF   00,W
058F8:  IORWF  FF2,F
058FA:  MOVLW  02
058FC:  MOVLB  6
058FE:  MOVWF  x51
05900:  MOVLB  0
05902:  CALL   118C
....................                write_eeprom(18,Ttrabajo[2]);delay_ms(2); 
05906:  CLRF   FAA
05908:  MOVLW  12
0590A:  MOVWF  FA9
0590C:  MOVFF  531,FA8
05910:  BCF    FA6.6
05912:  BCF    FA6.7
05914:  BSF    FA6.2
05916:  MOVF   FF2,W
05918:  MOVWF  00
0591A:  BCF    FF2.7
0591C:  MOVLB  F
0591E:  MOVLW  55
05920:  MOVWF  FA7
05922:  MOVLW  AA
05924:  MOVWF  FA7
05926:  BSF    FA6.1
05928:  BTFSC  FA6.1
0592A:  BRA    5928
0592C:  BCF    FA6.2
0592E:  MOVF   00,W
05930:  IORWF  FF2,F
05932:  MOVLW  02
05934:  MOVLB  6
05936:  MOVWF  x51
05938:  MOVLB  0
0593A:  CALL   118C
....................                write_eeprom(19,Ttrabajo[3]);delay_ms(2); 
0593E:  CLRF   FAA
05940:  MOVLW  13
05942:  MOVWF  FA9
05944:  MOVFF  532,FA8
05948:  BCF    FA6.6
0594A:  BCF    FA6.7
0594C:  BSF    FA6.2
0594E:  MOVF   FF2,W
05950:  MOVWF  00
05952:  BCF    FF2.7
05954:  MOVLB  F
05956:  MOVLW  55
05958:  MOVWF  FA7
0595A:  MOVLW  AA
0595C:  MOVWF  FA7
0595E:  BSF    FA6.1
05960:  BTFSC  FA6.1
05962:  BRA    5960
05964:  BCF    FA6.2
05966:  MOVF   00,W
05968:  IORWF  FF2,F
0596A:  MOVLW  02
0596C:  MOVLB  6
0596E:  MOVWF  x51
05970:  MOVLB  0
05972:  CALL   118C
....................                glcd_init(ON); 
05976:  MOVLW  01
05978:  MOVLB  6
0597A:  MOVWF  x49
0597C:  MOVLB  0
0597E:  CALL   3030
05982:  MOVLB  4
....................             } 
....................          } 
....................           
.................... // Dibujo de barra de estado de filtro                   
....................          barra=100.0*(Filtro_Downflow/2.0); 
05984:  MOVFF  546,67D
05988:  MOVFF  545,67C
0598C:  MOVFF  544,67B
05990:  MOVFF  543,67A
05994:  MOVLB  6
05996:  CLRF   x81
05998:  CLRF   x80
0599A:  CLRF   x7F
0599C:  MOVLW  80
0599E:  MOVWF  x7E
059A0:  MOVLB  0
059A2:  CALL   11EA
059A6:  MOVLB  6
059A8:  CLRF   x7D
059AA:  CLRF   x7C
059AC:  MOVLW  48
059AE:  MOVWF  x7B
059B0:  MOVLW  85
059B2:  MOVWF  x7A
059B4:  MOVFF  03,681
059B8:  MOVFF  02,680
059BC:  MOVFF  01,67F
059C0:  MOVFF  00,67E
059C4:  MOVLB  0
059C6:  CALL   17E4
059CA:  MOVFF  03,54E
059CE:  MOVFF  02,54D
059D2:  MOVFF  01,54C
059D6:  MOVFF  00,54B
....................          if(barra>100.0) 
059DA:  MOVLB  6
059DC:  CLRF   x7D
059DE:  CLRF   x7C
059E0:  MOVLW  48
059E2:  MOVWF  x7B
059E4:  MOVLW  85
059E6:  MOVWF  x7A
059E8:  MOVFF  54E,681
059EC:  MOVFF  54D,680
059F0:  MOVFF  54C,67F
059F4:  MOVFF  54B,67E
059F8:  MOVLB  0
059FA:  CALL   15C0
059FE:  BNC   5A0E
....................             barra=100.0; 
05A00:  MOVLB  5
05A02:  CLRF   x4E
05A04:  CLRF   x4D
05A06:  MOVLW  48
05A08:  MOVWF  x4C
05A0A:  MOVLW  85
05A0C:  MOVWF  x4B
....................          barra=barra/2; 
05A0E:  MOVFF  54E,67D
05A12:  MOVFF  54D,67C
05A16:  MOVFF  54C,67B
05A1A:  MOVFF  54B,67A
05A1E:  MOVLB  6
05A20:  CLRF   x81
05A22:  CLRF   x80
05A24:  CLRF   x7F
05A26:  MOVLW  80
05A28:  MOVWF  x7E
05A2A:  MOVLB  0
05A2C:  CALL   11EA
05A30:  MOVFF  03,54E
05A34:  MOVFF  02,54D
05A38:  MOVFF  01,54C
05A3C:  MOVFF  00,54B
....................          glcd_rect(42, 34, (int8)(barra_old)+42, 41, YES, OFF);  // Clears the old bar 
05A40:  MOVFF  552,67D
05A44:  MOVFF  551,67C
05A48:  MOVFF  550,67B
05A4C:  MOVFF  54F,67A
05A50:  CALL   17A8
05A54:  MOVLW  2A
05A56:  ADDWF  01,W
05A58:  MOVLB  6
05A5A:  MOVWF  x49
05A5C:  MOVLW  2A
05A5E:  MOVWF  x60
05A60:  MOVLW  22
05A62:  MOVWF  x61
05A64:  MOVFF  649,662
05A68:  MOVLW  29
05A6A:  MOVWF  x63
05A6C:  MOVLW  01
05A6E:  MOVWF  x64
05A70:  CLRF   x65
05A72:  MOVLB  0
05A74:  CALL   3414
....................          glcd_rect(42, 34, (int8)(barra)+42, 41, YES, ON);             // Draws a new bar 
05A78:  MOVFF  54E,67D
05A7C:  MOVFF  54D,67C
05A80:  MOVFF  54C,67B
05A84:  MOVFF  54B,67A
05A88:  CALL   17A8
05A8C:  MOVLW  2A
05A8E:  ADDWF  01,W
05A90:  MOVLB  6
05A92:  MOVWF  x49
05A94:  MOVLW  2A
05A96:  MOVWF  x60
05A98:  MOVLW  22
05A9A:  MOVWF  x61
05A9C:  MOVFF  649,662
05AA0:  MOVLW  29
05AA2:  MOVWF  x63
05AA4:  MOVLW  01
05AA6:  MOVWF  x64
05AA8:  MOVWF  x65
05AAA:  MOVLB  0
05AAC:  CALL   3414
....................          glcd_rect(40, 32, 94, 43, NO, ON);             // Draws a new bar 
05AB0:  MOVLW  28
05AB2:  MOVLB  6
05AB4:  MOVWF  x60
05AB6:  MOVLW  20
05AB8:  MOVWF  x61
05ABA:  MOVLW  5E
05ABC:  MOVWF  x62
05ABE:  MOVLW  2B
05AC0:  MOVWF  x63
05AC2:  CLRF   x64
05AC4:  MOVLW  01
05AC6:  MOVWF  x65
05AC8:  MOVLB  0
05ACA:  CALL   3414
....................          barra_old=barra; 
05ACE:  MOVFF  54E,552
05AD2:  MOVFF  54D,551
05AD6:  MOVFF  54C,550
05ADA:  MOVFF  54B,54F
.................... // Fin de Dibujo de barra de estado de Filtro 
....................  
....................          if(Filtro_Downflow>1.5) 
05ADE:  MOVLB  6
05AE0:  CLRF   x7D
05AE2:  CLRF   x7C
05AE4:  MOVLW  40
05AE6:  MOVWF  x7B
05AE8:  MOVLW  7F
05AEA:  MOVWF  x7A
05AEC:  MOVFF  546,681
05AF0:  MOVFF  545,680
05AF4:  MOVFF  544,67F
05AF8:  MOVFF  543,67E
05AFC:  MOVLB  0
05AFE:  CALL   15C0
05B02:  BNC   5B40
....................          { 
....................             flag_latencia=1; 
05B04:  MOVLB  4
05B06:  BSF    x32.3
....................             if(Latencia==1) 
05B08:  BTFSS  x32.2
05B0A:  BRA    5B3C
....................             {          
....................                if(Filtro_Downflow>1.5) 
05B0C:  MOVLB  6
05B0E:  CLRF   x7D
05B10:  CLRF   x7C
05B12:  MOVLW  40
05B14:  MOVWF  x7B
05B16:  MOVLW  7F
05B18:  MOVWF  x7A
05B1A:  MOVFF  546,681
05B1E:  MOVFF  545,680
05B22:  MOVFF  544,67F
05B26:  MOVFF  543,67E
05B2A:  MOVLB  0
05B2C:  CALL   15C0
05B30:  BNC   5B3A
....................                { 
....................                   Alarma=5; 
05B32:  MOVLW  05
05B34:  MOVLB  5
05B36:  MOVWF  x01
05B38:  MOVLB  0
05B3A:  MOVLB  4
....................                } 
....................             } 
....................          } 
....................          else 
05B3C:  BRA    5B76
05B3E:  MOVLB  0
....................          { 
....................             Latencia=0;t_latencia=0;flag_latencia=0; 
05B40:  MOVLB  4
05B42:  BCF    x32.2
05B44:  MOVLB  5
05B46:  CLRF   x0C
05B48:  CLRF   x0B
05B4A:  MOVLB  4
05B4C:  BCF    x32.3
....................             glcd_rect(0, 54, 104, 64, YES, OFF);Alarma_off;Alarma=10; 
05B4E:  MOVLB  6
05B50:  CLRF   x60
05B52:  MOVLW  36
05B54:  MOVWF  x61
05B56:  MOVLW  68
05B58:  MOVWF  x62
05B5A:  MOVLW  40
05B5C:  MOVWF  x63
05B5E:  MOVLW  01
05B60:  MOVWF  x64
05B62:  CLRF   x65
05B64:  MOVLB  0
05B66:  CALL   3414
05B6A:  BCF    F8B.2
05B6C:  BCF    F94.2
05B6E:  MOVLW  0A
05B70:  MOVLB  5
05B72:  MOVWF  x01
05B74:  MOVLB  4
....................          } 
....................           
....................          if(flag_luz==1) 
05B76:  BTFSS  x31.3
05B78:  BRA    5B8E
....................          { 
....................             glcd_imagen(3);LuzBlanca_on; 
05B7A:  MOVLW  03
05B7C:  MOVLB  6
05B7E:  MOVWF  x49
05B80:  MOVLB  0
05B82:  CALL   3904
05B86:  BSF    F8B.4
05B88:  BCF    F94.4
....................          } 
....................          else 
05B8A:  BRA    5BB0
05B8C:  MOVLB  4
....................          { 
....................             glcd_rect(102, 14, 127, 28, YES, OFF);LuzBlanca_off; 
05B8E:  MOVLW  66
05B90:  MOVLB  6
05B92:  MOVWF  x60
05B94:  MOVLW  0E
05B96:  MOVWF  x61
05B98:  MOVLW  7F
05B9A:  MOVWF  x62
05B9C:  MOVLW  1C
05B9E:  MOVWF  x63
05BA0:  MOVLW  01
05BA2:  MOVWF  x64
05BA4:  CLRF   x65
05BA6:  MOVLB  0
05BA8:  CALL   3414
05BAC:  BCF    F8B.4
05BAE:  BCF    F94.4
....................          } 
....................              
....................          if(Alarma==5) 
05BB0:  MOVLB  5
05BB2:  MOVF   x01,W
05BB4:  SUBLW  05
05BB6:  BNZ   5BF4
....................          { 
....................             glcd_rect(0, 55, 100, 63, YES, OFF); 
05BB8:  MOVLB  6
05BBA:  CLRF   x60
05BBC:  MOVLW  37
05BBE:  MOVWF  x61
05BC0:  MOVLW  64
05BC2:  MOVWF  x62
05BC4:  MOVLW  3F
05BC6:  MOVWF  x63
05BC8:  MOVLW  01
05BCA:  MOVWF  x64
05BCC:  CLRF   x65
05BCE:  MOVLB  0
05BD0:  CALL   3414
....................             glcd_text57(0,55, Perdida, 1, ON); 
05BD4:  MOVLB  6
05BD6:  CLRF   x60
05BD8:  MOVLW  37
05BDA:  MOVWF  x61
05BDC:  MOVLW  04
05BDE:  MOVWF  x63
05BE0:  MOVLW  DF
05BE2:  MOVWF  x62
05BE4:  MOVLW  01
05BE6:  MOVWF  x64
05BE8:  MOVWF  x65
05BEA:  MOVLB  0
05BEC:  CALL   34D6
....................          } 
....................          else 
05BF0:  BRA    5C10
05BF2:  MOVLB  5
....................          {                
....................             glcd_rect(0, 55, 100, 63, YES, OFF);             
05BF4:  MOVLB  6
05BF6:  CLRF   x60
05BF8:  MOVLW  37
05BFA:  MOVWF  x61
05BFC:  MOVLW  64
05BFE:  MOVWF  x62
05C00:  MOVLW  3F
05C02:  MOVWF  x63
05C04:  MOVLW  01
05C06:  MOVWF  x64
05C08:  CLRF   x65
05C0A:  MOVLB  0
05C0C:  CALL   3414
....................          } 
....................           
....................              
....................       if(RIGHT || BYTE_IR[2]==0X5A)//Si oprime boton de Blower. 
05C10:  BSF    F94.0
05C12:  BTFSC  F82.0
05C14:  BRA    5C20
05C16:  MOVLB  6
05C18:  MOVF   x47,W
05C1A:  SUBLW  5A
05C1C:  BNZ   5C42
05C1E:  MOVLB  0
....................       { 
....................          if(Flanco3 == 0) 
05C20:  MOVLB  4
05C22:  BTFSC  x30.3
05C24:  BRA    5C3E
....................          { 
....................             Flanco3 = 1;delay_ms(5);flag_blower=!flag_blower;BYTE_IR[2]=0X00; 
05C26:  BSF    x30.3
05C28:  MOVLW  05
05C2A:  MOVLB  6
05C2C:  MOVWF  x51
05C2E:  MOVLB  0
05C30:  CALL   118C
05C34:  MOVLB  4
05C36:  BTG    x31.1
05C38:  MOVLB  6
05C3A:  CLRF   x47
05C3C:  MOVLB  4
....................          } 
....................       } 
....................       else 
05C3E:  BRA    5C46
05C40:  MOVLB  6
....................       { 
....................          Flanco3 = 0; 
05C42:  MOVLB  4
05C44:  BCF    x30.3
....................       } 
....................              
....................       if(DOWN || BYTE_IR[2]==0X52)//Si oprime boton de Luz Blanca. 
05C46:  BSF    F96.2
05C48:  BTFSC  F84.2
05C4A:  BRA    5C56
05C4C:  MOVLB  6
05C4E:  MOVF   x47,W
05C50:  SUBLW  52
05C52:  BNZ   5C76
05C54:  MOVLB  4
....................       { 
....................          if(Flanco5 == 0) 
05C56:  BTFSC  x30.5
05C58:  BRA    5C72
....................          { 
....................             Flanco5 = 1;delay_ms(5);flag_luz=!flag_luz;BYTE_IR[2]=0X00; 
05C5A:  BSF    x30.5
05C5C:  MOVLW  05
05C5E:  MOVLB  6
05C60:  MOVWF  x51
05C62:  MOVLB  0
05C64:  CALL   118C
05C68:  MOVLB  4
05C6A:  BTG    x31.3
05C6C:  MOVLB  6
05C6E:  CLRF   x47
05C70:  MOVLB  4
....................          } 
....................       } 
....................       else 
05C72:  BRA    5C7A
05C74:  MOVLB  6
....................       { 
....................          Flanco5 = 0; 
05C76:  MOVLB  4
05C78:  BCF    x30.5
....................       } 
....................        
....................       if(BYTE_IR[2]==0X1C) 
05C7A:  MOVLB  6
05C7C:  MOVF   x47,W
05C7E:  SUBLW  1C
05C80:  BNZ   5CB8
....................       { 
....................          BYTE_IR[2]=0X00; 
05C82:  CLRF   x47
....................          delay_ms(30);Menu=3;//glcd_fillScreen(OFF); 
05C84:  MOVLW  1E
05C86:  MOVWF  x51
05C88:  MOVLB  0
05C8A:  CALL   118C
05C8E:  MOVLW  03
05C90:  MOVLB  4
05C92:  MOVWF  xF1
....................          glcd_init(ON);             //Inicializa la glcd 
05C94:  MOVLW  01
05C96:  MOVLB  6
05C98:  MOVWF  x49
05C9A:  MOVLB  0
05C9C:  CALL   3030
....................          glcd_fillScreen(OFF);      //Limpia la pantalla 
05CA0:  MOVLB  6
05CA2:  CLRF   x4A
05CA4:  MOVLB  0
05CA6:  CALL   2FD6
....................          glcd_update();   
05CAA:  CALL   16B4
....................          LuzBlanca_off;LuzUV_off; 
05CAE:  BCF    F8B.4
05CB0:  BCF    F94.4
05CB2:  BCF    F8B.5
05CB4:  BCF    F94.5
05CB6:  MOVLB  6
....................       } 
....................        
....................       if(BYTE_IR[2]==0X09) 
05CB8:  MOVF   x47,W
05CBA:  SUBLW  09
05CBC:  BNZ   5CF4
....................       { 
....................          BYTE_IR[2]=0X00; 
05CBE:  CLRF   x47
....................          delay_ms(30);Menu=32;//glcd_fillScreen(OFF); 
05CC0:  MOVLW  1E
05CC2:  MOVWF  x51
05CC4:  MOVLB  0
05CC6:  CALL   118C
05CCA:  MOVLW  20
05CCC:  MOVLB  4
05CCE:  MOVWF  xF1
....................          glcd_init(ON);             //Inicializa la glcd 
05CD0:  MOVLW  01
05CD2:  MOVLB  6
05CD4:  MOVWF  x49
05CD6:  MOVLB  0
05CD8:  CALL   3030
....................          glcd_fillScreen(OFF);      //Limpia la pantalla 
05CDC:  MOVLB  6
05CDE:  CLRF   x4A
05CE0:  MOVLB  0
05CE2:  CALL   2FD6
....................          glcd_update();   
05CE6:  CALL   16B4
....................          LuzBlanca_off;LuzUV_off; 
05CEA:  BCF    F8B.4
05CEC:  BCF    F94.4
05CEE:  BCF    F8B.5
05CF0:  BCF    F94.5
05CF2:  MOVLB  6
....................       } 
....................        
....................       if(UP || BYTE_IR[2]==0X18)//Si oprime boton de Toma. 
05CF4:  BSF    F96.1
05CF6:  BTFSC  F84.1
05CF8:  BRA    5D00
05CFA:  MOVF   x47,W
05CFC:  SUBLW  18
05CFE:  BNZ   5D66
....................       { 
....................          BYTE_IR[2]=0X00; 
05D00:  CLRF   x47
....................          delay_ms(200); 
05D02:  MOVLW  C8
05D04:  MOVWF  x51
05D06:  MOVLB  0
05D08:  CALL   118C
....................          if(UP)//Si oprime boton de Toma. 
05D0C:  BSF    F96.1
05D0E:  BTFSS  F84.1
05D10:  BRA    5D48
....................          { 
....................             delay_ms(30);Menu=3;//glcd_fillScreen(OFF); 
05D12:  MOVLW  1E
05D14:  MOVLB  6
05D16:  MOVWF  x51
05D18:  MOVLB  0
05D1A:  CALL   118C
05D1E:  MOVLW  03
05D20:  MOVLB  4
05D22:  MOVWF  xF1
....................             glcd_init(ON);             //Inicializa la glcd 
05D24:  MOVLW  01
05D26:  MOVLB  6
05D28:  MOVWF  x49
05D2A:  MOVLB  0
05D2C:  CALL   3030
....................             glcd_fillScreen(OFF);      //Limpia la pantalla 
05D30:  MOVLB  6
05D32:  CLRF   x4A
05D34:  MOVLB  0
05D36:  CALL   2FD6
....................             glcd_update();   
05D3A:  CALL   16B4
....................             LuzBlanca_off;LuzUV_off; 
05D3E:  BCF    F8B.4
05D40:  BCF    F94.4
05D42:  BCF    F8B.5
05D44:  BCF    F94.5
....................          } 
....................          else 
05D46:  BRA    5D62
....................          { 
....................             if(Flanco6 == 0) 
05D48:  MOVLB  4
05D4A:  BTFSC  x30.6
05D4C:  BRA    5D60
....................             { 
....................                Flanco6 = 1;delay_ms(30);flag_toma=!flag_toma; 
05D4E:  BSF    x30.6
05D50:  MOVLW  1E
05D52:  MOVLB  6
05D54:  MOVWF  x51
05D56:  MOVLB  0
05D58:  CALL   118C
05D5C:  MOVLB  4
05D5E:  BTG    x31.2
05D60:  MOVLB  0
....................             } 
....................          } 
....................       } 
....................       else 
05D62:  BRA    5D6C
05D64:  MOVLB  6
....................       { 
....................          Flanco6 = 0; 
05D66:  MOVLB  4
05D68:  BCF    x30.6
05D6A:  MOVLB  0
....................       } 
....................              
....................     } 
.................... //_--------------------------------------------------------------------------------------------------------------------------------------------------------        
....................  
.................... //_-------------------------------------------------------------------------------------------------------------------------------------------------------- 
....................       if(Menu==3){ //Menu Principal. 
05D6C:  MOVLB  4
05D6E:  MOVF   xF1,W
05D70:  SUBLW  03
05D72:  BTFSS  FD8.2
05D74:  BRA    6092
....................              
....................       strcpy(Menus.Letra,"Menu"); 
05D76:  MOVLW  04
05D78:  MOVWF  FEA
05D7A:  MOVLW  17
05D7C:  MOVWF  FE9
05D7E:  MOVFF  FF2,649
05D82:  BCF    FF2.7
05D84:  MOVLW  00
05D86:  MOVLB  0
05D88:  CALL   0F80
05D8C:  TBLRD*-
05D8E:  TBLRD*+
05D90:  MOVF   FF5,W
05D92:  MOVWF  FEE
05D94:  IORLW  00
05D96:  BNZ   5D8E
05D98:  MOVLB  6
05D9A:  BTFSC  x49.7
05D9C:  BSF    FF2.7
....................       displayMenu(Menus.Letra,40,0,1,2); 
05D9E:  MOVLW  04
05DA0:  MOVWF  x4A
05DA2:  MOVLW  17
05DA4:  MOVWF  x49
05DA6:  MOVLW  28
05DA8:  MOVWF  x4B
05DAA:  CLRF   x4C
05DAC:  MOVLW  01
05DAE:  MOVWF  x4D
05DB0:  MOVLW  02
05DB2:  MOVWF  x4E
05DB4:  MOVLB  0
05DB6:  CALL   3746
....................        
....................       if(Opcion==1)    
05DBA:  MOVLB  4
05DBC:  DECFSZ xF3,W
05DBE:  BRA    5E06
....................          {strcpy(Menus.Letra,"Ajustes"); 
05DC0:  MOVLW  04
05DC2:  MOVWF  FEA
05DC4:  MOVLW  17
05DC6:  MOVWF  FE9
05DC8:  MOVFF  FF2,649
05DCC:  BCF    FF2.7
05DCE:  MOVLW  00
05DD0:  MOVLB  0
05DD2:  CALL   0FA4
05DD6:  TBLRD*-
05DD8:  TBLRD*+
05DDA:  MOVF   FF5,W
05DDC:  MOVWF  FEE
05DDE:  IORLW  00
05DE0:  BNZ   5DD8
05DE2:  MOVLB  6
05DE4:  BTFSC  x49.7
05DE6:  BSF    FF2.7
....................          displayMenu(Menus.Letra,0,19,1,1);} 
05DE8:  MOVLW  04
05DEA:  MOVWF  x4A
05DEC:  MOVLW  17
05DEE:  MOVWF  x49
05DF0:  CLRF   x4B
05DF2:  MOVLW  13
05DF4:  MOVWF  x4C
05DF6:  MOVLW  01
05DF8:  MOVWF  x4D
05DFA:  MOVWF  x4E
05DFC:  MOVLB  0
05DFE:  CALL   3746
....................       else 
05E02:  BRA    5E48
05E04:  MOVLB  4
....................          {strcpy(Menus.Letra,"Ajustes"); 
05E06:  MOVLW  04
05E08:  MOVWF  FEA
05E0A:  MOVLW  17
05E0C:  MOVWF  FE9
05E0E:  MOVFF  FF2,649
05E12:  BCF    FF2.7
05E14:  MOVLW  00
05E16:  MOVLB  0
05E18:  CALL   0FA4
05E1C:  TBLRD*-
05E1E:  TBLRD*+
05E20:  MOVF   FF5,W
05E22:  MOVWF  FEE
05E24:  IORLW  00
05E26:  BNZ   5E1E
05E28:  MOVLB  6
05E2A:  BTFSC  x49.7
05E2C:  BSF    FF2.7
....................          displayMenu(Menus.Letra,0,19,0,1);} 
05E2E:  MOVLW  04
05E30:  MOVWF  x4A
05E32:  MOVLW  17
05E34:  MOVWF  x49
05E36:  CLRF   x4B
05E38:  MOVLW  13
05E3A:  MOVWF  x4C
05E3C:  CLRF   x4D
05E3E:  MOVLW  01
05E40:  MOVWF  x4E
05E42:  MOVLB  0
05E44:  CALL   3746
....................           
....................       if(Opcion==2)    
05E48:  MOVLB  4
05E4A:  MOVF   xF3,W
05E4C:  SUBLW  02
05E4E:  BNZ   5E96
....................          {strcpy(Menus.Letra,"Clave"); 
05E50:  MOVLW  04
05E52:  MOVWF  FEA
05E54:  MOVLW  17
05E56:  MOVWF  FE9
05E58:  MOVFF  FF2,649
05E5C:  BCF    FF2.7
05E5E:  MOVLW  00
05E60:  MOVLB  0
05E62:  CALL   0F0A
05E66:  TBLRD*-
05E68:  TBLRD*+
05E6A:  MOVF   FF5,W
05E6C:  MOVWF  FEE
05E6E:  IORLW  00
05E70:  BNZ   5E68
05E72:  MOVLB  6
05E74:  BTFSC  x49.7
05E76:  BSF    FF2.7
....................          displayMenu(Menus.Letra,0,35,1,1);} 
05E78:  MOVLW  04
05E7A:  MOVWF  x4A
05E7C:  MOVLW  17
05E7E:  MOVWF  x49
05E80:  CLRF   x4B
05E82:  MOVLW  23
05E84:  MOVWF  x4C
05E86:  MOVLW  01
05E88:  MOVWF  x4D
05E8A:  MOVWF  x4E
05E8C:  MOVLB  0
05E8E:  CALL   3746
....................       else 
05E92:  BRA    5ED8
05E94:  MOVLB  4
....................          {strcpy(Menus.Letra,"Clave"); 
05E96:  MOVLW  04
05E98:  MOVWF  FEA
05E9A:  MOVLW  17
05E9C:  MOVWF  FE9
05E9E:  MOVFF  FF2,649
05EA2:  BCF    FF2.7
05EA4:  MOVLW  00
05EA6:  MOVLB  0
05EA8:  CALL   0F0A
05EAC:  TBLRD*-
05EAE:  TBLRD*+
05EB0:  MOVF   FF5,W
05EB2:  MOVWF  FEE
05EB4:  IORLW  00
05EB6:  BNZ   5EAE
05EB8:  MOVLB  6
05EBA:  BTFSC  x49.7
05EBC:  BSF    FF2.7
....................          displayMenu(Menus.Letra,0,35,0,1);}    
05EBE:  MOVLW  04
05EC0:  MOVWF  x4A
05EC2:  MOVLW  17
05EC4:  MOVWF  x49
05EC6:  CLRF   x4B
05EC8:  MOVLW  23
05ECA:  MOVWF  x4C
05ECC:  CLRF   x4D
05ECE:  MOVLW  01
05ED0:  MOVWF  x4E
05ED2:  MOVLB  0
05ED4:  CALL   3746
....................           
....................        if(Opcion==3)    
05ED8:  MOVLB  4
05EDA:  MOVF   xF3,W
05EDC:  SUBLW  03
05EDE:  BNZ   5F26
....................          {strcpy(Menus.Letra,"Mantenimiento"); 
05EE0:  MOVLW  04
05EE2:  MOVWF  FEA
05EE4:  MOVLW  17
05EE6:  MOVWF  FE9
05EE8:  MOVFF  FF2,649
05EEC:  BCF    FF2.7
05EEE:  MOVLW  00
05EF0:  MOVLB  0
05EF2:  CALL   0FCA
05EF6:  TBLRD*-
05EF8:  TBLRD*+
05EFA:  MOVF   FF5,W
05EFC:  MOVWF  FEE
05EFE:  IORLW  00
05F00:  BNZ   5EF8
05F02:  MOVLB  6
05F04:  BTFSC  x49.7
05F06:  BSF    FF2.7
....................          displayMenu(Menus.Letra,0,51,1,1);} 
05F08:  MOVLW  04
05F0A:  MOVWF  x4A
05F0C:  MOVLW  17
05F0E:  MOVWF  x49
05F10:  CLRF   x4B
05F12:  MOVLW  33
05F14:  MOVWF  x4C
05F16:  MOVLW  01
05F18:  MOVWF  x4D
05F1A:  MOVWF  x4E
05F1C:  MOVLB  0
05F1E:  CALL   3746
....................       else 
05F22:  BRA    5F68
05F24:  MOVLB  4
....................          {strcpy(Menus.Letra,"Mantenimiento"); 
05F26:  MOVLW  04
05F28:  MOVWF  FEA
05F2A:  MOVLW  17
05F2C:  MOVWF  FE9
05F2E:  MOVFF  FF2,649
05F32:  BCF    FF2.7
05F34:  MOVLW  00
05F36:  MOVLB  0
05F38:  CALL   0FCA
05F3C:  TBLRD*-
05F3E:  TBLRD*+
05F40:  MOVF   FF5,W
05F42:  MOVWF  FEE
05F44:  IORLW  00
05F46:  BNZ   5F3E
05F48:  MOVLB  6
05F4A:  BTFSC  x49.7
05F4C:  BSF    FF2.7
....................          displayMenu(Menus.Letra,0,51,0,1);}      
05F4E:  MOVLW  04
05F50:  MOVWF  x4A
05F52:  MOVLW  17
05F54:  MOVWF  x49
05F56:  CLRF   x4B
05F58:  MOVLW  33
05F5A:  MOVWF  x4C
05F5C:  CLRF   x4D
05F5E:  MOVLW  01
05F60:  MOVWF  x4E
05F62:  MOVLB  0
05F64:  CALL   3746
....................        glcd_update();  
05F68:  CALL   16B4
....................        if(w==0) 
05F6C:  MOVLB  4
05F6E:  BTFSC  x31.5
05F70:  BRA    5F8C
....................        {delay_ms(500);w=1;} 
05F72:  MOVLW  02
05F74:  MOVLB  6
05F76:  MOVWF  x49
05F78:  MOVLW  FA
05F7A:  MOVWF  x51
05F7C:  MOVLB  0
05F7E:  CALL   118C
05F82:  MOVLB  6
05F84:  DECFSZ x49,F
05F86:  BRA    5F78
05F88:  MOVLB  4
05F8A:  BSF    x31.5
....................           
....................          
....................       if(UP || BYTE_IR[2]==0X18)//Si oprime hacia arriba 
05F8C:  BSF    F96.1
05F8E:  BTFSC  F84.1
05F90:  BRA    5F9C
05F92:  MOVLB  6
05F94:  MOVF   x47,W
05F96:  SUBLW  18
05F98:  BNZ   5FBC
05F9A:  MOVLB  4
....................       {   
....................          if(Flanco == 0) 
05F9C:  BTFSC  x30.0
05F9E:  BRA    5FB8
....................          { 
....................             Flanco = 1;delay_ms(30);Opcion--;BYTE_IR[2]=0X00; 
05FA0:  BSF    x30.0
05FA2:  MOVLW  1E
05FA4:  MOVLB  6
05FA6:  MOVWF  x51
05FA8:  MOVLB  0
05FAA:  CALL   118C
05FAE:  MOVLB  4
05FB0:  DECF   xF3,F
05FB2:  MOVLB  6
05FB4:  CLRF   x47
05FB6:  MOVLB  4
....................          } 
....................       } 
....................       else 
05FB8:  BRA    5FC0
05FBA:  MOVLB  6
....................       { 
....................          Flanco = 0; 
05FBC:  MOVLB  4
05FBE:  BCF    x30.0
....................       } 
....................              
....................       if(DOWN  || BYTE_IR[2]==0X52)//Si oprime hacia abajo 
05FC0:  BSF    F96.2
05FC2:  BTFSC  F84.2
05FC4:  BRA    5FD0
05FC6:  MOVLB  6
05FC8:  MOVF   x47,W
05FCA:  SUBLW  52
05FCC:  BNZ   5FEE
05FCE:  MOVLB  4
....................       {  if(Flanco2 == 0)  
05FD0:  BTFSC  x30.2
05FD2:  BRA    5FEC
....................             {Flanco2 = 1;delay_ms(30);Opcion++;BYTE_IR[2]=0X00; 
05FD4:  BSF    x30.2
05FD6:  MOVLW  1E
05FD8:  MOVLB  6
05FDA:  MOVWF  x51
05FDC:  MOVLB  0
05FDE:  CALL   118C
05FE2:  MOVLB  4
05FE4:  INCF   xF3,F
05FE6:  MOVLB  6
05FE8:  CLRF   x47
05FEA:  MOVLB  4
....................             }      
....................       } 
....................          else 
05FEC:  BRA    5FF2
....................             {Flanco2 = 0;}   
05FEE:  MOVLB  4
05FF0:  BCF    x30.2
....................              
....................       if(RIGHT || BYTE_IR[2]==0X5A)//Si oprime SET 
05FF2:  BSF    F94.0
05FF4:  BTFSC  F82.0
05FF6:  BRA    6002
05FF8:  MOVLB  6
05FFA:  MOVF   x47,W
05FFC:  SUBLW  5A
05FFE:  BNZ   6042
06000:  MOVLB  4
....................       {  if(Flanco1 == 0)  
06002:  BTFSC  x30.1
06004:  BRA    6040
....................             {Flanco1 = 1;delay_ms(500);Menu=Opcion+3;Opcion=1;glcd_fillscreen(OFF);unidad=1;BYTE_IR[2]=0X00; 
06006:  BSF    x30.1
06008:  MOVLW  02
0600A:  MOVLB  6
0600C:  MOVWF  x49
0600E:  MOVLW  FA
06010:  MOVWF  x51
06012:  MOVLB  0
06014:  CALL   118C
06018:  MOVLB  6
0601A:  DECFSZ x49,F
0601C:  BRA    600E
0601E:  MOVLW  03
06020:  MOVLB  4
06022:  ADDWF  xF3,W
06024:  MOVWF  xF1
06026:  MOVLW  01
06028:  MOVWF  xF3
0602A:  MOVLB  6
0602C:  CLRF   x4A
0602E:  MOVLB  0
06030:  CALL   2FD6
06034:  MOVLW  01
06036:  MOVLB  4
06038:  MOVWF  xF2
0603A:  MOVLB  6
0603C:  CLRF   x47
0603E:  MOVLB  4
....................             } 
....................       } 
....................          else 
06040:  BRA    6046
....................             {Flanco1 = 0;}   
06042:  MOVLB  4
06044:  BCF    x30.1
....................              
....................       if(LEFT || BYTE_IR[2]==0X08)//Si oprime boton de Toma. 
06046:  BSF    F94.1
06048:  BTFSC  F82.1
0604A:  BRA    6054
0604C:  MOVLB  6
0604E:  MOVF   x47,W
06050:  SUBLW  08
06052:  BNZ   607E
....................       {delay_ms(700);Menu=2;glcd_fillscreen(OFF);BYTE_IR[2]=0X00;} 
06054:  MOVLW  04
06056:  MOVLB  6
06058:  MOVWF  x49
0605A:  MOVLW  AF
0605C:  MOVWF  x51
0605E:  MOVLB  0
06060:  CALL   118C
06064:  MOVLB  6
06066:  DECFSZ x49,F
06068:  BRA    605A
0606A:  MOVLW  02
0606C:  MOVLB  4
0606E:  MOVWF  xF1
06070:  MOVLB  6
06072:  CLRF   x4A
06074:  MOVLB  0
06076:  CALL   2FD6
0607A:  MOVLB  6
0607C:  CLRF   x47
....................              
....................       if(Opcion>3) 
0607E:  MOVLB  4
06080:  MOVF   xF3,W
06082:  SUBLW  03
06084:  BC    608A
....................       {Opcion=1;} 
06086:  MOVLW  01
06088:  MOVWF  xF3
....................       if(Opcion<1) 
0608A:  MOVF   xF3,F
0608C:  BNZ   6092
....................       {Opcion=3;} 
0608E:  MOVLW  03
06090:  MOVWF  xF3
....................      
....................     } 
.................... //_--------------------------------------------------------------------------------------------------------------------------------------------------------        
....................  
.................... //_-------------------------------------------------------------------------------------------------------------------------------------------------------- 
....................       if(Menu==4){ //Menu de Ajustes. 
06092:  MOVF   xF1,W
06094:  SUBLW  04
06096:  BTFSS  FD8.2
06098:  BRA    62B0
....................        
....................       if(Opcion==1)    
0609A:  DECFSZ xF3,W
0609C:  BRA    60E4
....................          {strcpy(Menus.Letra,"Tiempo Purga"); 
0609E:  MOVLW  04
060A0:  MOVWF  FEA
060A2:  MOVLW  17
060A4:  MOVWF  FE9
060A6:  MOVFF  FF2,649
060AA:  BCF    FF2.7
060AC:  MOVLW  00
060AE:  MOVLB  0
060B0:  CALL   0FF6
060B4:  TBLRD*-
060B6:  TBLRD*+
060B8:  MOVF   FF5,W
060BA:  MOVWF  FEE
060BC:  IORLW  00
060BE:  BNZ   60B6
060C0:  MOVLB  6
060C2:  BTFSC  x49.7
060C4:  BSF    FF2.7
....................          displayMenu(Menus.Letra,0,12,1,1);} 
060C6:  MOVLW  04
060C8:  MOVWF  x4A
060CA:  MOVLW  17
060CC:  MOVWF  x49
060CE:  CLRF   x4B
060D0:  MOVLW  0C
060D2:  MOVWF  x4C
060D4:  MOVLW  01
060D6:  MOVWF  x4D
060D8:  MOVWF  x4E
060DA:  MOVLB  0
060DC:  CALL   3746
....................       else 
060E0:  BRA    6126
060E2:  MOVLB  4
....................          {strcpy(Menus.Letra,"Tiempo Purga"); 
060E4:  MOVLW  04
060E6:  MOVWF  FEA
060E8:  MOVLW  17
060EA:  MOVWF  FE9
060EC:  MOVFF  FF2,649
060F0:  BCF    FF2.7
060F2:  MOVLW  00
060F4:  MOVLB  0
060F6:  CALL   0FF6
060FA:  TBLRD*-
060FC:  TBLRD*+
060FE:  MOVF   FF5,W
06100:  MOVWF  FEE
06102:  IORLW  00
06104:  BNZ   60FC
06106:  MOVLB  6
06108:  BTFSC  x49.7
0610A:  BSF    FF2.7
....................          displayMenu(Menus.Letra,0,12,0,1);} 
0610C:  MOVLW  04
0610E:  MOVWF  x4A
06110:  MOVLW  17
06112:  MOVWF  x49
06114:  CLRF   x4B
06116:  MOVLW  0C
06118:  MOVWF  x4C
0611A:  CLRF   x4D
0611C:  MOVLW  01
0611E:  MOVWF  x4E
06120:  MOVLB  0
06122:  CALL   3746
....................                             
....................           
....................       if(Opcion==2)    
06126:  MOVLB  4
06128:  MOVF   xF3,W
0612A:  SUBLW  02
0612C:  BNZ   6174
....................          {strcpy(Menus.Letra,"Sensor de Presion"); 
0612E:  MOVLW  04
06130:  MOVWF  FEA
06132:  MOVLW  17
06134:  MOVWF  FE9
06136:  MOVFF  FF2,649
0613A:  BCF    FF2.7
0613C:  MOVLW  00
0613E:  MOVLB  0
06140:  CALL   1022
06144:  TBLRD*-
06146:  TBLRD*+
06148:  MOVF   FF5,W
0614A:  MOVWF  FEE
0614C:  IORLW  00
0614E:  BNZ   6146
06150:  MOVLB  6
06152:  BTFSC  x49.7
06154:  BSF    FF2.7
....................          displayMenu(Menus.Letra,0,36,1,1);} 
06156:  MOVLW  04
06158:  MOVWF  x4A
0615A:  MOVLW  17
0615C:  MOVWF  x49
0615E:  CLRF   x4B
06160:  MOVLW  24
06162:  MOVWF  x4C
06164:  MOVLW  01
06166:  MOVWF  x4D
06168:  MOVWF  x4E
0616A:  MOVLB  0
0616C:  CALL   3746
....................       else 
06170:  BRA    61B6
06172:  MOVLB  4
....................          {strcpy(Menus.Letra,"Sensor de Presion"); 
06174:  MOVLW  04
06176:  MOVWF  FEA
06178:  MOVLW  17
0617A:  MOVWF  FE9
0617C:  MOVFF  FF2,649
06180:  BCF    FF2.7
06182:  MOVLW  00
06184:  MOVLB  0
06186:  CALL   1022
0618A:  TBLRD*-
0618C:  TBLRD*+
0618E:  MOVF   FF5,W
06190:  MOVWF  FEE
06192:  IORLW  00
06194:  BNZ   618C
06196:  MOVLB  6
06198:  BTFSC  x49.7
0619A:  BSF    FF2.7
....................          displayMenu(Menus.Letra,0,36,0,1);}         
0619C:  MOVLW  04
0619E:  MOVWF  x4A
061A0:  MOVLW  17
061A2:  MOVWF  x49
061A4:  CLRF   x4B
061A6:  MOVLW  24
061A8:  MOVWF  x4C
061AA:  CLRF   x4D
061AC:  MOVLW  01
061AE:  MOVWF  x4E
061B0:  MOVLB  0
061B2:  CALL   3746
....................           
....................          
....................       if(UP || BYTE_IR[2]==0X18)//Si oprime hacia arriba 
061B6:  BSF    F96.1
061B8:  BTFSC  F84.1
061BA:  BRA    61C4
061BC:  MOVLB  6
061BE:  MOVF   x47,W
061C0:  SUBLW  18
061C2:  BNZ   61E4
....................       {  if(Flanco == 0)  
061C4:  MOVLB  4
061C6:  BTFSC  x30.0
061C8:  BRA    61E2
....................             {Flanco = 1;delay_ms(30);Opcion--;BYTE_IR[2]=0X00; 
061CA:  BSF    x30.0
061CC:  MOVLW  1E
061CE:  MOVLB  6
061D0:  MOVWF  x51
061D2:  MOVLB  0
061D4:  CALL   118C
061D8:  MOVLB  4
061DA:  DECF   xF3,F
061DC:  MOVLB  6
061DE:  CLRF   x47
061E0:  MOVLB  4
....................             } 
....................       } 
....................          else 
061E2:  BRA    61E8
....................             {Flanco = 0;} 
061E4:  MOVLB  4
061E6:  BCF    x30.0
....................              
....................       if(DOWN  || BYTE_IR[2]==0X52)//Si oprime hacia abajo 
061E8:  BSF    F96.2
061EA:  BTFSC  F84.2
061EC:  BRA    61F8
061EE:  MOVLB  6
061F0:  MOVF   x47,W
061F2:  SUBLW  52
061F4:  BNZ   6216
061F6:  MOVLB  4
....................       {  if(Flanco2 == 0)  
061F8:  BTFSC  x30.2
061FA:  BRA    6214
....................             {Flanco2 = 1;delay_ms(30);Opcion++;BYTE_IR[2]=0X00; 
061FC:  BSF    x30.2
061FE:  MOVLW  1E
06200:  MOVLB  6
06202:  MOVWF  x51
06204:  MOVLB  0
06206:  CALL   118C
0620A:  MOVLB  4
0620C:  INCF   xF3,F
0620E:  MOVLB  6
06210:  CLRF   x47
06212:  MOVLB  4
....................             }      
....................       } 
....................          else 
06214:  BRA    621A
....................             {Flanco2 = 0;}   
06216:  MOVLB  4
06218:  BCF    x30.2
....................              
....................       if(RIGHT  || BYTE_IR[2]==0X5A)//Si oprime SET 
0621A:  BSF    F94.0
0621C:  BTFSC  F82.0
0621E:  BRA    622A
06220:  MOVLB  6
06222:  MOVF   x47,W
06224:  SUBLW  5A
06226:  BNZ   6260
06228:  MOVLB  4
....................       {  if(Flanco1 == 0)  
0622A:  BTFSC  x30.1
0622C:  BRA    625E
....................             {Flanco1 = 1;delay_ms(500);Menu=Opcion+10;glcd_fillScreen(OFF);BYTE_IR[2]=0X00; 
0622E:  BSF    x30.1
06230:  MOVLW  02
06232:  MOVLB  6
06234:  MOVWF  x49
06236:  MOVLW  FA
06238:  MOVWF  x51
0623A:  MOVLB  0
0623C:  CALL   118C
06240:  MOVLB  6
06242:  DECFSZ x49,F
06244:  BRA    6236
06246:  MOVLW  0A
06248:  MOVLB  4
0624A:  ADDWF  xF3,W
0624C:  MOVWF  xF1
0624E:  MOVLB  6
06250:  CLRF   x4A
06252:  MOVLB  0
06254:  CALL   2FD6
06258:  MOVLB  6
0625A:  CLRF   x47
0625C:  MOVLB  4
....................             } 
....................       } 
....................          else 
0625E:  BRA    6264
....................             {Flanco1 = 0;}   
06260:  MOVLB  4
06262:  BCF    x30.1
....................              
....................       if(LEFT || BYTE_IR[2]==0X08)//Si oprime boton de Toma. 
06264:  BSF    F94.1
06266:  BTFSC  F82.1
06268:  BRA    6272
0626A:  MOVLB  6
0626C:  MOVF   x47,W
0626E:  SUBLW  08
06270:  BNZ   629C
....................         {delay_ms(700);Menu=3;glcd_fillscreen(OFF);BYTE_IR[2]=0X00;} 
06272:  MOVLW  04
06274:  MOVLB  6
06276:  MOVWF  x49
06278:  MOVLW  AF
0627A:  MOVWF  x51
0627C:  MOVLB  0
0627E:  CALL   118C
06282:  MOVLB  6
06284:  DECFSZ x49,F
06286:  BRA    6278
06288:  MOVLW  03
0628A:  MOVLB  4
0628C:  MOVWF  xF1
0628E:  MOVLB  6
06290:  CLRF   x4A
06292:  MOVLB  0
06294:  CALL   2FD6
06298:  MOVLB  6
0629A:  CLRF   x47
....................        
....................       if(Opcion>2) 
0629C:  MOVLB  4
0629E:  MOVF   xF3,W
062A0:  SUBLW  02
062A2:  BC    62A8
....................       {Opcion=1;} 
062A4:  MOVLW  01
062A6:  MOVWF  xF3
....................       if(Opcion<1) 
062A8:  MOVF   xF3,F
062AA:  BNZ   62B0
....................       {Opcion=2;} 
062AC:  MOVLW  02
062AE:  MOVWF  xF3
....................      
....................     } 
.................... //_--------------------------------------------------------------------------------------------------------------------------------------------------------        
....................  
.................... //_-------------------------------------------------------------------------------------------------------------------------------------------------------- 
....................       if(Menu==11){ //Menu de Purga. 
062B0:  MOVF   xF1,W
062B2:  SUBLW  0B
062B4:  BTFSS  FD8.2
062B6:  BRA    667E
....................        
....................       strcpy(Menus.Letra,"T. Purga"); 
062B8:  MOVLW  04
062BA:  MOVWF  FEA
062BC:  MOVLW  17
062BE:  MOVWF  FE9
062C0:  MOVFF  FF2,649
062C4:  BCF    FF2.7
062C6:  MOVLW  00
062C8:  MOVLB  0
062CA:  CALL   1052
062CE:  TBLRD*-
062D0:  TBLRD*+
062D2:  MOVF   FF5,W
062D4:  MOVWF  FEE
062D6:  IORLW  00
062D8:  BNZ   62D0
062DA:  MOVLB  6
062DC:  BTFSC  x49.7
062DE:  BSF    FF2.7
....................       displayMenu(Menus.Letra,10,0,1,2); 
062E0:  MOVLW  04
062E2:  MOVWF  x4A
062E4:  MOVLW  17
062E6:  MOVWF  x49
062E8:  MOVLW  0A
062EA:  MOVWF  x4B
062EC:  CLRF   x4C
062EE:  MOVLW  01
062F0:  MOVWF  x4D
062F2:  MOVLW  02
062F4:  MOVWF  x4E
062F6:  MOVLB  0
062F8:  CALL   3746
....................        
....................       if(unidad==4) 
062FC:  MOVLB  4
062FE:  MOVF   xF2,W
06300:  SUBLW  04
06302:  BNZ   6322
....................       {displayTiempo(Tpurgap[3],20,40,1,2);} 
06304:  MOVFF  51A,649
06308:  MOVLW  14
0630A:  MOVLB  6
0630C:  MOVWF  x4A
0630E:  MOVLW  28
06310:  MOVWF  x4B
06312:  MOVLW  01
06314:  MOVWF  x4C
06316:  MOVLW  02
06318:  MOVWF  x4D
0631A:  MOVLB  0
0631C:  CALL   3812
....................       else 
06320:  BRA    633C
....................       {displayTiempo(Tpurgap[3],20,40,0,2);} 
06322:  MOVFF  51A,649
06326:  MOVLW  14
06328:  MOVLB  6
0632A:  MOVWF  x4A
0632C:  MOVLW  28
0632E:  MOVWF  x4B
06330:  CLRF   x4C
06332:  MOVLW  02
06334:  MOVWF  x4D
06336:  MOVLB  0
06338:  CALL   3812
....................        
....................       if(unidad==3) 
0633C:  MOVLB  4
0633E:  MOVF   xF2,W
06340:  SUBLW  03
06342:  BNZ   6360
....................       {displayTiempo(Tpurgap[2],40,40,1,2);} 
06344:  MOVFF  519,649
06348:  MOVLW  28
0634A:  MOVLB  6
0634C:  MOVWF  x4A
0634E:  MOVWF  x4B
06350:  MOVLW  01
06352:  MOVWF  x4C
06354:  MOVLW  02
06356:  MOVWF  x4D
06358:  MOVLB  0
0635A:  CALL   3812
....................       else 
0635E:  BRA    6378
....................       {displayTiempo(Tpurgap[2],40,40,0,2);} 
06360:  MOVFF  519,649
06364:  MOVLW  28
06366:  MOVLB  6
06368:  MOVWF  x4A
0636A:  MOVWF  x4B
0636C:  CLRF   x4C
0636E:  MOVLW  02
06370:  MOVWF  x4D
06372:  MOVLB  0
06374:  CALL   3812
....................        
....................       if(unidad==2) 
06378:  MOVLB  4
0637A:  MOVF   xF2,W
0637C:  SUBLW  02
0637E:  BNZ   639E
....................       {displayTiempo(Tpurgap[1],70,40,1,2);} 
06380:  MOVFF  518,649
06384:  MOVLW  46
06386:  MOVLB  6
06388:  MOVWF  x4A
0638A:  MOVLW  28
0638C:  MOVWF  x4B
0638E:  MOVLW  01
06390:  MOVWF  x4C
06392:  MOVLW  02
06394:  MOVWF  x4D
06396:  MOVLB  0
06398:  CALL   3812
....................       else 
0639C:  BRA    63B8
....................       {displayTiempo(Tpurgap[1],70,40,0,2);} 
0639E:  MOVFF  518,649
063A2:  MOVLW  46
063A4:  MOVLB  6
063A6:  MOVWF  x4A
063A8:  MOVLW  28
063AA:  MOVWF  x4B
063AC:  CLRF   x4C
063AE:  MOVLW  02
063B0:  MOVWF  x4D
063B2:  MOVLB  0
063B4:  CALL   3812
....................        
....................       if(unidad==1) 
063B8:  MOVLB  4
063BA:  DECFSZ xF2,W
063BC:  BRA    63DC
....................       {displayTiempo(Tpurgap[0],90,40,1,2);} 
063BE:  MOVFF  517,649
063C2:  MOVLW  5A
063C4:  MOVLB  6
063C6:  MOVWF  x4A
063C8:  MOVLW  28
063CA:  MOVWF  x4B
063CC:  MOVLW  01
063CE:  MOVWF  x4C
063D0:  MOVLW  02
063D2:  MOVWF  x4D
063D4:  MOVLB  0
063D6:  CALL   3812
....................       else 
063DA:  BRA    63F6
....................       {displayTiempo(Tpurgap[0],90,40,0,2);} 
063DC:  MOVFF  517,649
063E0:  MOVLW  5A
063E2:  MOVLB  6
063E4:  MOVWF  x4A
063E6:  MOVLW  28
063E8:  MOVWF  x4B
063EA:  CLRF   x4C
063EC:  MOVLW  02
063EE:  MOVWF  x4D
063F0:  MOVLB  0
063F2:  CALL   3812
....................        
....................       glcd_text57(60, 42, Dos_puntos, 2, ON); 
063F6:  MOVLW  3C
063F8:  MOVLB  6
063FA:  MOVWF  x60
063FC:  MOVLW  2A
063FE:  MOVWF  x61
06400:  MOVLW  04
06402:  MOVWF  x63
06404:  MOVLW  59
06406:  MOVWF  x62
06408:  MOVLW  02
0640A:  MOVWF  x64
0640C:  MOVLW  01
0640E:  MOVWF  x65
06410:  MOVLB  0
06412:  CALL   34D6
....................           
....................          
....................       if(UP || BYTE_IR[2]==0X18)//Si oprime hacia arriba 
06416:  BSF    F96.1
06418:  BTFSC  F84.1
0641A:  BRA    6424
0641C:  MOVLB  6
0641E:  MOVF   x47,W
06420:  SUBLW  18
06422:  BNZ   6454
....................       {  if(Flanco == 0)  
06424:  MOVLB  4
06426:  BTFSC  x30.0
06428:  BRA    6452
....................             {Flanco = 1;delay_ms(30);Tpurgap[unidad-1]++;BYTE_IR[2]=0X00; 
0642A:  BSF    x30.0
0642C:  MOVLW  1E
0642E:  MOVLB  6
06430:  MOVWF  x51
06432:  MOVLB  0
06434:  CALL   118C
06438:  MOVLW  01
0643A:  MOVLB  4
0643C:  SUBWF  xF2,W
0643E:  CLRF   03
06440:  ADDLW  17
06442:  MOVWF  FE9
06444:  MOVLW  05
06446:  ADDWFC 03,W
06448:  MOVWF  FEA
0644A:  INCF   FEF,F
0644C:  MOVLB  6
0644E:  CLRF   x47
06450:  MOVLB  4
....................             } 
....................       } 
....................          else 
06452:  BRA    6458
....................             {Flanco = 0;} 
06454:  MOVLB  4
06456:  BCF    x30.0
....................              
....................       if(DOWN  || BYTE_IR[2]==0X52)//Si oprime hacia abajo 
06458:  BSF    F96.2
0645A:  BTFSC  F84.2
0645C:  BRA    6468
0645E:  MOVLB  6
06460:  MOVF   x47,W
06462:  SUBLW  52
06464:  BNZ   6496
06466:  MOVLB  4
....................       {  if(Flanco2 == 0)  
06468:  BTFSC  x30.2
0646A:  BRA    6494
....................             {Flanco2 = 1;delay_ms(30);Tpurgap[unidad-1]--;BYTE_IR[2]=0X00; 
0646C:  BSF    x30.2
0646E:  MOVLW  1E
06470:  MOVLB  6
06472:  MOVWF  x51
06474:  MOVLB  0
06476:  CALL   118C
0647A:  MOVLW  01
0647C:  MOVLB  4
0647E:  SUBWF  xF2,W
06480:  CLRF   03
06482:  ADDLW  17
06484:  MOVWF  FE9
06486:  MOVLW  05
06488:  ADDWFC 03,W
0648A:  MOVWF  FEA
0648C:  DECF   FEF,F
0648E:  MOVLB  6
06490:  CLRF   x47
06492:  MOVLB  4
....................             }      
....................       } 
....................          else 
06494:  BRA    649A
....................             {Flanco2 = 0;}   
06496:  MOVLB  4
06498:  BCF    x30.2
....................              
....................       if(RIGHT || BYTE_IR[2]==0X5A)//Si oprime SET 
0649A:  BSF    F94.0
0649C:  BTFSC  F82.0
0649E:  BRA    64AA
064A0:  MOVLB  6
064A2:  MOVF   x47,W
064A4:  SUBLW  5A
064A6:  BNZ   64C8
064A8:  MOVLB  4
....................       {  if(Flanco1 == 0)  
064AA:  BTFSC  x30.1
064AC:  BRA    64C6
....................             {Flanco1 = 1;delay_ms(30);unidad--;BYTE_IR[2]=0X00; 
064AE:  BSF    x30.1
064B0:  MOVLW  1E
064B2:  MOVLB  6
064B4:  MOVWF  x51
064B6:  MOVLB  0
064B8:  CALL   118C
064BC:  MOVLB  4
064BE:  DECF   xF2,F
064C0:  MOVLB  6
064C2:  CLRF   x47
064C4:  MOVLB  4
....................             } 
....................       } 
....................          else 
064C6:  BRA    64CC
....................             {Flanco1 = 0;}   
064C8:  MOVLB  4
064CA:  BCF    x30.1
....................              
....................       if(LEFT || BYTE_IR[2]==0X08)//Si oprime boton de Toma. 
064CC:  BSF    F94.1
064CE:  BTFSC  F82.1
064D0:  BRA    64DA
064D2:  MOVLB  6
064D4:  MOVF   x47,W
064D6:  SUBLW  08
064D8:  BNZ   65B4
....................         {delay_ms(700);Menu=3;glcd_fillscreen(OFF);Opcion=1;BYTE_IR[2]=0X00; 
064DA:  MOVLW  04
064DC:  MOVLB  6
064DE:  MOVWF  x49
064E0:  MOVLW  AF
064E2:  MOVWF  x51
064E4:  MOVLB  0
064E6:  CALL   118C
064EA:  MOVLB  6
064EC:  DECFSZ x49,F
064EE:  BRA    64E0
064F0:  MOVLW  03
064F2:  MOVLB  4
064F4:  MOVWF  xF1
064F6:  MOVLB  6
064F8:  CLRF   x4A
064FA:  MOVLB  0
064FC:  CALL   2FD6
06500:  MOVLW  01
06502:  MOVLB  4
06504:  MOVWF  xF3
06506:  MOVLB  6
06508:  CLRF   x47
....................          write_eeprom(4,Tpurgap[0]);write_eeprom(5,Tpurgap[1]);write_eeprom(6,Tpurgap[2]);write_eeprom(7,Tpurgap[3]);} 
0650A:  CLRF   FAA
0650C:  MOVLW  04
0650E:  MOVWF  FA9
06510:  MOVFF  517,FA8
06514:  BCF    FA6.6
06516:  BCF    FA6.7
06518:  BSF    FA6.2
0651A:  MOVF   FF2,W
0651C:  MOVWF  00
0651E:  BCF    FF2.7
06520:  MOVLB  F
06522:  MOVLW  55
06524:  MOVWF  FA7
06526:  MOVLW  AA
06528:  MOVWF  FA7
0652A:  BSF    FA6.1
0652C:  BTFSC  FA6.1
0652E:  BRA    652C
06530:  BCF    FA6.2
06532:  MOVF   00,W
06534:  IORWF  FF2,F
06536:  CLRF   FAA
06538:  MOVLW  05
0653A:  MOVWF  FA9
0653C:  MOVFF  518,FA8
06540:  BCF    FA6.6
06542:  BCF    FA6.7
06544:  BSF    FA6.2
06546:  MOVF   FF2,W
06548:  MOVWF  00
0654A:  BCF    FF2.7
0654C:  MOVLW  55
0654E:  MOVWF  FA7
06550:  MOVLW  AA
06552:  MOVWF  FA7
06554:  BSF    FA6.1
06556:  BTFSC  FA6.1
06558:  BRA    6556
0655A:  BCF    FA6.2
0655C:  MOVF   00,W
0655E:  IORWF  FF2,F
06560:  CLRF   FAA
06562:  MOVLW  06
06564:  MOVWF  FA9
06566:  MOVFF  519,FA8
0656A:  BCF    FA6.6
0656C:  BCF    FA6.7
0656E:  BSF    FA6.2
06570:  MOVF   FF2,W
06572:  MOVWF  00
06574:  BCF    FF2.7
06576:  MOVLW  55
06578:  MOVWF  FA7
0657A:  MOVLW  AA
0657C:  MOVWF  FA7
0657E:  BSF    FA6.1
06580:  BTFSC  FA6.1
06582:  BRA    6580
06584:  BCF    FA6.2
06586:  MOVF   00,W
06588:  IORWF  FF2,F
0658A:  CLRF   FAA
0658C:  MOVLW  07
0658E:  MOVWF  FA9
06590:  MOVFF  51A,FA8
06594:  BCF    FA6.6
06596:  BCF    FA6.7
06598:  BSF    FA6.2
0659A:  MOVF   FF2,W
0659C:  MOVWF  00
0659E:  BCF    FF2.7
065A0:  MOVLW  55
065A2:  MOVWF  FA7
065A4:  MOVLW  AA
065A6:  MOVWF  FA7
065A8:  BSF    FA6.1
065AA:  BTFSC  FA6.1
065AC:  BRA    65AA
065AE:  BCF    FA6.2
065B0:  MOVF   00,W
065B2:  IORWF  FF2,F
....................        
....................       for(i=0;i<4;i++) 
065B4:  MOVLB  4
065B6:  CLRF   x2F
065B8:  MOVF   x2F,W
065BA:  SUBLW  03
065BC:  BNC   6610
....................       { 
....................          if(Tpurgap[i]>9) 
065BE:  CLRF   03
065C0:  MOVF   x2F,W
065C2:  ADDLW  17
065C4:  MOVWF  FE9
065C6:  MOVLW  05
065C8:  ADDWFC 03,W
065CA:  MOVWF  FEA
065CC:  BTFSC  FEF.7
065CE:  BRA    65E6
065D0:  MOVF   FEF,W
065D2:  SUBLW  09
065D4:  BC    65E6
....................          {Tpurgap[i]=0;} 
065D6:  CLRF   03
065D8:  MOVF   x2F,W
065DA:  ADDLW  17
065DC:  MOVWF  FE9
065DE:  MOVLW  05
065E0:  ADDWFC 03,W
065E2:  MOVWF  FEA
065E4:  CLRF   FEF
....................           
....................          if(Tpurgap[i]<0) 
065E6:  CLRF   03
065E8:  MOVF   x2F,W
065EA:  ADDLW  17
065EC:  MOVWF  FE9
065EE:  MOVLW  05
065F0:  ADDWFC 03,W
065F2:  MOVWF  FEA
065F4:  BTFSC  FEF.7
065F6:  BRA    65FA
065F8:  BRA    660C
....................          {Tpurgap[i]=9;} 
065FA:  CLRF   03
065FC:  MOVF   x2F,W
065FE:  ADDLW  17
06600:  MOVWF  FE9
06602:  MOVLW  05
06604:  ADDWFC 03,W
06606:  MOVWF  FEA
06608:  MOVLW  09
0660A:  MOVWF  FEF
....................       }       
0660C:  INCF   x2F,F
0660E:  BRA    65B8
....................       for(i=1;i<4;i++) 
06610:  MOVLW  01
06612:  MOVWF  x2F
06614:  MOVF   x2F,W
06616:  SUBLW  03
06618:  BNC   666E
....................       { 
....................          if(Tpurgap[i]>5) 
0661A:  CLRF   03
0661C:  MOVF   x2F,W
0661E:  ADDLW  17
06620:  MOVWF  FE9
06622:  MOVLW  05
06624:  ADDWFC 03,W
06626:  MOVWF  FEA
06628:  BTFSC  FEF.7
0662A:  BRA    6642
0662C:  MOVF   FEF,W
0662E:  SUBLW  05
06630:  BC    6642
....................          {Tpurgap[i]=0;} 
06632:  CLRF   03
06634:  MOVF   x2F,W
06636:  ADDLW  17
06638:  MOVWF  FE9
0663A:  MOVLW  05
0663C:  ADDWFC 03,W
0663E:  MOVWF  FEA
06640:  CLRF   FEF
....................           
....................          if(Tpurgap[i]<0) 
06642:  CLRF   03
06644:  MOVF   x2F,W
06646:  ADDLW  17
06648:  MOVWF  FE9
0664A:  MOVLW  05
0664C:  ADDWFC 03,W
0664E:  MOVWF  FEA
06650:  BTFSC  FEF.7
06652:  BRA    6656
06654:  BRA    6668
....................          {Tpurgap[i]=5;} 
06656:  CLRF   03
06658:  MOVF   x2F,W
0665A:  ADDLW  17
0665C:  MOVWF  FE9
0665E:  MOVLW  05
06660:  ADDWFC 03,W
06662:  MOVWF  FEA
06664:  MOVLW  05
06666:  MOVWF  FEF
....................         i++;  
06668:  INCF   x2F,F
....................       } 
0666A:  INCF   x2F,F
0666C:  BRA    6614
....................       if(unidad<1) 
0666E:  MOVF   xF2,F
06670:  BNZ   6676
....................       {unidad=4;} 
06672:  MOVLW  04
06674:  MOVWF  xF2
....................       if(Opcion<1) 
06676:  MOVF   xF3,F
06678:  BNZ   667E
....................       {Opcion=4;} 
0667A:  MOVLW  04
0667C:  MOVWF  xF3
....................      
....................     } 
.................... //_--------------------------------------------------------------------------------------------------------------------------------------------------------        
....................  
.................... //_-------------------------------------------------------------------------------------------------------------------------------------------------------- 
....................       if(Menu==12){ //Menu de Sensor de Presin. 
0667E:  MOVF   xF1,W
06680:  SUBLW  0C
06682:  BTFSS  FD8.2
06684:  BRA    6AAC
....................        
....................       if(Ajuste2>10.0) 
06686:  MOVLB  6
06688:  CLRF   x7D
0668A:  CLRF   x7C
0668C:  MOVLW  20
0668E:  MOVWF  x7B
06690:  MOVLW  82
06692:  MOVWF  x7A
06694:  MOVFF  572,681
06698:  MOVFF  571,680
0669C:  MOVFF  570,67F
066A0:  MOVFF  56F,67E
066A4:  MOVLB  0
066A6:  CALL   15C0
066AA:  BNC   66B8
....................          Ajuste2=0.0; 
066AC:  MOVLB  5
066AE:  CLRF   x72
066B0:  CLRF   x71
066B2:  CLRF   x70
066B4:  CLRF   x6F
066B6:  MOVLB  0
....................        
....................       strcpy(Menus.Letra,"Sensor de Presion"); 
066B8:  MOVLW  04
066BA:  MOVWF  FEA
066BC:  MOVLW  17
066BE:  MOVWF  FE9
066C0:  MOVFF  FF2,649
066C4:  BCF    FF2.7
066C6:  MOVLW  00
066C8:  CALL   1022
066CC:  TBLRD*-
066CE:  TBLRD*+
066D0:  MOVF   FF5,W
066D2:  MOVWF  FEE
066D4:  IORLW  00
066D6:  BNZ   66CE
066D8:  MOVLB  6
066DA:  BTFSC  x49.7
066DC:  BSF    FF2.7
....................       displayMenu(Menus.Letra,10,0,1,1); 
066DE:  MOVLW  04
066E0:  MOVWF  x4A
066E2:  MOVLW  17
066E4:  MOVWF  x49
066E6:  MOVLW  0A
066E8:  MOVWF  x4B
066EA:  CLRF   x4C
066EC:  MOVLW  01
066EE:  MOVWF  x4D
066F0:  MOVWF  x4E
066F2:  MOVLB  0
066F4:  CALL   3746
....................        
....................       glcd_text57(0, 12, ZFP, 1, ON); 
066F8:  MOVLB  6
066FA:  CLRF   x60
066FC:  MOVLW  0C
066FE:  MOVWF  x61
06700:  MOVLW  04
06702:  MOVWF  x63
06704:  MOVLW  D1
06706:  MOVWF  x62
06708:  MOVLW  01
0670A:  MOVWF  x64
0670C:  MOVWF  x65
0670E:  MOVLB  0
06710:  CALL   34D6
....................        
....................       glcd_text57(0, 20, ZA, 1, ON); 
06714:  MOVLB  6
06716:  CLRF   x60
06718:  MOVLW  14
0671A:  MOVWF  x61
0671C:  MOVLW  04
0671E:  MOVWF  x63
06720:  MOVLW  B1
06722:  MOVWF  x62
06724:  MOVLW  01
06726:  MOVWF  x64
06728:  MOVWF  x65
0672A:  MOVLB  0
0672C:  CALL   34D6
....................        
....................       glcd_text57(0, 30, AJ, 1, ON);            
06730:  MOVLB  6
06732:  CLRF   x60
06734:  MOVLW  1E
06736:  MOVWF  x61
06738:  MOVLW  04
0673A:  MOVWF  x63
0673C:  MOVLW  B9
0673E:  MOVWF  x62
06740:  MOVLW  01
06742:  MOVWF  x64
06744:  MOVWF  x65
06746:  MOVLB  0
06748:  CALL   34D6
....................        
....................       displayfloat(G,44,20,0,1); 
0674C:  MOVFF  5E6,650
06750:  MOVFF  5E5,64F
06754:  MOVFF  5E4,64E
06758:  MOVFF  5E3,64D
0675C:  MOVLW  2C
0675E:  MOVLB  6
06760:  MOVWF  x51
06762:  MOVLW  14
06764:  MOVWF  x52
06766:  CLRF   x53
06768:  MOVLW  01
0676A:  MOVWF  x54
0676C:  MOVLB  0
0676E:  CALL   3D7A
....................       displayfloat(Ajuste2,44,30,0,1); 
06772:  MOVFF  572,650
06776:  MOVFF  571,64F
0677A:  MOVFF  570,64E
0677E:  MOVFF  56F,64D
06782:  MOVLW  2C
06784:  MOVLB  6
06786:  MOVWF  x51
06788:  MOVLW  1E
0678A:  MOVWF  x52
0678C:  CLRF   x53
0678E:  MOVLW  01
06790:  MOVWF  x54
06792:  MOVLB  0
06794:  CALL   3D7A
....................       displayfloat(Filtro_DownFlow_adc,0,40,0,1); 
06798:  MOVFF  508,67F
0679C:  MOVFF  507,67E
067A0:  CALL   11B4
067A4:  MOVFF  00,649
067A8:  MOVFF  01,64A
067AC:  MOVFF  02,64B
067B0:  MOVFF  03,64C
067B4:  MOVFF  03,650
067B8:  MOVFF  02,64F
067BC:  MOVFF  01,64E
067C0:  MOVFF  00,64D
067C4:  MOVLB  6
067C6:  CLRF   x51
067C8:  MOVLW  28
067CA:  MOVWF  x52
067CC:  CLRF   x53
067CE:  MOVLW  01
067D0:  MOVWF  x54
067D2:  MOVLB  0
067D4:  CALL   3D7A
....................       displayfloat(Filtro_DownFlow,0,50,0,1); 
067D8:  MOVFF  546,650
067DC:  MOVFF  545,64F
067E0:  MOVFF  544,64E
067E4:  MOVFF  543,64D
067E8:  MOVLB  6
067EA:  CLRF   x51
067EC:  MOVLW  32
067EE:  MOVWF  x52
067F0:  CLRF   x53
067F2:  MOVLW  01
067F4:  MOVWF  x54
067F6:  MOVLB  0
067F8:  CALL   3D7A
....................        
....................       if(UP || BYTE_IR[2]==0X18)//Si oprime hacia arriba 
067FC:  BSF    F96.1
067FE:  BTFSC  F84.1
06800:  BRA    680C
06802:  MOVLB  6
06804:  MOVF   x47,W
06806:  SUBLW  18
06808:  BNZ   6856
0680A:  MOVLB  0
....................       {   
....................          delay_ms(30);Ajuste2+=0.01;BYTE_IR[2]=0X00; 
0680C:  MOVLW  1E
0680E:  MOVLB  6
06810:  MOVWF  x51
06812:  MOVLB  0
06814:  CALL   118C
06818:  BCF    FD8.1
0681A:  MOVFF  572,681
0681E:  MOVFF  571,680
06822:  MOVFF  570,67F
06826:  MOVFF  56F,67E
0682A:  MOVLW  0A
0682C:  MOVLB  6
0682E:  MOVWF  x85
06830:  MOVLW  D7
06832:  MOVWF  x84
06834:  MOVLW  23
06836:  MOVWF  x83
06838:  MOVLW  78
0683A:  MOVWF  x82
0683C:  MOVLB  0
0683E:  CALL   1348
06842:  MOVFF  03,572
06846:  MOVFF  02,571
0684A:  MOVFF  01,570
0684E:  MOVFF  00,56F
06852:  MOVLB  6
06854:  CLRF   x47
....................       } 
....................              
....................       if(DOWN  || BYTE_IR[2]==0X52)//Si oprime hacia abajo 
06856:  BSF    F96.2
06858:  BTFSC  F84.2
0685A:  BRA    6862
0685C:  MOVF   x47,W
0685E:  SUBLW  52
06860:  BNZ   68AA
....................       {   
....................          delay_ms(30);Ajuste2-=0.01;BYTE_IR[2]=0X00; 
06862:  MOVLW  1E
06864:  MOVWF  x51
06866:  MOVLB  0
06868:  CALL   118C
0686C:  BSF    FD8.1
0686E:  MOVFF  572,681
06872:  MOVFF  571,680
06876:  MOVFF  570,67F
0687A:  MOVFF  56F,67E
0687E:  MOVLW  0A
06880:  MOVLB  6
06882:  MOVWF  x85
06884:  MOVLW  D7
06886:  MOVWF  x84
06888:  MOVLW  23
0688A:  MOVWF  x83
0688C:  MOVLW  78
0688E:  MOVWF  x82
06890:  MOVLB  0
06892:  CALL   1348
06896:  MOVFF  03,572
0689A:  MOVFF  02,571
0689E:  MOVFF  01,570
068A2:  MOVFF  00,56F
068A6:  MOVLB  6
068A8:  CLRF   x47
....................       } 
....................              
....................       if(RIGHT || BYTE_IR[2]==0X5A)//Si oprime SET 
068AA:  BSF    F94.0
068AC:  BTFSC  F82.0
068AE:  BRA    68B6
068B0:  MOVF   x47,W
068B2:  SUBLW  5A
068B4:  BNZ   6952
....................       {   
....................          BYTE_IR[2]=0X00; 
068B6:  CLRF   x47
....................          G=Filtro_Downflow_adc; 
068B8:  MOVFF  508,67F
068BC:  MOVFF  507,67E
068C0:  MOVLB  0
068C2:  CALL   11B4
068C6:  MOVFF  03,5E6
068CA:  MOVFF  02,5E5
068CE:  MOVFF  01,5E4
068D2:  MOVFF  00,5E3
....................          G16=(int16)G; 
068D6:  MOVFF  5E6,67D
068DA:  MOVFF  5E5,67C
068DE:  MOVFF  5E4,67B
068E2:  MOVFF  5E3,67A
068E6:  CALL   17A8
068EA:  MOVFF  02,512
068EE:  MOVFF  01,511
....................          G_l=G16; G_h=(G16>>8); 
068F2:  MOVFF  511,4F6
068F6:  MOVFF  512,4F7
....................              
....................          write_eeprom(62,G_l);write_eeprom(63,G_h);//Guardar valor de Setpoint en eeprom 
068FA:  CLRF   FAA
068FC:  MOVLW  3E
068FE:  MOVWF  FA9
06900:  MOVFF  4F6,FA8
06904:  BCF    FA6.6
06906:  BCF    FA6.7
06908:  BSF    FA6.2
0690A:  MOVF   FF2,W
0690C:  MOVWF  00
0690E:  BCF    FF2.7
06910:  MOVLB  F
06912:  MOVLW  55
06914:  MOVWF  FA7
06916:  MOVLW  AA
06918:  MOVWF  FA7
0691A:  BSF    FA6.1
0691C:  BTFSC  FA6.1
0691E:  BRA    691C
06920:  BCF    FA6.2
06922:  MOVF   00,W
06924:  IORWF  FF2,F
06926:  CLRF   FAA
06928:  MOVLW  3F
0692A:  MOVWF  FA9
0692C:  MOVFF  4F7,FA8
06930:  BCF    FA6.6
06932:  BCF    FA6.7
06934:  BSF    FA6.2
06936:  MOVF   FF2,W
06938:  MOVWF  00
0693A:  BCF    FF2.7
0693C:  MOVLW  55
0693E:  MOVWF  FA7
06940:  MOVLW  AA
06942:  MOVWF  FA7
06944:  BSF    FA6.1
06946:  BTFSC  FA6.1
06948:  BRA    6946
0694A:  BCF    FA6.2
0694C:  MOVF   00,W
0694E:  IORWF  FF2,F
....................       } 
....................          else 
06950:  BRA    6958
....................             {Flanco1 = 0;}   
06952:  MOVLB  4
06954:  BCF    x30.1
06956:  MOVLB  F
....................              
....................       if(LEFT || BYTE_IR[2]==0X08)//Si oprime boton de Toma. 
06958:  BSF    F94.1
0695A:  BTFSC  F82.1
0695C:  BRA    696A
0695E:  MOVLB  6
06960:  MOVF   x47,W
06962:  SUBLW  08
06964:  BTFSS  FD8.2
06966:  BRA    6AAA
06968:  MOVLB  F
....................       {          
....................          BYTE_IR[2]=0X00; 
0696A:  MOVLB  6
0696C:  CLRF   x47
....................          delay_ms(700);Menu=3;glcd_fillscreen(OFF);Opcion=1; 
0696E:  MOVLW  04
06970:  MOVWF  x49
06972:  MOVLW  AF
06974:  MOVWF  x51
06976:  MOVLB  0
06978:  CALL   118C
0697C:  MOVLB  6
0697E:  DECFSZ x49,F
06980:  BRA    6972
06982:  MOVLW  03
06984:  MOVLB  4
06986:  MOVWF  xF1
06988:  MOVLB  6
0698A:  CLRF   x4A
0698C:  MOVLB  0
0698E:  CALL   2FD6
06992:  MOVLW  01
06994:  MOVLB  4
06996:  MOVWF  xF3
....................          Temporal=Ajuste2; 
06998:  MOVFF  572,57A
0699C:  MOVFF  571,579
069A0:  MOVFF  570,578
069A4:  MOVFF  56F,577
....................          Entero=(int)Ajuste2; 
069A8:  MOVFF  572,67D
069AC:  MOVFF  571,67C
069B0:  MOVFF  570,67B
069B4:  MOVFF  56F,67A
069B8:  MOVLB  0
069BA:  CALL   17A8
069BE:  MOVFF  01,4FD
....................          Temporal=Temporal-Entero; 
069C2:  MOVLB  6
069C4:  CLRF   x7F
069C6:  MOVFF  4FD,67E
069CA:  MOVLB  0
069CC:  CALL   11B4
069D0:  BSF    FD8.1
069D2:  MOVFF  57A,681
069D6:  MOVFF  579,680
069DA:  MOVFF  578,67F
069DE:  MOVFF  577,67E
069E2:  MOVFF  03,685
069E6:  MOVFF  02,684
069EA:  MOVFF  01,683
069EE:  MOVFF  00,682
069F2:  CALL   1348
069F6:  MOVFF  03,57A
069FA:  MOVFF  02,579
069FE:  MOVFF  01,578
06A02:  MOVFF  00,577
....................          Temporal2=Temporal*100.0; 
06A06:  MOVFF  57A,67D
06A0A:  MOVFF  579,67C
06A0E:  MOVFF  578,67B
06A12:  MOVFF  577,67A
06A16:  MOVLB  6
06A18:  CLRF   x81
06A1A:  CLRF   x80
06A1C:  MOVLW  48
06A1E:  MOVWF  x7F
06A20:  MOVLW  85
06A22:  MOVWF  x7E
06A24:  MOVLB  0
06A26:  CALL   17E4
06A2A:  MOVFF  03,57E
06A2E:  MOVFF  02,57D
06A32:  MOVFF  01,57C
06A36:  MOVFF  00,57B
....................          Decimal1=(int8)Temporal2; 
06A3A:  MOVFF  57E,67D
06A3E:  MOVFF  57D,67C
06A42:  MOVFF  57C,67B
06A46:  MOVFF  57B,67A
06A4A:  CALL   17A8
06A4E:  MOVFF  01,4FE
....................          write_eeprom(27,Entero);write_eeprom(28,Decimal1); 
06A52:  CLRF   FAA
06A54:  MOVLW  1B
06A56:  MOVWF  FA9
06A58:  MOVFF  4FD,FA8
06A5C:  BCF    FA6.6
06A5E:  BCF    FA6.7
06A60:  BSF    FA6.2
06A62:  MOVF   FF2,W
06A64:  MOVWF  00
06A66:  BCF    FF2.7
06A68:  MOVLB  F
06A6A:  MOVLW  55
06A6C:  MOVWF  FA7
06A6E:  MOVLW  AA
06A70:  MOVWF  FA7
06A72:  BSF    FA6.1
06A74:  BTFSC  FA6.1
06A76:  BRA    6A74
06A78:  BCF    FA6.2
06A7A:  MOVF   00,W
06A7C:  IORWF  FF2,F
06A7E:  CLRF   FAA
06A80:  MOVLW  1C
06A82:  MOVWF  FA9
06A84:  MOVFF  4FE,FA8
06A88:  BCF    FA6.6
06A8A:  BCF    FA6.7
06A8C:  BSF    FA6.2
06A8E:  MOVF   FF2,W
06A90:  MOVWF  00
06A92:  BCF    FF2.7
06A94:  MOVLW  55
06A96:  MOVWF  FA7
06A98:  MOVLW  AA
06A9A:  MOVWF  FA7
06A9C:  BSF    FA6.1
06A9E:  BTFSC  FA6.1
06AA0:  BRA    6A9E
06AA2:  BCF    FA6.2
06AA4:  MOVF   00,W
06AA6:  IORWF  FF2,F
06AA8:  MOVLB  6
06AAA:  MOVLB  4
....................       } 
....................     } 
.................... //_--------------------------------------------------------------------------------------------------------------------------------------------------------        
....................  
.................... //_-------------------------------------------------------------------------------------------------------------------------------------------------------- 
....................       if(Menu==5){ //Menu de Clave. 
06AAC:  MOVF   xF1,W
06AAE:  SUBLW  05
06AB0:  BTFSS  FD8.2
06AB2:  BRA    6EE2
....................        
....................        
....................       displayContrasena(Contrasena[0],20,30,1);displayContrasena(Contrasena[1],40,30,0); 
06AB4:  MOVFF  533,64B
06AB8:  MOVLW  14
06ABA:  MOVLB  6
06ABC:  MOVWF  x4C
06ABE:  MOVLW  1E
06AC0:  MOVWF  x4D
06AC2:  MOVLW  01
06AC4:  MOVWF  x4E
06AC6:  MOVLB  0
06AC8:  CALL   368E
06ACC:  MOVFF  534,64B
06AD0:  MOVLW  28
06AD2:  MOVLB  6
06AD4:  MOVWF  x4C
06AD6:  MOVLW  1E
06AD8:  MOVWF  x4D
06ADA:  CLRF   x4E
06ADC:  MOVLB  0
06ADE:  CALL   368E
....................       displayContrasena(Contrasena[2],60,30,0);displayContrasena(Contrasena[0],80,30,0); 
06AE2:  MOVFF  535,64B
06AE6:  MOVLW  3C
06AE8:  MOVLB  6
06AEA:  MOVWF  x4C
06AEC:  MOVLW  1E
06AEE:  MOVWF  x4D
06AF0:  CLRF   x4E
06AF2:  MOVLB  0
06AF4:  CALL   368E
06AF8:  MOVFF  533,64B
06AFC:  MOVLW  50
06AFE:  MOVLB  6
06B00:  MOVWF  x4C
06B02:  MOVLW  1E
06B04:  MOVWF  x4D
06B06:  CLRF   x4E
06B08:  MOVLB  0
06B0A:  CALL   368E
....................       strcpy(Menus.Letra,"Clave"); 
06B0E:  MOVLW  04
06B10:  MOVWF  FEA
06B12:  MOVLW  17
06B14:  MOVWF  FE9
06B16:  MOVFF  FF2,649
06B1A:  BCF    FF2.7
06B1C:  MOVLW  00
06B1E:  CALL   0F0A
06B22:  TBLRD*-
06B24:  TBLRD*+
06B26:  MOVF   FF5,W
06B28:  MOVWF  FEE
06B2A:  IORLW  00
06B2C:  BNZ   6B24
06B2E:  MOVLB  6
06B30:  BTFSC  x49.7
06B32:  BSF    FF2.7
....................       displayMenu(Menus.Letra,20,0,1,3); 
06B34:  MOVLW  04
06B36:  MOVWF  x4A
06B38:  MOVLW  17
06B3A:  MOVWF  x49
06B3C:  MOVLW  14
06B3E:  MOVWF  x4B
06B40:  CLRF   x4C
06B42:  MOVLW  01
06B44:  MOVWF  x4D
06B46:  MOVLW  03
06B48:  MOVWF  x4E
06B4A:  MOVLB  0
06B4C:  CALL   3746
....................          
....................       if(UP || BYTE_IR[2]==0X18)//Si oprime hacia arriba 
06B50:  BSF    F96.1
06B52:  BTFSC  F84.1
06B54:  BRA    6B5E
06B56:  MOVLB  6
06B58:  MOVF   x47,W
06B5A:  SUBLW  18
06B5C:  BNZ   6C38
....................       {  if(Flanco == 0)  
06B5E:  MOVLB  4
06B60:  BTFSC  x30.0
06B62:  BRA    6C36
....................             {Flanco = 1;delay_ms(30);BYTE_IR[2]=0X00; 
06B64:  BSF    x30.0
06B66:  MOVLW  1E
06B68:  MOVLB  6
06B6A:  MOVWF  x51
06B6C:  MOVLB  0
06B6E:  CALL   118C
06B72:  MOVLB  6
06B74:  CLRF   x47
....................             for(i=1;i<=4;i++) 
06B76:  MOVLW  01
06B78:  MOVLB  4
06B7A:  MOVWF  x2F
06B7C:  MOVF   x2F,W
06B7E:  SUBLW  04
06B80:  BNC   6C36
....................                { 
....................                   if(unidad==i) 
06B82:  MOVF   x2F,W
06B84:  SUBWF  xF2,W
06B86:  BNZ   6BFE
....................                   {Contrasena[i-1]++; 
06B88:  MOVLW  01
06B8A:  SUBWF  x2F,W
06B8C:  CLRF   03
06B8E:  ADDLW  33
06B90:  MOVWF  FE9
06B92:  MOVLW  05
06B94:  ADDWFC 03,W
06B96:  MOVWF  FEA
06B98:  INCF   FEF,F
....................                   if(Contrasena[i-1]>9) 
06B9A:  MOVLW  01
06B9C:  SUBWF  x2F,W
06B9E:  CLRF   03
06BA0:  ADDLW  33
06BA2:  MOVWF  FE9
06BA4:  MOVLW  05
06BA6:  ADDWFC 03,W
06BA8:  MOVWF  FEA
06BAA:  BTFSC  FEF.7
06BAC:  BRA    6BC6
06BAE:  MOVF   FEF,W
06BB0:  SUBLW  09
06BB2:  BC    6BC6
....................                         {Contrasena[i-1]=0;} 
06BB4:  MOVLW  01
06BB6:  SUBWF  x2F,W
06BB8:  CLRF   03
06BBA:  ADDLW  33
06BBC:  MOVWF  FE9
06BBE:  MOVLW  05
06BC0:  ADDWFC 03,W
06BC2:  MOVWF  FEA
06BC4:  CLRF   FEF
....................                   displayContrasena(Contrasena[i-1],i*20,30,1);} 
06BC6:  MOVLW  01
06BC8:  SUBWF  x2F,W
06BCA:  CLRF   03
06BCC:  ADDLW  33
06BCE:  MOVWF  FE9
06BD0:  MOVLW  05
06BD2:  ADDWFC 03,W
06BD4:  MOVWF  FEA
06BD6:  MOVFF  FEF,649
06BDA:  MOVF   x2F,W
06BDC:  MULLW  14
06BDE:  MOVFF  FF3,64A
06BE2:  MOVLB  6
06BE4:  MOVFF  649,64B
06BE8:  MOVFF  64A,64C
06BEC:  MOVLW  1E
06BEE:  MOVWF  x4D
06BF0:  MOVLW  01
06BF2:  MOVWF  x4E
06BF4:  MOVLB  0
06BF6:  CALL   368E
....................                   else 
06BFA:  BRA    6C30
06BFC:  MOVLB  4
....................                   {displayContrasena(Contrasena[i-1],i*20,30,0);} 
06BFE:  MOVLW  01
06C00:  SUBWF  x2F,W
06C02:  CLRF   03
06C04:  ADDLW  33
06C06:  MOVWF  FE9
06C08:  MOVLW  05
06C0A:  ADDWFC 03,W
06C0C:  MOVWF  FEA
06C0E:  MOVFF  FEF,649
06C12:  MOVF   x2F,W
06C14:  MULLW  14
06C16:  MOVFF  FF3,64A
06C1A:  MOVLB  6
06C1C:  MOVFF  649,64B
06C20:  MOVFF  64A,64C
06C24:  MOVLW  1E
06C26:  MOVWF  x4D
06C28:  CLRF   x4E
06C2A:  MOVLB  0
06C2C:  CALL   368E
....................                } 
06C30:  MOVLB  4
06C32:  INCF   x2F,F
06C34:  BRA    6B7C
....................             } 
....................       } 
....................          else 
06C36:  BRA    6C3C
....................             {Flanco = 0;} 
06C38:  MOVLB  4
06C3A:  BCF    x30.0
....................              
....................       if(DOWN  || BYTE_IR[2]==0X52)//Si oprime hacia abajo 
06C3C:  BSF    F96.2
06C3E:  BTFSC  F84.2
06C40:  BRA    6C4C
06C42:  MOVLB  6
06C44:  MOVF   x47,W
06C46:  SUBLW  52
06C48:  BNZ   6D22
06C4A:  MOVLB  4
....................       {  if(Flanco2 == 0)  
06C4C:  BTFSC  x30.2
06C4E:  BRA    6D20
....................             {Flanco2 = 1;delay_ms(30);BYTE_IR[2]=0X00; 
06C50:  BSF    x30.2
06C52:  MOVLW  1E
06C54:  MOVLB  6
06C56:  MOVWF  x51
06C58:  MOVLB  0
06C5A:  CALL   118C
06C5E:  MOVLB  6
06C60:  CLRF   x47
....................                for(i=1;i<=4;i++) 
06C62:  MOVLW  01
06C64:  MOVLB  4
06C66:  MOVWF  x2F
06C68:  MOVF   x2F,W
06C6A:  SUBLW  04
06C6C:  BNC   6D20
....................                { 
....................                   if(unidad==i) 
06C6E:  MOVF   x2F,W
06C70:  SUBWF  xF2,W
06C72:  BNZ   6CE8
....................                   {Contrasena[i-1]--;  
06C74:  MOVLW  01
06C76:  SUBWF  x2F,W
06C78:  CLRF   03
06C7A:  ADDLW  33
06C7C:  MOVWF  FE9
06C7E:  MOVLW  05
06C80:  ADDWFC 03,W
06C82:  MOVWF  FEA
06C84:  DECF   FEF,F
....................                      if(Contrasena[i-1]<0) 
06C86:  MOVLW  01
06C88:  SUBWF  x2F,W
06C8A:  CLRF   03
06C8C:  ADDLW  33
06C8E:  MOVWF  FE9
06C90:  MOVLW  05
06C92:  ADDWFC 03,W
06C94:  MOVWF  FEA
06C96:  BTFSC  FEF.7
06C98:  BRA    6C9C
06C9A:  BRA    6CB0
....................                         {Contrasena[i-1]=9;} 
06C9C:  MOVLW  01
06C9E:  SUBWF  x2F,W
06CA0:  CLRF   03
06CA2:  ADDLW  33
06CA4:  MOVWF  FE9
06CA6:  MOVLW  05
06CA8:  ADDWFC 03,W
06CAA:  MOVWF  FEA
06CAC:  MOVLW  09
06CAE:  MOVWF  FEF
....................                    displayContrasena(Contrasena[i-1],i*20,30,1);} 
06CB0:  MOVLW  01
06CB2:  SUBWF  x2F,W
06CB4:  CLRF   03
06CB6:  ADDLW  33
06CB8:  MOVWF  FE9
06CBA:  MOVLW  05
06CBC:  ADDWFC 03,W
06CBE:  MOVWF  FEA
06CC0:  MOVFF  FEF,649
06CC4:  MOVF   x2F,W
06CC6:  MULLW  14
06CC8:  MOVFF  FF3,64A
06CCC:  MOVLB  6
06CCE:  MOVFF  649,64B
06CD2:  MOVFF  64A,64C
06CD6:  MOVLW  1E
06CD8:  MOVWF  x4D
06CDA:  MOVLW  01
06CDC:  MOVWF  x4E
06CDE:  MOVLB  0
06CE0:  CALL   368E
....................                   else 
06CE4:  BRA    6D1A
06CE6:  MOVLB  4
....................                   {displayContrasena(Contrasena[i-1],i*20,30,0);} 
06CE8:  MOVLW  01
06CEA:  SUBWF  x2F,W
06CEC:  CLRF   03
06CEE:  ADDLW  33
06CF0:  MOVWF  FE9
06CF2:  MOVLW  05
06CF4:  ADDWFC 03,W
06CF6:  MOVWF  FEA
06CF8:  MOVFF  FEF,649
06CFC:  MOVF   x2F,W
06CFE:  MULLW  14
06D00:  MOVFF  FF3,64A
06D04:  MOVLB  6
06D06:  MOVFF  649,64B
06D0A:  MOVFF  64A,64C
06D0E:  MOVLW  1E
06D10:  MOVWF  x4D
06D12:  CLRF   x4E
06D14:  MOVLB  0
06D16:  CALL   368E
....................                }       
06D1A:  MOVLB  4
06D1C:  INCF   x2F,F
06D1E:  BRA    6C68
....................             }      
....................       } 
....................          else 
06D20:  BRA    6D26
....................             {Flanco2 = 0;}   
06D22:  MOVLB  4
06D24:  BCF    x30.2
....................              
....................       if(RIGHT || BYTE_IR[2]==0X5A)//Si oprime SET 
06D26:  BSF    F94.0
06D28:  BTFSC  F82.0
06D2A:  BRA    6D36
06D2C:  MOVLB  6
06D2E:  MOVF   x47,W
06D30:  SUBLW  5A
06D32:  BNZ   6DD4
06D34:  MOVLB  4
....................       {  if(Flanco1 == 0)  
06D36:  BTFSC  x30.1
06D38:  BRA    6DD2
....................             {Flanco1 = 1;delay_ms(30);unidad++;BYTE_IR[2]=0X00; 
06D3A:  BSF    x30.1
06D3C:  MOVLW  1E
06D3E:  MOVLB  6
06D40:  MOVWF  x51
06D42:  MOVLB  0
06D44:  CALL   118C
06D48:  MOVLB  4
06D4A:  INCF   xF2,F
06D4C:  MOVLB  6
06D4E:  CLRF   x47
....................                for(i=1;i<=4;i++) 
06D50:  MOVLW  01
06D52:  MOVLB  4
06D54:  MOVWF  x2F
06D56:  MOVF   x2F,W
06D58:  SUBLW  04
06D5A:  BNC   6DD2
....................                { 
....................                   if(unidad==i) 
06D5C:  MOVF   x2F,W
06D5E:  SUBWF  xF2,W
06D60:  BNZ   6D9A
....................                   {displayContrasena(Contrasena[i-1],i*20,30,1);} 
06D62:  MOVLW  01
06D64:  SUBWF  x2F,W
06D66:  CLRF   03
06D68:  ADDLW  33
06D6A:  MOVWF  FE9
06D6C:  MOVLW  05
06D6E:  ADDWFC 03,W
06D70:  MOVWF  FEA
06D72:  MOVFF  FEF,649
06D76:  MOVF   x2F,W
06D78:  MULLW  14
06D7A:  MOVFF  FF3,64A
06D7E:  MOVLB  6
06D80:  MOVFF  649,64B
06D84:  MOVFF  64A,64C
06D88:  MOVLW  1E
06D8A:  MOVWF  x4D
06D8C:  MOVLW  01
06D8E:  MOVWF  x4E
06D90:  MOVLB  0
06D92:  CALL   368E
....................                   else 
06D96:  BRA    6DCC
06D98:  MOVLB  4
....................                   {displayContrasena(Contrasena[i-1],i*20,30,0);} 
06D9A:  MOVLW  01
06D9C:  SUBWF  x2F,W
06D9E:  CLRF   03
06DA0:  ADDLW  33
06DA2:  MOVWF  FE9
06DA4:  MOVLW  05
06DA6:  ADDWFC 03,W
06DA8:  MOVWF  FEA
06DAA:  MOVFF  FEF,649
06DAE:  MOVF   x2F,W
06DB0:  MULLW  14
06DB2:  MOVFF  FF3,64A
06DB6:  MOVLB  6
06DB8:  MOVFF  649,64B
06DBC:  MOVFF  64A,64C
06DC0:  MOVLW  1E
06DC2:  MOVWF  x4D
06DC4:  CLRF   x4E
06DC6:  MOVLB  0
06DC8:  CALL   368E
....................                } 
06DCC:  MOVLB  4
06DCE:  INCF   x2F,F
06DD0:  BRA    6D56
....................             } 
....................       } 
....................          else 
06DD2:  BRA    6DD8
....................             {Flanco1 = 0;}   
06DD4:  MOVLB  4
06DD6:  BCF    x30.1
....................              
....................       if(LEFT || BYTE_IR[2]==0X08)//Si oprime boton de Toma. 
06DD8:  BSF    F94.1
06DDA:  BTFSC  F82.1
06DDC:  BRA    6DE8
06DDE:  MOVLB  6
06DE0:  MOVF   x47,W
06DE2:  SUBLW  08
06DE4:  BNZ   6E26
06DE6:  MOVLB  4
....................       { 
....................          BYTE_IR[2]=0X00; 
06DE8:  MOVLB  6
06DEA:  CLRF   x47
....................          delay_ms(700); 
06DEC:  MOVLW  04
06DEE:  MOVWF  x49
06DF0:  MOVLW  AF
06DF2:  MOVWF  x51
06DF4:  MOVLB  0
06DF6:  CALL   118C
06DFA:  MOVLB  6
06DFC:  DECFSZ x49,F
06DFE:  BRA    6DF0
....................          if(unidad==1) 
06E00:  MOVLB  4
06E02:  DECFSZ xF2,W
06E04:  BRA    6E18
....................          { 
....................             Menu=3;glcd_fillscreen(OFF); 
06E06:  MOVLW  03
06E08:  MOVWF  xF1
06E0A:  MOVLB  6
06E0C:  CLRF   x4A
06E0E:  MOVLB  0
06E10:  CALL   2FD6
....................          } 
....................          else 
06E14:  BRA    6E26
06E16:  MOVLB  4
....................          { 
....................             Menu=3;glcd_fillscreen(OFF); 
06E18:  MOVLW  03
06E1A:  MOVWF  xF1
06E1C:  MOVLB  6
06E1E:  CLRF   x4A
06E20:  MOVLB  0
06E22:  CALL   2FD6
....................          } 
....................       } 
....................              
....................       if(unidad>4) 
06E26:  MOVLB  4
06E28:  MOVF   xF2,W
06E2A:  SUBLW  04
06E2C:  BC    6EE2
....................       {Opcion=1;glcd_fillscreen(OFF);unidad=1;n=0; 
06E2E:  MOVLW  01
06E30:  MOVWF  xF3
06E32:  MOVLB  6
06E34:  CLRF   x4A
06E36:  MOVLB  0
06E38:  CALL   2FD6
06E3C:  MOVLW  01
06E3E:  MOVLB  4
06E40:  MOVWF  xF2
06E42:  BCF    x32.7
....................          if((Contrasena[0]==Password[0])&&(Contrasena[1]==Password[1])&&(Contrasena[2]==Password[2])&&(Contrasena[3]==Password[3])) 
06E44:  MOVLB  5
06E46:  MOVF   x37,W
06E48:  SUBWF  x33,W
06E4A:  BNZ   6E9E
06E4C:  MOVF   x38,W
06E4E:  SUBWF  x34,W
06E50:  BNZ   6E9E
06E52:  MOVF   x39,W
06E54:  SUBWF  x35,W
06E56:  BNZ   6E9E
06E58:  MOVF   x3A,W
06E5A:  SUBWF  x36,W
06E5C:  BNZ   6E9E
....................          {glcd_imagen(1);glcd_update();Menu=211;delay_ms(1000);glcd_fillScreen(OFF);Password[0]=0;Password[1]=0;Password[2]=0;Password[3]=0;} 
06E5E:  MOVLW  01
06E60:  MOVLB  6
06E62:  MOVWF  x49
06E64:  MOVLB  0
06E66:  CALL   3904
06E6A:  CALL   16B4
06E6E:  MOVLW  D3
06E70:  MOVLB  4
06E72:  MOVWF  xF1
06E74:  MOVLW  04
06E76:  MOVLB  6
06E78:  MOVWF  x49
06E7A:  MOVLW  FA
06E7C:  MOVWF  x51
06E7E:  MOVLB  0
06E80:  CALL   118C
06E84:  MOVLB  6
06E86:  DECFSZ x49,F
06E88:  BRA    6E7A
06E8A:  CLRF   x4A
06E8C:  MOVLB  0
06E8E:  CALL   2FD6
06E92:  MOVLB  5
06E94:  CLRF   x37
06E96:  CLRF   x38
06E98:  CLRF   x39
06E9A:  CLRF   x3A
....................          else 
06E9C:  BRA    6EE0
....................          {glcd_imagen(2);glcd_update();Menu=3;delay_ms(1000);Contrasena[0]=0;Contrasena[1]=0;Contrasena[2]=0;Contrasena[3]=0;glcd_fillScreen(OFF);}   
06E9E:  MOVLW  02
06EA0:  MOVLB  6
06EA2:  MOVWF  x49
06EA4:  MOVLB  0
06EA6:  CALL   3904
06EAA:  CALL   16B4
06EAE:  MOVLW  03
06EB0:  MOVLB  4
06EB2:  MOVWF  xF1
06EB4:  MOVLW  04
06EB6:  MOVLB  6
06EB8:  MOVWF  x49
06EBA:  MOVLW  FA
06EBC:  MOVWF  x51
06EBE:  MOVLB  0
06EC0:  CALL   118C
06EC4:  MOVLB  6
06EC6:  DECFSZ x49,F
06EC8:  BRA    6EBA
06ECA:  MOVLB  5
06ECC:  CLRF   x33
06ECE:  CLRF   x34
06ED0:  CLRF   x35
06ED2:  CLRF   x36
06ED4:  MOVLB  6
06ED6:  CLRF   x4A
06ED8:  MOVLB  0
06EDA:  CALL   2FD6
06EDE:  MOVLB  5
06EE0:  MOVLB  4
....................       } 
....................      
....................     } 
.................... //_--------------------------------------------------------------------------------------------------------------------------------------------------------        
....................  
.................... //_-------------------------------------------------------------------------------------------------------------------------------------------------------- 
....................       if(Menu==211){ //Menu de Cambio Clave. 
06EE2:  MOVF   xF1,W
06EE4:  SUBLW  D3
06EE6:  BTFSS  FD8.2
06EE8:  BRA    7316
....................        
....................       if(n==0) 
06EEA:  BTFSC  x32.7
06EEC:  BRA    6F4C
....................       {displayContrasena(Password[0],20,30,1);displayContrasena(Password[1],40,30,0); 
06EEE:  MOVFF  537,64B
06EF2:  MOVLW  14
06EF4:  MOVLB  6
06EF6:  MOVWF  x4C
06EF8:  MOVLW  1E
06EFA:  MOVWF  x4D
06EFC:  MOVLW  01
06EFE:  MOVWF  x4E
06F00:  MOVLB  0
06F02:  CALL   368E
06F06:  MOVFF  538,64B
06F0A:  MOVLW  28
06F0C:  MOVLB  6
06F0E:  MOVWF  x4C
06F10:  MOVLW  1E
06F12:  MOVWF  x4D
06F14:  CLRF   x4E
06F16:  MOVLB  0
06F18:  CALL   368E
....................       displayContrasena(Password[2],60,30,0);displayContrasena(Password[3],80,30,0);n++;} 
06F1C:  MOVFF  539,64B
06F20:  MOVLW  3C
06F22:  MOVLB  6
06F24:  MOVWF  x4C
06F26:  MOVLW  1E
06F28:  MOVWF  x4D
06F2A:  CLRF   x4E
06F2C:  MOVLB  0
06F2E:  CALL   368E
06F32:  MOVFF  53A,64B
06F36:  MOVLW  50
06F38:  MOVLB  6
06F3A:  MOVWF  x4C
06F3C:  MOVLW  1E
06F3E:  MOVWF  x4D
06F40:  CLRF   x4E
06F42:  MOVLB  0
06F44:  CALL   368E
06F48:  MOVLB  4
06F4A:  BTG    x32.7
....................       strcpy(Menus.Letra,"Clave Nueva"); 
06F4C:  MOVLW  04
06F4E:  MOVWF  FEA
06F50:  MOVLW  17
06F52:  MOVWF  FE9
06F54:  MOVFF  FF2,649
06F58:  BCF    FF2.7
06F5A:  MOVLW  00
06F5C:  MOVLB  0
06F5E:  CALL   107A
06F62:  TBLRD*-
06F64:  TBLRD*+
06F66:  MOVF   FF5,W
06F68:  MOVWF  FEE
06F6A:  IORLW  00
06F6C:  BNZ   6F64
06F6E:  MOVLB  6
06F70:  BTFSC  x49.7
06F72:  BSF    FF2.7
....................       displayMenu(Menus.Letra,0,0,1,2); 
06F74:  MOVLW  04
06F76:  MOVWF  x4A
06F78:  MOVLW  17
06F7A:  MOVWF  x49
06F7C:  CLRF   x4B
06F7E:  CLRF   x4C
06F80:  MOVLW  01
06F82:  MOVWF  x4D
06F84:  MOVLW  02
06F86:  MOVWF  x4E
06F88:  MOVLB  0
06F8A:  CALL   3746
....................          
....................       if(UP || BYTE_IR[2]==0X18)//Si oprime hacia arriba 
06F8E:  BSF    F96.1
06F90:  BTFSC  F84.1
06F92:  BRA    6F9C
06F94:  MOVLB  6
06F96:  MOVF   x47,W
06F98:  SUBLW  18
06F9A:  BNZ   7076
....................       {  if(Flanco == 0)  
06F9C:  MOVLB  4
06F9E:  BTFSC  x30.0
06FA0:  BRA    7074
....................             {Flanco = 1;delay_ms(30);BYTE_IR[2]=0X00; 
06FA2:  BSF    x30.0
06FA4:  MOVLW  1E
06FA6:  MOVLB  6
06FA8:  MOVWF  x51
06FAA:  MOVLB  0
06FAC:  CALL   118C
06FB0:  MOVLB  6
06FB2:  CLRF   x47
....................             for(i=1;i<=4;i++) 
06FB4:  MOVLW  01
06FB6:  MOVLB  4
06FB8:  MOVWF  x2F
06FBA:  MOVF   x2F,W
06FBC:  SUBLW  04
06FBE:  BNC   7074
....................                { 
....................                   if(unidad==i) 
06FC0:  MOVF   x2F,W
06FC2:  SUBWF  xF2,W
06FC4:  BNZ   703C
....................                   {Password[i-1]++; 
06FC6:  MOVLW  01
06FC8:  SUBWF  x2F,W
06FCA:  CLRF   03
06FCC:  ADDLW  37
06FCE:  MOVWF  FE9
06FD0:  MOVLW  05
06FD2:  ADDWFC 03,W
06FD4:  MOVWF  FEA
06FD6:  INCF   FEF,F
....................                   if(Password[i-1]>9) 
06FD8:  MOVLW  01
06FDA:  SUBWF  x2F,W
06FDC:  CLRF   03
06FDE:  ADDLW  37
06FE0:  MOVWF  FE9
06FE2:  MOVLW  05
06FE4:  ADDWFC 03,W
06FE6:  MOVWF  FEA
06FE8:  BTFSC  FEF.7
06FEA:  BRA    7004
06FEC:  MOVF   FEF,W
06FEE:  SUBLW  09
06FF0:  BC    7004
....................                         {Password[i-1]=0;} 
06FF2:  MOVLW  01
06FF4:  SUBWF  x2F,W
06FF6:  CLRF   03
06FF8:  ADDLW  37
06FFA:  MOVWF  FE9
06FFC:  MOVLW  05
06FFE:  ADDWFC 03,W
07000:  MOVWF  FEA
07002:  CLRF   FEF
....................                   displayContrasena(Password[i-1],i*20,30,1);} 
07004:  MOVLW  01
07006:  SUBWF  x2F,W
07008:  CLRF   03
0700A:  ADDLW  37
0700C:  MOVWF  FE9
0700E:  MOVLW  05
07010:  ADDWFC 03,W
07012:  MOVWF  FEA
07014:  MOVFF  FEF,649
07018:  MOVF   x2F,W
0701A:  MULLW  14
0701C:  MOVFF  FF3,64A
07020:  MOVLB  6
07022:  MOVFF  649,64B
07026:  MOVFF  64A,64C
0702A:  MOVLW  1E
0702C:  MOVWF  x4D
0702E:  MOVLW  01
07030:  MOVWF  x4E
07032:  MOVLB  0
07034:  CALL   368E
....................                   else 
07038:  BRA    706E
0703A:  MOVLB  4
....................                   {displayContrasena(Password[i-1],i*20,30,0);} 
0703C:  MOVLW  01
0703E:  SUBWF  x2F,W
07040:  CLRF   03
07042:  ADDLW  37
07044:  MOVWF  FE9
07046:  MOVLW  05
07048:  ADDWFC 03,W
0704A:  MOVWF  FEA
0704C:  MOVFF  FEF,649
07050:  MOVF   x2F,W
07052:  MULLW  14
07054:  MOVFF  FF3,64A
07058:  MOVLB  6
0705A:  MOVFF  649,64B
0705E:  MOVFF  64A,64C
07062:  MOVLW  1E
07064:  MOVWF  x4D
07066:  CLRF   x4E
07068:  MOVLB  0
0706A:  CALL   368E
....................                } 
0706E:  MOVLB  4
07070:  INCF   x2F,F
07072:  BRA    6FBA
....................             } 
....................       } 
....................          else 
07074:  BRA    707A
....................             {Flanco = 0;} 
07076:  MOVLB  4
07078:  BCF    x30.0
....................              
....................       if(DOWN  || BYTE_IR[2]==0X52)//Si oprime hacia abajo 
0707A:  BSF    F96.2
0707C:  BTFSC  F84.2
0707E:  BRA    708A
07080:  MOVLB  6
07082:  MOVF   x47,W
07084:  SUBLW  52
07086:  BNZ   7160
07088:  MOVLB  4
....................       {  if(Flanco2 == 0)  
0708A:  BTFSC  x30.2
0708C:  BRA    715E
....................             {Flanco2 = 1;delay_ms(30);BYTE_IR[2]=0X00; 
0708E:  BSF    x30.2
07090:  MOVLW  1E
07092:  MOVLB  6
07094:  MOVWF  x51
07096:  MOVLB  0
07098:  CALL   118C
0709C:  MOVLB  6
0709E:  CLRF   x47
....................                for(i=1;i<=4;i++) 
070A0:  MOVLW  01
070A2:  MOVLB  4
070A4:  MOVWF  x2F
070A6:  MOVF   x2F,W
070A8:  SUBLW  04
070AA:  BNC   715E
....................                { 
....................                   if(unidad==i) 
070AC:  MOVF   x2F,W
070AE:  SUBWF  xF2,W
070B0:  BNZ   7126
....................                   {Password[i-1]--;  
070B2:  MOVLW  01
070B4:  SUBWF  x2F,W
070B6:  CLRF   03
070B8:  ADDLW  37
070BA:  MOVWF  FE9
070BC:  MOVLW  05
070BE:  ADDWFC 03,W
070C0:  MOVWF  FEA
070C2:  DECF   FEF,F
....................                      if(Password[i-1]<0) 
070C4:  MOVLW  01
070C6:  SUBWF  x2F,W
070C8:  CLRF   03
070CA:  ADDLW  37
070CC:  MOVWF  FE9
070CE:  MOVLW  05
070D0:  ADDWFC 03,W
070D2:  MOVWF  FEA
070D4:  BTFSC  FEF.7
070D6:  BRA    70DA
070D8:  BRA    70EE
....................                         {Password[i-1]=9;} 
070DA:  MOVLW  01
070DC:  SUBWF  x2F,W
070DE:  CLRF   03
070E0:  ADDLW  37
070E2:  MOVWF  FE9
070E4:  MOVLW  05
070E6:  ADDWFC 03,W
070E8:  MOVWF  FEA
070EA:  MOVLW  09
070EC:  MOVWF  FEF
....................                    displayContrasena(Password[i-1],i*20,30,1);} 
070EE:  MOVLW  01
070F0:  SUBWF  x2F,W
070F2:  CLRF   03
070F4:  ADDLW  37
070F6:  MOVWF  FE9
070F8:  MOVLW  05
070FA:  ADDWFC 03,W
070FC:  MOVWF  FEA
070FE:  MOVFF  FEF,649
07102:  MOVF   x2F,W
07104:  MULLW  14
07106:  MOVFF  FF3,64A
0710A:  MOVLB  6
0710C:  MOVFF  649,64B
07110:  MOVFF  64A,64C
07114:  MOVLW  1E
07116:  MOVWF  x4D
07118:  MOVLW  01
0711A:  MOVWF  x4E
0711C:  MOVLB  0
0711E:  CALL   368E
....................                   else 
07122:  BRA    7158
07124:  MOVLB  4
....................                   {displayContrasena(Password[i-1],i*20,30,0);} 
07126:  MOVLW  01
07128:  SUBWF  x2F,W
0712A:  CLRF   03
0712C:  ADDLW  37
0712E:  MOVWF  FE9
07130:  MOVLW  05
07132:  ADDWFC 03,W
07134:  MOVWF  FEA
07136:  MOVFF  FEF,649
0713A:  MOVF   x2F,W
0713C:  MULLW  14
0713E:  MOVFF  FF3,64A
07142:  MOVLB  6
07144:  MOVFF  649,64B
07148:  MOVFF  64A,64C
0714C:  MOVLW  1E
0714E:  MOVWF  x4D
07150:  CLRF   x4E
07152:  MOVLB  0
07154:  CALL   368E
....................                }       
07158:  MOVLB  4
0715A:  INCF   x2F,F
0715C:  BRA    70A6
....................             }      
....................       } 
....................          else 
0715E:  BRA    7164
....................             {Flanco2 = 0;}   
07160:  MOVLB  4
07162:  BCF    x30.2
....................              
....................       if(RIGHT || BYTE_IR[2]==0X5A)//Si oprime SET 
07164:  BSF    F94.0
07166:  BTFSC  F82.0
07168:  BRA    7174
0716A:  MOVLB  6
0716C:  MOVF   x47,W
0716E:  SUBLW  5A
07170:  BNZ   7212
07172:  MOVLB  4
....................       {  if(Flanco1 == 0)  
07174:  BTFSC  x30.1
07176:  BRA    7210
....................             {Flanco1 = 1;delay_ms(30);unidad++;BYTE_IR[2]=0X00; 
07178:  BSF    x30.1
0717A:  MOVLW  1E
0717C:  MOVLB  6
0717E:  MOVWF  x51
07180:  MOVLB  0
07182:  CALL   118C
07186:  MOVLB  4
07188:  INCF   xF2,F
0718A:  MOVLB  6
0718C:  CLRF   x47
....................                for(i=1;i<=4;i++) 
0718E:  MOVLW  01
07190:  MOVLB  4
07192:  MOVWF  x2F
07194:  MOVF   x2F,W
07196:  SUBLW  04
07198:  BNC   7210
....................                { 
....................                   if(unidad==i) 
0719A:  MOVF   x2F,W
0719C:  SUBWF  xF2,W
0719E:  BNZ   71D8
....................                   {displayContrasena(Password[i-1],i*20,30,1);} 
071A0:  MOVLW  01
071A2:  SUBWF  x2F,W
071A4:  CLRF   03
071A6:  ADDLW  37
071A8:  MOVWF  FE9
071AA:  MOVLW  05
071AC:  ADDWFC 03,W
071AE:  MOVWF  FEA
071B0:  MOVFF  FEF,649
071B4:  MOVF   x2F,W
071B6:  MULLW  14
071B8:  MOVFF  FF3,64A
071BC:  MOVLB  6
071BE:  MOVFF  649,64B
071C2:  MOVFF  64A,64C
071C6:  MOVLW  1E
071C8:  MOVWF  x4D
071CA:  MOVLW  01
071CC:  MOVWF  x4E
071CE:  MOVLB  0
071D0:  CALL   368E
....................                   else 
071D4:  BRA    720A
071D6:  MOVLB  4
....................                   {displayContrasena(Password[i-1],i*20,30,0);} 
071D8:  MOVLW  01
071DA:  SUBWF  x2F,W
071DC:  CLRF   03
071DE:  ADDLW  37
071E0:  MOVWF  FE9
071E2:  MOVLW  05
071E4:  ADDWFC 03,W
071E6:  MOVWF  FEA
071E8:  MOVFF  FEF,649
071EC:  MOVF   x2F,W
071EE:  MULLW  14
071F0:  MOVFF  FF3,64A
071F4:  MOVLB  6
071F6:  MOVFF  649,64B
071FA:  MOVFF  64A,64C
071FE:  MOVLW  1E
07200:  MOVWF  x4D
07202:  CLRF   x4E
07204:  MOVLB  0
07206:  CALL   368E
....................                } 
0720A:  MOVLB  4
0720C:  INCF   x2F,F
0720E:  BRA    7194
....................             } 
....................       } 
....................          else 
07210:  BRA    7216
....................             {Flanco1 = 0;}   
07212:  MOVLB  4
07214:  BCF    x30.1
....................       if(unidad>4) 
07216:  MOVF   xF2,W
07218:  SUBLW  04
0721A:  BTFSC  FD8.0
0721C:  BRA    7316
....................       {Opcion=1;glcd_fillscreen(OFF);unidad=1;n=0; 
0721E:  MOVLW  01
07220:  MOVWF  xF3
07222:  MOVLB  6
07224:  CLRF   x4A
07226:  MOVLB  0
07228:  CALL   2FD6
0722C:  MOVLW  01
0722E:  MOVLB  4
07230:  MOVWF  xF2
07232:  BCF    x32.7
....................       write_eeprom(0,Password[0]);write_eeprom(1,Password[1]);write_eeprom(2,Password[2]);write_eeprom(3,Password[3]); 
07234:  CLRF   FAA
07236:  CLRF   FA9
07238:  MOVFF  537,FA8
0723C:  BCF    FA6.6
0723E:  BCF    FA6.7
07240:  BSF    FA6.2
07242:  MOVF   FF2,W
07244:  MOVWF  00
07246:  BCF    FF2.7
07248:  MOVLB  F
0724A:  MOVLW  55
0724C:  MOVWF  FA7
0724E:  MOVLW  AA
07250:  MOVWF  FA7
07252:  BSF    FA6.1
07254:  BTFSC  FA6.1
07256:  BRA    7254
07258:  BCF    FA6.2
0725A:  MOVF   00,W
0725C:  IORWF  FF2,F
0725E:  CLRF   FAA
07260:  MOVLW  01
07262:  MOVWF  FA9
07264:  MOVFF  538,FA8
07268:  BCF    FA6.6
0726A:  BCF    FA6.7
0726C:  BSF    FA6.2
0726E:  MOVF   FF2,W
07270:  MOVWF  00
07272:  BCF    FF2.7
07274:  MOVLW  55
07276:  MOVWF  FA7
07278:  MOVLW  AA
0727A:  MOVWF  FA7
0727C:  BSF    FA6.1
0727E:  BTFSC  FA6.1
07280:  BRA    727E
07282:  BCF    FA6.2
07284:  MOVF   00,W
07286:  IORWF  FF2,F
07288:  CLRF   FAA
0728A:  MOVLW  02
0728C:  MOVWF  FA9
0728E:  MOVFF  539,FA8
07292:  BCF    FA6.6
07294:  BCF    FA6.7
07296:  BSF    FA6.2
07298:  MOVF   FF2,W
0729A:  MOVWF  00
0729C:  BCF    FF2.7
0729E:  MOVLW  55
072A0:  MOVWF  FA7
072A2:  MOVLW  AA
072A4:  MOVWF  FA7
072A6:  BSF    FA6.1
072A8:  BTFSC  FA6.1
072AA:  BRA    72A8
072AC:  BCF    FA6.2
072AE:  MOVF   00,W
072B0:  IORWF  FF2,F
072B2:  CLRF   FAA
072B4:  MOVLW  03
072B6:  MOVWF  FA9
072B8:  MOVFF  53A,FA8
072BC:  BCF    FA6.6
072BE:  BCF    FA6.7
072C0:  BSF    FA6.2
072C2:  MOVF   FF2,W
072C4:  MOVWF  00
072C6:  BCF    FF2.7
072C8:  MOVLW  55
072CA:  MOVWF  FA7
072CC:  MOVLW  AA
072CE:  MOVWF  FA7
072D0:  BSF    FA6.1
072D2:  BTFSC  FA6.1
072D4:  BRA    72D2
072D6:  BCF    FA6.2
072D8:  MOVF   00,W
072DA:  IORWF  FF2,F
....................        glcd_imagen(1);glcd_update();Menu=211;delay_ms(1000);glcd_fillScreen(OFF);Menu=3; 
072DC:  MOVLW  01
072DE:  MOVLB  6
072E0:  MOVWF  x49
072E2:  MOVLB  0
072E4:  CALL   3904
072E8:  CALL   16B4
072EC:  MOVLW  D3
072EE:  MOVLB  4
072F0:  MOVWF  xF1
072F2:  MOVLW  04
072F4:  MOVLB  6
072F6:  MOVWF  x49
072F8:  MOVLW  FA
072FA:  MOVWF  x51
072FC:  MOVLB  0
072FE:  CALL   118C
07302:  MOVLB  6
07304:  DECFSZ x49,F
07306:  BRA    72F8
07308:  CLRF   x4A
0730A:  MOVLB  0
0730C:  CALL   2FD6
07310:  MOVLW  03
07312:  MOVLB  4
07314:  MOVWF  xF1
....................       } 
....................      
....................     } 
.................... //_--------------------------------------------------------------------------------------------------------------------------------------------------------        
....................  
.................... //_-------------------------------------------------------------------------------------------------------------------------------------------------------- 
....................       if(Menu==6){ //Menu de Mantenimiento. 
07316:  MOVF   xF1,W
07318:  SUBLW  06
0731A:  BTFSS  FD8.2
0731C:  BRA    74F8
....................        
....................          strcpy(Menus.Letra,"Mantenimien"); 
0731E:  MOVLW  04
07320:  MOVWF  FEA
07322:  MOVLW  17
07324:  MOVWF  FE9
07326:  MOVFF  FF2,649
0732A:  BCF    FF2.7
0732C:  MOVLW  00
0732E:  MOVLB  0
07330:  CALL   10A4
07334:  TBLRD*-
07336:  TBLRD*+
07338:  MOVF   FF5,W
0733A:  MOVWF  FEE
0733C:  IORLW  00
0733E:  BNZ   7336
07340:  MOVLB  6
07342:  BTFSC  x49.7
07344:  BSF    FF2.7
....................          displayMenu(Menus.Letra,00,0,1,2); 
07346:  MOVLW  04
07348:  MOVWF  x4A
0734A:  MOVLW  17
0734C:  MOVWF  x49
0734E:  CLRF   x4B
07350:  CLRF   x4C
07352:  MOVLW  01
07354:  MOVWF  x4D
07356:  MOVLW  02
07358:  MOVWF  x4E
0735A:  MOVLB  0
0735C:  CALL   3746
....................          glcd_text57(0, 29, Vida_Filtro, 1, ON); 
07360:  MOVLB  6
07362:  CLRF   x60
07364:  MOVLW  1D
07366:  MOVWF  x61
07368:  MOVLW  04
0736A:  MOVWF  x63
0736C:  MOVLW  C9
0736E:  MOVWF  x62
07370:  MOVLW  01
07372:  MOVWF  x64
07374:  MOVWF  x65
07376:  MOVLB  0
07378:  CALL   34D6
....................          displayTiempo(Ttrabajo[3],60,28,0,1);displayTiempo(Ttrabajo[2],67,28,0,1);displayTiempo(Ttrabajo[1],74,28,0,1);displayTiempo(Ttrabajo[0],82,28,0,1); 
0737C:  MOVFF  532,649
07380:  MOVLW  3C
07382:  MOVLB  6
07384:  MOVWF  x4A
07386:  MOVLW  1C
07388:  MOVWF  x4B
0738A:  CLRF   x4C
0738C:  MOVLW  01
0738E:  MOVWF  x4D
07390:  MOVLB  0
07392:  CALL   3812
07396:  MOVFF  531,649
0739A:  MOVLW  43
0739C:  MOVLB  6
0739E:  MOVWF  x4A
073A0:  MOVLW  1C
073A2:  MOVWF  x4B
073A4:  CLRF   x4C
073A6:  MOVLW  01
073A8:  MOVWF  x4D
073AA:  MOVLB  0
073AC:  CALL   3812
073B0:  MOVFF  530,649
073B4:  MOVLW  4A
073B6:  MOVLB  6
073B8:  MOVWF  x4A
073BA:  MOVLW  1C
073BC:  MOVWF  x4B
073BE:  CLRF   x4C
073C0:  MOVLW  01
073C2:  MOVWF  x4D
073C4:  MOVLB  0
073C6:  CALL   3812
073CA:  MOVFF  52F,649
073CE:  MOVLW  52
073D0:  MOVLB  6
073D2:  MOVWF  x4A
073D4:  MOVLW  1C
073D6:  MOVWF  x4B
073D8:  CLRF   x4C
073DA:  MOVLW  01
073DC:  MOVWF  x4D
073DE:  MOVLB  0
073E0:  CALL   3812
....................          LuzBlanca_on; 
073E4:  BSF    F8B.4
073E6:  BCF    F94.4
....................           
....................              
....................             if((UP && DOWN)  || BYTE_IR[2]==0X52) // Reinicia Tiempo de Trabajo 
073E8:  BSF    F96.1
073EA:  BTFSS  F84.1
073EC:  BRA    73F4
073EE:  BSF    F96.2
073F0:  BTFSC  F84.2
073F2:  BRA    73FE
073F4:  MOVLB  6
073F6:  MOVF   x47,W
073F8:  SUBLW  52
073FA:  BNZ   74D8
073FC:  MOVLB  0
....................             { 
....................                   BYTE_IR[2]=0X00; 
073FE:  MOVLB  6
07400:  CLRF   x47
....................                   delay_ms(2000); 
07402:  MOVLW  08
07404:  MOVWF  x49
07406:  MOVLW  FA
07408:  MOVWF  x51
0740A:  MOVLB  0
0740C:  CALL   118C
07410:  MOVLB  6
07412:  DECFSZ x49,F
07414:  BRA    7406
....................                   write_eeprom(16,0);write_eeprom(17,0);write_eeprom(18,0);write_eeprom(19,0); 
07416:  CLRF   FAA
07418:  MOVLW  10
0741A:  MOVWF  FA9
0741C:  CLRF   FA8
0741E:  BCF    FA6.6
07420:  BCF    FA6.7
07422:  BSF    FA6.2
07424:  MOVF   FF2,W
07426:  MOVWF  00
07428:  BCF    FF2.7
0742A:  MOVLB  F
0742C:  MOVLW  55
0742E:  MOVWF  FA7
07430:  MOVLW  AA
07432:  MOVWF  FA7
07434:  BSF    FA6.1
07436:  BTFSC  FA6.1
07438:  BRA    7436
0743A:  BCF    FA6.2
0743C:  MOVF   00,W
0743E:  IORWF  FF2,F
07440:  CLRF   FAA
07442:  MOVLW  11
07444:  MOVWF  FA9
07446:  CLRF   FA8
07448:  BCF    FA6.6
0744A:  BCF    FA6.7
0744C:  BSF    FA6.2
0744E:  MOVF   FF2,W
07450:  MOVWF  00
07452:  BCF    FF2.7
07454:  MOVLW  55
07456:  MOVWF  FA7
07458:  MOVLW  AA
0745A:  MOVWF  FA7
0745C:  BSF    FA6.1
0745E:  BTFSC  FA6.1
07460:  BRA    745E
07462:  BCF    FA6.2
07464:  MOVF   00,W
07466:  IORWF  FF2,F
07468:  CLRF   FAA
0746A:  MOVLW  12
0746C:  MOVWF  FA9
0746E:  CLRF   FA8
07470:  BCF    FA6.6
07472:  BCF    FA6.7
07474:  BSF    FA6.2
07476:  MOVF   FF2,W
07478:  MOVWF  00
0747A:  BCF    FF2.7
0747C:  MOVLW  55
0747E:  MOVWF  FA7
07480:  MOVLW  AA
07482:  MOVWF  FA7
07484:  BSF    FA6.1
07486:  BTFSC  FA6.1
07488:  BRA    7486
0748A:  BCF    FA6.2
0748C:  MOVF   00,W
0748E:  IORWF  FF2,F
07490:  CLRF   FAA
07492:  MOVLW  13
07494:  MOVWF  FA9
07496:  CLRF   FA8
07498:  BCF    FA6.6
0749A:  BCF    FA6.7
0749C:  BSF    FA6.2
0749E:  MOVF   FF2,W
074A0:  MOVWF  00
074A2:  BCF    FF2.7
074A4:  MOVLW  55
074A6:  MOVWF  FA7
074A8:  MOVLW  AA
074AA:  MOVWF  FA7
074AC:  BSF    FA6.1
074AE:  BTFSC  FA6.1
074B0:  BRA    74AE
074B2:  BCF    FA6.2
074B4:  MOVF   00,W
074B6:  IORWF  FF2,F
....................                   Ttrabajo[3]=0;Ttrabajo[2]=0;Ttrabajo[1]=0;Ttrabajo[0]=0; 
074B8:  MOVLB  5
074BA:  CLRF   x32
074BC:  CLRF   x31
074BE:  CLRF   x30
074C0:  CLRF   x2F
....................                   Menu=3;glcd_fillscreen(OFF);LuzBlanca_off; 
074C2:  MOVLW  03
074C4:  MOVLB  4
074C6:  MOVWF  xF1
074C8:  MOVLB  6
074CA:  CLRF   x4A
074CC:  MOVLB  0
074CE:  CALL   2FD6
074D2:  BCF    F8B.4
074D4:  BCF    F94.4
074D6:  MOVLB  6
....................             } 
....................              
....................             if(LEFT) 
074D8:  BSF    F94.1
074DA:  BTFSS  F82.1
074DC:  BRA    74F6
....................             { 
....................                Menu=3;glcd_fillscreen(OFF);LuzBlanca_off;BYTE_IR[2]=0X00; 
074DE:  MOVLW  03
074E0:  MOVLB  4
074E2:  MOVWF  xF1
074E4:  MOVLB  6
074E6:  CLRF   x4A
074E8:  MOVLB  0
074EA:  CALL   2FD6
074EE:  BCF    F8B.4
074F0:  BCF    F94.4
074F2:  MOVLB  6
074F4:  CLRF   x47
074F6:  MOVLB  4
....................             } 
....................     } 
.................... //_--------------------------------------------------------------------------------------------------------------------------------------------------------        
....................  
.................... //_-------------------------------------------------------------------------------------------------------------------------------------------------------- 
....................       if(Menu==200){ //Menu de Inicio. 
074F8:  MOVF   xF1,W
074FA:  SUBLW  C8
074FC:  BTFSS  FD8.2
074FE:  BRA    7666
....................           
....................        
....................             BYTE_IR[2]=0X00; 
07500:  MOVLB  6
07502:  CLRF   x47
....................             Display_on; 
07504:  BSF    F8A.1
07506:  BCF    F93.1
....................             glcd_init(ON);             //Inicializa la glcd 
07508:  MOVLW  01
0750A:  MOVWF  x49
0750C:  MOVLB  0
0750E:  CALL   3030
....................             glcd_fillScreen(OFF);      //Limpia la pantalla 
07512:  MOVLB  6
07514:  CLRF   x4A
07516:  MOVLB  0
07518:  CALL   2FD6
....................             glcd_text57(0, 0, JP, 2, ON);glcd_text57(5, 20, Cabina, 1, ON);glcd_text57(10, 40, Clase, 2, ON);              
0751C:  MOVLB  6
0751E:  CLRF   x60
07520:  CLRF   x61
07522:  MOVLW  04
07524:  MOVWF  x63
07526:  MOVLW  34
07528:  MOVWF  x62
0752A:  MOVLW  02
0752C:  MOVWF  x64
0752E:  MOVLW  01
07530:  MOVWF  x65
07532:  MOVLB  0
07534:  CALL   34D6
07538:  MOVLW  05
0753A:  MOVLB  6
0753C:  MOVWF  x60
0753E:  MOVLW  14
07540:  MOVWF  x61
07542:  MOVLW  04
07544:  MOVWF  x63
07546:  MOVLW  40
07548:  MOVWF  x62
0754A:  MOVLW  01
0754C:  MOVWF  x64
0754E:  MOVWF  x65
07550:  MOVLB  0
07552:  CALL   34D6
07556:  MOVLW  0A
07558:  MOVLB  6
0755A:  MOVWF  x60
0755C:  MOVLW  28
0755E:  MOVWF  x61
07560:  MOVLW  04
07562:  MOVWF  x63
07564:  MOVLW  5B
07566:  MOVWF  x62
07568:  MOVLW  02
0756A:  MOVWF  x64
0756C:  MOVLW  01
0756E:  MOVWF  x65
07570:  MOVLB  0
07572:  CALL   34D6
....................             glcd_update();    
07576:  CALL   16B4
....................             delay_ms(3000); 
0757A:  MOVLW  0C
0757C:  MOVLB  6
0757E:  MOVWF  x49
07580:  MOVLW  FA
07582:  MOVWF  x51
07584:  MOVLB  0
07586:  CALL   118C
0758A:  MOVLB  6
0758C:  DECFSZ x49,F
0758E:  BRA    7580
....................                         
....................             glcd_fillScreen(OFF);      //Limpia la pantalla 
07590:  CLRF   x4A
07592:  MOVLB  0
07594:  CALL   2FD6
....................             displayContrasena(Contrasena[0],20,30,1);displayContrasena(Contrasena[1],40,30,0); 
07598:  MOVFF  533,64B
0759C:  MOVLW  14
0759E:  MOVLB  6
075A0:  MOVWF  x4C
075A2:  MOVLW  1E
075A4:  MOVWF  x4D
075A6:  MOVLW  01
075A8:  MOVWF  x4E
075AA:  MOVLB  0
075AC:  CALL   368E
075B0:  MOVFF  534,64B
075B4:  MOVLW  28
075B6:  MOVLB  6
075B8:  MOVWF  x4C
075BA:  MOVLW  1E
075BC:  MOVWF  x4D
075BE:  CLRF   x4E
075C0:  MOVLB  0
075C2:  CALL   368E
....................             displayContrasena(Contrasena[2],60,30,0);displayContrasena(Contrasena[0],80,30,0); 
075C6:  MOVFF  535,64B
075CA:  MOVLW  3C
075CC:  MOVLB  6
075CE:  MOVWF  x4C
075D0:  MOVLW  1E
075D2:  MOVWF  x4D
075D4:  CLRF   x4E
075D6:  MOVLB  0
075D8:  CALL   368E
075DC:  MOVFF  533,64B
075E0:  MOVLW  50
075E2:  MOVLB  6
075E4:  MOVWF  x4C
075E6:  MOVLW  1E
075E8:  MOVWF  x4D
075EA:  CLRF   x4E
075EC:  MOVLB  0
075EE:  CALL   368E
....................             glcd_rect(0, 0, 127, 25, YES, ON);strcpy(Menus.Letra,"Clave");glcd_text57(25, 1, Menus.Letra, 3, OFF);    
075F2:  MOVLB  6
075F4:  CLRF   x60
075F6:  CLRF   x61
075F8:  MOVLW  7F
075FA:  MOVWF  x62
075FC:  MOVLW  19
075FE:  MOVWF  x63
07600:  MOVLW  01
07602:  MOVWF  x64
07604:  MOVWF  x65
07606:  MOVLB  0
07608:  CALL   3414
0760C:  MOVLW  04
0760E:  MOVWF  FEA
07610:  MOVLW  17
07612:  MOVWF  FE9
07614:  MOVFF  FF2,649
07618:  BCF    FF2.7
0761A:  MOVLW  00
0761C:  CALL   0F0A
07620:  TBLRD*-
07622:  TBLRD*+
07624:  MOVF   FF5,W
07626:  MOVWF  FEE
07628:  IORLW  00
0762A:  BNZ   7622
0762C:  MOVLB  6
0762E:  BTFSC  x49.7
07630:  BSF    FF2.7
07632:  MOVLW  19
07634:  MOVWF  x60
07636:  MOVLW  01
07638:  MOVWF  x61
0763A:  MOVLW  04
0763C:  MOVWF  x63
0763E:  MOVLW  17
07640:  MOVWF  x62
07642:  MOVLW  03
07644:  MOVWF  x64
07646:  CLRF   x65
07648:  MOVLB  0
0764A:  CALL   34D6
....................             Menu=0; 
0764E:  MOVLB  4
07650:  CLRF   xF1
....................             Motor_off;LuzBlanca_off;LuzUV_off;Toma_off;Alarma_off; 
07652:  BCF    F8B.6
07654:  BCF    F94.6
07656:  BCF    F8B.4
07658:  BCF    F94.4
0765A:  BCF    F8B.5
0765C:  BCF    F94.5
0765E:  BCF    F8B.7
07660:  BCF    F94.7
07662:  BCF    F8B.2
07664:  BCF    F94.2
....................     } 
.................... //_--------------------------------------------------------------------------------------------------------------------------------------------------------        
....................  
....................    if(tiemporeset>=60) 
07666:  MOVF   xF8,W
07668:  SUBLW  3B
0766A:  BC    7682
....................    { 
....................       if(Menu!=200){ 
0766C:  MOVF   xF1,W
0766E:  SUBLW  C8
07670:  BZ    7682
....................          glcd_init(ON); 
07672:  MOVLW  01
07674:  MOVLB  6
07676:  MOVWF  x49
07678:  MOVLB  0
0767A:  CALL   3030
....................          tiemporeset=0; 
0767E:  MOVLB  4
07680:  CLRF   xF8
....................       } 
....................    }  
.................... } 
07682:  GOTO   4B30
....................  
.................... } 
.................... int8 BIT_BYTE(int1 D0, int1 D1, int1 D2, int1 D3, int1 D4, int1 D5, int1 D6, int1 D7){ 
....................    int8 dato; 
07686:  SLEEP 
....................    dato= D7*128 + D6*64 + D5*32 + D4*16 + D3*8 + D2*4 + D1*2 +D0*1; // 0 al 255  
*
0163A:  MOVLB  6
0163C:  MOVF   x58,W
0163E:  MULLW  80
01640:  MOVFF  FF3,65A
01644:  MOVF   x57,W
01646:  MULLW  40
01648:  MOVF   FF3,W
0164A:  ADDWF  x5A,F
0164C:  MOVF   x56,W
0164E:  MULLW  20
01650:  MOVF   FF3,W
01652:  ADDWF  x5A,F
01654:  MOVF   x55,W
01656:  MULLW  10
01658:  MOVF   FF3,W
0165A:  ADDWF  x5A,F
0165C:  MOVF   x54,W
0165E:  MULLW  08
01660:  MOVF   FF3,W
01662:  ADDWF  x5A,F
01664:  MOVF   x53,W
01666:  MULLW  04
01668:  MOVF   FF3,W
0166A:  ADDWF  x5A,F
0166C:  BCF    FD8.0
0166E:  RLCF   x52,W
01670:  ADDWF  x5A,W
01672:  ADDWF  x51,W
01674:  MOVWF  x59
....................    return dato;  
01676:  MOVFF  659,01
.................... } 
0167A:  MOVLB  0
0167C:  RETLW  00
....................  

Configuration Fuses:
   Word  1: 0200   HS NOIESO NOFCMEN
   Word  2: 1E1F   BROWNOUT NOWDT BORV20 NOPUT WDT32768
   Word  3: 0000   NOPBADEN NOLPT1OSC NOMCLR
   Word  4: 00B0   NOSTVREN NODEBUG NOLVP NOXINST BBSIZ4K
   Word  5: C03F   NOPROTECT NOCPD NOCPB
   Word  6: E03F   NOWRT NOWRTD NOWRTC NOWRTB
   Word  7: 403F   NOEBTR NOEBTRB
