CCS PCH C Compiler, Version 4.104, 5967               23-nov.-18 07:22

               Filename: H:\JP\JP\Laboratorio\Cabina Extractora de Gases y  Humos\2017\120\Cabina Extractora 120 Control Remoto Avantika #004587683\Firmware\Cabina_Extractora.lst

               ROM used: 27322 bytes (83%)
                         Largest free fragment is 5442
               RAM used: 270 (13%) at main() level
                         312 (15%) worst case
               Stack:    8 worst case (6 in main + 2 for interrupts)

*
0000:  GOTO   26BC
*
0008:  MOVWF  04
000A:  MOVFF  FD8,05
000E:  MOVFF  FE0,06
0012:  MOVLB  0
0014:  MOVFF  FE9,0C
0018:  MOVFF  FEA,07
001C:  MOVFF  FE1,08
0020:  MOVFF  FE2,09
0024:  MOVFF  FD9,0A
0028:  MOVFF  FDA,0B
002C:  MOVFF  FF3,12
0030:  MOVFF  FF4,13
0034:  MOVFF  FFA,14
0038:  MOVFF  00,0E
003C:  MOVFF  01,0F
0040:  MOVFF  02,10
0044:  MOVFF  03,11
0048:  BTFSS  FF2.5
004A:  GOTO   0054
004E:  BTFSC  FF2.2
0050:  GOTO   01F6
0054:  BTFSS  FF2.4
0056:  GOTO   0060
005A:  BTFSC  FF2.1
005C:  GOTO   0102
0060:  MOVFF  0E,00
0064:  MOVFF  0F,01
0068:  MOVFF  10,02
006C:  MOVFF  11,03
0070:  MOVFF  0C,FE9
0074:  MOVFF  07,FEA
0078:  BSF    07.7
007A:  MOVFF  08,FE1
007E:  MOVFF  09,FE2
0082:  MOVFF  0A,FD9
0086:  MOVFF  0B,FDA
008A:  MOVFF  12,FF3
008E:  MOVFF  13,FF4
0092:  MOVFF  14,FFA
0096:  MOVF   04,W
0098:  MOVFF  06,FE0
009C:  MOVFF  05,FD8
00A0:  RETFIE 0
.................... // Pendiente ajustar tiempos con Timer 0 
.................... #include <18F4550.h> 
.................... //////// Standard Header file for the PIC18F4550 device //////////////// 
.................... #device PIC18F4550 
.................... #list 
....................  
.................... #device adc=10 
.................... #fuses HS,NOWDT,NOPROTECT,NOLVP,NODEBUG,NOVREGEN,MCLR,NOPUT,NOCPD,NOSTVREN// PLL1 para 4 MHz 
.................... #use delay(clock=4000000) 
*
0BD2:  MOVLW  01
0BD4:  MOVWF  FEA
0BD6:  MOVLW  1C
0BD8:  MOVWF  FE9
0BDA:  MOVF   FEF,W
0BDC:  BZ    0BFA
0BDE:  MOVLW  01
0BE0:  MOVWF  01
0BE2:  CLRF   00
0BE4:  DECFSZ 00,F
0BE6:  BRA    0BE4
0BE8:  DECFSZ 01,F
0BEA:  BRA    0BE2
0BEC:  MOVLW  4A
0BEE:  MOVWF  00
0BF0:  DECFSZ 00,F
0BF2:  BRA    0BF0
0BF4:  BRA    0BF6
0BF6:  DECFSZ FEF,F
0BF8:  BRA    0BDE
0BFA:  RETLW  00
.................... #include <LCD420.c> 
.................... //////////////////////////////////////////////////////////////////////////// 
.................... ////                             LCD420.C                               //// 
.................... ////            Driver for common 4x20 LCD modules                      //// 
.................... ////                                                                    //// 
.................... ////  lcd_init()   Must be called before any other function.            //// 
.................... ////                                                                    //// 
.................... ////  lcd_putc(c)  Will display c on the next position of the LCD.      //// 
.................... ////                     The following have special meaning:            //// 
.................... ////                      \f  Clear display                             //// 
.................... ////                      \n  Go to start of second line                //// 
.................... ////                      \b  Move back one position                    //// 
.................... ////                                                                    //// 
.................... ////  lcd_gotoxy(x,y) Set write position on LCD (upper left is 1,1)     //// 
.................... ////                                                                    //// 
.................... ////  lcd_getc(x,y)   Returns character at position x,y on LCD          //// 
.................... ////                                                                    //// 
.................... //////////////////////////////////////////////////////////////////////////// 
.................... ////        (C) Copyright 1996,1997 Custom Computer Services            //// 
.................... //// This source code may only be used by licensed users of the CCS C   //// 
.................... //// compiler.  This source code may only be distributed to other       //// 
.................... //// licensed users of the CCS C compiler.  No other use, reproduction  //// 
.................... //// or distribution is permitted without written permission.           //// 
.................... //// Derivative programs created using this software in object code     //// 
.................... //// form are not restricted in any way.                                //// 
.................... //////////////////////////////////////////////////////////////////////////// 
....................  
.................... // As defined in the following structure the pin connection is as follows: 
.................... //     B0  enable 
.................... //     B1  rs 
.................... //     B2  rw 
.................... //     B4  D4 
.................... //     B5  D5 
.................... //     B6  D6 
.................... //     B7  D7 
.................... // 
.................... //   LCD pins D0-D3 are not used and PIC B3 is not used. 
....................  
.................... struct lcd_pin_map {                 // This structure is overlayed 
....................            BOOLEAN rs;           // on to an I/O port to gain 
....................            BOOLEAN rw;               // access to the LCD pins. 
....................            BOOLEAN enable;               // The bits are allocated from 
....................            BOOLEAN unused;           // low order up.  ENABLE will 
....................            int     data : 4;         // be pin B0. 
....................         } lcd; 
....................  
.................... #locate lcd = getenv("SFR:PORTD")                        // This puts the entire structure 
....................                                      // on to port B  
....................  
.................... #define lcd_type 2           // 0=5x7, 1=5x10, 2=2 lines 
....................  
....................  
.................... BYTE const LCD_INIT_STRING[4] = {0x20 | (lcd_type << 2), 0xc, 1, 6}; 
....................                              // These bytes need to be sent to the LCD 
....................                              // to start it up. 
....................  
....................  
....................                              // The following are used for setting 
....................                              // the I/O port direction register. 
....................  
.................... struct lcd_pin_map const LCD_WRITE = {0,0,0,0,0}; // For write mode all pins are out 
.................... struct lcd_pin_map const LCD_READ = {0,0,0,0,15}; // For read mode data pins are in 
....................  
....................  
.................... BYTE lcdline; 
....................  
.................... BYTE lcd_read_byte() { 
....................       BYTE low,high; 
....................  
....................       set_tris_d(LCD_READ); 
....................       lcd.rw = 1; 
....................       delay_cycles(1); 
....................       lcd.enable = 1; 
....................       delay_cycles(1); 
....................       high = lcd.data; 
....................       lcd.enable = 0; 
....................       delay_cycles(1); 
....................       lcd.enable = 1; 
....................       delay_us(1); 
....................       low = lcd.data; 
....................       lcd.enable = 0; 
....................       set_tris_d(LCD_WRITE); 
....................       return( (high<<4) | low); 
.................... } 
....................  
....................  
.................... void lcd_send_nibble( BYTE n ) { 
....................       lcd.data = n; 
0BFC:  MOVLB  1
0BFE:  SWAPF  x22,W
0C00:  ANDLW  F0
0C02:  MOVWF  00
0C04:  MOVLW  0F
0C06:  ANDWF  F83,W
0C08:  IORWF  00,W
0C0A:  MOVWF  F83
....................       delay_cycles(1); 
0C0C:  NOP   
....................       lcd.enable = 1; 
0C0E:  BSF    F83.2
....................       delay_us(2); 
0C10:  BRA    0C12
....................       lcd.enable = 0; 
0C12:  BCF    F83.2
.................... } 
0C14:  MOVLB  0
0C16:  RETLW  00
....................  
....................  
.................... void lcd_send_byte( BYTE address, BYTE n ) { 
....................  
....................       lcd.rs = 0; 
0C18:  BCF    F83.0
....................       //while ( bit_test(lcd_read_byte(),7) ) ; 
....................       delay_us(100); 
0C1A:  MOVLW  21
0C1C:  MOVWF  00
0C1E:  DECFSZ 00,F
0C20:  BRA    0C1E
....................       lcd.rs = address; 
0C22:  MOVLB  1
0C24:  BTFSS  x1F.0
0C26:  BCF    F83.0
0C28:  BTFSC  x1F.0
0C2A:  BSF    F83.0
....................       delay_cycles(1); 
0C2C:  NOP   
....................       lcd.rw = 0; 
0C2E:  BCF    F83.1
....................       delay_cycles(1); 
0C30:  NOP   
....................       lcd.enable = 0; 
0C32:  BCF    F83.2
....................       lcd_send_nibble(n >> 4); 
0C34:  SWAPF  x20,W
0C36:  MOVWF  x21
0C38:  MOVLW  0F
0C3A:  ANDWF  x21,F
0C3C:  MOVFF  121,122
0C40:  MOVLB  0
0C42:  RCALL  0BFC
....................       lcd_send_nibble(n & 0xf); 
0C44:  MOVLB  1
0C46:  MOVF   x20,W
0C48:  ANDLW  0F
0C4A:  MOVWF  x21
0C4C:  MOVWF  x22
0C4E:  MOVLB  0
0C50:  RCALL  0BFC
.................... } 
0C52:  RETLW  00
....................  
....................  
.................... void lcd_init() { 
....................     BYTE i; 
....................  
....................     set_tris_d(LCD_WRITE); 
0C54:  MOVLW  00
0C56:  MOVWF  F95
....................     lcd.rs = 0; 
0C58:  BCF    F83.0
....................     lcd.rw = 0; 
0C5A:  BCF    F83.1
....................     lcd.enable = 0; 
0C5C:  BCF    F83.2
....................     delay_ms(15); 
0C5E:  MOVLW  0F
0C60:  MOVLB  1
0C62:  MOVWF  x1C
0C64:  MOVLB  0
0C66:  RCALL  0BD2
....................     for(i=1;i<=3;++i) { 
0C68:  MOVLW  01
0C6A:  MOVLB  1
0C6C:  MOVWF  x06
0C6E:  MOVF   x06,W
0C70:  SUBLW  03
0C72:  BNC   0C8C
....................        lcd_send_nibble(3); 
0C74:  MOVLW  03
0C76:  MOVWF  x22
0C78:  MOVLB  0
0C7A:  RCALL  0BFC
....................        delay_ms(5); 
0C7C:  MOVLW  05
0C7E:  MOVLB  1
0C80:  MOVWF  x1C
0C82:  MOVLB  0
0C84:  RCALL  0BD2
....................     } 
0C86:  MOVLB  1
0C88:  INCF   x06,F
0C8A:  BRA    0C6E
....................     lcd_send_nibble(2); 
0C8C:  MOVLW  02
0C8E:  MOVWF  x22
0C90:  MOVLB  0
0C92:  RCALL  0BFC
....................     for(i=0;i<=3;++i) 
0C94:  MOVLB  1
0C96:  CLRF   x06
0C98:  MOVF   x06,W
0C9A:  SUBLW  03
0C9C:  BNC   0CC4
....................        lcd_send_byte(0, LCD_INIT_STRING[i]); 
0C9E:  CLRF   03
0CA0:  MOVF   x06,W
0CA2:  MOVFF  FF2,107
0CA6:  BCF    FF2.7
0CA8:  MOVLB  0
0CAA:  CALL   00A2
0CAE:  MOVLB  1
0CB0:  BTFSC  x07.7
0CB2:  BSF    FF2.7
0CB4:  MOVWF  x07
0CB6:  CLRF   x1F
0CB8:  MOVWF  x20
0CBA:  MOVLB  0
0CBC:  RCALL  0C18
0CBE:  MOVLB  1
0CC0:  INCF   x06,F
0CC2:  BRA    0C98
.................... } 
0CC4:  MOVLB  0
0CC6:  RETLW  00
....................  
....................  
.................... void lcd_gotoxy( BYTE x, BYTE y) { 
....................    BYTE address; 
....................  
....................    switch(y) { 
0CC8:  MOVLW  01
0CCA:  MOVLB  1
0CCC:  SUBWF  x1D,W
0CCE:  ADDLW  FC
0CD0:  BC    0CFC
0CD2:  ADDLW  04
0CD4:  MOVLB  0
0CD6:  GOTO   0D0E
....................      case 1 : address=0x80;break; 
0CDA:  MOVLW  80
0CDC:  MOVLB  1
0CDE:  MOVWF  x1E
0CE0:  BRA    0CFC
....................      case 2 : address=0xc0;break; 
0CE2:  MOVLW  C0
0CE4:  MOVLB  1
0CE6:  MOVWF  x1E
0CE8:  BRA    0CFC
....................      case 3 : address=0x94;break; 
0CEA:  MOVLW  94
0CEC:  MOVLB  1
0CEE:  MOVWF  x1E
0CF0:  BRA    0CFC
....................      case 4 : address=0xd4;break; 
0CF2:  MOVLW  D4
0CF4:  MOVLB  1
0CF6:  MOVWF  x1E
0CF8:  BRA    0CFC
0CFA:  MOVLB  1
....................    } 
....................    address+=x-1; 
0CFC:  MOVLW  01
0CFE:  SUBWF  x1C,W
0D00:  ADDWF  x1E,F
....................    lcd_send_byte(0,address); 
0D02:  CLRF   x1F
0D04:  MOVFF  11E,120
0D08:  MOVLB  0
0D0A:  RCALL  0C18
.................... } 
0D0C:  RETLW  00
....................  
.................... void lcd_putc( char c) { 
.................... if(c=='ñ') 
*
0D3A:  MOVLB  1
0D3C:  MOVF   x1B,W
0D3E:  SUBLW  F1
0D40:  BNZ   0D46
....................     c=238; 
0D42:  MOVLW  EE
0D44:  MOVWF  x1B
....................    switch (c) { 
0D46:  MOVF   x1B,W
0D48:  XORLW  0C
0D4A:  MOVLB  0
0D4C:  BZ    0D58
0D4E:  XORLW  06
0D50:  BZ    0D74
0D52:  XORLW  02
0D54:  BZ    0D86
0D56:  BRA    0D94
....................      case '\f'   : lcd_send_byte(0,1); 
0D58:  MOVLB  1
0D5A:  CLRF   x1F
0D5C:  MOVLW  01
0D5E:  MOVWF  x20
0D60:  MOVLB  0
0D62:  RCALL  0C18
....................                    lcdline=1; 
0D64:  MOVLW  01
0D66:  MOVWF  16
....................                    delay_ms(2); 
0D68:  MOVLW  02
0D6A:  MOVLB  1
0D6C:  MOVWF  x1C
0D6E:  MOVLB  0
0D70:  RCALL  0BD2
....................                                            break; 
0D72:  BRA    0DA4
....................      case '\n'   : lcd_gotoxy(1,++lcdline);        break; 
0D74:  INCF   16,F
0D76:  MOVLW  01
0D78:  MOVLB  1
0D7A:  MOVWF  x1C
0D7C:  MOVFF  16,11D
0D80:  MOVLB  0
0D82:  RCALL  0CC8
0D84:  BRA    0DA4
....................      case '\b'   : lcd_send_byte(0,0x10);  break; 
0D86:  MOVLB  1
0D88:  CLRF   x1F
0D8A:  MOVLW  10
0D8C:  MOVWF  x20
0D8E:  MOVLB  0
0D90:  RCALL  0C18
0D92:  BRA    0DA4
....................      default     : lcd_send_byte(1,c);     break; 
0D94:  MOVLW  01
0D96:  MOVLB  1
0D98:  MOVWF  x1F
0D9A:  MOVFF  11B,120
0D9E:  MOVLB  0
0DA0:  RCALL  0C18
0DA2:  BRA    0DA4
....................    } 
.................... } 
0DA4:  RETLW  00
....................  
.................... char lcd_getc( BYTE x, BYTE y) { 
....................    char value; 
....................  
....................     lcd_gotoxy(x,y); 
....................     lcd.rs=1; 
....................     value = lcd_read_byte(); 
....................     lcd.rs=0; 
....................     return(value); 
.................... } 
....................  
....................  
.................... #include <math.h> 
.................... //////////////////////////////////////////////////////////////////////////// 
.................... ////        (C) Copyright 1996,2008 Custom Computer Services            //// 
.................... //// This source code may only be used by licensed users of the CCS C   //// 
.................... //// compiler.  This source code may only be distributed to other       //// 
.................... //// licensed users of the CCS C compiler.  No other use, reproduction  //// 
.................... //// or distribution is permitted without written permission.           //// 
.................... //// Derivative programs created using this software in object code     //// 
.................... //// form are not restricted in any way.                                //// 
.................... //////////////////////////////////////////////////////////////////////////// 
.................... ////                                                                    //// 
.................... //// History:                                                           //// 
.................... ////  * 9/20/2001 :  Improvments are made to sin/cos code.              //// 
.................... ////                 The code now is small, much faster,                //// 
.................... ////                 and more accurate.                                 //// 
.................... ////  * 2/21/2007 :  Compiler handles & operator differently and does 
.................... ////                 not return generic (int8 *) so type cast is done   //// 
.................... ////                                                                    //// 
.................... //////////////////////////////////////////////////////////////////////////// 
....................  
.................... #ifndef MATH_H 
.................... #define MATH_H 
....................  
.................... #ifdef PI 
.................... #undef  PI 
.................... #endif 
.................... #define PI     3.1415926535897932 
....................  
....................  
.................... #define SQRT2  1.4142135623730950 
....................  
.................... //float const ps[4] = {5.9304945, 21.125224, 8.9403076, 0.29730279}; 
.................... //float const qs[4] = {1.0000000, 15.035723, 17.764134, 2.4934718}; 
....................  
.................... ///////////////////////////// Round Functions ////////////////////////////// 
....................  
.................... float32 CEIL_FLOOR(float32 x, unsigned int8 n) 
.................... { 
....................    float32 y, res; 
....................    unsigned int16 l; 
....................    int1 s; 
....................  
....................    s = 0; 
....................    y = x; 
....................  
....................    if (x < 0) 
....................    { 
....................       s = 1; 
....................       y = -y; 
....................    } 
....................  
....................    if (y <= 32768.0) 
....................   res = (float32)(unsigned int16)y; 
....................  
....................  else if (y < 10000000.0) 
....................    { 
....................   l = (unsigned int16)(y/32768.0); 
....................       y = 32768.0*(y/32768.0 - (float32)l); 
....................   res = 32768.0*(float32)l; 
....................   res += (float32)(unsigned int16)y; 
....................  } 
....................  
....................  else 
....................   res = y; 
....................  
....................  y = y - (float32)(unsigned int16)y; 
....................  
....................  if (s) 
....................   res = -res; 
....................  
....................  if (y != 0) 
....................  { 
....................   if (s == 1 && n == 0) 
....................    res -= 1.0; 
....................  
....................   if (s == 0 && n == 1) 
....................    res += 1.0; 
....................  } 
....................  if (x == 0) 
....................     res = 0; 
....................  
....................  return (res); 
.................... } 
....................  
.................... // Overloaded Functions to take care for new Data types in PCD 
.................... // Overloaded function CEIL_FLOOR() for data type - Float48 
.................... #if defined(__PCD__) 
.................... float48 CEIL_FLOOR(float48 x, unsigned int8 n) 
.................... { 
....................    float48 y, res; 
....................    unsigned int16 l; 
....................    int1 s; 
....................  
....................    s = 0; 
....................    y = x; 
....................  
....................    if (x < 0) 
....................    { 
....................       s = 1; 
....................       y = -y; 
....................    } 
....................  
....................    if (y <= 32768.0) 
....................   res = (float48)(unsigned int16)y; 
....................  
....................  else if (y < 10000000.0) 
....................    { 
....................   l = (unsigned int16)(y/32768.0); 
....................       y = 32768.0*(y/32768.0 - (float48)l); 
....................   res = 32768.0*(float32)l; 
....................   res += (float48)(unsigned int16)y; 
....................  } 
....................  
....................  else 
....................   res = y; 
....................  
....................  y = y - (float48)(unsigned int16)y; 
....................  
....................  if (s) 
....................   res = -res; 
....................  
....................  if (y != 0) 
....................  { 
....................   if (s == 1 && n == 0) 
....................    res -= 1.0; 
....................  
....................   if (s == 0 && n == 1) 
....................    res += 1.0; 
....................  } 
....................  if (x == 0) 
....................     res = 0; 
....................  
....................  return (res); 
.................... } 
....................  
....................  
.................... // Overloaded function CEIL_FLOOR() for data type - Float64 
.................... float64 CEIL_FLOOR(float64 x, unsigned int8 n) 
.................... { 
....................    float64 y, res; 
....................    unsigned int16 l; 
....................    int1 s; 
....................  
....................    s = 0; 
....................    y = x; 
....................  
....................    if (x < 0) 
....................    { 
....................       s = 1; 
....................       y = -y; 
....................    } 
....................  
....................    if (y <= 32768.0) 
....................   res = (float64)(unsigned int16)y; 
....................  
....................  else if (y < 10000000.0) 
....................    { 
....................   l = (unsigned int16)(y/32768.0); 
....................       y = 32768.0*(y/32768.0 - (float64)l); 
....................   res = 32768.0*(float64)l; 
....................   res += (float64)(unsigned int16)y; 
....................  } 
....................  
....................  else 
....................   res = y; 
....................  
....................  y = y - (float64)(unsigned int16)y; 
....................  
....................  if (s) 
....................   res = -res; 
....................  
....................  if (y != 0) 
....................  { 
....................   if (s == 1 && n == 0) 
....................    res -= 1.0; 
....................  
....................   if (s == 0 && n == 1) 
....................    res += 1.0; 
....................  } 
....................  if (x == 0) 
....................     res = 0; 
....................  
....................  return (res); 
.................... } 
.................... #endif 
....................  
.................... //////////////////////////////////////////////////////////////////////////// 
.................... //   float floor(float x) 
.................... //////////////////////////////////////////////////////////////////////////// 
.................... // Description : rounds down the number x. 
.................... // Date : N/A 
.................... // 
.................... float32 floor(float32 x) 
.................... { 
....................    return CEIL_FLOOR(x, 0); 
.................... } 
.................... // Following 2 functions are overloaded functions of floor() for PCD 
.................... // Overloaded function floor() for data type - Float48 
.................... #if defined(__PCD__) 
.................... float48 floor(float48 x) 
.................... { 
....................    return CEIL_FLOOR(x, 0); 
.................... } 
....................  
.................... // Overloaded function floor() for data type - Float64 
.................... float64 floor(float64 x) 
.................... { 
....................    return CEIL_FLOOR(x, 0); 
.................... } 
.................... #endif 
....................  
....................  
.................... //////////////////////////////////////////////////////////////////////////// 
.................... //   float ceil(float x) 
.................... //////////////////////////////////////////////////////////////////////////// 
.................... // Description : rounds up the number x. 
.................... // Date : N/A 
.................... // 
.................... float32 ceil(float32 x) 
.................... { 
....................    return CEIL_FLOOR(x, 1); 
.................... } 
.................... // Following 2 functions are overloaded functions of ceil() for PCD 
.................... // Overloaded function ceil() for data type - Float48 
.................... #if defined(__PCD__) 
.................... float48 ceil(float48 x) 
.................... { 
....................    return CEIL_FLOOR(x, 1); 
.................... } 
....................  
.................... // Overloaded function ceil() for data type - Float64 
.................... float64 ceil(float64 x) 
.................... { 
....................    return CEIL_FLOOR(x, 1); 
.................... } 
.................... #endif 
....................  
....................  //////////////////////////////////////////////////////////////////////////// 
.................... //   float fabs(float x) 
.................... //////////////////////////////////////////////////////////////////////////// 
.................... // Description : Computes the absolute value of floating point number x 
.................... // Returns : returns the absolute value of x 
.................... // Date : N/A 
.................... // 
.................... #define fabs abs 
....................  
.................... //////////////////////////////////////////////////////////////////////////// 
.................... //   float fmod(float x) 
.................... //////////////////////////////////////////////////////////////////////////// 
.................... // Description : Computes the floating point remainder of x/y 
.................... // Returns : returns the value of x= i*y, for some integer i such that, if y 
.................... // is non zero, the result has the same isgn of x na dmagnitude less than the 
.................... // magnitude of y. If y is zero then a domain error occurs. 
.................... // Date : N/A 
.................... // 
....................  
.................... float fmod(float32 x,float32 y) 
.................... { 
....................    float32 i; 
....................    if (y!=0.0) 
....................    { 
....................       i=(x/y < 0.0)? ceil(x/y): floor(x/y); 
....................       return(x-(i*y)); 
....................    } 
....................    else 
....................    { 
....................    #ifdef _ERRNO 
....................    { 
....................       errno=EDOM; 
....................    } 
....................    #endif 
....................    } 
.................... } 
.................... //Overloaded function for fmod() for PCD 
.................... // Overloaded function fmod() for data type - Float48 
.................... #if defined(__PCD__) 
.................... float48 fmod(float48 x,float48 y) 
.................... { 
....................    float48 i; 
....................    if (y!=0.0) 
....................    { 
....................       i=(x/y < 0.0)? ceil(x/y): floor(x/y); 
....................       return(x-(i*y)); 
....................    } 
....................    else 
....................    { 
....................    #ifdef _ERRNO 
....................    { 
....................       errno=EDOM; 
....................    } 
....................    #endif 
....................    } 
.................... } 
.................... // Overloaded function fmod() for data type - Float64 
.................... float64 fmod(float64 x,float64 y) 
.................... { 
....................    float64 i; 
....................    if (y!=0.0) 
....................    { 
....................       i=(x/y < 0.0)? ceil(x/y): floor(x/y); 
....................       return(x-(i*y)); 
....................    } 
....................    else 
....................    { 
....................    #ifdef _ERRNO 
....................    { 
....................       errno=EDOM; 
....................    } 
....................    #endif 
....................    } 
.................... } 
.................... #endif 
.................... //////////////////// Exponential and logarithmic functions //////////////////// 
.................... //////////////////////////////////////////////////////////////////////////// 
.................... //   float exp(float x) 
.................... //////////////////////////////////////////////////////////////////////////// 
.................... // Description : returns the value (e^x) 
.................... // Date : N/A 
.................... // 
.................... #define LN2 0.6931471805599453 
....................  
.................... float const pe[6] = {0.000207455774, 0.00127100575, 0.00965065093, 
....................                      0.0554965651,  0.240227138,  0.693147172}; 
....................  
....................  
.................... float32 exp(float32 x) 
.................... { 
....................    float32 y, res, r; 
....................    #if defined(__PCD__) 
....................    int8 data1; 
....................    #endif 
....................    signed int8 n; 
....................    int1 s; 
....................    #ifdef _ERRNO 
....................    if(x > 88.722838) 
....................    { 
....................       errno=ERANGE; 
....................       return(0); 
....................    } 
....................    #endif 
....................    n = (signed int16)(x/LN2); 
....................    s = 0; 
....................    y = x; 
....................  
....................    if (x < 0) 
....................    { 
....................       s = 1; 
....................       n = -n; 
....................       y = -y; 
....................    } 
....................  
....................    res = 0.0; 
.................... #if !defined(__PCD__) 
....................    *((unsigned int8 *)(&res)) = n + 0x7F; 
.................... #endif 
....................  
.................... #if defined(__PCD__)  // Takes care of IEEE format for PCD 
....................    data1 = n+0x7F; 
....................    if(bit_test(data1,0)) 
....................    bit_set(*(((unsigned int8 *)(&res)+2)),7); 
....................    rotate_right(&data1,1); 
....................    bit_clear(data1,7); 
....................    *(((unsigned int8 *)(&res)+3)) = data1; 
.................... #endif 
....................  
....................    y = y/LN2 - (float32)n; 
....................  
....................    r = pe[0]*y + pe[1]; 
....................    r = r*y + pe[2]; 
....................    r = r*y + pe[3]; 
....................    r = r*y + pe[4]; 
....................    r = r*y + pe[5]; 
....................  
....................    res = res*(1.0 + y*r); 
....................  
....................    if (s) 
....................       res = 1.0/res; 
....................    return(res); 
.................... } 
....................  
....................  
.................... //Overloaded function for exp() for PCD 
.................... // Overloaded function exp() for data type - Float48 
.................... #if defined(__PCD__) 
.................... float48 exp(float48 x) 
.................... { 
....................    float48 y, res, r; 
....................    int8 data1; 
....................    signed int8 n; 
....................    int1 s; 
....................    #ifdef _ERRNO 
....................    if(x > 88.722838) 
....................    { 
....................       errno=ERANGE; 
....................       return(0); 
....................    } 
....................    #endif 
....................    n = (signed int16)(x/LN2); 
....................    s = 0; 
....................    y = x; 
....................  
....................    if (x < 0) 
....................    { 
....................       s = 1; 
....................       n = -n; 
....................       y = -y; 
....................    } 
....................  
....................    res = 0.0; 
....................  
....................    data1 = n+0x7F; 
....................    if(bit_test(data1,0)) 
....................    bit_set(*(((unsigned int8 *)(&res)+4)),7); 
....................    rotate_right(&data1,1); 
....................    bit_clear(data1,7); 
....................    *(((unsigned int8 *)(&res)+5)) = data1; 
....................  
....................    y = y/LN2 - (float48)n; 
....................  
....................    r = pe[0]*y + pe[1]; 
....................    r = r*y + pe[2]; 
....................    r = r*y + pe[3]; 
....................    r = r*y + pe[4]; 
....................    r = r*y + pe[5]; 
....................  
....................    res = res*(1.0 + y*r); 
....................  
....................    if (s) 
....................       res = 1.0/res; 
....................    return(res); 
.................... } 
....................  
.................... // Overloaded function exp() for data type - Float64 
.................... float64 exp(float64 x) 
.................... { 
....................    float64 y, res, r; 
....................    unsigned int16 data1, data2; 
....................    unsigned int16 *p; 
....................    signed int16 n; 
....................    int1 s; 
....................    #ifdef _ERRNO 
....................    if(x > 709.7827128) 
....................    { 
....................       errno=ERANGE; 
....................       return(0); 
....................    } 
....................    #endif 
....................    n = (signed int16)(x/LN2); 
....................    s = 0; 
....................    y = x; 
....................  
....................    if (x < 0) 
....................    { 
....................       s = 1; 
....................       n = -n; 
....................       y = -y; 
....................    } 
....................  
....................    res = 0.0; 
....................  
.................... #if !defined(__PCD__) 
....................    *((unsigned int16 *)(&res)) = n + 0x7F; 
.................... #endif 
....................    p= (((unsigned int16 *)(&res))+3); 
....................    data1 = *p; 
....................    data2 = *p;    
....................    data1 = n + 0x3FF; 
....................    data1 = data1 <<4; 
....................    if(bit_test(data2,15)) 
....................    bit_set(data1,15); 
....................    data2 = data2 & 0x000F; 
....................    data1 ^= data2; 
....................  
....................    *(((unsigned int16 *)(&res)+3)) = data1; 
....................  
....................  
....................    y = y/LN2 - (float64)n; 
....................  
....................    r = pe[0]*y + pe[1]; 
....................    r = r*y + pe[2]; 
....................    r = r*y + pe[3]; 
....................    r = r*y + pe[4]; 
....................    r = r*y + pe[5]; 
....................  
....................    res = res*(1.0 + y*r); 
....................  
....................    if (s) 
....................       res = 1.0/res; 
....................    return(res); 
.................... } 
....................  
.................... #ENDIF 
....................  
....................  
.................... /************************************************************/ 
....................  
.................... float32 const pl[4] = {0.45145214, -9.0558803, 26.940971, -19.860189}; 
.................... float32 const ql[4] = {1.0000000,  -8.1354259, 16.780517, -9.9300943}; 
....................  
.................... //////////////////////////////////////////////////////////////////////////// 
.................... //   float log(float x) 
.................... //////////////////////////////////////////////////////////////////////////// 
.................... // Description : returns the the natural log of x 
.................... // Date : N/A 
.................... // 
.................... float32 log(float32 x) 
.................... { 
....................    float32 y, res, r, y2; 
....................    #if defined(__PCD__) 
....................    unsigned int8  data1,data2; 
....................    #endif 
....................    signed int8 n; 
....................    #ifdef _ERRNO 
....................    if(x <0) 
....................    { 
....................       errno=EDOM; 
....................    } 
....................    if(x ==0) 
....................    { 
....................       errno=ERANGE; 
....................       return(0); 
....................    } 
....................    #endif 
....................    y = x; 
*
1A02:  MOVFF  10E,112
1A06:  MOVFF  10D,111
1A0A:  MOVFF  10C,110
1A0E:  MOVFF  10B,10F
....................  
....................    if (y != 1.0) 
1A12:  MOVFF  112,123
1A16:  MOVFF  111,122
1A1A:  MOVFF  110,121
1A1E:  MOVFF  10F,120
1A22:  MOVLB  1
1A24:  CLRF   x27
1A26:  CLRF   x26
1A28:  CLRF   x25
1A2A:  MOVLW  7F
1A2C:  MOVWF  x24
1A2E:  MOVLB  0
1A30:  RCALL  189E
1A32:  BTFSC  FD8.2
1A34:  BRA    1EB6
....................    { 
.................... #if !defined(__PCD__) 
....................     *((unsigned int8 *)(&y)) = 0x7E;  
1A36:  MOVLW  01
1A38:  MOVLB  1
1A3A:  MOVWF  x21
1A3C:  MOVLW  0F
1A3E:  MOVWF  FE9
1A40:  MOVFF  121,FEA
1A44:  MOVLW  7E
1A46:  MOVWF  FEF
.................... #endif 
....................  
.................... #if defined(__PCD__) // Takes care of IEEE format 
....................    data2 = *(((unsigned int8 *)(&y))+3); 
....................    *(((unsigned int8 *)(&y))+3) = 0x3F; 
....................    data1 = *(((unsigned int8 *)(&y))+2); 
....................    bit_clear(data1,7); 
....................    *(((unsigned int8 *)(&y))+2) = data1; 
....................    if(bit_test(data2,7)) 
....................    bit_set(*(((unsigned int8 *)(&y))+3),7); 
.................... #endif 
....................  
....................       y = (y - 1.0)/(y + 1.0); 
1A48:  BSF    FD8.1
1A4A:  MOVFF  112,127
1A4E:  MOVFF  111,126
1A52:  MOVFF  110,125
1A56:  MOVFF  10F,124
1A5A:  CLRF   x2B
1A5C:  CLRF   x2A
1A5E:  CLRF   x29
1A60:  MOVLW  7F
1A62:  MOVWF  x28
1A64:  MOVLB  0
1A66:  CALL   0F3A
1A6A:  MOVFF  00,120
1A6E:  MOVFF  01,121
1A72:  MOVFF  02,122
1A76:  MOVFF  03,123
1A7A:  BCF    FD8.1
1A7C:  MOVFF  112,127
1A80:  MOVFF  111,126
1A84:  MOVFF  110,125
1A88:  MOVFF  10F,124
1A8C:  MOVLB  1
1A8E:  CLRF   x2B
1A90:  CLRF   x2A
1A92:  CLRF   x29
1A94:  MOVLW  7F
1A96:  MOVWF  x28
1A98:  MOVLB  0
1A9A:  CALL   0F3A
1A9E:  MOVFF  123,127
1AA2:  MOVFF  122,126
1AA6:  MOVFF  121,125
1AAA:  MOVFF  120,124
1AAE:  MOVFF  03,12B
1AB2:  MOVFF  02,12A
1AB6:  MOVFF  01,129
1ABA:  MOVFF  00,128
1ABE:  CALL   0DDC
1AC2:  MOVFF  03,112
1AC6:  MOVFF  02,111
1ACA:  MOVFF  01,110
1ACE:  MOVFF  00,10F
....................  
....................       y2=y*y; 
1AD2:  MOVFF  112,123
1AD6:  MOVFF  111,122
1ADA:  MOVFF  110,121
1ADE:  MOVFF  10F,120
1AE2:  MOVFF  112,127
1AE6:  MOVFF  111,126
1AEA:  MOVFF  110,125
1AEE:  MOVFF  10F,124
1AF2:  RCALL  1532
1AF4:  MOVFF  03,11E
1AF8:  MOVFF  02,11D
1AFC:  MOVFF  01,11C
1B00:  MOVFF  00,11B
....................  
....................       res = pl[0]*y2 + pl[1]; 
1B04:  MOVLW  BC
1B06:  MOVLB  1
1B08:  MOVWF  x23
1B0A:  MOVLW  24
1B0C:  MOVWF  x22
1B0E:  MOVLW  67
1B10:  MOVWF  x21
1B12:  MOVLW  7D
1B14:  MOVWF  x20
1B16:  MOVFF  11E,127
1B1A:  MOVFF  11D,126
1B1E:  MOVFF  11C,125
1B22:  MOVFF  11B,124
1B26:  MOVLB  0
1B28:  RCALL  1532
1B2A:  MOVFF  00,120
1B2E:  MOVFF  01,121
1B32:  MOVFF  02,122
1B36:  MOVFF  03,123
1B3A:  BCF    FD8.1
1B3C:  MOVFF  03,127
1B40:  MOVFF  02,126
1B44:  MOVFF  01,125
1B48:  MOVFF  00,124
1B4C:  MOVLW  E3
1B4E:  MOVLB  1
1B50:  MOVWF  x2B
1B52:  MOVLW  E4
1B54:  MOVWF  x2A
1B56:  MOVLW  90
1B58:  MOVWF  x29
1B5A:  MOVLW  82
1B5C:  MOVWF  x28
1B5E:  MOVLB  0
1B60:  CALL   0F3A
1B64:  MOVFF  03,116
1B68:  MOVFF  02,115
1B6C:  MOVFF  01,114
1B70:  MOVFF  00,113
....................       res = res*y2 + pl[2]; 
1B74:  MOVFF  116,123
1B78:  MOVFF  115,122
1B7C:  MOVFF  114,121
1B80:  MOVFF  113,120
1B84:  MOVFF  11E,127
1B88:  MOVFF  11D,126
1B8C:  MOVFF  11C,125
1B90:  MOVFF  11B,124
1B94:  RCALL  1532
1B96:  MOVFF  00,120
1B9A:  MOVFF  01,121
1B9E:  MOVFF  02,122
1BA2:  MOVFF  03,123
1BA6:  BCF    FD8.1
1BA8:  MOVFF  03,127
1BAC:  MOVFF  02,126
1BB0:  MOVFF  01,125
1BB4:  MOVFF  00,124
1BB8:  MOVLW  1C
1BBA:  MOVLB  1
1BBC:  MOVWF  x2B
1BBE:  MOVLW  87
1BC0:  MOVWF  x2A
1BC2:  MOVLW  57
1BC4:  MOVWF  x29
1BC6:  MOVLW  83
1BC8:  MOVWF  x28
1BCA:  MOVLB  0
1BCC:  CALL   0F3A
1BD0:  MOVFF  03,116
1BD4:  MOVFF  02,115
1BD8:  MOVFF  01,114
1BDC:  MOVFF  00,113
....................       res = res*y2 + pl[3]; 
1BE0:  MOVFF  116,123
1BE4:  MOVFF  115,122
1BE8:  MOVFF  114,121
1BEC:  MOVFF  113,120
1BF0:  MOVFF  11E,127
1BF4:  MOVFF  11D,126
1BF8:  MOVFF  11C,125
1BFC:  MOVFF  11B,124
1C00:  RCALL  1532
1C02:  MOVFF  00,120
1C06:  MOVFF  01,121
1C0A:  MOVFF  02,122
1C0E:  MOVFF  03,123
1C12:  BCF    FD8.1
1C14:  MOVFF  03,127
1C18:  MOVFF  02,126
1C1C:  MOVFF  01,125
1C20:  MOVFF  00,124
1C24:  MOVLW  AB
1C26:  MOVLB  1
1C28:  MOVWF  x2B
1C2A:  MOVLW  E1
1C2C:  MOVWF  x2A
1C2E:  MOVLW  9E
1C30:  MOVWF  x29
1C32:  MOVLW  83
1C34:  MOVWF  x28
1C36:  MOVLB  0
1C38:  CALL   0F3A
1C3C:  MOVFF  03,116
1C40:  MOVFF  02,115
1C44:  MOVFF  01,114
1C48:  MOVFF  00,113
....................  
....................       r = ql[0]*y2 + ql[1]; 
1C4C:  MOVLB  1
1C4E:  CLRF   x23
1C50:  CLRF   x22
1C52:  CLRF   x21
1C54:  MOVLW  7F
1C56:  MOVWF  x20
1C58:  MOVFF  11E,127
1C5C:  MOVFF  11D,126
1C60:  MOVFF  11C,125
1C64:  MOVFF  11B,124
1C68:  MOVLB  0
1C6A:  RCALL  1532
1C6C:  MOVFF  00,120
1C70:  MOVFF  01,121
1C74:  MOVFF  02,122
1C78:  MOVFF  03,123
1C7C:  BCF    FD8.1
1C7E:  MOVFF  03,127
1C82:  MOVFF  02,126
1C86:  MOVFF  01,125
1C8A:  MOVFF  00,124
1C8E:  MOVLW  B4
1C90:  MOVLB  1
1C92:  MOVWF  x2B
1C94:  MOVLW  2A
1C96:  MOVWF  x2A
1C98:  MOVLW  82
1C9A:  MOVWF  x29
1C9C:  MOVWF  x28
1C9E:  MOVLB  0
1CA0:  CALL   0F3A
1CA4:  MOVFF  03,11A
1CA8:  MOVFF  02,119
1CAC:  MOVFF  01,118
1CB0:  MOVFF  00,117
....................       r = r*y2 + ql[2]; 
1CB4:  MOVFF  11A,123
1CB8:  MOVFF  119,122
1CBC:  MOVFF  118,121
1CC0:  MOVFF  117,120
1CC4:  MOVFF  11E,127
1CC8:  MOVFF  11D,126
1CCC:  MOVFF  11C,125
1CD0:  MOVFF  11B,124
1CD4:  RCALL  1532
1CD6:  MOVFF  00,120
1CDA:  MOVFF  01,121
1CDE:  MOVFF  02,122
1CE2:  MOVFF  03,123
1CE6:  BCF    FD8.1
1CE8:  MOVFF  03,127
1CEC:  MOVFF  02,126
1CF0:  MOVFF  01,125
1CF4:  MOVFF  00,124
1CF8:  MOVLW  80
1CFA:  MOVLB  1
1CFC:  MOVWF  x2B
1CFE:  MOVLW  3E
1D00:  MOVWF  x2A
1D02:  MOVLW  06
1D04:  MOVWF  x29
1D06:  MOVLW  83
1D08:  MOVWF  x28
1D0A:  MOVLB  0
1D0C:  CALL   0F3A
1D10:  MOVFF  03,11A
1D14:  MOVFF  02,119
1D18:  MOVFF  01,118
1D1C:  MOVFF  00,117
....................       r = r*y2 + ql[3]; 
1D20:  MOVFF  11A,123
1D24:  MOVFF  119,122
1D28:  MOVFF  118,121
1D2C:  MOVFF  117,120
1D30:  MOVFF  11E,127
1D34:  MOVFF  11D,126
1D38:  MOVFF  11C,125
1D3C:  MOVFF  11B,124
1D40:  CALL   1532
1D44:  MOVFF  00,120
1D48:  MOVFF  01,121
1D4C:  MOVFF  02,122
1D50:  MOVFF  03,123
1D54:  BCF    FD8.1
1D56:  MOVFF  03,127
1D5A:  MOVFF  02,126
1D5E:  MOVFF  01,125
1D62:  MOVFF  00,124
1D66:  MOVLW  AB
1D68:  MOVLB  1
1D6A:  MOVWF  x2B
1D6C:  MOVLW  E1
1D6E:  MOVWF  x2A
1D70:  MOVLW  9E
1D72:  MOVWF  x29
1D74:  MOVLW  82
1D76:  MOVWF  x28
1D78:  MOVLB  0
1D7A:  CALL   0F3A
1D7E:  MOVFF  03,11A
1D82:  MOVFF  02,119
1D86:  MOVFF  01,118
1D8A:  MOVFF  00,117
....................  
....................       res = y*res/r; 
1D8E:  MOVFF  112,123
1D92:  MOVFF  111,122
1D96:  MOVFF  110,121
1D9A:  MOVFF  10F,120
1D9E:  MOVFF  116,127
1DA2:  MOVFF  115,126
1DA6:  MOVFF  114,125
1DAA:  MOVFF  113,124
1DAE:  CALL   1532
1DB2:  MOVFF  00,120
1DB6:  MOVFF  01,121
1DBA:  MOVFF  02,122
1DBE:  MOVFF  03,123
1DC2:  MOVFF  03,127
1DC6:  MOVFF  02,126
1DCA:  MOVFF  01,125
1DCE:  MOVFF  00,124
1DD2:  MOVFF  11A,12B
1DD6:  MOVFF  119,12A
1DDA:  MOVFF  118,129
1DDE:  MOVFF  117,128
1DE2:  CALL   0DDC
1DE6:  MOVFF  03,116
1DEA:  MOVFF  02,115
1DEE:  MOVFF  01,114
1DF2:  MOVFF  00,113
.................... #if !defined(__PCD__) 
....................       n = *((unsigned int8 *)(&x)) - 0x7E; 
1DF6:  MOVLW  01
1DF8:  MOVLB  1
1DFA:  MOVWF  x21
1DFC:  MOVLW  0B
1DFE:  MOVWF  FE9
1E00:  MOVFF  121,FEA
1E04:  MOVLW  7E
1E06:  SUBWF  FEF,W
1E08:  MOVWF  x1F
.................... #endif 
.................... #if defined(__PCD__)  
....................     data1 = *(((unsigned int8 *)(&x)+3)); 
....................     rotate_left(&data1,1); 
....................     data2 = *(((unsigned int8 *)(&x)+2)); 
....................     if(bit_test (data2,7)) 
....................       bit_set(data1,0); 
....................     n = data1 - 0x7E; 
.................... #endif 
....................  
....................       if (n<0)  
1E0A:  BTFSC  x1F.7
1E0C:  BRA    1E10
1E0E:  BRA    1E38
....................          r = -(float32)-n; 
1E10:  MOVLW  00
1E12:  BSF    FD8.0
1E14:  SUBFWB x1F,W
1E16:  CLRF   x21
1E18:  MOVWF  x20
1E1A:  BTFSC  x20.7
1E1C:  DECF   x21,F
1E1E:  MOVLB  0
1E20:  RCALL  19B2
1E22:  MOVFF  00,117
1E26:  MOVF   01,W
1E28:  XORLW  80
1E2A:  MOVLB  1
1E2C:  MOVWF  x18
1E2E:  MOVFF  02,119
1E32:  MOVFF  03,11A
....................       else 
1E36:  BRA    1E58
....................          r = (float32)n; 
1E38:  CLRF   x21
1E3A:  MOVFF  11F,120
1E3E:  BTFSC  x20.7
1E40:  DECF   x21,F
1E42:  MOVLB  0
1E44:  RCALL  19B2
1E46:  MOVFF  03,11A
1E4A:  MOVFF  02,119
1E4E:  MOVFF  01,118
1E52:  MOVFF  00,117
1E56:  MOVLB  1
....................  
....................       res += r*LN2; 
1E58:  MOVFF  11A,123
1E5C:  MOVFF  119,122
1E60:  MOVFF  118,121
1E64:  MOVFF  117,120
1E68:  MOVLW  18
1E6A:  MOVWF  x27
1E6C:  MOVLW  72
1E6E:  MOVWF  x26
1E70:  MOVLW  31
1E72:  MOVWF  x25
1E74:  MOVLW  7E
1E76:  MOVWF  x24
1E78:  MOVLB  0
1E7A:  CALL   1532
1E7E:  BCF    FD8.1
1E80:  MOVFF  116,127
1E84:  MOVFF  115,126
1E88:  MOVFF  114,125
1E8C:  MOVFF  113,124
1E90:  MOVFF  03,12B
1E94:  MOVFF  02,12A
1E98:  MOVFF  01,129
1E9C:  MOVFF  00,128
1EA0:  CALL   0F3A
1EA4:  MOVFF  03,116
1EA8:  MOVFF  02,115
1EAC:  MOVFF  01,114
1EB0:  MOVFF  00,113
....................    } 
....................  
....................    else 
1EB4:  BRA    1EC2
....................       res = 0.0; 
1EB6:  MOVLB  1
1EB8:  CLRF   x16
1EBA:  CLRF   x15
1EBC:  CLRF   x14
1EBE:  CLRF   x13
1EC0:  MOVLB  0
....................  
....................    return(res); 
1EC2:  MOVFF  113,00
1EC6:  MOVFF  114,01
1ECA:  MOVFF  115,02
1ECE:  MOVFF  116,03
.................... } 
1ED2:  GOTO   20AE (RETURN)
....................  
.................... //Overloaded function for log() for PCD 
.................... // Overloaded function log() for data type - Float48 
.................... #if defined(__PCD__) 
.................... float48 log(float48 x) 
.................... { 
....................    float48 y, res, r, y2; 
....................    unsigned int8  data1,data2; 
....................    signed int8 n; 
....................    #ifdef _ERRNO 
....................    if(x <0) 
....................    { 
....................       errno=EDOM; 
....................    } 
....................    if(x ==0) 
....................    { 
....................       errno=ERANGE; 
....................       return(0); 
....................    } 
....................    #endif 
....................    y = x; 
....................  
....................    if (y != 1.0) 
....................    { 
....................     
....................    #if !defined(__PCD__) 
....................        *((unsigned int8 *)(&y)) = 0x7E;  
....................    #endif 
....................       data2 = *(((unsigned int8 *)(&y))+5); 
....................       *(((unsigned int8 *)(&y))+5) = 0x3F; 
....................       data1 = *(((unsigned int8 *)(&y))+4); 
....................       bit_clear(data1,7); 
....................       *(((unsigned int8 *)(&y))+4) = data1; 
....................    
....................       if(bit_test(data2,7)) 
....................          bit_set(*(((unsigned int8 *)(&y))+4),7); 
....................       y = (y - 1.0)/(y + 1.0); 
....................  
....................       y2=y*y; 
....................  
....................       res = pl[0]*y2 + pl[1]; 
....................       res = res*y2 + pl[2]; 
....................       res = res*y2 + pl[3]; 
....................  
....................       r = ql[0]*y2 + ql[1]; 
....................       r = r*y2 + ql[2]; 
....................       r = r*y2 + ql[3]; 
....................  
....................       res = y*res/r; 
....................  
....................     data1 = *(((unsigned int8 *)(&x)+5)); 
....................     rotate_left(&data1,1); 
....................     data2 = *(((unsigned int8 *)(&x)+4)); 
....................     if(bit_test (data2,7)) 
....................        bit_set(data1,0); 
....................       
....................     n = data1 - 0x7E; 
....................  
....................       if (n<0) 
....................          r = -(float48)-n; 
....................       else 
....................          r = (float48)n; 
....................  
....................       res += r*LN2; 
....................    } 
....................  
....................    else 
....................       res = 0.0; 
....................  
....................    return(res); 
.................... } 
....................  
.................... // Overloaded function log() for data type - Float48 
.................... #if defined(__PCD__) 
.................... float32 const pl_64[4] = {0.45145214, -9.0558803, 26.940971, -19.860189}; 
.................... float32 const ql_64[4] = {1.0000000,  -8.1354259, 16.780517, -9.9300943}; 
.................... #endif 
.................... float64 log(float64 x) 
.................... { 
....................    float64 y, res, r, y2; 
....................    unsigned int16  data1,data2; 
....................    unsigned int16 *p; 
....................    signed int16 n; 
....................    #ifdef _ERRNO 
....................    if(x <0) 
....................    { 
....................       errno=EDOM; 
....................    } 
....................    if(x ==0) 
....................    { 
....................       errno=ERANGE; 
....................       return(0); 
....................    } 
....................    #endif 
....................    y = x; 
....................  
....................    if (y != 1.0) 
....................    { 
....................    #if !defined(__PCD__) 
....................        *((unsigned int8 *)(&y)) = 0x7E;  
....................    #endif 
....................       p= (((unsigned int16 *)(&y))+3); 
....................       data1 = *p; 
....................       data2 = *p; 
....................       data1 = 0x3FE; 
....................       data1 = data1 <<4; 
....................       if(bit_test (data2,15)) 
....................       bit_set(data1,15); 
....................       data2 = data2 & 0x000F; 
....................       data1 ^=data2; 
....................  
....................       *p = data1; 
....................  
....................       y = (y - 1.0)/(y + 1.0); 
....................  
....................       y2=y*y; 
....................  
....................       res = pl_64[0]*y2 + pl_64[1]; 
....................       res = res*y2 + pl_64[2]; 
....................       res = res*y2 + pl_64[3]; 
....................  
....................       r = ql_64[0]*y2 + ql_64[1]; 
....................       r = r*y2 + ql_64[2]; 
....................       r = r*y2 + ql_64[3]; 
....................  
....................       res = y*res/r; 
....................   
....................       p= (((unsigned int16 *)(&x))+3); 
....................       data1 = *p; 
....................       bit_clear(data1,15); 
....................       data1 = data1 >>4;     
....................       n = data1 - 0x3FE; 
....................  
....................  
....................       if (n<0) 
....................          r = -(float64)-n; 
....................       else 
....................          r = (float64)n; 
....................  
....................       res += r*LN2; 
....................    } 
....................  
....................    else 
....................       res = 0.0; 
....................  
....................    return(res); 
.................... } 
.................... #endif 
....................  
....................  
.................... #define LN10 2.3025850929940456 
....................  
.................... //////////////////////////////////////////////////////////////////////////// 
.................... //   float log10(float x) 
.................... //////////////////////////////////////////////////////////////////////////// 
.................... // Description : returns the the log base 10 of x 
.................... // Date : N/A 
.................... // 
.................... float32 log10(float32 x) 
.................... { 
....................    float32 r; 
....................  
....................    r = log(x); 
....................    r = r/LN10; 
....................    return(r); 
.................... } 
....................  
.................... //Overloaded functions for log10() for PCD 
.................... // Overloaded function log10() for data type - Float48 
.................... #if defined(__PCD__) 
.................... float48 log10(float48 x) 
.................... { 
....................    float48 r; 
....................  
....................    r = log(x); 
....................    r = r/LN10; 
....................    return(r); 
.................... } 
....................  
.................... // Overloaded function log10() for data type - Float64 
.................... float64 log10(float64 x) 
.................... { 
....................    float64 r; 
....................  
....................    r = log(x); 
....................    r = r/LN10; 
....................    return(r); 
.................... } 
.................... #endif 
.................... //////////////////////////////////////////////////////////////////////////// 
.................... //   float modf(float x) 
.................... //////////////////////////////////////////////////////////////////////////// 
.................... // Description :breaks the argument value int integral and fractional parts, 
.................... // ach of which have the same sign as the argument.  It stores the integral part 
.................... // as a float in the object pointed to by the iptr 
.................... // Returns : returns the signed fractional part of value. 
.................... // Date : N/A 
.................... // 
....................  
.................... float32 modf(float32 value,float32 *iptr) 
.................... { 
....................    *iptr=(value < 0.0)? ceil(value): floor(value); 
....................    return(value - *iptr); 
.................... } 
.................... //Overloaded functions for modf() for PCD 
.................... // Overloaded function modf() for data type - Float48 
.................... #if defined(__PCD__) 
.................... float48 modf(float48 value,float48 *iptr) 
.................... { 
....................    *iptr=(value < 0.0)? ceil(value): floor(value); 
....................    return(value - *iptr); 
.................... } 
.................... // Overloaded function modf() for data type - Float64 
.................... float64 modf(float64 value,float64 *iptr) 
.................... { 
....................    *iptr=(value < 0.0)? ceil(value): floor(value); 
....................    return(value - *iptr); 
.................... } 
.................... #endif 
....................  
.................... //////////////////////////////////////////////////////////////////////////// 
.................... //   float pwr(float x,float y) 
.................... //////////////////////////////////////////////////////////////////////////// 
.................... // Description : returns the value (x^y) 
.................... // Date : N/A 
.................... // Note : 0 is returned when the function will generate an imaginary number 
.................... // 
.................... float32 pwr(float32 x,float32 y) 
.................... { 
....................    if(0 > x && fmod(y, 1) == 0) { 
....................       if(fmod(y, 2) == 0) { 
....................          return (exp(log(-x) * y)); 
....................       } else { 
....................          return (-exp(log(-x) * y)); 
....................       } 
....................    } else if(0 > x && fmod(y, 1) != 0) { 
....................       return 0; 
....................    } else { 
....................       if(x != 0 || 0 >= y) { 
....................          return (exp(log(x) * y)); 
....................       } 
....................    } 
.................... } 
.................... //Overloaded functions for pwr() for PCD 
.................... // Overloaded function pwr() for data type - Float48 
.................... #if defined(__PCD__) 
.................... float48 pwr(float48 x,float48 y) 
.................... { 
....................    if(0 > x && fmod(y, 1) == 0) { 
....................       if(fmod(y, 2) == 0) { 
....................          return (exp(log(-x) * y)); 
....................       } else { 
....................          return (-exp(log(-x) * y)); 
....................       } 
....................    } else if(0 > x && fmod(y, 1) != 0) { 
....................       return 0; 
....................    } else { 
....................       if(x != 0 || 0 >= y) { 
....................          return (exp(log(x) * y)); 
....................       } 
....................    } 
.................... } 
.................... // Overloaded function pwr() for data type - Float64 
.................... float64 pwr(float64 x,float64 y) 
.................... { 
....................    if(0 > x && fmod(y, 1) == 0) { 
....................       if(fmod(y, 2) == 0) { 
....................          return (exp(log(-x) * y)); 
....................       } else { 
....................          return (-exp(log(-x) * y)); 
....................       } 
....................    } else if(0 > x && fmod(y, 1) != 0) { 
....................       return 0; 
....................    } else { 
....................       if(x != 0 || 0 >= y) { 
....................          return (exp(log(x) * y)); 
....................       } 
....................    } 
.................... } 
.................... #endif 
....................  
.................... //////////////////// Power functions //////////////////// 
....................  
.................... //////////////////////////////////////////////////////////////////////////// 
.................... //   float pow(float x,float y) 
.................... //////////////////////////////////////////////////////////////////////////// 
.................... // Description : returns the value (x^y) 
.................... // Date : N/A 
.................... // Note : 0 is returned when the function will generate an imaginary number 
.................... // 
.................... float32 pow(float32 x,float32 y) 
.................... { 
....................    if(0 > x && fmod(y, 1) == 0) { 
....................       if(fmod(y, 2) == 0) { 
....................          return (exp(log(-x) * y)); 
....................       } else { 
....................          return (-exp(log(-x) * y)); 
....................       } 
....................    } else if(0 > x && fmod(y, 1) != 0) { 
....................       return 0; 
....................    } else { 
....................       if(x != 0 || 0 >= y) { 
....................          return (exp(log(x) * y)); 
....................       } 
....................    } 
.................... } 
.................... //Overloaded functions for pow() for PCD 
.................... // Overloaded function for pow() data type - Float48 
.................... #if defined(__PCD__) 
.................... float48 pow(float48 x,float48 y) 
.................... { 
....................    if(0 > x && fmod(y, 1) == 0) { 
....................       if(fmod(y, 2) == 0) { 
....................          return (exp(log(-x) * y)); 
....................       } else { 
....................          return (-exp(log(-x) * y)); 
....................       } 
....................    } else if(0 > x && fmod(y, 1) != 0) { 
....................       return 0; 
....................    } else { 
....................       if(x != 0 || 0 >= y) { 
....................          return (exp(log(x) * y)); 
....................       } 
....................    } 
.................... } 
....................  
.................... // Overloaded function pow() for data type - Float64 
.................... float64 pow(float64 x,float64 y) 
.................... { 
....................    if(0 > x && fmod(y, 1) == 0) { 
....................       if(fmod(y, 2) == 0) { 
....................          return (exp(log(-x) * y)); 
....................       } else { 
....................          return (-exp(log(-x) * y)); 
....................       } 
....................    } else if(0 > x && fmod(y, 1) != 0) { 
....................       return 0; 
....................    } else { 
....................       if(x != 0 || 0 >= y) { 
....................          return (exp(log(x) * y)); 
....................       } 
....................    } 
.................... } 
.................... #endif 
....................  
.................... //////////////////////////////////////////////////////////////////////////// 
.................... //   float sqrt(float x) 
.................... //////////////////////////////////////////////////////////////////////////// 
.................... // Description : returns the square root of x 
.................... // Date : N/A 
.................... // 
.................... float32 sqrt(float32 x) 
.................... { 
....................    float32 y, res; 
....................    #if defined(__PCD__) 
....................    unsigned int16 data1,data2; 
....................    #endif 
....................    BYTE *p; 
....................  
....................    #ifdef _ERRNO 
....................    if(x < 0) 
....................    { 
....................       errno=EDOM; 
....................    } 
....................    #endif 
....................  
....................    if( x<=0.0) 
....................       return(0.0); 
....................  
....................    y=x; 
....................     
....................    #if !defined(__PCD__) 
....................     p=&y; 
....................    (*p)=(BYTE)((((unsigned int16)(*p)) + 127) >> 1); 
....................    #endif 
....................     
....................    #if defined(__PCD__) 
....................     p = (((unsigned int8 *)(&y))+3); 
....................     data1 = *(((unsigned int8 *)(&y))+3); 
....................     data2 = *(((unsigned int8 *)(&y))+2); 
....................     rotate_left(&data1,1);     
....................     if(bit_test(data2,7))     
....................     bit_set(data1,0);     
....................     data1 = ((data1+127) >>1); 
....................     bit_clear(data2,7); 
....................     if(bit_test(data1,0)) 
....................     bit_set(data2,7); 
....................     data1 = data1 >>1; 
....................     *(((unsigned int8 *)(&y))+3) = data1; 
....................     *(((unsigned int8 *)(&y))+2) = data2; 
....................      
....................   #endif 
....................  
....................    do { 
....................       res=y; 
....................       y+=(x/y); 
....................  
....................       #if !defined(__PCD__) 
....................      (*p)--; 
....................    #endif 
....................     
....................    #if defined(__PCD__) 
....................     data1 = *(((unsigned int8 *)(&y))+3); 
....................     data2 = *(((unsigned int8 *)(&y))+2); 
....................     rotate_left(&data1,1); 
....................     if(bit_test(data2,7)) 
....................     bit_set(data1,0);     
....................     data1--; 
....................     bit_clear(data2,7); 
....................     if(bit_test(data1,0)) 
....................     bit_set(data2,7); 
....................     data1 = data1 >>1; 
....................     *(((unsigned int8 *)(&y))+3) = data1; 
....................     *(((unsigned int8 *)(&y))+2) = data2; 
....................      
....................   #endif 
....................    } while(res != y); 
....................  
....................    return(res); 
.................... } 
.................... //Overloaded functions for sqrt() for PCD 
.................... // Overloaded function sqrt() for data type - Float48 
.................... #if defined(__PCD__) 
.................... float48 sqrt(float48 x) 
.................... { 
....................    float48 y, res; 
....................    unsigned int16 data1,data2; 
....................    BYTE *p; 
....................  
....................    #ifdef _ERRNO 
....................    if(x < 0) 
....................    { 
....................       errno=EDOM; 
....................    } 
....................    #endif 
....................  
....................    if( x<=0.0) 
....................       return(0.0); 
....................  
....................    y=x; 
....................     
....................    #if !defined(__PCD__) 
....................     p=&y; 
....................    (*p)=(BYTE)((((unsigned int16)(*p)) + 127) >> 1); 
....................    #endif 
....................     
....................    #if defined(__PCD__) 
....................     p = (((unsigned int8 *)(&y))+5); 
....................     data1 = *(((unsigned int8 *)(&y))+5); 
....................     data2 = *(((unsigned int8 *)(&y))+4); 
....................     rotate_left(&data1,1); 
....................     if(bit_test(data2,7)) 
....................     bit_set(data1,0);     
....................     data1 = ((data1+127) >>1); 
....................     bit_clear(data2,7); 
....................     if(bit_test(data1,0)) 
....................     bit_set(data2,7); 
....................     data1 = data1 >>1; 
....................     *(((unsigned int8 *)(&y))+5) = data1; 
....................     *(((unsigned int8 *)(&y))+4) = data2; 
....................      
....................   #endif 
....................  
....................    do { 
....................       res=y; 
....................       y+=(x/y); 
....................  
....................       #if !defined(__PCD__) 
....................      (*p)--; 
....................    #endif 
....................     
....................     data1 = *(((unsigned int8 *)(&y))+5); 
....................     data2 = *(((unsigned int8 *)(&y))+4); 
....................     rotate_left(&data1,1); 
....................     if(bit_test(data2,7)) 
....................     bit_set(data1,0);     
....................     data1--; 
....................     bit_clear(data2,7); 
....................     if(bit_test(data1,0)) 
....................     bit_set(data2,7); 
....................     data1 = data1 >>1; 
....................     *(((unsigned int8 *)(&y))+5) = data1; 
....................     *(((unsigned int8 *)(&y))+4) = data2; 
....................      
....................    } while(res != y); 
....................  
....................    return(res); 
.................... } 
....................  
.................... // Overloaded function sqrt() for data type - Float64 
.................... float64 sqrt(float64 x) 
.................... { 
....................    float64 y, res; 
....................    unsigned int16 *p; 
....................    unsigned int16 temp1,temp2; 
....................  
....................    #ifdef _ERRNO 
....................    if(x < 0) 
....................    { 
....................       errno=EDOM; 
....................    } 
....................    #endif 
....................  
....................    if( x<=0.0) 
....................       return(0.0); 
....................  
....................    y=x; 
....................    p= (((unsigned int16 *)(&y))+3); 
....................    temp1 = *p; 
....................    temp2 = *p; 
....................    bit_clear(temp1,15); 
....................    temp1 = (temp1>>4)+1023; 
....................    temp1 = temp1 >> 1; 
....................    temp1 = (temp1<<4) & 0xFFF0; 
....................    if(bit_test(temp2,15)) 
....................    bit_set(temp1,15); 
....................    temp2 = temp2 & 0x000F; 
....................    temp1 ^= temp2; 
....................     
....................    (*p) = temp1; 
....................     
....................    do { 
....................       res=y; 
....................       y+=(x/y); 
....................      temp1 = *p; 
....................      temp2 = *p; 
....................      bit_clear(temp1,15); 
....................      temp1 = (temp1>>4); 
....................      temp1--; 
....................      temp1 = (temp1<<4) & 0xFFF0; 
....................      if(bit_test(temp2,15)) 
....................      bit_set(temp1,15); 
....................      temp2 = temp2 & 0x000F; 
....................      temp1 ^= temp2; 
....................      (*p) = temp1; 
....................  
....................    } while(res != y); 
....................  
....................    return(res); 
.................... } 
.................... #endif 
....................  
.................... ////////////////////////////// Trig Functions ////////////////////////////// 
.................... #ifdef PI_DIV_BY_TWO 
.................... #undef PI_DIV_BY_TWO 
.................... #endif 
.................... #define PI_DIV_BY_TWO   1.5707963267948966 
.................... #ifdef TWOBYPI 
.................... #undef TWOBYPI 
.................... #define TWOBYPI          0.6366197723675813 
.................... #endif 
.................... //////////////////////////////////////////////////////////////////////////// 
.................... //   float cos(float x) 
.................... //////////////////////////////////////////////////////////////////////////// 
.................... // Description : returns the cosine value of the angle x, which is in radian 
.................... // Date : 9/20/2001 
.................... // 
.................... float32 cos(float32 x) 
.................... { 
....................    float32 y, t, t2 = 1.0; 
....................    unsigned int8 quad, i; 
....................    float32 frac; 
....................    float32 p[6] = {                    //by the series definition for cosine 
....................       -0.5,                            // sum ( ( (-1)^n * x^2n )/(2n)! ) 
....................        0.04166666666667, 
....................       -0.00138888888889, 
....................        0.00002480158730, 
....................       -0.00000027557319, 
....................        0.00000000208767, 
....................       //-0.00000000001147, 
....................       // 0.00000000000005 
....................    }; 
....................  
....................    if (x < 0) x = -x;                  // absolute value of input 
....................  
....................    quad = (unsigned int8)(x / PI_DIV_BY_TWO);    // quadrant 
....................    frac = (x / PI_DIV_BY_TWO) - quad;  // fractional part of input 
....................    quad = quad % 4;                    // quadrant (0 to 3) 
....................  
....................    if (quad == 0 || quad == 2) 
....................       t = frac * PI_DIV_BY_TWO; 
....................    else if (quad == 1) 
....................       t = (1-frac) * PI_DIV_BY_TWO; 
....................    else // should be 3 
....................       t = (frac-1) * PI_DIV_BY_TWO; 
....................  
....................    y = 1.0; 
....................    t = t * t; 
....................    for (i = 0; i <= 5; i++) 
....................    { 
....................       t2 = t2 * t; 
....................       y = y + p[i] * t2; 
....................    } 
....................  
....................    if (quad == 2 || quad == 1) 
....................       y = -y;  // correct sign 
....................  
....................    return (y); 
.................... } 
....................  
....................  
.................... //Overloaded functions for cos() for PCD 
.................... // Overloaded function cos() for data type - Float48 
.................... #if defined(__PCD__) 
.................... float48 cos(float48 x) 
.................... { 
....................    float48 y, t, t2 = 1.0; 
....................    unsigned int8 quad, i; 
....................    float48 frac; 
....................    float48 p[6] = {                    //by the series definition for cosine 
....................       -0.5,                            // sum ( ( (-1)^n * x^2n )/(2n)! ) 
....................        0.04166666666667, 
....................       -0.00138888888889, 
....................        0.00002480158730, 
....................       -0.00000027557319, 
....................        0.00000000208767, 
....................       //-0.00000000001147, 
....................       // 0.00000000000005 
....................    }; 
....................  
....................    if (x < 0) x = -x;                  // absolute value of input 
....................  
....................    quad = (unsigned int8)(x / PI_DIV_BY_TWO);    // quadrant 
....................    frac = (x / PI_DIV_BY_TWO) - quad;  // fractional part of input 
....................    quad = quad % 4;                    // quadrant (0 to 3) 
....................  
....................    if (quad == 0 || quad == 2) 
....................       t = frac * PI_DIV_BY_TWO; 
....................    else if (quad == 1) 
....................       t = (1-frac) * PI_DIV_BY_TWO; 
....................    else // should be 3 
....................       t = (frac-1) * PI_DIV_BY_TWO; 
....................  
....................    y = 0.999999999781; 
....................    t = t * t; 
....................    for (i = 0; i <= 5; i++) 
....................    { 
....................       t2 = t2 * t; 
....................       y = y + p[i] * t2; 
....................    } 
....................  
....................    if (quad == 2 || quad == 1) 
....................       y = -y;  // correct sign 
....................  
....................    return (y); 
.................... } 
....................  
.................... // Overloaded function cos() for data type - Float48 
.................... float64 cos(float64 x) 
.................... { 
....................    float64 y, t, t2 = 1.0; 
....................    unsigned int8 quad, i; 
....................    float64 frac; 
....................    float64 p[6] = {                    //by the series definition for cosine 
....................       -0.5,                            // sum ( ( (-1)^n * x^2n )/(2n)! ) 
....................        0.04166666666667, 
....................       -0.00138888888889, 
....................        0.00002480158730, 
....................       -0.00000027557319, 
....................        0.00000000208767, 
....................       //-0.00000000001147, 
....................       // 0.00000000000005 
....................    }; 
....................  
....................    if (x < 0) x = -x;                  // absolute value of input 
....................  
....................    quad = (unsigned int8)(x / PI_DIV_BY_TWO);    // quadrant 
....................    frac = (x / PI_DIV_BY_TWO) - quad;  // fractional part of input 
....................    quad = quad % 4;                    // quadrant (0 to 3) 
....................  
....................    if (quad == 0 || quad == 2) 
....................       t = frac * PI_DIV_BY_TWO; 
....................    else if (quad == 1) 
....................       t = (1-frac) * PI_DIV_BY_TWO; 
....................    else // should be 3 
....................       t = (frac-1) * PI_DIV_BY_TWO; 
....................  
....................    y = 0.999999999781; 
....................    t = t * t; 
....................    for (i = 0; i <= 5; i++) 
....................    { 
....................       t2 = t2 * t; 
....................       y = y + p[i] * t2; 
....................    } 
....................  
....................    if (quad == 2 || quad == 1) 
....................       y = -y;  // correct sign 
....................  
....................    return (y); 
.................... } 
....................  
.................... #endif 
....................  
.................... //////////////////////////////////////////////////////////////////////////// 
.................... //   float sin(float x) 
.................... //////////////////////////////////////////////////////////////////////////// 
.................... // Description : returns the sine value of the angle x, which is in radian 
.................... // Date : 9/20/2001 
.................... // 
.................... float32 sin(float32 x) 
.................... { 
....................    return cos(x - PI_DIV_BY_TWO); 
.................... } 
....................  
.................... //Overloaded functions for sin() for PCD 
.................... // Overloaded function sin() for data type - Float48 
.................... #if defined(__PCD__) 
.................... float48 sin(float48 x) 
.................... { 
....................    return cos(x - PI_DIV_BY_TWO); 
.................... } 
....................  
.................... // Overloaded function sin() for data type - Float48 
.................... float64 sin(float64 x) 
.................... { 
....................    return cos(x - PI_DIV_BY_TWO); 
.................... } 
.................... #endif 
....................  
.................... //////////////////////////////////////////////////////////////////////////// 
.................... //   float tan(float x) 
.................... //////////////////////////////////////////////////////////////////////////// 
.................... // Description : returns the tangent value of the angle x, which is in radian 
.................... // Date : 9/20/2001 
.................... // 
.................... float32 tan(float32 x) 
.................... { 
....................    float32 c, s; 
....................  
....................    c = cos(x); 
....................    if (c == 0.0) 
....................       return (1.0e+36); 
....................  
....................    s = sin(x); 
....................    return(s/c); 
.................... } 
.................... //Overloaded functions for tan() for PCD 
.................... // Overloaded function tan() for data type - Float48 
.................... #if defined(__PCD__) 
.................... float48 tan(float48 x) 
.................... { 
....................    float48 c, s; 
....................  
....................    c = cos(x); 
....................    if (c == 0.0) 
....................       return (1.0e+36); 
....................  
....................    s = sin(x); 
....................    return(s/c); 
.................... } 
....................  
.................... // Overloaded function tan() for data type - Float48 
.................... float64 tan(float64 x) 
.................... { 
....................    float64 c, s; 
....................  
....................    c = cos(x); 
....................    if (c == 0.0) 
....................       return (1.0e+36); 
....................  
....................    s = sin(x); 
....................    return(s/c); 
.................... } 
.................... #endif 
....................  
.................... float32 const pas[3] = {0.49559947, -4.6145309, 5.6036290}; 
.................... float32 const qas[3] = {1.0000000,  -5.5484666, 5.6036290}; 
....................  
.................... float32 ASIN_COS(float32 x, unsigned int8 n) 
.................... { 
....................    float32 y, res, r, y2; 
....................    int1 s; 
....................    #ifdef _ERRNO 
....................    if(x <-1 || x > 1) 
....................    { 
....................       errno=EDOM; 
....................    } 
....................    #endif 
....................    s = 0; 
....................    y = x; 
....................  
....................    if (x < 0) 
....................    { 
....................       s = 1; 
....................       y = -y; 
....................    } 
....................  
....................    if (y > 0.5) 
....................    { 
....................       y = sqrt((1.0 - y)/2.0); 
....................       n += 2; 
....................    } 
....................  
....................    y2=y*y; 
....................  
....................    res = pas[0]*y2 + pas[1]; 
....................    res = res*y2 + pas[2]; 
....................  
....................    r = qas[0]*y2 + qas[1]; 
....................    r = r*y2 + qas[2]; 
....................  
....................    res = y*res/r; 
....................  
....................    if (n & 2)     // |x| > 0.5 
....................       res = PI_DIV_BY_TWO - 2.0*res; 
....................    if (s) 
....................       res = -res; 
....................    if (n & 1)           // take arccos 
....................       res = PI_DIV_BY_TWO - res; 
....................  
....................    return(res); 
.................... } 
....................  
.................... //Overloaded functions for ASIN_COS() for PCD 
.................... // Overloaded function ASIN_COS() for data type - Float48 
.................... #if defined(__PCD__) 
.................... float48 ASIN_COS(float48 x, unsigned int8 n) 
.................... { 
....................    float48 y, res, r, y2; 
....................    int1 s; 
....................    #ifdef _ERRNO 
....................    if(x <-1 || x > 1) 
....................    { 
....................       errno=EDOM; 
....................    } 
....................    #endif 
....................    s = 0; 
....................    y = x; 
....................  
....................    if (x < 0) 
....................    { 
....................       s = 1; 
....................       y = -y; 
....................    } 
....................  
....................    if (y > 0.5) 
....................    { 
....................       y = sqrt((1.0 - y)/2.0); 
....................       n += 2; 
....................    } 
....................  
....................    y2=y*y; 
....................  
....................    res = pas[0]*y2 + pas[1]; 
....................    res = res*y2 + pas[2]; 
....................  
....................    r = qas[0]*y2 + qas[1]; 
....................    r = r*y2 + qas[2]; 
....................  
....................    res = y*res/r; 
....................  
....................    if (n & 2)     // |x| > 0.5 
....................       res = PI_DIV_BY_TWO - 2.0*res; 
....................    if (s) 
....................       res = -res; 
....................    if (n & 1)           // take arccos 
....................       res = PI_DIV_BY_TWO - res; 
....................  
....................    return(res); 
.................... } 
....................  
.................... // Overloaded function ASIN_COS() for data type - Float64 
.................... float64 ASIN_COS(float64 x, unsigned int8 n) 
.................... { 
....................    float64 y, res, r, y2; 
....................    int1 s; 
....................    #ifdef _ERRNO 
....................    if(x <-1 || x > 1) 
....................    { 
....................       errno=EDOM; 
....................    } 
....................    #endif 
....................    s = 0; 
....................    y = x; 
....................  
....................    if (x < 0) 
....................    { 
....................       s = 1; 
....................       y = -y; 
....................    } 
....................  
....................    if (y > 0.5) 
....................    { 
....................       y = sqrt((1.0 - y)/2.0); 
....................       n += 2; 
....................    } 
....................  
....................    y2=y*y; 
....................  
....................    res = pas[0]*y2 + pas[1]; 
....................    res = res*y2 + pas[2]; 
....................  
....................    r = qas[0]*y2 + qas[1]; 
....................    r = r*y2 + qas[2]; 
....................  
....................    res = y*res/r; 
....................  
....................    if (n & 2)     // |x| > 0.5 
....................       res = PI_DIV_BY_TWO - 2.0*res; 
....................    if (s) 
....................       res = -res; 
....................    if (n & 1)           // take arccos 
....................       res = PI_DIV_BY_TWO - res; 
....................  
....................    return(res); 
.................... } 
.................... #endif 
....................  
.................... //////////////////////////////////////////////////////////////////////////// 
.................... //   float asin(float x) 
.................... //////////////////////////////////////////////////////////////////////////// 
.................... // Description : returns the arcsine value of the value x. 
.................... // Date : N/A 
.................... // 
.................... float32 asin(float32 x) 
.................... { 
....................    float32 r; 
....................  
....................    r = ASIN_COS(x, 0); 
....................    return(r); 
.................... } 
.................... //Overloaded functions for asin() for PCD 
.................... // Overloaded function asin() for data type - Float48 
.................... #if defined(__PCD__) 
.................... float48 asin(float48 x) 
.................... { 
....................    float48 r; 
....................  
....................    r = ASIN_COS(x, 0); 
....................    return(r); 
.................... } 
....................  
.................... // Overloaded function asin() for data type - Float64 
.................... float64 asin(float64 x) 
.................... { 
....................    float64 r; 
....................  
....................    r = ASIN_COS(x, 0); 
....................    return(r); 
.................... } 
.................... #endif 
....................  
.................... //////////////////////////////////////////////////////////////////////////// 
.................... //   float acos(float x) 
.................... //////////////////////////////////////////////////////////////////////////// 
.................... // Description : returns the arccosine value of the value x. 
.................... // Date : N/A 
.................... // 
.................... float32 acos(float32 x) 
.................... { 
....................    float32 r; 
....................  
....................    r = ASIN_COS(x, 1); 
....................    return(r); 
.................... } 
.................... //Overloaded functions for acos() for PCD 
.................... // Overloaded function acos() for data type - Float48 
.................... #if defined(__PCD__) 
.................... float48 acos(float48 x) 
.................... { 
....................    float48 r; 
....................  
....................    r = ASIN_COS(x, 1); 
....................    return(r); 
.................... } 
....................  
.................... // Overloaded function acos() for data type - Float64 
.................... float64 acos(float64 x) 
.................... { 
....................    float64 r; 
....................  
....................    r = ASIN_COS(x, 1); 
....................    return(r); 
.................... } 
.................... #endif 
....................  
.................... float32 const pat[4] = {0.17630401, 5.6710795, 22.376096, 19.818457}; 
.................... float32 const qat[4] = {1.0000000,  11.368190, 28.982246, 19.818457}; 
....................  
.................... //////////////////////////////////////////////////////////////////////////// 
.................... //   float atan(float x) 
.................... //////////////////////////////////////////////////////////////////////////// 
.................... // Description : returns the arctangent value of the value x. 
.................... // Date : N/A 
.................... // 
.................... float32 atan(float32 x) 
.................... { 
....................    float32 y, res, r; 
....................    int1 s, flag; 
....................  
....................    s = 0; 
....................    flag = 0; 
....................    y = x; 
....................  
....................    if (x < 0) 
....................    { 
....................       s = 1; 
....................       y = -y; 
....................    } 
....................  
....................    if (y > 1.0) 
....................    { 
....................       y = 1.0/y; 
....................       flag = 1; 
....................    } 
....................  
....................    res = pat[0]*y*y + pat[1]; 
....................    res = res*y*y + pat[2]; 
....................    res = res*y*y + pat[3]; 
....................  
....................    r = qat[0]*y*y + qat[1]; 
....................    r = r*y*y + qat[2]; 
....................    r = r*y*y + qat[3]; 
....................  
....................    res = y*res/r; 
....................  
....................  
....................    if (flag)                              // for |x| > 1 
....................       res = PI_DIV_BY_TWO - res; 
....................    if (s) 
....................       res = -res; 
....................  
....................    return(res); 
.................... } 
.................... //Overloaded functions for atan() for PCD 
.................... // Overloaded function atan() for data type - Float48 
.................... #if defined(__PCD__) 
.................... float48 atan(float48 x) 
.................... { 
....................    float48 y, res, r; 
....................    int1 s, flag; 
....................  
....................    s = 0; 
....................    flag = 0; 
....................    y = x; 
....................  
....................    if (x < 0) 
....................    { 
....................       s = 1; 
....................       y = -y; 
....................    } 
....................  
....................    if (y > 1.0) 
....................    { 
....................       y = 1.0/y; 
....................       flag = 1; 
....................    } 
....................  
....................    res = pat[0]*y*y + pat[1]; 
....................    res = res*y*y + pat[2]; 
....................    res = res*y*y + pat[3]; 
....................  
....................    r = qat[0]*y*y + qat[1]; 
....................    r = r*y*y + qat[2]; 
....................    r = r*y*y + qat[3]; 
....................  
....................    res = y*res/r; 
....................  
....................  
....................    if (flag)                              // for |x| > 1 
....................       res = PI_DIV_BY_TWO - res; 
....................    if (s) 
....................       res = -res; 
....................  
....................    return(res); 
.................... } 
....................  
.................... // Overloaded function atan() for data type - Float64 
.................... float64 atan(float64 x) 
.................... { 
....................    float64 y, res, r; 
....................    int1 s, flag; 
....................  
....................    s = 0; 
....................    flag = 0; 
....................    y = x; 
....................  
....................    if (x < 0) 
....................    { 
....................       s = 1; 
....................       y = -y; 
....................    } 
....................  
....................    if (y > 1.0) 
....................    { 
....................       y = 1.0/y; 
....................       flag = 1; 
....................    } 
....................  
....................    res = pat[0]*y*y + pat[1]; 
....................    res = res*y*y + pat[2]; 
....................    res = res*y*y + pat[3]; 
....................  
....................    r = qat[0]*y*y + qat[1]; 
....................    r = r*y*y + qat[2]; 
....................    r = r*y*y + qat[3]; 
....................  
....................    res = y*res/r; 
....................  
....................  
....................    if (flag)                              // for |x| > 1 
....................       res = PI_DIV_BY_TWO - res; 
....................    if (s) 
....................       res = -res; 
....................  
....................    return(res); 
.................... } 
.................... #endif 
....................  
.................... ///////////////////////////////////////////////////////////////////////////// 
.................... //   float atan2(float y, float x) 
.................... ///////////////////////////////////////////////////////////////////////////// 
.................... // Description :computes the principal value of arc tangent of y/x, using the 
.................... // signs of both the arguments to determine the quadrant of the return value 
.................... // Returns : returns the arc tangent of y/x. 
.................... // Date : N/A 
.................... // 
....................  
.................... float32 atan2(float32 y,float32 x) 
.................... { 
....................    float32 z; 
....................    int1 sign; 
....................    unsigned int8 quad; 
....................    sign=0; 
....................    quad=0; //quadrant 
....................    quad=((y<=0.0)?((x<=0.0)?3:4):((x<0.0)?2:1)); 
....................    if(y<0.0) 
....................    { 
....................       sign=1; 
....................       y=-y; 
....................    } 
....................    if(x<0.0) 
....................    { 
....................       x=-x; 
....................    } 
....................    if (x==0.0) 
....................    { 
....................       if(y==0.0) 
....................       { 
....................       #ifdef _ERRNO 
....................       { 
....................          errno=EDOM; 
....................       } 
....................       #endif 
....................       } 
....................       else 
....................       { 
....................          if(sign) 
....................          { 
....................          return (-(PI_DIV_BY_TWO)); 
....................          } 
....................          else 
....................          { 
....................          return (PI_DIV_BY_TWO); 
....................          } 
....................       } 
....................    } 
....................    else 
....................    { 
....................       z=y/x; 
....................       switch(quad) 
....................       { 
....................          case 1: 
....................          { 
....................             return atan(z); 
....................             break; 
....................          } 
....................          case 2: 
....................          { 
.................... //            return (atan(z)+PI_DIV_BY_TWO);  //2L3122 
....................             return (PI-atan(z)); 
....................             break; 
....................          } 
....................          case 3: 
....................          { 
....................             return (atan(z)-PI); 
....................             break; 
....................          } 
....................          case 4: 
....................          { 
....................             return (-atan(z)); 
....................             break; 
....................          } 
....................       } 
....................    } 
.................... } 
....................  
.................... //Overloaded functions for atan2() for PCD 
.................... // Overloaded function atan2() for data type - Float48 
.................... #if defined(__PCD__) 
.................... float48 atan2(float48 y,float48 x) 
.................... { 
....................    float48 z; 
....................    int1 sign; 
....................    unsigned int8 quad; 
....................    sign=0; 
....................    quad=0; //quadrant 
....................    quad=((y<=0.0)?((x<=0.0)?3:4):((x<0.0)?2:1)); 
....................    if(y<0.0) 
....................    { 
....................       sign=1; 
....................       y=-y; 
....................    } 
....................    if(x<0.0) 
....................    { 
....................       x=-x; 
....................    } 
....................    if (x==0.0) 
....................    { 
....................       if(y==0.0) 
....................       { 
....................       #ifdef _ERRNO 
....................       { 
....................          errno=EDOM; 
....................       } 
....................       #endif 
....................       } 
....................       else 
....................       { 
....................          if(sign) 
....................          { 
....................          return (-(PI_DIV_BY_TWO)); 
....................          } 
....................          else 
....................          { 
....................          return (PI_DIV_BY_TWO); 
....................          } 
....................       } 
....................    } 
....................    else 
....................    { 
....................       z=y/x; 
....................       switch(quad) 
....................       { 
....................          case 1: 
....................          { 
....................             return atan(z); 
....................             break; 
....................          } 
....................          case 2: 
....................          { 
.................... //            return (atan(z)+PI_DIV_BY_TWO);  //2L3122 
....................             return (PI-atan(z)); 
....................             break; 
....................          } 
....................          case 3: 
....................          { 
....................             return (atan(z)-PI); 
....................             break; 
....................          } 
....................          case 4: 
....................          { 
....................             return (-atan(z)); 
....................             break; 
....................          } 
....................       } 
....................    } 
.................... } 
....................  
.................... // Overloaded function atan2() for data type - Float64 
.................... float64 atan2(float64 y,float64 x) 
.................... { 
....................    float64 z; 
....................    int1 sign; 
....................    unsigned int8 quad; 
....................    sign=0; 
....................    quad=0; //quadrant 
....................    quad=((y<=0.0)?((x<=0.0)?3:4):((x<0.0)?2:1)); 
....................    if(y<0.0) 
....................    { 
....................       sign=1; 
....................       y=-y; 
....................    } 
....................    if(x<0.0) 
....................    { 
....................       x=-x; 
....................    } 
....................    if (x==0.0) 
....................    { 
....................       if(y==0.0) 
....................       { 
....................       #ifdef _ERRNO 
....................       { 
....................          errno=EDOM; 
....................       } 
....................       #endif 
....................       } 
....................       else 
....................       { 
....................          if(sign) 
....................          { 
....................          return (-(PI_DIV_BY_TWO)); 
....................          } 
....................          else 
....................          { 
....................          return (PI_DIV_BY_TWO); 
....................          } 
....................       } 
....................    } 
....................    else 
....................    { 
....................       z=y/x; 
....................       switch(quad) 
....................       { 
....................          case 1: 
....................          { 
....................             return atan(z); 
....................             break; 
....................          } 
....................          case 2: 
....................          { 
.................... //            return (atan(z)+PI_DIV_BY_TWO);  //2L3122 
....................             return (PI-atan(z)); 
....................             break; 
....................          } 
....................          case 3: 
....................          { 
....................             return (atan(z)-PI); 
....................             break; 
....................          } 
....................          case 4: 
....................          { 
....................             return (-atan(z)); 
....................             break; 
....................          } 
....................       } 
....................    } 
.................... } 
.................... #endif 
....................  
.................... //////////////////// Hyperbolic functions //////////////////// 
....................  
.................... //////////////////////////////////////////////////////////////////////////// 
.................... //   float cosh(float x) 
.................... //////////////////////////////////////////////////////////////////////////// 
.................... // Description : Computes the hyperbolic cosine value of x 
.................... // Returns : returns the hyperbolic cosine value of x 
.................... // Date : N/A 
.................... // 
....................  
.................... float32 cosh(float32 x) 
.................... { 
....................    return ((exp(x)+exp(-x))/2); 
.................... } 
.................... //Overloaded functions for cosh() for PCD 
.................... // Overloaded function cosh() for data type - Float48 
.................... #if defined(__PCD__) 
.................... float48 cosh(float48 x) 
.................... { 
....................    return ((exp(x)+exp(-x))/2); 
.................... } 
....................  
.................... // Overloaded function cosh() for data type - Float64 
.................... float64 cosh(float64 x) 
.................... { 
....................    return ((exp(x)+exp(-x))/2); 
.................... } 
.................... #endif 
....................  
.................... //////////////////////////////////////////////////////////////////////////// 
.................... //   float sinh(float x) 
.................... //////////////////////////////////////////////////////////////////////////// 
.................... // Description : Computes the hyperbolic sine value of x 
.................... // Returns : returns the hyperbolic sine value of x 
.................... // Date : N/A 
.................... // 
....................  
.................... float32 sinh(float32 x) 
.................... { 
....................  
....................    return ((exp(x) - exp(-x))/2); 
.................... } 
.................... //Overloaded functions for sinh() for PCD 
.................... // Overloaded function sinh() for data type - Float48 
.................... #if defined(__PCD__) 
.................... float48 sinh(float48 x) 
.................... { 
....................  
....................    return ((exp(x) - exp(-x))/2); 
.................... } 
....................  
.................... // Overloaded function sinh() for data type - Float48 
.................... float64 sinh(float64 x) 
.................... { 
....................  
....................    return ((exp(x) - exp(-x))/2); 
.................... } 
.................... #endif 
....................  
.................... //////////////////////////////////////////////////////////////////////////// 
.................... //   float tanh(float x) 
.................... //////////////////////////////////////////////////////////////////////////// 
.................... // Description : Computes the hyperbolic tangent value of x 
.................... // Returns : returns the hyperbolic tangent value of x 
.................... // Date : N/A 
.................... // 
....................  
.................... float32 tanh(float32 x) 
.................... { 
....................    return(sinh(x)/cosh(x)); 
.................... } 
.................... //Overloaded functions for tanh() for PCD 
.................... // Overloaded function tanh() for data type - Float48 
.................... #if defined(__PCD__) 
.................... float48 tanh(float48 x) 
.................... { 
....................    return(sinh(x)/cosh(x)); 
.................... } 
....................  
.................... // Overloaded function tanh() for data type - Float64 
.................... float64 tanh(float64 x) 
.................... { 
....................    return(sinh(x)/cosh(x)); 
.................... } 
.................... #endif 
....................  
.................... //////////////////////////////////////////////////////////////////////////// 
.................... //   float frexp(float x, signed int *exp) 
.................... //////////////////////////////////////////////////////////////////////////// 
.................... // Description : breaks a floating point number into a normalized fraction and an integral 
.................... // power of 2. It stores the integer in the signed int object pointed to by exp. 
.................... // Returns : returns the value x, such that x is a double with magnitude in the interval 
.................... // [1/2,1) or zero, and value equals x times 2 raised to the power *exp.If value is zero, 
.................... // both parts of the result are zero. 
.................... // Date : N/A 
.................... // 
....................  
.................... #define LOG2 .30102999566398119521 
.................... float32 frexp(float32 x, signed int8 *exp) 
.................... { 
....................    float32 res; 
....................    int1 sign = 0; 
....................    if(x == 0.0) 
....................    { 
....................       *exp=0; 
....................       return (0.0); 
....................    } 
....................    if(x < 0.0) 
....................    { 
....................      x=-x; 
....................      sign=1; 
....................    } 
....................    if (x > 1.0) 
....................    { 
....................       *exp=(ceil(log10(x)/LOG2)); 
....................       res=x/(pow(2, *exp)); 
....................       if (res == 1) 
....................       { 
....................          *exp=*exp+1; 
....................           res=.5; 
....................       } 
....................    } 
....................    else 
....................    { 
....................       if(x < 0.5) 
....................       { 
....................          *exp=-1; 
....................          res=x*2; 
....................       } 
....................       else 
....................       { 
....................          *exp=0; 
....................           res=x; 
....................       } 
....................    } 
....................    if(sign) 
....................    { 
....................       res=-res; 
....................    } 
....................    return res; 
.................... } 
....................  
.................... //Overloaded functions for frexp() for PCD 
.................... // Overloaded function frexp() for data type - Float48 
.................... #if defined(__PCD__) 
.................... float48 frexp(float48 x, signed int8 *exp) 
.................... { 
....................    float48 res; 
....................    int1 sign = 0; 
....................    if(x == 0.0) 
....................    { 
....................       *exp=0; 
....................       return (0.0); 
....................    } 
....................    if(x < 0.0) 
....................    { 
....................      x=-x; 
....................      sign=1; 
....................    } 
....................    if (x > 1.0) 
....................    { 
....................       *exp=(ceil(log10(x)/LOG2)); 
....................       res=x/(pow(2, *exp)); 
....................       if (res == 1) 
....................       { 
....................          *exp=*exp+1; 
....................           res=.5; 
....................       } 
....................    } 
....................    else 
....................    { 
....................       if(x < 0.5) 
....................       { 
....................          *exp=-1; 
....................          res=x*2; 
....................       } 
....................       else 
....................       { 
....................          *exp=0; 
....................           res=x; 
....................       } 
....................    } 
....................    if(sign) 
....................    { 
....................       res=-res; 
....................    } 
....................    return res; 
.................... } 
....................  
.................... // Overloaded function frexp() for data type - Float64 
.................... float64 frexp(float64 x, signed int8 *exp) 
.................... { 
....................    float64 res; 
....................    int1 sign = 0; 
....................    if(x == 0.0) 
....................    { 
....................       *exp=0; 
....................       return (0.0); 
....................    } 
....................    if(x < 0.0) 
....................    { 
....................      x=-x; 
....................      sign=1; 
....................    } 
....................    if (x > 1.0) 
....................    { 
....................       *exp=(ceil(log10(x)/LOG2)); 
....................       res=x/(pow(2, *exp)); 
....................       if (res == 1) 
....................       { 
....................          *exp=*exp+1; 
....................           res=.5; 
....................       } 
....................    } 
....................    else 
....................    { 
....................       if(x < 0.5) 
....................       { 
....................          *exp=-1; 
....................          res=x*2; 
....................       } 
....................       else 
....................       { 
....................          *exp=0; 
....................           res=x; 
....................       } 
....................    } 
....................    if(sign) 
....................    { 
....................       res=-res; 
....................    } 
....................    return res; 
.................... } 
.................... #endif 
....................  
.................... ////////////////////////////////////////////////////////////////////////////// 
.................... //   float ldexp(float x, signed int *exp) 
.................... ////////////////////////////////////////////////////////////////////////////// 
.................... // Description : multiplies a floating point number by an integral power of 2. 
.................... // Returns : returns the value of x times 2 raised to the power exp. 
.................... // Date : N/A 
.................... // 
....................  
.................... float32 ldexp(float32 value, signed int8 exp) 
.................... { 
....................    return (value * pow(2,exp)); 
.................... } 
.................... //Overloaded functions for ldexp() for PCD 
.................... // Overloaded function ldexp() for data type - Float48 
....................  
.................... #if defined(__PCD__) 
.................... float48 ldexp(float48 value, signed int8 exp) 
.................... { 
....................    return (value * pow(2,exp)); 
.................... } 
.................... // Overloaded function ldexp() for data type - Float64 
.................... float64 ldexp(float64 value, signed int8 exp) 
.................... { 
....................    return (value * pow(2,exp)); 
.................... } 
.................... #endif 
....................  
.................... #endif 
....................  
....................  
.................... // Definición de teclado - NC 
.................... #define   RIGHT         input(PIN_A5) 
.................... #define   LEFT          input(PIN_E0) 
.................... #define   DOWN          input(PIN_E1) 
.................... #define   UP            input(PIN_E2) 
.................... #define   VIDRIOUP      !input(PIN_A4) 
.................... #define   VIDRIODN      !input(PIN_A3) 
....................  
.................... // Definición de otros puertos 
....................  
.................... #define   Luz_Blanca_on     output_bit(PIN_B4,1) 
.................... #define   Luz_Blanca_off    output_bit(PIN_B4,0) 
.................... #define   Motor_on          output_bit(PIN_B5,1) 
.................... #define   Motor_off         output_bit(PIN_B5,0) 
.................... #define   Alarma_on         output_bit(PIN_B6,1) 
.................... #define   Alarma_off        output_bit(PIN_B6,0) 
.................... #define   Rele_on           output_bit(PIN_B7,1) 
.................... #define   Rele_off          output_bit(PIN_B7,0) 
.................... #define   Pantalla_on       output_bit(PIN_C1,1) 
.................... #define   Pantalla_off      output_bit(PIN_C1,0) 
.................... #define   O1_on             output_bit(PIN_C6,1) 
.................... #define   O1_off            output_bit(PIN_C6,0) 
.................... #define   O2_on             output_bit(PIN_C7,1) 
.................... #define   O2_off            output_bit(PIN_C7,0) 
....................  
.................... signed int8 Menu=100, n_opcionH=12,n_opcionL=2,unidad=11,Flecha=2,Flecha1=3,Flecha2=2, nMenuL=2, nMenuH=4,contraste=10,unidad2=1,purga_minutos=0,purga_minutos_pro=0; 
.................... int8 Entero=0,Decimal1=0,Decimal2=0,Entero1=0,Decimal12=0,n=0,l=0,h=0,tmp=10,MediaMovil=0,negativo=10,Automa=10,Manual=10,Semi=10,ValorSemi=0; 
.................... signed int8 segundos=0,minutos=0,horas=0,tiemporeset=0,purga_segundos=0,purga_segundos_pro=0,ppurga_segundos=0,ppurga_segundos_pro=0,ppurga_minutos=0,ppurga_minutos_pro=0; 
.................... int8 FeedbackDamper=0; 
.................... short estadofl=0,estadomv=0,estadoalarma=0,estadopantalla=0,Flanco=0,Flanco1=0,Flanco2=0,Flanco3=0,flag_latencia=0,Latencia=0,flag_filtro=0; 
.................... signed int8   paso=0; 
.................... char t[3]={'>',' ','^'};  
.................... signed  int8 clave[4]={0,0,0,0};   // 0=Verdadero, 1=Falso 
.................... int8 contrasena[4]={0,0,0,0};   // 0=Verdadero, 1=Falso 
.................... float setpoint=0.0,zero_fabrica=203.0; 
.................... short ModoSleep,inicio=0,Lectura=0,Lectura2=0,flag_iniciodamper=0,iniciodamper=0,ModoManual=0,ModoAuto=0,ModoSemi=0,tiempo_purga=0,tiempo_ppurga=0; 
.................... int16 tiempos=0,t_latencia=0,tiempos2=0; 
.................... float Beta=3550,R25=1350,T0=298.15,TK=0,TC=0,Rdivisor=1000,Rntc=0.0,Voltaje0=0.0,Voltaje1=0.0; 
....................   
.................... float a=0.0000001418633343546420,b=-0.00009476749001431169,c= 0.040182822903506,d= -5.354852229527197;//Sensor 2 Posible bueno 
.................... float Flujo=0.0,Flujo2=0.0,x=0.0,x_uno=0.0,x_cuadrado=0.0,x_cubo=0.0,Temporal=0.0,Temporal2=0.0,Velocidad=0.0; 
.................... float Temporal1=0.0,Temporal12=0.0,Diferencia=0.0,Ajuste1=1.0; 
.................... float error=0.0; 
.................... float promedio[12]={0.0,0.0,0.0,0.0,0.0,0.0,0.0,0.0,0.0,0.0,0.0,0.0}; 
.................... int1 BITS[32]; 
.................... int16 Ta,Tb,TICK=0; 
.................... Int1 BIT_START, NUEVO_DATO; 
.................... int BYTE_IR[4]; 
.................... int8 BIT_BYTE(int1 D7, int1 D6, int1 D5, int1 D4, int1 D3, int1 D2, int1 D1, int1 D0); 
.................... int8 Entro=0; 
....................  
.................... #int_EXT 
.................... void RB0(){ 
....................    Ta=get_timer1(); 
*
0102:  MOVF   FCE,W
0104:  MOVWF  xFB
0106:  MOVFF  FCF,FC
....................    TICK = Ta-tb; 
010A:  MOVF   xFD,W
010C:  SUBWF  xFB,W
010E:  MOVWF  xFF
0110:  MOVF   xFE,W
0112:  SUBWFB xFC,W
0114:  MOVLB  1
0116:  MOVWF  x00
....................    Tb = Ta; 
0118:  MOVFF  FC,FE
011C:  MOVFF  FB,FD
....................     
....................    Entro=1; 
0120:  MOVLW  01
0122:  MOVWF  x05
....................     
....................    if(BIT_START==1){ 
0124:  BTFSS  54.6
0126:  BRA    01B4
....................        //BIT 1 
....................        if(TICK>600 && TICK < 800)  // 700 con Pres 4 y 20MHz  
0128:  MOVF   x00,W
012A:  SUBLW  01
012C:  BC    0170
012E:  XORLW  FF
0130:  BNZ   0142
0132:  MOVLB  0
0134:  MOVF   xFF,W
0136:  SUBLW  58
0138:  BTFSS  FD8.0
013A:  BRA    0140
013C:  MOVLB  1
013E:  BRA    0170
0140:  MOVLB  1
0142:  MOVF   x00,W
0144:  SUBLW  03
0146:  BNC   0170
0148:  BNZ   015A
014A:  MOVLB  0
014C:  MOVF   xFF,W
014E:  SUBLW  1F
0150:  BTFSC  FD8.0
0152:  BRA    0158
0154:  MOVLB  1
0156:  BRA    0170
0158:  MOVLB  1
....................       { 
....................          BITS[n]=1; n++; 
015A:  MOVFF  29,134
015E:  MOVLW  01
0160:  MOVWF  x35
0162:  CLRF   x37
0164:  MOVLW  F7
0166:  MOVWF  x36
0168:  MOVLB  0
016A:  RCALL  00C0
016C:  INCF   29,F
016E:  MOVLB  1
....................       } 
....................       //BIT 0 
....................        if(TICK>200 && TICK < 500)  // 350 con Pres 4 y 20MHz  
0170:  MOVF   x00,F
0172:  BNZ   017E
0174:  MOVLB  0
0176:  MOVF   xFF,W
0178:  SUBLW  C8
017A:  BC    01A8
017C:  MOVLB  1
017E:  MOVF   x00,W
0180:  SUBLW  01
0182:  BTFSC  FD8.0
0184:  BRA    018A
0186:  MOVLB  0
0188:  BRA    01A8
018A:  BNZ   0196
018C:  MOVLB  0
018E:  MOVF   xFF,W
0190:  SUBLW  F3
0192:  BNC   01A8
0194:  MOVLB  1
....................       { 
....................          BITS[n]=0; n++; 
0196:  MOVFF  29,134
019A:  CLRF   x35
019C:  CLRF   x37
019E:  MOVLW  F7
01A0:  MOVWF  x36
01A2:  MOVLB  0
01A4:  RCALL  00C0
01A6:  INCF   29,F
....................       } 
....................       if(n>=32){ 
01A8:  MOVF   29,W
01AA:  SUBLW  1F
01AC:  BC    01B2
....................          NUEVO_DATO=1; 
01AE:  BSF    54.7
....................          BIT_START=0; 
01B0:  BCF    54.6
01B2:  MOVLB  1
....................       } 
....................     
....................    } 
....................    //BIT STAR 
....................    if(TICK>3000 && TICK < 4000 && BIT_START==0)  //3500 con Pres 4 y 20MHz  
01B4:  MOVF   x00,W
01B6:  SUBLW  0A
01B8:  BC    01EE
01BA:  XORLW  FF
01BC:  BNZ   01CE
01BE:  MOVLB  0
01C0:  MOVF   xFF,W
01C2:  SUBLW  B8
01C4:  BTFSS  FD8.0
01C6:  BRA    01CC
01C8:  MOVLB  1
01CA:  BRA    01EE
01CC:  MOVLB  1
01CE:  MOVF   x00,W
01D0:  SUBLW  0F
01D2:  BNC   01EE
01D4:  BNZ   01E6
01D6:  MOVLB  0
01D8:  MOVF   xFF,W
01DA:  SUBLW  9F
01DC:  BTFSC  FD8.0
01DE:  BRA    01E4
01E0:  MOVLB  1
01E2:  BRA    01EE
01E4:  MOVLB  1
01E6:  BTFSC  54.6
01E8:  BRA    01EE
....................    { 
....................       BIT_START=1; 
01EA:  BSF    54.6
....................       n=0;  
01EC:  CLRF   29
....................    } 
.................... } 
....................  
.................... // Funcion para conversor analogo-digital 
01EE:  BCF    FF2.1
01F0:  MOVLB  0
01F2:  GOTO   0060
.................... float sensores(int x){ 
.................... float y;set_adc_channel(x);delay_ms(10);y=read_adc();return (y); 
*
1954:  MOVLB  1
1956:  RLCF   x0A,W
1958:  MOVWF  00
195A:  RLCF   00,F
195C:  MOVLW  FC
195E:  ANDWF  00,F
1960:  MOVFF  00,01
1964:  MOVF   FC2,W
1966:  ANDLW  C3
1968:  IORWF  00,W
196A:  MOVWF  FC2
196C:  MOVLW  0A
196E:  MOVWF  x1C
1970:  MOVLB  0
1972:  CALL   0BD2
1976:  BSF    FC2.1
1978:  BTFSC  FC2.1
197A:  BRA    1978
197C:  MOVFF  FC4,110
1980:  MOVFF  FC3,10F
1984:  MOVLB  0
1986:  CALL   0DA6
198A:  MOVFF  03,10E
198E:  MOVFF  02,10D
1992:  MOVFF  01,10C
1996:  MOVFF  00,10B
199A:  MOVFF  10B,00
199E:  MOVFF  10C,01
19A2:  MOVFF  10D,02
19A6:  MOVFF  10E,03
.................... } 
19AA:  RETLW  00
....................  
.................... void intensidadpantalla(int x) 
.................... { 
....................    if(x==0) 
*
0BBE:  MOVLB  1
0BC0:  MOVF   x06,F
0BC2:  BNZ   0BCA
....................    { 
....................       Pantalla_off; 
0BC4:  BCF    F8B.1
0BC6:  BCF    F94.1
....................    } 
....................    else 
0BC8:  BRA    0BCE
....................    { 
....................       Pantalla_on; 
0BCA:  BSF    F8B.1
0BCC:  BCF    F94.1
....................    } 
.................... } 
0BCE:  MOVLB  0
0BD0:  RETLW  00
....................  
.................... Float Leer_Sensor_Flujo(int media) 
.................... { 
....................     Voltaje0=sensores(0)*5/1023; 
*
1ED6:  MOVLB  1
1ED8:  CLRF   x0A
1EDA:  MOVLB  0
1EDC:  RCALL  1954
1EDE:  MOVFF  00,107
1EE2:  MOVFF  01,108
1EE6:  MOVFF  02,109
1EEA:  MOVFF  03,10A
1EEE:  MOVFF  03,123
1EF2:  MOVFF  02,122
1EF6:  MOVFF  01,121
1EFA:  MOVFF  00,120
1EFE:  MOVLB  1
1F00:  CLRF   x27
1F02:  CLRF   x26
1F04:  MOVLW  20
1F06:  MOVWF  x25
1F08:  MOVLW  81
1F0A:  MOVWF  x24
1F0C:  MOVLB  0
1F0E:  CALL   1532
1F12:  MOVFF  00,107
1F16:  MOVFF  01,108
1F1A:  MOVFF  02,109
1F1E:  MOVFF  03,10A
1F22:  MOVFF  03,127
1F26:  MOVFF  02,126
1F2A:  MOVFF  01,125
1F2E:  MOVFF  00,124
1F32:  MOVLB  1
1F34:  CLRF   x2B
1F36:  MOVLW  C0
1F38:  MOVWF  x2A
1F3A:  MOVLW  7F
1F3C:  MOVWF  x29
1F3E:  MOVLW  88
1F40:  MOVWF  x28
1F42:  MOVLB  0
1F44:  CALL   0DDC
1F48:  MOVFF  03,7A
1F4C:  MOVFF  02,79
1F50:  MOVFF  01,78
1F54:  MOVFF  00,77
....................     Voltaje1=sensores(1)*5/1023; 
1F58:  MOVLW  01
1F5A:  MOVLB  1
1F5C:  MOVWF  x0A
1F5E:  MOVLB  0
1F60:  RCALL  1954
1F62:  MOVFF  00,107
1F66:  MOVFF  01,108
1F6A:  MOVFF  02,109
1F6E:  MOVFF  03,10A
1F72:  MOVFF  03,123
1F76:  MOVFF  02,122
1F7A:  MOVFF  01,121
1F7E:  MOVFF  00,120
1F82:  MOVLB  1
1F84:  CLRF   x27
1F86:  CLRF   x26
1F88:  MOVLW  20
1F8A:  MOVWF  x25
1F8C:  MOVLW  81
1F8E:  MOVWF  x24
1F90:  MOVLB  0
1F92:  CALL   1532
1F96:  MOVFF  00,107
1F9A:  MOVFF  01,108
1F9E:  MOVFF  02,109
1FA2:  MOVFF  03,10A
1FA6:  MOVFF  03,127
1FAA:  MOVFF  02,126
1FAE:  MOVFF  01,125
1FB2:  MOVFF  00,124
1FB6:  MOVLB  1
1FB8:  CLRF   x2B
1FBA:  MOVLW  C0
1FBC:  MOVWF  x2A
1FBE:  MOVLW  7F
1FC0:  MOVWF  x29
1FC2:  MOVLW  88
1FC4:  MOVWF  x28
1FC6:  MOVLB  0
1FC8:  CALL   0DDC
1FCC:  MOVFF  03,7E
1FD0:  MOVFF  02,7D
1FD4:  MOVFF  01,7C
1FD8:  MOVFF  00,7B
....................     Rntc=Rdivisor/((5.0/Voltaje1)-1); 
1FDC:  MOVLB  1
1FDE:  CLRF   x27
1FE0:  CLRF   x26
1FE2:  MOVLW  20
1FE4:  MOVWF  x25
1FE6:  MOVLW  81
1FE8:  MOVWF  x24
1FEA:  MOVFF  7E,12B
1FEE:  MOVFF  7D,12A
1FF2:  MOVFF  7C,129
1FF6:  MOVFF  7B,128
1FFA:  MOVLB  0
1FFC:  CALL   0DDC
2000:  MOVFF  00,107
2004:  MOVFF  01,108
2008:  MOVFF  02,109
200C:  MOVFF  03,10A
2010:  BSF    FD8.1
2012:  MOVFF  03,127
2016:  MOVFF  02,126
201A:  MOVFF  01,125
201E:  MOVFF  00,124
2022:  MOVLB  1
2024:  CLRF   x2B
2026:  CLRF   x2A
2028:  CLRF   x29
202A:  MOVLW  7F
202C:  MOVWF  x28
202E:  MOVLB  0
2030:  CALL   0F3A
2034:  MOVFF  72,127
2038:  MOVFF  71,126
203C:  MOVFF  70,125
2040:  MOVFF  6F,124
2044:  MOVFF  03,12B
2048:  MOVFF  02,12A
204C:  MOVFF  01,129
2050:  MOVFF  00,128
2054:  CALL   0DDC
2058:  MOVFF  03,76
205C:  MOVFF  02,75
2060:  MOVFF  01,74
2064:  MOVFF  00,73
....................     TK=1/((log(Rntc/R25)/Beta)+(1/T0)); 
2068:  MOVFF  76,127
206C:  MOVFF  75,126
2070:  MOVFF  74,125
2074:  MOVFF  73,124
2078:  MOVFF  62,12B
207C:  MOVFF  61,12A
2080:  MOVFF  60,129
2084:  MOVFF  5F,128
2088:  CALL   0DDC
208C:  MOVFF  00,107
2090:  MOVFF  01,108
2094:  MOVFF  02,109
2098:  MOVFF  03,10A
209C:  MOVFF  03,10E
20A0:  MOVFF  02,10D
20A4:  MOVFF  01,10C
20A8:  MOVFF  00,10B
20AC:  BRA    1A02
20AE:  MOVFF  00,107
20B2:  MOVFF  01,108
20B6:  MOVFF  02,109
20BA:  MOVFF  03,10A
20BE:  MOVFF  03,127
20C2:  MOVFF  02,126
20C6:  MOVFF  01,125
20CA:  MOVFF  00,124
20CE:  MOVFF  5E,12B
20D2:  MOVFF  5D,12A
20D6:  MOVFF  5C,129
20DA:  MOVFF  5B,128
20DE:  CALL   0DDC
20E2:  MOVFF  00,107
20E6:  MOVFF  01,108
20EA:  MOVFF  02,109
20EE:  MOVFF  03,10A
20F2:  MOVLB  1
20F4:  CLRF   x27
20F6:  CLRF   x26
20F8:  CLRF   x25
20FA:  MOVLW  7F
20FC:  MOVWF  x24
20FE:  MOVFF  66,12B
2102:  MOVFF  65,12A
2106:  MOVFF  64,129
210A:  MOVFF  63,128
210E:  MOVLB  0
2110:  CALL   0DDC
2114:  MOVFF  FEA,10C
2118:  MOVFF  FE9,10B
211C:  BCF    FD8.1
211E:  MOVFF  10A,127
2122:  MOVFF  109,126
2126:  MOVFF  108,125
212A:  MOVFF  107,124
212E:  MOVFF  03,12B
2132:  MOVFF  02,12A
2136:  MOVFF  01,129
213A:  MOVFF  00,128
213E:  CALL   0F3A
2142:  MOVFF  10C,FEA
2146:  MOVFF  10B,FE9
214A:  MOVLB  1
214C:  CLRF   x27
214E:  CLRF   x26
2150:  CLRF   x25
2152:  MOVLW  7F
2154:  MOVWF  x24
2156:  MOVFF  03,12B
215A:  MOVFF  02,12A
215E:  MOVFF  01,129
2162:  MOVFF  00,128
2166:  MOVLB  0
2168:  CALL   0DDC
216C:  MOVFF  03,6A
2170:  MOVFF  02,69
2174:  MOVFF  01,68
2178:  MOVFF  00,67
....................     TC=TK-273.15; 
217C:  BSF    FD8.1
217E:  MOVFF  6A,127
2182:  MOVFF  69,126
2186:  MOVFF  68,125
218A:  MOVFF  67,124
218E:  MOVLW  33
2190:  MOVLB  1
2192:  MOVWF  x2B
2194:  MOVLW  93
2196:  MOVWF  x2A
2198:  MOVLW  08
219A:  MOVWF  x29
219C:  MOVLW  87
219E:  MOVWF  x28
21A0:  MOVLB  0
21A2:  CALL   0F3A
21A6:  MOVFF  03,6E
21AA:  MOVFF  02,6D
21AE:  MOVFF  01,6C
21B2:  MOVFF  00,6B
....................     //correccion=Tcalibracion/sensores(1);// Se hace la division inversa debido a que se lee directamente el conversor y es una NTC. 
....................     if(negativo==10) 
21B6:  MOVF   2E,W
21B8:  SUBLW  0A
21BA:  BNZ   221C
....................     { 
....................       x_uno=sensores(0)+Diferencia; 
21BC:  MOVLB  1
21BE:  CLRF   x0A
21C0:  MOVLB  0
21C2:  CALL   1954
21C6:  MOVFF  00,107
21CA:  MOVFF  01,108
21CE:  MOVFF  02,109
21D2:  MOVFF  03,10A
21D6:  MOVFF  FEA,10C
21DA:  MOVFF  FE9,10B
21DE:  BCF    FD8.1
21E0:  MOVFF  03,127
21E4:  MOVFF  02,126
21E8:  MOVFF  01,125
21EC:  MOVFF  00,124
21F0:  MOVFF  BE,12B
21F4:  MOVFF  BD,12A
21F8:  MOVFF  BC,129
21FC:  MOVFF  BB,128
2200:  CALL   0F3A
2204:  MOVFF  10C,FEA
2208:  MOVFF  10B,FE9
220C:  MOVFF  03,9E
2210:  MOVFF  02,9D
2214:  MOVFF  01,9C
2218:  MOVFF  00,9B
....................     } 
....................     if(negativo==20) 
221C:  MOVF   2E,W
221E:  SUBLW  14
2220:  BNZ   2282
....................     { 
....................       x_uno=sensores(0)-Diferencia; 
2222:  MOVLB  1
2224:  CLRF   x0A
2226:  MOVLB  0
2228:  CALL   1954
222C:  MOVFF  00,107
2230:  MOVFF  01,108
2234:  MOVFF  02,109
2238:  MOVFF  03,10A
223C:  MOVFF  FEA,10C
2240:  MOVFF  FE9,10B
2244:  BSF    FD8.1
2246:  MOVFF  03,127
224A:  MOVFF  02,126
224E:  MOVFF  01,125
2252:  MOVFF  00,124
2256:  MOVFF  BE,12B
225A:  MOVFF  BD,12A
225E:  MOVFF  BC,129
2262:  MOVFF  BB,128
2266:  CALL   0F3A
226A:  MOVFF  10C,FEA
226E:  MOVFF  10B,FE9
2272:  MOVFF  03,9E
2276:  MOVFF  02,9D
227A:  MOVFF  01,9C
227E:  MOVFF  00,9B
....................     } 
....................     x_cuadrado=x_uno*x_uno; 
2282:  MOVFF  9E,123
2286:  MOVFF  9D,122
228A:  MOVFF  9C,121
228E:  MOVFF  9B,120
2292:  MOVFF  9E,127
2296:  MOVFF  9D,126
229A:  MOVFF  9C,125
229E:  MOVFF  9B,124
22A2:  CALL   1532
22A6:  MOVFF  03,A2
22AA:  MOVFF  02,A1
22AE:  MOVFF  01,A0
22B2:  MOVFF  00,9F
....................     x_cubo=x_uno*x_cuadrado; 
22B6:  MOVFF  9E,123
22BA:  MOVFF  9D,122
22BE:  MOVFF  9C,121
22C2:  MOVFF  9B,120
22C6:  MOVFF  A2,127
22CA:  MOVFF  A1,126
22CE:  MOVFF  A0,125
22D2:  MOVFF  9F,124
22D6:  CALL   1532
22DA:  MOVFF  03,A6
22DE:  MOVFF  02,A5
22E2:  MOVFF  01,A4
22E6:  MOVFF  00,A3
....................     Velocidad=(x_cubo*a)+(x_cuadrado*b)+(x_uno*c)+d;  
22EA:  MOVFF  A6,123
22EE:  MOVFF  A5,122
22F2:  MOVFF  A4,121
22F6:  MOVFF  A3,120
22FA:  MOVFF  82,127
22FE:  MOVFF  81,126
2302:  MOVFF  80,125
2306:  MOVFF  7F,124
230A:  CALL   1532
230E:  MOVFF  00,107
2312:  MOVFF  01,108
2316:  MOVFF  02,109
231A:  MOVFF  03,10A
231E:  MOVFF  A2,123
2322:  MOVFF  A1,122
2326:  MOVFF  A0,121
232A:  MOVFF  9F,120
232E:  MOVFF  86,127
2332:  MOVFF  85,126
2336:  MOVFF  84,125
233A:  MOVFF  83,124
233E:  CALL   1532
2342:  BCF    FD8.1
2344:  MOVFF  10A,127
2348:  MOVFF  109,126
234C:  MOVFF  108,125
2350:  MOVFF  107,124
2354:  MOVFF  03,12B
2358:  MOVFF  02,12A
235C:  MOVFF  01,129
2360:  MOVFF  00,128
2364:  CALL   0F3A
2368:  MOVFF  00,107
236C:  MOVFF  01,108
2370:  MOVFF  02,109
2374:  MOVFF  03,10A
2378:  MOVFF  9E,123
237C:  MOVFF  9D,122
2380:  MOVFF  9C,121
2384:  MOVFF  9B,120
2388:  MOVFF  8A,127
238C:  MOVFF  89,126
2390:  MOVFF  88,125
2394:  MOVFF  87,124
2398:  CALL   1532
239C:  BCF    FD8.1
239E:  MOVFF  10A,127
23A2:  MOVFF  109,126
23A6:  MOVFF  108,125
23AA:  MOVFF  107,124
23AE:  MOVFF  03,12B
23B2:  MOVFF  02,12A
23B6:  MOVFF  01,129
23BA:  MOVFF  00,128
23BE:  CALL   0F3A
23C2:  MOVFF  00,107
23C6:  MOVFF  01,108
23CA:  MOVFF  02,109
23CE:  MOVFF  03,10A
23D2:  BCF    FD8.1
23D4:  MOVFF  03,127
23D8:  MOVFF  02,126
23DC:  MOVFF  01,125
23E0:  MOVFF  00,124
23E4:  MOVFF  8E,12B
23E8:  MOVFF  8D,12A
23EC:  MOVFF  8C,129
23F0:  MOVFF  8B,128
23F4:  CALL   0F3A
23F8:  MOVFF  03,B2
23FC:  MOVFF  02,B1
2400:  MOVFF  01,B0
2404:  MOVFF  00,AF
....................     //Velocidad=Velocidad*correccion;//Ajuste de Temperatura 
....................     Velocidad=Velocidad-0.08; 
2408:  BSF    FD8.1
240A:  MOVFF  B2,127
240E:  MOVFF  B1,126
2412:  MOVFF  B0,125
2416:  MOVFF  AF,124
241A:  MOVLW  0A
241C:  MOVLB  1
241E:  MOVWF  x2B
2420:  MOVLW  D7
2422:  MOVWF  x2A
2424:  MOVLW  23
2426:  MOVWF  x29
2428:  MOVLW  7B
242A:  MOVWF  x28
242C:  MOVLB  0
242E:  CALL   0F3A
2432:  MOVFF  03,B2
2436:  MOVFF  02,B1
243A:  MOVFF  01,B0
243E:  MOVFF  00,AF
....................     if(Velocidad<0.0) 
2442:  MOVFF  B2,123
2446:  MOVFF  B1,122
244A:  MOVFF  B0,121
244E:  MOVFF  AF,120
2452:  MOVLB  1
2454:  CLRF   x27
2456:  CLRF   x26
2458:  CLRF   x25
245A:  CLRF   x24
245C:  MOVLB  0
245E:  CALL   189E
2462:  BNC   246C
....................      {Velocidad=0.0;} 
2464:  CLRF   xB2
2466:  CLRF   xB1
2468:  CLRF   xB0
246A:  CLRF   xAF
....................       
....................      if(l>=media) 
246C:  MOVLB  1
246E:  MOVF   x06,W
2470:  SUBWF  2A,W
2472:  BNC   2476
....................        {l=0;} 
2474:  CLRF   2A
....................       
....................      promedio[l]=Velocidad;l++; 
2476:  MOVF   2A,W
2478:  MULLW  04
247A:  MOVF   FF3,W
247C:  CLRF   03
247E:  ADDLW  C7
2480:  MOVWF  FE9
2482:  MOVLW  00
2484:  ADDWFC 03,W
2486:  MOVWF  FEA
2488:  MOVFF  AF,FEF
248C:  MOVFF  B0,FEC
2490:  MOVFF  B1,FEC
2494:  MOVFF  B2,FEC
2498:  INCF   2A,F
....................      Flujo2=0; 
249A:  MOVLB  0
249C:  CLRF   x96
249E:  CLRF   x95
24A0:  CLRF   x94
24A2:  CLRF   x93
....................         for(h=0;h<=(media-1);h++) 
24A4:  CLRF   2B
24A6:  MOVLW  01
24A8:  MOVLB  1
24AA:  SUBWF  x06,W
24AC:  SUBWF  2B,W
24AE:  BZ    24B2
24B0:  BC    2522
....................         { 
....................            Flujo2+=promedio[h]; 
24B2:  MOVF   2B,W
24B4:  MULLW  04
24B6:  MOVF   FF3,W
24B8:  CLRF   03
24BA:  ADDLW  C7
24BC:  MOVWF  FE9
24BE:  MOVLW  00
24C0:  ADDWFC 03,W
24C2:  MOVWF  FEA
24C4:  MOVFF  FEF,00
24C8:  MOVFF  FEC,01
24CC:  MOVFF  FEC,02
24D0:  MOVFF  FEC,03
24D4:  MOVFF  FEA,108
24D8:  MOVFF  FE9,107
24DC:  BCF    FD8.1
24DE:  MOVFF  96,127
24E2:  MOVFF  95,126
24E6:  MOVFF  94,125
24EA:  MOVFF  93,124
24EE:  MOVFF  03,12B
24F2:  MOVFF  02,12A
24F6:  MOVFF  01,129
24FA:  MOVFF  00,128
24FE:  MOVLB  0
2500:  CALL   0F3A
2504:  MOVFF  108,FEA
2508:  MOVFF  107,FE9
250C:  MOVFF  03,96
2510:  MOVFF  02,95
2514:  MOVFF  01,94
2518:  MOVFF  00,93
....................         }  
251C:  INCF   2B,F
251E:  BRA    24A6
2520:  MOVLB  1
....................            Flujo2=(Flujo2/media)*Ajuste1;  
2522:  CLRF   x10
2524:  MOVFF  106,10F
2528:  MOVLB  0
252A:  CALL   0DA6
252E:  MOVFF  96,127
2532:  MOVFF  95,126
2536:  MOVFF  94,125
253A:  MOVFF  93,124
253E:  MOVFF  03,12B
2542:  MOVFF  02,12A
2546:  MOVFF  01,129
254A:  MOVFF  00,128
254E:  CALL   0DDC
2552:  MOVFF  00,107
2556:  MOVFF  01,108
255A:  MOVFF  02,109
255E:  MOVFF  03,10A
2562:  MOVFF  03,123
2566:  MOVFF  02,122
256A:  MOVFF  01,121
256E:  MOVFF  00,120
2572:  MOVFF  C2,127
2576:  MOVFF  C1,126
257A:  MOVFF  C0,125
257E:  MOVFF  BF,124
2582:  CALL   1532
2586:  MOVFF  03,96
258A:  MOVFF  02,95
258E:  MOVFF  01,94
2592:  MOVFF  00,93
....................            return Flujo2; 
2596:  MOVFF  93,00
259A:  MOVFF  94,01
259E:  MOVFF  95,02
25A2:  MOVFF  96,03
.................... } 
25A6:  RETLW  00
....................  
.................... void controlar_flujo(void) 
.................... { 
....................    if(Automa==20 && estadomv==1) 
25A8:  MOVF   2F,W
25AA:  SUBLW  14
25AC:  BTFSS  FD8.2
25AE:  BRA    26A2
25B0:  BTFSS  3E.1
25B2:  BRA    26A2
....................    { 
....................       error=setpoint-Flujo;      // Cálculo del error ****** 
25B4:  BSF    FD8.1
25B6:  MOVFF  4F,127
25BA:  MOVFF  4E,126
25BE:  MOVFF  4D,125
25C2:  MOVFF  4C,124
25C6:  MOVFF  92,12B
25CA:  MOVFF  91,12A
25CE:  MOVFF  90,129
25D2:  MOVFF  8F,128
25D6:  CALL   0F3A
25DA:  MOVFF  03,C6
25DE:  MOVFF  02,C5
25E2:  MOVFF  01,C4
25E6:  MOVFF  00,C3
....................       if(error<0.2&&error>-0.2) 
25EA:  MOVFF  C6,123
25EE:  MOVFF  C5,122
25F2:  MOVFF  C4,121
25F6:  MOVFF  C3,120
25FA:  MOVLW  CD
25FC:  MOVLB  1
25FE:  MOVWF  x27
2600:  MOVLW  CC
2602:  MOVWF  x26
2604:  MOVLW  4C
2606:  MOVWF  x25
2608:  MOVLW  7C
260A:  MOVWF  x24
260C:  MOVLB  0
260E:  CALL   189E
2612:  BNC   263E
2614:  MOVLW  CD
2616:  MOVLB  1
2618:  MOVWF  x23
261A:  MOVLW  CC
261C:  MOVWF  x22
261E:  MOVWF  x21
2620:  MOVLW  7C
2622:  MOVWF  x20
2624:  MOVFF  C6,127
2628:  MOVFF  C5,126
262C:  MOVFF  C4,125
2630:  MOVFF  C3,124
2634:  MOVLB  0
2636:  CALL   189E
263A:  BNC   263E
....................       {} 
....................       else 
263C:  BRA    268A
....................       { 
....................          if(error>0.0) 
263E:  MOVLB  1
2640:  CLRF   x23
2642:  CLRF   x22
2644:  CLRF   x21
2646:  CLRF   x20
2648:  MOVFF  C6,127
264C:  MOVFF  C5,126
2650:  MOVFF  C4,125
2654:  MOVFF  C3,124
2658:  MOVLB  0
265A:  CALL   189E
265E:  BNC   2664
....................          {tmp+=1;} 
2660:  MOVLW  01
2662:  ADDWF  2C,F
....................                 
....................          if(error<-0.0) 
2664:  MOVFF  C6,123
2668:  MOVFF  C5,122
266C:  MOVFF  C4,121
2670:  MOVFF  C3,120
2674:  MOVLB  1
2676:  CLRF   x27
2678:  CLRF   x26
267A:  CLRF   x25
267C:  CLRF   x24
267E:  MOVLB  0
2680:  CALL   189E
2684:  BNC   268A
....................          {tmp-=1;}   
2686:  MOVLW  01
2688:  SUBWF  2C,F
....................       } 
....................        
....................       if(tmp>251) 
268A:  MOVF   2C,W
268C:  SUBLW  FB
268E:  BC    2694
....................       {tmp=251;} 
2690:  MOVLW  FB
2692:  MOVWF  2C
....................       if(tmp<4)          
2694:  MOVF   2C,W
2696:  SUBLW  03
2698:  BNC   269E
....................       {tmp=4;}       
269A:  MOVLW  04
269C:  MOVWF  2C
....................       set_pwm1_duty (tmp); 
269E:  MOVFF  2C,FBE
....................    } 
....................     
....................    if(Manual==20) 
26A2:  MOVF   30,W
26A4:  SUBLW  14
26A6:  BNZ   26B0
....................    { 
....................       tmp=251; 
26A8:  MOVLW  FB
26AA:  MOVWF  2C
....................       set_pwm1_duty (tmp); 
26AC:  MOVFF  2C,FBE
....................    } 
....................     
....................    if(Semi==20) 
26B0:  MOVF   31,W
26B2:  SUBLW  14
26B4:  BNZ   26BA
....................    { 
....................       set_pwm1_duty (ValorSemi); 
26B6:  MOVFF  32,FBE
....................    } 
.................... } 
26BA:  RETLW  00
....................  
.................... #int_TIMER0 
.................... void temp0s(void){ 
....................     
....................    set_timer0(207);  // 5  ms 
*
01F6:  CLRF   FD7
01F8:  MOVLW  CF
01FA:  MOVWF  FD6
....................    tiempos++; 
01FC:  INCF   55,F
01FE:  BTFSC  FD8.2
0200:  INCF   56,F
....................    tiempos2++; 
0202:  INCF   59,F
0204:  BTFSC  FD8.2
0206:  INCF   5A,F
....................     
....................     
....................    if(t_latencia>=3000) 
0208:  MOVF   58,W
020A:  SUBLW  0A
020C:  BC    021A
020E:  XORLW  FF
0210:  BNZ   0218
0212:  MOVF   57,W
0214:  SUBLW  B7
0216:  BC    021A
....................    {Latencia=1;} 
0218:  BSF    3F.1
....................     
....................    if(flag_latencia==1) 
021A:  BTFSS  3F.0
021C:  BRA    0224
....................    { 
....................       t_latencia++;          
021E:  INCF   57,F
0220:  BTFSC  FD8.2
0222:  INCF   58,F
....................    } 
....................     
....................    if(tiempos2>=20) 
0224:  MOVF   5A,F
0226:  BNZ   022E
0228:  MOVF   59,W
022A:  SUBLW  13
022C:  BC    0234
....................    {tiempos2=0;Lectura2=1;} 
022E:  CLRF   5A
0230:  CLRF   59
0232:  BSF    3F.6
....................     
....................    if(tiempos>=200)   // Ha transcurrido una decima de segundo (PIC18F4550 con XT = 16MHZ) 
0234:  MOVF   56,F
0236:  BNZ   023E
0238:  MOVF   55,W
023A:  SUBLW  C7
023C:  BC    02C4
....................    { 
....................       tiempos=0;tiemporeset++; 
023E:  CLRF   56
0240:  CLRF   55
0242:  INCF   36,F
....................       Lectura=1; 
0244:  BSF    3F.5
....................           
....................       if(estadomv==1 && flag_filtro==1) 
0246:  BTFSS  3E.1
0248:  BRA    0264
024A:  BTFSS  3F.2
024C:  BRA    0264
....................       {   
....................          segundos++; 
024E:  INCF   33,F
....................          if(segundos==60) 
0250:  MOVF   33,W
0252:  SUBLW  3C
0254:  BNZ   025A
....................          { 
....................             segundos=0;minutos++; 
0256:  CLRF   33
0258:  INCF   34,F
....................          } 
....................           
....................          if(minutos==60) 
025A:  MOVF   34,W
025C:  SUBLW  3C
025E:  BNZ   0264
....................          { 
....................             minutos=0;horas++; 
0260:  CLRF   34
0262:  INCF   35,F
....................          } 
....................       } 
....................        
....................       if(tiempo_purga==1) 
0264:  BTFSS  54.4
0266:  BRA    029E
....................       { 
....................          if(purga_segundos>0) 
0268:  BTFSC  37.7
026A:  BRA    0276
026C:  MOVF   37,W
026E:  SUBLW  00
0270:  BC    0276
....................          { 
....................             purga_segundos--; 
0272:  DECF   37,F
....................          } 
....................          else 
0274:  BRA    029E
....................          { 
....................             if(purga_minutos>0) 
0276:  BTFSC  22.7
0278:  BRA    0288
027A:  MOVF   22,W
027C:  SUBLW  00
027E:  BC    0288
....................             { 
....................                purga_minutos--; 
0280:  DECF   22,F
....................                purga_segundos=59; 
0282:  MOVLW  3B
0284:  MOVWF  37
....................             } 
....................             else 
0286:  BRA    029E
....................             { 
....................                //tiempo_cumplido=1; 
....................                tiempo_purga=0;Motor_on;Menu=20;Rele_on; 
0288:  BCF    54.4
028A:  BSF    F8A.5
028C:  BCF    F93.5
028E:  MOVLW  14
0290:  MOVWF  17
0292:  BSF    F8A.7
0294:  BCF    F93.7
....................                Luz_Blanca_on; 
0296:  BSF    F8A.4
0298:  BCF    F93.4
....................                estadomv=1; 
029A:  BSF    3E.1
....................                estadofl=1; 
029C:  BSF    3E.0
....................             } 
....................          } 
....................       } 
....................        
....................       if(tiempo_ppurga==1) 
029E:  BTFSS  54.5
02A0:  BRA    02C4
....................       { 
....................          if(ppurga_segundos>0) 
02A2:  BTFSC  39.7
02A4:  BRA    02B0
02A6:  MOVF   39,W
02A8:  SUBLW  00
02AA:  BC    02B0
....................          { 
....................             ppurga_segundos--; 
02AC:  DECF   39,F
....................          } 
....................          else 
02AE:  BRA    02C4
....................          { 
....................             if(ppurga_minutos>0) 
02B0:  BTFSC  3B.7
02B2:  BRA    02C2
02B4:  MOVF   3B,W
02B6:  SUBLW  00
02B8:  BC    02C2
....................             { 
....................                ppurga_minutos--; 
02BA:  DECF   3B,F
....................                ppurga_segundos=59; 
02BC:  MOVLW  3B
02BE:  MOVWF  39
....................             } 
....................             else 
02C0:  BRA    02C4
....................             { 
....................                //tiempo_cumplido=1; 
....................                reset_cpu(); 
02C2:  RESET
....................             } 
....................          } 
....................       } 
....................    } 
.................... } 
....................  
02C4:  BCF    FF2.2
02C6:  GOTO   0060
.................... void mensajes(int8 x,y)// Funcion para imprimir mensajes de Menu Principal. 
.................... {     
....................    if(x==1) 
*
1348:  MOVLB  1
134A:  DECFSZ x07,W
134C:  BRA    1386
....................    {if(estadoalarma==0) 
134E:  BTFSC  3E.2
1350:  BRA    136A
....................       {lcd_gotoxy(2,y);printf(lcd_putc,"Alarma          OFF");} 
1352:  MOVLW  02
1354:  MOVWF  x1C
1356:  MOVFF  108,11D
135A:  MOVLB  0
135C:  RCALL  0CC8
135E:  MOVLW  CA
1360:  MOVWF  FF6
1362:  MOVLW  02
1364:  MOVWF  FF7
1366:  RCALL  11F6
1368:  MOVLB  1
....................    if(estadoalarma==1) 
136A:  BTFSS  3E.2
136C:  BRA    1386
....................       {lcd_gotoxy(2,y);printf(lcd_putc,"Alarma           ON");} 
136E:  MOVLW  02
1370:  MOVWF  x1C
1372:  MOVFF  108,11D
1376:  MOVLB  0
1378:  RCALL  0CC8
137A:  MOVLW  DE
137C:  MOVWF  FF6
137E:  MOVLW  02
1380:  MOVWF  FF7
1382:  RCALL  11F6
1384:  MOVLB  1
....................    } 
....................     
....................    if(x==2) 
1386:  MOVF   x07,W
1388:  SUBLW  02
138A:  BNZ   13A4
....................    {lcd_gotoxy(2,y);printf(lcd_putc,"Filtro             ");} 
138C:  MOVLW  02
138E:  MOVWF  x1C
1390:  MOVFF  108,11D
1394:  MOVLB  0
1396:  RCALL  0CC8
1398:  MOVLW  F2
139A:  MOVWF  FF6
139C:  MOVLW  02
139E:  MOVWF  FF7
13A0:  RCALL  11F6
13A2:  MOVLB  1
....................     
....................    if(x==3) 
13A4:  MOVF   x07,W
13A6:  SUBLW  03
13A8:  BNZ   13C2
....................    {lcd_gotoxy(2,y);printf(lcd_putc,"Setpoint           ");} 
13AA:  MOVLW  02
13AC:  MOVWF  x1C
13AE:  MOVFF  108,11D
13B2:  MOVLB  0
13B4:  RCALL  0CC8
13B6:  MOVLW  06
13B8:  MOVWF  FF6
13BA:  MOVLW  03
13BC:  MOVWF  FF7
13BE:  RCALL  11F6
13C0:  MOVLB  1
....................     
....................    if(x==4) 
13C2:  MOVF   x07,W
13C4:  SUBLW  04
13C6:  BNZ   13E0
....................    {lcd_gotoxy(2,y);printf(lcd_putc,"Cambio Contraseña  ");} 
13C8:  MOVLW  02
13CA:  MOVWF  x1C
13CC:  MOVFF  108,11D
13D0:  MOVLB  0
13D2:  RCALL  0CC8
13D4:  MOVLW  1A
13D6:  MOVWF  FF6
13D8:  MOVLW  03
13DA:  MOVWF  FF7
13DC:  RCALL  11F6
13DE:  MOVLB  1
....................     
....................    if(x==5) 
13E0:  MOVF   x07,W
13E2:  SUBLW  05
13E4:  BNZ   13FE
....................    {lcd_gotoxy(2,y);printf(lcd_putc,"Media Movil        ");} 
13E6:  MOVLW  02
13E8:  MOVWF  x1C
13EA:  MOVFF  108,11D
13EE:  MOVLB  0
13F0:  RCALL  0CC8
13F2:  MOVLW  2E
13F4:  MOVWF  FF6
13F6:  MOVLW  03
13F8:  MOVWF  FF7
13FA:  RCALL  11F6
13FC:  MOVLB  1
....................     
....................    if(x==6) 
13FE:  MOVF   x07,W
1400:  SUBLW  06
1402:  BNZ   141C
....................    {lcd_gotoxy(2,y);printf(lcd_putc,"Punto Cero         ");} 
1404:  MOVLW  02
1406:  MOVWF  x1C
1408:  MOVFF  108,11D
140C:  MOVLB  0
140E:  RCALL  0CC8
1410:  MOVLW  42
1412:  MOVWF  FF6
1414:  MOVLW  03
1416:  MOVWF  FF7
1418:  RCALL  11F6
141A:  MOVLB  1
....................     
....................    if(x==7) 
141C:  MOVF   x07,W
141E:  SUBLW  07
1420:  BNZ   143A
....................    {lcd_gotoxy(2,y);printf(lcd_putc,"Mantenimiento      ");} 
1422:  MOVLW  02
1424:  MOVWF  x1C
1426:  MOVFF  108,11D
142A:  MOVLB  0
142C:  RCALL  0CC8
142E:  MOVLW  56
1430:  MOVWF  FF6
1432:  MOVLW  03
1434:  MOVWF  FF7
1436:  RCALL  11F6
1438:  MOVLB  1
....................     
....................    if(x==8) 
143A:  MOVF   x07,W
143C:  SUBLW  08
143E:  BNZ   1458
....................    {lcd_gotoxy(2,y);printf(lcd_putc,"Velocidad Motor    ");} 
1440:  MOVLW  02
1442:  MOVWF  x1C
1444:  MOVFF  108,11D
1448:  MOVLB  0
144A:  RCALL  0CC8
144C:  MOVLW  6A
144E:  MOVWF  FF6
1450:  MOVLW  03
1452:  MOVWF  FF7
1454:  RCALL  11F6
1456:  MOVLB  1
....................     
....................    if(x==9) 
1458:  MOVF   x07,W
145A:  SUBLW  09
145C:  BNZ   1476
....................    {lcd_gotoxy(2,y);printf(lcd_putc,"Tiempo de Purga    ");} 
145E:  MOVLW  02
1460:  MOVWF  x1C
1462:  MOVFF  108,11D
1466:  MOVLB  0
1468:  RCALL  0CC8
146A:  MOVLW  7E
146C:  MOVWF  FF6
146E:  MOVLW  03
1470:  MOVWF  FF7
1472:  RCALL  11F6
1474:  MOVLB  1
....................     
....................    if(x==10) 
1476:  MOVF   x07,W
1478:  SUBLW  0A
147A:  BNZ   1494
....................    {lcd_gotoxy(2,y);printf(lcd_putc,"Tiempo Post-Purga  ");} 
147C:  MOVLW  02
147E:  MOVWF  x1C
1480:  MOVFF  108,11D
1484:  MOVLB  0
1486:  RCALL  0CC8
1488:  MOVLW  92
148A:  MOVWF  FF6
148C:  MOVLW  03
148E:  MOVWF  FF7
1490:  RCALL  11F6
1492:  MOVLB  1
....................     
....................    if(x==11) 
1494:  MOVF   x07,W
1496:  SUBLW  0B
1498:  BNZ   14B2
....................    {lcd_gotoxy(2,y);printf(lcd_putc,"Mover Vidrio       ");} 
149A:  MOVLW  02
149C:  MOVWF  x1C
149E:  MOVFF  108,11D
14A2:  MOVLB  0
14A4:  RCALL  0CC8
14A6:  MOVLW  A6
14A8:  MOVWF  FF6
14AA:  MOVLW  03
14AC:  MOVWF  FF7
14AE:  RCALL  11F6
14B0:  MOVLB  1
.................... } 
14B2:  MOVLB  0
14B4:  RETLW  00
....................  
.................... void ajustar_damper(int8 cicloutil){ 
....................    set_pwm1_duty (cicloutil); 
*
19AC:  MOVFF  106,FBE
.................... } 
19B0:  RETLW  00
....................  
.................... void main () 
.................... { 
*
26BC:  CLRF   FF8
26BE:  BCF    FD0.7
26C0:  BSF    07.7
26C2:  CLRF   FEA
26C4:  CLRF   FE9
26C6:  MOVLW  64
26C8:  MOVWF  17
26CA:  MOVLW  0C
26CC:  MOVWF  18
26CE:  MOVLW  02
26D0:  MOVWF  19
26D2:  MOVLW  0B
26D4:  MOVWF  1A
26D6:  MOVLW  02
26D8:  MOVWF  1B
26DA:  MOVLW  03
26DC:  MOVWF  1C
26DE:  MOVLW  02
26E0:  MOVWF  1D
26E2:  MOVWF  1E
26E4:  MOVLW  04
26E6:  MOVWF  1F
26E8:  MOVLW  0A
26EA:  MOVWF  20
26EC:  MOVLW  01
26EE:  MOVWF  21
26F0:  CLRF   22
26F2:  CLRF   23
26F4:  CLRF   24
26F6:  CLRF   25
26F8:  CLRF   26
26FA:  CLRF   27
26FC:  CLRF   28
26FE:  CLRF   29
2700:  CLRF   2A
2702:  CLRF   2B
2704:  MOVLW  0A
2706:  MOVWF  2C
2708:  CLRF   2D
270A:  MOVWF  2E
270C:  MOVWF  2F
270E:  MOVWF  30
2710:  MOVWF  31
2712:  CLRF   32
2714:  CLRF   33
2716:  CLRF   34
2718:  CLRF   35
271A:  CLRF   36
271C:  CLRF   37
271E:  CLRF   38
2720:  CLRF   39
2722:  CLRF   3A
2724:  CLRF   3B
2726:  CLRF   3C
2728:  CLRF   3D
272A:  BCF    3E.0
272C:  BCF    3E.1
272E:  BCF    3E.2
2730:  BCF    3E.3
2732:  BCF    3E.4
2734:  BCF    3E.5
2736:  BCF    3E.6
2738:  BCF    3E.7
273A:  BCF    3F.0
273C:  BCF    3F.1
273E:  BCF    3F.2
2740:  CLRF   40
2742:  CLRF   4F
2744:  CLRF   4E
2746:  CLRF   4D
2748:  CLRF   4C
274A:  CLRF   53
274C:  CLRF   52
274E:  MOVLW  4B
2750:  MOVWF  51
2752:  MOVLW  86
2754:  MOVWF  50
2756:  BCF    3F.4
2758:  BCF    3F.5
275A:  BCF    3F.6
275C:  BCF    3F.7
275E:  BCF    54.0
2760:  BCF    54.1
2762:  BCF    54.2
2764:  BCF    54.3
2766:  BCF    54.4
2768:  BCF    54.5
276A:  CLRF   56
276C:  CLRF   55
276E:  CLRF   58
2770:  CLRF   57
2772:  CLRF   5A
2774:  CLRF   59
2776:  CLRF   5E
2778:  MOVLW  E0
277A:  MOVWF  5D
277C:  MOVLW  5D
277E:  MOVWF  5C
2780:  MOVLW  8A
2782:  MOVWF  5B
2784:  CLRF   x62
2786:  MOVLW  C0
2788:  MOVWF  x61
278A:  MOVLW  28
278C:  MOVWF  x60
278E:  MOVLW  89
2790:  MOVWF  5F
2792:  MOVLW  33
2794:  MOVWF  x66
2796:  MOVLW  13
2798:  MOVWF  x65
279A:  MOVLW  15
279C:  MOVWF  x64
279E:  MOVLW  87
27A0:  MOVWF  x63
27A2:  CLRF   x6A
27A4:  CLRF   x69
27A6:  CLRF   x68
27A8:  CLRF   x67
27AA:  CLRF   x6E
27AC:  CLRF   x6D
27AE:  CLRF   x6C
27B0:  CLRF   x6B
27B2:  CLRF   x72
27B4:  CLRF   x71
27B6:  MOVLW  7A
27B8:  MOVWF  x70
27BA:  MOVLW  88
27BC:  MOVWF  x6F
27BE:  CLRF   x76
27C0:  CLRF   x75
27C2:  CLRF   x74
27C4:  CLRF   x73
27C6:  CLRF   x7A
27C8:  CLRF   x79
27CA:  CLRF   x78
27CC:  CLRF   x77
27CE:  CLRF   x7E
27D0:  CLRF   x7D
27D2:  CLRF   x7C
27D4:  CLRF   x7B
27D6:  MOVLW  19
27D8:  MOVWF  x82
27DA:  MOVLW  53
27DC:  MOVWF  x81
27DE:  MOVLW  18
27E0:  MOVWF  x80
27E2:  MOVLW  68
27E4:  MOVWF  x7F
27E6:  MOVLW  E9
27E8:  MOVWF  x86
27EA:  MOVLW  BD
27EC:  MOVWF  x85
27EE:  MOVLW  C6
27F0:  MOVWF  x84
27F2:  MOVLW  71
27F4:  MOVWF  x83
27F6:  MOVLW  BE
27F8:  MOVWF  x8A
27FA:  MOVLW  96
27FC:  MOVWF  x89
27FE:  MOVLW  24
2800:  MOVWF  x88
2802:  MOVLW  7A
2804:  MOVWF  x87
2806:  MOVLW  F3
2808:  MOVWF  x8E
280A:  MOVLW  5A
280C:  MOVWF  x8D
280E:  MOVLW  AB
2810:  MOVWF  x8C
2812:  MOVLW  81
2814:  MOVWF  x8B
2816:  CLRF   x92
2818:  CLRF   x91
281A:  CLRF   x90
281C:  CLRF   x8F
281E:  CLRF   x96
2820:  CLRF   x95
2822:  CLRF   x94
2824:  CLRF   x93
2826:  CLRF   x9A
2828:  CLRF   x99
282A:  CLRF   x98
282C:  CLRF   x97
282E:  CLRF   x9E
2830:  CLRF   x9D
2832:  CLRF   x9C
2834:  CLRF   x9B
2836:  CLRF   xA2
2838:  CLRF   xA1
283A:  CLRF   xA0
283C:  CLRF   x9F
283E:  CLRF   xA6
2840:  CLRF   xA5
2842:  CLRF   xA4
2844:  CLRF   xA3
2846:  CLRF   xAA
2848:  CLRF   xA9
284A:  CLRF   xA8
284C:  CLRF   xA7
284E:  CLRF   xAE
2850:  CLRF   xAD
2852:  CLRF   xAC
2854:  CLRF   xAB
2856:  CLRF   xB2
2858:  CLRF   xB1
285A:  CLRF   xB0
285C:  CLRF   xAF
285E:  CLRF   xB6
2860:  CLRF   xB5
2862:  CLRF   xB4
2864:  CLRF   xB3
2866:  CLRF   xBA
2868:  CLRF   xB9
286A:  CLRF   xB8
286C:  CLRF   xB7
286E:  CLRF   xBE
2870:  CLRF   xBD
2872:  CLRF   xBC
2874:  CLRF   xBB
2876:  CLRF   xC2
2878:  CLRF   xC1
287A:  CLRF   xC0
287C:  MOVLW  7F
287E:  MOVWF  xBF
2880:  CLRF   xC6
2882:  CLRF   xC5
2884:  CLRF   xC4
2886:  CLRF   xC3
2888:  MOVLB  1
288A:  CLRF   x00
288C:  MOVLB  0
288E:  CLRF   xFF
2890:  MOVLB  1
2892:  CLRF   x05
2894:  MOVF   FC1,W
2896:  ANDLW  C0
2898:  IORLW  0F
289A:  MOVWF  FC1
289C:  MOVLW  07
289E:  MOVWF  FB4
28A0:  MOVLW  3E
28A2:  MOVWF  41
28A4:  MOVLW  20
28A6:  MOVWF  42
28A8:  MOVLW  5E
28AA:  MOVWF  43
28AC:  CLRF   44
28AE:  CLRF   45
28B0:  CLRF   46
28B2:  CLRF   47
28B4:  CLRF   48
28B6:  CLRF   49
28B8:  CLRF   4A
28BA:  CLRF   4B
28BC:  MOVLB  0
28BE:  CLRF   xC7
28C0:  CLRF   xC8
28C2:  CLRF   xC9
28C4:  CLRF   xCA
28C6:  CLRF   xCB
28C8:  CLRF   xCC
28CA:  CLRF   xCD
28CC:  CLRF   xCE
28CE:  CLRF   xCF
28D0:  CLRF   xD0
28D2:  CLRF   xD1
28D4:  CLRF   xD2
28D6:  CLRF   xD3
28D8:  CLRF   xD4
28DA:  CLRF   xD5
28DC:  CLRF   xD6
28DE:  CLRF   xD7
28E0:  CLRF   xD8
28E2:  CLRF   xD9
28E4:  CLRF   xDA
28E6:  CLRF   xDB
28E8:  CLRF   xDC
28EA:  CLRF   xDD
28EC:  CLRF   xDE
28EE:  CLRF   xDF
28F0:  CLRF   xE0
28F2:  CLRF   xE1
28F4:  CLRF   xE2
28F6:  CLRF   xE3
28F8:  CLRF   xE4
28FA:  CLRF   xE5
28FC:  CLRF   xE6
28FE:  CLRF   xE7
2900:  CLRF   xE8
2902:  CLRF   xE9
2904:  CLRF   xEA
2906:  CLRF   xEB
2908:  CLRF   xEC
290A:  CLRF   xED
290C:  CLRF   xEE
290E:  CLRF   xEF
2910:  CLRF   xF0
2912:  CLRF   xF1
2914:  CLRF   xF2
2916:  CLRF   xF3
2918:  CLRF   xF4
291A:  CLRF   xF5
291C:  CLRF   xF6
....................    setup_adc_ports(AN0_TO_AN2); 
291E:  MOVF   FC1,W
2920:  ANDLW  C0
2922:  IORLW  0C
2924:  MOVWF  FC1
....................    setup_adc(ADC_CLOCK_DIV_32 ); 
2926:  BCF    FC0.0
2928:  BSF    FC0.1
292A:  BCF    FC0.2
292C:  BSF    FC0.7
292E:  BSF    FC2.0
....................    output_d(0);  
2930:  CLRF   F95
2932:  CLRF   F8C
....................    setup_timer_0(RTCC_8_BIT|RTCC_DIV_128); 
2934:  MOVLW  C6
2936:  MOVWF  FD5
....................    setup_timer_1(T1_INTERNAL|T1_DIV_BY_4); 
2938:  MOVLW  A5
293A:  MOVWF  FCD
....................    EXT_INT_EDGE(0,H_TO_L); //  
293C:  BCF    FF1.6
....................    enable_interrupts(INT_EXT); 
293E:  BSF    FF2.4
....................    enable_interrupts(INT_TIMER0); 
2940:  BSF    FF2.5
....................    setup_timer_2(T2_DIV_BY_4, 255, 1);  
2942:  MOVLW  00
2944:  IORLW  05
2946:  MOVWF  FCA
2948:  MOVLW  FF
294A:  MOVWF  FCB
....................    setup_ccp1 (CCP_PWM); 
294C:  BCF    F94.2
294E:  BCF    F8B.2
2950:  BCF    F96.6
2952:  MOVLW  0C
2954:  MOVWF  FBD
2956:  CLRF   FB7
2958:  CLRF   FB6
....................    enable_interrupts(GLOBAL); 
295A:  MOVLW  C0
295C:  IORWF  FF2,F
....................    set_pwm1_duty(0); 
295E:  CLRF   FBE
....................    intensidadpantalla(0); 
2960:  MOVLB  1
2962:  CLRF   x06
2964:  MOVLB  0
2966:  CALL   0BBE
....................    lcd_init(); 
296A:  CALL   0C54
....................    printf(lcd_putc,"\f"); 
296E:  MOVLW  0C
2970:  MOVLB  1
2972:  MOVWF  x1B
2974:  MOVLB  0
2976:  CALL   0D3A
....................              
....................    // Lee la contraseña almacenada en la eeprom para poder comprobar con la que escribe el usuario. 
....................    contrasena[0]=read_eeprom(0);delay_ms(20); contrasena[1]=read_eeprom(1);delay_ms(20); 
297A:  MOVFF  FF2,106
297E:  BCF    FF2.7
2980:  CLRF   FA9
2982:  BCF    FA6.6
2984:  BCF    FA6.7
2986:  BSF    FA6.0
2988:  MOVF   FA8,W
298A:  MOVLB  1
298C:  BTFSC  x06.7
298E:  BSF    FF2.7
2990:  MOVWF  48
2992:  MOVLW  14
2994:  MOVWF  x1C
2996:  MOVLB  0
2998:  CALL   0BD2
299C:  MOVFF  FF2,106
29A0:  BCF    FF2.7
29A2:  MOVLW  01
29A4:  MOVWF  FA9
29A6:  BCF    FA6.6
29A8:  BCF    FA6.7
29AA:  BSF    FA6.0
29AC:  MOVF   FA8,W
29AE:  MOVLB  1
29B0:  BTFSC  x06.7
29B2:  BSF    FF2.7
29B4:  MOVWF  49
29B6:  MOVLW  14
29B8:  MOVWF  x1C
29BA:  MOVLB  0
29BC:  CALL   0BD2
....................    contrasena[2]=read_eeprom(2);delay_ms(20); contrasena[3]=read_eeprom(3);delay_ms(20); 
29C0:  MOVFF  FF2,106
29C4:  BCF    FF2.7
29C6:  MOVLW  02
29C8:  MOVWF  FA9
29CA:  BCF    FA6.6
29CC:  BCF    FA6.7
29CE:  BSF    FA6.0
29D0:  MOVF   FA8,W
29D2:  MOVLB  1
29D4:  BTFSC  x06.7
29D6:  BSF    FF2.7
29D8:  MOVWF  4A
29DA:  MOVLW  14
29DC:  MOVWF  x1C
29DE:  MOVLB  0
29E0:  CALL   0BD2
29E4:  MOVFF  FF2,106
29E8:  BCF    FF2.7
29EA:  MOVLW  03
29EC:  MOVWF  FA9
29EE:  BCF    FA6.6
29F0:  BCF    FA6.7
29F2:  BSF    FA6.0
29F4:  MOVF   FA8,W
29F6:  MOVLB  1
29F8:  BTFSC  x06.7
29FA:  BSF    FF2.7
29FC:  MOVWF  4B
29FE:  MOVLW  14
2A00:  MOVWF  x1C
2A02:  MOVLB  0
2A04:  CALL   0BD2
....................    estadoalarma=read_eeprom(5);delay_ms(20); 
2A08:  MOVFF  FF2,106
2A0C:  BCF    FF2.7
2A0E:  MOVLW  05
2A10:  MOVWF  FA9
2A12:  BCF    FA6.6
2A14:  BCF    FA6.7
2A16:  BSF    FA6.0
2A18:  MOVF   FA8,W
2A1A:  MOVLB  1
2A1C:  BTFSC  x06.7
2A1E:  BSF    FF2.7
2A20:  MOVWF  01
2A22:  BCF    3E.2
2A24:  BTFSC  01.0
2A26:  BSF    3E.2
2A28:  MOVLW  14
2A2A:  MOVWF  x1C
2A2C:  MOVLB  0
2A2E:  CALL   0BD2
....................     
....................    Manual=read_eeprom(10); 
2A32:  MOVFF  FF2,106
2A36:  BCF    FF2.7
2A38:  MOVLW  0A
2A3A:  MOVWF  FA9
2A3C:  BCF    FA6.6
2A3E:  BCF    FA6.7
2A40:  BSF    FA6.0
2A42:  MOVF   FA8,W
2A44:  MOVLB  1
2A46:  BTFSC  x06.7
2A48:  BSF    FF2.7
2A4A:  MOVWF  30
....................    delay_ms(20); 
2A4C:  MOVLW  14
2A4E:  MOVWF  x1C
2A50:  MOVLB  0
2A52:  CALL   0BD2
....................    Automa=read_eeprom(11); 
2A56:  MOVFF  FF2,106
2A5A:  BCF    FF2.7
2A5C:  MOVLW  0B
2A5E:  MOVWF  FA9
2A60:  BCF    FA6.6
2A62:  BCF    FA6.7
2A64:  BSF    FA6.0
2A66:  MOVF   FA8,W
2A68:  MOVLB  1
2A6A:  BTFSC  x06.7
2A6C:  BSF    FF2.7
2A6E:  MOVWF  2F
....................    delay_ms(20); 
2A70:  MOVLW  14
2A72:  MOVWF  x1C
2A74:  MOVLB  0
2A76:  CALL   0BD2
....................    Semi=read_eeprom(12); 
2A7A:  MOVFF  FF2,106
2A7E:  BCF    FF2.7
2A80:  MOVLW  0C
2A82:  MOVWF  FA9
2A84:  BCF    FA6.6
2A86:  BCF    FA6.7
2A88:  BSF    FA6.0
2A8A:  MOVF   FA8,W
2A8C:  MOVLB  1
2A8E:  BTFSC  x06.7
2A90:  BSF    FF2.7
2A92:  MOVWF  31
....................    delay_ms(20); 
2A94:  MOVLW  14
2A96:  MOVWF  x1C
2A98:  MOVLB  0
2A9A:  CALL   0BD2
....................    ValorSemi=read_eeprom(13); 
2A9E:  MOVFF  FF2,106
2AA2:  BCF    FF2.7
2AA4:  MOVLW  0D
2AA6:  MOVWF  FA9
2AA8:  BCF    FA6.6
2AAA:  BCF    FA6.7
2AAC:  BSF    FA6.0
2AAE:  MOVF   FA8,W
2AB0:  MOVLB  1
2AB2:  BTFSC  x06.7
2AB4:  BSF    FF2.7
2AB6:  MOVWF  32
....................    delay_ms(20); 
2AB8:  MOVLW  14
2ABA:  MOVWF  x1C
2ABC:  MOVLB  0
2ABE:  CALL   0BD2
....................    tmp=ValorSemi; 
2AC2:  MOVFF  32,2C
....................    delay_ms(20); 
2AC6:  MOVLW  14
2AC8:  MOVLB  1
2ACA:  MOVWF  x1C
2ACC:  MOVLB  0
2ACE:  CALL   0BD2
....................    purga_minutos=read_eeprom(20); 
2AD2:  MOVFF  FF2,106
2AD6:  BCF    FF2.7
2AD8:  MOVLW  14
2ADA:  MOVWF  FA9
2ADC:  BCF    FA6.6
2ADE:  BCF    FA6.7
2AE0:  BSF    FA6.0
2AE2:  MOVF   FA8,W
2AE4:  MOVLB  1
2AE6:  BTFSC  x06.7
2AE8:  BSF    FF2.7
2AEA:  MOVWF  22
....................    delay_ms(20); 
2AEC:  MOVLW  14
2AEE:  MOVWF  x1C
2AF0:  MOVLB  0
2AF2:  CALL   0BD2
....................    purga_segundos=read_eeprom(21); 
2AF6:  MOVFF  FF2,106
2AFA:  BCF    FF2.7
2AFC:  MOVLW  15
2AFE:  MOVWF  FA9
2B00:  BCF    FA6.6
2B02:  BCF    FA6.7
2B04:  BSF    FA6.0
2B06:  MOVF   FA8,W
2B08:  MOVLB  1
2B0A:  BTFSC  x06.7
2B0C:  BSF    FF2.7
2B0E:  MOVWF  37
....................    delay_ms(20); 
2B10:  MOVLW  14
2B12:  MOVWF  x1C
2B14:  MOVLB  0
2B16:  CALL   0BD2
....................    purga_minutos_pro=purga_minutos; 
2B1A:  MOVFF  22,23
....................    delay_ms(20); 
2B1E:  MOVLW  14
2B20:  MOVLB  1
2B22:  MOVWF  x1C
2B24:  MOVLB  0
2B26:  CALL   0BD2
....................    purga_segundos_pro=purga_segundos; 
2B2A:  MOVFF  37,38
....................    delay_ms(20); 
2B2E:  MOVLW  14
2B30:  MOVLB  1
2B32:  MOVWF  x1C
2B34:  MOVLB  0
2B36:  CALL   0BD2
....................    ppurga_minutos=read_eeprom(22); 
2B3A:  MOVFF  FF2,106
2B3E:  BCF    FF2.7
2B40:  MOVLW  16
2B42:  MOVWF  FA9
2B44:  BCF    FA6.6
2B46:  BCF    FA6.7
2B48:  BSF    FA6.0
2B4A:  MOVF   FA8,W
2B4C:  MOVLB  1
2B4E:  BTFSC  x06.7
2B50:  BSF    FF2.7
2B52:  MOVWF  3B
....................    delay_ms(20); 
2B54:  MOVLW  14
2B56:  MOVWF  x1C
2B58:  MOVLB  0
2B5A:  CALL   0BD2
....................    ppurga_segundos=read_eeprom(23); 
2B5E:  MOVFF  FF2,106
2B62:  BCF    FF2.7
2B64:  MOVLW  17
2B66:  MOVWF  FA9
2B68:  BCF    FA6.6
2B6A:  BCF    FA6.7
2B6C:  BSF    FA6.0
2B6E:  MOVF   FA8,W
2B70:  MOVLB  1
2B72:  BTFSC  x06.7
2B74:  BSF    FF2.7
2B76:  MOVWF  39
....................    delay_ms(20); 
2B78:  MOVLW  14
2B7A:  MOVWF  x1C
2B7C:  MOVLB  0
2B7E:  CALL   0BD2
....................    ppurga_minutos_pro=ppurga_minutos; 
2B82:  MOVFF  3B,3C
....................    delay_ms(20); 
2B86:  MOVLW  14
2B88:  MOVLB  1
2B8A:  MOVWF  x1C
2B8C:  MOVLB  0
2B8E:  CALL   0BD2
....................    ppurga_segundos_pro=ppurga_segundos; 
2B92:  MOVFF  39,3A
....................    delay_ms(20);    
2B96:  MOVLW  14
2B98:  MOVLB  1
2B9A:  MOVWF  x1C
2B9C:  MOVLB  0
2B9E:  CALL   0BD2
....................    Entero=read_eeprom(25);//Decimal1=read_eeprom(26); 
2BA2:  MOVFF  FF2,106
2BA6:  BCF    FF2.7
2BA8:  MOVLW  19
2BAA:  MOVWF  FA9
2BAC:  BCF    FA6.6
2BAE:  BCF    FA6.7
2BB0:  BSF    FA6.0
2BB2:  MOVF   FA8,W
2BB4:  MOVLB  1
2BB6:  BTFSC  x06.7
2BB8:  BSF    FF2.7
2BBA:  MOVWF  24
....................    delay_ms(20); 
2BBC:  MOVLW  14
2BBE:  MOVWF  x1C
2BC0:  MOVLB  0
2BC2:  CALL   0BD2
....................    Temporal=read_eeprom(26); 
2BC6:  MOVFF  FF2,106
2BCA:  BCF    FF2.7
2BCC:  MOVLW  1A
2BCE:  MOVWF  FA9
2BD0:  BCF    FA6.6
2BD2:  BCF    FA6.7
2BD4:  BSF    FA6.0
2BD6:  MOVF   FA8,W
2BD8:  MOVLB  1
2BDA:  BTFSC  x06.7
2BDC:  BSF    FF2.7
2BDE:  CLRF   x10
2BE0:  MOVWF  x0F
2BE2:  MOVLB  0
2BE4:  CALL   0DA6
2BE8:  MOVFF  03,AA
2BEC:  MOVFF  02,A9
2BF0:  MOVFF  01,A8
2BF4:  MOVFF  00,A7
....................    delay_ms(20); 
2BF8:  MOVLW  14
2BFA:  MOVLB  1
2BFC:  MOVWF  x1C
2BFE:  MOVLB  0
2C00:  CALL   0BD2
....................    Temporal=Temporal/100.0; 
2C04:  MOVFF  AA,127
2C08:  MOVFF  A9,126
2C0C:  MOVFF  A8,125
2C10:  MOVFF  A7,124
2C14:  MOVLB  1
2C16:  CLRF   x2B
2C18:  CLRF   x2A
2C1A:  MOVLW  48
2C1C:  MOVWF  x29
2C1E:  MOVLW  85
2C20:  MOVWF  x28
2C22:  MOVLB  0
2C24:  CALL   0DDC
2C28:  MOVFF  03,AA
2C2C:  MOVFF  02,A9
2C30:  MOVFF  01,A8
2C34:  MOVFF  00,A7
....................    Ajuste1=Entero+Temporal; 
2C38:  MOVLB  1
2C3A:  CLRF   x10
2C3C:  MOVFF  24,10F
2C40:  MOVLB  0
2C42:  CALL   0DA6
2C46:  BCF    FD8.1
2C48:  MOVFF  03,127
2C4C:  MOVFF  02,126
2C50:  MOVFF  01,125
2C54:  MOVFF  00,124
2C58:  MOVFF  AA,12B
2C5C:  MOVFF  A9,12A
2C60:  MOVFF  A8,129
2C64:  MOVFF  A7,128
2C68:  CALL   0F3A
2C6C:  MOVFF  03,C2
2C70:  MOVFF  02,C1
2C74:  MOVFF  01,C0
2C78:  MOVFF  00,BF
....................     
....................    Entero=read_eeprom(40);//Decimal2=read_eeprom(41); 
2C7C:  MOVFF  FF2,106
2C80:  BCF    FF2.7
2C82:  MOVLW  28
2C84:  MOVWF  FA9
2C86:  BCF    FA6.6
2C88:  BCF    FA6.7
2C8A:  BSF    FA6.0
2C8C:  MOVF   FA8,W
2C8E:  MOVLB  1
2C90:  BTFSC  x06.7
2C92:  BSF    FF2.7
2C94:  MOVWF  24
....................    delay_ms(20); 
2C96:  MOVLW  14
2C98:  MOVWF  x1C
2C9A:  MOVLB  0
2C9C:  CALL   0BD2
....................    Temporal=read_eeprom(41); 
2CA0:  MOVFF  FF2,106
2CA4:  BCF    FF2.7
2CA6:  MOVLW  29
2CA8:  MOVWF  FA9
2CAA:  BCF    FA6.6
2CAC:  BCF    FA6.7
2CAE:  BSF    FA6.0
2CB0:  MOVF   FA8,W
2CB2:  MOVLB  1
2CB4:  BTFSC  x06.7
2CB6:  BSF    FF2.7
2CB8:  CLRF   x10
2CBA:  MOVWF  x0F
2CBC:  MOVLB  0
2CBE:  CALL   0DA6
2CC2:  MOVFF  03,AA
2CC6:  MOVFF  02,A9
2CCA:  MOVFF  01,A8
2CCE:  MOVFF  00,A7
....................    delay_ms(20); 
2CD2:  MOVLW  14
2CD4:  MOVLB  1
2CD6:  MOVWF  x1C
2CD8:  MOVLB  0
2CDA:  CALL   0BD2
....................    Temporal=Temporal/100.0; 
2CDE:  MOVFF  AA,127
2CE2:  MOVFF  A9,126
2CE6:  MOVFF  A8,125
2CEA:  MOVFF  A7,124
2CEE:  MOVLB  1
2CF0:  CLRF   x2B
2CF2:  CLRF   x2A
2CF4:  MOVLW  48
2CF6:  MOVWF  x29
2CF8:  MOVLW  85
2CFA:  MOVWF  x28
2CFC:  MOVLB  0
2CFE:  CALL   0DDC
2D02:  MOVFF  03,AA
2D06:  MOVFF  02,A9
2D0A:  MOVFF  01,A8
2D0E:  MOVFF  00,A7
....................    setpoint=Entero+Temporal; 
2D12:  MOVLB  1
2D14:  CLRF   x10
2D16:  MOVFF  24,10F
2D1A:  MOVLB  0
2D1C:  CALL   0DA6
2D20:  BCF    FD8.1
2D22:  MOVFF  03,127
2D26:  MOVFF  02,126
2D2A:  MOVFF  01,125
2D2E:  MOVFF  00,124
2D32:  MOVFF  AA,12B
2D36:  MOVFF  A9,12A
2D3A:  MOVFF  A8,129
2D3E:  MOVFF  A7,128
2D42:  CALL   0F3A
2D46:  MOVFF  03,4F
2D4A:  MOVFF  02,4E
2D4E:  MOVFF  01,4D
2D52:  MOVFF  00,4C
....................     
....................    Entero1=read_eeprom(60);//Decimal2=read_eeprom(41); 
2D56:  MOVFF  FF2,106
2D5A:  BCF    FF2.7
2D5C:  MOVLW  3C
2D5E:  MOVWF  FA9
2D60:  BCF    FA6.6
2D62:  BCF    FA6.7
2D64:  BSF    FA6.0
2D66:  MOVF   FA8,W
2D68:  MOVLB  1
2D6A:  BTFSC  x06.7
2D6C:  BSF    FF2.7
2D6E:  MOVWF  27
....................    delay_ms(20); 
2D70:  MOVLW  14
2D72:  MOVWF  x1C
2D74:  MOVLB  0
2D76:  CALL   0BD2
....................    Temporal1=read_eeprom(61); 
2D7A:  MOVFF  FF2,106
2D7E:  BCF    FF2.7
2D80:  MOVLW  3D
2D82:  MOVWF  FA9
2D84:  BCF    FA6.6
2D86:  BCF    FA6.7
2D88:  BSF    FA6.0
2D8A:  MOVF   FA8,W
2D8C:  MOVLB  1
2D8E:  BTFSC  x06.7
2D90:  BSF    FF2.7
2D92:  CLRF   x10
2D94:  MOVWF  x0F
2D96:  MOVLB  0
2D98:  CALL   0DA6
2D9C:  MOVFF  03,B6
2DA0:  MOVFF  02,B5
2DA4:  MOVFF  01,B4
2DA8:  MOVFF  00,B3
....................    delay_ms(20); 
2DAC:  MOVLW  14
2DAE:  MOVLB  1
2DB0:  MOVWF  x1C
2DB2:  MOVLB  0
2DB4:  CALL   0BD2
....................    Temporal1=Temporal1/100.0; 
2DB8:  MOVFF  B6,127
2DBC:  MOVFF  B5,126
2DC0:  MOVFF  B4,125
2DC4:  MOVFF  B3,124
2DC8:  MOVLB  1
2DCA:  CLRF   x2B
2DCC:  CLRF   x2A
2DCE:  MOVLW  48
2DD0:  MOVWF  x29
2DD2:  MOVLW  85
2DD4:  MOVWF  x28
2DD6:  MOVLB  0
2DD8:  CALL   0DDC
2DDC:  MOVFF  03,B6
2DE0:  MOVFF  02,B5
2DE4:  MOVFF  01,B4
2DE8:  MOVFF  00,B3
....................    Diferencia=Entero1+Temporal1; 
2DEC:  MOVLB  1
2DEE:  CLRF   x10
2DF0:  MOVFF  27,10F
2DF4:  MOVLB  0
2DF6:  CALL   0DA6
2DFA:  BCF    FD8.1
2DFC:  MOVFF  03,127
2E00:  MOVFF  02,126
2E04:  MOVFF  01,125
2E08:  MOVFF  00,124
2E0C:  MOVFF  B6,12B
2E10:  MOVFF  B5,12A
2E14:  MOVFF  B4,129
2E18:  MOVFF  B3,128
2E1C:  CALL   0F3A
2E20:  MOVFF  03,BE
2E24:  MOVFF  02,BD
2E28:  MOVFF  01,BC
2E2C:  MOVFF  00,BB
....................     
....................    negativo=read_eeprom(50); 
2E30:  MOVFF  FF2,106
2E34:  BCF    FF2.7
2E36:  MOVLW  32
2E38:  MOVWF  FA9
2E3A:  BCF    FA6.6
2E3C:  BCF    FA6.7
2E3E:  BSF    FA6.0
2E40:  MOVF   FA8,W
2E42:  MOVLB  1
2E44:  BTFSC  x06.7
2E46:  BSF    FF2.7
2E48:  MOVWF  2E
....................    delay_ms(20); 
2E4A:  MOVLW  14
2E4C:  MOVWF  x1C
2E4E:  MOVLB  0
2E50:  CALL   0BD2
....................    MediaMovil=read_eeprom(42); 
2E54:  MOVFF  FF2,106
2E58:  BCF    FF2.7
2E5A:  MOVLW  2A
2E5C:  MOVWF  FA9
2E5E:  BCF    FA6.6
2E60:  BCF    FA6.7
2E62:  BSF    FA6.0
2E64:  MOVF   FA8,W
2E66:  MOVLB  1
2E68:  BTFSC  x06.7
2E6A:  BSF    FF2.7
2E6C:  MOVWF  2D
....................    delay_ms(20); 
2E6E:  MOVLW  14
2E70:  MOVWF  x1C
2E72:  MOVLB  0
2E74:  CALL   0BD2
....................     
....................    if(MediaMovil>12) 
2E78:  MOVF   2D,W
2E7A:  SUBLW  0C
2E7C:  BC    2E82
....................    {MediaMovil=12;} 
2E7E:  MOVLW  0C
2E80:  MOVWF  2D
....................     
....................    if(MediaMovil<1) 
2E82:  MOVF   2D,F
2E84:  BNZ   2E8A
....................    {MediaMovil=1;} 
2E86:  MOVLW  01
2E88:  MOVWF  2D
....................     
....................    segundos=read_eeprom(70); 
2E8A:  MOVFF  FF2,106
2E8E:  BCF    FF2.7
2E90:  MOVLW  46
2E92:  MOVWF  FA9
2E94:  BCF    FA6.6
2E96:  BCF    FA6.7
2E98:  BSF    FA6.0
2E9A:  MOVF   FA8,W
2E9C:  MOVLB  1
2E9E:  BTFSC  x06.7
2EA0:  BSF    FF2.7
2EA2:  MOVWF  33
....................    delay_ms(20); 
2EA4:  MOVLW  14
2EA6:  MOVWF  x1C
2EA8:  MOVLB  0
2EAA:  CALL   0BD2
....................    minutos=read_eeprom(71); 
2EAE:  MOVFF  FF2,106
2EB2:  BCF    FF2.7
2EB4:  MOVLW  47
2EB6:  MOVWF  FA9
2EB8:  BCF    FA6.6
2EBA:  BCF    FA6.7
2EBC:  BSF    FA6.0
2EBE:  MOVF   FA8,W
2EC0:  MOVLB  1
2EC2:  BTFSC  x06.7
2EC4:  BSF    FF2.7
2EC6:  MOVWF  34
....................    delay_ms(20); 
2EC8:  MOVLW  14
2ECA:  MOVWF  x1C
2ECC:  MOVLB  0
2ECE:  CALL   0BD2
....................    horas=read_eeprom(72); 
2ED2:  MOVFF  FF2,106
2ED6:  BCF    FF2.7
2ED8:  MOVLW  48
2EDA:  MOVWF  FA9
2EDC:  BCF    FA6.6
2EDE:  BCF    FA6.7
2EE0:  BSF    FA6.0
2EE2:  MOVF   FA8,W
2EE4:  MOVLB  1
2EE6:  BTFSC  x06.7
2EE8:  BSF    FF2.7
2EEA:  MOVWF  35
....................    delay_ms(20); 
2EEC:  MOVLW  14
2EEE:  MOVWF  x1C
2EF0:  MOVLB  0
2EF2:  CALL   0BD2
....................    flag_filtro=read_eeprom(73); 
2EF6:  MOVFF  FF2,106
2EFA:  BCF    FF2.7
2EFC:  MOVLW  49
2EFE:  MOVWF  FA9
2F00:  BCF    FA6.6
2F02:  BCF    FA6.7
2F04:  BSF    FA6.0
2F06:  MOVF   FA8,W
2F08:  MOVLB  1
2F0A:  BTFSC  x06.7
2F0C:  BSF    FF2.7
2F0E:  MOVWF  01
2F10:  BCF    3F.2
2F12:  BTFSC  01.0
2F14:  BSF    3F.2
....................    Menu=200; 
2F16:  MOVLW  C8
2F18:  MOVWF  17
....................    
....................    while(true){ 
....................  
....................       if(NUEVO_DATO==1){ 
2F1A:  BTFSS  54.7
2F1C:  BRA    313C
....................          NUEVO_DATO=0; 
2F1E:  BCF    54.7
....................          BYTE_IR[0]=BIT_BYTE(BITS[0],BITS[1],BITS[2],BITS[3],BITS[4],BITS[5],BITS[6],BITS[7]); 
2F20:  MOVLW  00
2F22:  MOVLB  0
2F24:  BTFSC  xF7.0
2F26:  MOVLW  01
2F28:  MOVLB  1
2F2A:  MOVWF  x06
2F2C:  MOVLW  00
2F2E:  MOVLB  0
2F30:  BTFSC  xF7.1
2F32:  MOVLW  01
2F34:  MOVLB  1
2F36:  MOVWF  x07
2F38:  MOVLW  00
2F3A:  MOVLB  0
2F3C:  BTFSC  xF7.2
2F3E:  MOVLW  01
2F40:  MOVLB  1
2F42:  MOVWF  x08
2F44:  MOVLW  00
2F46:  MOVLB  0
2F48:  BTFSC  xF7.3
2F4A:  MOVLW  01
2F4C:  MOVLB  1
2F4E:  MOVWF  x09
2F50:  MOVLW  00
2F52:  MOVLB  0
2F54:  BTFSC  xF7.4
2F56:  MOVLW  01
2F58:  MOVLB  1
2F5A:  MOVWF  x0A
2F5C:  MOVLW  00
2F5E:  MOVLB  0
2F60:  BTFSC  xF7.5
2F62:  MOVLW  01
2F64:  MOVLB  1
2F66:  MOVWF  x0B
2F68:  MOVLW  00
2F6A:  MOVLB  0
2F6C:  BTFSC  xF7.6
2F6E:  MOVLW  01
2F70:  MOVLB  1
2F72:  MOVWF  x0C
2F74:  MOVLW  00
2F76:  MOVLB  0
2F78:  BTFSC  xF7.7
2F7A:  MOVLW  01
2F7C:  MOVLB  1
2F7E:  MOVWF  x0D
2F80:  MOVFF  106,10E
2F84:  MOVFF  107,10F
2F88:  MOVFF  108,110
2F8C:  MOVFF  109,111
2F90:  MOVFF  10A,112
2F94:  MOVFF  10B,113
2F98:  MOVFF  10C,114
2F9C:  MOVWF  x15
2F9E:  MOVLB  0
2FA0:  CALL   11B2
2FA4:  MOVFF  01,101
....................          BYTE_IR[1]=BIT_BYTE(BITS[8],BITS[9],BITS[10],BITS[11],BITS[12],BITS[13],BITS[14],BITS[15]); 
2FA8:  MOVLW  00
2FAA:  BTFSC  xF8.0
2FAC:  MOVLW  01
2FAE:  MOVLB  1
2FB0:  MOVWF  x06
2FB2:  MOVLW  00
2FB4:  MOVLB  0
2FB6:  BTFSC  xF8.1
2FB8:  MOVLW  01
2FBA:  MOVLB  1
2FBC:  MOVWF  x07
2FBE:  MOVLW  00
2FC0:  MOVLB  0
2FC2:  BTFSC  xF8.2
2FC4:  MOVLW  01
2FC6:  MOVLB  1
2FC8:  MOVWF  x08
2FCA:  MOVLW  00
2FCC:  MOVLB  0
2FCE:  BTFSC  xF8.3
2FD0:  MOVLW  01
2FD2:  MOVLB  1
2FD4:  MOVWF  x09
2FD6:  MOVLW  00
2FD8:  MOVLB  0
2FDA:  BTFSC  xF8.4
2FDC:  MOVLW  01
2FDE:  MOVLB  1
2FE0:  MOVWF  x0A
2FE2:  MOVLW  00
2FE4:  MOVLB  0
2FE6:  BTFSC  xF8.5
2FE8:  MOVLW  01
2FEA:  MOVLB  1
2FEC:  MOVWF  x0B
2FEE:  MOVLW  00
2FF0:  MOVLB  0
2FF2:  BTFSC  xF8.6
2FF4:  MOVLW  01
2FF6:  MOVLB  1
2FF8:  MOVWF  x0C
2FFA:  MOVLW  00
2FFC:  MOVLB  0
2FFE:  BTFSC  xF8.7
3000:  MOVLW  01
3002:  MOVLB  1
3004:  MOVWF  x0D
3006:  MOVFF  106,10E
300A:  MOVFF  107,10F
300E:  MOVFF  108,110
3012:  MOVFF  109,111
3016:  MOVFF  10A,112
301A:  MOVFF  10B,113
301E:  MOVFF  10C,114
3022:  MOVWF  x15
3024:  MOVLB  0
3026:  CALL   11B2
302A:  MOVFF  01,102
....................          BYTE_IR[2]=BIT_BYTE(BITS[16],BITS[17],BITS[18],BITS[19],BITS[20],BITS[21],BITS[22],BITS[23]); 
302E:  MOVLW  00
3030:  BTFSC  xF9.0
3032:  MOVLW  01
3034:  MOVLB  1
3036:  MOVWF  x06
3038:  MOVLW  00
303A:  MOVLB  0
303C:  BTFSC  xF9.1
303E:  MOVLW  01
3040:  MOVLB  1
3042:  MOVWF  x07
3044:  MOVLW  00
3046:  MOVLB  0
3048:  BTFSC  xF9.2
304A:  MOVLW  01
304C:  MOVLB  1
304E:  MOVWF  x08
3050:  MOVLW  00
3052:  MOVLB  0
3054:  BTFSC  xF9.3
3056:  MOVLW  01
3058:  MOVLB  1
305A:  MOVWF  x09
305C:  MOVLW  00
305E:  MOVLB  0
3060:  BTFSC  xF9.4
3062:  MOVLW  01
3064:  MOVLB  1
3066:  MOVWF  x0A
3068:  MOVLW  00
306A:  MOVLB  0
306C:  BTFSC  xF9.5
306E:  MOVLW  01
3070:  MOVLB  1
3072:  MOVWF  x0B
3074:  MOVLW  00
3076:  MOVLB  0
3078:  BTFSC  xF9.6
307A:  MOVLW  01
307C:  MOVLB  1
307E:  MOVWF  x0C
3080:  MOVLW  00
3082:  MOVLB  0
3084:  BTFSC  xF9.7
3086:  MOVLW  01
3088:  MOVLB  1
308A:  MOVWF  x0D
308C:  MOVFF  106,10E
3090:  MOVFF  107,10F
3094:  MOVFF  108,110
3098:  MOVFF  109,111
309C:  MOVFF  10A,112
30A0:  MOVFF  10B,113
30A4:  MOVFF  10C,114
30A8:  MOVWF  x15
30AA:  MOVLB  0
30AC:  CALL   11B2
30B0:  MOVFF  01,103
....................          BYTE_IR[3]=BIT_BYTE(BITS[24],BITS[25],BITS[26],BITS[27],BITS[28],BITS[29],BITS[30],BITS[31]); 
30B4:  MOVLW  00
30B6:  BTFSC  xFA.0
30B8:  MOVLW  01
30BA:  MOVLB  1
30BC:  MOVWF  x06
30BE:  MOVLW  00
30C0:  MOVLB  0
30C2:  BTFSC  xFA.1
30C4:  MOVLW  01
30C6:  MOVLB  1
30C8:  MOVWF  x07
30CA:  MOVLW  00
30CC:  MOVLB  0
30CE:  BTFSC  xFA.2
30D0:  MOVLW  01
30D2:  MOVLB  1
30D4:  MOVWF  x08
30D6:  MOVLW  00
30D8:  MOVLB  0
30DA:  BTFSC  xFA.3
30DC:  MOVLW  01
30DE:  MOVLB  1
30E0:  MOVWF  x09
30E2:  MOVLW  00
30E4:  MOVLB  0
30E6:  BTFSC  xFA.4
30E8:  MOVLW  01
30EA:  MOVLB  1
30EC:  MOVWF  x0A
30EE:  MOVLW  00
30F0:  MOVLB  0
30F2:  BTFSC  xFA.5
30F4:  MOVLW  01
30F6:  MOVLB  1
30F8:  MOVWF  x0B
30FA:  MOVLW  00
30FC:  MOVLB  0
30FE:  BTFSC  xFA.6
3100:  MOVLW  01
3102:  MOVLB  1
3104:  MOVWF  x0C
3106:  MOVLW  00
3108:  MOVLB  0
310A:  BTFSC  xFA.7
310C:  MOVLW  01
310E:  MOVLB  1
3110:  MOVWF  x0D
3112:  MOVFF  106,10E
3116:  MOVFF  107,10F
311A:  MOVFF  108,110
311E:  MOVFF  109,111
3122:  MOVFF  10A,112
3126:  MOVFF  10B,113
312A:  MOVFF  10C,114
312E:  MOVWF  x15
3130:  MOVLB  0
3132:  CALL   11B2
3136:  MOVFF  01,104
313A:  MOVLB  1
....................       } 
....................  
....................    if(BYTE_IR[3]==0XF2 && Menu!=200) //Bajar Vidrio 
313C:  MOVF   x04,W
313E:  SUBLW  F2
3140:  BNZ   3166
3142:  MOVF   17,W
3144:  SUBLW  C8
3146:  BZ    3166
....................    { 
....................       if(VIDRIOUP || !VIDRIODN) 
3148:  BSF    F92.4
314A:  BTFSS  F80.4
314C:  BRA    3154
314E:  BSF    F92.3
3150:  BTFSS  F80.3
3152:  BRA    315E
....................       { 
....................          O1_on;O2_off; 
3154:  BSF    F8B.6
3156:  BCF    F94.6
3158:  BCF    F8B.7
315A:  BCF    F94.7
....................       } 
....................       else 
315C:  BRA    3166
....................       { 
....................          O1_off;O2_off; 
315E:  BCF    F8B.6
3160:  BCF    F94.6
3162:  BCF    F8B.7
3164:  BCF    F94.7
....................       } 
....................    } 
....................     
....................    if(BYTE_IR[3]==0XE9 && Menu!=200) // Subir Vidrio 
3166:  MOVF   x04,W
3168:  SUBLW  E9
316A:  BNZ   3190
316C:  MOVF   17,W
316E:  SUBLW  C8
3170:  BZ    3190
....................    { 
....................       if(!VIDRIOUP || VIDRIODN) 
3172:  BSF    F92.4
3174:  BTFSC  F80.4
3176:  BRA    317E
3178:  BSF    F92.3
317A:  BTFSC  F80.3
317C:  BRA    3188
....................       { 
....................          O1_off;O2_on; 
317E:  BCF    F8B.6
3180:  BCF    F94.6
3182:  BSF    F8B.7
3184:  BCF    F94.7
....................       } 
....................       else 
3186:  BRA    3190
....................       { 
....................          O1_off;O2_off; 
3188:  BCF    F8B.6
318A:  BCF    F94.6
318C:  BCF    F8B.7
318E:  BCF    F94.7
....................       } 
....................    } 
....................    
....................    if(BYTE_IR[3]==0XE6) 
3190:  MOVF   x04,W
3192:  SUBLW  E6
3194:  BNZ   319E
....................    { 
....................       O1_off;O2_off; 
3196:  BCF    F8B.6
3198:  BCF    F94.6
319A:  BCF    F8B.7
319C:  BCF    F94.7
....................    } 
....................  
....................    while(Menu==200) 
....................    {   
319E:  MOVF   17,W
31A0:  SUBLW  C8
31A2:  BTFSS  FD8.2
31A4:  BRA    34D6
....................       if(NUEVO_DATO==1){ 
31A6:  BTFSS  54.7
31A8:  BRA    33C8
....................          NUEVO_DATO=0; 
31AA:  BCF    54.7
....................          BYTE_IR[0]=BIT_BYTE(BITS[0],BITS[1],BITS[2],BITS[3],BITS[4],BITS[5],BITS[6],BITS[7]); 
31AC:  MOVLW  00
31AE:  MOVLB  0
31B0:  BTFSC  xF7.0
31B2:  MOVLW  01
31B4:  MOVLB  1
31B6:  MOVWF  x06
31B8:  MOVLW  00
31BA:  MOVLB  0
31BC:  BTFSC  xF7.1
31BE:  MOVLW  01
31C0:  MOVLB  1
31C2:  MOVWF  x07
31C4:  MOVLW  00
31C6:  MOVLB  0
31C8:  BTFSC  xF7.2
31CA:  MOVLW  01
31CC:  MOVLB  1
31CE:  MOVWF  x08
31D0:  MOVLW  00
31D2:  MOVLB  0
31D4:  BTFSC  xF7.3
31D6:  MOVLW  01
31D8:  MOVLB  1
31DA:  MOVWF  x09
31DC:  MOVLW  00
31DE:  MOVLB  0
31E0:  BTFSC  xF7.4
31E2:  MOVLW  01
31E4:  MOVLB  1
31E6:  MOVWF  x0A
31E8:  MOVLW  00
31EA:  MOVLB  0
31EC:  BTFSC  xF7.5
31EE:  MOVLW  01
31F0:  MOVLB  1
31F2:  MOVWF  x0B
31F4:  MOVLW  00
31F6:  MOVLB  0
31F8:  BTFSC  xF7.6
31FA:  MOVLW  01
31FC:  MOVLB  1
31FE:  MOVWF  x0C
3200:  MOVLW  00
3202:  MOVLB  0
3204:  BTFSC  xF7.7
3206:  MOVLW  01
3208:  MOVLB  1
320A:  MOVWF  x0D
320C:  MOVFF  106,10E
3210:  MOVFF  107,10F
3214:  MOVFF  108,110
3218:  MOVFF  109,111
321C:  MOVFF  10A,112
3220:  MOVFF  10B,113
3224:  MOVFF  10C,114
3228:  MOVWF  x15
322A:  MOVLB  0
322C:  CALL   11B2
3230:  MOVFF  01,101
....................          BYTE_IR[1]=BIT_BYTE(BITS[8],BITS[9],BITS[10],BITS[11],BITS[12],BITS[13],BITS[14],BITS[15]); 
3234:  MOVLW  00
3236:  BTFSC  xF8.0
3238:  MOVLW  01
323A:  MOVLB  1
323C:  MOVWF  x06
323E:  MOVLW  00
3240:  MOVLB  0
3242:  BTFSC  xF8.1
3244:  MOVLW  01
3246:  MOVLB  1
3248:  MOVWF  x07
324A:  MOVLW  00
324C:  MOVLB  0
324E:  BTFSC  xF8.2
3250:  MOVLW  01
3252:  MOVLB  1
3254:  MOVWF  x08
3256:  MOVLW  00
3258:  MOVLB  0
325A:  BTFSC  xF8.3
325C:  MOVLW  01
325E:  MOVLB  1
3260:  MOVWF  x09
3262:  MOVLW  00
3264:  MOVLB  0
3266:  BTFSC  xF8.4
3268:  MOVLW  01
326A:  MOVLB  1
326C:  MOVWF  x0A
326E:  MOVLW  00
3270:  MOVLB  0
3272:  BTFSC  xF8.5
3274:  MOVLW  01
3276:  MOVLB  1
3278:  MOVWF  x0B
327A:  MOVLW  00
327C:  MOVLB  0
327E:  BTFSC  xF8.6
3280:  MOVLW  01
3282:  MOVLB  1
3284:  MOVWF  x0C
3286:  MOVLW  00
3288:  MOVLB  0
328A:  BTFSC  xF8.7
328C:  MOVLW  01
328E:  MOVLB  1
3290:  MOVWF  x0D
3292:  MOVFF  106,10E
3296:  MOVFF  107,10F
329A:  MOVFF  108,110
329E:  MOVFF  109,111
32A2:  MOVFF  10A,112
32A6:  MOVFF  10B,113
32AA:  MOVFF  10C,114
32AE:  MOVWF  x15
32B0:  MOVLB  0
32B2:  CALL   11B2
32B6:  MOVFF  01,102
....................          BYTE_IR[2]=BIT_BYTE(BITS[16],BITS[17],BITS[18],BITS[19],BITS[20],BITS[21],BITS[22],BITS[23]); 
32BA:  MOVLW  00
32BC:  BTFSC  xF9.0
32BE:  MOVLW  01
32C0:  MOVLB  1
32C2:  MOVWF  x06
32C4:  MOVLW  00
32C6:  MOVLB  0
32C8:  BTFSC  xF9.1
32CA:  MOVLW  01
32CC:  MOVLB  1
32CE:  MOVWF  x07
32D0:  MOVLW  00
32D2:  MOVLB  0
32D4:  BTFSC  xF9.2
32D6:  MOVLW  01
32D8:  MOVLB  1
32DA:  MOVWF  x08
32DC:  MOVLW  00
32DE:  MOVLB  0
32E0:  BTFSC  xF9.3
32E2:  MOVLW  01
32E4:  MOVLB  1
32E6:  MOVWF  x09
32E8:  MOVLW  00
32EA:  MOVLB  0
32EC:  BTFSC  xF9.4
32EE:  MOVLW  01
32F0:  MOVLB  1
32F2:  MOVWF  x0A
32F4:  MOVLW  00
32F6:  MOVLB  0
32F8:  BTFSC  xF9.5
32FA:  MOVLW  01
32FC:  MOVLB  1
32FE:  MOVWF  x0B
3300:  MOVLW  00
3302:  MOVLB  0
3304:  BTFSC  xF9.6
3306:  MOVLW  01
3308:  MOVLB  1
330A:  MOVWF  x0C
330C:  MOVLW  00
330E:  MOVLB  0
3310:  BTFSC  xF9.7
3312:  MOVLW  01
3314:  MOVLB  1
3316:  MOVWF  x0D
3318:  MOVFF  106,10E
331C:  MOVFF  107,10F
3320:  MOVFF  108,110
3324:  MOVFF  109,111
3328:  MOVFF  10A,112
332C:  MOVFF  10B,113
3330:  MOVFF  10C,114
3334:  MOVWF  x15
3336:  MOVLB  0
3338:  CALL   11B2
333C:  MOVFF  01,103
....................          BYTE_IR[3]=BIT_BYTE(BITS[24],BITS[25],BITS[26],BITS[27],BITS[28],BITS[29],BITS[30],BITS[31]); 
3340:  MOVLW  00
3342:  BTFSC  xFA.0
3344:  MOVLW  01
3346:  MOVLB  1
3348:  MOVWF  x06
334A:  MOVLW  00
334C:  MOVLB  0
334E:  BTFSC  xFA.1
3350:  MOVLW  01
3352:  MOVLB  1
3354:  MOVWF  x07
3356:  MOVLW  00
3358:  MOVLB  0
335A:  BTFSC  xFA.2
335C:  MOVLW  01
335E:  MOVLB  1
3360:  MOVWF  x08
3362:  MOVLW  00
3364:  MOVLB  0
3366:  BTFSC  xFA.3
3368:  MOVLW  01
336A:  MOVLB  1
336C:  MOVWF  x09
336E:  MOVLW  00
3370:  MOVLB  0
3372:  BTFSC  xFA.4
3374:  MOVLW  01
3376:  MOVLB  1
3378:  MOVWF  x0A
337A:  MOVLW  00
337C:  MOVLB  0
337E:  BTFSC  xFA.5
3380:  MOVLW  01
3382:  MOVLB  1
3384:  MOVWF  x0B
3386:  MOVLW  00
3388:  MOVLB  0
338A:  BTFSC  xFA.6
338C:  MOVLW  01
338E:  MOVLB  1
3390:  MOVWF  x0C
3392:  MOVLW  00
3394:  MOVLB  0
3396:  BTFSC  xFA.7
3398:  MOVLW  01
339A:  MOVLB  1
339C:  MOVWF  x0D
339E:  MOVFF  106,10E
33A2:  MOVFF  107,10F
33A6:  MOVFF  108,110
33AA:  MOVFF  109,111
33AE:  MOVFF  10A,112
33B2:  MOVFF  10B,113
33B6:  MOVFF  10C,114
33BA:  MOVWF  x15
33BC:  MOVLB  0
33BE:  CALL   11B2
33C2:  MOVFF  01,104
33C6:  MOVLB  1
....................       } 
....................          intensidadpantalla(0); 
33C8:  CLRF   x06
33CA:  MOVLB  0
33CC:  CALL   0BBE
....................          delay_ms(10); 
33D0:  MOVLW  0A
33D2:  MOVLB  1
33D4:  MOVWF  x1C
33D6:  MOVLB  0
33D8:  CALL   0BD2
....................          if(RIGHT || BYTE_IR[2]==0X1C) 
33DC:  BSF    F92.5
33DE:  BTFSC  F80.5
33E0:  BRA    33EC
33E2:  MOVLB  1
33E4:  MOVF   x03,W
33E6:  SUBLW  1C
33E8:  BNZ   34D4
33EA:  MOVLB  0
....................          { 
....................             delay_ms(500); 
33EC:  MOVLW  02
33EE:  MOVLB  1
33F0:  MOVWF  x06
33F2:  MOVLW  FA
33F4:  MOVWF  x1C
33F6:  MOVLB  0
33F8:  CALL   0BD2
33FC:  MOVLB  1
33FE:  DECFSZ x06,F
3400:  BRA    33F2
....................             if(RIGHT || BYTE_IR[2]==0X1C) 
3402:  BSF    F92.5
3404:  BTFSC  F80.5
3406:  BRA    340E
3408:  MOVF   x03,W
340A:  SUBLW  1C
340C:  BNZ   34D4
....................             { 
....................                lcd_init(); 
340E:  MOVLB  0
3410:  CALL   0C54
....................                intensidadpantalla(contraste); 
3414:  MOVFF  20,106
3418:  CALL   0BBE
....................                delay_ms(200); 
341C:  MOVLW  C8
341E:  MOVLB  1
3420:  MOVWF  x1C
3422:  MOVLB  0
3424:  CALL   0BD2
....................                lcd_gotoxy(1,1); 
3428:  MOVLW  01
342A:  MOVLB  1
342C:  MOVWF  x1C
342E:  MOVWF  x1D
3430:  MOVLB  0
3432:  CALL   0CC8
....................                printf(lcd_putc," CABINA  EXTRACTORA "); 
3436:  MOVLW  BA
3438:  MOVWF  FF6
343A:  MOVLW  03
343C:  MOVWF  FF7
343E:  CALL   11F6
....................                lcd_gotoxy(1,2); 
3442:  MOVLW  01
3444:  MOVLB  1
3446:  MOVWF  x1C
3448:  MOVLW  02
344A:  MOVWF  x1D
344C:  MOVLB  0
344E:  CALL   0CC8
....................                printf(lcd_putc,"  DE HUMOS Y GASES  "); 
3452:  MOVLW  D0
3454:  MOVWF  FF6
3456:  MOVLW  03
3458:  MOVWF  FF7
345A:  CALL   11F6
....................                lcd_gotoxy(1,3); 
345E:  MOVLW  01
3460:  MOVLB  1
3462:  MOVWF  x1C
3464:  MOVLW  03
3466:  MOVWF  x1D
3468:  MOVLB  0
346A:  CALL   0CC8
....................                printf(lcd_putc,"    JP INGLOBAL     "); 
346E:  MOVLW  E6
3470:  MOVWF  FF6
3472:  MOVLW  03
3474:  MOVWF  FF7
3476:  CALL   11F6
....................                lcd_gotoxy(1,4); 
347A:  MOVLW  01
347C:  MOVLB  1
347E:  MOVWF  x1C
3480:  MOVLW  04
3482:  MOVWF  x1D
3484:  MOVLB  0
3486:  CALL   0CC8
....................                printf(lcd_putc," REF: PANEL JPCEH15 "); 
348A:  MOVLW  FC
348C:  MOVWF  FF6
348E:  MOVLW  03
3490:  MOVWF  FF7
3492:  CALL   11F6
....................                delay_ms(2000); 
3496:  MOVLW  08
3498:  MOVLB  1
349A:  MOVWF  x06
349C:  MOVLW  FA
349E:  MOVWF  x1C
34A0:  MOVLB  0
34A2:  CALL   0BD2
34A6:  MOVLB  1
34A8:  DECFSZ x06,F
34AA:  BRA    349C
....................                printf(lcd_putc,"\f"); 
34AC:  MOVLW  0C
34AE:  MOVWF  x1B
34B0:  MOVLB  0
34B2:  CALL   0D3A
....................                inicio=1; 
34B6:  BSF    3F.4
....................                Menu=0; 
34B8:  CLRF   17
....................                ModoSleep=0; 
34BA:  BCF    3F.3
....................                delay_ms(500); 
34BC:  MOVLW  02
34BE:  MOVLB  1
34C0:  MOVWF  x06
34C2:  MOVLW  FA
34C4:  MOVWF  x1C
34C6:  MOVLB  0
34C8:  CALL   0BD2
34CC:  MOVLB  1
34CE:  DECFSZ x06,F
34D0:  BRA    34C2
....................                BYTE_IR[2]=0X00; 
34D2:  CLRF   x03
....................             } 
....................          } 
....................    } 
34D4:  BRA    319E
....................  
.................... //------------Menu0------------------------------------------------------------------    
....................    if(Menu == 0){ // Menu de Contraseña para Poder iniciar el equipo 
34D6:  MOVF   17,F
34D8:  BTFSS  FD8.2
34DA:  BRA    3996
....................       flag_latencia=1;set_pwm1_duty(0); 
34DC:  BSF    3F.0
34DE:  CLRF   FBE
....................       if(Latencia==1) 
34E0:  BTFSS  3F.1
34E2:  BRA    34F2
....................       { 
....................          printf(lcd_putc,"\f");reset_cpu(); 
34E4:  MOVLW  0C
34E6:  MOVWF  x1B
34E8:  MOVLB  0
34EA:  CALL   0D3A
34EE:  RESET
34F0:  MOVLB  1
....................       } 
....................        
....................       lcd_gotoxy(1,1); 
34F2:  MOVLW  01
34F4:  MOVWF  x1C
34F6:  MOVWF  x1D
34F8:  MOVLB  0
34FA:  CALL   0CC8
....................       printf(lcd_putc,"     Ingrese        "); 
34FE:  MOVLW  12
3500:  MOVWF  FF6
3502:  MOVLW  04
3504:  MOVWF  FF7
3506:  CALL   11F6
....................       lcd_gotoxy(1,2); 
350A:  MOVLW  01
350C:  MOVLB  1
350E:  MOVWF  x1C
3510:  MOVLW  02
3512:  MOVWF  x1D
3514:  MOVLB  0
3516:  CALL   0CC8
....................       printf(lcd_putc,"    Contraseña      "); 
351A:  MOVLW  28
351C:  MOVWF  FF6
351E:  MOVLW  04
3520:  MOVWF  FF7
3522:  CALL   11F6
....................       lcd_gotoxy(1,3); 
3526:  MOVLW  01
3528:  MOVLB  1
352A:  MOVWF  x1C
352C:  MOVLW  03
352E:  MOVWF  x1D
3530:  MOVLB  0
3532:  CALL   0CC8
....................       printf(lcd_putc,"    CLAVE=%i%i%i%i  ",clave[0],clave[1],clave[2],clave[3]); 
3536:  MOVLW  3E
3538:  MOVWF  FF6
353A:  MOVLW  04
353C:  MOVWF  FF7
353E:  MOVLW  0A
3540:  MOVLB  1
3542:  MOVWF  x0E
3544:  MOVLB  0
3546:  CALL   1216
354A:  MOVFF  44,106
354E:  MOVLW  1F
3550:  MOVLB  1
3552:  MOVWF  x07
3554:  MOVLB  0
3556:  CALL   126A
355A:  MOVFF  45,106
355E:  MOVLW  1F
3560:  MOVLB  1
3562:  MOVWF  x07
3564:  MOVLB  0
3566:  CALL   126A
356A:  MOVFF  46,106
356E:  MOVLW  1F
3570:  MOVLB  1
3572:  MOVWF  x07
3574:  MOVLB  0
3576:  CALL   126A
357A:  MOVFF  47,106
357E:  MOVLW  1F
3580:  MOVLB  1
3582:  MOVWF  x07
3584:  MOVLB  0
3586:  CALL   126A
358A:  MOVLW  20
358C:  MOVLB  1
358E:  MOVWF  x1B
3590:  MOVLB  0
3592:  CALL   0D3A
3596:  MOVLW  20
3598:  MOVLB  1
359A:  MOVWF  x1B
359C:  MOVLB  0
359E:  CALL   0D3A
....................        
....................       if(UP || BYTE_IR[2]==0X18)//Si oprime hacia arriba 
35A2:  BSF    F96.2
35A4:  BTFSC  F84.2
35A6:  BRA    35B2
35A8:  MOVLB  1
35AA:  MOVF   x03,W
35AC:  SUBLW  18
35AE:  BNZ   35E4
35B0:  MOVLB  0
....................       { 
....................          if(Flanco == 0) 
35B2:  BTFSC  3E.4
35B4:  BRA    35E0
....................          { 
....................             clave[unidad-11]++;Flanco = 1;delay_ms(30);t_latencia=0;BYTE_IR[2]=0X00; 
35B6:  MOVLW  0B
35B8:  SUBWF  1A,W
35BA:  CLRF   03
35BC:  ADDLW  44
35BE:  MOVWF  FE9
35C0:  MOVLW  00
35C2:  ADDWFC 03,W
35C4:  MOVWF  FEA
35C6:  INCF   FEF,F
35C8:  BSF    3E.4
35CA:  MOVLW  1E
35CC:  MOVLB  1
35CE:  MOVWF  x1C
35D0:  MOVLB  0
35D2:  CALL   0BD2
35D6:  CLRF   58
35D8:  CLRF   57
35DA:  MOVLB  1
35DC:  CLRF   x03
35DE:  MOVLB  0
....................          } 
....................       } 
....................       else 
35E0:  BRA    35E8
35E2:  MOVLB  1
....................       { 
....................          Flanco = 0; 
35E4:  BCF    3E.4
35E6:  MOVLB  0
....................       } 
....................              
....................       if(DOWN || BYTE_IR[2]==0X52)//Si oprime hacia abajo 
35E8:  BSF    F96.1
35EA:  BTFSC  F84.1
35EC:  BRA    35F8
35EE:  MOVLB  1
35F0:  MOVF   x03,W
35F2:  SUBLW  52
35F4:  BNZ   362A
35F6:  MOVLB  0
....................       {   
....................          if(Flanco2 == 0) 
35F8:  BTFSC  3E.6
35FA:  BRA    3626
....................          { 
....................             clave[unidad-11]--;Flanco2 = 1;delay_ms(30);t_latencia=0;BYTE_IR[2]=0X00; 
35FC:  MOVLW  0B
35FE:  SUBWF  1A,W
3600:  CLRF   03
3602:  ADDLW  44
3604:  MOVWF  FE9
3606:  MOVLW  00
3608:  ADDWFC 03,W
360A:  MOVWF  FEA
360C:  DECF   FEF,F
360E:  BSF    3E.6
3610:  MOVLW  1E
3612:  MOVLB  1
3614:  MOVWF  x1C
3616:  MOVLB  0
3618:  CALL   0BD2
361C:  CLRF   58
361E:  CLRF   57
3620:  MOVLB  1
3622:  CLRF   x03
3624:  MOVLB  0
....................          } 
....................       } 
....................       else 
3626:  BRA    362E
3628:  MOVLB  1
....................       { 
....................          Flanco2 = 0; 
362A:  BCF    3E.6
362C:  MOVLB  0
....................       } 
....................     
....................       if(RIGHT || BYTE_IR[2]==0X5A)// Si Oprime Derecha 
362E:  BSF    F92.5
3630:  BTFSC  F80.5
3632:  BRA    363E
3634:  MOVLB  1
3636:  MOVF   x03,W
3638:  SUBLW  5A
363A:  BNZ   366C
363C:  MOVLB  0
....................       { 
....................          if(Flanco1 == 0) 
363E:  BTFSC  3E.5
3640:  BRA    3668
....................          { 
....................             Flanco1 = 1;unidad++;delay_ms(30);printf(lcd_putc,"\f");t_latencia=0;BYTE_IR[2]=0X00; 
3642:  BSF    3E.5
3644:  INCF   1A,F
3646:  MOVLW  1E
3648:  MOVLB  1
364A:  MOVWF  x1C
364C:  MOVLB  0
364E:  CALL   0BD2
3652:  MOVLW  0C
3654:  MOVLB  1
3656:  MOVWF  x1B
3658:  MOVLB  0
365A:  CALL   0D3A
365E:  CLRF   58
3660:  CLRF   57
3662:  MOVLB  1
3664:  CLRF   x03
3666:  MOVLB  0
....................          } 
....................       } 
....................       else 
3668:  BRA    3670
366A:  MOVLB  1
....................       { 
....................          Flanco1 = 0; 
366C:  BCF    3E.5
366E:  MOVLB  0
....................       } 
....................              
....................       if(LEFT || BYTE_IR[2]==0X08)// Si Oprime izquierda 
3670:  BSF    F96.0
3672:  BTFSC  F84.0
3674:  BRA    3680
3676:  MOVLB  1
3678:  MOVF   x03,W
367A:  SUBLW  08
367C:  BNZ   36AE
367E:  MOVLB  0
....................       {  
....................          if(Flanco3 == 0) 
3680:  BTFSC  3E.7
3682:  BRA    36AA
....................          { 
....................             Flanco3 = 1;unidad--;delay_ms(30);printf(lcd_putc,"\f");t_latencia=0;BYTE_IR[2]=0X00; 
3684:  BSF    3E.7
3686:  DECF   1A,F
3688:  MOVLW  1E
368A:  MOVLB  1
368C:  MOVWF  x1C
368E:  MOVLB  0
3690:  CALL   0BD2
3694:  MOVLW  0C
3696:  MOVLB  1
3698:  MOVWF  x1B
369A:  MOVLB  0
369C:  CALL   0D3A
36A0:  CLRF   58
36A2:  CLRF   57
36A4:  MOVLB  1
36A6:  CLRF   x03
36A8:  MOVLB  0
....................          } 
....................       } 
....................       else 
36AA:  BRA    36B2
36AC:  MOVLB  1
....................       { 
....................          Flanco3 = 0; 
36AE:  BCF    3E.7
36B0:  MOVLB  0
....................       } 
....................              
....................        if(clave[unidad-11]<0)     // Si la unidad donde se encuentra ubicado el cursor es menor que 0 pasa a 9. 
36B2:  MOVLW  0B
36B4:  SUBWF  1A,W
36B6:  CLRF   03
36B8:  ADDLW  44
36BA:  MOVWF  FE9
36BC:  MOVLW  00
36BE:  ADDWFC 03,W
36C0:  MOVWF  FEA
36C2:  BTFSC  FEF.7
36C4:  BRA    36C8
36C6:  BRA    36DC
....................        { 
....................          clave[unidad-11]=9; 
36C8:  MOVLW  0B
36CA:  SUBWF  1A,W
36CC:  CLRF   03
36CE:  ADDLW  44
36D0:  MOVWF  FE9
36D2:  MOVLW  00
36D4:  ADDWFC 03,W
36D6:  MOVWF  FEA
36D8:  MOVLW  09
36DA:  MOVWF  FEF
....................        } 
....................        if(clave[unidad-11]>9)     // Si la unidad donde se encuentra ubicado el cursor es mayor que 9 pasa a 0. 
36DC:  MOVLW  0B
36DE:  SUBWF  1A,W
36E0:  CLRF   03
36E2:  ADDLW  44
36E4:  MOVWF  FE9
36E6:  MOVLW  00
36E8:  ADDWFC 03,W
36EA:  MOVWF  FEA
36EC:  BTFSC  FEF.7
36EE:  BRA    3708
36F0:  MOVF   FEF,W
36F2:  SUBLW  09
36F4:  BC    3708
....................        { 
....................          clave[unidad-11]=0; 
36F6:  MOVLW  0B
36F8:  SUBWF  1A,W
36FA:  CLRF   03
36FC:  ADDLW  44
36FE:  MOVWF  FE9
3700:  MOVLW  00
3702:  ADDWFC 03,W
3704:  MOVWF  FEA
3706:  CLRF   FEF
....................        } 
....................        if(unidad<11)             // Si trata de correr mas a la izquierda de la primera unidad, deja el cursor en esa posicion. 
3708:  BTFSC  1A.7
370A:  BRA    3712
370C:  MOVF   1A,W
370E:  SUBLW  0A
3710:  BNC   3716
....................        { 
....................          unidad=11; 
3712:  MOVLW  0B
3714:  MOVWF  1A
....................        } 
....................        lcd_gotoxy(unidad,4);// Para mostrar cursor. 
3716:  MOVFF  1A,11C
371A:  MOVLW  04
371C:  MOVLB  1
371E:  MOVWF  x1D
3720:  MOVLB  0
3722:  CALL   0CC8
....................        lcd_putc(t[2]); 
3726:  MOVFF  43,11B
372A:  CALL   0D3A
....................        if(unidad>14)             // Si a Terminado de ingresar la clave, verifica si es correcta o no. 
372E:  BTFSC  1A.7
3730:  BRA    3964
3732:  MOVF   1A,W
3734:  SUBLW  0E
3736:  BTFSC  FD8.0
3738:  BRA    3964
....................        { 
....................          if(clave[0]==3&&clave[1]==8&&clave[2]==9&&clave[3]==2) // Si Ingresa clave para reset general del sistema. 
373A:  MOVF   44,W
373C:  SUBLW  03
373E:  BNZ   3822
3740:  MOVF   45,W
3742:  SUBLW  08
3744:  BNZ   3822
3746:  MOVF   46,W
3748:  SUBLW  09
374A:  BNZ   3822
374C:  MOVF   47,W
374E:  SUBLW  02
3750:  BNZ   3822
....................             {write_eeprom(0,0);delay_ms(20);write_eeprom(1,0);delay_ms(20);// Reestablece a contraseña de Fabrica y reinicia Programa. 
3752:  CLRF   FA9
3754:  CLRF   FA8
3756:  BCF    FA6.6
3758:  BCF    FA6.7
375A:  BSF    FA6.2
375C:  MOVF   FF2,W
375E:  MOVWF  00
3760:  BCF    FF2.7
3762:  MOVLB  F
3764:  MOVLW  55
3766:  MOVWF  FA7
3768:  MOVLW  AA
376A:  MOVWF  FA7
376C:  BSF    FA6.1
376E:  BTFSC  FA6.1
3770:  BRA    376E
3772:  BCF    FA6.2
3774:  MOVF   00,W
3776:  IORWF  FF2,F
3778:  MOVLW  14
377A:  MOVLB  1
377C:  MOVWF  x1C
377E:  MOVLB  0
3780:  CALL   0BD2
3784:  MOVLW  01
3786:  MOVWF  FA9
3788:  CLRF   FA8
378A:  BCF    FA6.6
378C:  BCF    FA6.7
378E:  BSF    FA6.2
3790:  MOVF   FF2,W
3792:  MOVWF  00
3794:  BCF    FF2.7
3796:  MOVLB  F
3798:  MOVLW  55
379A:  MOVWF  FA7
379C:  MOVLW  AA
379E:  MOVWF  FA7
37A0:  BSF    FA6.1
37A2:  BTFSC  FA6.1
37A4:  BRA    37A2
37A6:  BCF    FA6.2
37A8:  MOVF   00,W
37AA:  IORWF  FF2,F
37AC:  MOVLW  14
37AE:  MOVLB  1
37B0:  MOVWF  x1C
37B2:  MOVLB  0
37B4:  CALL   0BD2
....................              write_eeprom(2,0);delay_ms(20);write_eeprom(3,0);delay_ms(20); 
37B8:  MOVLW  02
37BA:  MOVWF  FA9
37BC:  CLRF   FA8
37BE:  BCF    FA6.6
37C0:  BCF    FA6.7
37C2:  BSF    FA6.2
37C4:  MOVF   FF2,W
37C6:  MOVWF  00
37C8:  BCF    FF2.7
37CA:  MOVLB  F
37CC:  MOVLW  55
37CE:  MOVWF  FA7
37D0:  MOVLW  AA
37D2:  MOVWF  FA7
37D4:  BSF    FA6.1
37D6:  BTFSC  FA6.1
37D8:  BRA    37D6
37DA:  BCF    FA6.2
37DC:  MOVF   00,W
37DE:  IORWF  FF2,F
37E0:  MOVLW  14
37E2:  MOVLB  1
37E4:  MOVWF  x1C
37E6:  MOVLB  0
37E8:  CALL   0BD2
37EC:  MOVLW  03
37EE:  MOVWF  FA9
37F0:  CLRF   FA8
37F2:  BCF    FA6.6
37F4:  BCF    FA6.7
37F6:  BSF    FA6.2
37F8:  MOVF   FF2,W
37FA:  MOVWF  00
37FC:  BCF    FF2.7
37FE:  MOVLB  F
3800:  MOVLW  55
3802:  MOVWF  FA7
3804:  MOVLW  AA
3806:  MOVWF  FA7
3808:  BSF    FA6.1
380A:  BTFSC  FA6.1
380C:  BRA    380A
380E:  BCF    FA6.2
3810:  MOVF   00,W
3812:  IORWF  FF2,F
3814:  MOVLW  14
3816:  MOVLB  1
3818:  MOVWF  x1C
381A:  MOVLB  0
381C:  CALL   0BD2
....................              reset_cpu();} 
3820:  RESET
....................              
....................          if(clave[0]==contrasena[0]&&clave[1]==contrasena[1]&&clave[2]==contrasena[2]&&clave[3]==contrasena[3]) // Si las claves coinciden pasa a Menu Principal. 
3822:  MOVF   48,W
3824:  SUBWF  44,W
3826:  BNZ   38DE
3828:  MOVF   49,W
382A:  SUBWF  45,W
382C:  BNZ   38DE
382E:  MOVF   4A,W
3830:  SUBWF  46,W
3832:  BNZ   38DE
3834:  MOVF   4B,W
3836:  SUBWF  47,W
3838:  BNZ   38DE
....................             {lcd_gotoxy(1,1); 
383A:  MOVLW  01
383C:  MOVLB  1
383E:  MOVWF  x1C
3840:  MOVWF  x1D
3842:  MOVLB  0
3844:  CALL   0CC8
....................             printf(lcd_putc,"                   "); 
3848:  MOVLW  54
384A:  MOVWF  FF6
384C:  MOVLW  04
384E:  MOVWF  FF7
3850:  CALL   11F6
....................             lcd_gotoxy(1,2); 
3854:  MOVLW  01
3856:  MOVLB  1
3858:  MOVWF  x1C
385A:  MOVLW  02
385C:  MOVWF  x1D
385E:  MOVLB  0
3860:  CALL   0CC8
....................             printf(lcd_putc,"     Contraseña    "); 
3864:  MOVLW  68
3866:  MOVWF  FF6
3868:  MOVLW  04
386A:  MOVWF  FF7
386C:  CALL   11F6
....................             lcd_gotoxy(1,3); 
3870:  MOVLW  01
3872:  MOVLB  1
3874:  MOVWF  x1C
3876:  MOVLW  03
3878:  MOVWF  x1D
387A:  MOVLB  0
387C:  CALL   0CC8
....................             printf(lcd_putc,"      Correcta     "); 
3880:  MOVLW  7C
3882:  MOVWF  FF6
3884:  MOVLW  04
3886:  MOVWF  FF7
3888:  CALL   11F6
....................             lcd_gotoxy(1,4); 
388C:  MOVLW  01
388E:  MOVLB  1
3890:  MOVWF  x1C
3892:  MOVLW  04
3894:  MOVWF  x1D
3896:  MOVLB  0
3898:  CALL   0CC8
....................             printf(lcd_putc,"                   "); 
389C:  MOVLW  90
389E:  MOVWF  FF6
38A0:  MOVLW  04
38A2:  MOVWF  FF7
38A4:  CALL   11F6
....................             delay_ms(500);Menu=50;unidad=11;printf(lcd_putc,"\f");flag_latencia=0;Latencia=0;tiempo_purga=1; 
38A8:  MOVLW  02
38AA:  MOVLB  1
38AC:  MOVWF  x06
38AE:  MOVLW  FA
38B0:  MOVWF  x1C
38B2:  MOVLB  0
38B4:  CALL   0BD2
38B8:  MOVLB  1
38BA:  DECFSZ x06,F
38BC:  BRA    38AE
38BE:  MOVLW  32
38C0:  MOVWF  17
38C2:  MOVLW  0B
38C4:  MOVWF  1A
38C6:  MOVLW  0C
38C8:  MOVWF  x1B
38CA:  MOVLB  0
38CC:  CALL   0D3A
38D0:  BCF    3F.0
38D2:  BCF    3F.1
38D4:  BSF    54.4
....................             t_latencia=0;flag_iniciodamper=1;} 
38D6:  CLRF   58
38D8:  CLRF   57
38DA:  BSF    3F.7
....................          else                                         // Si la clave no coincide vuelve a mostrar el menu para ingresar la clave. 
38DC:  BRA    3964
....................          {lcd_gotoxy(1,1); 
38DE:  MOVLW  01
38E0:  MOVLB  1
38E2:  MOVWF  x1C
38E4:  MOVWF  x1D
38E6:  MOVLB  0
38E8:  CALL   0CC8
....................             printf(lcd_putc,""); 
....................             lcd_gotoxy(1,2); 
38EC:  MOVLW  01
38EE:  MOVLB  1
38F0:  MOVWF  x1C
38F2:  MOVLW  02
38F4:  MOVWF  x1D
38F6:  MOVLB  0
38F8:  CALL   0CC8
....................             printf(lcd_putc,"     Contraseña    "); 
38FC:  MOVLW  A4
38FE:  MOVWF  FF6
3900:  MOVLW  04
3902:  MOVWF  FF7
3904:  CALL   11F6
....................             lcd_gotoxy(1,3); 
3908:  MOVLW  01
390A:  MOVLB  1
390C:  MOVWF  x1C
390E:  MOVLW  03
3910:  MOVWF  x1D
3912:  MOVLB  0
3914:  CALL   0CC8
....................             printf(lcd_putc,"     Incorrecta    "); 
3918:  MOVLW  B8
391A:  MOVWF  FF6
391C:  MOVLW  04
391E:  MOVWF  FF7
3920:  CALL   11F6
....................             lcd_gotoxy(1,4); 
3924:  MOVLW  01
3926:  MOVLB  1
3928:  MOVWF  x1C
392A:  MOVLW  04
392C:  MOVWF  x1D
392E:  MOVLB  0
3930:  CALL   0CC8
....................             printf(lcd_putc,"                   "); 
3934:  MOVLW  CC
3936:  MOVWF  FF6
3938:  MOVLW  04
393A:  MOVWF  FF7
393C:  CALL   11F6
....................             delay_ms(500);unidad=11;printf(lcd_putc,"\f");} 
3940:  MOVLW  02
3942:  MOVLB  1
3944:  MOVWF  x06
3946:  MOVLW  FA
3948:  MOVWF  x1C
394A:  MOVLB  0
394C:  CALL   0BD2
3950:  MOVLB  1
3952:  DECFSZ x06,F
3954:  BRA    3946
3956:  MOVLW  0B
3958:  MOVWF  1A
395A:  MOVLW  0C
395C:  MOVWF  x1B
395E:  MOVLB  0
3960:  CALL   0D3A
....................        } 
....................     
....................        if(unidad>11&&unidad<14) 
3964:  BTFSC  1A.7
3966:  BRA    3994
3968:  MOVF   1A,W
396A:  SUBLW  0B
396C:  BC    3994
396E:  BTFSC  1A.7
3970:  BRA    3978
3972:  MOVF   1A,W
3974:  SUBLW  0D
3976:  BNC   3994
....................           { lcd_gotoxy(unidad-1,4);// Para mostrar cursor. 
3978:  MOVLW  01
397A:  SUBWF  1A,W
397C:  MOVLB  1
397E:  MOVWF  x06
3980:  MOVWF  x1C
3982:  MOVLW  04
3984:  MOVWF  x1D
3986:  MOVLB  0
3988:  CALL   0CC8
....................             lcd_putc(t[1]); 
398C:  MOVFF  42,11B
3990:  CALL   0D3A
3994:  MOVLB  1
....................           } 
....................  
....................    } 
.................... //----------------Fin-Menu0---------------------------------------------------------------    
....................  
.................... //------------Menu1------------------------------------------------------------------    
....................    if(Menu == 1){ // Menu de seleccion de lo que desea encender 
3996:  DECFSZ 17,W
3998:  BRA    3C40
....................       if(paso<0) 
399A:  BTFSC  40.7
399C:  BRA    39A0
399E:  BRA    39A2
....................       { 
....................          paso=0; 
39A0:  CLRF   40
....................       } 
....................     
....................       lcd_gotoxy(1,1); 
39A2:  MOVLW  01
39A4:  MOVWF  x1C
39A6:  MOVWF  x1D
39A8:  MOVLB  0
39AA:  CALL   0CC8
....................       printf(lcd_putc,"---MENU PRINCIPAL---"); 
39AE:  MOVLW  E0
39B0:  MOVWF  FF6
39B2:  MOVLW  04
39B4:  MOVWF  FF7
39B6:  CALL   11F6
....................     
....................       if(UP || BYTE_IR[2]==0X18)//Si oprime hacia arriba 
39BA:  BSF    F96.2
39BC:  BTFSC  F84.2
39BE:  BRA    39CA
39C0:  MOVLB  1
39C2:  MOVF   x03,W
39C4:  SUBLW  18
39C6:  BNZ   39F0
39C8:  MOVLB  0
....................       { 
....................          if(Flanco == 0) 
39CA:  BTFSC  3E.4
39CC:  BRA    39EC
....................          { 
....................             Flecha2--;Flecha--;Flecha1=Flecha+1;Flanco = 1;delay_ms(30);BYTE_IR[2]=0X00; 
39CE:  DECF   1D,F
39D0:  DECF   1B,F
39D2:  MOVLW  01
39D4:  ADDWF  1B,W
39D6:  MOVWF  1C
39D8:  BSF    3E.4
39DA:  MOVLW  1E
39DC:  MOVLB  1
39DE:  MOVWF  x1C
39E0:  MOVLB  0
39E2:  CALL   0BD2
39E6:  MOVLB  1
39E8:  CLRF   x03
39EA:  MOVLB  0
....................          } 
....................       } 
....................       else 
39EC:  BRA    39F4
39EE:  MOVLB  1
....................       { 
....................          Flanco = 0; 
39F0:  BCF    3E.4
39F2:  MOVLB  0
....................       } 
....................              
....................       if(DOWN || BYTE_IR[2]==0X52)//Si oprime hacia abajo 
39F4:  BSF    F96.1
39F6:  BTFSC  F84.1
39F8:  BRA    3A04
39FA:  MOVLB  1
39FC:  MOVF   x03,W
39FE:  SUBLW  52
3A00:  BNZ   3A2A
3A02:  MOVLB  0
....................       { 
....................          if(Flanco2 == 0) 
3A04:  BTFSC  3E.6
3A06:  BRA    3A26
....................          { 
....................             Flecha2++;Flecha++;Flecha1=Flecha-1;Flanco2 = 1;delay_ms(30);BYTE_IR[2]=0X00; 
3A08:  INCF   1D,F
3A0A:  INCF   1B,F
3A0C:  MOVLW  01
3A0E:  SUBWF  1B,W
3A10:  MOVWF  1C
3A12:  BSF    3E.6
3A14:  MOVLW  1E
3A16:  MOVLB  1
3A18:  MOVWF  x1C
3A1A:  MOVLB  0
3A1C:  CALL   0BD2
3A20:  MOVLB  1
3A22:  CLRF   x03
3A24:  MOVLB  0
....................          } 
....................       } 
....................       else 
3A26:  BRA    3A2E
3A28:  MOVLB  1
....................       { 
....................          Flanco2 = 0; 
3A2A:  BCF    3E.6
3A2C:  MOVLB  0
....................       } 
....................     
....................       if(Flecha2>nMenuH) 
3A2E:  MOVF   1F,W
3A30:  XORLW  80
3A32:  MOVWF  00
3A34:  MOVF   1D,W
3A36:  XORLW  80
3A38:  SUBWF  00,W
3A3A:  BC    3A4C
....................       { 
....................          paso++;nMenuH=Flecha2;nMenuL=nMenuH-2;Flecha=4; 
3A3C:  INCF   40,F
3A3E:  MOVFF  1D,1F
3A42:  MOVLW  02
3A44:  SUBWF  1F,W
3A46:  MOVWF  1E
3A48:  MOVLW  04
3A4A:  MOVWF  1B
....................       } 
....................          
....................       if(Flecha2<nMenuL) 
3A4C:  MOVF   1D,W
3A4E:  XORLW  80
3A50:  MOVWF  00
3A52:  MOVF   1E,W
3A54:  XORLW  80
3A56:  SUBWF  00,W
3A58:  BC    3A6A
....................       { 
....................          paso--;nMenuL=Flecha2;nMenuH=nMenuL+2;Flecha=2; 
3A5A:  DECF   40,F
3A5C:  MOVFF  1D,1E
3A60:  MOVLW  02
3A62:  ADDWF  1E,W
3A64:  MOVWF  1F
3A66:  MOVLW  02
3A68:  MOVWF  1B
....................       } 
....................          
....................       if(Flecha2>n_opcionH) 
3A6A:  MOVF   18,W
3A6C:  XORLW  80
3A6E:  MOVWF  00
3A70:  MOVF   1D,W
3A72:  XORLW  80
3A74:  SUBWF  00,W
3A76:  BC    3A8A
....................       { 
....................          Flecha2=n_opcionL;Flecha=2;paso=0;nMenuL=Flecha2;nMenuH=nMenuL+2; 
3A78:  MOVFF  19,1D
3A7C:  MOVLW  02
3A7E:  MOVWF  1B
3A80:  CLRF   40
3A82:  MOVFF  1D,1E
3A86:  ADDWF  1E,W
3A88:  MOVWF  1F
....................       } 
....................          
....................       if(Flecha2<n_opcionL) 
3A8A:  MOVF   1D,W
3A8C:  XORLW  80
3A8E:  MOVWF  00
3A90:  MOVF   19,W
3A92:  XORLW  80
3A94:  SUBWF  00,W
3A96:  BC    3AAE
....................       { 
....................          Flecha2=n_opcionH;Flecha=4;paso=n_opcionH-4;nMenuH=Flecha2;nMenuL=nMenuH-2; 
3A98:  MOVFF  18,1D
3A9C:  MOVLW  04
3A9E:  MOVWF  1B
3AA0:  SUBWF  18,W
3AA2:  MOVWF  40
3AA4:  MOVFF  1D,1F
3AA8:  MOVLW  02
3AAA:  SUBWF  1F,W
3AAC:  MOVWF  1E
....................       } 
....................          
....................       mensajes(1+paso,2); 
3AAE:  MOVLW  01
3AB0:  ADDWF  40,W
3AB2:  MOVLB  1
3AB4:  MOVWF  x06
3AB6:  MOVWF  x07
3AB8:  MOVLW  02
3ABA:  MOVWF  x08
3ABC:  MOVLB  0
3ABE:  CALL   1348
....................       mensajes(2+paso,3); 
3AC2:  MOVLW  02
3AC4:  ADDWF  40,W
3AC6:  MOVLB  1
3AC8:  MOVWF  x06
3ACA:  MOVWF  x07
3ACC:  MOVLW  03
3ACE:  MOVWF  x08
3AD0:  MOVLB  0
3AD2:  CALL   1348
....................       mensajes(3+paso,4); 
3AD6:  MOVLW  03
3AD8:  ADDWF  40,W
3ADA:  MOVLB  1
3ADC:  MOVWF  x06
3ADE:  MOVWF  x07
3AE0:  MOVLW  04
3AE2:  MOVWF  x08
3AE4:  MOVLB  0
3AE6:  CALL   1348
....................  
....................       lcd_gotoxy(1,Flecha);// Para mostrar la flecha de seleccion 
3AEA:  MOVLW  01
3AEC:  MOVLB  1
3AEE:  MOVWF  x1C
3AF0:  MOVFF  1B,11D
3AF4:  MOVLB  0
3AF6:  CALL   0CC8
....................       lcd_putc(t[0]); 
3AFA:  MOVFF  41,11B
3AFE:  CALL   0D3A
....................  
....................       if(Flecha==2) 
3B02:  MOVF   1B,W
3B04:  SUBLW  02
3B06:  BNZ   3B38
....................       { 
....................          lcd_gotoxy(1,4);// Para mostrar la flecha de seleccion 
3B08:  MOVLW  01
3B0A:  MOVLB  1
3B0C:  MOVWF  x1C
3B0E:  MOVLW  04
3B10:  MOVWF  x1D
3B12:  MOVLB  0
3B14:  CALL   0CC8
....................          lcd_putc(t[1]); 
3B18:  MOVFF  42,11B
3B1C:  CALL   0D3A
....................          lcd_gotoxy(1,3);// Para mostrar la flecha de seleccion 
3B20:  MOVLW  01
3B22:  MOVLB  1
3B24:  MOVWF  x1C
3B26:  MOVLW  03
3B28:  MOVWF  x1D
3B2A:  MOVLB  0
3B2C:  CALL   0CC8
....................          lcd_putc(t[1]); 
3B30:  MOVFF  42,11B
3B34:  CALL   0D3A
....................       } 
....................          
....................       if(Flecha==4) 
3B38:  MOVF   1B,W
3B3A:  SUBLW  04
3B3C:  BNZ   3B6E
....................       { 
....................          lcd_gotoxy(1,2);// Para mostrar la flecha de seleccion 
3B3E:  MOVLW  01
3B40:  MOVLB  1
3B42:  MOVWF  x1C
3B44:  MOVLW  02
3B46:  MOVWF  x1D
3B48:  MOVLB  0
3B4A:  CALL   0CC8
....................          lcd_putc(t[1]); 
3B4E:  MOVFF  42,11B
3B52:  CALL   0D3A
....................          lcd_gotoxy(1,3);// Para mostrar la flecha de seleccion 
3B56:  MOVLW  01
3B58:  MOVLB  1
3B5A:  MOVWF  x1C
3B5C:  MOVLW  03
3B5E:  MOVWF  x1D
3B60:  MOVLB  0
3B62:  CALL   0CC8
....................          lcd_putc(t[1]); 
3B66:  MOVFF  42,11B
3B6A:  CALL   0D3A
....................       } 
....................          
....................       if(Flecha==3) 
3B6E:  MOVF   1B,W
3B70:  SUBLW  03
3B72:  BNZ   3BA4
....................       { 
....................          lcd_gotoxy(1,4);// Para mostrar la flecha de seleccion 
3B74:  MOVLW  01
3B76:  MOVLB  1
3B78:  MOVWF  x1C
3B7A:  MOVLW  04
3B7C:  MOVWF  x1D
3B7E:  MOVLB  0
3B80:  CALL   0CC8
....................          lcd_putc(t[1]); 
3B84:  MOVFF  42,11B
3B88:  CALL   0D3A
....................          lcd_gotoxy(1,2);// Para mostrar la flecha de seleccion 
3B8C:  MOVLW  01
3B8E:  MOVLB  1
3B90:  MOVWF  x1C
3B92:  MOVLW  02
3B94:  MOVWF  x1D
3B96:  MOVLB  0
3B98:  CALL   0CC8
....................          lcd_putc(t[1]); 
3B9C:  MOVFF  42,11B
3BA0:  CALL   0D3A
....................       } 
....................  
....................       if(RIGHT || BYTE_IR[2]==0X1C)// Si oprime derecha 
3BA4:  BSF    F92.5
3BA6:  BTFSC  F80.5
3BA8:  BRA    3BB4
3BAA:  MOVLB  1
3BAC:  MOVF   x03,W
3BAE:  SUBLW  1C
3BB0:  BNZ   3BF8
3BB2:  MOVLB  0
....................       { 
....................          if(Flanco1 == 0) 
3BB4:  BTFSC  3E.5
3BB6:  BRA    3BF4
....................          { 
....................             Menu=Flecha2;Flecha=3;delay_ms(500);printf(lcd_putc,"\f");BYTE_IR[2]=0X00; 
3BB8:  MOVFF  1D,17
3BBC:  MOVLW  03
3BBE:  MOVWF  1B
3BC0:  MOVLW  02
3BC2:  MOVLB  1
3BC4:  MOVWF  x06
3BC6:  MOVLW  FA
3BC8:  MOVWF  x1C
3BCA:  MOVLB  0
3BCC:  CALL   0BD2
3BD0:  MOVLB  1
3BD2:  DECFSZ x06,F
3BD4:  BRA    3BC6
3BD6:  MOVLW  0C
3BD8:  MOVWF  x1B
3BDA:  MOVLB  0
3BDC:  CALL   0D3A
3BE0:  MOVLB  1
3BE2:  CLRF   x03
....................             if(Menu==6) 
3BE4:  MOVF   17,W
3BE6:  SUBLW  06
3BE8:  BNZ   3BF2
....................             { 
....................                clave[0]=0;clave[1]=0;clave[2]=0;clave[3]=0; 
3BEA:  CLRF   44
3BEC:  CLRF   45
3BEE:  CLRF   46
3BF0:  CLRF   47
3BF2:  MOVLB  0
....................             } 
....................          } 
....................       } 
....................       else 
3BF4:  BRA    3BFC
3BF6:  MOVLB  1
....................       { 
....................          Flanco1 = 0; 
3BF8:  BCF    3E.5
3BFA:  MOVLB  0
....................       } 
....................              
....................       if(LEFT || BYTE_IR[2]==0X08)// Si oprime Izquierda 
3BFC:  BSF    F96.0
3BFE:  BTFSC  F84.0
3C00:  BRA    3C0C
3C02:  MOVLB  1
3C04:  MOVF   x03,W
3C06:  SUBLW  08
3C08:  BNZ   3C3E
3C0A:  MOVLB  0
....................       {   
....................          if(Flanco3 == 0) 
3C0C:  BTFSC  3E.7
3C0E:  BRA    3C3A
....................          { 
....................             delay_ms(500);Menu=20;printf(lcd_putc,"\f");BYTE_IR[2]=0X00; 
3C10:  MOVLW  02
3C12:  MOVLB  1
3C14:  MOVWF  x06
3C16:  MOVLW  FA
3C18:  MOVWF  x1C
3C1A:  MOVLB  0
3C1C:  CALL   0BD2
3C20:  MOVLB  1
3C22:  DECFSZ x06,F
3C24:  BRA    3C16
3C26:  MOVLW  14
3C28:  MOVWF  17
3C2A:  MOVLW  0C
3C2C:  MOVWF  x1B
3C2E:  MOVLB  0
3C30:  CALL   0D3A
3C34:  MOVLB  1
3C36:  CLRF   x03
3C38:  MOVLB  0
....................          } 
....................       } 
....................       else 
3C3A:  BRA    3C42
3C3C:  MOVLB  1
....................       { 
....................          Flanco3 = 0; 
3C3E:  BCF    3E.7
3C40:  MOVLB  0
....................       } 
....................    } 
.................... //----------------Fin-Menu1---------------------------------------------------------------       
....................  
.................... //----------------Menu2--------------------------------------------------------------- 
....................    if(Menu == 2){ // Menu de seleccion de estado de Alarma 
3C42:  MOVF   17,W
3C44:  SUBLW  02
3C46:  BTFSS  FD8.2
3C48:  BRA    3D96
....................     
....................    estadoalarma=!estadoalarma;Flanco1 = 1;Menu=1; paso=0; 
3C4A:  BTG    3E.2
3C4C:  BSF    3E.5
3C4E:  MOVLW  01
3C50:  MOVWF  17
3C52:  CLRF   40
....................                        
....................             if(estadoalarma==1) 
3C54:  BTFSS  3E.2
3C56:  BRA    3CC8
....................             {estadoalarma=1; 
3C58:  BSF    3E.2
....................                lcd_gotoxy(1,1); 
3C5A:  MOVLW  01
3C5C:  MOVLB  1
3C5E:  MOVWF  x1C
3C60:  MOVWF  x1D
3C62:  MOVLB  0
3C64:  CALL   0CC8
....................                printf(lcd_putc,"                    "); 
3C68:  MOVLW  F6
3C6A:  MOVWF  FF6
3C6C:  MOVLW  04
3C6E:  MOVWF  FF7
3C70:  CALL   11F6
....................                lcd_gotoxy(1,2); 
3C74:  MOVLW  01
3C76:  MOVLB  1
3C78:  MOVWF  x1C
3C7A:  MOVLW  02
3C7C:  MOVWF  x1D
3C7E:  MOVLB  0
3C80:  CALL   0CC8
....................                printf(lcd_putc,"        Activo      "); 
3C84:  MOVLW  0C
3C86:  MOVWF  FF6
3C88:  MOVLW  05
3C8A:  MOVWF  FF7
3C8C:  CALL   11F6
....................                lcd_gotoxy(1,3); 
3C90:  MOVLW  01
3C92:  MOVLB  1
3C94:  MOVWF  x1C
3C96:  MOVLW  03
3C98:  MOVWF  x1D
3C9A:  MOVLB  0
3C9C:  CALL   0CC8
....................                printf(lcd_putc,"        Alarma      "); 
3CA0:  MOVLW  22
3CA2:  MOVWF  FF6
3CA4:  MOVLW  05
3CA6:  MOVWF  FF7
3CA8:  CALL   11F6
....................                lcd_gotoxy(1,4); 
3CAC:  MOVLW  01
3CAE:  MOVLB  1
3CB0:  MOVWF  x1C
3CB2:  MOVLW  04
3CB4:  MOVWF  x1D
3CB6:  MOVLB  0
3CB8:  CALL   0CC8
....................                printf(lcd_putc,"                    ");} 
3CBC:  MOVLW  38
3CBE:  MOVWF  FF6
3CC0:  MOVLW  05
3CC2:  MOVWF  FF7
3CC4:  CALL   11F6
....................                 
....................             if(estadoalarma==0) 
3CC8:  BTFSC  3E.2
3CCA:  BRA    3D3C
....................             {estadoalarma=0; 
3CCC:  BCF    3E.2
....................                lcd_gotoxy(1,1); 
3CCE:  MOVLW  01
3CD0:  MOVLB  1
3CD2:  MOVWF  x1C
3CD4:  MOVWF  x1D
3CD6:  MOVLB  0
3CD8:  CALL   0CC8
....................                printf(lcd_putc,"                    "); 
3CDC:  MOVLW  4E
3CDE:  MOVWF  FF6
3CE0:  MOVLW  05
3CE2:  MOVWF  FF7
3CE4:  CALL   11F6
....................                lcd_gotoxy(1,2); 
3CE8:  MOVLW  01
3CEA:  MOVLB  1
3CEC:  MOVWF  x1C
3CEE:  MOVLW  02
3CF0:  MOVWF  x1D
3CF2:  MOVLB  0
3CF4:  CALL   0CC8
....................                printf(lcd_putc,"      Desactivo     "); 
3CF8:  MOVLW  64
3CFA:  MOVWF  FF6
3CFC:  MOVLW  05
3CFE:  MOVWF  FF7
3D00:  CALL   11F6
....................                lcd_gotoxy(1,3); 
3D04:  MOVLW  01
3D06:  MOVLB  1
3D08:  MOVWF  x1C
3D0A:  MOVLW  03
3D0C:  MOVWF  x1D
3D0E:  MOVLB  0
3D10:  CALL   0CC8
....................                printf(lcd_putc,"       Alarma       "); 
3D14:  MOVLW  7A
3D16:  MOVWF  FF6
3D18:  MOVLW  05
3D1A:  MOVWF  FF7
3D1C:  CALL   11F6
....................                lcd_gotoxy(1,4); 
3D20:  MOVLW  01
3D22:  MOVLB  1
3D24:  MOVWF  x1C
3D26:  MOVLW  04
3D28:  MOVWF  x1D
3D2A:  MOVLB  0
3D2C:  CALL   0CC8
....................                printf(lcd_putc,"                    ");} 
3D30:  MOVLW  90
3D32:  MOVWF  FF6
3D34:  MOVLW  05
3D36:  MOVWF  FF7
3D38:  CALL   11F6
....................               
....................             write_eeprom(5,estadoalarma);delay_ms(1000);Flecha=2;Flecha2=2;printf(lcd_putc,"\f"); 
3D3C:  MOVLW  00
3D3E:  BTFSC  3E.2
3D40:  MOVLW  01
3D42:  MOVLB  1
3D44:  MOVWF  x06
3D46:  MOVLW  05
3D48:  MOVWF  FA9
3D4A:  MOVFF  106,FA8
3D4E:  BCF    FA6.6
3D50:  BCF    FA6.7
3D52:  BSF    FA6.2
3D54:  MOVF   FF2,W
3D56:  MOVWF  00
3D58:  BCF    FF2.7
3D5A:  MOVLB  F
3D5C:  MOVLW  55
3D5E:  MOVWF  FA7
3D60:  MOVLW  AA
3D62:  MOVWF  FA7
3D64:  BSF    FA6.1
3D66:  BTFSC  FA6.1
3D68:  BRA    3D66
3D6A:  BCF    FA6.2
3D6C:  MOVF   00,W
3D6E:  IORWF  FF2,F
3D70:  MOVLW  04
3D72:  MOVLB  1
3D74:  MOVWF  x06
3D76:  MOVLW  FA
3D78:  MOVWF  x1C
3D7A:  MOVLB  0
3D7C:  CALL   0BD2
3D80:  MOVLB  1
3D82:  DECFSZ x06,F
3D84:  BRA    3D76
3D86:  MOVLW  02
3D88:  MOVWF  1B
3D8A:  MOVWF  1D
3D8C:  MOVLW  0C
3D8E:  MOVWF  x1B
3D90:  MOVLB  0
3D92:  CALL   0D3A
....................    }       
.................... //----------------Fin-Menu2--------------------------------------------------------------- 
....................  
.................... //----------------Menu3--------------------------------------------------------------- 
....................    if(Menu == 3){ // Menu de seleccion de SetPoint 
3D96:  MOVF   17,W
3D98:  SUBLW  03
3D9A:  BTFSS  FD8.2
3D9C:  BRA    4058
....................    lcd_gotoxy(1,1); 
3D9E:  MOVLW  01
3DA0:  MOVLB  1
3DA2:  MOVWF  x1C
3DA4:  MOVWF  x1D
3DA6:  MOVLB  0
3DA8:  CALL   0CC8
....................    printf(lcd_putc,"  Duracion Actual   ");                           
3DAC:  MOVLW  A6
3DAE:  MOVWF  FF6
3DB0:  MOVLW  05
3DB2:  MOVWF  FF7
3DB4:  CALL   11F6
....................    lcd_gotoxy(1,2);                                                   
3DB8:  MOVLW  01
3DBA:  MOVLB  1
3DBC:  MOVWF  x1C
3DBE:  MOVLW  02
3DC0:  MOVWF  x1D
3DC2:  MOVLB  0
3DC4:  CALL   0CC8
....................    printf(lcd_putc," Tiempo= %02u:%02u:%02u ",horas,minutos,segundos);       
3DC8:  MOVLW  BC
3DCA:  MOVWF  FF6
3DCC:  MOVLW  05
3DCE:  MOVWF  FF7
3DD0:  MOVLW  09
3DD2:  MOVLB  1
3DD4:  MOVWF  x0E
3DD6:  MOVLB  0
3DD8:  CALL   1216
3DDC:  MOVFF  35,106
3DE0:  MOVLW  01
3DE2:  MOVLB  1
3DE4:  MOVWF  x07
3DE6:  MOVLB  0
3DE8:  CALL   14B6
3DEC:  MOVLW  3A
3DEE:  MOVLB  1
3DF0:  MOVWF  x1B
3DF2:  MOVLB  0
3DF4:  CALL   0D3A
3DF8:  MOVFF  34,106
3DFC:  MOVLW  01
3DFE:  MOVLB  1
3E00:  MOVWF  x07
3E02:  MOVLB  0
3E04:  CALL   14B6
3E08:  MOVLW  3A
3E0A:  MOVLB  1
3E0C:  MOVWF  x1B
3E0E:  MOVLB  0
3E10:  CALL   0D3A
3E14:  MOVFF  33,106
3E18:  MOVLW  01
3E1A:  MOVLB  1
3E1C:  MOVWF  x07
3E1E:  MOVLB  0
3E20:  CALL   14B6
3E24:  MOVLW  20
3E26:  MOVLB  1
3E28:  MOVWF  x1B
3E2A:  MOVLB  0
3E2C:  CALL   0D3A
....................     
....................    if(flag_filtro==1) 
3E30:  BTFSS  3F.2
3E32:  BRA    3E52
....................    { 
....................       lcd_gotoxy(1,3);                                                  
3E34:  MOVLW  01
3E36:  MOVLB  1
3E38:  MOVWF  x1C
3E3A:  MOVLW  03
3E3C:  MOVWF  x1D
3E3E:  MOVLB  0
3E40:  CALL   0CC8
....................       printf(lcd_putc,"DESACTIVAR= Oprima >");                         
3E44:  MOVLW  D6
3E46:  MOVWF  FF6
3E48:  MOVLW  05
3E4A:  MOVWF  FF7
3E4C:  CALL   11F6
....................    } 
....................    else 
3E50:  BRA    3E6E
....................    { 
....................       lcd_gotoxy(1,3);                                                  
3E52:  MOVLW  01
3E54:  MOVLB  1
3E56:  MOVWF  x1C
3E58:  MOVLW  03
3E5A:  MOVWF  x1D
3E5C:  MOVLB  0
3E5E:  CALL   0CC8
....................       printf(lcd_putc," ACTIVAR= Oprima >  ");                         
3E62:  MOVLW  EC
3E64:  MOVWF  FF6
3E66:  MOVLW  05
3E68:  MOVWF  FF7
3E6A:  CALL   11F6
....................    } 
....................     
....................    lcd_gotoxy(1,4);                                                  
3E6E:  MOVLW  01
3E70:  MOVLB  1
3E72:  MOVWF  x1C
3E74:  MOVLW  04
3E76:  MOVWF  x1D
3E78:  MOVLB  0
3E7A:  CALL   0CC8
....................    printf(lcd_putc," RESET= Oprima ^    ");                         
3E7E:  MOVLW  02
3E80:  MOVWF  FF6
3E82:  MOVLW  06
3E84:  MOVWF  FF7
3E86:  CALL   11F6
....................                                                                      
....................     
....................       if(UP || BYTE_IR[2]==0X18)//Si oprime hacia arriba 
3E8A:  BSF    F96.2
3E8C:  BTFSC  F84.2
3E8E:  BRA    3E9C
3E90:  MOVLB  1
3E92:  MOVF   x03,W
3E94:  SUBLW  18
3E96:  BTFSS  FD8.2
3E98:  BRA    3FA2
3E9A:  MOVLB  0
....................       { 
....................          delay_ms(200); 
3E9C:  MOVLW  C8
3E9E:  MOVLB  1
3EA0:  MOVWF  x1C
3EA2:  MOVLB  0
3EA4:  CALL   0BD2
....................          printf(lcd_putc,"\f"); 
3EA8:  MOVLW  0C
3EAA:  MOVLB  1
3EAC:  MOVWF  x1B
3EAE:  MOVLB  0
3EB0:  CALL   0D3A
....................          lcd_gotoxy(1,2); 
3EB4:  MOVLW  01
3EB6:  MOVLB  1
3EB8:  MOVWF  x1C
3EBA:  MOVLW  02
3EBC:  MOVWF  x1D
3EBE:  MOVLB  0
3EC0:  CALL   0CC8
....................          printf(lcd_putc," Reset de tiempo "); 
3EC4:  MOVLW  18
3EC6:  MOVWF  FF6
3EC8:  MOVLW  06
3ECA:  MOVWF  FF7
3ECC:  CALL   11F6
....................          lcd_gotoxy(1,3); 
3ED0:  MOVLW  01
3ED2:  MOVLB  1
3ED4:  MOVWF  x1C
3ED6:  MOVLW  03
3ED8:  MOVWF  x1D
3EDA:  MOVLB  0
3EDC:  CALL   0CC8
....................          printf(lcd_putc,"     Exitoso     "); 
3EE0:  MOVLW  2A
3EE2:  MOVWF  FF6
3EE4:  MOVLW  06
3EE6:  MOVWF  FF7
3EE8:  CALL   11F6
....................          write_eeprom(70,0);write_eeprom(71,0);write_eeprom(72,0); 
3EEC:  MOVLW  46
3EEE:  MOVWF  FA9
3EF0:  CLRF   FA8
3EF2:  BCF    FA6.6
3EF4:  BCF    FA6.7
3EF6:  BSF    FA6.2
3EF8:  MOVF   FF2,W
3EFA:  MOVWF  00
3EFC:  BCF    FF2.7
3EFE:  MOVLB  F
3F00:  MOVLW  55
3F02:  MOVWF  FA7
3F04:  MOVLW  AA
3F06:  MOVWF  FA7
3F08:  BSF    FA6.1
3F0A:  BTFSC  FA6.1
3F0C:  BRA    3F0A
3F0E:  BCF    FA6.2
3F10:  MOVF   00,W
3F12:  IORWF  FF2,F
3F14:  MOVLW  47
3F16:  MOVWF  FA9
3F18:  CLRF   FA8
3F1A:  BCF    FA6.6
3F1C:  BCF    FA6.7
3F1E:  BSF    FA6.2
3F20:  MOVF   FF2,W
3F22:  MOVWF  00
3F24:  BCF    FF2.7
3F26:  MOVLW  55
3F28:  MOVWF  FA7
3F2A:  MOVLW  AA
3F2C:  MOVWF  FA7
3F2E:  BSF    FA6.1
3F30:  BTFSC  FA6.1
3F32:  BRA    3F30
3F34:  BCF    FA6.2
3F36:  MOVF   00,W
3F38:  IORWF  FF2,F
3F3A:  MOVLW  48
3F3C:  MOVWF  FA9
3F3E:  CLRF   FA8
3F40:  BCF    FA6.6
3F42:  BCF    FA6.7
3F44:  BSF    FA6.2
3F46:  MOVF   FF2,W
3F48:  MOVWF  00
3F4A:  BCF    FF2.7
3F4C:  MOVLW  55
3F4E:  MOVWF  FA7
3F50:  MOVLW  AA
3F52:  MOVWF  FA7
3F54:  BSF    FA6.1
3F56:  BTFSC  FA6.1
3F58:  BRA    3F56
3F5A:  BCF    FA6.2
3F5C:  MOVF   00,W
3F5E:  IORWF  FF2,F
....................          delay_ms(700); 
3F60:  MOVLW  04
3F62:  MOVLB  1
3F64:  MOVWF  x06
3F66:  MOVLW  AF
3F68:  MOVWF  x1C
3F6A:  MOVLB  0
3F6C:  CALL   0BD2
3F70:  MOVLB  1
3F72:  DECFSZ x06,F
3F74:  BRA    3F66
....................          segundos=0;minutos=0;horas=0; 
3F76:  CLRF   33
3F78:  CLRF   34
3F7A:  CLRF   35
....................          delay_ms(30);Menu=1; paso=0;Flecha=2;Flecha2=2;printf(lcd_putc,"\f"); 
3F7C:  MOVLW  1E
3F7E:  MOVWF  x1C
3F80:  MOVLB  0
3F82:  CALL   0BD2
3F86:  MOVLW  01
3F88:  MOVWF  17
3F8A:  CLRF   40
3F8C:  MOVLW  02
3F8E:  MOVWF  1B
3F90:  MOVWF  1D
3F92:  MOVLW  0C
3F94:  MOVLB  1
3F96:  MOVWF  x1B
3F98:  MOVLB  0
3F9A:  CALL   0D3A
....................          BYTE_IR[2]=0X00; 
3F9E:  MOVLB  1
3FA0:  CLRF   x03
....................       } 
....................        
....................       if(RIGHT || BYTE_IR[2]==0X5A) 
3FA2:  BSF    F92.5
3FA4:  BTFSC  F80.5
3FA6:  BRA    3FAE
3FA8:  MOVF   x03,W
3FAA:  SUBLW  5A
3FAC:  BNZ   4012
....................       { 
....................          flag_filtro=!flag_filtro;write_eeprom(73,flag_filtro); 
3FAE:  BTG    3F.2
3FB0:  MOVLW  00
3FB2:  BTFSC  3F.2
3FB4:  MOVLW  01
3FB6:  MOVWF  x06
3FB8:  MOVLW  49
3FBA:  MOVWF  FA9
3FBC:  MOVFF  106,FA8
3FC0:  BCF    FA6.6
3FC2:  BCF    FA6.7
3FC4:  BSF    FA6.2
3FC6:  MOVF   FF2,W
3FC8:  MOVWF  00
3FCA:  BCF    FF2.7
3FCC:  MOVLB  F
3FCE:  MOVLW  55
3FD0:  MOVWF  FA7
3FD2:  MOVLW  AA
3FD4:  MOVWF  FA7
3FD6:  BSF    FA6.1
3FD8:  BTFSC  FA6.1
3FDA:  BRA    3FD8
3FDC:  BCF    FA6.2
3FDE:  MOVF   00,W
3FE0:  IORWF  FF2,F
....................          delay_ms(500);Menu=1; paso=0;Flecha=2;Flecha2=2;printf(lcd_putc,"\f");BYTE_IR[2]=0X00; 
3FE2:  MOVLW  02
3FE4:  MOVLB  1
3FE6:  MOVWF  x06
3FE8:  MOVLW  FA
3FEA:  MOVWF  x1C
3FEC:  MOVLB  0
3FEE:  CALL   0BD2
3FF2:  MOVLB  1
3FF4:  DECFSZ x06,F
3FF6:  BRA    3FE8
3FF8:  MOVLW  01
3FFA:  MOVWF  17
3FFC:  CLRF   40
3FFE:  MOVLW  02
4000:  MOVWF  1B
4002:  MOVWF  1D
4004:  MOVLW  0C
4006:  MOVWF  x1B
4008:  MOVLB  0
400A:  CALL   0D3A
400E:  MOVLB  1
4010:  CLRF   x03
....................       } 
....................              
....................       if(LEFT || BYTE_IR[2]==0X08)// Si oprime Izquierda 
4012:  BSF    F96.0
4014:  BTFSC  F84.0
4016:  BRA    401E
4018:  MOVF   x03,W
401A:  SUBLW  08
401C:  BNZ   4054
....................       {   
....................          if(Flanco3 == 0) 
401E:  BTFSC  3E.7
4020:  BRA    4052
....................          { 
....................             Flanco3 = 1;delay_ms(500);Menu=1; paso=0;Flecha=2;Flecha2=2;printf(lcd_putc,"\f");BYTE_IR[2]=0X00; 
4022:  BSF    3E.7
4024:  MOVLW  02
4026:  MOVWF  x06
4028:  MOVLW  FA
402A:  MOVWF  x1C
402C:  MOVLB  0
402E:  CALL   0BD2
4032:  MOVLB  1
4034:  DECFSZ x06,F
4036:  BRA    4028
4038:  MOVLW  01
403A:  MOVWF  17
403C:  CLRF   40
403E:  MOVLW  02
4040:  MOVWF  1B
4042:  MOVWF  1D
4044:  MOVLW  0C
4046:  MOVWF  x1B
4048:  MOVLB  0
404A:  CALL   0D3A
404E:  MOVLB  1
4050:  CLRF   x03
....................          } 
....................       } 
....................       else 
4052:  BRA    4056
....................       { 
....................          Flanco3 = 0; 
4054:  BCF    3E.7
4056:  MOVLB  0
....................       } 
....................    }       
.................... //----------------Fin-Menu3--------------------------------------------------------------- 
....................  
.................... //----------------Menu4--------------------------------------------------------------- 
....................    if(Menu == 4){ // Menu de seleccion de SetPoint 
4058:  MOVF   17,W
405A:  SUBLW  04
405C:  BTFSS  FD8.2
405E:  BRA    43C4
....................    lcd_gotoxy(1,2); 
4060:  MOVLW  01
4062:  MOVLB  1
4064:  MOVWF  x1C
4066:  MOVLW  02
4068:  MOVWF  x1D
406A:  MOVLB  0
406C:  CALL   0CC8
....................    printf(lcd_putc,"      Setpoint      "); 
4070:  MOVLW  3C
4072:  MOVWF  FF6
4074:  MOVLW  06
4076:  MOVWF  FF7
4078:  CALL   11F6
....................    lcd_gotoxy(1,3); 
407C:  MOVLW  01
407E:  MOVLB  1
4080:  MOVWF  x1C
4082:  MOVLW  03
4084:  MOVWF  x1D
4086:  MOVLB  0
4088:  CALL   0CC8
....................    printf(lcd_putc,"       %2.2f   ",setpoint); 
408C:  MOVLW  52
408E:  MOVWF  FF6
4090:  MOVLW  06
4092:  MOVWF  FF7
4094:  MOVLW  07
4096:  MOVLB  1
4098:  MOVWF  x0E
409A:  MOVLB  0
409C:  CALL   1216
40A0:  MOVLW  89
40A2:  MOVWF  FE9
40A4:  MOVFF  4F,111
40A8:  MOVFF  4E,110
40AC:  MOVFF  4D,10F
40B0:  MOVFF  4C,10E
40B4:  MOVLW  02
40B6:  MOVLB  1
40B8:  MOVWF  x12
40BA:  MOVLB  0
40BC:  CALL   16EC
40C0:  MOVLW  20
40C2:  MOVLB  1
40C4:  MOVWF  x1B
40C6:  MOVLB  0
40C8:  CALL   0D3A
40CC:  MOVLW  20
40CE:  MOVLB  1
40D0:  MOVWF  x1B
40D2:  MOVLB  0
40D4:  CALL   0D3A
40D8:  MOVLW  20
40DA:  MOVLB  1
40DC:  MOVWF  x1B
40DE:  MOVLB  0
40E0:  CALL   0D3A
....................     
....................    if(setpoint>2.0) 
40E4:  MOVLB  1
40E6:  CLRF   x23
40E8:  CLRF   x22
40EA:  CLRF   x21
40EC:  MOVLW  80
40EE:  MOVWF  x20
40F0:  MOVFF  4F,127
40F4:  MOVFF  4E,126
40F8:  MOVFF  4D,125
40FC:  MOVFF  4C,124
4100:  MOVLB  0
4102:  CALL   189E
4106:  BNC   4112
....................    { 
....................       setpoint=2.0; 
4108:  CLRF   4F
410A:  CLRF   4E
410C:  CLRF   4D
410E:  MOVLW  80
4110:  MOVWF  4C
....................    } 
....................     
....................    if(setpoint<0.5) 
4112:  MOVFF  4F,123
4116:  MOVFF  4E,122
411A:  MOVFF  4D,121
411E:  MOVFF  4C,120
4122:  MOVLB  1
4124:  CLRF   x27
4126:  CLRF   x26
4128:  CLRF   x25
412A:  MOVLW  7E
412C:  MOVWF  x24
412E:  MOVLB  0
4130:  CALL   189E
4134:  BNC   4140
....................    { 
....................       setpoint=0.5; 
4136:  CLRF   4F
4138:  CLRF   4E
413A:  CLRF   4D
413C:  MOVLW  7E
413E:  MOVWF  4C
....................    } 
....................     
....................       if(UP || BYTE_IR[2]==0X18)//Si oprime hacia arriba 
4140:  BSF    F96.2
4142:  BTFSC  F84.2
4144:  BRA    4150
4146:  MOVLB  1
4148:  MOVF   x03,W
414A:  SUBLW  18
414C:  BNZ   41A6
414E:  MOVLB  0
....................       {   
....................          if(Flanco == 0) 
4150:  BTFSC  3E.4
4152:  BRA    41A2
....................          { 
....................             setpoint+=0.1;Flanco = 1;delay_ms(30);BYTE_IR[2]=0X00; 
4154:  BCF    FD8.1
4156:  MOVFF  4F,127
415A:  MOVFF  4E,126
415E:  MOVFF  4D,125
4162:  MOVFF  4C,124
4166:  MOVLW  CD
4168:  MOVLB  1
416A:  MOVWF  x2B
416C:  MOVLW  CC
416E:  MOVWF  x2A
4170:  MOVLW  4C
4172:  MOVWF  x29
4174:  MOVLW  7B
4176:  MOVWF  x28
4178:  MOVLB  0
417A:  CALL   0F3A
417E:  MOVFF  03,4F
4182:  MOVFF  02,4E
4186:  MOVFF  01,4D
418A:  MOVFF  00,4C
418E:  BSF    3E.4
4190:  MOVLW  1E
4192:  MOVLB  1
4194:  MOVWF  x1C
4196:  MOVLB  0
4198:  CALL   0BD2
419C:  MOVLB  1
419E:  CLRF   x03
41A0:  MOVLB  0
....................          } 
....................       } 
....................       else 
41A2:  BRA    41AA
41A4:  MOVLB  1
....................       { 
....................          Flanco = 0; 
41A6:  BCF    3E.4
41A8:  MOVLB  0
....................       } 
....................              
....................       if(DOWN || BYTE_IR[2]==0X52)//Si oprime hacia abajo 
41AA:  BSF    F96.1
41AC:  BTFSC  F84.1
41AE:  BRA    41BA
41B0:  MOVLB  1
41B2:  MOVF   x03,W
41B4:  SUBLW  52
41B6:  BNZ   4210
41B8:  MOVLB  0
....................       {   
....................          if(Flanco2 == 0) 
41BA:  BTFSC  3E.6
41BC:  BRA    420C
....................          { 
....................             setpoint-=0.1;Flanco2 = 1;delay_ms(30);BYTE_IR[2]=0X00; 
41BE:  BSF    FD8.1
41C0:  MOVFF  4F,127
41C4:  MOVFF  4E,126
41C8:  MOVFF  4D,125
41CC:  MOVFF  4C,124
41D0:  MOVLW  CD
41D2:  MOVLB  1
41D4:  MOVWF  x2B
41D6:  MOVLW  CC
41D8:  MOVWF  x2A
41DA:  MOVLW  4C
41DC:  MOVWF  x29
41DE:  MOVLW  7B
41E0:  MOVWF  x28
41E2:  MOVLB  0
41E4:  CALL   0F3A
41E8:  MOVFF  03,4F
41EC:  MOVFF  02,4E
41F0:  MOVFF  01,4D
41F4:  MOVFF  00,4C
41F8:  BSF    3E.6
41FA:  MOVLW  1E
41FC:  MOVLB  1
41FE:  MOVWF  x1C
4200:  MOVLB  0
4202:  CALL   0BD2
4206:  MOVLB  1
4208:  CLRF   x03
420A:  MOVLB  0
....................          } 
....................       } 
....................       else 
420C:  BRA    4214
420E:  MOVLB  1
....................       { 
....................          Flanco2 = 0; 
4210:  BCF    3E.6
4212:  MOVLB  0
....................       } 
....................     
....................       if(RIGHT || BYTE_IR[2]==0X5A)// Si oprime derecha 
4214:  BSF    F92.5
4216:  BTFSC  F80.5
4218:  BRA    4226
421A:  MOVLB  1
421C:  MOVF   x03,W
421E:  SUBLW  5A
4220:  BTFSS  FD8.2
4222:  BRA    436E
4224:  MOVLB  0
....................       {   
....................          if(Flanco1 == 0) 
4226:  BTFSC  3E.5
4228:  BRA    436A
....................          { 
....................             Menu=1;paso=0;Flecha=2;Flecha2=2;unidad=11;delay_ms(500);printf(lcd_putc,"\f"); 
422A:  MOVLW  01
422C:  MOVWF  17
422E:  CLRF   40
4230:  MOVLW  02
4232:  MOVWF  1B
4234:  MOVWF  1D
4236:  MOVLW  0B
4238:  MOVWF  1A
423A:  MOVLW  02
423C:  MOVLB  1
423E:  MOVWF  x06
4240:  MOVLW  FA
4242:  MOVWF  x1C
4244:  MOVLB  0
4246:  CALL   0BD2
424A:  MOVLB  1
424C:  DECFSZ x06,F
424E:  BRA    4240
4250:  MOVLW  0C
4252:  MOVWF  x1B
4254:  MOVLB  0
4256:  CALL   0D3A
....................             Temporal=setpoint; 
425A:  MOVFF  4F,AA
425E:  MOVFF  4E,A9
4262:  MOVFF  4D,A8
4266:  MOVFF  4C,A7
....................             Entero=(int)setpoint; 
426A:  MOVFF  4F,109
426E:  MOVFF  4E,108
4272:  MOVFF  4D,107
4276:  MOVFF  4C,106
427A:  CALL   1918
427E:  MOVFF  01,24
....................             Temporal=Temporal-Entero; 
4282:  MOVLB  1
4284:  CLRF   x10
4286:  MOVFF  24,10F
428A:  MOVLB  0
428C:  CALL   0DA6
4290:  BSF    FD8.1
4292:  MOVFF  AA,127
4296:  MOVFF  A9,126
429A:  MOVFF  A8,125
429E:  MOVFF  A7,124
42A2:  MOVFF  03,12B
42A6:  MOVFF  02,12A
42AA:  MOVFF  01,129
42AE:  MOVFF  00,128
42B2:  CALL   0F3A
42B6:  MOVFF  03,AA
42BA:  MOVFF  02,A9
42BE:  MOVFF  01,A8
42C2:  MOVFF  00,A7
....................             Temporal2=Temporal*100.0; 
42C6:  MOVFF  AA,123
42CA:  MOVFF  A9,122
42CE:  MOVFF  A8,121
42D2:  MOVFF  A7,120
42D6:  MOVLB  1
42D8:  CLRF   x27
42DA:  CLRF   x26
42DC:  MOVLW  48
42DE:  MOVWF  x25
42E0:  MOVLW  85
42E2:  MOVWF  x24
42E4:  MOVLB  0
42E6:  CALL   1532
42EA:  MOVFF  03,AE
42EE:  MOVFF  02,AD
42F2:  MOVFF  01,AC
42F6:  MOVFF  00,AB
....................             Decimal2=(int8)Temporal2; 
42FA:  MOVFF  AE,109
42FE:  MOVFF  AD,108
4302:  MOVFF  AC,107
4306:  MOVFF  AB,106
430A:  CALL   1918
430E:  MOVFF  01,26
....................             write_eeprom(40,Entero);write_eeprom(41,Decimal2);//Guardar valor de Setpoint en eeprom 
4312:  MOVLW  28
4314:  MOVWF  FA9
4316:  MOVFF  24,FA8
431A:  BCF    FA6.6
431C:  BCF    FA6.7
431E:  BSF    FA6.2
4320:  MOVF   FF2,W
4322:  MOVWF  00
4324:  BCF    FF2.7
4326:  MOVLB  F
4328:  MOVLW  55
432A:  MOVWF  FA7
432C:  MOVLW  AA
432E:  MOVWF  FA7
4330:  BSF    FA6.1
4332:  BTFSC  FA6.1
4334:  BRA    4332
4336:  BCF    FA6.2
4338:  MOVF   00,W
433A:  IORWF  FF2,F
433C:  MOVLW  29
433E:  MOVWF  FA9
4340:  MOVFF  26,FA8
4344:  BCF    FA6.6
4346:  BCF    FA6.7
4348:  BSF    FA6.2
434A:  MOVF   FF2,W
434C:  MOVWF  00
434E:  BCF    FF2.7
4350:  MOVLW  55
4352:  MOVWF  FA7
4354:  MOVLW  AA
4356:  MOVWF  FA7
4358:  BSF    FA6.1
435A:  BTFSC  FA6.1
435C:  BRA    435A
435E:  BCF    FA6.2
4360:  MOVF   00,W
4362:  IORWF  FF2,F
....................             BYTE_IR[2]=0X00; 
4364:  MOVLB  1
4366:  CLRF   x03
4368:  MOVLB  0
....................          } 
....................       } 
....................       else 
436A:  BRA    4372
436C:  MOVLB  1
....................       { 
....................          Flanco1 = 0; 
436E:  BCF    3E.5
4370:  MOVLB  0
....................       } 
....................              
....................       if(LEFT || BYTE_IR[2]==0X08)// Si oprime Izquierda 
4372:  BSF    F96.0
4374:  BTFSC  F84.0
4376:  BRA    4382
4378:  MOVLB  1
437A:  MOVF   x03,W
437C:  SUBLW  08
437E:  BNZ   43C0
4380:  MOVLB  0
....................       { 
....................          if(Flanco3 == 0) 
4382:  BTFSC  3E.7
4384:  BRA    43BC
....................          { 
....................             Menu=1;paso=0;Flecha=2;Flecha2=2;unidad=11;delay_ms(500);printf(lcd_putc,"\f");BYTE_IR[2]=0X00; 
4386:  MOVLW  01
4388:  MOVWF  17
438A:  CLRF   40
438C:  MOVLW  02
438E:  MOVWF  1B
4390:  MOVWF  1D
4392:  MOVLW  0B
4394:  MOVWF  1A
4396:  MOVLW  02
4398:  MOVLB  1
439A:  MOVWF  x06
439C:  MOVLW  FA
439E:  MOVWF  x1C
43A0:  MOVLB  0
43A2:  CALL   0BD2
43A6:  MOVLB  1
43A8:  DECFSZ x06,F
43AA:  BRA    439C
43AC:  MOVLW  0C
43AE:  MOVWF  x1B
43B0:  MOVLB  0
43B2:  CALL   0D3A
43B6:  MOVLB  1
43B8:  CLRF   x03
43BA:  MOVLB  0
....................          } 
....................       } 
....................       else 
43BC:  BRA    43C4
43BE:  MOVLB  1
....................       { 
....................          Flanco3 = 0; 
43C0:  BCF    3E.7
43C2:  MOVLB  0
....................       } 
....................    }       
.................... //----------------Fin-Menu4--------------------------------------------------------------- 
....................  
.................... //----------------Menu5--------------------------------------------------------------- 
....................    if(Menu == 5){ // Menu para Cambio de Contraseña 
43C4:  MOVF   17,W
43C6:  SUBLW  05
43C8:  BTFSS  FD8.2
43CA:  BRA    479C
....................    lcd_gotoxy(1,1); 
43CC:  MOVLW  01
43CE:  MOVLB  1
43D0:  MOVWF  x1C
43D2:  MOVWF  x1D
43D4:  MOVLB  0
43D6:  CALL   0CC8
....................    printf(lcd_putc,"      Ingrese       "); 
43DA:  MOVLW  62
43DC:  MOVWF  FF6
43DE:  MOVLW  06
43E0:  MOVWF  FF7
43E2:  CALL   11F6
....................    lcd_gotoxy(1,2); 
43E6:  MOVLW  01
43E8:  MOVLB  1
43EA:  MOVWF  x1C
43EC:  MOVLW  02
43EE:  MOVWF  x1D
43F0:  MOVLB  0
43F2:  CALL   0CC8
....................    printf(lcd_putc," Contraseña Actual  "); 
43F6:  MOVLW  78
43F8:  MOVWF  FF6
43FA:  MOVLW  06
43FC:  MOVWF  FF7
43FE:  CALL   11F6
....................    lcd_gotoxy(1,3); 
4402:  MOVLW  01
4404:  MOVLB  1
4406:  MOVWF  x1C
4408:  MOVLW  03
440A:  MOVWF  x1D
440C:  MOVLB  0
440E:  CALL   0CC8
....................    printf(lcd_putc,"    CLAVE=%i%i%i%i  ",clave[0],clave[1],clave[2],clave[3]); 
4412:  MOVLW  8E
4414:  MOVWF  FF6
4416:  MOVLW  06
4418:  MOVWF  FF7
441A:  MOVLW  0A
441C:  MOVLB  1
441E:  MOVWF  x0E
4420:  MOVLB  0
4422:  CALL   1216
4426:  MOVFF  44,106
442A:  MOVLW  1F
442C:  MOVLB  1
442E:  MOVWF  x07
4430:  MOVLB  0
4432:  CALL   126A
4436:  MOVFF  45,106
443A:  MOVLW  1F
443C:  MOVLB  1
443E:  MOVWF  x07
4440:  MOVLB  0
4442:  CALL   126A
4446:  MOVFF  46,106
444A:  MOVLW  1F
444C:  MOVLB  1
444E:  MOVWF  x07
4450:  MOVLB  0
4452:  CALL   126A
4456:  MOVFF  47,106
445A:  MOVLW  1F
445C:  MOVLB  1
445E:  MOVWF  x07
4460:  MOVLB  0
4462:  CALL   126A
4466:  MOVLW  20
4468:  MOVLB  1
446A:  MOVWF  x1B
446C:  MOVLB  0
446E:  CALL   0D3A
4472:  MOVLW  20
4474:  MOVLB  1
4476:  MOVWF  x1B
4478:  MOVLB  0
447A:  CALL   0D3A
....................     
....................        
....................       if(UP || BYTE_IR[2]==0X18)//Si oprime hacia arriba 
447E:  BSF    F96.2
4480:  BTFSC  F84.2
4482:  BRA    448E
4484:  MOVLB  1
4486:  MOVF   x03,W
4488:  SUBLW  18
448A:  BNZ   44BC
448C:  MOVLB  0
....................       { 
....................          if(Flanco == 0) 
448E:  BTFSC  3E.4
4490:  BRA    44B8
....................          { 
....................             clave[unidad-11]++;Flanco = 1;delay_ms(30);BYTE_IR[2]=0; 
4492:  MOVLW  0B
4494:  SUBWF  1A,W
4496:  CLRF   03
4498:  ADDLW  44
449A:  MOVWF  FE9
449C:  MOVLW  00
449E:  ADDWFC 03,W
44A0:  MOVWF  FEA
44A2:  INCF   FEF,F
44A4:  BSF    3E.4
44A6:  MOVLW  1E
44A8:  MOVLB  1
44AA:  MOVWF  x1C
44AC:  MOVLB  0
44AE:  CALL   0BD2
44B2:  MOVLB  1
44B4:  CLRF   x03
44B6:  MOVLB  0
....................          } 
....................       } 
....................       else 
44B8:  BRA    44C0
44BA:  MOVLB  1
....................       { 
....................          Flanco = 0; 
44BC:  BCF    3E.4
44BE:  MOVLB  0
....................       } 
....................              
....................       if(DOWN || BYTE_IR[2]==0X52)//Si oprime hacia abajo 
44C0:  BSF    F96.1
44C2:  BTFSC  F84.1
44C4:  BRA    44D0
44C6:  MOVLB  1
44C8:  MOVF   x03,W
44CA:  SUBLW  52
44CC:  BNZ   44FE
44CE:  MOVLB  0
....................       {   
....................          if(Flanco2 == 0) 
44D0:  BTFSC  3E.6
44D2:  BRA    44FA
....................          { 
....................             clave[unidad-11]--;Flanco2 = 1;delay_ms(30);BYTE_IR[2]=0; 
44D4:  MOVLW  0B
44D6:  SUBWF  1A,W
44D8:  CLRF   03
44DA:  ADDLW  44
44DC:  MOVWF  FE9
44DE:  MOVLW  00
44E0:  ADDWFC 03,W
44E2:  MOVWF  FEA
44E4:  DECF   FEF,F
44E6:  BSF    3E.6
44E8:  MOVLW  1E
44EA:  MOVLB  1
44EC:  MOVWF  x1C
44EE:  MOVLB  0
44F0:  CALL   0BD2
44F4:  MOVLB  1
44F6:  CLRF   x03
44F8:  MOVLB  0
....................          } 
....................       } 
....................       else 
44FA:  BRA    4502
44FC:  MOVLB  1
....................       { 
....................          Flanco2 = 0; 
44FE:  BCF    3E.6
4500:  MOVLB  0
....................       } 
....................     
....................       if(RIGHT || BYTE_IR[2]==0X5A)// Si oprime derecha 
4502:  BSF    F92.5
4504:  BTFSC  F80.5
4506:  BRA    4512
4508:  MOVLB  1
450A:  MOVF   x03,W
450C:  SUBLW  5A
450E:  BNZ   4544
4510:  MOVLB  0
....................       {   
....................          if(Flanco1 == 0) 
4512:  BTFSC  3E.5
4514:  BRA    4540
....................          { 
....................             Flanco1 = 1;unidad++;delay_ms(500);printf(lcd_putc,"\f");BYTE_IR[2]=0; 
4516:  BSF    3E.5
4518:  INCF   1A,F
451A:  MOVLW  02
451C:  MOVLB  1
451E:  MOVWF  x06
4520:  MOVLW  FA
4522:  MOVWF  x1C
4524:  MOVLB  0
4526:  CALL   0BD2
452A:  MOVLB  1
452C:  DECFSZ x06,F
452E:  BRA    4520
4530:  MOVLW  0C
4532:  MOVWF  x1B
4534:  MOVLB  0
4536:  CALL   0D3A
453A:  MOVLB  1
453C:  CLRF   x03
453E:  MOVLB  0
....................          } 
....................       } 
....................       else 
4540:  BRA    4548
4542:  MOVLB  1
....................       { 
....................          Flanco1 = 0; 
4544:  BCF    3E.5
4546:  MOVLB  0
....................       } 
....................              
....................       if(LEFT || BYTE_IR[2]==0X08)// Si oprime Izquierda 
4548:  BSF    F96.0
454A:  BTFSC  F84.0
454C:  BRA    4558
454E:  MOVLB  1
4550:  MOVF   x03,W
4552:  SUBLW  08
4554:  BNZ   458A
4556:  MOVLB  0
....................       { 
....................          if(Flanco3 == 0) 
4558:  BTFSC  3E.7
455A:  BRA    4586
....................          { 
....................             Flanco3 = 1;unidad--;delay_ms(500);printf(lcd_putc,"\f");BYTE_IR[2]=0; 
455C:  BSF    3E.7
455E:  DECF   1A,F
4560:  MOVLW  02
4562:  MOVLB  1
4564:  MOVWF  x06
4566:  MOVLW  FA
4568:  MOVWF  x1C
456A:  MOVLB  0
456C:  CALL   0BD2
4570:  MOVLB  1
4572:  DECFSZ x06,F
4574:  BRA    4566
4576:  MOVLW  0C
4578:  MOVWF  x1B
457A:  MOVLB  0
457C:  CALL   0D3A
4580:  MOVLB  1
4582:  CLRF   x03
4584:  MOVLB  0
....................          } 
....................       } 
....................       else 
4586:  BRA    458E
4588:  MOVLB  1
....................       { 
....................          Flanco3 = 0; 
458A:  BCF    3E.7
458C:  MOVLB  0
....................       } 
....................              
....................        if(clave[unidad-11]<0)// Si la unidad donde se encuentra ubicado el cursor es menor que 0 pasa a 9.      
458E:  MOVLW  0B
4590:  SUBWF  1A,W
4592:  CLRF   03
4594:  ADDLW  44
4596:  MOVWF  FE9
4598:  MOVLW  00
459A:  ADDWFC 03,W
459C:  MOVWF  FEA
459E:  BTFSC  FEF.7
45A0:  BRA    45A4
45A2:  BRA    45B8
....................        { 
....................          clave[unidad-11]=9; 
45A4:  MOVLW  0B
45A6:  SUBWF  1A,W
45A8:  CLRF   03
45AA:  ADDLW  44
45AC:  MOVWF  FE9
45AE:  MOVLW  00
45B0:  ADDWFC 03,W
45B2:  MOVWF  FEA
45B4:  MOVLW  09
45B6:  MOVWF  FEF
....................        } 
....................        if(clave[unidad-11]>9)// Si la unidad donde se encuentra ubicado el cursor es mayor que 9 pasa a 0.      
45B8:  MOVLW  0B
45BA:  SUBWF  1A,W
45BC:  CLRF   03
45BE:  ADDLW  44
45C0:  MOVWF  FE9
45C2:  MOVLW  00
45C4:  ADDWFC 03,W
45C6:  MOVWF  FEA
45C8:  BTFSC  FEF.7
45CA:  BRA    45E4
45CC:  MOVF   FEF,W
45CE:  SUBLW  09
45D0:  BC    45E4
....................        { 
....................          clave[unidad-11]=0; 
45D2:  MOVLW  0B
45D4:  SUBWF  1A,W
45D6:  CLRF   03
45D8:  ADDLW  44
45DA:  MOVWF  FE9
45DC:  MOVLW  00
45DE:  ADDWFC 03,W
45E0:  MOVWF  FEA
45E2:  CLRF   FEF
....................        } 
....................        if(unidad<11) 
45E4:  BTFSC  1A.7
45E6:  BRA    45EE
45E8:  MOVF   1A,W
45EA:  SUBLW  0A
45EC:  BNC   45FE
....................        {Menu=1;paso=0;Flecha=2;Flecha2=2;unidad=11;} 
45EE:  MOVLW  01
45F0:  MOVWF  17
45F2:  CLRF   40
45F4:  MOVLW  02
45F6:  MOVWF  1B
45F8:  MOVWF  1D
45FA:  MOVLW  0B
45FC:  MOVWF  1A
....................         
....................        lcd_gotoxy(unidad,4);// Para mostrar la flecha de seleccion 
45FE:  MOVFF  1A,11C
4602:  MOVLW  04
4604:  MOVLB  1
4606:  MOVWF  x1D
4608:  MOVLB  0
460A:  CALL   0CC8
....................        lcd_putc(t[2]); 
460E:  MOVFF  43,11B
4612:  CALL   0D3A
....................         
....................        if(unidad>14)// Si ya ingreso la contraseña muestra si es correcta o no, dependiendo si ingreso la clave correctamente. 
4616:  BTFSC  1A.7
4618:  BRA    476C
461A:  MOVF   1A,W
461C:  SUBLW  0E
461E:  BTFSC  FD8.0
4620:  BRA    476C
....................        { 
....................          if(clave[0]==contrasena[0]&&clave[1]==contrasena[1]&&clave[2]==contrasena[2]&&clave[3]==contrasena[3]) 
4622:  MOVF   48,W
4624:  SUBWF  44,W
4626:  BNZ   46DA
4628:  MOVF   49,W
462A:  SUBWF  45,W
462C:  BNZ   46DA
462E:  MOVF   4A,W
4630:  SUBWF  46,W
4632:  BNZ   46DA
4634:  MOVF   4B,W
4636:  SUBWF  47,W
4638:  BNZ   46DA
....................             {lcd_gotoxy(1,1); 
463A:  MOVLW  01
463C:  MOVLB  1
463E:  MOVWF  x1C
4640:  MOVWF  x1D
4642:  MOVLB  0
4644:  CALL   0CC8
....................             printf(lcd_putc,"                    "); 
4648:  MOVLW  A4
464A:  MOVWF  FF6
464C:  MOVLW  06
464E:  MOVWF  FF7
4650:  CALL   11F6
....................             lcd_gotoxy(1,2); 
4654:  MOVLW  01
4656:  MOVLB  1
4658:  MOVWF  x1C
465A:  MOVLW  02
465C:  MOVWF  x1D
465E:  MOVLB  0
4660:  CALL   0CC8
....................             printf(lcd_putc,"     Contraseña     "); 
4664:  MOVLW  BA
4666:  MOVWF  FF6
4668:  MOVLW  06
466A:  MOVWF  FF7
466C:  CALL   11F6
....................             lcd_gotoxy(1,3); 
4670:  MOVLW  01
4672:  MOVLB  1
4674:  MOVWF  x1C
4676:  MOVLW  03
4678:  MOVWF  x1D
467A:  MOVLB  0
467C:  CALL   0CC8
....................             printf(lcd_putc,"      Correcta      "); 
4680:  MOVLW  D0
4682:  MOVWF  FF6
4684:  MOVLW  06
4686:  MOVWF  FF7
4688:  CALL   11F6
....................             lcd_gotoxy(1,4); 
468C:  MOVLW  01
468E:  MOVLB  1
4690:  MOVWF  x1C
4692:  MOVLW  04
4694:  MOVWF  x1D
4696:  MOVLB  0
4698:  CALL   0CC8
....................             printf(lcd_putc,"                    "); 
469C:  MOVLW  E6
469E:  MOVWF  FF6
46A0:  MOVLW  06
46A2:  MOVWF  FF7
46A4:  CALL   11F6
....................             delay_ms(500);Menu=51;unidad=11;printf(lcd_putc,"\f"); 
46A8:  MOVLW  02
46AA:  MOVLB  1
46AC:  MOVWF  x06
46AE:  MOVLW  FA
46B0:  MOVWF  x1C
46B2:  MOVLB  0
46B4:  CALL   0BD2
46B8:  MOVLB  1
46BA:  DECFSZ x06,F
46BC:  BRA    46AE
46BE:  MOVLW  33
46C0:  MOVWF  17
46C2:  MOVLW  0B
46C4:  MOVWF  1A
46C6:  MOVLW  0C
46C8:  MOVWF  x1B
46CA:  MOVLB  0
46CC:  CALL   0D3A
....................             clave[0]=0;clave[1]=0;clave[2]=0;clave[3]=0;} 
46D0:  CLRF   44
46D2:  CLRF   45
46D4:  CLRF   46
46D6:  CLRF   47
....................          else 
46D8:  BRA    476C
....................          {lcd_gotoxy(1,1); 
46DA:  MOVLW  01
46DC:  MOVLB  1
46DE:  MOVWF  x1C
46E0:  MOVWF  x1D
46E2:  MOVLB  0
46E4:  CALL   0CC8
....................             printf(lcd_putc,"                    "); 
46E8:  MOVLW  FC
46EA:  MOVWF  FF6
46EC:  MOVLW  06
46EE:  MOVWF  FF7
46F0:  CALL   11F6
....................             lcd_gotoxy(1,2); 
46F4:  MOVLW  01
46F6:  MOVLB  1
46F8:  MOVWF  x1C
46FA:  MOVLW  02
46FC:  MOVWF  x1D
46FE:  MOVLB  0
4700:  CALL   0CC8
....................             printf(lcd_putc,"     Contraseña     "); 
4704:  MOVLW  12
4706:  MOVWF  FF6
4708:  MOVLW  07
470A:  MOVWF  FF7
470C:  CALL   11F6
....................             lcd_gotoxy(1,3); 
4710:  MOVLW  01
4712:  MOVLB  1
4714:  MOVWF  x1C
4716:  MOVLW  03
4718:  MOVWF  x1D
471A:  MOVLB  0
471C:  CALL   0CC8
....................             printf(lcd_putc,"     Incorrecta     "); 
4720:  MOVLW  28
4722:  MOVWF  FF6
4724:  MOVLW  07
4726:  MOVWF  FF7
4728:  CALL   11F6
....................             lcd_gotoxy(1,4); 
472C:  MOVLW  01
472E:  MOVLB  1
4730:  MOVWF  x1C
4732:  MOVLW  04
4734:  MOVWF  x1D
4736:  MOVLB  0
4738:  CALL   0CC8
....................             printf(lcd_putc,"                    "); 
473C:  MOVLW  3E
473E:  MOVWF  FF6
4740:  MOVLW  07
4742:  MOVWF  FF7
4744:  CALL   11F6
....................             delay_ms(500);unidad=11;printf(lcd_putc,"\f");} 
4748:  MOVLW  02
474A:  MOVLB  1
474C:  MOVWF  x06
474E:  MOVLW  FA
4750:  MOVWF  x1C
4752:  MOVLB  0
4754:  CALL   0BD2
4758:  MOVLB  1
475A:  DECFSZ x06,F
475C:  BRA    474E
475E:  MOVLW  0B
4760:  MOVWF  1A
4762:  MOVLW  0C
4764:  MOVWF  x1B
4766:  MOVLB  0
4768:  CALL   0D3A
....................        } 
....................                 
....................           if(unidad>11&&unidad<14) 
476C:  BTFSC  1A.7
476E:  BRA    479C
4770:  MOVF   1A,W
4772:  SUBLW  0B
4774:  BC    479C
4776:  BTFSC  1A.7
4778:  BRA    4780
477A:  MOVF   1A,W
477C:  SUBLW  0D
477E:  BNC   479C
....................           { lcd_gotoxy(unidad-1,4);// Para mostrar cursor. 
4780:  MOVLW  01
4782:  SUBWF  1A,W
4784:  MOVLB  1
4786:  MOVWF  x06
4788:  MOVWF  x1C
478A:  MOVLW  04
478C:  MOVWF  x1D
478E:  MOVLB  0
4790:  CALL   0CC8
....................             lcd_putc(t[1]); 
4794:  MOVFF  42,11B
4798:  CALL   0D3A
....................           } 
....................    }       
.................... //----------------Fin-Menu5--------------------------------------------------------------- 
....................  
.................... //----------------Menu5.1--------------------------------------------------------------- 
....................    if(Menu == 51){ // Menu cuando ingresa correctamente la contraseña, permite que digite nueva contraseña. 
479C:  MOVF   17,W
479E:  SUBLW  33
47A0:  BTFSS  FD8.2
47A2:  BRA    4B7A
....................    lcd_gotoxy(1,1); 
47A4:  MOVLW  01
47A6:  MOVLB  1
47A8:  MOVWF  x1C
47AA:  MOVWF  x1D
47AC:  MOVLB  0
47AE:  CALL   0CC8
....................    printf(lcd_putc,"     Ingrese        "); 
47B2:  MOVLW  54
47B4:  MOVWF  FF6
47B6:  MOVLW  07
47B8:  MOVWF  FF7
47BA:  CALL   11F6
....................    lcd_gotoxy(1,2); 
47BE:  MOVLW  01
47C0:  MOVLB  1
47C2:  MOVWF  x1C
47C4:  MOVLW  02
47C6:  MOVWF  x1D
47C8:  MOVLB  0
47CA:  CALL   0CC8
....................    printf(lcd_putc,"  Contraseña Nueva  "); 
47CE:  MOVLW  6A
47D0:  MOVWF  FF6
47D2:  MOVLW  07
47D4:  MOVWF  FF7
47D6:  CALL   11F6
....................    lcd_gotoxy(1,3); 
47DA:  MOVLW  01
47DC:  MOVLB  1
47DE:  MOVWF  x1C
47E0:  MOVLW  03
47E2:  MOVWF  x1D
47E4:  MOVLB  0
47E6:  CALL   0CC8
....................    printf(lcd_putc,"    CLAVE=%i%i%i%i  ",clave[0],clave[1],clave[2],clave[3]); 
47EA:  MOVLW  80
47EC:  MOVWF  FF6
47EE:  MOVLW  07
47F0:  MOVWF  FF7
47F2:  MOVLW  0A
47F4:  MOVLB  1
47F6:  MOVWF  x0E
47F8:  MOVLB  0
47FA:  CALL   1216
47FE:  MOVFF  44,106
4802:  MOVLW  1F
4804:  MOVLB  1
4806:  MOVWF  x07
4808:  MOVLB  0
480A:  CALL   126A
480E:  MOVFF  45,106
4812:  MOVLW  1F
4814:  MOVLB  1
4816:  MOVWF  x07
4818:  MOVLB  0
481A:  CALL   126A
481E:  MOVFF  46,106
4822:  MOVLW  1F
4824:  MOVLB  1
4826:  MOVWF  x07
4828:  MOVLB  0
482A:  CALL   126A
482E:  MOVFF  47,106
4832:  MOVLW  1F
4834:  MOVLB  1
4836:  MOVWF  x07
4838:  MOVLB  0
483A:  CALL   126A
483E:  MOVLW  20
4840:  MOVLB  1
4842:  MOVWF  x1B
4844:  MOVLB  0
4846:  CALL   0D3A
484A:  MOVLW  20
484C:  MOVLB  1
484E:  MOVWF  x1B
4850:  MOVLB  0
4852:  CALL   0D3A
....................     
....................        
....................       if(UP || BYTE_IR[2]==0X18)//Si oprime hacia arriba 
4856:  BSF    F96.2
4858:  BTFSC  F84.2
485A:  BRA    4866
485C:  MOVLB  1
485E:  MOVF   x03,W
4860:  SUBLW  18
4862:  BNZ   4894
4864:  MOVLB  0
....................       {   
....................          if(Flanco == 0) 
4866:  BTFSC  3E.4
4868:  BRA    4890
....................          { 
....................             clave[unidad-11]++;Flanco = 1;delay_ms(30);BYTE_IR[2]=0; 
486A:  MOVLW  0B
486C:  SUBWF  1A,W
486E:  CLRF   03
4870:  ADDLW  44
4872:  MOVWF  FE9
4874:  MOVLW  00
4876:  ADDWFC 03,W
4878:  MOVWF  FEA
487A:  INCF   FEF,F
487C:  BSF    3E.4
487E:  MOVLW  1E
4880:  MOVLB  1
4882:  MOVWF  x1C
4884:  MOVLB  0
4886:  CALL   0BD2
488A:  MOVLB  1
488C:  CLRF   x03
488E:  MOVLB  0
....................          } 
....................       } 
....................       else 
4890:  BRA    4898
4892:  MOVLB  1
....................       { 
....................          Flanco = 0; 
4894:  BCF    3E.4
4896:  MOVLB  0
....................       } 
....................              
....................       if(DOWN || BYTE_IR[2]==0X52)//Si oprime hacia abajo 
4898:  BSF    F96.1
489A:  BTFSC  F84.1
489C:  BRA    48A8
489E:  MOVLB  1
48A0:  MOVF   x03,W
48A2:  SUBLW  52
48A4:  BNZ   48D6
48A6:  MOVLB  0
....................       {   
....................          if(Flanco2 == 0) 
48A8:  BTFSC  3E.6
48AA:  BRA    48D2
....................          { 
....................             clave[unidad-11]--;Flanco2 = 1;delay_ms(30);BYTE_IR[2]=0; 
48AC:  MOVLW  0B
48AE:  SUBWF  1A,W
48B0:  CLRF   03
48B2:  ADDLW  44
48B4:  MOVWF  FE9
48B6:  MOVLW  00
48B8:  ADDWFC 03,W
48BA:  MOVWF  FEA
48BC:  DECF   FEF,F
48BE:  BSF    3E.6
48C0:  MOVLW  1E
48C2:  MOVLB  1
48C4:  MOVWF  x1C
48C6:  MOVLB  0
48C8:  CALL   0BD2
48CC:  MOVLB  1
48CE:  CLRF   x03
48D0:  MOVLB  0
....................          } 
....................       } 
....................       else 
48D2:  BRA    48DA
48D4:  MOVLB  1
....................       { 
....................          Flanco2 = 0; 
48D6:  BCF    3E.6
48D8:  MOVLB  0
....................       } 
....................     
....................       if(RIGHT || BYTE_IR[2]==0X5A)// Si oprime Derecha 
48DA:  BSF    F92.5
48DC:  BTFSC  F80.5
48DE:  BRA    48EA
48E0:  MOVLB  1
48E2:  MOVF   x03,W
48E4:  SUBLW  5A
48E6:  BNZ   4914
48E8:  MOVLB  0
....................       { 
....................          if(Flanco1 == 0) 
48EA:  BTFSC  3E.5
48EC:  BRA    4910
....................          { 
....................             Flanco1 = 1;unidad++;delay_ms(30);printf(lcd_putc,"\f");BYTE_IR[2]=0; 
48EE:  BSF    3E.5
48F0:  INCF   1A,F
48F2:  MOVLW  1E
48F4:  MOVLB  1
48F6:  MOVWF  x1C
48F8:  MOVLB  0
48FA:  CALL   0BD2
48FE:  MOVLW  0C
4900:  MOVLB  1
4902:  MOVWF  x1B
4904:  MOVLB  0
4906:  CALL   0D3A
490A:  MOVLB  1
490C:  CLRF   x03
490E:  MOVLB  0
....................          } 
....................       } 
....................       else 
4910:  BRA    4918
4912:  MOVLB  1
....................       { 
....................          Flanco1 = 0; 
4914:  BCF    3E.5
4916:  MOVLB  0
....................       } 
....................              
....................       if(LEFT || BYTE_IR[2]==0X08)// Si oprime Izquierda 
4918:  BSF    F96.0
491A:  BTFSC  F84.0
491C:  BRA    4928
491E:  MOVLB  1
4920:  MOVF   x03,W
4922:  SUBLW  08
4924:  BNZ   4952
4926:  MOVLB  0
....................       { 
....................          if(Flanco3 == 0) 
4928:  BTFSC  3E.7
492A:  BRA    494E
....................          { 
....................             Flanco3 = 1;unidad--;delay_ms(30);printf(lcd_putc,"\f");BYTE_IR[2]=0; 
492C:  BSF    3E.7
492E:  DECF   1A,F
4930:  MOVLW  1E
4932:  MOVLB  1
4934:  MOVWF  x1C
4936:  MOVLB  0
4938:  CALL   0BD2
493C:  MOVLW  0C
493E:  MOVLB  1
4940:  MOVWF  x1B
4942:  MOVLB  0
4944:  CALL   0D3A
4948:  MOVLB  1
494A:  CLRF   x03
494C:  MOVLB  0
....................          } 
....................       } 
....................       else 
494E:  BRA    4956
4950:  MOVLB  1
....................       { 
....................          Flanco3 = 0; 
4952:  BCF    3E.7
4954:  MOVLB  0
....................       } 
....................              
....................        if(clave[unidad-11]<0)// Si la unidad donde se encuentra ubicado el cursor es menor que 0 pasa a 9.      
4956:  MOVLW  0B
4958:  SUBWF  1A,W
495A:  CLRF   03
495C:  ADDLW  44
495E:  MOVWF  FE9
4960:  MOVLW  00
4962:  ADDWFC 03,W
4964:  MOVWF  FEA
4966:  BTFSC  FEF.7
4968:  BRA    496C
496A:  BRA    4980
....................        {clave[unidad-11]=9;} 
496C:  MOVLW  0B
496E:  SUBWF  1A,W
4970:  CLRF   03
4972:  ADDLW  44
4974:  MOVWF  FE9
4976:  MOVLW  00
4978:  ADDWFC 03,W
497A:  MOVWF  FEA
497C:  MOVLW  09
497E:  MOVWF  FEF
....................        if(clave[unidad-11]>9)// Si la unidad donde se encuentra ubicado el cursor es mayor que 9 pasa a 0.      
4980:  MOVLW  0B
4982:  SUBWF  1A,W
4984:  CLRF   03
4986:  ADDLW  44
4988:  MOVWF  FE9
498A:  MOVLW  00
498C:  ADDWFC 03,W
498E:  MOVWF  FEA
4990:  BTFSC  FEF.7
4992:  BRA    49AC
4994:  MOVF   FEF,W
4996:  SUBLW  09
4998:  BC    49AC
....................        {clave[unidad-11]=0;} 
499A:  MOVLW  0B
499C:  SUBWF  1A,W
499E:  CLRF   03
49A0:  ADDLW  44
49A2:  MOVWF  FE9
49A4:  MOVLW  00
49A6:  ADDWFC 03,W
49A8:  MOVWF  FEA
49AA:  CLRF   FEF
....................        if(unidad<11) 
49AC:  BTFSC  1A.7
49AE:  BRA    49B6
49B0:  MOVF   1A,W
49B2:  SUBLW  0A
49B4:  BNC   49BE
....................        {Menu=5;unidad=11;} 
49B6:  MOVLW  05
49B8:  MOVWF  17
49BA:  MOVLW  0B
49BC:  MOVWF  1A
....................        lcd_gotoxy(unidad,4);// Para mostrar la flecha de seleccion 
49BE:  MOVFF  1A,11C
49C2:  MOVLW  04
49C4:  MOVLB  1
49C6:  MOVWF  x1D
49C8:  MOVLB  0
49CA:  CALL   0CC8
....................        lcd_putc(t[2]); 
49CE:  MOVFF  43,11B
49D2:  CALL   0D3A
....................        if(unidad>14)// Si ya ingreso la nueva contraseña. 
49D6:  BTFSC  1A.7
49D8:  BRA    4B4A
49DA:  MOVF   1A,W
49DC:  SUBLW  0E
49DE:  BTFSC  FD8.0
49E0:  BRA    4B4A
....................        { 
....................             lcd_gotoxy(1,1); 
49E2:  MOVLW  01
49E4:  MOVLB  1
49E6:  MOVWF  x1C
49E8:  MOVWF  x1D
49EA:  MOVLB  0
49EC:  CALL   0CC8
....................             printf(lcd_putc,"                    "); 
49F0:  MOVLW  96
49F2:  MOVWF  FF6
49F4:  MOVLW  07
49F6:  MOVWF  FF7
49F8:  CALL   11F6
....................             lcd_gotoxy(1,2); 
49FC:  MOVLW  01
49FE:  MOVLB  1
4A00:  MOVWF  x1C
4A02:  MOVLW  02
4A04:  MOVWF  x1D
4A06:  MOVLB  0
4A08:  CALL   0CC8
....................             printf(lcd_putc,"     Contraseña     "); 
4A0C:  MOVLW  AC
4A0E:  MOVWF  FF6
4A10:  MOVLW  07
4A12:  MOVWF  FF7
4A14:  CALL   11F6
....................             lcd_gotoxy(1,3); 
4A18:  MOVLW  01
4A1A:  MOVLB  1
4A1C:  MOVWF  x1C
4A1E:  MOVLW  03
4A20:  MOVWF  x1D
4A22:  MOVLB  0
4A24:  CALL   0CC8
....................             printf(lcd_putc,"     Almacenada     "); 
4A28:  MOVLW  C2
4A2A:  MOVWF  FF6
4A2C:  MOVLW  07
4A2E:  MOVWF  FF7
4A30:  CALL   11F6
....................             lcd_gotoxy(1,4); 
4A34:  MOVLW  01
4A36:  MOVLB  1
4A38:  MOVWF  x1C
4A3A:  MOVLW  04
4A3C:  MOVWF  x1D
4A3E:  MOVLB  0
4A40:  CALL   0CC8
....................             printf(lcd_putc,"                    "); 
4A44:  MOVLW  D8
4A46:  MOVWF  FF6
4A48:  MOVLW  07
4A4A:  MOVWF  FF7
4A4C:  CALL   11F6
....................             write_eeprom(0,clave[0]);delay_ms(20);write_eeprom(1,clave[1]);delay_ms(20); 
4A50:  CLRF   FA9
4A52:  MOVFF  44,FA8
4A56:  BCF    FA6.6
4A58:  BCF    FA6.7
4A5A:  BSF    FA6.2
4A5C:  MOVF   FF2,W
4A5E:  MOVWF  00
4A60:  BCF    FF2.7
4A62:  MOVLB  F
4A64:  MOVLW  55
4A66:  MOVWF  FA7
4A68:  MOVLW  AA
4A6A:  MOVWF  FA7
4A6C:  BSF    FA6.1
4A6E:  BTFSC  FA6.1
4A70:  BRA    4A6E
4A72:  BCF    FA6.2
4A74:  MOVF   00,W
4A76:  IORWF  FF2,F
4A78:  MOVLW  14
4A7A:  MOVLB  1
4A7C:  MOVWF  x1C
4A7E:  MOVLB  0
4A80:  CALL   0BD2
4A84:  MOVLW  01
4A86:  MOVWF  FA9
4A88:  MOVFF  45,FA8
4A8C:  BCF    FA6.6
4A8E:  BCF    FA6.7
4A90:  BSF    FA6.2
4A92:  MOVF   FF2,W
4A94:  MOVWF  00
4A96:  BCF    FF2.7
4A98:  MOVLB  F
4A9A:  MOVLW  55
4A9C:  MOVWF  FA7
4A9E:  MOVLW  AA
4AA0:  MOVWF  FA7
4AA2:  BSF    FA6.1
4AA4:  BTFSC  FA6.1
4AA6:  BRA    4AA4
4AA8:  BCF    FA6.2
4AAA:  MOVF   00,W
4AAC:  IORWF  FF2,F
4AAE:  MOVLW  14
4AB0:  MOVLB  1
4AB2:  MOVWF  x1C
4AB4:  MOVLB  0
4AB6:  CALL   0BD2
....................             write_eeprom(2,clave[2]);delay_ms(20);write_eeprom(3,clave[3]);delay_ms(20); 
4ABA:  MOVLW  02
4ABC:  MOVWF  FA9
4ABE:  MOVFF  46,FA8
4AC2:  BCF    FA6.6
4AC4:  BCF    FA6.7
4AC6:  BSF    FA6.2
4AC8:  MOVF   FF2,W
4ACA:  MOVWF  00
4ACC:  BCF    FF2.7
4ACE:  MOVLB  F
4AD0:  MOVLW  55
4AD2:  MOVWF  FA7
4AD4:  MOVLW  AA
4AD6:  MOVWF  FA7
4AD8:  BSF    FA6.1
4ADA:  BTFSC  FA6.1
4ADC:  BRA    4ADA
4ADE:  BCF    FA6.2
4AE0:  MOVF   00,W
4AE2:  IORWF  FF2,F
4AE4:  MOVLW  14
4AE6:  MOVLB  1
4AE8:  MOVWF  x1C
4AEA:  MOVLB  0
4AEC:  CALL   0BD2
4AF0:  MOVLW  03
4AF2:  MOVWF  FA9
4AF4:  MOVFF  47,FA8
4AF8:  BCF    FA6.6
4AFA:  BCF    FA6.7
4AFC:  BSF    FA6.2
4AFE:  MOVF   FF2,W
4B00:  MOVWF  00
4B02:  BCF    FF2.7
4B04:  MOVLB  F
4B06:  MOVLW  55
4B08:  MOVWF  FA7
4B0A:  MOVLW  AA
4B0C:  MOVWF  FA7
4B0E:  BSF    FA6.1
4B10:  BTFSC  FA6.1
4B12:  BRA    4B10
4B14:  BCF    FA6.2
4B16:  MOVF   00,W
4B18:  IORWF  FF2,F
4B1A:  MOVLW  14
4B1C:  MOVLB  1
4B1E:  MOVWF  x1C
4B20:  MOVLB  0
4B22:  CALL   0BD2
....................             delay_ms(500);Menu=1;paso=0;Flecha=2;Flecha2=2; 
4B26:  MOVLW  02
4B28:  MOVLB  1
4B2A:  MOVWF  x06
4B2C:  MOVLW  FA
4B2E:  MOVWF  x1C
4B30:  MOVLB  0
4B32:  CALL   0BD2
4B36:  MOVLB  1
4B38:  DECFSZ x06,F
4B3A:  BRA    4B2C
4B3C:  MOVLW  01
4B3E:  MOVWF  17
4B40:  CLRF   40
4B42:  MOVLW  02
4B44:  MOVWF  1B
4B46:  MOVWF  1D
4B48:  MOVLB  0
....................        } 
....................        
....................            if(unidad>11&&unidad<14) 
4B4A:  BTFSC  1A.7
4B4C:  BRA    4B7A
4B4E:  MOVF   1A,W
4B50:  SUBLW  0B
4B52:  BC    4B7A
4B54:  BTFSC  1A.7
4B56:  BRA    4B5E
4B58:  MOVF   1A,W
4B5A:  SUBLW  0D
4B5C:  BNC   4B7A
....................           { lcd_gotoxy(unidad-1,4);// Para mostrar cursor. 
4B5E:  MOVLW  01
4B60:  SUBWF  1A,W
4B62:  MOVLB  1
4B64:  MOVWF  x06
4B66:  MOVWF  x1C
4B68:  MOVLW  04
4B6A:  MOVWF  x1D
4B6C:  MOVLB  0
4B6E:  CALL   0CC8
....................             lcd_putc(t[1]); 
4B72:  MOVFF  42,11B
4B76:  CALL   0D3A
....................           } 
....................    }       
.................... //----------------Fin-Menu5.1--------------------------------------------------------------- 
....................  
.................... //----------------Menu6--------------------------------------------------------------- 
....................    if(Menu == 6) 
4B7A:  MOVF   17,W
4B7C:  SUBLW  06
4B7E:  BTFSS  FD8.2
4B80:  BRA    4D3E
....................    { 
....................    lcd_gotoxy(1,2); 
4B82:  MOVLW  01
4B84:  MOVLB  1
4B86:  MOVWF  x1C
4B88:  MOVLW  02
4B8A:  MOVWF  x1D
4B8C:  MOVLB  0
4B8E:  CALL   0CC8
....................    printf(lcd_putc,"     Media Movil    "); 
4B92:  MOVLW  EE
4B94:  MOVWF  FF6
4B96:  MOVLW  07
4B98:  MOVWF  FF7
4B9A:  CALL   11F6
....................    lcd_gotoxy(1,3); 
4B9E:  MOVLW  01
4BA0:  MOVLB  1
4BA2:  MOVWF  x1C
4BA4:  MOVLW  03
4BA6:  MOVWF  x1D
4BA8:  MOVLB  0
4BAA:  CALL   0CC8
....................    printf(lcd_putc,"       %02i   ",MediaMovil); 
4BAE:  MOVLW  04
4BB0:  MOVWF  FF6
4BB2:  MOVLW  08
4BB4:  MOVWF  FF7
4BB6:  MOVLW  07
4BB8:  MOVLB  1
4BBA:  MOVWF  x0E
4BBC:  MOVLB  0
4BBE:  CALL   1216
4BC2:  MOVFF  2D,106
4BC6:  MOVLW  01
4BC8:  MOVLB  1
4BCA:  MOVWF  x07
4BCC:  MOVLB  0
4BCE:  CALL   126A
4BD2:  MOVLW  20
4BD4:  MOVLB  1
4BD6:  MOVWF  x1B
4BD8:  MOVLB  0
4BDA:  CALL   0D3A
4BDE:  MOVLW  20
4BE0:  MOVLB  1
4BE2:  MOVWF  x1B
4BE4:  MOVLB  0
4BE6:  CALL   0D3A
4BEA:  MOVLW  20
4BEC:  MOVLB  1
4BEE:  MOVWF  x1B
4BF0:  MOVLB  0
4BF2:  CALL   0D3A
....................     
....................    if(MediaMovil>12) 
4BF6:  MOVF   2D,W
4BF8:  SUBLW  0C
4BFA:  BC    4C00
....................    {MediaMovil=12;} 
4BFC:  MOVLW  0C
4BFE:  MOVWF  2D
....................     
....................    if(MediaMovil<1) 
4C00:  MOVF   2D,F
4C02:  BNZ   4C08
....................    {MediaMovil=1;} 
4C04:  MOVLW  01
4C06:  MOVWF  2D
....................     
....................       if(UP || BYTE_IR[2]==0X18)//Si oprime hacia arriba 
4C08:  BSF    F96.2
4C0A:  BTFSC  F84.2
4C0C:  BRA    4C18
4C0E:  MOVLB  1
4C10:  MOVF   x03,W
4C12:  SUBLW  18
4C14:  BNZ   4C38
4C16:  MOVLB  0
....................       {   
....................          if(Flanco == 0) 
4C18:  BTFSC  3E.4
4C1A:  BRA    4C34
....................          { 
....................             MediaMovil+=1;Flanco = 1;delay_ms(30);BYTE_IR[2]=0; 
4C1C:  MOVLW  01
4C1E:  ADDWF  2D,F
4C20:  BSF    3E.4
4C22:  MOVLW  1E
4C24:  MOVLB  1
4C26:  MOVWF  x1C
4C28:  MOVLB  0
4C2A:  CALL   0BD2
4C2E:  MOVLB  1
4C30:  CLRF   x03
4C32:  MOVLB  0
....................          } 
....................       } 
....................       else 
4C34:  BRA    4C3C
4C36:  MOVLB  1
....................       { 
....................          Flanco = 0; 
4C38:  BCF    3E.4
4C3A:  MOVLB  0
....................       } 
....................              
....................       if(DOWN || BYTE_IR[2]==0X52)//Si oprime hacia abajo 
4C3C:  BSF    F96.1
4C3E:  BTFSC  F84.1
4C40:  BRA    4C4C
4C42:  MOVLB  1
4C44:  MOVF   x03,W
4C46:  SUBLW  52
4C48:  BNZ   4C6C
4C4A:  MOVLB  0
....................       {   
....................          if(Flanco2 == 0) 
4C4C:  BTFSC  3E.6
4C4E:  BRA    4C68
....................          { 
....................             MediaMovil-=1;Flanco2 = 1;delay_ms(30);BYTE_IR[2]=0; 
4C50:  MOVLW  01
4C52:  SUBWF  2D,F
4C54:  BSF    3E.6
4C56:  MOVLW  1E
4C58:  MOVLB  1
4C5A:  MOVWF  x1C
4C5C:  MOVLB  0
4C5E:  CALL   0BD2
4C62:  MOVLB  1
4C64:  CLRF   x03
4C66:  MOVLB  0
....................          } 
....................       } 
....................       else 
4C68:  BRA    4C70
4C6A:  MOVLB  1
....................       { 
....................          Flanco2 = 0; 
4C6C:  BCF    3E.6
4C6E:  MOVLB  0
....................       } 
....................     
....................       if(RIGHT || BYTE_IR[2]==0X5A)// Si oprime derecha 
4C70:  BSF    F92.5
4C72:  BTFSC  F80.5
4C74:  BRA    4C80
4C76:  MOVLB  1
4C78:  MOVF   x03,W
4C7A:  SUBLW  5A
4C7C:  BNZ   4CE8
4C7E:  MOVLB  0
....................       {   
....................          if(Flanco1 == 0) 
4C80:  BTFSC  3E.5
4C82:  BRA    4CE4
....................          { 
....................             Menu=1;paso=0;Flecha=2;Flecha2=2;unidad=11;delay_ms(500);printf(lcd_putc,"\f"); 
4C84:  MOVLW  01
4C86:  MOVWF  17
4C88:  CLRF   40
4C8A:  MOVLW  02
4C8C:  MOVWF  1B
4C8E:  MOVWF  1D
4C90:  MOVLW  0B
4C92:  MOVWF  1A
4C94:  MOVLW  02
4C96:  MOVLB  1
4C98:  MOVWF  x06
4C9A:  MOVLW  FA
4C9C:  MOVWF  x1C
4C9E:  MOVLB  0
4CA0:  CALL   0BD2
4CA4:  MOVLB  1
4CA6:  DECFSZ x06,F
4CA8:  BRA    4C9A
4CAA:  MOVLW  0C
4CAC:  MOVWF  x1B
4CAE:  MOVLB  0
4CB0:  CALL   0D3A
....................             write_eeprom(42,MediaMovil);//Guardar valor de Setpoint en eeprom 
4CB4:  MOVLW  2A
4CB6:  MOVWF  FA9
4CB8:  MOVFF  2D,FA8
4CBC:  BCF    FA6.6
4CBE:  BCF    FA6.7
4CC0:  BSF    FA6.2
4CC2:  MOVF   FF2,W
4CC4:  MOVWF  00
4CC6:  BCF    FF2.7
4CC8:  MOVLB  F
4CCA:  MOVLW  55
4CCC:  MOVWF  FA7
4CCE:  MOVLW  AA
4CD0:  MOVWF  FA7
4CD2:  BSF    FA6.1
4CD4:  BTFSC  FA6.1
4CD6:  BRA    4CD4
4CD8:  BCF    FA6.2
4CDA:  MOVF   00,W
4CDC:  IORWF  FF2,F
....................             BYTE_IR[2]=0; 
4CDE:  MOVLB  1
4CE0:  CLRF   x03
4CE2:  MOVLB  0
....................          } 
....................       } 
....................       else 
4CE4:  BRA    4CEC
4CE6:  MOVLB  1
....................       { 
....................          Flanco1 = 0; 
4CE8:  BCF    3E.5
4CEA:  MOVLB  0
....................       } 
....................              
....................       if(LEFT || BYTE_IR[2]==0X08)// Si oprime Izquierda 
4CEC:  BSF    F96.0
4CEE:  BTFSC  F84.0
4CF0:  BRA    4CFC
4CF2:  MOVLB  1
4CF4:  MOVF   x03,W
4CF6:  SUBLW  08
4CF8:  BNZ   4D3A
4CFA:  MOVLB  0
....................       { 
....................          if(Flanco3 == 0) 
4CFC:  BTFSC  3E.7
4CFE:  BRA    4D36
....................          { 
....................             Menu=1;paso=0;Flecha=2;Flecha2=2;unidad=11;delay_ms(500);printf(lcd_putc,"\f");BYTE_IR[2]=0; 
4D00:  MOVLW  01
4D02:  MOVWF  17
4D04:  CLRF   40
4D06:  MOVLW  02
4D08:  MOVWF  1B
4D0A:  MOVWF  1D
4D0C:  MOVLW  0B
4D0E:  MOVWF  1A
4D10:  MOVLW  02
4D12:  MOVLB  1
4D14:  MOVWF  x06
4D16:  MOVLW  FA
4D18:  MOVWF  x1C
4D1A:  MOVLB  0
4D1C:  CALL   0BD2
4D20:  MOVLB  1
4D22:  DECFSZ x06,F
4D24:  BRA    4D16
4D26:  MOVLW  0C
4D28:  MOVWF  x1B
4D2A:  MOVLB  0
4D2C:  CALL   0D3A
4D30:  MOVLB  1
4D32:  CLRF   x03
4D34:  MOVLB  0
....................          } 
....................       } 
....................       else 
4D36:  BRA    4D3E
4D38:  MOVLB  1
....................       { 
....................          Flanco3 = 0; 
4D3A:  BCF    3E.7
4D3C:  MOVLB  0
....................       } 
....................    } 
.................... //----------------Fin-Menu6--------------------------------------------------------------- 
....................  
.................... //----------------Menu7--------------------------------------------------------------- 
....................    if(Menu == 7)// Menu de configuración de punto zero. 
4D3E:  MOVF   17,W
4D40:  SUBLW  07
4D42:  BTFSS  FD8.2
4D44:  BRA    515C
....................    { 
....................     
....................    lcd_gotoxy(1,1); 
4D46:  MOVLW  01
4D48:  MOVLB  1
4D4A:  MOVWF  x1C
4D4C:  MOVWF  x1D
4D4E:  MOVLB  0
4D50:  CALL   0CC8
....................    printf(lcd_putc,"  Zero Point Config "); 
4D54:  MOVLW  14
4D56:  MOVWF  FF6
4D58:  MOVLW  08
4D5A:  MOVWF  FF7
4D5C:  CALL   11F6
....................    lcd_gotoxy(1,2); 
4D60:  MOVLW  01
4D62:  MOVLB  1
4D64:  MOVWF  x1C
4D66:  MOVLW  02
4D68:  MOVWF  x1D
4D6A:  MOVLB  0
4D6C:  CALL   0CC8
....................    printf(lcd_putc,"InFlow= %2.1f  (m/s) ",Flujo); 
4D70:  MOVLW  2A
4D72:  MOVWF  FF6
4D74:  MOVLW  08
4D76:  MOVWF  FF7
4D78:  MOVLW  08
4D7A:  MOVLB  1
4D7C:  MOVWF  x0E
4D7E:  MOVLB  0
4D80:  CALL   1216
4D84:  MOVLW  01
4D86:  MOVWF  FE9
4D88:  MOVFF  92,111
4D8C:  MOVFF  91,110
4D90:  MOVFF  90,10F
4D94:  MOVFF  8F,10E
4D98:  MOVLB  1
4D9A:  MOVWF  x12
4D9C:  MOVLB  0
4D9E:  CALL   16EC
4DA2:  MOVLW  37
4DA4:  MOVWF  FF6
4DA6:  MOVLW  08
4DA8:  MOVWF  FF7
4DAA:  MOVLW  08
4DAC:  MOVLB  1
4DAE:  MOVWF  x0E
4DB0:  MOVLB  0
4DB2:  CALL   1216
....................    lcd_gotoxy(1,3); 
4DB6:  MOVLW  01
4DB8:  MOVLB  1
4DBA:  MOVWF  x1C
4DBC:  MOVLW  03
4DBE:  MOVWF  x1D
4DC0:  MOVLB  0
4DC2:  CALL   0CC8
....................    printf(lcd_putc,"ZF=%2.0f ADC=%2.0f",zero_fabrica,sensores(0)); 
4DC6:  MOVLB  1
4DC8:  CLRF   x0A
4DCA:  MOVLB  0
4DCC:  CALL   1954
4DD0:  MOVFF  00,106
4DD4:  MOVFF  01,107
4DD8:  MOVFF  02,108
4DDC:  MOVFF  03,109
4DE0:  MOVLW  5A
4DE2:  MOVLB  1
4DE4:  MOVWF  x1B
4DE6:  MOVLB  0
4DE8:  CALL   0D3A
4DEC:  MOVLW  46
4DEE:  MOVLB  1
4DF0:  MOVWF  x1B
4DF2:  MOVLB  0
4DF4:  CALL   0D3A
4DF8:  MOVLW  3D
4DFA:  MOVLB  1
4DFC:  MOVWF  x1B
4DFE:  MOVLB  0
4E00:  CALL   0D3A
4E04:  MOVLW  01
4E06:  MOVWF  FE9
4E08:  MOVFF  53,111
4E0C:  MOVFF  52,110
4E10:  MOVFF  51,10F
4E14:  MOVFF  50,10E
4E18:  MOVLB  1
4E1A:  CLRF   x12
4E1C:  MOVLB  0
4E1E:  CALL   16EC
4E22:  MOVLW  48
4E24:  MOVWF  FF6
4E26:  MOVLW  08
4E28:  MOVWF  FF7
4E2A:  MOVLW  05
4E2C:  MOVLB  1
4E2E:  MOVWF  x0E
4E30:  MOVLB  0
4E32:  CALL   1216
4E36:  MOVLW  01
4E38:  MOVWF  FE9
4E3A:  MOVFF  109,111
4E3E:  MOVFF  108,110
4E42:  MOVFF  107,10F
4E46:  MOVFF  106,10E
4E4A:  MOVLB  1
4E4C:  CLRF   x12
4E4E:  MOVLB  0
4E50:  CALL   16EC
....................    lcd_gotoxy(1,4); 
4E54:  MOVLW  01
4E56:  MOVLB  1
4E58:  MOVWF  x1C
4E5A:  MOVLW  04
4E5C:  MOVWF  x1D
4E5E:  MOVLB  0
4E60:  CALL   0CC8
....................    printf(lcd_putc," Diferencia=%2.0f",Diferencia); 
4E64:  MOVLW  54
4E66:  MOVWF  FF6
4E68:  MOVLW  08
4E6A:  MOVWF  FF7
4E6C:  MOVLW  0C
4E6E:  MOVLB  1
4E70:  MOVWF  x0E
4E72:  MOVLB  0
4E74:  CALL   1216
4E78:  MOVLW  01
4E7A:  MOVWF  FE9
4E7C:  MOVFF  BE,111
4E80:  MOVFF  BD,110
4E84:  MOVFF  BC,10F
4E88:  MOVFF  BB,10E
4E8C:  MOVLB  1
4E8E:  CLRF   x12
4E90:  MOVLB  0
4E92:  CALL   16EC
....................      
....................       if(RIGHT || BYTE_IR[2]==0X5A)// Si oprime derecha 
4E96:  BSF    F92.5
4E98:  BTFSC  F80.5
4E9A:  BRA    4EA8
4E9C:  MOVLB  1
4E9E:  MOVF   x03,W
4EA0:  SUBLW  5A
4EA2:  BTFSS  FD8.2
4EA4:  BRA    5106
4EA6:  MOVLB  0
....................       {   
....................          if(Flanco1 == 0) 
4EA8:  BTFSC  3E.5
4EAA:  BRA    5102
....................          { 
....................             Menu=1;paso=0;Flecha=2;Flecha2=2;unidad=11;delay_ms(500);printf(lcd_putc,"\f"); 
4EAC:  MOVLW  01
4EAE:  MOVWF  17
4EB0:  CLRF   40
4EB2:  MOVLW  02
4EB4:  MOVWF  1B
4EB6:  MOVWF  1D
4EB8:  MOVLW  0B
4EBA:  MOVWF  1A
4EBC:  MOVLW  02
4EBE:  MOVLB  1
4EC0:  MOVWF  x06
4EC2:  MOVLW  FA
4EC4:  MOVWF  x1C
4EC6:  MOVLB  0
4EC8:  CALL   0BD2
4ECC:  MOVLB  1
4ECE:  DECFSZ x06,F
4ED0:  BRA    4EC2
4ED2:  MOVLW  0C
4ED4:  MOVWF  x1B
4ED6:  MOVLB  0
4ED8:  CALL   0D3A
....................             Diferencia=zero_fabrica-sensores(0); 
4EDC:  MOVLB  1
4EDE:  CLRF   x0A
4EE0:  MOVLB  0
4EE2:  CALL   1954
4EE6:  MOVFF  FEA,107
4EEA:  MOVFF  FE9,106
4EEE:  BSF    FD8.1
4EF0:  MOVFF  53,127
4EF4:  MOVFF  52,126
4EF8:  MOVFF  51,125
4EFC:  MOVFF  50,124
4F00:  MOVFF  03,12B
4F04:  MOVFF  02,12A
4F08:  MOVFF  01,129
4F0C:  MOVFF  00,128
4F10:  CALL   0F3A
4F14:  MOVFF  107,FEA
4F18:  MOVFF  106,FE9
4F1C:  MOVFF  03,BE
4F20:  MOVFF  02,BD
4F24:  MOVFF  01,BC
4F28:  MOVFF  00,BB
....................              
....................             if(Diferencia>=0) 
4F2C:  MOVLB  1
4F2E:  CLRF   x23
4F30:  CLRF   x22
4F32:  CLRF   x21
4F34:  CLRF   x20
4F36:  MOVFF  BE,127
4F3A:  MOVFF  BD,126
4F3E:  MOVFF  BC,125
4F42:  MOVFF  BB,124
4F46:  MOVLB  0
4F48:  CALL   189E
4F4C:  BC    4F50
4F4E:  BNZ   4F7E
....................             { 
....................                negativo=10;write_eeprom(50,negativo); 
4F50:  MOVLW  0A
4F52:  MOVWF  2E
4F54:  MOVLW  32
4F56:  MOVWF  FA9
4F58:  MOVFF  2E,FA8
4F5C:  BCF    FA6.6
4F5E:  BCF    FA6.7
4F60:  BSF    FA6.2
4F62:  MOVF   FF2,W
4F64:  MOVWF  00
4F66:  BCF    FF2.7
4F68:  MOVLB  F
4F6A:  MOVLW  55
4F6C:  MOVWF  FA7
4F6E:  MOVLW  AA
4F70:  MOVWF  FA7
4F72:  BSF    FA6.1
4F74:  BTFSC  FA6.1
4F76:  BRA    4F74
4F78:  BCF    FA6.2
4F7A:  MOVF   00,W
4F7C:  IORWF  FF2,F
....................             } 
....................             if(Diferencia<0) 
4F7E:  MOVFF  BE,123
4F82:  MOVFF  BD,122
4F86:  MOVFF  BC,121
4F8A:  MOVFF  BB,120
4F8E:  MOVLB  1
4F90:  CLRF   x27
4F92:  CLRF   x26
4F94:  CLRF   x25
4F96:  CLRF   x24
4F98:  MOVLB  0
4F9A:  CALL   189E
4F9E:  BNC   4FD0
....................             { 
....................                negativo=20;write_eeprom(50,negativo); 
4FA0:  MOVLW  14
4FA2:  MOVWF  2E
4FA4:  MOVLW  32
4FA6:  MOVWF  FA9
4FA8:  MOVFF  2E,FA8
4FAC:  BCF    FA6.6
4FAE:  BCF    FA6.7
4FB0:  BSF    FA6.2
4FB2:  MOVF   FF2,W
4FB4:  MOVWF  00
4FB6:  BCF    FF2.7
4FB8:  MOVLB  F
4FBA:  MOVLW  55
4FBC:  MOVWF  FA7
4FBE:  MOVLW  AA
4FC0:  MOVWF  FA7
4FC2:  BSF    FA6.1
4FC4:  BTFSC  FA6.1
4FC6:  BRA    4FC4
4FC8:  BCF    FA6.2
4FCA:  MOVF   00,W
4FCC:  IORWF  FF2,F
4FCE:  MOVLB  0
....................             } 
....................             Diferencia=abs(Diferencia); 
4FD0:  MOVFF  BB,00
4FD4:  MOVFF  BC,01
4FD8:  MOVFF  BD,02
4FDC:  MOVFF  BE,03
4FE0:  BCF    01.7
4FE2:  MOVFF  BE,BE
4FE6:  MOVFF  BD,BD
4FEA:  MOVFF  01,BC
4FEE:  MOVFF  BB,BB
....................             Temporal1=Diferencia; 
4FF2:  MOVFF  BE,B6
4FF6:  MOVFF  BD,B5
4FFA:  MOVFF  BC,B4
4FFE:  MOVFF  BB,B3
....................             Entero1=(int)Temporal1; 
5002:  MOVFF  B6,109
5006:  MOVFF  B5,108
500A:  MOVFF  B4,107
500E:  MOVFF  B3,106
5012:  CALL   1918
5016:  MOVFF  01,27
....................             Temporal1=Temporal1-Entero1; 
501A:  MOVLB  1
501C:  CLRF   x10
501E:  MOVFF  27,10F
5022:  MOVLB  0
5024:  CALL   0DA6
5028:  BSF    FD8.1
502A:  MOVFF  B6,127
502E:  MOVFF  B5,126
5032:  MOVFF  B4,125
5036:  MOVFF  B3,124
503A:  MOVFF  03,12B
503E:  MOVFF  02,12A
5042:  MOVFF  01,129
5046:  MOVFF  00,128
504A:  CALL   0F3A
504E:  MOVFF  03,B6
5052:  MOVFF  02,B5
5056:  MOVFF  01,B4
505A:  MOVFF  00,B3
....................             Temporal12=Temporal1*100.0; 
505E:  MOVFF  B6,123
5062:  MOVFF  B5,122
5066:  MOVFF  B4,121
506A:  MOVFF  B3,120
506E:  MOVLB  1
5070:  CLRF   x27
5072:  CLRF   x26
5074:  MOVLW  48
5076:  MOVWF  x25
5078:  MOVLW  85
507A:  MOVWF  x24
507C:  MOVLB  0
507E:  CALL   1532
5082:  MOVFF  03,BA
5086:  MOVFF  02,B9
508A:  MOVFF  01,B8
508E:  MOVFF  00,B7
....................             Decimal12=(int8)Temporal12; 
5092:  MOVFF  BA,109
5096:  MOVFF  B9,108
509A:  MOVFF  B8,107
509E:  MOVFF  B7,106
50A2:  CALL   1918
50A6:  MOVFF  01,28
....................             write_eeprom(60,Entero1);write_eeprom(61,Decimal12);//Guardar valor de Setpoint en eeprom 
50AA:  MOVLW  3C
50AC:  MOVWF  FA9
50AE:  MOVFF  27,FA8
50B2:  BCF    FA6.6
50B4:  BCF    FA6.7
50B6:  BSF    FA6.2
50B8:  MOVF   FF2,W
50BA:  MOVWF  00
50BC:  BCF    FF2.7
50BE:  MOVLB  F
50C0:  MOVLW  55
50C2:  MOVWF  FA7
50C4:  MOVLW  AA
50C6:  MOVWF  FA7
50C8:  BSF    FA6.1
50CA:  BTFSC  FA6.1
50CC:  BRA    50CA
50CE:  BCF    FA6.2
50D0:  MOVF   00,W
50D2:  IORWF  FF2,F
50D4:  MOVLW  3D
50D6:  MOVWF  FA9
50D8:  MOVFF  28,FA8
50DC:  BCF    FA6.6
50DE:  BCF    FA6.7
50E0:  BSF    FA6.2
50E2:  MOVF   FF2,W
50E4:  MOVWF  00
50E6:  BCF    FF2.7
50E8:  MOVLW  55
50EA:  MOVWF  FA7
50EC:  MOVLW  AA
50EE:  MOVWF  FA7
50F0:  BSF    FA6.1
50F2:  BTFSC  FA6.1
50F4:  BRA    50F2
50F6:  BCF    FA6.2
50F8:  MOVF   00,W
50FA:  IORWF  FF2,F
....................             BYTE_IR[2]=0; 
50FC:  MOVLB  1
50FE:  CLRF   x03
5100:  MOVLB  0
....................          } 
....................       } 
....................       else 
5102:  BRA    510A
5104:  MOVLB  1
....................       { 
....................          Flanco1 = 0; 
5106:  BCF    3E.5
5108:  MOVLB  0
....................       } 
....................              
....................       if(LEFT || BYTE_IR[2]==0X08)// Si oprime Izquierda 
510A:  BSF    F96.0
510C:  BTFSC  F84.0
510E:  BRA    511A
5110:  MOVLB  1
5112:  MOVF   x03,W
5114:  SUBLW  08
5116:  BNZ   5158
5118:  MOVLB  0
....................       { 
....................          if(Flanco3 == 0) 
511A:  BTFSC  3E.7
511C:  BRA    5154
....................          { 
....................             Menu=1;paso=0;Flecha=2;Flecha2=2;unidad=11;delay_ms(500);printf(lcd_putc,"\f");BYTE_IR[2]=0; 
511E:  MOVLW  01
5120:  MOVWF  17
5122:  CLRF   40
5124:  MOVLW  02
5126:  MOVWF  1B
5128:  MOVWF  1D
512A:  MOVLW  0B
512C:  MOVWF  1A
512E:  MOVLW  02
5130:  MOVLB  1
5132:  MOVWF  x06
5134:  MOVLW  FA
5136:  MOVWF  x1C
5138:  MOVLB  0
513A:  CALL   0BD2
513E:  MOVLB  1
5140:  DECFSZ x06,F
5142:  BRA    5134
5144:  MOVLW  0C
5146:  MOVWF  x1B
5148:  MOVLB  0
514A:  CALL   0D3A
514E:  MOVLB  1
5150:  CLRF   x03
5152:  MOVLB  0
....................          } 
....................       } 
....................       else 
5154:  BRA    515C
5156:  MOVLB  1
....................       { 
....................          Flanco3 = 0; 
5158:  BCF    3E.7
515A:  MOVLB  0
....................       } 
....................    } 
.................... //----------------Fin-Menu7--------------------------------------------------------------- 
....................  
.................... //----------------Menu8--------------------------------------------------------------- 
....................    if(Menu == 8)// Menu de Mantenimiento 
515C:  MOVF   17,W
515E:  SUBLW  08
5160:  BTFSS  FD8.2
5162:  BRA    56DA
....................    { 
....................    lcd_gotoxy(1,1); 
5164:  MOVLW  01
5166:  MOVLB  1
5168:  MOVWF  x1C
516A:  MOVWF  x1D
516C:  MOVLB  0
516E:  CALL   0CC8
....................    printf(lcd_putc," MANT.  V=%2.0f  ",sensores(0));//T= %2.0f",sensores(1));//T= %2.1f",TC); 
5172:  MOVLB  1
5174:  CLRF   x0A
5176:  MOVLB  0
5178:  CALL   1954
517C:  MOVFF  00,106
5180:  MOVFF  01,107
5184:  MOVFF  02,108
5188:  MOVFF  03,109
518C:  MOVLW  66
518E:  MOVWF  FF6
5190:  MOVLW  08
5192:  MOVWF  FF7
5194:  MOVLW  0A
5196:  MOVLB  1
5198:  MOVWF  x0E
519A:  MOVLB  0
519C:  CALL   1216
51A0:  MOVLW  01
51A2:  MOVWF  FE9
51A4:  MOVFF  109,111
51A8:  MOVFF  108,110
51AC:  MOVFF  107,10F
51B0:  MOVFF  106,10E
51B4:  MOVLB  1
51B6:  CLRF   x12
51B8:  MOVLB  0
51BA:  CALL   16EC
51BE:  MOVLW  20
51C0:  MOVLB  1
51C2:  MOVWF  x1B
51C4:  MOVLB  0
51C6:  CALL   0D3A
51CA:  MOVLW  20
51CC:  MOVLB  1
51CE:  MOVWF  x1B
51D0:  MOVLB  0
51D2:  CALL   0D3A
....................    lcd_gotoxy(1,2); 
51D6:  MOVLW  01
51D8:  MOVLB  1
51DA:  MOVWF  x1C
51DC:  MOVLW  02
51DE:  MOVWF  x1D
51E0:  MOVLB  0
51E2:  CALL   0CC8
....................    printf(lcd_putc,"Damp=%2.0f%%  T=%2.0f ",(100*((float)tmp/255)),sensores(1)); 
51E6:  MOVLB  1
51E8:  CLRF   x10
51EA:  MOVFF  2C,10F
51EE:  MOVLB  0
51F0:  CALL   0DA6
51F4:  MOVFF  00,106
51F8:  MOVFF  01,107
51FC:  MOVFF  02,108
5200:  MOVFF  03,109
5204:  MOVFF  03,127
5208:  MOVFF  02,126
520C:  MOVFF  01,125
5210:  MOVFF  00,124
5214:  MOVLB  1
5216:  CLRF   x2B
5218:  CLRF   x2A
521A:  MOVLW  7F
521C:  MOVWF  x29
521E:  MOVLW  86
5220:  MOVWF  x28
5222:  MOVLB  0
5224:  CALL   0DDC
5228:  MOVLB  1
522A:  CLRF   x23
522C:  CLRF   x22
522E:  MOVLW  48
5230:  MOVWF  x21
5232:  MOVLW  85
5234:  MOVWF  x20
5236:  MOVFF  03,127
523A:  MOVFF  02,126
523E:  MOVFF  01,125
5242:  MOVFF  00,124
5246:  MOVLB  0
5248:  CALL   1532
524C:  MOVFF  00,106
5250:  MOVFF  01,107
5254:  MOVFF  02,108
5258:  MOVFF  03,109
525C:  MOVLW  01
525E:  MOVLB  1
5260:  MOVWF  x0A
5262:  MOVLB  0
5264:  CALL   1954
5268:  MOVFF  00,10A
526C:  MOVFF  01,10B
5270:  MOVFF  02,10C
5274:  MOVFF  03,10D
5278:  MOVLW  78
527A:  MOVWF  FF6
527C:  MOVLW  08
527E:  MOVWF  FF7
5280:  MOVLW  05
5282:  MOVLB  1
5284:  MOVWF  x0E
5286:  MOVLB  0
5288:  CALL   1216
528C:  MOVLW  01
528E:  MOVWF  FE9
5290:  MOVFF  109,111
5294:  MOVFF  108,110
5298:  MOVFF  107,10F
529C:  MOVFF  106,10E
52A0:  MOVLB  1
52A2:  CLRF   x12
52A4:  MOVLB  0
52A6:  CALL   16EC
52AA:  MOVLW  25
52AC:  MOVLB  1
52AE:  MOVWF  x1B
52B0:  MOVLB  0
52B2:  CALL   0D3A
52B6:  MOVLW  84
52B8:  MOVWF  FF6
52BA:  MOVLW  08
52BC:  MOVWF  FF7
52BE:  MOVLW  04
52C0:  MOVLB  1
52C2:  MOVWF  x0E
52C4:  MOVLB  0
52C6:  CALL   1216
52CA:  MOVLW  01
52CC:  MOVWF  FE9
52CE:  MOVFF  10D,111
52D2:  MOVFF  10C,110
52D6:  MOVFF  10B,10F
52DA:  MOVFF  10A,10E
52DE:  MOVLB  1
52E0:  CLRF   x12
52E2:  MOVLB  0
52E4:  CALL   16EC
52E8:  MOVLW  20
52EA:  MOVLB  1
52EC:  MOVWF  x1B
52EE:  MOVLB  0
52F0:  CALL   0D3A
....................    lcd_gotoxy(1,3); 
52F4:  MOVLW  01
52F6:  MOVLB  1
52F8:  MOVWF  x1C
52FA:  MOVLW  03
52FC:  MOVWF  x1D
52FE:  MOVLB  0
5300:  CALL   0CC8
....................    printf(lcd_putc,"IF= %2.1f(m/s) Dam=%2.0f",Flujo,(100*(sensores(2)/1023))); 
5304:  MOVLW  02
5306:  MOVLB  1
5308:  MOVWF  x0A
530A:  MOVLB  0
530C:  CALL   1954
5310:  MOVFF  00,106
5314:  MOVFF  01,107
5318:  MOVFF  02,108
531C:  MOVFF  03,109
5320:  MOVFF  03,127
5324:  MOVFF  02,126
5328:  MOVFF  01,125
532C:  MOVFF  00,124
5330:  MOVLB  1
5332:  CLRF   x2B
5334:  MOVLW  C0
5336:  MOVWF  x2A
5338:  MOVLW  7F
533A:  MOVWF  x29
533C:  MOVLW  88
533E:  MOVWF  x28
5340:  MOVLB  0
5342:  CALL   0DDC
5346:  MOVLB  1
5348:  CLRF   x23
534A:  CLRF   x22
534C:  MOVLW  48
534E:  MOVWF  x21
5350:  MOVLW  85
5352:  MOVWF  x20
5354:  MOVFF  03,127
5358:  MOVFF  02,126
535C:  MOVFF  01,125
5360:  MOVFF  00,124
5364:  MOVLB  0
5366:  CALL   1532
536A:  MOVFF  00,106
536E:  MOVFF  01,107
5372:  MOVFF  02,108
5376:  MOVFF  03,109
537A:  MOVLW  90
537C:  MOVWF  FF6
537E:  MOVLW  08
5380:  MOVWF  FF7
5382:  MOVLW  04
5384:  MOVLB  1
5386:  MOVWF  x0E
5388:  MOVLB  0
538A:  CALL   1216
538E:  MOVLW  01
5390:  MOVWF  FE9
5392:  MOVFF  92,111
5396:  MOVFF  91,110
539A:  MOVFF  90,10F
539E:  MOVFF  8F,10E
53A2:  MOVLB  1
53A4:  MOVWF  x12
53A6:  MOVLB  0
53A8:  CALL   16EC
53AC:  MOVLW  99
53AE:  MOVWF  FF6
53B0:  MOVLW  08
53B2:  MOVWF  FF7
53B4:  MOVLW  0A
53B6:  MOVLB  1
53B8:  MOVWF  x0E
53BA:  MOVLB  0
53BC:  CALL   1216
53C0:  MOVLW  01
53C2:  MOVWF  FE9
53C4:  MOVFF  109,111
53C8:  MOVFF  108,110
53CC:  MOVFF  107,10F
53D0:  MOVFF  106,10E
53D4:  MOVLB  1
53D6:  CLRF   x12
53D8:  MOVLB  0
53DA:  CALL   16EC
....................    lcd_gotoxy(1,4); 
53DE:  MOVLW  01
53E0:  MOVLB  1
53E2:  MOVWF  x1C
53E4:  MOVLW  04
53E6:  MOVWF  x1D
53E8:  MOVLB  0
53EA:  CALL   0CC8
....................    printf(lcd_putc,"Ajuste1= %2.2f ",Ajuste1); 
53EE:  MOVLW  AA
53F0:  MOVWF  FF6
53F2:  MOVLW  08
53F4:  MOVWF  FF7
53F6:  MOVLW  09
53F8:  MOVLB  1
53FA:  MOVWF  x0E
53FC:  MOVLB  0
53FE:  CALL   1216
5402:  MOVLW  89
5404:  MOVWF  FE9
5406:  MOVFF  C2,111
540A:  MOVFF  C1,110
540E:  MOVFF  C0,10F
5412:  MOVFF  BF,10E
5416:  MOVLW  02
5418:  MOVLB  1
541A:  MOVWF  x12
541C:  MOVLB  0
541E:  CALL   16EC
5422:  MOVLW  20
5424:  MOVLB  1
5426:  MOVWF  x1B
5428:  MOVLB  0
542A:  CALL   0D3A
....................        
....................       if(UP || BYTE_IR[2]==0X18)//Si oprime hacia arriba 
542E:  BSF    F96.2
5430:  BTFSC  F84.2
5432:  BRA    543E
5434:  MOVLB  1
5436:  MOVF   x03,W
5438:  SUBLW  18
543A:  BNZ   54B6
543C:  MOVLB  0
....................       { 
....................          Ajuste1+=0.01;delay_ms(50); 
543E:  BCF    FD8.1
5440:  MOVFF  C2,127
5444:  MOVFF  C1,126
5448:  MOVFF  C0,125
544C:  MOVFF  BF,124
5450:  MOVLW  0A
5452:  MOVLB  1
5454:  MOVWF  x2B
5456:  MOVLW  D7
5458:  MOVWF  x2A
545A:  MOVLW  23
545C:  MOVWF  x29
545E:  MOVLW  78
5460:  MOVWF  x28
5462:  MOVLB  0
5464:  CALL   0F3A
5468:  MOVFF  03,C2
546C:  MOVFF  02,C1
5470:  MOVFF  01,C0
5474:  MOVFF  00,BF
5478:  MOVLW  32
547A:  MOVLB  1
547C:  MOVWF  x1C
547E:  MOVLB  0
5480:  CALL   0BD2
....................          if(Ajuste1>30.0) 
5484:  MOVLB  1
5486:  CLRF   x23
5488:  CLRF   x22
548A:  MOVLW  70
548C:  MOVWF  x21
548E:  MOVLW  83
5490:  MOVWF  x20
5492:  MOVFF  C2,127
5496:  MOVFF  C1,126
549A:  MOVFF  C0,125
549E:  MOVFF  BF,124
54A2:  MOVLB  0
54A4:  CALL   189E
54A8:  BNC   54B2
....................          {Ajuste1=0.0;} 
54AA:  CLRF   xC2
54AC:  CLRF   xC1
54AE:  CLRF   xC0
54B0:  CLRF   xBF
....................          BYTE_IR[2]=0; 
54B2:  MOVLB  1
54B4:  CLRF   x03
....................       } 
....................              
....................       if(DOWN || BYTE_IR[2]==0X52)//Si oprime hacia abajo 
54B6:  BSF    F96.1
54B8:  BTFSC  F84.1
54BA:  BRA    54C2
54BC:  MOVF   x03,W
54BE:  SUBLW  52
54C0:  BNZ   5534
....................       { 
....................          Ajuste1-=0.01;delay_ms(50); 
54C2:  BSF    FD8.1
54C4:  MOVFF  C2,127
54C8:  MOVFF  C1,126
54CC:  MOVFF  C0,125
54D0:  MOVFF  BF,124
54D4:  MOVLW  0A
54D6:  MOVWF  x2B
54D8:  MOVLW  D7
54DA:  MOVWF  x2A
54DC:  MOVLW  23
54DE:  MOVWF  x29
54E0:  MOVLW  78
54E2:  MOVWF  x28
54E4:  MOVLB  0
54E6:  CALL   0F3A
54EA:  MOVFF  03,C2
54EE:  MOVFF  02,C1
54F2:  MOVFF  01,C0
54F6:  MOVFF  00,BF
54FA:  MOVLW  32
54FC:  MOVLB  1
54FE:  MOVWF  x1C
5500:  MOVLB  0
5502:  CALL   0BD2
....................          if(Ajuste1<0.0) 
5506:  MOVFF  C2,123
550A:  MOVFF  C1,122
550E:  MOVFF  C0,121
5512:  MOVFF  BF,120
5516:  MOVLB  1
5518:  CLRF   x27
551A:  CLRF   x26
551C:  CLRF   x25
551E:  CLRF   x24
5520:  MOVLB  0
5522:  CALL   189E
5526:  BNC   5530
....................          {Ajuste1=0.0;} 
5528:  CLRF   xC2
552A:  CLRF   xC1
552C:  CLRF   xC0
552E:  CLRF   xBF
....................          BYTE_IR[2]=0; 
5530:  MOVLB  1
5532:  CLRF   x03
....................       } 
....................        
....................       if(RIGHT || BYTE_IR[2]==0X5A)// Si oprime derecha 
5534:  BSF    F92.5
5536:  BTFSC  F80.5
5538:  BRA    5542
553A:  MOVF   x03,W
553C:  SUBLW  5A
553E:  BTFSS  FD8.2
5540:  BRA    5690
....................       { 
....................          if(Flanco1 == 0) 
5542:  BTFSC  3E.5
5544:  BRA    568E
....................          { 
....................             Menu=1;paso=0;Flecha=2;Flecha2=2;unidad=11;delay_ms(30);printf(lcd_putc,"\f"); 
5546:  MOVLW  01
5548:  MOVWF  17
554A:  CLRF   40
554C:  MOVLW  02
554E:  MOVWF  1B
5550:  MOVWF  1D
5552:  MOVLW  0B
5554:  MOVWF  1A
5556:  MOVLW  1E
5558:  MOVWF  x1C
555A:  MOVLB  0
555C:  CALL   0BD2
5560:  MOVLW  0C
5562:  MOVLB  1
5564:  MOVWF  x1B
5566:  MOVLB  0
5568:  CALL   0D3A
....................             Temporal=Ajuste1; 
556C:  MOVFF  C2,AA
5570:  MOVFF  C1,A9
5574:  MOVFF  C0,A8
5578:  MOVFF  BF,A7
....................             Entero=(int)Ajuste1; 
557C:  MOVFF  C2,109
5580:  MOVFF  C1,108
5584:  MOVFF  C0,107
5588:  MOVFF  BF,106
558C:  CALL   1918
5590:  MOVFF  01,24
....................             Temporal=Temporal-Entero; 
5594:  MOVLB  1
5596:  CLRF   x10
5598:  MOVFF  24,10F
559C:  MOVLB  0
559E:  CALL   0DA6
55A2:  BSF    FD8.1
55A4:  MOVFF  AA,127
55A8:  MOVFF  A9,126
55AC:  MOVFF  A8,125
55B0:  MOVFF  A7,124
55B4:  MOVFF  03,12B
55B8:  MOVFF  02,12A
55BC:  MOVFF  01,129
55C0:  MOVFF  00,128
55C4:  CALL   0F3A
55C8:  MOVFF  03,AA
55CC:  MOVFF  02,A9
55D0:  MOVFF  01,A8
55D4:  MOVFF  00,A7
....................             Temporal2=Temporal*100.0; 
55D8:  MOVFF  AA,123
55DC:  MOVFF  A9,122
55E0:  MOVFF  A8,121
55E4:  MOVFF  A7,120
55E8:  MOVLB  1
55EA:  CLRF   x27
55EC:  CLRF   x26
55EE:  MOVLW  48
55F0:  MOVWF  x25
55F2:  MOVLW  85
55F4:  MOVWF  x24
55F6:  MOVLB  0
55F8:  CALL   1532
55FC:  MOVFF  03,AE
5600:  MOVFF  02,AD
5604:  MOVFF  01,AC
5608:  MOVFF  00,AB
....................             Decimal1=(int8)Temporal2; 
560C:  MOVFF  AE,109
5610:  MOVFF  AD,108
5614:  MOVFF  AC,107
5618:  MOVFF  AB,106
561C:  CALL   1918
5620:  MOVFF  01,25
....................             write_eeprom(25,Entero);write_eeprom(26,Decimal1); 
5624:  MOVLW  19
5626:  MOVWF  FA9
5628:  MOVFF  24,FA8
562C:  BCF    FA6.6
562E:  BCF    FA6.7
5630:  BSF    FA6.2
5632:  MOVF   FF2,W
5634:  MOVWF  00
5636:  BCF    FF2.7
5638:  MOVLB  F
563A:  MOVLW  55
563C:  MOVWF  FA7
563E:  MOVLW  AA
5640:  MOVWF  FA7
5642:  BSF    FA6.1
5644:  BTFSC  FA6.1
5646:  BRA    5644
5648:  BCF    FA6.2
564A:  MOVF   00,W
564C:  IORWF  FF2,F
564E:  MOVLW  1A
5650:  MOVWF  FA9
5652:  MOVFF  25,FA8
5656:  BCF    FA6.6
5658:  BCF    FA6.7
565A:  BSF    FA6.2
565C:  MOVF   FF2,W
565E:  MOVWF  00
5660:  BCF    FF2.7
5662:  MOVLW  55
5664:  MOVWF  FA7
5666:  MOVLW  AA
5668:  MOVWF  FA7
566A:  BSF    FA6.1
566C:  BTFSC  FA6.1
566E:  BRA    566C
5670:  BCF    FA6.2
5672:  MOVF   00,W
5674:  IORWF  FF2,F
....................             delay_ms(1000); 
5676:  MOVLW  04
5678:  MOVLB  1
567A:  MOVWF  x06
567C:  MOVLW  FA
567E:  MOVWF  x1C
5680:  MOVLB  0
5682:  CALL   0BD2
5686:  MOVLB  1
5688:  DECFSZ x06,F
568A:  BRA    567C
....................             BYTE_IR[2]=0; 
568C:  CLRF   x03
....................          } 
....................       } 
....................       else 
568E:  BRA    5692
....................       { 
....................          Flanco1 = 0; 
5690:  BCF    3E.5
....................       } 
....................              
....................       if(LEFT || BYTE_IR[2]==0X08)// Si oprime Izquierda 
5692:  BSF    F96.0
5694:  BTFSC  F84.0
5696:  BRA    569E
5698:  MOVF   x03,W
569A:  SUBLW  08
569C:  BNZ   56D6
....................       { 
....................          if(Flanco3 == 0) 
569E:  BTFSC  3E.7
56A0:  BRA    56D4
....................          { 
....................             Menu=1;paso=0;Flecha=2;Flecha2=2;unidad=11;delay_ms(500);printf(lcd_putc,"\f");BYTE_IR[2]=0; 
56A2:  MOVLW  01
56A4:  MOVWF  17
56A6:  CLRF   40
56A8:  MOVLW  02
56AA:  MOVWF  1B
56AC:  MOVWF  1D
56AE:  MOVLW  0B
56B0:  MOVWF  1A
56B2:  MOVLW  02
56B4:  MOVWF  x06
56B6:  MOVLW  FA
56B8:  MOVWF  x1C
56BA:  MOVLB  0
56BC:  CALL   0BD2
56C0:  MOVLB  1
56C2:  DECFSZ x06,F
56C4:  BRA    56B6
56C6:  MOVLW  0C
56C8:  MOVWF  x1B
56CA:  MOVLB  0
56CC:  CALL   0D3A
56D0:  MOVLB  1
56D2:  CLRF   x03
....................          } 
....................       } 
....................       else 
56D4:  BRA    56D8
....................       { 
....................          Flanco3 = 0; 
56D6:  BCF    3E.7
56D8:  MOVLB  0
....................       } 
....................    } 
.................... //----------------Fin-Menu8--------------------------------------------------------------- 
....................  
.................... //----------------Menu9--------------------------------------------------------------- 
....................    if(Menu == 9)// Menu de Modo 
56DA:  MOVF   17,W
56DC:  SUBLW  09
56DE:  BTFSS  FD8.2
56E0:  BRA    59D4
....................    { 
....................       lcd_gotoxy(1,1); 
56E2:  MOVLW  01
56E4:  MOVLB  1
56E6:  MOVWF  x1C
56E8:  MOVWF  x1D
56EA:  MOVLB  0
56EC:  CALL   0CC8
....................       printf(lcd_putc,"Velocidad Motor=%2.0f%% ",(100*((float)tmp/255))); 
56F0:  MOVLB  1
56F2:  CLRF   x10
56F4:  MOVFF  2C,10F
56F8:  MOVLB  0
56FA:  CALL   0DA6
56FE:  MOVFF  00,106
5702:  MOVFF  01,107
5706:  MOVFF  02,108
570A:  MOVFF  03,109
570E:  MOVFF  03,127
5712:  MOVFF  02,126
5716:  MOVFF  01,125
571A:  MOVFF  00,124
571E:  MOVLB  1
5720:  CLRF   x2B
5722:  CLRF   x2A
5724:  MOVLW  7F
5726:  MOVWF  x29
5728:  MOVLW  86
572A:  MOVWF  x28
572C:  MOVLB  0
572E:  CALL   0DDC
5732:  MOVLB  1
5734:  CLRF   x23
5736:  CLRF   x22
5738:  MOVLW  48
573A:  MOVWF  x21
573C:  MOVLW  85
573E:  MOVWF  x20
5740:  MOVFF  03,127
5744:  MOVFF  02,126
5748:  MOVFF  01,125
574C:  MOVFF  00,124
5750:  MOVLB  0
5752:  CALL   1532
5756:  MOVFF  00,106
575A:  MOVFF  01,107
575E:  MOVFF  02,108
5762:  MOVFF  03,109
5766:  MOVLW  BA
5768:  MOVWF  FF6
576A:  MOVLW  08
576C:  MOVWF  FF7
576E:  MOVLW  10
5770:  MOVLB  1
5772:  MOVWF  x0E
5774:  MOVLB  0
5776:  CALL   1216
577A:  MOVLW  01
577C:  MOVWF  FE9
577E:  MOVFF  109,111
5782:  MOVFF  108,110
5786:  MOVFF  107,10F
578A:  MOVFF  106,10E
578E:  MOVLB  1
5790:  CLRF   x12
5792:  MOVLB  0
5794:  CALL   16EC
5798:  MOVLW  25
579A:  MOVLB  1
579C:  MOVWF  x1B
579E:  MOVLB  0
57A0:  CALL   0D3A
57A4:  MOVLW  20
57A6:  MOVLB  1
57A8:  MOVWF  x1B
57AA:  MOVLB  0
57AC:  CALL   0D3A
....................     
....................       lcd_gotoxy(1,4); 
57B0:  MOVLW  01
57B2:  MOVLB  1
57B4:  MOVWF  x1C
57B6:  MOVLW  04
57B8:  MOVWF  x1D
57BA:  MOVLB  0
57BC:  CALL   0CC8
....................       printf(lcd_putc,"InFlow= %2.1f(m/s) ",Flujo); 
57C0:  MOVLW  D4
57C2:  MOVWF  FF6
57C4:  MOVLW  08
57C6:  MOVWF  FF7
57C8:  MOVLW  08
57CA:  MOVLB  1
57CC:  MOVWF  x0E
57CE:  MOVLB  0
57D0:  CALL   1216
57D4:  MOVLW  01
57D6:  MOVWF  FE9
57D8:  MOVFF  92,111
57DC:  MOVFF  91,110
57E0:  MOVFF  90,10F
57E4:  MOVFF  8F,10E
57E8:  MOVLB  1
57EA:  MOVWF  x12
57EC:  MOVLB  0
57EE:  CALL   16EC
57F2:  MOVLW  E1
57F4:  MOVWF  FF6
57F6:  MOVLW  08
57F8:  MOVWF  FF7
57FA:  MOVLW  06
57FC:  MOVLB  1
57FE:  MOVWF  x0E
5800:  MOVLB  0
5802:  CALL   1216
....................        
....................       ModoManual=0;ModoAuto=0;Automa=10;Manual=10; 
5806:  BCF    54.1
5808:  BCF    54.2
580A:  MOVLW  0A
580C:  MOVWF  2F
580E:  MOVWF  30
....................       lcd_gotoxy(1,2); 
5810:  MOVLW  01
5812:  MOVLB  1
5814:  MOVWF  x1C
5816:  MOVLW  02
5818:  MOVWF  x1D
581A:  MOVLB  0
581C:  CALL   0CC8
....................       printf(lcd_putc," Control Velocidad  "); 
5820:  MOVLW  E8
5822:  MOVWF  FF6
5824:  MOVLW  08
5826:  MOVWF  FF7
5828:  CALL   11F6
....................       lcd_gotoxy(1,3); 
582C:  MOVLW  01
582E:  MOVLB  1
5830:  MOVWF  x1C
5832:  MOVLW  03
5834:  MOVWF  x1D
5836:  MOVLB  0
5838:  CALL   0CC8
....................       printf(lcd_putc," !Ajuste Setpoint!  "); 
583C:  MOVLW  FE
583E:  MOVWF  FF6
5840:  MOVLW  08
5842:  MOVWF  FF7
5844:  CALL   11F6
....................        
....................       if(UP || BYTE_IR[2]==0X18) 
5848:  BSF    F96.2
584A:  BTFSC  F84.2
584C:  BRA    5858
584E:  MOVLB  1
5850:  MOVF   x03,W
5852:  SUBLW  18
5854:  BNZ   5870
5856:  MOVLB  0
....................       { 
....................          if(tmp<255) 
5858:  INCFSZ 2C,W
585A:  BRA    585E
585C:  BRA    586C
....................          { 
....................             tmp++; 
585E:  INCF   2C,F
....................             delay_ms(50); 
5860:  MOVLW  32
5862:  MOVLB  1
5864:  MOVWF  x1C
5866:  MOVLB  0
5868:  CALL   0BD2
....................          } 
....................          BYTE_IR[2]=0X00; 
586C:  MOVLB  1
586E:  CLRF   x03
....................       } 
....................              
....................       if(DOWN || BYTE_IR[2]==0X52) 
5870:  BSF    F96.1
5872:  BTFSC  F84.1
5874:  BRA    587C
5876:  MOVF   x03,W
5878:  SUBLW  52
587A:  BNZ   5892
....................       { 
....................          if(tmp>51) 
587C:  MOVF   2C,W
587E:  SUBLW  33
5880:  BC    5890
....................          { 
....................             tmp--; 
5882:  DECF   2C,F
....................             delay_ms(50); 
5884:  MOVLW  32
5886:  MOVWF  x1C
5888:  MOVLB  0
588A:  CALL   0BD2
588E:  MOVLB  1
....................          } 
....................          BYTE_IR[2]=0X00; 
5890:  CLRF   x03
....................       } 
....................        
....................       ValorSemi=tmp; 
5892:  MOVFF  2C,32
....................       ajustar_damper(tmp); 
5896:  MOVFF  2C,106
589A:  MOVLB  0
589C:  CALL   19AC
....................       if(RIGHT || BYTE_IR[2]==0X5A) 
58A0:  BSF    F92.5
58A2:  BTFSC  F80.5
58A4:  BRA    58B0
58A6:  MOVLB  1
58A8:  MOVF   x03,W
58AA:  SUBLW  5A
58AC:  BNZ   5994
58AE:  MOVLB  0
....................       { 
....................          write_eeprom(13,tmp);ModoSemi=0;Semi=20;Automa=10;Manual=10;delay_ms(500);printf(lcd_putc,"\f"); 
58B0:  MOVLW  0D
58B2:  MOVWF  FA9
58B4:  MOVFF  2C,FA8
58B8:  BCF    FA6.6
58BA:  BCF    FA6.7
58BC:  BSF    FA6.2
58BE:  MOVF   FF2,W
58C0:  MOVWF  00
58C2:  BCF    FF2.7
58C4:  MOVLB  F
58C6:  MOVLW  55
58C8:  MOVWF  FA7
58CA:  MOVLW  AA
58CC:  MOVWF  FA7
58CE:  BSF    FA6.1
58D0:  BTFSC  FA6.1
58D2:  BRA    58D0
58D4:  BCF    FA6.2
58D6:  MOVF   00,W
58D8:  IORWF  FF2,F
58DA:  BCF    54.3
58DC:  MOVLW  14
58DE:  MOVWF  31
58E0:  MOVLW  0A
58E2:  MOVWF  2F
58E4:  MOVWF  30
58E6:  MOVLW  02
58E8:  MOVLB  1
58EA:  MOVWF  x06
58EC:  MOVLW  FA
58EE:  MOVWF  x1C
58F0:  MOVLB  0
58F2:  CALL   0BD2
58F6:  MOVLB  1
58F8:  DECFSZ x06,F
58FA:  BRA    58EC
58FC:  MOVLW  0C
58FE:  MOVWF  x1B
5900:  MOVLB  0
5902:  CALL   0D3A
....................          write_eeprom(12,Semi);write_eeprom(11,Automa);write_eeprom(10,Manual); 
5906:  MOVLW  0C
5908:  MOVWF  FA9
590A:  MOVFF  31,FA8
590E:  BCF    FA6.6
5910:  BCF    FA6.7
5912:  BSF    FA6.2
5914:  MOVF   FF2,W
5916:  MOVWF  00
5918:  BCF    FF2.7
591A:  MOVLB  F
591C:  MOVLW  55
591E:  MOVWF  FA7
5920:  MOVLW  AA
5922:  MOVWF  FA7
5924:  BSF    FA6.1
5926:  BTFSC  FA6.1
5928:  BRA    5926
592A:  BCF    FA6.2
592C:  MOVF   00,W
592E:  IORWF  FF2,F
5930:  MOVLW  0B
5932:  MOVWF  FA9
5934:  MOVFF  2F,FA8
5938:  BCF    FA6.6
593A:  BCF    FA6.7
593C:  BSF    FA6.2
593E:  MOVF   FF2,W
5940:  MOVWF  00
5942:  BCF    FF2.7
5944:  MOVLW  55
5946:  MOVWF  FA7
5948:  MOVLW  AA
594A:  MOVWF  FA7
594C:  BSF    FA6.1
594E:  BTFSC  FA6.1
5950:  BRA    594E
5952:  BCF    FA6.2
5954:  MOVF   00,W
5956:  IORWF  FF2,F
5958:  MOVLW  0A
595A:  MOVWF  FA9
595C:  MOVFF  30,FA8
5960:  BCF    FA6.6
5962:  BCF    FA6.7
5964:  BSF    FA6.2
5966:  MOVF   FF2,W
5968:  MOVWF  00
596A:  BCF    FF2.7
596C:  MOVLW  55
596E:  MOVWF  FA7
5970:  MOVLW  AA
5972:  MOVWF  FA7
5974:  BSF    FA6.1
5976:  BTFSC  FA6.1
5978:  BRA    5976
597A:  BCF    FA6.2
597C:  MOVF   00,W
597E:  IORWF  FF2,F
....................          Menu=1;paso=0;Flecha=2;Flecha2=2;unidad=11;BYTE_IR[2]=0X00; 
5980:  MOVLW  01
5982:  MOVWF  17
5984:  CLRF   40
5986:  MOVLW  02
5988:  MOVWF  1B
598A:  MOVWF  1D
598C:  MOVLW  0B
598E:  MOVWF  1A
5990:  MOVLB  1
5992:  CLRF   x03
....................       }  
....................        
....................       if(LEFT || BYTE_IR[2]==0X08) 
5994:  BSF    F96.0
5996:  BTFSC  F84.0
5998:  BRA    59A0
599A:  MOVF   x03,W
599C:  SUBLW  08
599E:  BNZ   59D2
....................       { 
....................          Menu=1;paso=0;Flecha=2;Flecha2=2;unidad=11;delay_ms(500);printf(lcd_putc,"\f");BYTE_IR[2]=0X00; 
59A0:  MOVLW  01
59A2:  MOVWF  17
59A4:  CLRF   40
59A6:  MOVLW  02
59A8:  MOVWF  1B
59AA:  MOVWF  1D
59AC:  MOVLW  0B
59AE:  MOVWF  1A
59B0:  MOVLW  02
59B2:  MOVWF  x06
59B4:  MOVLW  FA
59B6:  MOVWF  x1C
59B8:  MOVLB  0
59BA:  CALL   0BD2
59BE:  MOVLB  1
59C0:  DECFSZ x06,F
59C2:  BRA    59B4
59C4:  MOVLW  0C
59C6:  MOVWF  x1B
59C8:  MOVLB  0
59CA:  CALL   0D3A
59CE:  MOVLB  1
59D0:  CLRF   x03
59D2:  MOVLB  0
....................       } 
....................    } 
.................... //----------------Fin-Menu9--------------------------------------------------------------- 
....................  
.................... //----------------Menu10--------------------------------------------------------------- 
....................    if(Menu == 10)// Menu de Tiempo de Purga 
59D4:  MOVF   17,W
59D6:  SUBLW  0A
59D8:  BTFSS  FD8.2
59DA:  BRA    5CAC
....................    { 
....................       lcd_gotoxy(1,1); 
59DC:  MOVLW  01
59DE:  MOVLB  1
59E0:  MOVWF  x1C
59E2:  MOVWF  x1D
59E4:  MOVLB  0
59E6:  CALL   0CC8
....................       printf(lcd_putc,"     Tiempo  de      "); 
59EA:  MOVLW  14
59EC:  MOVWF  FF6
59EE:  MOVLW  09
59F0:  MOVWF  FF7
59F2:  CALL   11F6
....................       lcd_gotoxy(1,2); 
59F6:  MOVLW  01
59F8:  MOVLB  1
59FA:  MOVWF  x1C
59FC:  MOVLW  02
59FE:  MOVWF  x1D
5A00:  MOVLB  0
5A02:  CALL   0CC8
....................       printf(lcd_putc,"       Purga         "); 
5A06:  MOVLW  2A
5A08:  MOVWF  FF6
5A0A:  MOVLW  09
5A0C:  MOVWF  FF7
5A0E:  CALL   11F6
....................       lcd_gotoxy(6,3); 
5A12:  MOVLW  06
5A14:  MOVLB  1
5A16:  MOVWF  x1C
5A18:  MOVLW  03
5A1A:  MOVWF  x1D
5A1C:  MOVLB  0
5A1E:  CALL   0CC8
....................       printf(lcd_putc,"%02u:%02u (M:S)  ",purga_minutos_pro,purga_segundos_pro);  
5A22:  MOVFF  23,106
5A26:  MOVLW  01
5A28:  MOVLB  1
5A2A:  MOVWF  x07
5A2C:  MOVLB  0
5A2E:  CALL   14B6
5A32:  MOVLW  3A
5A34:  MOVLB  1
5A36:  MOVWF  x1B
5A38:  MOVLB  0
5A3A:  CALL   0D3A
5A3E:  MOVFF  38,106
5A42:  MOVLW  01
5A44:  MOVLB  1
5A46:  MOVWF  x07
5A48:  MOVLB  0
5A4A:  CALL   14B6
5A4E:  MOVLW  49
5A50:  MOVWF  FF6
5A52:  MOVLW  09
5A54:  MOVWF  FF7
5A56:  MOVLW  08
5A58:  MOVLB  1
5A5A:  MOVWF  x0E
5A5C:  MOVLB  0
5A5E:  CALL   1216
....................        
....................       lcd_gotoxy(unidad2+6,4);// Para mostrar cursor. 
5A62:  MOVLW  06
5A64:  ADDWF  21,W
5A66:  MOVLB  1
5A68:  MOVWF  x06
5A6A:  MOVWF  x1C
5A6C:  MOVLW  04
5A6E:  MOVWF  x1D
5A70:  MOVLB  0
5A72:  CALL   0CC8
....................       lcd_putc(t[2]); 
5A76:  MOVFF  43,11B
5A7A:  CALL   0D3A
....................        
....................       if(unidad2<1) 
5A7E:  BTFSC  21.7
5A80:  BRA    5A88
5A82:  MOVF   21,W
5A84:  SUBLW  00
5A86:  BNC   5A8C
....................          unidad2=1; 
5A88:  MOVLW  01
5A8A:  MOVWF  21
....................       if(unidad2>3) 
5A8C:  BTFSC  21.7
5A8E:  BRA    5A9A
5A90:  MOVF   21,W
5A92:  SUBLW  03
5A94:  BC    5A9A
....................          unidad2=3;    
5A96:  MOVLW  03
5A98:  MOVWF  21
....................        
....................       if(UP || BYTE_IR[2]==0X18) 
5A9A:  BSF    F96.2
5A9C:  BTFSC  F84.2
5A9E:  BRA    5AAA
5AA0:  MOVLB  1
5AA2:  MOVF   x03,W
5AA4:  SUBLW  18
5AA6:  BNZ   5B08
5AA8:  MOVLB  0
....................       { 
....................          if(unidad2==1) 
5AAA:  DECFSZ 21,W
5AAC:  BRA    5AD6
....................          { 
....................             if(purga_minutos_pro>59) 
5AAE:  BTFSC  23.7
5AB0:  BRA    5ABC
5AB2:  MOVF   23,W
5AB4:  SUBLW  3B
5AB6:  BC    5ABC
....................             { 
....................                purga_minutos_pro=0; 
5AB8:  CLRF   23
....................             } 
....................             else 
5ABA:  BRA    5AD6
....................             { 
....................                purga_minutos_pro++;delay_ms(300); 
5ABC:  INCF   23,F
5ABE:  MOVLW  02
5AC0:  MOVLB  1
5AC2:  MOVWF  x06
5AC4:  MOVLW  96
5AC6:  MOVWF  x1C
5AC8:  MOVLB  0
5ACA:  CALL   0BD2
5ACE:  MOVLB  1
5AD0:  DECFSZ x06,F
5AD2:  BRA    5AC4
5AD4:  MOVLB  0
....................             } 
....................          } 
....................           
....................          if(unidad2==3) 
5AD6:  MOVF   21,W
5AD8:  SUBLW  03
5ADA:  BNZ   5B04
....................          { 
....................             if(purga_segundos_pro>59) 
5ADC:  BTFSC  38.7
5ADE:  BRA    5AEA
5AE0:  MOVF   38,W
5AE2:  SUBLW  3B
5AE4:  BC    5AEA
....................             { 
....................                purga_segundos_pro=0; 
5AE6:  CLRF   38
....................             } 
....................             else 
5AE8:  BRA    5B04
....................             { 
....................                purga_segundos_pro++;delay_ms(300); 
5AEA:  INCF   38,F
5AEC:  MOVLW  02
5AEE:  MOVLB  1
5AF0:  MOVWF  x06
5AF2:  MOVLW  96
5AF4:  MOVWF  x1C
5AF6:  MOVLB  0
5AF8:  CALL   0BD2
5AFC:  MOVLB  1
5AFE:  DECFSZ x06,F
5B00:  BRA    5AF2
5B02:  MOVLB  0
....................             } 
....................          } 
....................          BYTE_IR[2]=0X00; 
5B04:  MOVLB  1
5B06:  CLRF   x03
....................       } 
....................        
....................       if(DOWN || BYTE_IR[2]==0X52) 
5B08:  BSF    F96.1
5B0A:  BTFSC  F84.1
5B0C:  BRA    5B14
5B0E:  MOVF   x03,W
5B10:  SUBLW  52
5B12:  BNZ   5B64
....................       { 
....................          if(unidad2==1) 
5B14:  DECFSZ 21,W
5B16:  BRA    5B3A
....................          { 
....................             if(purga_minutos_pro<0) 
5B18:  BTFSC  23.7
5B1A:  BRA    5B1E
5B1C:  BRA    5B24
....................             { 
....................                purga_minutos_pro=59; 
5B1E:  MOVLW  3B
5B20:  MOVWF  23
....................             } 
....................             else 
5B22:  BRA    5B3A
....................             { 
....................                purga_minutos_pro--;delay_ms(300); 
5B24:  DECF   23,F
5B26:  MOVLW  02
5B28:  MOVWF  x06
5B2A:  MOVLW  96
5B2C:  MOVWF  x1C
5B2E:  MOVLB  0
5B30:  CALL   0BD2
5B34:  MOVLB  1
5B36:  DECFSZ x06,F
5B38:  BRA    5B2A
....................             } 
....................          } 
....................           
....................          if(unidad2==3) 
5B3A:  MOVF   21,W
5B3C:  SUBLW  03
5B3E:  BNZ   5B62
....................          { 
....................             if(purga_segundos_pro<0) 
5B40:  BTFSC  38.7
5B42:  BRA    5B46
5B44:  BRA    5B4C
....................             { 
....................                purga_segundos_pro=59; 
5B46:  MOVLW  3B
5B48:  MOVWF  38
....................             } 
....................             else 
5B4A:  BRA    5B62
....................             { 
....................                purga_segundos_pro--;delay_ms(300); 
5B4C:  DECF   38,F
5B4E:  MOVLW  02
5B50:  MOVWF  x06
5B52:  MOVLW  96
5B54:  MOVWF  x1C
5B56:  MOVLB  0
5B58:  CALL   0BD2
5B5C:  MOVLB  1
5B5E:  DECFSZ x06,F
5B60:  BRA    5B52
....................             } 
....................          } 
....................          BYTE_IR[2]=0X00; 
5B62:  CLRF   x03
....................       } 
....................        
....................       if(RIGHT || BYTE_IR[2]==0X5A) 
5B64:  BSF    F92.5
5B66:  BTFSC  F80.5
5B68:  BRA    5B70
5B6A:  MOVF   x03,W
5B6C:  SUBLW  5A
5B6E:  BNZ   5BAC
....................       { 
....................          if(unidad2==1) 
5B70:  DECFSZ 21,W
5B72:  BRA    5B7A
....................          { 
....................             unidad2=3; 
5B74:  MOVLW  03
5B76:  MOVWF  21
....................          } 
....................          else 
5B78:  BRA    5B8A
....................          { 
....................             if(unidad2==3) 
5B7A:  MOVF   21,W
5B7C:  SUBLW  03
5B7E:  BNZ   5B86
....................             { 
....................                unidad2=1; 
5B80:  MOVLW  01
5B82:  MOVWF  21
....................             } 
....................             else 
5B84:  BRA    5B8A
....................             { 
....................                unidad2=3; 
5B86:  MOVLW  03
5B88:  MOVWF  21
....................             } 
....................          } 
....................          delay_ms(500); 
5B8A:  MOVLW  02
5B8C:  MOVWF  x06
5B8E:  MOVLW  FA
5B90:  MOVWF  x1C
5B92:  MOVLB  0
5B94:  CALL   0BD2
5B98:  MOVLB  1
5B9A:  DECFSZ x06,F
5B9C:  BRA    5B8E
....................          printf(lcd_putc,"\f"); 
5B9E:  MOVLW  0C
5BA0:  MOVWF  x1B
5BA2:  MOVLB  0
5BA4:  CALL   0D3A
....................          BYTE_IR[2]=0X00; 
5BA8:  MOVLB  1
5BAA:  CLRF   x03
....................       } 
....................        
....................       if(LEFT || BYTE_IR[2]==0X08) 
5BAC:  BSF    F96.0
5BAE:  BTFSC  F84.0
5BB0:  BRA    5BB8
5BB2:  MOVF   x03,W
5BB4:  SUBLW  08
5BB6:  BNZ   5CAA
....................       { 
....................          delay_ms(200); 
5BB8:  MOVLW  C8
5BBA:  MOVWF  x1C
5BBC:  MOVLB  0
5BBE:  CALL   0BD2
....................          printf(lcd_putc,"\f"); 
5BC2:  MOVLW  0C
5BC4:  MOVLB  1
5BC6:  MOVWF  x1B
5BC8:  MOVLB  0
5BCA:  CALL   0D3A
....................          lcd_gotoxy(1,2); 
5BCE:  MOVLW  01
5BD0:  MOVLB  1
5BD2:  MOVWF  x1C
5BD4:  MOVLW  02
5BD6:  MOVWF  x1D
5BD8:  MOVLB  0
5BDA:  CALL   0CC8
....................          printf(lcd_putc,"Tiempo Almacenado"); 
5BDE:  MOVLW  52
5BE0:  MOVWF  FF6
5BE2:  MOVLW  09
5BE4:  MOVWF  FF7
5BE6:  CALL   11F6
....................          lcd_gotoxy(1,3); 
5BEA:  MOVLW  01
5BEC:  MOVLB  1
5BEE:  MOVWF  x1C
5BF0:  MOVLW  03
5BF2:  MOVWF  x1D
5BF4:  MOVLB  0
5BF6:  CALL   0CC8
....................          printf(lcd_putc,"  Correctamente  "); 
5BFA:  MOVLW  64
5BFC:  MOVWF  FF6
5BFE:  MOVLW  09
5C00:  MOVWF  FF7
5C02:  CALL   11F6
....................          write_eeprom(20,purga_minutos_pro); 
5C06:  MOVLW  14
5C08:  MOVWF  FA9
5C0A:  MOVFF  23,FA8
5C0E:  BCF    FA6.6
5C10:  BCF    FA6.7
5C12:  BSF    FA6.2
5C14:  MOVF   FF2,W
5C16:  MOVWF  00
5C18:  BCF    FF2.7
5C1A:  MOVLB  F
5C1C:  MOVLW  55
5C1E:  MOVWF  FA7
5C20:  MOVLW  AA
5C22:  MOVWF  FA7
5C24:  BSF    FA6.1
5C26:  BTFSC  FA6.1
5C28:  BRA    5C26
5C2A:  BCF    FA6.2
5C2C:  MOVF   00,W
5C2E:  IORWF  FF2,F
....................          delay_ms(20); 
5C30:  MOVLW  14
5C32:  MOVLB  1
5C34:  MOVWF  x1C
5C36:  MOVLB  0
5C38:  CALL   0BD2
....................          write_eeprom(21,purga_segundos_pro); 
5C3C:  MOVLW  15
5C3E:  MOVWF  FA9
5C40:  MOVFF  38,FA8
5C44:  BCF    FA6.6
5C46:  BCF    FA6.7
5C48:  BSF    FA6.2
5C4A:  MOVF   FF2,W
5C4C:  MOVWF  00
5C4E:  BCF    FF2.7
5C50:  MOVLB  F
5C52:  MOVLW  55
5C54:  MOVWF  FA7
5C56:  MOVLW  AA
5C58:  MOVWF  FA7
5C5A:  BSF    FA6.1
5C5C:  BTFSC  FA6.1
5C5E:  BRA    5C5C
5C60:  BCF    FA6.2
5C62:  MOVF   00,W
5C64:  IORWF  FF2,F
....................          purga_minutos=purga_minutos_pro;purga_segundos=purga_segundos_pro; 
5C66:  MOVFF  23,22
5C6A:  MOVFF  38,37
....................          delay_ms(700); 
5C6E:  MOVLW  04
5C70:  MOVLB  1
5C72:  MOVWF  x06
5C74:  MOVLW  AF
5C76:  MOVWF  x1C
5C78:  MOVLB  0
5C7A:  CALL   0BD2
5C7E:  MOVLB  1
5C80:  DECFSZ x06,F
5C82:  BRA    5C74
....................          delay_ms(30);Menu=1; paso=0;Flecha=2;Flecha2=2;printf(lcd_putc,"\f"); 
5C84:  MOVLW  1E
5C86:  MOVWF  x1C
5C88:  MOVLB  0
5C8A:  CALL   0BD2
5C8E:  MOVLW  01
5C90:  MOVWF  17
5C92:  CLRF   40
5C94:  MOVLW  02
5C96:  MOVWF  1B
5C98:  MOVWF  1D
5C9A:  MOVLW  0C
5C9C:  MOVLB  1
5C9E:  MOVWF  x1B
5CA0:  MOVLB  0
5CA2:  CALL   0D3A
....................          BYTE_IR[2]=0X00; 
5CA6:  MOVLB  1
5CA8:  CLRF   x03
5CAA:  MOVLB  0
....................       }   
....................         
....................    } 
.................... //----------------Fin-Menu10--------------------------------------------------------------- 
....................  
.................... //----------------Menu11--------------------------------------------------------------- 
....................    if(Menu == 11)// Menu de Tiempo de Post-Purga 
5CAC:  MOVF   17,W
5CAE:  SUBLW  0B
5CB0:  BTFSS  FD8.2
5CB2:  BRA    5F7E
....................    { 
....................       lcd_gotoxy(1,1); 
5CB4:  MOVLW  01
5CB6:  MOVLB  1
5CB8:  MOVWF  x1C
5CBA:  MOVWF  x1D
5CBC:  MOVLB  0
5CBE:  CALL   0CC8
....................       printf(lcd_putc,"     Tiempo  de      "); 
5CC2:  MOVLW  76
5CC4:  MOVWF  FF6
5CC6:  MOVLW  09
5CC8:  MOVWF  FF7
5CCA:  CALL   11F6
....................       lcd_gotoxy(1,2); 
5CCE:  MOVLW  01
5CD0:  MOVLB  1
5CD2:  MOVWF  x1C
5CD4:  MOVLW  02
5CD6:  MOVWF  x1D
5CD8:  MOVLB  0
5CDA:  CALL   0CC8
....................       printf(lcd_putc,"     Post-Purga      "); 
5CDE:  MOVLW  8C
5CE0:  MOVWF  FF6
5CE2:  MOVLW  09
5CE4:  MOVWF  FF7
5CE6:  CALL   11F6
....................       lcd_gotoxy(6,3); 
5CEA:  MOVLW  06
5CEC:  MOVLB  1
5CEE:  MOVWF  x1C
5CF0:  MOVLW  03
5CF2:  MOVWF  x1D
5CF4:  MOVLB  0
5CF6:  CALL   0CC8
....................       printf(lcd_putc,"%02u:%02u (M:S)  ",ppurga_minutos_pro,ppurga_segundos_pro);  
5CFA:  MOVFF  3C,106
5CFE:  MOVLW  01
5D00:  MOVLB  1
5D02:  MOVWF  x07
5D04:  MOVLB  0
5D06:  CALL   14B6
5D0A:  MOVLW  3A
5D0C:  MOVLB  1
5D0E:  MOVWF  x1B
5D10:  MOVLB  0
5D12:  CALL   0D3A
5D16:  MOVFF  3A,106
5D1A:  MOVLW  01
5D1C:  MOVLB  1
5D1E:  MOVWF  x07
5D20:  MOVLB  0
5D22:  CALL   14B6
5D26:  MOVLW  AB
5D28:  MOVWF  FF6
5D2A:  MOVLW  09
5D2C:  MOVWF  FF7
5D2E:  MOVLW  08
5D30:  MOVLB  1
5D32:  MOVWF  x0E
5D34:  MOVLB  0
5D36:  CALL   1216
....................        
....................       lcd_gotoxy(unidad2+6,4);// Para mostrar cursor. 
5D3A:  MOVLW  06
5D3C:  ADDWF  21,W
5D3E:  MOVLB  1
5D40:  MOVWF  x06
5D42:  MOVWF  x1C
5D44:  MOVLW  04
5D46:  MOVWF  x1D
5D48:  MOVLB  0
5D4A:  CALL   0CC8
....................       lcd_putc(t[2]); 
5D4E:  MOVFF  43,11B
5D52:  CALL   0D3A
....................       if(unidad2<1) 
5D56:  BTFSC  21.7
5D58:  BRA    5D60
5D5A:  MOVF   21,W
5D5C:  SUBLW  00
5D5E:  BNC   5D64
....................          unidad2=1; 
5D60:  MOVLW  01
5D62:  MOVWF  21
....................       if(unidad2>3) 
5D64:  BTFSC  21.7
5D66:  BRA    5D72
5D68:  MOVF   21,W
5D6A:  SUBLW  03
5D6C:  BC    5D72
....................          unidad2=3;    
5D6E:  MOVLW  03
5D70:  MOVWF  21
....................        
....................       if(UP || BYTE_IR[2]==0X18) 
5D72:  BSF    F96.2
5D74:  BTFSC  F84.2
5D76:  BRA    5D82
5D78:  MOVLB  1
5D7A:  MOVF   x03,W
5D7C:  SUBLW  18
5D7E:  BNZ   5DE0
5D80:  MOVLB  0
....................       { 
....................          if(unidad2==1) 
5D82:  DECFSZ 21,W
5D84:  BRA    5DAE
....................          { 
....................             if(ppurga_minutos_pro>59) 
5D86:  BTFSC  3C.7
5D88:  BRA    5D94
5D8A:  MOVF   3C,W
5D8C:  SUBLW  3B
5D8E:  BC    5D94
....................             { 
....................                ppurga_minutos_pro=0; 
5D90:  CLRF   3C
....................             } 
....................             else 
5D92:  BRA    5DAE
....................             { 
....................                ppurga_minutos_pro++;delay_ms(300); 
5D94:  INCF   3C,F
5D96:  MOVLW  02
5D98:  MOVLB  1
5D9A:  MOVWF  x06
5D9C:  MOVLW  96
5D9E:  MOVWF  x1C
5DA0:  MOVLB  0
5DA2:  CALL   0BD2
5DA6:  MOVLB  1
5DA8:  DECFSZ x06,F
5DAA:  BRA    5D9C
5DAC:  MOVLB  0
....................             } 
....................          } 
....................           
....................          if(unidad2==3) 
5DAE:  MOVF   21,W
5DB0:  SUBLW  03
5DB2:  BNZ   5DDC
....................          { 
....................             if(ppurga_segundos_pro>59) 
5DB4:  BTFSC  3A.7
5DB6:  BRA    5DC2
5DB8:  MOVF   3A,W
5DBA:  SUBLW  3B
5DBC:  BC    5DC2
....................             { 
....................                ppurga_segundos_pro=0; 
5DBE:  CLRF   3A
....................             } 
....................             else 
5DC0:  BRA    5DDC
....................             { 
....................                ppurga_segundos_pro++;delay_ms(300); 
5DC2:  INCF   3A,F
5DC4:  MOVLW  02
5DC6:  MOVLB  1
5DC8:  MOVWF  x06
5DCA:  MOVLW  96
5DCC:  MOVWF  x1C
5DCE:  MOVLB  0
5DD0:  CALL   0BD2
5DD4:  MOVLB  1
5DD6:  DECFSZ x06,F
5DD8:  BRA    5DCA
5DDA:  MOVLB  0
....................             } 
....................          } 
....................          BYTE_IR[2]=0X00; 
5DDC:  MOVLB  1
5DDE:  CLRF   x03
....................       } 
....................        
....................       if(DOWN || BYTE_IR[2]==0X52) 
5DE0:  BSF    F96.1
5DE2:  BTFSC  F84.1
5DE4:  BRA    5DEC
5DE6:  MOVF   x03,W
5DE8:  SUBLW  52
5DEA:  BNZ   5E3C
....................       { 
....................          if(unidad2==1) 
5DEC:  DECFSZ 21,W
5DEE:  BRA    5E12
....................          { 
....................             if(ppurga_minutos_pro<0) 
5DF0:  BTFSC  3C.7
5DF2:  BRA    5DF6
5DF4:  BRA    5DFC
....................             { 
....................                ppurga_minutos_pro=59; 
5DF6:  MOVLW  3B
5DF8:  MOVWF  3C
....................             } 
....................             else 
5DFA:  BRA    5E12
....................             { 
....................                ppurga_minutos_pro--;delay_ms(300); 
5DFC:  DECF   3C,F
5DFE:  MOVLW  02
5E00:  MOVWF  x06
5E02:  MOVLW  96
5E04:  MOVWF  x1C
5E06:  MOVLB  0
5E08:  CALL   0BD2
5E0C:  MOVLB  1
5E0E:  DECFSZ x06,F
5E10:  BRA    5E02
....................             } 
....................          } 
....................           
....................          if(unidad2==3) 
5E12:  MOVF   21,W
5E14:  SUBLW  03
5E16:  BNZ   5E3A
....................          { 
....................             if(ppurga_segundos_pro<0) 
5E18:  BTFSC  3A.7
5E1A:  BRA    5E1E
5E1C:  BRA    5E24
....................             { 
....................                ppurga_segundos_pro=59; 
5E1E:  MOVLW  3B
5E20:  MOVWF  3A
....................             } 
....................             else 
5E22:  BRA    5E3A
....................             { 
....................                ppurga_segundos_pro--;delay_ms(300); 
5E24:  DECF   3A,F
5E26:  MOVLW  02
5E28:  MOVWF  x06
5E2A:  MOVLW  96
5E2C:  MOVWF  x1C
5E2E:  MOVLB  0
5E30:  CALL   0BD2
5E34:  MOVLB  1
5E36:  DECFSZ x06,F
5E38:  BRA    5E2A
....................             } 
....................          } 
....................          BYTE_IR[2]=0X00; 
5E3A:  CLRF   x03
....................       } 
....................        
....................       if(RIGHT || BYTE_IR[2]==0X5A) 
5E3C:  BSF    F92.5
5E3E:  BTFSC  F80.5
5E40:  BRA    5E48
5E42:  MOVF   x03,W
5E44:  SUBLW  5A
5E46:  BNZ   5E7E
....................       { 
....................          if(unidad2==1) 
5E48:  DECFSZ 21,W
5E4A:  BRA    5E52
....................          { 
....................             unidad2=3; 
5E4C:  MOVLW  03
5E4E:  MOVWF  21
....................          } 
....................          else 
5E50:  BRA    5E5C
....................          { 
....................             if(unidad2==3) 
5E52:  MOVF   21,W
5E54:  SUBLW  03
5E56:  BNZ   5E5C
....................             { 
....................                unidad2=1; 
5E58:  MOVLW  01
5E5A:  MOVWF  21
....................             } 
....................          } 
....................          delay_ms(500); 
5E5C:  MOVLW  02
5E5E:  MOVWF  x06
5E60:  MOVLW  FA
5E62:  MOVWF  x1C
5E64:  MOVLB  0
5E66:  CALL   0BD2
5E6A:  MOVLB  1
5E6C:  DECFSZ x06,F
5E6E:  BRA    5E60
....................          printf(lcd_putc,"\f"); 
5E70:  MOVLW  0C
5E72:  MOVWF  x1B
5E74:  MOVLB  0
5E76:  CALL   0D3A
....................          BYTE_IR[2]=0X00; 
5E7A:  MOVLB  1
5E7C:  CLRF   x03
....................       } 
....................        
....................       if(LEFT || BYTE_IR[2]==0X08) 
5E7E:  BSF    F96.0
5E80:  BTFSC  F84.0
5E82:  BRA    5E8A
5E84:  MOVF   x03,W
5E86:  SUBLW  08
5E88:  BNZ   5F7C
....................       { 
....................          delay_ms(200); 
5E8A:  MOVLW  C8
5E8C:  MOVWF  x1C
5E8E:  MOVLB  0
5E90:  CALL   0BD2
....................          printf(lcd_putc,"\f"); 
5E94:  MOVLW  0C
5E96:  MOVLB  1
5E98:  MOVWF  x1B
5E9A:  MOVLB  0
5E9C:  CALL   0D3A
....................          lcd_gotoxy(1,2); 
5EA0:  MOVLW  01
5EA2:  MOVLB  1
5EA4:  MOVWF  x1C
5EA6:  MOVLW  02
5EA8:  MOVWF  x1D
5EAA:  MOVLB  0
5EAC:  CALL   0CC8
....................          printf(lcd_putc,"Tiempo Almacenado"); 
5EB0:  MOVLW  B4
5EB2:  MOVWF  FF6
5EB4:  MOVLW  09
5EB6:  MOVWF  FF7
5EB8:  CALL   11F6
....................          lcd_gotoxy(1,3); 
5EBC:  MOVLW  01
5EBE:  MOVLB  1
5EC0:  MOVWF  x1C
5EC2:  MOVLW  03
5EC4:  MOVWF  x1D
5EC6:  MOVLB  0
5EC8:  CALL   0CC8
....................          printf(lcd_putc,"  Correctamente  "); 
5ECC:  MOVLW  C6
5ECE:  MOVWF  FF6
5ED0:  MOVLW  09
5ED2:  MOVWF  FF7
5ED4:  CALL   11F6
....................          write_eeprom(22,ppurga_minutos_pro); 
5ED8:  MOVLW  16
5EDA:  MOVWF  FA9
5EDC:  MOVFF  3C,FA8
5EE0:  BCF    FA6.6
5EE2:  BCF    FA6.7
5EE4:  BSF    FA6.2
5EE6:  MOVF   FF2,W
5EE8:  MOVWF  00
5EEA:  BCF    FF2.7
5EEC:  MOVLB  F
5EEE:  MOVLW  55
5EF0:  MOVWF  FA7
5EF2:  MOVLW  AA
5EF4:  MOVWF  FA7
5EF6:  BSF    FA6.1
5EF8:  BTFSC  FA6.1
5EFA:  BRA    5EF8
5EFC:  BCF    FA6.2
5EFE:  MOVF   00,W
5F00:  IORWF  FF2,F
....................          delay_ms(20); 
5F02:  MOVLW  14
5F04:  MOVLB  1
5F06:  MOVWF  x1C
5F08:  MOVLB  0
5F0A:  CALL   0BD2
....................          write_eeprom(23,ppurga_segundos_pro); 
5F0E:  MOVLW  17
5F10:  MOVWF  FA9
5F12:  MOVFF  3A,FA8
5F16:  BCF    FA6.6
5F18:  BCF    FA6.7
5F1A:  BSF    FA6.2
5F1C:  MOVF   FF2,W
5F1E:  MOVWF  00
5F20:  BCF    FF2.7
5F22:  MOVLB  F
5F24:  MOVLW  55
5F26:  MOVWF  FA7
5F28:  MOVLW  AA
5F2A:  MOVWF  FA7
5F2C:  BSF    FA6.1
5F2E:  BTFSC  FA6.1
5F30:  BRA    5F2E
5F32:  BCF    FA6.2
5F34:  MOVF   00,W
5F36:  IORWF  FF2,F
....................          ppurga_minutos=ppurga_minutos_pro;ppurga_segundos=ppurga_segundos_pro; 
5F38:  MOVFF  3C,3B
5F3C:  MOVFF  3A,39
....................          delay_ms(700); 
5F40:  MOVLW  04
5F42:  MOVLB  1
5F44:  MOVWF  x06
5F46:  MOVLW  AF
5F48:  MOVWF  x1C
5F4A:  MOVLB  0
5F4C:  CALL   0BD2
5F50:  MOVLB  1
5F52:  DECFSZ x06,F
5F54:  BRA    5F46
....................          delay_ms(30);Menu=1; paso=0;Flecha=2;Flecha2=2;printf(lcd_putc,"\f"); 
5F56:  MOVLW  1E
5F58:  MOVWF  x1C
5F5A:  MOVLB  0
5F5C:  CALL   0BD2
5F60:  MOVLW  01
5F62:  MOVWF  17
5F64:  CLRF   40
5F66:  MOVLW  02
5F68:  MOVWF  1B
5F6A:  MOVWF  1D
5F6C:  MOVLW  0C
5F6E:  MOVLB  1
5F70:  MOVWF  x1B
5F72:  MOVLB  0
5F74:  CALL   0D3A
....................          BYTE_IR[2]=0X00; 
5F78:  MOVLB  1
5F7A:  CLRF   x03
5F7C:  MOVLB  0
....................       }   
....................         
....................    } 
.................... //----------------Fin-Menu11--------------------------------------------------------------- 
....................  
.................... //----------------Menu12--------------------------------------------------------------- 
....................    if(Menu == 12)// Menu de Vidrio 
5F7E:  MOVF   17,W
5F80:  SUBLW  0C
5F82:  BTFSS  FD8.2
5F84:  BRA    609E
....................    { 
....................       lcd_gotoxy(1,1); 
5F86:  MOVLW  01
5F88:  MOVLB  1
5F8A:  MOVWF  x1C
5F8C:  MOVWF  x1D
5F8E:  MOVLB  0
5F90:  CALL   0CC8
....................       printf(lcd_putc,"   Mover   Vidrio    "); 
5F94:  MOVLW  D8
5F96:  MOVWF  FF6
5F98:  MOVLW  09
5F9A:  MOVWF  FF7
5F9C:  CALL   11F6
....................        
....................       if(UP) 
5FA0:  BSF    F96.2
5FA2:  BTFSS  F84.2
5FA4:  BRA    5FEA
....................       { 
....................          lcd_gotoxy(1,3); 
5FA6:  MOVLW  01
5FA8:  MOVLB  1
5FAA:  MOVWF  x1C
5FAC:  MOVLW  03
5FAE:  MOVWF  x1D
5FB0:  MOVLB  0
5FB2:  CALL   0CC8
....................          printf(lcd_putc,"   !Subiendo!    ");    
5FB6:  MOVLW  EE
5FB8:  MOVWF  FF6
5FBA:  MOVLW  09
5FBC:  MOVWF  FF7
5FBE:  CALL   11F6
....................            
....................          if(!VIDRIOUP || VIDRIODN) 
5FC2:  BSF    F92.4
5FC4:  BTFSC  F80.4
5FC6:  BRA    5FCE
5FC8:  BSF    F92.3
5FCA:  BTFSC  F80.3
5FCC:  BRA    5FD8
....................          { 
....................             O1_off;O2_on; 
5FCE:  BCF    F8B.6
5FD0:  BCF    F94.6
5FD2:  BSF    F8B.7
5FD4:  BCF    F94.7
....................          } 
....................          else 
5FD6:  BRA    5FE0
....................          { 
....................             O1_off;O2_off; 
5FD8:  BCF    F8B.6
5FDA:  BCF    F94.6
5FDC:  BCF    F8B.7
5FDE:  BCF    F94.7
....................          } 
....................          BYTE_IR[3]=0X00; 
5FE0:  MOVLB  1
5FE2:  CLRF   x04
....................          BYTE_IR[2]=0X00; 
5FE4:  CLRF   x03
....................       } 
....................       else 
5FE6:  BRA    6056
5FE8:  MOVLB  0
....................       { 
....................          if(DOWN) 
5FEA:  BSF    F96.1
5FEC:  BTFSS  F84.1
5FEE:  BRA    602C
....................          { 
....................             lcd_gotoxy(1,3); 
5FF0:  MOVLW  01
5FF2:  MOVLB  1
5FF4:  MOVWF  x1C
5FF6:  MOVLW  03
5FF8:  MOVWF  x1D
5FFA:  MOVLB  0
5FFC:  CALL   0CC8
....................             printf(lcd_putc,"   !Bajando!    ");    
6000:  MOVLW  00
6002:  MOVWF  FF6
6004:  MOVLW  0A
6006:  MOVWF  FF7
6008:  CALL   11F6
....................  
....................             if(VIDRIOUP || !VIDRIODN) 
600C:  BSF    F92.4
600E:  BTFSS  F80.4
6010:  BRA    6018
6012:  BSF    F92.3
6014:  BTFSS  F80.3
6016:  BRA    6022
....................             { 
....................                O1_on;O2_off; 
6018:  BSF    F8B.6
601A:  BCF    F94.6
601C:  BCF    F8B.7
601E:  BCF    F94.7
....................             } 
....................             else 
6020:  BRA    602A
....................             { 
....................                O1_off;O2_off; 
6022:  BCF    F8B.6
6024:  BCF    F94.6
6026:  BCF    F8B.7
6028:  BCF    F94.7
....................             } 
....................          } 
....................          else 
602A:  BRA    6050
....................          { 
....................             lcd_gotoxy(1,3); 
602C:  MOVLW  01
602E:  MOVLB  1
6030:  MOVWF  x1C
6032:  MOVLW  03
6034:  MOVWF  x1D
6036:  MOVLB  0
6038:  CALL   0CC8
....................             printf(lcd_putc,"   !Detenido!   ");    
603C:  MOVLW  12
603E:  MOVWF  FF6
6040:  MOVLW  0A
6042:  MOVWF  FF7
6044:  CALL   11F6
....................             O1_off;O2_off; 
6048:  BCF    F8B.6
604A:  BCF    F94.6
604C:  BCF    F8B.7
604E:  BCF    F94.7
....................          } 
....................          BYTE_IR[3]=0X00; 
6050:  MOVLB  1
6052:  CLRF   x04
....................          BYTE_IR[2]=0X00; 
6054:  CLRF   x03
....................       } 
....................        
....................        
....................       if(LEFT || BYTE_IR[2]==0X08) 
6056:  BSF    F96.0
6058:  BTFSC  F84.0
605A:  BRA    6062
605C:  MOVF   x03,W
605E:  SUBLW  08
6060:  BNZ   609C
....................       { 
....................          delay_ms(500); 
6062:  MOVLW  02
6064:  MOVWF  x06
6066:  MOVLW  FA
6068:  MOVWF  x1C
606A:  MOVLB  0
606C:  CALL   0BD2
6070:  MOVLB  1
6072:  DECFSZ x06,F
6074:  BRA    6066
....................          printf(lcd_putc,"\f"); 
6076:  MOVLW  0C
6078:  MOVWF  x1B
607A:  MOVLB  0
607C:  CALL   0D3A
....................          Menu=1; paso=0;Flecha=2;Flecha2=2;printf(lcd_putc,"\f"); 
6080:  MOVLW  01
6082:  MOVWF  17
6084:  CLRF   40
6086:  MOVLW  02
6088:  MOVWF  1B
608A:  MOVWF  1D
608C:  MOVLW  0C
608E:  MOVLB  1
6090:  MOVWF  x1B
6092:  MOVLB  0
6094:  CALL   0D3A
....................          BYTE_IR[2]=0X00; 
6098:  MOVLB  1
609A:  CLRF   x03
609C:  MOVLB  0
....................       }   
....................         
....................    } 
.................... //----------------Fin-Menu12--------------------------------------------------------------- 
....................  
....................  
.................... //-------------------Menu20----------------------------------------------------------------   
....................  
....................    if(Menu==20) 
609E:  MOVF   17,W
60A0:  SUBLW  14
60A2:  BTFSS  FD8.2
60A4:  BRA    64D8
....................    { 
....................       if(Lectura2==1) 
60A6:  BTFSS  3F.6
60A8:  BRA    61E0
....................       { 
....................       lcd_gotoxy(1,1);                      
60AA:  MOVLW  01
60AC:  MOVLB  1
60AE:  MOVWF  x1C
60B0:  MOVWF  x1D
60B2:  MOVLB  0
60B4:  CALL   0CC8
....................       printf(lcd_putc," JP CEGH");//T= %2.0f",sensores(1));//T= %2.1f",TC); 
60B8:  MOVLW  24
60BA:  MOVWF  FF6
60BC:  MOVLW  0A
60BE:  MOVWF  FF7
60C0:  CALL   11F6
....................       lcd_gotoxy(1,2); 
60C4:  MOVLW  01
60C6:  MOVLB  1
60C8:  MOVWF  x1C
60CA:  MOVLW  02
60CC:  MOVWF  x1D
60CE:  MOVLB  0
60D0:  CALL   0CC8
....................       printf(lcd_putc,"Ext=%2.0f%%",(100*((float)tmp/255))); 
60D4:  MOVLB  1
60D6:  CLRF   x10
60D8:  MOVFF  2C,10F
60DC:  MOVLB  0
60DE:  CALL   0DA6
60E2:  MOVFF  00,106
60E6:  MOVFF  01,107
60EA:  MOVFF  02,108
60EE:  MOVFF  03,109
60F2:  MOVFF  03,127
60F6:  MOVFF  02,126
60FA:  MOVFF  01,125
60FE:  MOVFF  00,124
6102:  MOVLB  1
6104:  CLRF   x2B
6106:  CLRF   x2A
6108:  MOVLW  7F
610A:  MOVWF  x29
610C:  MOVLW  86
610E:  MOVWF  x28
6110:  MOVLB  0
6112:  CALL   0DDC
6116:  MOVLB  1
6118:  CLRF   x23
611A:  CLRF   x22
611C:  MOVLW  48
611E:  MOVWF  x21
6120:  MOVLW  85
6122:  MOVWF  x20
6124:  MOVFF  03,127
6128:  MOVFF  02,126
612C:  MOVFF  01,125
6130:  MOVFF  00,124
6134:  MOVLB  0
6136:  CALL   1532
613A:  MOVFF  00,106
613E:  MOVFF  01,107
6142:  MOVFF  02,108
6146:  MOVFF  03,109
614A:  MOVLW  2E
614C:  MOVWF  FF6
614E:  MOVLW  0A
6150:  MOVWF  FF7
6152:  MOVLW  04
6154:  MOVLB  1
6156:  MOVWF  x0E
6158:  MOVLB  0
615A:  CALL   1216
615E:  MOVLW  01
6160:  MOVWF  FE9
6162:  MOVFF  109,111
6166:  MOVFF  108,110
616A:  MOVFF  107,10F
616E:  MOVFF  106,10E
6172:  MOVLB  1
6174:  CLRF   x12
6176:  MOVLB  0
6178:  CALL   16EC
617C:  MOVLW  25
617E:  MOVLB  1
6180:  MOVWF  x1B
6182:  MOVLB  0
6184:  CALL   0D3A
....................       //printf(lcd_putc,"Ext= %03u%%",FeedbackDamper); 
....................       lcd_gotoxy(1,3); 
6188:  MOVLW  01
618A:  MOVLB  1
618C:  MOVWF  x1C
618E:  MOVLW  03
6190:  MOVWF  x1D
6192:  MOVLB  0
6194:  CALL   0CC8
....................       printf(lcd_putc,"InFlow= %2.1f (m/s) ",Flujo); 
6198:  MOVLW  3A
619A:  MOVWF  FF6
619C:  MOVLW  0A
619E:  MOVWF  FF7
61A0:  MOVLW  08
61A2:  MOVLB  1
61A4:  MOVWF  x0E
61A6:  MOVLB  0
61A8:  CALL   1216
61AC:  MOVLW  01
61AE:  MOVWF  FE9
61B0:  MOVFF  92,111
61B4:  MOVFF  91,110
61B8:  MOVFF  90,10F
61BC:  MOVFF  8F,10E
61C0:  MOVLB  1
61C2:  MOVWF  x12
61C4:  MOVLB  0
61C6:  CALL   16EC
61CA:  MOVLW  47
61CC:  MOVWF  FF6
61CE:  MOVLW  0A
61D0:  MOVWF  FF7
61D2:  MOVLW  07
61D4:  MOVLB  1
61D6:  MOVWF  x0E
61D8:  MOVLB  0
61DA:  CALL   1216
....................       Lectura2=0; 
61DE:  BCF    3F.6
....................       } 
....................        
....................       if(flag_filtro==1) 
61E0:  BTFSS  3F.2
61E2:  BRA    622A
....................       { 
....................          if(horas>=60) 
61E4:  BTFSC  35.7
61E6:  BRA    620C
61E8:  MOVF   35,W
61EA:  SUBLW  3B
61EC:  BC    620C
....................          { 
....................             lcd_gotoxy(10,1);                      
61EE:  MOVLW  0A
61F0:  MOVLB  1
61F2:  MOVWF  x1C
61F4:  MOVLW  01
61F6:  MOVWF  x1D
61F8:  MOVLB  0
61FA:  CALL   0CC8
....................             printf(lcd_putc,"Filtro:CAM"); 
61FE:  MOVLW  50
6200:  MOVWF  FF6
6202:  MOVLW  0A
6204:  MOVWF  FF7
6206:  CALL   11F6
....................          } 
....................          else 
620A:  BRA    6228
....................          { 
....................             lcd_gotoxy(10,1);                      
620C:  MOVLW  0A
620E:  MOVLB  1
6210:  MOVWF  x1C
6212:  MOVLW  01
6214:  MOVWF  x1D
6216:  MOVLB  0
6218:  CALL   0CC8
....................             printf(lcd_putc,"Filtro:OK "); 
621C:  MOVLW  5C
621E:  MOVWF  FF6
6220:  MOVLW  0A
6222:  MOVWF  FF7
6224:  CALL   11F6
....................          } 
....................       } 
....................       else 
6228:  BRA    6246
....................       { 
....................          lcd_gotoxy(10,1);                      
622A:  MOVLW  0A
622C:  MOVLB  1
622E:  MOVWF  x1C
6230:  MOVLW  01
6232:  MOVWF  x1D
6234:  MOVLB  0
6236:  CALL   0CC8
....................          printf(lcd_putc,"Filtro:---"); 
623A:  MOVLW  68
623C:  MOVWF  FF6
623E:  MOVLW  0A
6240:  MOVWF  FF7
6242:  CALL   11F6
....................       } 
....................           
....................       if(Flujo<0.5) 
6246:  MOVFF  92,123
624A:  MOVFF  91,122
624E:  MOVFF  90,121
6252:  MOVFF  8F,120
6256:  MOVLB  1
6258:  CLRF   x27
625A:  CLRF   x26
625C:  CLRF   x25
625E:  MOVLW  7E
6260:  MOVWF  x24
6262:  MOVLB  0
6264:  CALL   189E
6268:  BNC   6288
....................       { 
....................          lcd_gotoxy(11,2); 
626A:  MOVLW  0B
626C:  MOVLB  1
626E:  MOVWF  x1C
6270:  MOVLW  02
6272:  MOVWF  x1D
6274:  MOVLB  0
6276:  CALL   0CC8
....................          printf(lcd_putc,"Flujo=Bajo");       
627A:  MOVLW  74
627C:  MOVWF  FF6
627E:  MOVLW  0A
6280:  MOVWF  FF7
6282:  CALL   11F6
....................       } 
....................       else 
6286:  BRA    62E6
....................       { 
....................          if(Flujo>2.0) 
6288:  MOVLB  1
628A:  CLRF   x23
628C:  CLRF   x22
628E:  CLRF   x21
6290:  MOVLW  80
6292:  MOVWF  x20
6294:  MOVFF  92,127
6298:  MOVFF  91,126
629C:  MOVFF  90,125
62A0:  MOVFF  8F,124
62A4:  MOVLB  0
62A6:  CALL   189E
62AA:  BNC   62CA
....................          { 
....................             lcd_gotoxy(11,2); 
62AC:  MOVLW  0B
62AE:  MOVLB  1
62B0:  MOVWF  x1C
62B2:  MOVLW  02
62B4:  MOVWF  x1D
62B6:  MOVLB  0
62B8:  CALL   0CC8
....................             printf(lcd_putc,"Flujo=Alto");                
62BC:  MOVLW  80
62BE:  MOVWF  FF6
62C0:  MOVLW  0A
62C2:  MOVWF  FF7
62C4:  CALL   11F6
....................          } 
....................          else 
62C8:  BRA    62E6
....................          { 
....................             lcd_gotoxy(11,2); 
62CA:  MOVLW  0B
62CC:  MOVLB  1
62CE:  MOVWF  x1C
62D0:  MOVLW  02
62D2:  MOVWF  x1D
62D4:  MOVLB  0
62D6:  CALL   0CC8
....................             printf(lcd_putc,"Flujo=OK  ");       
62DA:  MOVLW  8C
62DC:  MOVWF  FF6
62DE:  MOVLW  0A
62E0:  MOVWF  FF7
62E2:  CALL   11F6
....................          } 
....................       } 
....................        
....................       if(estadofl==1) 
62E6:  BTFSS  3E.0
62E8:  BRA    630C
....................       { 
....................          Luz_Blanca_on; 
62EA:  BSF    F8A.4
62EC:  BCF    F93.4
....................          lcd_gotoxy(1,4); 
62EE:  MOVLW  01
62F0:  MOVLB  1
62F2:  MOVWF  x1C
62F4:  MOVLW  04
62F6:  MOVWF  x1D
62F8:  MOVLB  0
62FA:  CALL   0CC8
....................          printf(lcd_putc,"Luz:ON "); 
62FE:  MOVLW  98
6300:  MOVWF  FF6
6302:  MOVLW  0A
6304:  MOVWF  FF7
6306:  CALL   11F6
....................       } 
....................       else 
630A:  BRA    632C
....................       { 
....................          Luz_Blanca_off; 
630C:  BCF    F8A.4
630E:  BCF    F93.4
....................          lcd_gotoxy(1,4); 
6310:  MOVLW  01
6312:  MOVLB  1
6314:  MOVWF  x1C
6316:  MOVLW  04
6318:  MOVWF  x1D
631A:  MOVLB  0
631C:  CALL   0CC8
....................          printf(lcd_putc,"Luz:OFF "); 
6320:  MOVLW  A0
6322:  MOVWF  FF6
6324:  MOVLW  0A
6326:  MOVWF  FF7
6328:  CALL   11F6
....................       } 
....................        
....................       if(estadomv==1) 
632C:  BTFSS  3E.1
632E:  BRA    634E
....................       { 
....................          lcd_gotoxy(10,4); 
6330:  MOVLW  0A
6332:  MOVLB  1
6334:  MOVWF  x1C
6336:  MOVLW  04
6338:  MOVWF  x1D
633A:  MOVLB  0
633C:  CALL   0CC8
....................          printf(lcd_putc,"Motor:ON "); 
6340:  MOVLW  AA
6342:  MOVWF  FF6
6344:  MOVLW  0A
6346:  MOVWF  FF7
6348:  CALL   11F6
....................       } 
....................       else 
634C:  BRA    6376
....................       { 
....................          if(iniciodamper==1) 
634E:  BTFSS  54.0
6350:  BRA    635A
....................          { 
....................             Motor_off;   
6352:  BCF    F8A.5
6354:  BCF    F93.5
....................             Rele_off; 
6356:  BCF    F8A.7
6358:  BCF    F93.7
....................          } 
....................          lcd_gotoxy(10,4); 
635A:  MOVLW  0A
635C:  MOVLB  1
635E:  MOVWF  x1C
6360:  MOVLW  04
6362:  MOVWF  x1D
6364:  MOVLB  0
6366:  CALL   0CC8
....................          printf(lcd_putc,"Motor:OFF ");  
636A:  MOVLW  B4
636C:  MOVWF  FF6
636E:  MOVLW  0A
6370:  MOVWF  FF7
6372:  CALL   11F6
....................       } 
....................        
....................       if(DOWN || BYTE_IR[2]==0X45)//Si oprime hacia Abajo 
6376:  BSF    F96.1
6378:  BTFSC  F84.1
637A:  BRA    6386
637C:  MOVLB  1
637E:  MOVF   x03,W
6380:  SUBLW  45
6382:  BNZ   63B4
6384:  MOVLB  0
....................       {   
....................          delay_ms(200); 
6386:  MOVLW  C8
6388:  MOVLB  1
638A:  MOVWF  x1C
638C:  MOVLB  0
638E:  CALL   0BD2
....................          if(DOWN || BYTE_IR[2]==0X45)//Si oprime hacia Abajo 
6392:  BSF    F96.1
6394:  BTFSC  F84.1
6396:  BRA    63A2
6398:  MOVLB  1
639A:  MOVF   x03,W
639C:  SUBLW  45
639E:  BNZ   63AE
63A0:  MOVLB  0
....................          {   
....................             if(Flanco == 0) 
63A2:  BTFSC  3E.4
63A4:  BRA    63B0
....................             { 
....................                Flanco = 1;estadofl=!estadofl;BYTE_IR[2]=0X00; 
63A6:  BSF    3E.4
63A8:  BTG    3E.0
63AA:  MOVLB  1
63AC:  CLRF   x03
63AE:  MOVLB  0
....................             } 
....................          } 
....................       } 
....................       else 
63B0:  BRA    63B8
63B2:  MOVLB  1
....................       { 
....................          Flanco = 0; 
63B4:  BCF    3E.4
63B6:  MOVLB  0
....................       } 
....................              
....................       if(LEFT || BYTE_IR[2]==0X46)//Si oprime hacia Izquierda 
63B8:  BSF    F96.0
63BA:  BTFSC  F84.0
63BC:  BRA    63C8
63BE:  MOVLB  1
63C0:  MOVF   x03,W
63C2:  SUBLW  46
63C4:  BNZ   642C
63C6:  MOVLB  0
....................       {   
....................          delay_ms(200); 
63C8:  MOVLW  C8
63CA:  MOVLB  1
63CC:  MOVWF  x1C
63CE:  MOVLB  0
63D0:  CALL   0BD2
....................          if(LEFT || BYTE_IR[2]==0X46)//Si oprime hacia Izquierda 
63D4:  BSF    F96.0
63D6:  BTFSC  F84.0
63D8:  BRA    63E4
63DA:  MOVLB  1
63DC:  MOVF   x03,W
63DE:  SUBLW  46
63E0:  BNZ   6426
63E2:  MOVLB  0
....................          {      
....................             if(Flanco2 == 0) 
63E4:  BTFSC  3E.6
63E6:  BRA    6428
....................             { 
....................                Flanco2 = 1;estadomv=!estadomv; 
63E8:  BSF    3E.6
63EA:  BTG    3E.1
....................                if(estadomv==1) 
63EC:  BTFSS  3E.1
63EE:  BRA    640A
....................                { 
....................                   Rele_on; 
63F0:  BSF    F8A.7
63F2:  BCF    F93.7
....................                   Motor_on; 
63F4:  BSF    F8A.5
63F6:  BCF    F93.5
....................                   delay_ms(150); 
63F8:  MOVLW  96
63FA:  MOVLB  1
63FC:  MOVWF  x1C
63FE:  MOVLB  0
6400:  CALL   0BD2
....................                   lcd_init(); 
6404:  CALL   0C54
....................                } 
....................                else 
6408:  BRA    6422
....................                { 
....................                   Motor_off; 
640A:  BCF    F8A.5
640C:  BCF    F93.5
....................                   Rele_off; 
640E:  BCF    F8A.7
6410:  BCF    F93.7
....................                   delay_ms(150); 
6412:  MOVLW  96
6414:  MOVLB  1
6416:  MOVWF  x1C
6418:  MOVLB  0
641A:  CALL   0BD2
....................                   lcd_init(); 
641E:  CALL   0C54
....................                } 
....................                BYTE_IR[2]=0X00; 
6422:  MOVLB  1
6424:  CLRF   x03
6426:  MOVLB  0
....................             } 
....................          } 
....................       } 
....................       else 
6428:  BRA    6430
642A:  MOVLB  1
....................       { 
....................          Flanco2 = 0; 
642C:  BCF    3E.6
642E:  MOVLB  0
....................       } 
....................     
....................       if(UP || BYTE_IR[2]==0X1C)// Si oprime Arriba 
6430:  BSF    F96.2
6432:  BTFSC  F84.2
6434:  BRA    6440
6436:  MOVLB  1
6438:  MOVF   x03,W
643A:  SUBLW  1C
643C:  BNZ   6486
643E:  MOVLB  0
....................       {   
....................          delay_ms(200); 
6440:  MOVLW  C8
6442:  MOVLB  1
6444:  MOVWF  x1C
6446:  MOVLB  0
6448:  CALL   0BD2
....................          if(UP || BYTE_IR[2]==0X1C)// Si oprime Arriba 
644C:  BSF    F96.2
644E:  BTFSC  F84.2
6450:  BRA    645C
6452:  MOVLB  1
6454:  MOVF   x03,W
6456:  SUBLW  1C
6458:  BNZ   6480
645A:  MOVLB  0
....................          {   
....................             if(Flanco1 == 0) 
645C:  BTFSC  3E.5
645E:  BRA    6482
....................             { 
....................                printf(lcd_putc,"\f");Menu=1;paso=0;Flecha=2;Flecha2=2;unidad=11;BYTE_IR[2]=0X00; 
6460:  MOVLW  0C
6462:  MOVLB  1
6464:  MOVWF  x1B
6466:  MOVLB  0
6468:  CALL   0D3A
646C:  MOVLW  01
646E:  MOVWF  17
6470:  CLRF   40
6472:  MOVLW  02
6474:  MOVWF  1B
6476:  MOVWF  1D
6478:  MOVLW  0B
647A:  MOVWF  1A
647C:  MOVLB  1
647E:  CLRF   x03
6480:  MOVLB  0
....................             } 
....................          } 
....................       } 
....................       else 
6482:  BRA    648A
6484:  MOVLB  1
....................       { 
....................          Flanco1 = 0; 
6486:  BCF    3E.5
6488:  MOVLB  0
....................       } 
....................              
....................       if(RIGHT || BYTE_IR[2]==0X47)// Si oprime Derecha 
648A:  BSF    F92.5
648C:  BTFSC  F80.5
648E:  BRA    649A
6490:  MOVLB  1
6492:  MOVF   x03,W
6494:  SUBLW  47
6496:  BNZ   64D4
6498:  MOVLB  0
....................       { 
....................          delay_ms(200); 
649A:  MOVLW  C8
649C:  MOVLB  1
649E:  MOVWF  x1C
64A0:  MOVLB  0
64A2:  CALL   0BD2
....................          if(RIGHT || BYTE_IR[2]==0X47)// Si oprime Derecha 
64A6:  BSF    F92.5
64A8:  BTFSC  F80.5
64AA:  BRA    64B6
64AC:  MOVLB  1
64AE:  MOVF   x03,W
64B0:  SUBLW  47
64B2:  BNZ   64CE
64B4:  MOVLB  0
....................          { 
....................             if(Flanco3 == 0) 
64B6:  BTFSC  3E.7
64B8:  BRA    64D0
....................             { 
....................                printf(lcd_putc,"\f");Menu=40;BYTE_IR[2]=0X00; 
64BA:  MOVLW  0C
64BC:  MOVLB  1
64BE:  MOVWF  x1B
64C0:  MOVLB  0
64C2:  CALL   0D3A
64C6:  MOVLW  28
64C8:  MOVWF  17
64CA:  MOVLB  1
64CC:  CLRF   x03
64CE:  MOVLB  0
....................             } 
....................          } 
....................       } 
....................       else 
64D0:  BRA    64D8
64D2:  MOVLB  1
....................       { 
....................          Flanco3 = 0; 
64D4:  BCF    3E.7
64D6:  MOVLB  0
....................       } 
....................    } 
.................... //----------------Fin-Menu20---------------------------------------------------------------   
....................  
.................... //-----------------Menu30------------------------------------------------------------------   
....................    while(Menu == 30) 
....................    { 
64D8:  MOVF   17,W
64DA:  SUBLW  1E
64DC:  BTFSS  FD8.2
64DE:  BRA    66C8
....................       lcd_gotoxy(1,1); 
64E0:  MOVLW  01
64E2:  MOVLB  1
64E4:  MOVWF  x1C
64E6:  MOVWF  x1D
64E8:  MOVLB  0
64EA:  CALL   0CC8
....................       printf(lcd_putc,"    !Post-Purga!    "); 
64EE:  MOVLW  C0
64F0:  MOVWF  FF6
64F2:  MOVLW  0A
64F4:  MOVWF  FF7
64F6:  CALL   11F6
....................       lcd_gotoxy(1,2); 
64FA:  MOVLW  01
64FC:  MOVLB  1
64FE:  MOVWF  x1C
6500:  MOVLW  02
6502:  MOVWF  x1D
6504:  MOVLB  0
6506:  CALL   0CC8
....................       printf(lcd_putc,"                    "); 
650A:  MOVLW  D6
650C:  MOVWF  FF6
650E:  MOVLW  0A
6510:  MOVWF  FF7
6512:  CALL   11F6
....................       lcd_gotoxy(1,3); 
6516:  MOVLW  01
6518:  MOVLB  1
651A:  MOVWF  x1C
651C:  MOVLW  03
651E:  MOVWF  x1D
6520:  MOVLB  0
6522:  CALL   0CC8
....................       printf(lcd_putc,"      %02u:%02u  ",ppurga_minutos,ppurga_segundos);  
6526:  MOVLW  EC
6528:  MOVWF  FF6
652A:  MOVLW  0A
652C:  MOVWF  FF7
652E:  MOVLW  06
6530:  MOVLB  1
6532:  MOVWF  x0E
6534:  MOVLB  0
6536:  CALL   1216
653A:  MOVFF  3B,106
653E:  MOVLW  01
6540:  MOVLB  1
6542:  MOVWF  x07
6544:  MOVLB  0
6546:  CALL   14B6
654A:  MOVLW  3A
654C:  MOVLB  1
654E:  MOVWF  x1B
6550:  MOVLB  0
6552:  CALL   0D3A
6556:  MOVFF  39,106
655A:  MOVLW  01
655C:  MOVLB  1
655E:  MOVWF  x07
6560:  MOVLB  0
6562:  CALL   14B6
6566:  MOVLW  20
6568:  MOVLB  1
656A:  MOVWF  x1B
656C:  MOVLB  0
656E:  CALL   0D3A
6572:  MOVLW  20
6574:  MOVLB  1
6576:  MOVWF  x1B
6578:  MOVLB  0
657A:  CALL   0D3A
....................            
....................       if(Lectura==1) 
657E:  BTFSS  3F.5
6580:  BRA    66C6
....................       { 
....................          Luz_Blanca_off; 
6582:  BCF    F8A.4
6584:  BCF    F93.4
....................          Rele_on; 
6586:  BSF    F8A.7
6588:  BCF    F93.7
....................          Motor_on; 
658A:  BSF    F8A.5
658C:  BCF    F93.5
....................          if(sensores(2)<6 && ppurga_segundos==0 && ppurga_minutos==0) 
658E:  MOVLW  02
6590:  MOVLB  1
6592:  MOVWF  x0A
6594:  MOVLB  0
6596:  CALL   1954
659A:  MOVFF  00,106
659E:  MOVFF  01,107
65A2:  MOVFF  02,108
65A6:  MOVFF  03,109
65AA:  MOVFF  03,123
65AE:  MOVFF  02,122
65B2:  MOVFF  01,121
65B6:  MOVFF  00,120
65BA:  MOVLB  1
65BC:  CLRF   x27
65BE:  CLRF   x26
65C0:  MOVLW  40
65C2:  MOVWF  x25
65C4:  MOVLW  81
65C6:  MOVWF  x24
65C8:  MOVLB  0
65CA:  CALL   189E
65CE:  BTFSS  FD8.0
65D0:  BRA    66C4
65D2:  MOVF   39,F
65D4:  BNZ   66C4
65D6:  MOVF   3B,F
65D8:  BNZ   66C4
....................          { 
....................             write_eeprom(70,segundos);write_eeprom(71,minutos);write_eeprom(72,horas); 
65DA:  MOVLW  46
65DC:  MOVWF  FA9
65DE:  MOVFF  33,FA8
65E2:  BCF    FA6.6
65E4:  BCF    FA6.7
65E6:  BSF    FA6.2
65E8:  MOVF   FF2,W
65EA:  MOVWF  00
65EC:  BCF    FF2.7
65EE:  MOVLB  F
65F0:  MOVLW  55
65F2:  MOVWF  FA7
65F4:  MOVLW  AA
65F6:  MOVWF  FA7
65F8:  BSF    FA6.1
65FA:  BTFSC  FA6.1
65FC:  BRA    65FA
65FE:  BCF    FA6.2
6600:  MOVF   00,W
6602:  IORWF  FF2,F
6604:  MOVLW  47
6606:  MOVWF  FA9
6608:  MOVFF  34,FA8
660C:  BCF    FA6.6
660E:  BCF    FA6.7
6610:  BSF    FA6.2
6612:  MOVF   FF2,W
6614:  MOVWF  00
6616:  BCF    FF2.7
6618:  MOVLW  55
661A:  MOVWF  FA7
661C:  MOVLW  AA
661E:  MOVWF  FA7
6620:  BSF    FA6.1
6622:  BTFSC  FA6.1
6624:  BRA    6622
6626:  BCF    FA6.2
6628:  MOVF   00,W
662A:  IORWF  FF2,F
662C:  MOVLW  48
662E:  MOVWF  FA9
6630:  MOVFF  35,FA8
6634:  BCF    FA6.6
6636:  BCF    FA6.7
6638:  BSF    FA6.2
663A:  MOVF   FF2,W
663C:  MOVWF  00
663E:  BCF    FF2.7
6640:  MOVLW  55
6642:  MOVWF  FA7
6644:  MOVLW  AA
6646:  MOVWF  FA7
6648:  BSF    FA6.1
664A:  BTFSC  FA6.1
664C:  BRA    664A
664E:  BCF    FA6.2
6650:  MOVF   00,W
6652:  IORWF  FF2,F
....................             printf(lcd_putc,"\f"); 
6654:  MOVLW  0C
6656:  MOVLB  1
6658:  MOVWF  x1B
665A:  MOVLB  0
665C:  CALL   0D3A
....................             lcd_gotoxy(1,2); 
6660:  MOVLW  01
6662:  MOVLB  1
6664:  MOVWF  x1C
6666:  MOVLW  02
6668:  MOVWF  x1D
666A:  MOVLB  0
666C:  CALL   0CC8
....................             printf(lcd_putc,"     Proceso      "); 
6670:  MOVLW  FE
6672:  MOVWF  FF6
6674:  MOVLW  0A
6676:  MOVWF  FF7
6678:  CALL   11F6
....................             lcd_gotoxy(1,3); 
667C:  MOVLW  01
667E:  MOVLB  1
6680:  MOVWF  x1C
6682:  MOVLW  03
6684:  MOVWF  x1D
6686:  MOVLB  0
6688:  CALL   0CC8
....................             printf(lcd_putc,"    Finalizado    "); 
668C:  MOVLW  12
668E:  MOVWF  FF6
6690:  MOVLW  0B
6692:  MOVWF  FF7
6694:  CALL   11F6
....................             delay_ms(2000); 
6698:  MOVLW  08
669A:  MOVLB  1
669C:  MOVWF  x06
669E:  MOVLW  FA
66A0:  MOVWF  x1C
66A2:  MOVLB  0
66A4:  CALL   0BD2
66A8:  MOVLB  1
66AA:  DECFSZ x06,F
66AC:  BRA    669E
....................             printf(lcd_putc,"\f"); 
66AE:  MOVLW  0C
66B0:  MOVWF  x1B
66B2:  MOVLB  0
66B4:  CALL   0D3A
....................             ajustar_damper(0); 
66B8:  MOVLB  1
66BA:  CLRF   x06
66BC:  MOVLB  0
66BE:  CALL   19AC
....................             reset_cpu(); 
66C2:  RESET
....................          } 
....................          Lectura=0; 
66C4:  BCF    3F.5
....................       } 
....................        
....................    } 
66C6:  BRA    64D8
....................  
.................... //----------------Fin-Menu30---------------------------------------------------------------   
....................  
.................... //----------------Menu40--------------------------------------------------------------- 
....................    if(Menu == 40){ // Menu de apagado de cabina 
66C8:  MOVF   17,W
66CA:  SUBLW  28
66CC:  BTFSS  FD8.2
66CE:  BRA    680C
....................    lcd_gotoxy(1,1); 
66D0:  MOVLW  01
66D2:  MOVLB  1
66D4:  MOVWF  x1C
66D6:  MOVWF  x1D
66D8:  MOVLB  0
66DA:  CALL   0CC8
....................    printf(lcd_putc,"   Desea apagar     "); 
66DE:  MOVLW  26
66E0:  MOVWF  FF6
66E2:  MOVLW  0B
66E4:  MOVWF  FF7
66E6:  CALL   11F6
....................    lcd_gotoxy(1,2); 
66EA:  MOVLW  01
66EC:  MOVLB  1
66EE:  MOVWF  x1C
66F0:  MOVLW  02
66F2:  MOVWF  x1D
66F4:  MOVLB  0
66F6:  CALL   0CC8
....................    printf(lcd_putc,"     la cabina      "); 
66FA:  MOVLW  3C
66FC:  MOVWF  FF6
66FE:  MOVLW  0B
6700:  MOVWF  FF7
6702:  CALL   11F6
....................    lcd_gotoxy(1,3); 
6706:  MOVLW  01
6708:  MOVLB  1
670A:  MOVWF  x1C
670C:  MOVLW  03
670E:  MOVWF  x1D
6710:  MOVLB  0
6712:  CALL   0CC8
....................    printf(lcd_putc,"   > Aceptar        "); 
6716:  MOVLW  52
6718:  MOVWF  FF6
671A:  MOVLW  0B
671C:  MOVWF  FF7
671E:  CALL   11F6
....................    lcd_gotoxy(1,4); 
6722:  MOVLW  01
6724:  MOVLB  1
6726:  MOVWF  x1C
6728:  MOVLW  04
672A:  MOVWF  x1D
672C:  MOVLB  0
672E:  CALL   0CC8
....................    printf(lcd_putc,"   < Cancelar       "); 
6732:  MOVLW  68
6734:  MOVWF  FF6
6736:  MOVLW  0B
6738:  MOVWF  FF7
673A:  CALL   11F6
....................    
....................     
....................       if(RIGHT || BYTE_IR[2]==0X5A)// Si oprime derecha 
673E:  BSF    F92.5
6740:  BTFSC  F80.5
6742:  BRA    674E
6744:  MOVLB  1
6746:  MOVF   x03,W
6748:  SUBLW  5A
674A:  BNZ   6798
674C:  MOVLB  0
....................       {   
....................          delay_ms(100); 
674E:  MOVLW  64
6750:  MOVLB  1
6752:  MOVWF  x1C
6754:  MOVLB  0
6756:  CALL   0BD2
....................          if(RIGHT || BYTE_IR[2]==0X5A)// Si oprime derecha 
675A:  BSF    F92.5
675C:  BTFSC  F80.5
675E:  BRA    676A
6760:  MOVLB  1
6762:  MOVF   x03,W
6764:  SUBLW  5A
6766:  BNZ   6792
6768:  MOVLB  0
....................          {   
....................             if(Flanco1 == 0) 
676A:  BTFSC  3E.5
676C:  BRA    6794
....................             { 
....................                Flanco1 = 1;Menu=30;intensidadpantalla(contraste);Alarma_off;printf(lcd_putc,"\f");tiempo_ppurga=1;BYTE_IR[2]=0X00; 
676E:  BSF    3E.5
6770:  MOVLW  1E
6772:  MOVWF  17
6774:  MOVFF  20,106
6778:  CALL   0BBE
677C:  BCF    F8A.6
677E:  BCF    F93.6
6780:  MOVLW  0C
6782:  MOVLB  1
6784:  MOVWF  x1B
6786:  MOVLB  0
6788:  CALL   0D3A
678C:  BSF    54.5
678E:  MOVLB  1
6790:  CLRF   x03
6792:  MOVLB  0
....................             } 
....................          } 
....................       } 
....................       else 
6794:  BRA    679C
6796:  MOVLB  1
....................       { 
....................          Flanco1 = 0; 
6798:  BCF    3E.5
679A:  MOVLB  0
....................       } 
....................              
....................       if(LEFT || BYTE_IR[2]==0X08)// Si oprime Izquierda 
679C:  BSF    F96.0
679E:  BTFSC  F84.0
67A0:  BRA    67AC
67A2:  MOVLB  1
67A4:  MOVF   x03,W
67A6:  SUBLW  08
67A8:  BNZ   6808
67AA:  MOVLB  0
....................       { 
....................          delay_ms(100); 
67AC:  MOVLW  64
67AE:  MOVLB  1
67B0:  MOVWF  x1C
67B2:  MOVLB  0
67B4:  CALL   0BD2
....................          if(LEFT || BYTE_IR[2]==0X08)// Si oprime Izquierda 
67B8:  BSF    F96.0
67BA:  BTFSC  F84.0
67BC:  BRA    67C8
67BE:  MOVLB  1
67C0:  MOVF   x03,W
67C2:  SUBLW  08
67C4:  BNZ   6802
67C6:  MOVLB  0
....................          { 
....................             if(Flanco3 == 0) 
67C8:  BTFSC  3E.7
67CA:  BRA    6804
....................             { 
....................                Flanco3 = 1;Menu=20;paso=0;Flecha=2;Flecha2=2;unidad=11;delay_ms(500);printf(lcd_putc,"\f");BYTE_IR[2]=0X00; 
67CC:  BSF    3E.7
67CE:  MOVLW  14
67D0:  MOVWF  17
67D2:  CLRF   40
67D4:  MOVLW  02
67D6:  MOVWF  1B
67D8:  MOVWF  1D
67DA:  MOVLW  0B
67DC:  MOVWF  1A
67DE:  MOVLW  02
67E0:  MOVLB  1
67E2:  MOVWF  x06
67E4:  MOVLW  FA
67E6:  MOVWF  x1C
67E8:  MOVLB  0
67EA:  CALL   0BD2
67EE:  MOVLB  1
67F0:  DECFSZ x06,F
67F2:  BRA    67E4
67F4:  MOVLW  0C
67F6:  MOVWF  x1B
67F8:  MOVLB  0
67FA:  CALL   0D3A
67FE:  MOVLB  1
6800:  CLRF   x03
6802:  MOVLB  0
....................             } 
....................          } 
....................       } 
....................       else 
6804:  BRA    680C
6806:  MOVLB  1
....................       { 
....................          Flanco3 = 0; 
6808:  BCF    3E.7
680A:  MOVLB  0
....................       } 
....................               
....................    }       
.................... //----------------Fin-Menu40---------------------------------------------------------------    
....................  
.................... //----------------Menu50--------------------------------------------------------------- 
....................    if(Menu == 50){ // Menu de Purga 
680C:  MOVF   17,W
680E:  SUBLW  32
6810:  BTFSS  FD8.2
6812:  BRA    6930
....................    lcd_gotoxy(1,1); 
6814:  MOVLW  01
6816:  MOVLB  1
6818:  MOVWF  x1C
681A:  MOVWF  x1D
681C:  MOVLB  0
681E:  CALL   0CC8
....................    printf(lcd_putc,"      !Purga!       "); 
6822:  MOVLW  7E
6824:  MOVWF  FF6
6826:  MOVLW  0B
6828:  MOVWF  FF7
682A:  CALL   11F6
....................    lcd_gotoxy(1,2); 
682E:  MOVLW  01
6830:  MOVLB  1
6832:  MOVWF  x1C
6834:  MOVLW  02
6836:  MOVWF  x1D
6838:  MOVLB  0
683A:  CALL   0CC8
....................    printf(lcd_putc,"                    "); 
683E:  MOVLW  94
6840:  MOVWF  FF6
6842:  MOVLW  0B
6844:  MOVWF  FF7
6846:  CALL   11F6
....................    lcd_gotoxy(1,3); 
684A:  MOVLW  01
684C:  MOVLB  1
684E:  MOVWF  x1C
6850:  MOVLW  03
6852:  MOVWF  x1D
6854:  MOVLB  0
6856:  CALL   0CC8
....................    printf(lcd_putc,"      %02u:%02u   ",purga_minutos,purga_segundos);  
685A:  MOVLW  AA
685C:  MOVWF  FF6
685E:  MOVLW  0B
6860:  MOVWF  FF7
6862:  MOVLW  06
6864:  MOVLB  1
6866:  MOVWF  x0E
6868:  MOVLB  0
686A:  CALL   1216
686E:  MOVFF  22,106
6872:  MOVLW  01
6874:  MOVLB  1
6876:  MOVWF  x07
6878:  MOVLB  0
687A:  CALL   14B6
687E:  MOVLW  3A
6880:  MOVLB  1
6882:  MOVWF  x1B
6884:  MOVLB  0
6886:  CALL   0D3A
688A:  MOVFF  37,106
688E:  MOVLW  01
6890:  MOVLB  1
6892:  MOVWF  x07
6894:  MOVLB  0
6896:  CALL   14B6
689A:  MOVLW  20
689C:  MOVLB  1
689E:  MOVWF  x1B
68A0:  MOVLB  0
68A2:  CALL   0D3A
68A6:  MOVLW  20
68A8:  MOVLB  1
68AA:  MOVWF  x1B
68AC:  MOVLB  0
68AE:  CALL   0D3A
68B2:  MOVLW  20
68B4:  MOVLB  1
68B6:  MOVWF  x1B
68B8:  MOVLB  0
68BA:  CALL   0D3A
....................         
....................    if(LEFT || BYTE_IR[2]==0X08) 
68BE:  BSF    F96.0
68C0:  BTFSC  F84.0
68C2:  BRA    68CE
68C4:  MOVLB  1
68C6:  MOVF   x03,W
68C8:  SUBLW  08
68CA:  BNZ   6900
68CC:  MOVLB  0
....................    { 
....................       delay_ms(1000); 
68CE:  MOVLW  04
68D0:  MOVLB  1
68D2:  MOVWF  x06
68D4:  MOVLW  FA
68D6:  MOVWF  x1C
68D8:  MOVLB  0
68DA:  CALL   0BD2
68DE:  MOVLB  1
68E0:  DECFSZ x06,F
68E2:  BRA    68D4
....................       if(LEFT || BYTE_IR[2]==0X08) 
68E4:  BSF    F96.0
68E6:  BTFSC  F84.0
68E8:  BRA    68F0
68EA:  MOVF   x03,W
68EC:  SUBLW  08
68EE:  BNZ   6900
....................       { 
....................          tiempo_purga=0;Motor_on;Menu=20;BYTE_IR[2]=0X00;Rele_on; 
68F0:  BCF    54.4
68F2:  BSF    F8A.5
68F4:  BCF    F93.5
68F6:  MOVLW  14
68F8:  MOVWF  17
68FA:  CLRF   x03
68FC:  BSF    F8A.7
68FE:  BCF    F93.7
....................       } 
....................    } 
....................    if(Lectura==1) 
6900:  BTFSS  3F.5
6902:  BRA    6932
....................    { 
....................         Flujo=Leer_Sensor_Flujo(MediaMovil); 
6904:  MOVFF  2D,106
6908:  MOVLB  0
690A:  CALL   1ED6
690E:  MOVFF  03,92
6912:  MOVFF  02,91
6916:  MOVFF  01,90
691A:  MOVFF  00,8F
....................         controlar_flujo();     
691E:  CALL   25A8
....................         Motor_on; 
6922:  BSF    F8A.5
6924:  BCF    F93.5
....................         Rele_on; 
6926:  BSF    F8A.7
6928:  BCF    F93.7
....................         estadomv=1; 
692A:  BSF    3E.1
....................         Luz_Blanca_off; 
692C:  BCF    F8A.4
692E:  BCF    F93.4
6930:  MOVLB  1
....................    } 
....................    }       
.................... //----------------Fin-Menu50---------------------------------------------------------------   
....................  
....................    if(tiemporeset>=20) 
6932:  BTFSC  36.7
6934:  BRA    6946
6936:  MOVF   36,W
6938:  SUBLW  13
693A:  BC    6946
....................    { 
....................       lcd_init(); 
693C:  MOVLB  0
693E:  CALL   0C54
....................       tiemporeset=0; 
6942:  CLRF   36
6944:  MOVLB  1
....................    }  
....................  
....................    if(Menu!=0 || Menu!=30 || Menu!=200) 
6946:  MOVF   17,F
6948:  BNZ   6958
694A:  MOVF   17,W
694C:  SUBLW  1E
694E:  BNZ   6958
6950:  MOVF   17,W
6952:  SUBLW  C8
6954:  BTFSC  FD8.2
6956:  BRA    6A8E
....................    { 
....................       if(Lectura==1) 
6958:  BTFSS  3F.5
695A:  BRA    6A8A
....................       { 
....................          FeedbackDamper=(int8)(100*(sensores(2)/1023)); 
695C:  MOVLW  02
695E:  MOVWF  x0A
6960:  MOVLB  0
6962:  CALL   1954
6966:  MOVFF  00,106
696A:  MOVFF  01,107
696E:  MOVFF  02,108
6972:  MOVFF  03,109
6976:  MOVFF  03,127
697A:  MOVFF  02,126
697E:  MOVFF  01,125
6982:  MOVFF  00,124
6986:  MOVLB  1
6988:  CLRF   x2B
698A:  MOVLW  C0
698C:  MOVWF  x2A
698E:  MOVLW  7F
6990:  MOVWF  x29
6992:  MOVLW  88
6994:  MOVWF  x28
6996:  MOVLB  0
6998:  CALL   0DDC
699C:  MOVLB  1
699E:  CLRF   x23
69A0:  CLRF   x22
69A2:  MOVLW  48
69A4:  MOVWF  x21
69A6:  MOVLW  85
69A8:  MOVWF  x20
69AA:  MOVFF  03,127
69AE:  MOVFF  02,126
69B2:  MOVFF  01,125
69B6:  MOVFF  00,124
69BA:  MOVLB  0
69BC:  CALL   1532
69C0:  MOVFF  03,109
69C4:  MOVFF  02,108
69C8:  MOVFF  01,107
69CC:  MOVFF  00,106
69D0:  CALL   1918
69D4:  MOVFF  01,3D
....................          Flujo=Leer_Sensor_Flujo(MediaMovil); 
69D8:  MOVFF  2D,106
69DC:  CALL   1ED6
69E0:  MOVFF  03,92
69E4:  MOVFF  02,91
69E8:  MOVFF  01,90
69EC:  MOVFF  00,8F
....................          controlar_flujo(); 
69F0:  CALL   25A8
....................           
....................          if(Flujo<0.5 && Menu==20) 
69F4:  MOVFF  92,123
69F8:  MOVFF  91,122
69FC:  MOVFF  90,121
6A00:  MOVFF  8F,120
6A04:  MOVLB  1
6A06:  CLRF   x27
6A08:  CLRF   x26
6A0A:  CLRF   x25
6A0C:  MOVLW  7E
6A0E:  MOVWF  x24
6A10:  MOVLB  0
6A12:  CALL   189E
6A16:  BNC   6A4E
6A18:  MOVF   17,W
6A1A:  SUBLW  14
6A1C:  BNZ   6A4E
....................          { 
....................               flag_latencia=1; 
6A1E:  BSF    3F.0
....................                
....................               if(Latencia==1) 
6A20:  BTFSS  3F.1
6A22:  BRA    6A4C
....................               { 
....................                  if(estadoalarma==1) 
6A24:  BTFSS  3E.2
6A26:  BRA    6A2E
....................                  { 
....................                     Alarma_on; 
6A28:  BSF    F8A.6
6A2A:  BCF    F93.6
....................                  } 
....................                  else 
6A2C:  BRA    6A32
....................                  { 
....................                     Alarma_off; 
6A2E:  BCF    F8A.6
6A30:  BCF    F93.6
....................                  } 
....................                  estadopantalla=!estadopantalla; 
6A32:  BTG    3E.3
....................                  if(estadopantalla==1) 
6A34:  BTFSS  3E.3
6A36:  BRA    6A42
....................                  {intensidadpantalla(contraste);} 
6A38:  MOVFF  20,106
6A3C:  CALL   0BBE
....................                  else 
6A40:  BRA    6A4C
....................                  {intensidadpantalla(0);} 
6A42:  MOVLB  1
6A44:  CLRF   x06
6A46:  MOVLB  0
6A48:  CALL   0BBE
....................                } 
....................             } 
....................          else 
6A4C:  BRA    6A88
....................          { 
....................             intensidadpantalla(contraste);Alarma_off; 
6A4E:  MOVFF  20,106
6A52:  CALL   0BBE
6A56:  BCF    F8A.6
6A58:  BCF    F93.6
....................             if(Flujo>=0.5) 
6A5A:  MOVLB  1
6A5C:  CLRF   x23
6A5E:  CLRF   x22
6A60:  CLRF   x21
6A62:  MOVLW  7E
6A64:  MOVWF  x20
6A66:  MOVFF  92,127
6A6A:  MOVFF  91,126
6A6E:  MOVFF  90,125
6A72:  MOVFF  8F,124
6A76:  MOVLB  0
6A78:  CALL   189E
6A7C:  BC    6A80
6A7E:  BNZ   6A88
....................             { 
....................                Latencia=0;t_latencia=0;flag_latencia=0; 
6A80:  BCF    3F.1
6A82:  CLRF   58
6A84:  CLRF   57
6A86:  BCF    3F.0
6A88:  MOVLB  1
....................             } 
....................          } 
....................       } 
....................       Lectura=0; 
6A8A:  BCF    3F.5
....................    }    
....................    else 
6A8C:  BRA    6AB8
....................    { 
....................       if(Menu!=200) 
6A8E:  MOVF   17,W
6A90:  SUBLW  C8
6A92:  BZ    6AAE
....................       { 
....................          intensidadpantalla(contraste);Alarma_off;Latencia=0;t_latencia=0;flag_latencia=0; 
6A94:  MOVFF  20,106
6A98:  MOVLB  0
6A9A:  CALL   0BBE
6A9E:  BCF    F8A.6
6AA0:  BCF    F93.6
6AA2:  BCF    3F.1
6AA4:  CLRF   58
6AA6:  CLRF   57
6AA8:  BCF    3F.0
....................       } 
....................       else 
6AAA:  BRA    6AB6
6AAC:  MOVLB  1
....................       { 
....................          intensidadpantalla(0); 
6AAE:  CLRF   x06
6AB0:  MOVLB  0
6AB2:  CALL   0BBE
6AB6:  MOVLB  1
....................       } 
....................    } 
....................  
....................    }        
6AB8:  GOTO   2F1A
.................... } 
.................... int8 BIT_BYTE(int1 D0, int1 D1, int1 D2, int1 D3, int1 D4, int1 D5, int1 D6, int1 D7){ 
....................    int8 dato; 
6ABC:  SLEEP 
....................    dato= D7*128 + D6*64 + D5*32 + D4*16 + D3*8 + D2*4 + D1*2 +D0*1; // 0 al 255  
*
11B2:  MOVLB  1
11B4:  MOVF   x15,W
11B6:  MULLW  80
11B8:  MOVFF  FF3,117
11BC:  MOVF   x14,W
11BE:  MULLW  40
11C0:  MOVF   FF3,W
11C2:  ADDWF  x17,F
11C4:  MOVF   x13,W
11C6:  MULLW  20
11C8:  MOVF   FF3,W
11CA:  ADDWF  x17,F
11CC:  MOVF   x12,W
11CE:  MULLW  10
11D0:  MOVF   FF3,W
11D2:  ADDWF  x17,F
11D4:  MOVF   x11,W
11D6:  MULLW  08
11D8:  MOVF   FF3,W
11DA:  ADDWF  x17,F
11DC:  MOVF   x10,W
11DE:  MULLW  04
11E0:  MOVF   FF3,W
11E2:  ADDWF  x17,F
11E4:  BCF    FD8.0
11E6:  RLCF   x0F,W
11E8:  ADDWF  x17,W
11EA:  ADDWF  x0E,W
11EC:  MOVWF  x16
....................    return dato;  
11EE:  MOVFF  116,01
.................... } 
11F2:  MOVLB  0
11F4:  RETLW  00

Configuration Fuses:
   Word  1: CC3F   IESO FCMEN HS PLL12 CPUDIV4 USBDIV
   Word  2: 1E1F   BROWNOUT NOWDT BORV20 NOPUT WDT32768 NOVREGEN
   Word  3: 8700   PBADEN CCP2C1 MCLR LPT1OSC
   Word  4: 0080   NOSTVREN NODEBUG NOLVP NOXINST NOICPRT
   Word  5: C00F   NOPROTECT NOCPD NOCPB
   Word  6: E00F   NOWRT NOWRTD NOWRTC NOWRTB
   Word  7: 400F   NOEBTR NOEBTRB
