CCS PCH C Compiler, Version 4.104, 5967               03-oct.-19 17:38

               Filename: H:\JP\JP\Laboratorio\Cabina Extractora de Gases y  Humos\2019\Cabina Extractora Con Filtros GLCD #0045879XX OP2019114\Firmware\Maestro_v2.lst

               ROM used: 39460 bytes (40%)
                         Largest free fragment is 32768
               RAM used: 1513 (45%) at main() level
                         1588 (48%) worst case
               Stack:    8 worst case (6 in main + 2 for interrupts)

*
00000:  GOTO   5FA0
*
00008:  MOVWF  04
0000A:  MOVFF  FD8,05
0000E:  MOVFF  FE0,06
00012:  MOVLB  0
00014:  MOVFF  FE9,0C
00018:  MOVFF  FEA,07
0001C:  MOVFF  FE1,08
00020:  MOVFF  FE2,09
00024:  MOVFF  FD9,0A
00028:  MOVFF  FDA,0B
0002C:  MOVFF  FF3,12
00030:  MOVFF  FF4,13
00034:  MOVFF  FFA,14
00038:  MOVFF  FFB,15
0003C:  MOVFF  00,0E
00040:  MOVFF  01,0F
00044:  MOVFF  02,10
00048:  MOVFF  03,11
0004C:  BTFSS  FF2.4
0004E:  GOTO   0058
00052:  BTFSC  FF2.1
00054:  GOTO   12D2
00058:  MOVFF  0E,00
0005C:  MOVFF  0F,01
00060:  MOVFF  10,02
00064:  MOVFF  11,03
00068:  MOVFF  0C,FE9
0006C:  MOVFF  07,FEA
00070:  BSF    07.7
00072:  MOVFF  08,FE1
00076:  MOVFF  09,FE2
0007A:  MOVFF  0A,FD9
0007E:  MOVFF  0B,FDA
00082:  MOVFF  12,FF3
00086:  MOVFF  13,FF4
0008A:  MOVFF  14,FFA
0008E:  MOVFF  15,FFB
00092:  MOVF   04,W
00094:  MOVFF  06,FE0
00098:  MOVFF  05,FD8
0009C:  RETFIE 0
.................... //Programa para Cabina de Bioseguridad 
....................  
.................... #include <18F4685.h> 
.................... //////// Standard Header file for the PIC18F4685 device //////////////// 
.................... #device PIC18F4685 
.................... #list 
....................  
.................... #device adc=10 
.................... #fuses HS,NOWDT,NOPROTECT,NOLVP,NODEBUG,NOSTVREN,NOPUT,NOCPD,NOWRT,NOIESO,NOFCMEN,NOPBADEN,NOWRTC,NOWRTB,NOEBTR,NOEBTRB,NOCPB,NOXINST,NOLPT1OSC,NOMCLR 
.................... #use delay(clock=20000000) 
*
012B2:  MOVLW  03
012B4:  MOVLB  6
012B6:  SUBWF  x33,F
012B8:  BNC   12CE
012BA:  MOVLW  06
012BC:  MOVWF  FEA
012BE:  MOVLW  33
012C0:  MOVWF  FE9
012C2:  MOVF   FEF,W
012C4:  BZ    12CE
012C6:  BRA    12CA
012C8:  BRA    12CA
012CA:  DECFSZ FEF,F
012CC:  BRA    12C8
012CE:  MOVLB  0
012D0:  RETLW  00
*
01394:  MOVLW  05
01396:  MOVWF  FEA
01398:  MOVLW  F9
0139A:  MOVWF  FE9
0139C:  MOVF   FEF,W
0139E:  BZ    13BA
013A0:  MOVLW  06
013A2:  MOVWF  01
013A4:  CLRF   00
013A6:  DECFSZ 00,F
013A8:  BRA    13A6
013AA:  DECFSZ 01,F
013AC:  BRA    13A4
013AE:  MOVLW  7B
013B0:  MOVWF  00
013B2:  DECFSZ 00,F
013B4:  BRA    13B2
013B6:  DECFSZ FEF,F
013B8:  BRA    13A0
013BA:  RETLW  00
.................... #include <MATH.h> 
.................... //////////////////////////////////////////////////////////////////////////// 
.................... ////        (C) Copyright 1996,2008 Custom Computer Services            //// 
.................... //// This source code may only be used by licensed users of the CCS C   //// 
.................... //// compiler.  This source code may only be distributed to other       //// 
.................... //// licensed users of the CCS C compiler.  No other use, reproduction  //// 
.................... //// or distribution is permitted without written permission.           //// 
.................... //// Derivative programs created using this software in object code     //// 
.................... //// form are not restricted in any way.                                //// 
.................... //////////////////////////////////////////////////////////////////////////// 
.................... ////                                                                    //// 
.................... //// History:                                                           //// 
.................... ////  * 9/20/2001 :  Improvments are made to sin/cos code.              //// 
.................... ////                 The code now is small, much faster,                //// 
.................... ////                 and more accurate.                                 //// 
.................... ////  * 2/21/2007 :  Compiler handles & operator differently and does 
.................... ////                 not return generic (int8 *) so type cast is done   //// 
.................... ////                                                                    //// 
.................... //////////////////////////////////////////////////////////////////////////// 
....................  
.................... #ifndef MATH_H 
.................... #define MATH_H 
....................  
.................... #ifdef PI 
.................... #undef  PI 
.................... #endif 
.................... #define PI     3.1415926535897932 
....................  
....................  
.................... #define SQRT2  1.4142135623730950 
....................  
.................... //float const ps[4] = {5.9304945, 21.125224, 8.9403076, 0.29730279}; 
.................... //float const qs[4] = {1.0000000, 15.035723, 17.764134, 2.4934718}; 
....................  
.................... ///////////////////////////// Round Functions ////////////////////////////// 
....................  
.................... float32 CEIL_FLOOR(float32 x, unsigned int8 n) 
.................... { 
....................    float32 y, res; 
....................    unsigned int16 l; 
....................    int1 s; 
....................  
....................    s = 0; 
*
02FC8:  MOVLB  6
02FCA:  BCF    x15.0
....................    y = x; 
02FCC:  MOVFF  609,60E
02FD0:  MOVFF  608,60D
02FD4:  MOVFF  607,60C
02FD8:  MOVFF  606,60B
....................  
....................    if (x < 0) 
02FDC:  MOVFF  609,619
02FE0:  MOVFF  608,618
02FE4:  MOVFF  607,617
02FE8:  MOVFF  606,616
02FEC:  CLRF   x1D
02FEE:  CLRF   x1C
02FF0:  CLRF   x1B
02FF2:  CLRF   x1A
02FF4:  MOVLB  0
02FF6:  CALL   2452
02FFA:  BNC   3006
....................    { 
....................       s = 1; 
02FFC:  MOVLB  6
02FFE:  BSF    x15.0
....................       y = -y; 
03000:  MOVF   x0C,W
03002:  XORLW  80
03004:  MOVWF  x0C
....................    } 
....................  
....................    if (y <= 32768.0) 
03006:  MOVFF  60E,619
0300A:  MOVFF  60D,618
0300E:  MOVFF  60C,617
03012:  MOVFF  60B,616
03016:  MOVLB  6
03018:  CLRF   x1D
0301A:  CLRF   x1C
0301C:  CLRF   x1B
0301E:  MOVLW  8E
03020:  MOVWF  x1A
03022:  MOVLB  0
03024:  CALL   2452
03028:  BC    302C
0302A:  BNZ   305C
....................   res = (float32)(unsigned int16)y; 
0302C:  MOVFF  60E,619
03030:  MOVFF  60D,618
03034:  MOVFF  60C,617
03038:  MOVFF  60B,616
0303C:  RCALL  2E96
0303E:  MOVFF  02,61B
03042:  MOVFF  01,61A
03046:  CALL   18BE
0304A:  MOVFF  03,612
0304E:  MOVFF  02,611
03052:  MOVFF  01,610
03056:  MOVFF  00,60F
....................  
....................  else if (y < 10000000.0) 
0305A:  BRA    31FA
0305C:  MOVFF  60E,619
03060:  MOVFF  60D,618
03064:  MOVFF  60C,617
03068:  MOVFF  60B,616
0306C:  MOVLW  80
0306E:  MOVLB  6
03070:  MOVWF  x1D
03072:  MOVLW  96
03074:  MOVWF  x1C
03076:  MOVLW  18
03078:  MOVWF  x1B
0307A:  MOVLW  96
0307C:  MOVWF  x1A
0307E:  MOVLB  0
03080:  CALL   2452
03084:  BTFSS  FD8.0
03086:  BRA    31EA
....................    { 
....................   l = (unsigned int16)(y/32768.0); 
03088:  MOVFF  60E,619
0308C:  MOVFF  60D,618
03090:  MOVFF  60C,617
03094:  MOVFF  60B,616
03098:  MOVLB  6
0309A:  CLRF   x1D
0309C:  CLRF   x1C
0309E:  CLRF   x1B
030A0:  MOVLW  8E
030A2:  MOVWF  x1A
030A4:  MOVLB  0
030A6:  CALL   18F4
030AA:  MOVFF  03,619
030AE:  MOVFF  02,618
030B2:  MOVFF  01,617
030B6:  MOVFF  00,616
030BA:  RCALL  2E96
030BC:  MOVFF  02,614
030C0:  MOVFF  01,613
....................       y = 32768.0*(y/32768.0 - (float32)l); 
030C4:  MOVFF  60E,619
030C8:  MOVFF  60D,618
030CC:  MOVFF  60C,617
030D0:  MOVFF  60B,616
030D4:  MOVLB  6
030D6:  CLRF   x1D
030D8:  CLRF   x1C
030DA:  CLRF   x1B
030DC:  MOVLW  8E
030DE:  MOVWF  x1A
030E0:  MOVLB  0
030E2:  CALL   18F4
030E6:  MOVFF  00,616
030EA:  MOVFF  01,617
030EE:  MOVFF  02,618
030F2:  MOVFF  03,619
030F6:  MOVFF  614,61B
030FA:  MOVFF  613,61A
030FE:  CALL   18BE
03102:  BSF    FD8.1
03104:  MOVFF  619,61D
03108:  MOVFF  618,61C
0310C:  MOVFF  617,61B
03110:  MOVFF  616,61A
03114:  MOVFF  03,621
03118:  MOVFF  02,620
0311C:  MOVFF  01,61F
03120:  MOVFF  00,61E
03124:  CALL   1A52
03128:  MOVLB  6
0312A:  CLRF   x19
0312C:  CLRF   x18
0312E:  CLRF   x17
03130:  MOVLW  8E
03132:  MOVWF  x16
03134:  MOVFF  03,61D
03138:  MOVFF  02,61C
0313C:  MOVFF  01,61B
03140:  MOVFF  00,61A
03144:  MOVLB  0
03146:  RCALL  2ED2
03148:  MOVFF  03,60E
0314C:  MOVFF  02,60D
03150:  MOVFF  01,60C
03154:  MOVFF  00,60B
....................   res = 32768.0*(float32)l; 
03158:  MOVFF  614,61B
0315C:  MOVFF  613,61A
03160:  CALL   18BE
03164:  MOVLB  6
03166:  CLRF   x19
03168:  CLRF   x18
0316A:  CLRF   x17
0316C:  MOVLW  8E
0316E:  MOVWF  x16
03170:  MOVFF  03,61D
03174:  MOVFF  02,61C
03178:  MOVFF  01,61B
0317C:  MOVFF  00,61A
03180:  MOVLB  0
03182:  RCALL  2ED2
03184:  MOVFF  03,612
03188:  MOVFF  02,611
0318C:  MOVFF  01,610
03190:  MOVFF  00,60F
....................   res += (float32)(unsigned int16)y; 
03194:  MOVFF  60E,619
03198:  MOVFF  60D,618
0319C:  MOVFF  60C,617
031A0:  MOVFF  60B,616
031A4:  RCALL  2E96
031A6:  MOVFF  02,61B
031AA:  MOVFF  01,61A
031AE:  CALL   18BE
031B2:  BCF    FD8.1
031B4:  MOVFF  612,61D
031B8:  MOVFF  611,61C
031BC:  MOVFF  610,61B
031C0:  MOVFF  60F,61A
031C4:  MOVFF  03,621
031C8:  MOVFF  02,620
031CC:  MOVFF  01,61F
031D0:  MOVFF  00,61E
031D4:  CALL   1A52
031D8:  MOVFF  03,612
031DC:  MOVFF  02,611
031E0:  MOVFF  01,610
031E4:  MOVFF  00,60F
....................  } 
....................  
....................  else 
031E8:  BRA    31FA
....................   res = y; 
031EA:  MOVFF  60E,612
031EE:  MOVFF  60D,611
031F2:  MOVFF  60C,610
031F6:  MOVFF  60B,60F
....................  
....................  y = y - (float32)(unsigned int16)y; 
031FA:  MOVFF  60E,619
031FE:  MOVFF  60D,618
03202:  MOVFF  60C,617
03206:  MOVFF  60B,616
0320A:  RCALL  2E96
0320C:  MOVFF  02,61B
03210:  MOVFF  01,61A
03214:  CALL   18BE
03218:  BSF    FD8.1
0321A:  MOVFF  60E,61D
0321E:  MOVFF  60D,61C
03222:  MOVFF  60C,61B
03226:  MOVFF  60B,61A
0322A:  MOVFF  03,621
0322E:  MOVFF  02,620
03232:  MOVFF  01,61F
03236:  MOVFF  00,61E
0323A:  CALL   1A52
0323E:  MOVFF  03,60E
03242:  MOVFF  02,60D
03246:  MOVFF  01,60C
0324A:  MOVFF  00,60B
....................  
....................  if (s) 
0324E:  MOVLB  6
03250:  BTFSS  x15.0
03252:  BRA    325A
....................   res = -res; 
03254:  MOVF   x10,W
03256:  XORLW  80
03258:  MOVWF  x10
....................  
....................  if (y != 0) 
0325A:  MOVFF  60E,619
0325E:  MOVFF  60D,618
03262:  MOVFF  60C,617
03266:  MOVFF  60B,616
0326A:  CLRF   x1D
0326C:  CLRF   x1C
0326E:  CLRF   x1B
03270:  CLRF   x1A
03272:  MOVLB  0
03274:  CALL   2452
03278:  BZ    32F2
....................  { 
....................   if (s == 1 && n == 0) 
0327A:  MOVLB  6
0327C:  BTFSS  x15.0
0327E:  BRA    32B8
03280:  MOVF   x0A,F
03282:  BNZ   32B8
....................    res -= 1.0; 
03284:  BSF    FD8.1
03286:  MOVFF  612,61D
0328A:  MOVFF  611,61C
0328E:  MOVFF  610,61B
03292:  MOVFF  60F,61A
03296:  CLRF   x21
03298:  CLRF   x20
0329A:  CLRF   x1F
0329C:  MOVLW  7F
0329E:  MOVWF  x1E
032A0:  MOVLB  0
032A2:  CALL   1A52
032A6:  MOVFF  03,612
032AA:  MOVFF  02,611
032AE:  MOVFF  01,610
032B2:  MOVFF  00,60F
032B6:  MOVLB  6
....................  
....................   if (s == 0 && n == 1) 
032B8:  BTFSC  x15.0
032BA:  BRA    32F4
032BC:  DECFSZ x0A,W
032BE:  BRA    32F4
....................    res += 1.0; 
032C0:  BCF    FD8.1
032C2:  MOVFF  612,61D
032C6:  MOVFF  611,61C
032CA:  MOVFF  610,61B
032CE:  MOVFF  60F,61A
032D2:  CLRF   x21
032D4:  CLRF   x20
032D6:  CLRF   x1F
032D8:  MOVLW  7F
032DA:  MOVWF  x1E
032DC:  MOVLB  0
032DE:  CALL   1A52
032E2:  MOVFF  03,612
032E6:  MOVFF  02,611
032EA:  MOVFF  01,610
032EE:  MOVFF  00,60F
032F2:  MOVLB  6
....................  } 
....................  if (x == 0) 
032F4:  MOVFF  609,619
032F8:  MOVFF  608,618
032FC:  MOVFF  607,617
03300:  MOVFF  606,616
03304:  CLRF   x1D
03306:  CLRF   x1C
03308:  CLRF   x1B
0330A:  CLRF   x1A
0330C:  MOVLB  0
0330E:  CALL   2452
03312:  BNZ   3320
....................     res = 0; 
03314:  MOVLB  6
03316:  CLRF   x12
03318:  CLRF   x11
0331A:  CLRF   x10
0331C:  CLRF   x0F
0331E:  MOVLB  0
....................  
....................  return (res); 
03320:  MOVFF  60F,00
03324:  MOVFF  610,01
03328:  MOVFF  611,02
0332C:  MOVFF  612,03
.................... } 
03330:  RETLW  00
....................  
.................... // Overloaded Functions to take care for new Data types in PCD 
.................... // Overloaded function CEIL_FLOOR() for data type - Float48 
.................... #if defined(__PCD__) 
.................... float48 CEIL_FLOOR(float48 x, unsigned int8 n) 
.................... { 
....................    float48 y, res; 
....................    unsigned int16 l; 
....................    int1 s; 
....................  
....................    s = 0; 
....................    y = x; 
....................  
....................    if (x < 0) 
....................    { 
....................       s = 1; 
....................       y = -y; 
....................    } 
....................  
....................    if (y <= 32768.0) 
....................   res = (float48)(unsigned int16)y; 
....................  
....................  else if (y < 10000000.0) 
....................    { 
....................   l = (unsigned int16)(y/32768.0); 
....................       y = 32768.0*(y/32768.0 - (float48)l); 
....................   res = 32768.0*(float32)l; 
....................   res += (float48)(unsigned int16)y; 
....................  } 
....................  
....................  else 
....................   res = y; 
....................  
....................  y = y - (float48)(unsigned int16)y; 
....................  
....................  if (s) 
....................   res = -res; 
....................  
....................  if (y != 0) 
....................  { 
....................   if (s == 1 && n == 0) 
....................    res -= 1.0; 
....................  
....................   if (s == 0 && n == 1) 
....................    res += 1.0; 
....................  } 
....................  if (x == 0) 
....................     res = 0; 
....................  
....................  return (res); 
.................... } 
....................  
....................  
.................... // Overloaded function CEIL_FLOOR() for data type - Float64 
.................... float64 CEIL_FLOOR(float64 x, unsigned int8 n) 
.................... { 
....................    float64 y, res; 
....................    unsigned int16 l; 
....................    int1 s; 
....................  
....................    s = 0; 
....................    y = x; 
....................  
....................    if (x < 0) 
....................    { 
....................       s = 1; 
....................       y = -y; 
....................    } 
....................  
....................    if (y <= 32768.0) 
....................   res = (float64)(unsigned int16)y; 
....................  
....................  else if (y < 10000000.0) 
....................    { 
....................   l = (unsigned int16)(y/32768.0); 
....................       y = 32768.0*(y/32768.0 - (float64)l); 
....................   res = 32768.0*(float64)l; 
....................   res += (float64)(unsigned int16)y; 
....................  } 
....................  
....................  else 
....................   res = y; 
....................  
....................  y = y - (float64)(unsigned int16)y; 
....................  
....................  if (s) 
....................   res = -res; 
....................  
....................  if (y != 0) 
....................  { 
....................   if (s == 1 && n == 0) 
....................    res -= 1.0; 
....................  
....................   if (s == 0 && n == 1) 
....................    res += 1.0; 
....................  } 
....................  if (x == 0) 
....................     res = 0; 
....................  
....................  return (res); 
.................... } 
.................... #endif 
....................  
.................... //////////////////////////////////////////////////////////////////////////// 
.................... //   float floor(float x) 
.................... //////////////////////////////////////////////////////////////////////////// 
.................... // Description : rounds down the number x. 
.................... // Date : N/A 
.................... // 
.................... float32 floor(float32 x) 
.................... { 
....................    return CEIL_FLOOR(x, 0); 
*
03350:  MOVFF  605,609
03354:  MOVFF  604,608
03358:  MOVFF  603,607
0335C:  MOVFF  602,606
03360:  MOVLB  6
03362:  CLRF   x0A
03364:  MOVLB  0
03366:  RCALL  2FC8
.................... } 
03368:  GOTO   3474 (RETURN)
.................... // Following 2 functions are overloaded functions of floor() for PCD 
.................... // Overloaded function floor() for data type - Float48 
.................... #if defined(__PCD__) 
.................... float48 floor(float48 x) 
.................... { 
....................    return CEIL_FLOOR(x, 0); 
.................... } 
....................  
.................... // Overloaded function floor() for data type - Float64 
.................... float64 floor(float64 x) 
.................... { 
....................    return CEIL_FLOOR(x, 0); 
.................... } 
.................... #endif 
....................  
....................  
.................... //////////////////////////////////////////////////////////////////////////// 
.................... //   float ceil(float x) 
.................... //////////////////////////////////////////////////////////////////////////// 
.................... // Description : rounds up the number x. 
.................... // Date : N/A 
.................... // 
.................... float32 ceil(float32 x) 
.................... { 
....................    return CEIL_FLOOR(x, 1); 
*
03332:  MOVFF  605,609
03336:  MOVFF  604,608
0333A:  MOVFF  603,607
0333E:  MOVFF  602,606
03342:  MOVLW  01
03344:  MOVLB  6
03346:  MOVWF  x0A
03348:  MOVLB  0
0334A:  RCALL  2FC8
.................... } 
0334C:  GOTO   342C (RETURN)
.................... // Following 2 functions are overloaded functions of ceil() for PCD 
.................... // Overloaded function ceil() for data type - Float48 
.................... #if defined(__PCD__) 
.................... float48 ceil(float48 x) 
.................... { 
....................    return CEIL_FLOOR(x, 1); 
.................... } 
....................  
.................... // Overloaded function ceil() for data type - Float64 
.................... float64 ceil(float64 x) 
.................... { 
....................    return CEIL_FLOOR(x, 1); 
.................... } 
.................... #endif 
....................  
....................  //////////////////////////////////////////////////////////////////////////// 
.................... //   float fabs(float x) 
.................... //////////////////////////////////////////////////////////////////////////// 
.................... // Description : Computes the absolute value of floating point number x 
.................... // Returns : returns the absolute value of x 
.................... // Date : N/A 
.................... // 
.................... #define fabs abs 
....................  
.................... //////////////////////////////////////////////////////////////////////////// 
.................... //   float fmod(float x) 
.................... //////////////////////////////////////////////////////////////////////////// 
.................... // Description : Computes the floating point remainder of x/y 
.................... // Returns : returns the value of x= i*y, for some integer i such that, if y 
.................... // is non zero, the result has the same isgn of x na dmagnitude less than the 
.................... // magnitude of y. If y is zero then a domain error occurs. 
.................... // Date : N/A 
.................... // 
....................  
.................... float fmod(float32 x,float32 y) 
.................... { 
....................    float32 i; 
....................    if (y!=0.0) 
*
0336C:  MOVFF  5F9,619
03370:  MOVFF  5F8,618
03374:  MOVFF  5F7,617
03378:  MOVFF  5F6,616
0337C:  MOVLB  6
0337E:  CLRF   x1D
03380:  CLRF   x1C
03382:  CLRF   x1B
03384:  CLRF   x1A
03386:  MOVLB  0
03388:  CALL   2452
0338C:  BTFSC  FD8.2
0338E:  BRA    34D0
....................    { 
....................       i=(x/y < 0.0)? ceil(x/y): floor(x/y); 
03390:  MOVFF  5F5,619
03394:  MOVFF  5F4,618
03398:  MOVFF  5F3,617
0339C:  MOVFF  5F2,616
033A0:  MOVFF  5F9,61D
033A4:  MOVFF  5F8,61C
033A8:  MOVFF  5F7,61B
033AC:  MOVFF  5F6,61A
033B0:  CALL   18F4
033B4:  MOVFF  00,5FE
033B8:  MOVFF  01,5FF
033BC:  MOVFF  02,600
033C0:  MOVFF  03,601
033C4:  MOVFF  03,619
033C8:  MOVFF  02,618
033CC:  MOVFF  01,617
033D0:  MOVFF  00,616
033D4:  MOVLB  6
033D6:  CLRF   x1D
033D8:  CLRF   x1C
033DA:  CLRF   x1B
033DC:  CLRF   x1A
033DE:  MOVLB  0
033E0:  CALL   2452
033E4:  BNC   342E
033E6:  MOVFF  5F5,619
033EA:  MOVFF  5F4,618
033EE:  MOVFF  5F3,617
033F2:  MOVFF  5F2,616
033F6:  MOVFF  5F9,61D
033FA:  MOVFF  5F8,61C
033FE:  MOVFF  5F7,61B
03402:  MOVFF  5F6,61A
03406:  CALL   18F4
0340A:  MOVFF  00,5FE
0340E:  MOVFF  01,5FF
03412:  MOVFF  02,600
03416:  MOVFF  03,601
0341A:  MOVFF  03,605
0341E:  MOVFF  02,604
03422:  MOVFF  01,603
03426:  MOVFF  00,602
0342A:  BRA    3332
0342C:  BRA    3474
0342E:  MOVFF  5F5,619
03432:  MOVFF  5F4,618
03436:  MOVFF  5F3,617
0343A:  MOVFF  5F2,616
0343E:  MOVFF  5F9,61D
03442:  MOVFF  5F8,61C
03446:  MOVFF  5F7,61B
0344A:  MOVFF  5F6,61A
0344E:  CALL   18F4
03452:  MOVFF  00,5FE
03456:  MOVFF  01,5FF
0345A:  MOVFF  02,600
0345E:  MOVFF  03,601
03462:  MOVFF  03,605
03466:  MOVFF  02,604
0346A:  MOVFF  01,603
0346E:  MOVFF  00,602
03472:  BRA    3350
03474:  MOVFF  03,5FD
03478:  MOVFF  02,5FC
0347C:  MOVFF  01,5FB
03480:  MOVFF  00,5FA
....................       return(x-(i*y)); 
03484:  MOVFF  5FD,619
03488:  MOVFF  5FC,618
0348C:  MOVFF  5FB,617
03490:  MOVFF  5FA,616
03494:  MOVFF  5F9,61D
03498:  MOVFF  5F8,61C
0349C:  MOVFF  5F7,61B
034A0:  MOVFF  5F6,61A
034A4:  RCALL  2ED2
034A6:  BSF    FD8.1
034A8:  MOVFF  5F5,61D
034AC:  MOVFF  5F4,61C
034B0:  MOVFF  5F3,61B
034B4:  MOVFF  5F2,61A
034B8:  MOVFF  03,621
034BC:  MOVFF  02,620
034C0:  MOVFF  01,61F
034C4:  MOVFF  00,61E
034C8:  CALL   1A52
034CC:  BRA    34D0
....................    } 
....................    else 
034CE:  BRA    34D0
....................    { 
....................    #ifdef _ERRNO 
....................    { 
....................       errno=EDOM; 
....................    } 
....................    #endif 
....................    } 
.................... } 
034D0:  RETLW  00
.................... //Overloaded function for fmod() for PCD 
.................... // Overloaded function fmod() for data type - Float48 
.................... #if defined(__PCD__) 
.................... float48 fmod(float48 x,float48 y) 
.................... { 
....................    float48 i; 
....................    if (y!=0.0) 
....................    { 
....................       i=(x/y < 0.0)? ceil(x/y): floor(x/y); 
....................       return(x-(i*y)); 
....................    } 
....................    else 
....................    { 
....................    #ifdef _ERRNO 
....................    { 
....................       errno=EDOM; 
....................    } 
....................    #endif 
....................    } 
.................... } 
.................... // Overloaded function fmod() for data type - Float64 
.................... float64 fmod(float64 x,float64 y) 
.................... { 
....................    float64 i; 
....................    if (y!=0.0) 
....................    { 
....................       i=(x/y < 0.0)? ceil(x/y): floor(x/y); 
....................       return(x-(i*y)); 
....................    } 
....................    else 
....................    { 
....................    #ifdef _ERRNO 
....................    { 
....................       errno=EDOM; 
....................    } 
....................    #endif 
....................    } 
.................... } 
.................... #endif 
.................... //////////////////// Exponential and logarithmic functions //////////////////// 
.................... //////////////////////////////////////////////////////////////////////////// 
.................... //   float exp(float x) 
.................... //////////////////////////////////////////////////////////////////////////// 
.................... // Description : returns the value (e^x) 
.................... // Date : N/A 
.................... // 
.................... #define LN2 0.6931471805599453 
....................  
.................... float const pe[6] = {0.000207455774, 0.00127100575, 0.00965065093, 
....................                      0.0554965651,  0.240227138,  0.693147172}; 
....................  
....................  
.................... float32 exp(float32 x) 
.................... { 
....................    float32 y, res, r; 
....................    #if defined(__PCD__) 
....................    int8 data1; 
....................    #endif 
....................    signed int8 n; 
....................    int1 s; 
....................    #ifdef _ERRNO 
....................    if(x > 88.722838) 
....................    { 
....................       errno=ERANGE; 
....................       return(0); 
....................    } 
....................    #endif 
....................    n = (signed int16)(x/LN2); 
*
039FE:  MOVFF  5F9,619
03A02:  MOVFF  5F8,618
03A06:  MOVFF  5F7,617
03A0A:  MOVFF  5F6,616
03A0E:  MOVLW  18
03A10:  MOVLB  6
03A12:  MOVWF  x1D
03A14:  MOVLW  72
03A16:  MOVWF  x1C
03A18:  MOVLW  31
03A1A:  MOVWF  x1B
03A1C:  MOVLW  7E
03A1E:  MOVWF  x1A
03A20:  MOVLB  0
03A22:  CALL   18F4
03A26:  MOVFF  03,619
03A2A:  MOVFF  02,618
03A2E:  MOVFF  01,617
03A32:  MOVFF  00,616
03A36:  CALL   2E96
03A3A:  MOVFF  01,606
....................    s = 0; 
03A3E:  MOVLB  6
03A40:  BCF    x07.0
....................    y = x; 
03A42:  MOVFF  5F9,5FD
03A46:  MOVFF  5F8,5FC
03A4A:  MOVFF  5F7,5FB
03A4E:  MOVFF  5F6,5FA
....................  
....................    if (x < 0) 
03A52:  MOVFF  5F9,619
03A56:  MOVFF  5F8,618
03A5A:  MOVFF  5F7,617
03A5E:  MOVFF  5F6,616
03A62:  CLRF   x1D
03A64:  CLRF   x1C
03A66:  CLRF   x1B
03A68:  CLRF   x1A
03A6A:  MOVLB  0
03A6C:  CALL   2452
03A70:  BNC   3A80
....................    { 
....................       s = 1; 
03A72:  MOVLB  6
03A74:  BSF    x07.0
....................       n = -n; 
03A76:  NEGF   x06
....................       y = -y; 
03A78:  MOVLB  5
03A7A:  MOVF   xFB,W
03A7C:  XORLW  80
03A7E:  MOVWF  xFB
....................    } 
....................  
....................    res = 0.0; 
03A80:  MOVLB  6
03A82:  CLRF   x01
03A84:  CLRF   x00
03A86:  MOVLB  5
03A88:  CLRF   xFF
03A8A:  CLRF   xFE
.................... #if !defined(__PCD__) 
....................    *((unsigned int8 *)(&res)) = n + 0x7F; 
03A8C:  MOVLW  05
03A8E:  MOVLB  6
03A90:  MOVWF  x09
03A92:  MOVLW  FE
03A94:  MOVWF  FE9
03A96:  MOVFF  609,FEA
03A9A:  MOVLW  7F
03A9C:  ADDWF  x06,W
03A9E:  MOVWF  FEF
.................... #endif 
....................  
.................... #if defined(__PCD__)  // Takes care of IEEE format for PCD 
....................    data1 = n+0x7F; 
....................    if(bit_test(data1,0)) 
....................    bit_set(*(((unsigned int8 *)(&res)+2)),7); 
....................    rotate_right(&data1,1); 
....................    bit_clear(data1,7); 
....................    *(((unsigned int8 *)(&res)+3)) = data1; 
.................... #endif 
....................  
....................    y = y/LN2 - (float32)n; 
03AA0:  MOVFF  5FD,619
03AA4:  MOVFF  5FC,618
03AA8:  MOVFF  5FB,617
03AAC:  MOVFF  5FA,616
03AB0:  MOVLW  18
03AB2:  MOVWF  x1D
03AB4:  MOVLW  72
03AB6:  MOVWF  x1C
03AB8:  MOVLW  31
03ABA:  MOVWF  x1B
03ABC:  MOVLW  7E
03ABE:  MOVWF  x1A
03AC0:  MOVLB  0
03AC2:  CALL   18F4
03AC6:  MOVFF  00,608
03ACA:  MOVFF  01,609
03ACE:  MOVFF  02,60A
03AD2:  MOVFF  03,60B
03AD6:  MOVLB  6
03AD8:  CLRF   x0D
03ADA:  MOVFF  606,60C
03ADE:  BTFSC  x0C.7
03AE0:  DECF   x0D,F
03AE2:  MOVLB  0
03AE4:  RCALL  34D2
03AE6:  BSF    FD8.1
03AE8:  MOVFF  60B,61D
03AEC:  MOVFF  60A,61C
03AF0:  MOVFF  609,61B
03AF4:  MOVFF  608,61A
03AF8:  MOVFF  03,621
03AFC:  MOVFF  02,620
03B00:  MOVFF  01,61F
03B04:  MOVFF  00,61E
03B08:  CALL   1A52
03B0C:  MOVFF  03,5FD
03B10:  MOVFF  02,5FC
03B14:  MOVFF  01,5FB
03B18:  MOVFF  00,5FA
....................  
....................    r = pe[0]*y + pe[1]; 
03B1C:  MOVLW  7C
03B1E:  MOVLB  6
03B20:  MOVWF  x19
03B22:  MOVLW  88
03B24:  MOVWF  x18
03B26:  MOVLW  59
03B28:  MOVWF  x17
03B2A:  MOVLW  72
03B2C:  MOVWF  x16
03B2E:  MOVFF  5FD,61D
03B32:  MOVFF  5FC,61C
03B36:  MOVFF  5FB,61B
03B3A:  MOVFF  5FA,61A
03B3E:  MOVLB  0
03B40:  CALL   2ED2
03B44:  MOVFF  00,608
03B48:  MOVFF  01,609
03B4C:  MOVFF  02,60A
03B50:  MOVFF  03,60B
03B54:  BCF    FD8.1
03B56:  MOVFF  03,61D
03B5A:  MOVFF  02,61C
03B5E:  MOVFF  01,61B
03B62:  MOVFF  00,61A
03B66:  MOVLW  E0
03B68:  MOVLB  6
03B6A:  MOVWF  x21
03B6C:  MOVLW  97
03B6E:  MOVWF  x20
03B70:  MOVLW  26
03B72:  MOVWF  x1F
03B74:  MOVLW  75
03B76:  MOVWF  x1E
03B78:  MOVLB  0
03B7A:  CALL   1A52
03B7E:  MOVFF  03,605
03B82:  MOVFF  02,604
03B86:  MOVFF  01,603
03B8A:  MOVFF  00,602
....................    r = r*y + pe[2]; 
03B8E:  MOVFF  605,619
03B92:  MOVFF  604,618
03B96:  MOVFF  603,617
03B9A:  MOVFF  602,616
03B9E:  MOVFF  5FD,61D
03BA2:  MOVFF  5FC,61C
03BA6:  MOVFF  5FB,61B
03BAA:  MOVFF  5FA,61A
03BAE:  CALL   2ED2
03BB2:  MOVFF  00,608
03BB6:  MOVFF  01,609
03BBA:  MOVFF  02,60A
03BBE:  MOVFF  03,60B
03BC2:  BCF    FD8.1
03BC4:  MOVFF  03,61D
03BC8:  MOVFF  02,61C
03BCC:  MOVFF  01,61B
03BD0:  MOVFF  00,61A
03BD4:  MOVLW  C4
03BD6:  MOVLB  6
03BD8:  MOVWF  x21
03BDA:  MOVLW  1D
03BDC:  MOVWF  x20
03BDE:  MOVLW  1E
03BE0:  MOVWF  x1F
03BE2:  MOVLW  78
03BE4:  MOVWF  x1E
03BE6:  MOVLB  0
03BE8:  CALL   1A52
03BEC:  MOVFF  03,605
03BF0:  MOVFF  02,604
03BF4:  MOVFF  01,603
03BF8:  MOVFF  00,602
....................    r = r*y + pe[3]; 
03BFC:  MOVFF  605,619
03C00:  MOVFF  604,618
03C04:  MOVFF  603,617
03C08:  MOVFF  602,616
03C0C:  MOVFF  5FD,61D
03C10:  MOVFF  5FC,61C
03C14:  MOVFF  5FB,61B
03C18:  MOVFF  5FA,61A
03C1C:  CALL   2ED2
03C20:  MOVFF  00,608
03C24:  MOVFF  01,609
03C28:  MOVFF  02,60A
03C2C:  MOVFF  03,60B
03C30:  BCF    FD8.1
03C32:  MOVFF  03,61D
03C36:  MOVFF  02,61C
03C3A:  MOVFF  01,61B
03C3E:  MOVFF  00,61A
03C42:  MOVLW  5E
03C44:  MOVLB  6
03C46:  MOVWF  x21
03C48:  MOVLW  50
03C4A:  MOVWF  x20
03C4C:  MOVLW  63
03C4E:  MOVWF  x1F
03C50:  MOVLW  7A
03C52:  MOVWF  x1E
03C54:  MOVLB  0
03C56:  CALL   1A52
03C5A:  MOVFF  03,605
03C5E:  MOVFF  02,604
03C62:  MOVFF  01,603
03C66:  MOVFF  00,602
....................    r = r*y + pe[4]; 
03C6A:  MOVFF  605,619
03C6E:  MOVFF  604,618
03C72:  MOVFF  603,617
03C76:  MOVFF  602,616
03C7A:  MOVFF  5FD,61D
03C7E:  MOVFF  5FC,61C
03C82:  MOVFF  5FB,61B
03C86:  MOVFF  5FA,61A
03C8A:  CALL   2ED2
03C8E:  MOVFF  00,608
03C92:  MOVFF  01,609
03C96:  MOVFF  02,60A
03C9A:  MOVFF  03,60B
03C9E:  BCF    FD8.1
03CA0:  MOVFF  03,61D
03CA4:  MOVFF  02,61C
03CA8:  MOVFF  01,61B
03CAC:  MOVFF  00,61A
03CB0:  MOVLW  1A
03CB2:  MOVLB  6
03CB4:  MOVWF  x21
03CB6:  MOVLW  FE
03CB8:  MOVWF  x20
03CBA:  MOVLW  75
03CBC:  MOVWF  x1F
03CBE:  MOVLW  7C
03CC0:  MOVWF  x1E
03CC2:  MOVLB  0
03CC4:  CALL   1A52
03CC8:  MOVFF  03,605
03CCC:  MOVFF  02,604
03CD0:  MOVFF  01,603
03CD4:  MOVFF  00,602
....................    r = r*y + pe[5]; 
03CD8:  MOVFF  605,619
03CDC:  MOVFF  604,618
03CE0:  MOVFF  603,617
03CE4:  MOVFF  602,616
03CE8:  MOVFF  5FD,61D
03CEC:  MOVFF  5FC,61C
03CF0:  MOVFF  5FB,61B
03CF4:  MOVFF  5FA,61A
03CF8:  CALL   2ED2
03CFC:  MOVFF  00,608
03D00:  MOVFF  01,609
03D04:  MOVFF  02,60A
03D08:  MOVFF  03,60B
03D0C:  BCF    FD8.1
03D0E:  MOVFF  03,61D
03D12:  MOVFF  02,61C
03D16:  MOVFF  01,61B
03D1A:  MOVFF  00,61A
03D1E:  MOVLW  18
03D20:  MOVLB  6
03D22:  MOVWF  x21
03D24:  MOVLW  72
03D26:  MOVWF  x20
03D28:  MOVLW  31
03D2A:  MOVWF  x1F
03D2C:  MOVLW  7E
03D2E:  MOVWF  x1E
03D30:  MOVLB  0
03D32:  CALL   1A52
03D36:  MOVFF  03,605
03D3A:  MOVFF  02,604
03D3E:  MOVFF  01,603
03D42:  MOVFF  00,602
....................  
....................    res = res*(1.0 + y*r); 
03D46:  MOVFF  5FD,619
03D4A:  MOVFF  5FC,618
03D4E:  MOVFF  5FB,617
03D52:  MOVFF  5FA,616
03D56:  MOVFF  605,61D
03D5A:  MOVFF  604,61C
03D5E:  MOVFF  603,61B
03D62:  MOVFF  602,61A
03D66:  CALL   2ED2
03D6A:  BCF    FD8.1
03D6C:  MOVLB  6
03D6E:  CLRF   x1D
03D70:  CLRF   x1C
03D72:  CLRF   x1B
03D74:  MOVLW  7F
03D76:  MOVWF  x1A
03D78:  MOVFF  03,621
03D7C:  MOVFF  02,620
03D80:  MOVFF  01,61F
03D84:  MOVFF  00,61E
03D88:  MOVLB  0
03D8A:  CALL   1A52
03D8E:  MOVFF  601,619
03D92:  MOVFF  600,618
03D96:  MOVFF  5FF,617
03D9A:  MOVFF  5FE,616
03D9E:  MOVFF  03,61D
03DA2:  MOVFF  02,61C
03DA6:  MOVFF  01,61B
03DAA:  MOVFF  00,61A
03DAE:  CALL   2ED2
03DB2:  MOVFF  03,601
03DB6:  MOVFF  02,600
03DBA:  MOVFF  01,5FF
03DBE:  MOVFF  00,5FE
....................  
....................    if (s) 
03DC2:  MOVLB  6
03DC4:  BTFSS  x07.0
03DC6:  BRA    3DFA
....................       res = 1.0/res; 
03DC8:  CLRF   x19
03DCA:  CLRF   x18
03DCC:  CLRF   x17
03DCE:  MOVLW  7F
03DD0:  MOVWF  x16
03DD2:  MOVFF  601,61D
03DD6:  MOVFF  600,61C
03DDA:  MOVFF  5FF,61B
03DDE:  MOVFF  5FE,61A
03DE2:  MOVLB  0
03DE4:  CALL   18F4
03DE8:  MOVFF  03,601
03DEC:  MOVFF  02,600
03DF0:  MOVFF  01,5FF
03DF4:  MOVFF  00,5FE
03DF8:  MOVLB  6
....................    return(res); 
03DFA:  MOVFF  5FE,00
03DFE:  MOVFF  5FF,01
03E02:  MOVFF  600,02
03E06:  MOVFF  601,03
.................... } 
03E0A:  MOVLB  0
03E0C:  RETLW  00
....................  
....................  
.................... //Overloaded function for exp() for PCD 
.................... // Overloaded function exp() for data type - Float48 
.................... #if defined(__PCD__) 
.................... float48 exp(float48 x) 
.................... { 
....................    float48 y, res, r; 
....................    int8 data1; 
....................    signed int8 n; 
....................    int1 s; 
....................    #ifdef _ERRNO 
....................    if(x > 88.722838) 
....................    { 
....................       errno=ERANGE; 
....................       return(0); 
....................    } 
....................    #endif 
....................    n = (signed int16)(x/LN2); 
....................    s = 0; 
....................    y = x; 
....................  
....................    if (x < 0) 
....................    { 
....................       s = 1; 
....................       n = -n; 
....................       y = -y; 
....................    } 
....................  
....................    res = 0.0; 
....................  
....................    data1 = n+0x7F; 
....................    if(bit_test(data1,0)) 
....................    bit_set(*(((unsigned int8 *)(&res)+4)),7); 
....................    rotate_right(&data1,1); 
....................    bit_clear(data1,7); 
....................    *(((unsigned int8 *)(&res)+5)) = data1; 
....................  
....................    y = y/LN2 - (float48)n; 
....................  
....................    r = pe[0]*y + pe[1]; 
....................    r = r*y + pe[2]; 
....................    r = r*y + pe[3]; 
....................    r = r*y + pe[4]; 
....................    r = r*y + pe[5]; 
....................  
....................    res = res*(1.0 + y*r); 
....................  
....................    if (s) 
....................       res = 1.0/res; 
....................    return(res); 
.................... } 
....................  
.................... // Overloaded function exp() for data type - Float64 
.................... float64 exp(float64 x) 
.................... { 
....................    float64 y, res, r; 
....................    unsigned int16 data1, data2; 
....................    unsigned int16 *p; 
....................    signed int16 n; 
....................    int1 s; 
....................    #ifdef _ERRNO 
....................    if(x > 709.7827128) 
....................    { 
....................       errno=ERANGE; 
....................       return(0); 
....................    } 
....................    #endif 
....................    n = (signed int16)(x/LN2); 
....................    s = 0; 
....................    y = x; 
....................  
....................    if (x < 0) 
....................    { 
....................       s = 1; 
....................       n = -n; 
....................       y = -y; 
....................    } 
....................  
....................    res = 0.0; 
....................  
.................... #if !defined(__PCD__) 
....................    *((unsigned int16 *)(&res)) = n + 0x7F; 
.................... #endif 
....................    p= (((unsigned int16 *)(&res))+3); 
....................    data1 = *p; 
....................    data2 = *p;    
....................    data1 = n + 0x3FF; 
....................    data1 = data1 <<4; 
....................    if(bit_test(data2,15)) 
....................    bit_set(data1,15); 
....................    data2 = data2 & 0x000F; 
....................    data1 ^= data2; 
....................  
....................    *(((unsigned int16 *)(&res)+3)) = data1; 
....................  
....................  
....................    y = y/LN2 - (float64)n; 
....................  
....................    r = pe[0]*y + pe[1]; 
....................    r = r*y + pe[2]; 
....................    r = r*y + pe[3]; 
....................    r = r*y + pe[4]; 
....................    r = r*y + pe[5]; 
....................  
....................    res = res*(1.0 + y*r); 
....................  
....................    if (s) 
....................       res = 1.0/res; 
....................    return(res); 
.................... } 
....................  
.................... #ENDIF 
....................  
....................  
.................... /************************************************************/ 
....................  
.................... float32 const pl[4] = {0.45145214, -9.0558803, 26.940971, -19.860189}; 
.................... float32 const ql[4] = {1.0000000,  -8.1354259, 16.780517, -9.9300943}; 
....................  
.................... //////////////////////////////////////////////////////////////////////////// 
.................... //   float log(float x) 
.................... //////////////////////////////////////////////////////////////////////////// 
.................... // Description : returns the the natural log of x 
.................... // Date : N/A 
.................... // 
.................... float32 log(float32 x) 
.................... { 
....................    float32 y, res, r, y2; 
....................    #if defined(__PCD__) 
....................    unsigned int8  data1,data2; 
....................    #endif 
....................    signed int8 n; 
....................    #ifdef _ERRNO 
....................    if(x <0) 
....................    { 
....................       errno=EDOM; 
....................    } 
....................    if(x ==0) 
....................    { 
....................       errno=ERANGE; 
....................       return(0); 
....................    } 
....................    #endif 
....................    y = x; 
*
03522:  MOVFF  5F9,5FD
03526:  MOVFF  5F8,5FC
0352A:  MOVFF  5F7,5FB
0352E:  MOVFF  5F6,5FA
....................  
....................    if (y != 1.0) 
03532:  MOVFF  5FD,619
03536:  MOVFF  5FC,618
0353A:  MOVFF  5FB,617
0353E:  MOVFF  5FA,616
03542:  MOVLB  6
03544:  CLRF   x1D
03546:  CLRF   x1C
03548:  CLRF   x1B
0354A:  MOVLW  7F
0354C:  MOVWF  x1A
0354E:  MOVLB  0
03550:  CALL   2452
03554:  BTFSC  FD8.2
03556:  BRA    39DE
....................    { 
.................... #if !defined(__PCD__) 
....................     *((unsigned int8 *)(&y)) = 0x7E;  
03558:  MOVLW  05
0355A:  MOVLB  6
0355C:  MOVWF  x0C
0355E:  MOVLW  FA
03560:  MOVWF  FE9
03562:  MOVFF  60C,FEA
03566:  MOVLW  7E
03568:  MOVWF  FEF
.................... #endif 
....................  
.................... #if defined(__PCD__) // Takes care of IEEE format 
....................    data2 = *(((unsigned int8 *)(&y))+3); 
....................    *(((unsigned int8 *)(&y))+3) = 0x3F; 
....................    data1 = *(((unsigned int8 *)(&y))+2); 
....................    bit_clear(data1,7); 
....................    *(((unsigned int8 *)(&y))+2) = data1; 
....................    if(bit_test(data2,7)) 
....................    bit_set(*(((unsigned int8 *)(&y))+3),7); 
.................... #endif 
....................  
....................       y = (y - 1.0)/(y + 1.0); 
0356A:  BSF    FD8.1
0356C:  MOVFF  5FD,61D
03570:  MOVFF  5FC,61C
03574:  MOVFF  5FB,61B
03578:  MOVFF  5FA,61A
0357C:  CLRF   x21
0357E:  CLRF   x20
03580:  CLRF   x1F
03582:  MOVLW  7F
03584:  MOVWF  x1E
03586:  MOVLB  0
03588:  CALL   1A52
0358C:  MOVFF  00,60B
03590:  MOVFF  01,60C
03594:  MOVFF  02,60D
03598:  MOVFF  03,60E
0359C:  BCF    FD8.1
0359E:  MOVFF  5FD,61D
035A2:  MOVFF  5FC,61C
035A6:  MOVFF  5FB,61B
035AA:  MOVFF  5FA,61A
035AE:  MOVLB  6
035B0:  CLRF   x21
035B2:  CLRF   x20
035B4:  CLRF   x1F
035B6:  MOVLW  7F
035B8:  MOVWF  x1E
035BA:  MOVLB  0
035BC:  CALL   1A52
035C0:  MOVFF  60E,619
035C4:  MOVFF  60D,618
035C8:  MOVFF  60C,617
035CC:  MOVFF  60B,616
035D0:  MOVFF  03,61D
035D4:  MOVFF  02,61C
035D8:  MOVFF  01,61B
035DC:  MOVFF  00,61A
035E0:  CALL   18F4
035E4:  MOVFF  03,5FD
035E8:  MOVFF  02,5FC
035EC:  MOVFF  01,5FB
035F0:  MOVFF  00,5FA
....................  
....................       y2=y*y; 
035F4:  MOVFF  5FD,619
035F8:  MOVFF  5FC,618
035FC:  MOVFF  5FB,617
03600:  MOVFF  5FA,616
03604:  MOVFF  5FD,61D
03608:  MOVFF  5FC,61C
0360C:  MOVFF  5FB,61B
03610:  MOVFF  5FA,61A
03614:  RCALL  2ED2
03616:  MOVFF  03,609
0361A:  MOVFF  02,608
0361E:  MOVFF  01,607
03622:  MOVFF  00,606
....................  
....................       res = pl[0]*y2 + pl[1]; 
03626:  MOVLW  BC
03628:  MOVLB  6
0362A:  MOVWF  x19
0362C:  MOVLW  24
0362E:  MOVWF  x18
03630:  MOVLW  67
03632:  MOVWF  x17
03634:  MOVLW  7D
03636:  MOVWF  x16
03638:  MOVFF  609,61D
0363C:  MOVFF  608,61C
03640:  MOVFF  607,61B
03644:  MOVFF  606,61A
03648:  MOVLB  0
0364A:  RCALL  2ED2
0364C:  MOVFF  00,60B
03650:  MOVFF  01,60C
03654:  MOVFF  02,60D
03658:  MOVFF  03,60E
0365C:  BCF    FD8.1
0365E:  MOVFF  03,61D
03662:  MOVFF  02,61C
03666:  MOVFF  01,61B
0366A:  MOVFF  00,61A
0366E:  MOVLW  E3
03670:  MOVLB  6
03672:  MOVWF  x21
03674:  MOVLW  E4
03676:  MOVWF  x20
03678:  MOVLW  90
0367A:  MOVWF  x1F
0367C:  MOVLW  82
0367E:  MOVWF  x1E
03680:  MOVLB  0
03682:  CALL   1A52
03686:  MOVFF  03,601
0368A:  MOVFF  02,600
0368E:  MOVFF  01,5FF
03692:  MOVFF  00,5FE
....................       res = res*y2 + pl[2]; 
03696:  MOVFF  601,619
0369A:  MOVFF  600,618
0369E:  MOVFF  5FF,617
036A2:  MOVFF  5FE,616
036A6:  MOVFF  609,61D
036AA:  MOVFF  608,61C
036AE:  MOVFF  607,61B
036B2:  MOVFF  606,61A
036B6:  RCALL  2ED2
036B8:  MOVFF  00,60B
036BC:  MOVFF  01,60C
036C0:  MOVFF  02,60D
036C4:  MOVFF  03,60E
036C8:  BCF    FD8.1
036CA:  MOVFF  03,61D
036CE:  MOVFF  02,61C
036D2:  MOVFF  01,61B
036D6:  MOVFF  00,61A
036DA:  MOVLW  1C
036DC:  MOVLB  6
036DE:  MOVWF  x21
036E0:  MOVLW  87
036E2:  MOVWF  x20
036E4:  MOVLW  57
036E6:  MOVWF  x1F
036E8:  MOVLW  83
036EA:  MOVWF  x1E
036EC:  MOVLB  0
036EE:  CALL   1A52
036F2:  MOVFF  03,601
036F6:  MOVFF  02,600
036FA:  MOVFF  01,5FF
036FE:  MOVFF  00,5FE
....................       res = res*y2 + pl[3]; 
03702:  MOVFF  601,619
03706:  MOVFF  600,618
0370A:  MOVFF  5FF,617
0370E:  MOVFF  5FE,616
03712:  MOVFF  609,61D
03716:  MOVFF  608,61C
0371A:  MOVFF  607,61B
0371E:  MOVFF  606,61A
03722:  CALL   2ED2
03726:  MOVFF  00,60B
0372A:  MOVFF  01,60C
0372E:  MOVFF  02,60D
03732:  MOVFF  03,60E
03736:  BCF    FD8.1
03738:  MOVFF  03,61D
0373C:  MOVFF  02,61C
03740:  MOVFF  01,61B
03744:  MOVFF  00,61A
03748:  MOVLW  AB
0374A:  MOVLB  6
0374C:  MOVWF  x21
0374E:  MOVLW  E1
03750:  MOVWF  x20
03752:  MOVLW  9E
03754:  MOVWF  x1F
03756:  MOVLW  83
03758:  MOVWF  x1E
0375A:  MOVLB  0
0375C:  CALL   1A52
03760:  MOVFF  03,601
03764:  MOVFF  02,600
03768:  MOVFF  01,5FF
0376C:  MOVFF  00,5FE
....................  
....................       r = ql[0]*y2 + ql[1]; 
03770:  MOVLB  6
03772:  CLRF   x19
03774:  CLRF   x18
03776:  CLRF   x17
03778:  MOVLW  7F
0377A:  MOVWF  x16
0377C:  MOVFF  609,61D
03780:  MOVFF  608,61C
03784:  MOVFF  607,61B
03788:  MOVFF  606,61A
0378C:  MOVLB  0
0378E:  CALL   2ED2
03792:  MOVFF  00,60B
03796:  MOVFF  01,60C
0379A:  MOVFF  02,60D
0379E:  MOVFF  03,60E
037A2:  BCF    FD8.1
037A4:  MOVFF  03,61D
037A8:  MOVFF  02,61C
037AC:  MOVFF  01,61B
037B0:  MOVFF  00,61A
037B4:  MOVLW  B4
037B6:  MOVLB  6
037B8:  MOVWF  x21
037BA:  MOVLW  2A
037BC:  MOVWF  x20
037BE:  MOVLW  82
037C0:  MOVWF  x1F
037C2:  MOVWF  x1E
037C4:  MOVLB  0
037C6:  CALL   1A52
037CA:  MOVFF  03,605
037CE:  MOVFF  02,604
037D2:  MOVFF  01,603
037D6:  MOVFF  00,602
....................       r = r*y2 + ql[2]; 
037DA:  MOVFF  605,619
037DE:  MOVFF  604,618
037E2:  MOVFF  603,617
037E6:  MOVFF  602,616
037EA:  MOVFF  609,61D
037EE:  MOVFF  608,61C
037F2:  MOVFF  607,61B
037F6:  MOVFF  606,61A
037FA:  CALL   2ED2
037FE:  MOVFF  00,60B
03802:  MOVFF  01,60C
03806:  MOVFF  02,60D
0380A:  MOVFF  03,60E
0380E:  BCF    FD8.1
03810:  MOVFF  03,61D
03814:  MOVFF  02,61C
03818:  MOVFF  01,61B
0381C:  MOVFF  00,61A
03820:  MOVLW  80
03822:  MOVLB  6
03824:  MOVWF  x21
03826:  MOVLW  3E
03828:  MOVWF  x20
0382A:  MOVLW  06
0382C:  MOVWF  x1F
0382E:  MOVLW  83
03830:  MOVWF  x1E
03832:  MOVLB  0
03834:  CALL   1A52
03838:  MOVFF  03,605
0383C:  MOVFF  02,604
03840:  MOVFF  01,603
03844:  MOVFF  00,602
....................       r = r*y2 + ql[3]; 
03848:  MOVFF  605,619
0384C:  MOVFF  604,618
03850:  MOVFF  603,617
03854:  MOVFF  602,616
03858:  MOVFF  609,61D
0385C:  MOVFF  608,61C
03860:  MOVFF  607,61B
03864:  MOVFF  606,61A
03868:  CALL   2ED2
0386C:  MOVFF  00,60B
03870:  MOVFF  01,60C
03874:  MOVFF  02,60D
03878:  MOVFF  03,60E
0387C:  BCF    FD8.1
0387E:  MOVFF  03,61D
03882:  MOVFF  02,61C
03886:  MOVFF  01,61B
0388A:  MOVFF  00,61A
0388E:  MOVLW  AB
03890:  MOVLB  6
03892:  MOVWF  x21
03894:  MOVLW  E1
03896:  MOVWF  x20
03898:  MOVLW  9E
0389A:  MOVWF  x1F
0389C:  MOVLW  82
0389E:  MOVWF  x1E
038A0:  MOVLB  0
038A2:  CALL   1A52
038A6:  MOVFF  03,605
038AA:  MOVFF  02,604
038AE:  MOVFF  01,603
038B2:  MOVFF  00,602
....................  
....................       res = y*res/r; 
038B6:  MOVFF  5FD,619
038BA:  MOVFF  5FC,618
038BE:  MOVFF  5FB,617
038C2:  MOVFF  5FA,616
038C6:  MOVFF  601,61D
038CA:  MOVFF  600,61C
038CE:  MOVFF  5FF,61B
038D2:  MOVFF  5FE,61A
038D6:  CALL   2ED2
038DA:  MOVFF  00,60B
038DE:  MOVFF  01,60C
038E2:  MOVFF  02,60D
038E6:  MOVFF  03,60E
038EA:  MOVFF  03,619
038EE:  MOVFF  02,618
038F2:  MOVFF  01,617
038F6:  MOVFF  00,616
038FA:  MOVFF  605,61D
038FE:  MOVFF  604,61C
03902:  MOVFF  603,61B
03906:  MOVFF  602,61A
0390A:  CALL   18F4
0390E:  MOVFF  03,601
03912:  MOVFF  02,600
03916:  MOVFF  01,5FF
0391A:  MOVFF  00,5FE
.................... #if !defined(__PCD__) 
....................       n = *((unsigned int8 *)(&x)) - 0x7E; 
0391E:  MOVLW  05
03920:  MOVLB  6
03922:  MOVWF  x0C
03924:  MOVLW  F6
03926:  MOVWF  FE9
03928:  MOVFF  60C,FEA
0392C:  MOVLW  7E
0392E:  SUBWF  FEF,W
03930:  MOVWF  x0A
.................... #endif 
.................... #if defined(__PCD__)  
....................     data1 = *(((unsigned int8 *)(&x)+3)); 
....................     rotate_left(&data1,1); 
....................     data2 = *(((unsigned int8 *)(&x)+2)); 
....................     if(bit_test (data2,7)) 
....................       bit_set(data1,0); 
....................     n = data1 - 0x7E; 
.................... #endif 
....................  
....................       if (n<0)  
03932:  BTFSC  x0A.7
03934:  BRA    3938
03936:  BRA    3960
....................          r = -(float32)-n; 
03938:  MOVLW  00
0393A:  BSF    FD8.0
0393C:  SUBFWB x0A,W
0393E:  CLRF   x0D
03940:  MOVWF  x0C
03942:  BTFSC  x0C.7
03944:  DECF   x0D,F
03946:  MOVLB  0
03948:  RCALL  34D2
0394A:  MOVFF  00,602
0394E:  MOVF   01,W
03950:  XORLW  80
03952:  MOVLB  6
03954:  MOVWF  x03
03956:  MOVFF  02,604
0395A:  MOVFF  03,605
....................       else 
0395E:  BRA    3980
....................          r = (float32)n; 
03960:  CLRF   x0D
03962:  MOVFF  60A,60C
03966:  BTFSC  x0C.7
03968:  DECF   x0D,F
0396A:  MOVLB  0
0396C:  RCALL  34D2
0396E:  MOVFF  03,605
03972:  MOVFF  02,604
03976:  MOVFF  01,603
0397A:  MOVFF  00,602
0397E:  MOVLB  6
....................  
....................       res += r*LN2; 
03980:  MOVFF  605,619
03984:  MOVFF  604,618
03988:  MOVFF  603,617
0398C:  MOVFF  602,616
03990:  MOVLW  18
03992:  MOVWF  x1D
03994:  MOVLW  72
03996:  MOVWF  x1C
03998:  MOVLW  31
0399A:  MOVWF  x1B
0399C:  MOVLW  7E
0399E:  MOVWF  x1A
039A0:  MOVLB  0
039A2:  CALL   2ED2
039A6:  BCF    FD8.1
039A8:  MOVFF  601,61D
039AC:  MOVFF  600,61C
039B0:  MOVFF  5FF,61B
039B4:  MOVFF  5FE,61A
039B8:  MOVFF  03,621
039BC:  MOVFF  02,620
039C0:  MOVFF  01,61F
039C4:  MOVFF  00,61E
039C8:  CALL   1A52
039CC:  MOVFF  03,601
039D0:  MOVFF  02,600
039D4:  MOVFF  01,5FF
039D8:  MOVFF  00,5FE
....................    } 
....................  
....................    else 
039DC:  BRA    39EC
....................       res = 0.0; 
039DE:  MOVLB  6
039E0:  CLRF   x01
039E2:  CLRF   x00
039E4:  MOVLB  5
039E6:  CLRF   xFF
039E8:  CLRF   xFE
039EA:  MOVLB  0
....................  
....................    return(res); 
039EC:  MOVFF  5FE,00
039F0:  MOVFF  5FF,01
039F4:  MOVFF  600,02
039F8:  MOVFF  601,03
.................... } 
039FC:  RETLW  00
....................  
.................... //Overloaded function for log() for PCD 
.................... // Overloaded function log() for data type - Float48 
.................... #if defined(__PCD__) 
.................... float48 log(float48 x) 
.................... { 
....................    float48 y, res, r, y2; 
....................    unsigned int8  data1,data2; 
....................    signed int8 n; 
....................    #ifdef _ERRNO 
....................    if(x <0) 
....................    { 
....................       errno=EDOM; 
....................    } 
....................    if(x ==0) 
....................    { 
....................       errno=ERANGE; 
....................       return(0); 
....................    } 
....................    #endif 
....................    y = x; 
....................  
....................    if (y != 1.0) 
....................    { 
....................     
....................    #if !defined(__PCD__) 
....................        *((unsigned int8 *)(&y)) = 0x7E;  
....................    #endif 
....................       data2 = *(((unsigned int8 *)(&y))+5); 
....................       *(((unsigned int8 *)(&y))+5) = 0x3F; 
....................       data1 = *(((unsigned int8 *)(&y))+4); 
....................       bit_clear(data1,7); 
....................       *(((unsigned int8 *)(&y))+4) = data1; 
....................    
....................       if(bit_test(data2,7)) 
....................          bit_set(*(((unsigned int8 *)(&y))+4),7); 
....................       y = (y - 1.0)/(y + 1.0); 
....................  
....................       y2=y*y; 
....................  
....................       res = pl[0]*y2 + pl[1]; 
....................       res = res*y2 + pl[2]; 
....................       res = res*y2 + pl[3]; 
....................  
....................       r = ql[0]*y2 + ql[1]; 
....................       r = r*y2 + ql[2]; 
....................       r = r*y2 + ql[3]; 
....................  
....................       res = y*res/r; 
....................  
....................     data1 = *(((unsigned int8 *)(&x)+5)); 
....................     rotate_left(&data1,1); 
....................     data2 = *(((unsigned int8 *)(&x)+4)); 
....................     if(bit_test (data2,7)) 
....................        bit_set(data1,0); 
....................       
....................     n = data1 - 0x7E; 
....................  
....................       if (n<0) 
....................          r = -(float48)-n; 
....................       else 
....................          r = (float48)n; 
....................  
....................       res += r*LN2; 
....................    } 
....................  
....................    else 
....................       res = 0.0; 
....................  
....................    return(res); 
.................... } 
....................  
.................... // Overloaded function log() for data type - Float48 
.................... #if defined(__PCD__) 
.................... float32 const pl_64[4] = {0.45145214, -9.0558803, 26.940971, -19.860189}; 
.................... float32 const ql_64[4] = {1.0000000,  -8.1354259, 16.780517, -9.9300943}; 
.................... #endif 
.................... float64 log(float64 x) 
.................... { 
....................    float64 y, res, r, y2; 
....................    unsigned int16  data1,data2; 
....................    unsigned int16 *p; 
....................    signed int16 n; 
....................    #ifdef _ERRNO 
....................    if(x <0) 
....................    { 
....................       errno=EDOM; 
....................    } 
....................    if(x ==0) 
....................    { 
....................       errno=ERANGE; 
....................       return(0); 
....................    } 
....................    #endif 
....................    y = x; 
....................  
....................    if (y != 1.0) 
....................    { 
....................    #if !defined(__PCD__) 
....................        *((unsigned int8 *)(&y)) = 0x7E;  
....................    #endif 
....................       p= (((unsigned int16 *)(&y))+3); 
....................       data1 = *p; 
....................       data2 = *p; 
....................       data1 = 0x3FE; 
....................       data1 = data1 <<4; 
....................       if(bit_test (data2,15)) 
....................       bit_set(data1,15); 
....................       data2 = data2 & 0x000F; 
....................       data1 ^=data2; 
....................  
....................       *p = data1; 
....................  
....................       y = (y - 1.0)/(y + 1.0); 
....................  
....................       y2=y*y; 
....................  
....................       res = pl_64[0]*y2 + pl_64[1]; 
....................       res = res*y2 + pl_64[2]; 
....................       res = res*y2 + pl_64[3]; 
....................  
....................       r = ql_64[0]*y2 + ql_64[1]; 
....................       r = r*y2 + ql_64[2]; 
....................       r = r*y2 + ql_64[3]; 
....................  
....................       res = y*res/r; 
....................   
....................       p= (((unsigned int16 *)(&x))+3); 
....................       data1 = *p; 
....................       bit_clear(data1,15); 
....................       data1 = data1 >>4;     
....................       n = data1 - 0x3FE; 
....................  
....................  
....................       if (n<0) 
....................          r = -(float64)-n; 
....................       else 
....................          r = (float64)n; 
....................  
....................       res += r*LN2; 
....................    } 
....................  
....................    else 
....................       res = 0.0; 
....................  
....................    return(res); 
.................... } 
.................... #endif 
....................  
....................  
.................... #define LN10 2.3025850929940456 
....................  
.................... //////////////////////////////////////////////////////////////////////////// 
.................... //   float log10(float x) 
.................... //////////////////////////////////////////////////////////////////////////// 
.................... // Description : returns the the log base 10 of x 
.................... // Date : N/A 
.................... // 
.................... float32 log10(float32 x) 
.................... { 
....................    float32 r; 
....................  
....................    r = log(x); 
....................    r = r/LN10; 
....................    return(r); 
.................... } 
....................  
.................... //Overloaded functions for log10() for PCD 
.................... // Overloaded function log10() for data type - Float48 
.................... #if defined(__PCD__) 
.................... float48 log10(float48 x) 
.................... { 
....................    float48 r; 
....................  
....................    r = log(x); 
....................    r = r/LN10; 
....................    return(r); 
.................... } 
....................  
.................... // Overloaded function log10() for data type - Float64 
.................... float64 log10(float64 x) 
.................... { 
....................    float64 r; 
....................  
....................    r = log(x); 
....................    r = r/LN10; 
....................    return(r); 
.................... } 
.................... #endif 
.................... //////////////////////////////////////////////////////////////////////////// 
.................... //   float modf(float x) 
.................... //////////////////////////////////////////////////////////////////////////// 
.................... // Description :breaks the argument value int integral and fractional parts, 
.................... // ach of which have the same sign as the argument.  It stores the integral part 
.................... // as a float in the object pointed to by the iptr 
.................... // Returns : returns the signed fractional part of value. 
.................... // Date : N/A 
.................... // 
....................  
.................... float32 modf(float32 value,float32 *iptr) 
.................... { 
....................    *iptr=(value < 0.0)? ceil(value): floor(value); 
....................    return(value - *iptr); 
.................... } 
.................... //Overloaded functions for modf() for PCD 
.................... // Overloaded function modf() for data type - Float48 
.................... #if defined(__PCD__) 
.................... float48 modf(float48 value,float48 *iptr) 
.................... { 
....................    *iptr=(value < 0.0)? ceil(value): floor(value); 
....................    return(value - *iptr); 
.................... } 
.................... // Overloaded function modf() for data type - Float64 
.................... float64 modf(float64 value,float64 *iptr) 
.................... { 
....................    *iptr=(value < 0.0)? ceil(value): floor(value); 
....................    return(value - *iptr); 
.................... } 
.................... #endif 
....................  
.................... //////////////////////////////////////////////////////////////////////////// 
.................... //   float pwr(float x,float y) 
.................... //////////////////////////////////////////////////////////////////////////// 
.................... // Description : returns the value (x^y) 
.................... // Date : N/A 
.................... // Note : 0 is returned when the function will generate an imaginary number 
.................... // 
.................... float32 pwr(float32 x,float32 y) 
.................... { 
....................    if(0 > x && fmod(y, 1) == 0) { 
....................       if(fmod(y, 2) == 0) { 
....................          return (exp(log(-x) * y)); 
....................       } else { 
....................          return (-exp(log(-x) * y)); 
....................       } 
....................    } else if(0 > x && fmod(y, 1) != 0) { 
....................       return 0; 
....................    } else { 
....................       if(x != 0 || 0 >= y) { 
....................          return (exp(log(x) * y)); 
....................       } 
....................    } 
.................... } 
.................... //Overloaded functions for pwr() for PCD 
.................... // Overloaded function pwr() for data type - Float48 
.................... #if defined(__PCD__) 
.................... float48 pwr(float48 x,float48 y) 
.................... { 
....................    if(0 > x && fmod(y, 1) == 0) { 
....................       if(fmod(y, 2) == 0) { 
....................          return (exp(log(-x) * y)); 
....................       } else { 
....................          return (-exp(log(-x) * y)); 
....................       } 
....................    } else if(0 > x && fmod(y, 1) != 0) { 
....................       return 0; 
....................    } else { 
....................       if(x != 0 || 0 >= y) { 
....................          return (exp(log(x) * y)); 
....................       } 
....................    } 
.................... } 
.................... // Overloaded function pwr() for data type - Float64 
.................... float64 pwr(float64 x,float64 y) 
.................... { 
....................    if(0 > x && fmod(y, 1) == 0) { 
....................       if(fmod(y, 2) == 0) { 
....................          return (exp(log(-x) * y)); 
....................       } else { 
....................          return (-exp(log(-x) * y)); 
....................       } 
....................    } else if(0 > x && fmod(y, 1) != 0) { 
....................       return 0; 
....................    } else { 
....................       if(x != 0 || 0 >= y) { 
....................          return (exp(log(x) * y)); 
....................       } 
....................    } 
.................... } 
.................... #endif 
....................  
.................... //////////////////// Power functions //////////////////// 
....................  
.................... //////////////////////////////////////////////////////////////////////////// 
.................... //   float pow(float x,float y) 
.................... //////////////////////////////////////////////////////////////////////////// 
.................... // Description : returns the value (x^y) 
.................... // Date : N/A 
.................... // Note : 0 is returned when the function will generate an imaginary number 
.................... // 
.................... float32 pow(float32 x,float32 y) 
.................... { 
....................    if(0 > x && fmod(y, 1) == 0) { 
*
03E0E:  MOVFF  5ED,619
03E12:  MOVFF  5EC,618
03E16:  MOVFF  5EB,617
03E1A:  MOVFF  5EA,616
03E1E:  MOVLB  6
03E20:  CLRF   x1D
03E22:  CLRF   x1C
03E24:  CLRF   x1B
03E26:  CLRF   x1A
03E28:  MOVLB  0
03E2A:  CALL   2452
03E2E:  BTFSS  FD8.0
03E30:  BRA    3FE4
03E32:  MOVFF  5F1,5F5
03E36:  MOVFF  5F0,5F4
03E3A:  MOVFF  5EF,5F3
03E3E:  MOVFF  5EE,5F2
03E42:  MOVLB  5
03E44:  CLRF   xF9
03E46:  CLRF   xF8
03E48:  CLRF   xF7
03E4A:  MOVLW  7F
03E4C:  MOVWF  xF6
03E4E:  MOVLB  0
03E50:  CALL   336C
03E54:  MOVFF  00,5F2
03E58:  MOVFF  01,5F3
03E5C:  MOVFF  02,5F4
03E60:  MOVFF  03,5F5
03E64:  MOVFF  03,619
03E68:  MOVFF  02,618
03E6C:  MOVFF  01,617
03E70:  MOVFF  00,616
03E74:  MOVLB  6
03E76:  CLRF   x1D
03E78:  CLRF   x1C
03E7A:  CLRF   x1B
03E7C:  CLRF   x1A
03E7E:  MOVLB  0
03E80:  CALL   2452
03E84:  BTFSS  FD8.2
03E86:  BRA    3FE4
....................       if(fmod(y, 2) == 0) { 
03E88:  MOVFF  5F1,5F5
03E8C:  MOVFF  5F0,5F4
03E90:  MOVFF  5EF,5F3
03E94:  MOVFF  5EE,5F2
03E98:  MOVLB  5
03E9A:  CLRF   xF9
03E9C:  CLRF   xF8
03E9E:  CLRF   xF7
03EA0:  MOVLW  80
03EA2:  MOVWF  xF6
03EA4:  MOVLB  0
03EA6:  CALL   336C
03EAA:  MOVFF  00,5F2
03EAE:  MOVFF  01,5F3
03EB2:  MOVFF  02,5F4
03EB6:  MOVFF  03,5F5
03EBA:  MOVFF  03,619
03EBE:  MOVFF  02,618
03EC2:  MOVFF  01,617
03EC6:  MOVFF  00,616
03ECA:  MOVLB  6
03ECC:  CLRF   x1D
03ECE:  CLRF   x1C
03ED0:  CLRF   x1B
03ED2:  CLRF   x1A
03ED4:  MOVLB  0
03ED6:  CALL   2452
03EDA:  BNZ   3F5E
....................          return (exp(log(-x) * y)); 
03EDC:  MOVFF  5EA,5F2
03EE0:  MOVLB  5
03EE2:  MOVF   xEB,W
03EE4:  XORLW  80
03EE6:  MOVWF  xF3
03EE8:  MOVFF  5EC,5F4
03EEC:  MOVFF  5ED,5F5
03EF0:  MOVFF  5ED,5F9
03EF4:  MOVFF  5EC,5F8
03EF8:  MOVWF  xF7
03EFA:  MOVFF  5EA,5F6
03EFE:  MOVLB  0
03F00:  CALL   3522
03F04:  MOVFF  00,5F2
03F08:  MOVFF  01,5F3
03F0C:  MOVFF  02,5F4
03F10:  MOVFF  03,5F5
03F14:  MOVFF  03,619
03F18:  MOVFF  02,618
03F1C:  MOVFF  01,617
03F20:  MOVFF  00,616
03F24:  MOVFF  5F1,61D
03F28:  MOVFF  5F0,61C
03F2C:  MOVFF  5EF,61B
03F30:  MOVFF  5EE,61A
03F34:  CALL   2ED2
03F38:  MOVFF  00,5F2
03F3C:  MOVFF  01,5F3
03F40:  MOVFF  02,5F4
03F44:  MOVFF  03,5F5
03F48:  MOVFF  03,5F9
03F4C:  MOVFF  02,5F8
03F50:  MOVFF  01,5F7
03F54:  MOVFF  00,5F6
03F58:  RCALL  39FE
03F5A:  BRA    4118
....................       } else { 
03F5C:  BRA    3FE2
....................          return (-exp(log(-x) * y)); 
03F5E:  MOVFF  5EA,5F2
03F62:  MOVLB  5
03F64:  MOVF   xEB,W
03F66:  XORLW  80
03F68:  MOVWF  xF3
03F6A:  MOVFF  5EC,5F4
03F6E:  MOVFF  5ED,5F5
03F72:  MOVFF  5ED,5F9
03F76:  MOVFF  5EC,5F8
03F7A:  MOVWF  xF7
03F7C:  MOVFF  5EA,5F6
03F80:  MOVLB  0
03F82:  CALL   3522
03F86:  MOVFF  00,5F2
03F8A:  MOVFF  01,5F3
03F8E:  MOVFF  02,5F4
03F92:  MOVFF  03,5F5
03F96:  MOVFF  03,619
03F9A:  MOVFF  02,618
03F9E:  MOVFF  01,617
03FA2:  MOVFF  00,616
03FA6:  MOVFF  5F1,61D
03FAA:  MOVFF  5F0,61C
03FAE:  MOVFF  5EF,61B
03FB2:  MOVFF  5EE,61A
03FB6:  CALL   2ED2
03FBA:  MOVFF  00,5F2
03FBE:  MOVFF  01,5F3
03FC2:  MOVFF  02,5F4
03FC6:  MOVFF  03,5F5
03FCA:  MOVFF  03,5F9
03FCE:  MOVFF  02,5F8
03FD2:  MOVFF  01,5F7
03FD6:  MOVFF  00,5F6
03FDA:  RCALL  39FE
03FDC:  MOVLW  80
03FDE:  XORWF  01,F
03FE0:  BRA    4118
....................       } 
....................    } else if(0 > x && fmod(y, 1) != 0) { 
03FE2:  BRA    4118
03FE4:  MOVFF  5ED,619
03FE8:  MOVFF  5EC,618
03FEC:  MOVFF  5EB,617
03FF0:  MOVFF  5EA,616
03FF4:  MOVLB  6
03FF6:  CLRF   x1D
03FF8:  CLRF   x1C
03FFA:  CLRF   x1B
03FFC:  CLRF   x1A
03FFE:  MOVLB  0
04000:  CALL   2452
04004:  BNC   4066
04006:  MOVFF  5F1,5F5
0400A:  MOVFF  5F0,5F4
0400E:  MOVFF  5EF,5F3
04012:  MOVFF  5EE,5F2
04016:  MOVLB  5
04018:  CLRF   xF9
0401A:  CLRF   xF8
0401C:  CLRF   xF7
0401E:  MOVLW  7F
04020:  MOVWF  xF6
04022:  MOVLB  0
04024:  CALL   336C
04028:  MOVFF  00,5F2
0402C:  MOVFF  01,5F3
04030:  MOVFF  02,5F4
04034:  MOVFF  03,5F5
04038:  MOVFF  03,619
0403C:  MOVFF  02,618
04040:  MOVFF  01,617
04044:  MOVFF  00,616
04048:  MOVLB  6
0404A:  CLRF   x1D
0404C:  CLRF   x1C
0404E:  CLRF   x1B
04050:  CLRF   x1A
04052:  MOVLB  0
04054:  CALL   2452
04058:  BZ    4066
....................       return 0; 
0405A:  CLRF   00
0405C:  CLRF   01
0405E:  CLRF   02
04060:  CLRF   03
04062:  BRA    4118
....................    } else { 
04064:  BRA    4118
....................       if(x != 0 || 0 >= y) { 
04066:  MOVFF  5ED,619
0406A:  MOVFF  5EC,618
0406E:  MOVFF  5EB,617
04072:  MOVFF  5EA,616
04076:  MOVLB  6
04078:  CLRF   x1D
0407A:  CLRF   x1C
0407C:  CLRF   x1B
0407E:  CLRF   x1A
04080:  MOVLB  0
04082:  CALL   2452
04086:  BNZ   40AC
04088:  MOVFF  5F1,619
0408C:  MOVFF  5F0,618
04090:  MOVFF  5EF,617
04094:  MOVFF  5EE,616
04098:  MOVLB  6
0409A:  CLRF   x1D
0409C:  CLRF   x1C
0409E:  CLRF   x1B
040A0:  CLRF   x1A
040A2:  MOVLB  0
040A4:  CALL   2452
040A8:  BC    40AC
040AA:  BNZ   4118
....................          return (exp(log(x) * y)); 
040AC:  MOVFF  5ED,5F9
040B0:  MOVFF  5EC,5F8
040B4:  MOVFF  5EB,5F7
040B8:  MOVFF  5EA,5F6
040BC:  CALL   3522
040C0:  MOVFF  00,5F2
040C4:  MOVFF  01,5F3
040C8:  MOVFF  02,5F4
040CC:  MOVFF  03,5F5
040D0:  MOVFF  03,619
040D4:  MOVFF  02,618
040D8:  MOVFF  01,617
040DC:  MOVFF  00,616
040E0:  MOVFF  5F1,61D
040E4:  MOVFF  5F0,61C
040E8:  MOVFF  5EF,61B
040EC:  MOVFF  5EE,61A
040F0:  CALL   2ED2
040F4:  MOVFF  00,5F2
040F8:  MOVFF  01,5F3
040FC:  MOVFF  02,5F4
04100:  MOVFF  03,5F5
04104:  MOVFF  03,5F9
04108:  MOVFF  02,5F8
0410C:  MOVFF  01,5F7
04110:  MOVFF  00,5F6
04114:  RCALL  39FE
04116:  BRA    4118
....................       } 
....................    } 
.................... } 
04118:  RETLW  00
.................... //Overloaded functions for pow() for PCD 
.................... // Overloaded function for pow() data type - Float48 
.................... #if defined(__PCD__) 
.................... float48 pow(float48 x,float48 y) 
.................... { 
....................    if(0 > x && fmod(y, 1) == 0) { 
....................       if(fmod(y, 2) == 0) { 
....................          return (exp(log(-x) * y)); 
....................       } else { 
....................          return (-exp(log(-x) * y)); 
....................       } 
....................    } else if(0 > x && fmod(y, 1) != 0) { 
....................       return 0; 
....................    } else { 
....................       if(x != 0 || 0 >= y) { 
....................          return (exp(log(x) * y)); 
....................       } 
....................    } 
.................... } 
....................  
.................... // Overloaded function pow() for data type - Float64 
.................... float64 pow(float64 x,float64 y) 
.................... { 
....................    if(0 > x && fmod(y, 1) == 0) { 
....................       if(fmod(y, 2) == 0) { 
....................          return (exp(log(-x) * y)); 
....................       } else { 
....................          return (-exp(log(-x) * y)); 
....................       } 
....................    } else if(0 > x && fmod(y, 1) != 0) { 
....................       return 0; 
....................    } else { 
....................       if(x != 0 || 0 >= y) { 
....................          return (exp(log(x) * y)); 
....................       } 
....................    } 
.................... } 
.................... #endif 
....................  
.................... //////////////////////////////////////////////////////////////////////////// 
.................... //   float sqrt(float x) 
.................... //////////////////////////////////////////////////////////////////////////// 
.................... // Description : returns the square root of x 
.................... // Date : N/A 
.................... // 
.................... float32 sqrt(float32 x) 
.................... { 
....................    float32 y, res; 
....................    #if defined(__PCD__) 
....................    unsigned int16 data1,data2; 
....................    #endif 
....................    BYTE *p; 
....................  
....................    #ifdef _ERRNO 
....................    if(x < 0) 
....................    { 
....................       errno=EDOM; 
....................    } 
....................    #endif 
....................  
....................    if( x<=0.0) 
....................       return(0.0); 
....................  
....................    y=x; 
....................     
....................    #if !defined(__PCD__) 
....................     p=&y; 
....................    (*p)=(BYTE)((((unsigned int16)(*p)) + 127) >> 1); 
....................    #endif 
....................     
....................    #if defined(__PCD__) 
....................     p = (((unsigned int8 *)(&y))+3); 
....................     data1 = *(((unsigned int8 *)(&y))+3); 
....................     data2 = *(((unsigned int8 *)(&y))+2); 
....................     rotate_left(&data1,1);     
....................     if(bit_test(data2,7))     
....................     bit_set(data1,0);     
....................     data1 = ((data1+127) >>1); 
....................     bit_clear(data2,7); 
....................     if(bit_test(data1,0)) 
....................     bit_set(data2,7); 
....................     data1 = data1 >>1; 
....................     *(((unsigned int8 *)(&y))+3) = data1; 
....................     *(((unsigned int8 *)(&y))+2) = data2; 
....................      
....................   #endif 
....................  
....................    do { 
....................       res=y; 
....................       y+=(x/y); 
....................  
....................       #if !defined(__PCD__) 
....................      (*p)--; 
....................    #endif 
....................     
....................    #if defined(__PCD__) 
....................     data1 = *(((unsigned int8 *)(&y))+3); 
....................     data2 = *(((unsigned int8 *)(&y))+2); 
....................     rotate_left(&data1,1); 
....................     if(bit_test(data2,7)) 
....................     bit_set(data1,0);     
....................     data1--; 
....................     bit_clear(data2,7); 
....................     if(bit_test(data1,0)) 
....................     bit_set(data2,7); 
....................     data1 = data1 >>1; 
....................     *(((unsigned int8 *)(&y))+3) = data1; 
....................     *(((unsigned int8 *)(&y))+2) = data2; 
....................      
....................   #endif 
....................    } while(res != y); 
....................  
....................    return(res); 
.................... } 
.................... //Overloaded functions for sqrt() for PCD 
.................... // Overloaded function sqrt() for data type - Float48 
.................... #if defined(__PCD__) 
.................... float48 sqrt(float48 x) 
.................... { 
....................    float48 y, res; 
....................    unsigned int16 data1,data2; 
....................    BYTE *p; 
....................  
....................    #ifdef _ERRNO 
....................    if(x < 0) 
....................    { 
....................       errno=EDOM; 
....................    } 
....................    #endif 
....................  
....................    if( x<=0.0) 
....................       return(0.0); 
....................  
....................    y=x; 
....................     
....................    #if !defined(__PCD__) 
....................     p=&y; 
....................    (*p)=(BYTE)((((unsigned int16)(*p)) + 127) >> 1); 
....................    #endif 
....................     
....................    #if defined(__PCD__) 
....................     p = (((unsigned int8 *)(&y))+5); 
....................     data1 = *(((unsigned int8 *)(&y))+5); 
....................     data2 = *(((unsigned int8 *)(&y))+4); 
....................     rotate_left(&data1,1); 
....................     if(bit_test(data2,7)) 
....................     bit_set(data1,0);     
....................     data1 = ((data1+127) >>1); 
....................     bit_clear(data2,7); 
....................     if(bit_test(data1,0)) 
....................     bit_set(data2,7); 
....................     data1 = data1 >>1; 
....................     *(((unsigned int8 *)(&y))+5) = data1; 
....................     *(((unsigned int8 *)(&y))+4) = data2; 
....................      
....................   #endif 
....................  
....................    do { 
....................       res=y; 
....................       y+=(x/y); 
....................  
....................       #if !defined(__PCD__) 
....................      (*p)--; 
....................    #endif 
....................     
....................     data1 = *(((unsigned int8 *)(&y))+5); 
....................     data2 = *(((unsigned int8 *)(&y))+4); 
....................     rotate_left(&data1,1); 
....................     if(bit_test(data2,7)) 
....................     bit_set(data1,0);     
....................     data1--; 
....................     bit_clear(data2,7); 
....................     if(bit_test(data1,0)) 
....................     bit_set(data2,7); 
....................     data1 = data1 >>1; 
....................     *(((unsigned int8 *)(&y))+5) = data1; 
....................     *(((unsigned int8 *)(&y))+4) = data2; 
....................      
....................    } while(res != y); 
....................  
....................    return(res); 
.................... } 
....................  
.................... // Overloaded function sqrt() for data type - Float64 
.................... float64 sqrt(float64 x) 
.................... { 
....................    float64 y, res; 
....................    unsigned int16 *p; 
....................    unsigned int16 temp1,temp2; 
....................  
....................    #ifdef _ERRNO 
....................    if(x < 0) 
....................    { 
....................       errno=EDOM; 
....................    } 
....................    #endif 
....................  
....................    if( x<=0.0) 
....................       return(0.0); 
....................  
....................    y=x; 
....................    p= (((unsigned int16 *)(&y))+3); 
....................    temp1 = *p; 
....................    temp2 = *p; 
....................    bit_clear(temp1,15); 
....................    temp1 = (temp1>>4)+1023; 
....................    temp1 = temp1 >> 1; 
....................    temp1 = (temp1<<4) & 0xFFF0; 
....................    if(bit_test(temp2,15)) 
....................    bit_set(temp1,15); 
....................    temp2 = temp2 & 0x000F; 
....................    temp1 ^= temp2; 
....................     
....................    (*p) = temp1; 
....................     
....................    do { 
....................       res=y; 
....................       y+=(x/y); 
....................      temp1 = *p; 
....................      temp2 = *p; 
....................      bit_clear(temp1,15); 
....................      temp1 = (temp1>>4); 
....................      temp1--; 
....................      temp1 = (temp1<<4) & 0xFFF0; 
....................      if(bit_test(temp2,15)) 
....................      bit_set(temp1,15); 
....................      temp2 = temp2 & 0x000F; 
....................      temp1 ^= temp2; 
....................      (*p) = temp1; 
....................  
....................    } while(res != y); 
....................  
....................    return(res); 
.................... } 
.................... #endif 
....................  
.................... ////////////////////////////// Trig Functions ////////////////////////////// 
.................... #ifdef PI_DIV_BY_TWO 
.................... #undef PI_DIV_BY_TWO 
.................... #endif 
.................... #define PI_DIV_BY_TWO   1.5707963267948966 
.................... #ifdef TWOBYPI 
.................... #undef TWOBYPI 
.................... #define TWOBYPI          0.6366197723675813 
.................... #endif 
.................... //////////////////////////////////////////////////////////////////////////// 
.................... //   float cos(float x) 
.................... //////////////////////////////////////////////////////////////////////////// 
.................... // Description : returns the cosine value of the angle x, which is in radian 
.................... // Date : 9/20/2001 
.................... // 
.................... float32 cos(float32 x) 
.................... { 
....................    float32 y, t, t2 = 1.0; 
....................    unsigned int8 quad, i; 
....................    float32 frac; 
....................    float32 p[6] = {                    //by the series definition for cosine 
....................       -0.5,                            // sum ( ( (-1)^n * x^2n )/(2n)! ) 
....................        0.04166666666667, 
....................       -0.00138888888889, 
....................        0.00002480158730, 
....................       -0.00000027557319, 
....................        0.00000000208767, 
....................       //-0.00000000001147, 
....................       // 0.00000000000005 
....................    }; 
....................  
....................    if (x < 0) x = -x;                  // absolute value of input 
....................  
....................    quad = (unsigned int8)(x / PI_DIV_BY_TWO);    // quadrant 
....................    frac = (x / PI_DIV_BY_TWO) - quad;  // fractional part of input 
....................    quad = quad % 4;                    // quadrant (0 to 3) 
....................  
....................    if (quad == 0 || quad == 2) 
....................       t = frac * PI_DIV_BY_TWO; 
....................    else if (quad == 1) 
....................       t = (1-frac) * PI_DIV_BY_TWO; 
....................    else // should be 3 
....................       t = (frac-1) * PI_DIV_BY_TWO; 
....................  
....................    y = 1.0; 
....................    t = t * t; 
....................    for (i = 0; i <= 5; i++) 
....................    { 
....................       t2 = t2 * t; 
....................       y = y + p[i] * t2; 
....................    } 
....................  
....................    if (quad == 2 || quad == 1) 
....................       y = -y;  // correct sign 
....................  
....................    return (y); 
.................... } 
....................  
....................  
.................... //Overloaded functions for cos() for PCD 
.................... // Overloaded function cos() for data type - Float48 
.................... #if defined(__PCD__) 
.................... float48 cos(float48 x) 
.................... { 
....................    float48 y, t, t2 = 1.0; 
....................    unsigned int8 quad, i; 
....................    float48 frac; 
....................    float48 p[6] = {                    //by the series definition for cosine 
....................       -0.5,                            // sum ( ( (-1)^n * x^2n )/(2n)! ) 
....................        0.04166666666667, 
....................       -0.00138888888889, 
....................        0.00002480158730, 
....................       -0.00000027557319, 
....................        0.00000000208767, 
....................       //-0.00000000001147, 
....................       // 0.00000000000005 
....................    }; 
....................  
....................    if (x < 0) x = -x;                  // absolute value of input 
....................  
....................    quad = (unsigned int8)(x / PI_DIV_BY_TWO);    // quadrant 
....................    frac = (x / PI_DIV_BY_TWO) - quad;  // fractional part of input 
....................    quad = quad % 4;                    // quadrant (0 to 3) 
....................  
....................    if (quad == 0 || quad == 2) 
....................       t = frac * PI_DIV_BY_TWO; 
....................    else if (quad == 1) 
....................       t = (1-frac) * PI_DIV_BY_TWO; 
....................    else // should be 3 
....................       t = (frac-1) * PI_DIV_BY_TWO; 
....................  
....................    y = 0.999999999781; 
....................    t = t * t; 
....................    for (i = 0; i <= 5; i++) 
....................    { 
....................       t2 = t2 * t; 
....................       y = y + p[i] * t2; 
....................    } 
....................  
....................    if (quad == 2 || quad == 1) 
....................       y = -y;  // correct sign 
....................  
....................    return (y); 
.................... } 
....................  
.................... // Overloaded function cos() for data type - Float48 
.................... float64 cos(float64 x) 
.................... { 
....................    float64 y, t, t2 = 1.0; 
....................    unsigned int8 quad, i; 
....................    float64 frac; 
....................    float64 p[6] = {                    //by the series definition for cosine 
....................       -0.5,                            // sum ( ( (-1)^n * x^2n )/(2n)! ) 
....................        0.04166666666667, 
....................       -0.00138888888889, 
....................        0.00002480158730, 
....................       -0.00000027557319, 
....................        0.00000000208767, 
....................       //-0.00000000001147, 
....................       // 0.00000000000005 
....................    }; 
....................  
....................    if (x < 0) x = -x;                  // absolute value of input 
....................  
....................    quad = (unsigned int8)(x / PI_DIV_BY_TWO);    // quadrant 
....................    frac = (x / PI_DIV_BY_TWO) - quad;  // fractional part of input 
....................    quad = quad % 4;                    // quadrant (0 to 3) 
....................  
....................    if (quad == 0 || quad == 2) 
....................       t = frac * PI_DIV_BY_TWO; 
....................    else if (quad == 1) 
....................       t = (1-frac) * PI_DIV_BY_TWO; 
....................    else // should be 3 
....................       t = (frac-1) * PI_DIV_BY_TWO; 
....................  
....................    y = 0.999999999781; 
....................    t = t * t; 
....................    for (i = 0; i <= 5; i++) 
....................    { 
....................       t2 = t2 * t; 
....................       y = y + p[i] * t2; 
....................    } 
....................  
....................    if (quad == 2 || quad == 1) 
....................       y = -y;  // correct sign 
....................  
....................    return (y); 
.................... } 
....................  
.................... #endif 
....................  
.................... //////////////////////////////////////////////////////////////////////////// 
.................... //   float sin(float x) 
.................... //////////////////////////////////////////////////////////////////////////// 
.................... // Description : returns the sine value of the angle x, which is in radian 
.................... // Date : 9/20/2001 
.................... // 
.................... float32 sin(float32 x) 
.................... { 
....................    return cos(x - PI_DIV_BY_TWO); 
.................... } 
....................  
.................... //Overloaded functions for sin() for PCD 
.................... // Overloaded function sin() for data type - Float48 
.................... #if defined(__PCD__) 
.................... float48 sin(float48 x) 
.................... { 
....................    return cos(x - PI_DIV_BY_TWO); 
.................... } 
....................  
.................... // Overloaded function sin() for data type - Float48 
.................... float64 sin(float64 x) 
.................... { 
....................    return cos(x - PI_DIV_BY_TWO); 
.................... } 
.................... #endif 
....................  
.................... //////////////////////////////////////////////////////////////////////////// 
.................... //   float tan(float x) 
.................... //////////////////////////////////////////////////////////////////////////// 
.................... // Description : returns the tangent value of the angle x, which is in radian 
.................... // Date : 9/20/2001 
.................... // 
.................... float32 tan(float32 x) 
.................... { 
....................    float32 c, s; 
....................  
....................    c = cos(x); 
....................    if (c == 0.0) 
....................       return (1.0e+36); 
....................  
....................    s = sin(x); 
....................    return(s/c); 
.................... } 
.................... //Overloaded functions for tan() for PCD 
.................... // Overloaded function tan() for data type - Float48 
.................... #if defined(__PCD__) 
.................... float48 tan(float48 x) 
.................... { 
....................    float48 c, s; 
....................  
....................    c = cos(x); 
....................    if (c == 0.0) 
....................       return (1.0e+36); 
....................  
....................    s = sin(x); 
....................    return(s/c); 
.................... } 
....................  
.................... // Overloaded function tan() for data type - Float48 
.................... float64 tan(float64 x) 
.................... { 
....................    float64 c, s; 
....................  
....................    c = cos(x); 
....................    if (c == 0.0) 
....................       return (1.0e+36); 
....................  
....................    s = sin(x); 
....................    return(s/c); 
.................... } 
.................... #endif 
....................  
.................... float32 const pas[3] = {0.49559947, -4.6145309, 5.6036290}; 
.................... float32 const qas[3] = {1.0000000,  -5.5484666, 5.6036290}; 
....................  
.................... float32 ASIN_COS(float32 x, unsigned int8 n) 
.................... { 
....................    float32 y, res, r, y2; 
....................    int1 s; 
....................    #ifdef _ERRNO 
....................    if(x <-1 || x > 1) 
....................    { 
....................       errno=EDOM; 
....................    } 
....................    #endif 
....................    s = 0; 
....................    y = x; 
....................  
....................    if (x < 0) 
....................    { 
....................       s = 1; 
....................       y = -y; 
....................    } 
....................  
....................    if (y > 0.5) 
....................    { 
....................       y = sqrt((1.0 - y)/2.0); 
....................       n += 2; 
....................    } 
....................  
....................    y2=y*y; 
....................  
....................    res = pas[0]*y2 + pas[1]; 
....................    res = res*y2 + pas[2]; 
....................  
....................    r = qas[0]*y2 + qas[1]; 
....................    r = r*y2 + qas[2]; 
....................  
....................    res = y*res/r; 
....................  
....................    if (n & 2)     // |x| > 0.5 
....................       res = PI_DIV_BY_TWO - 2.0*res; 
....................    if (s) 
....................       res = -res; 
....................    if (n & 1)           // take arccos 
....................       res = PI_DIV_BY_TWO - res; 
....................  
....................    return(res); 
.................... } 
....................  
.................... //Overloaded functions for ASIN_COS() for PCD 
.................... // Overloaded function ASIN_COS() for data type - Float48 
.................... #if defined(__PCD__) 
.................... float48 ASIN_COS(float48 x, unsigned int8 n) 
.................... { 
....................    float48 y, res, r, y2; 
....................    int1 s; 
....................    #ifdef _ERRNO 
....................    if(x <-1 || x > 1) 
....................    { 
....................       errno=EDOM; 
....................    } 
....................    #endif 
....................    s = 0; 
....................    y = x; 
....................  
....................    if (x < 0) 
....................    { 
....................       s = 1; 
....................       y = -y; 
....................    } 
....................  
....................    if (y > 0.5) 
....................    { 
....................       y = sqrt((1.0 - y)/2.0); 
....................       n += 2; 
....................    } 
....................  
....................    y2=y*y; 
....................  
....................    res = pas[0]*y2 + pas[1]; 
....................    res = res*y2 + pas[2]; 
....................  
....................    r = qas[0]*y2 + qas[1]; 
....................    r = r*y2 + qas[2]; 
....................  
....................    res = y*res/r; 
....................  
....................    if (n & 2)     // |x| > 0.5 
....................       res = PI_DIV_BY_TWO - 2.0*res; 
....................    if (s) 
....................       res = -res; 
....................    if (n & 1)           // take arccos 
....................       res = PI_DIV_BY_TWO - res; 
....................  
....................    return(res); 
.................... } 
....................  
.................... // Overloaded function ASIN_COS() for data type - Float64 
.................... float64 ASIN_COS(float64 x, unsigned int8 n) 
.................... { 
....................    float64 y, res, r, y2; 
....................    int1 s; 
....................    #ifdef _ERRNO 
....................    if(x <-1 || x > 1) 
....................    { 
....................       errno=EDOM; 
....................    } 
....................    #endif 
....................    s = 0; 
....................    y = x; 
....................  
....................    if (x < 0) 
....................    { 
....................       s = 1; 
....................       y = -y; 
....................    } 
....................  
....................    if (y > 0.5) 
....................    { 
....................       y = sqrt((1.0 - y)/2.0); 
....................       n += 2; 
....................    } 
....................  
....................    y2=y*y; 
....................  
....................    res = pas[0]*y2 + pas[1]; 
....................    res = res*y2 + pas[2]; 
....................  
....................    r = qas[0]*y2 + qas[1]; 
....................    r = r*y2 + qas[2]; 
....................  
....................    res = y*res/r; 
....................  
....................    if (n & 2)     // |x| > 0.5 
....................       res = PI_DIV_BY_TWO - 2.0*res; 
....................    if (s) 
....................       res = -res; 
....................    if (n & 1)           // take arccos 
....................       res = PI_DIV_BY_TWO - res; 
....................  
....................    return(res); 
.................... } 
.................... #endif 
....................  
.................... //////////////////////////////////////////////////////////////////////////// 
.................... //   float asin(float x) 
.................... //////////////////////////////////////////////////////////////////////////// 
.................... // Description : returns the arcsine value of the value x. 
.................... // Date : N/A 
.................... // 
.................... float32 asin(float32 x) 
.................... { 
....................    float32 r; 
....................  
....................    r = ASIN_COS(x, 0); 
....................    return(r); 
.................... } 
.................... //Overloaded functions for asin() for PCD 
.................... // Overloaded function asin() for data type - Float48 
.................... #if defined(__PCD__) 
.................... float48 asin(float48 x) 
.................... { 
....................    float48 r; 
....................  
....................    r = ASIN_COS(x, 0); 
....................    return(r); 
.................... } 
....................  
.................... // Overloaded function asin() for data type - Float64 
.................... float64 asin(float64 x) 
.................... { 
....................    float64 r; 
....................  
....................    r = ASIN_COS(x, 0); 
....................    return(r); 
.................... } 
.................... #endif 
....................  
.................... //////////////////////////////////////////////////////////////////////////// 
.................... //   float acos(float x) 
.................... //////////////////////////////////////////////////////////////////////////// 
.................... // Description : returns the arccosine value of the value x. 
.................... // Date : N/A 
.................... // 
.................... float32 acos(float32 x) 
.................... { 
....................    float32 r; 
....................  
....................    r = ASIN_COS(x, 1); 
....................    return(r); 
.................... } 
.................... //Overloaded functions for acos() for PCD 
.................... // Overloaded function acos() for data type - Float48 
.................... #if defined(__PCD__) 
.................... float48 acos(float48 x) 
.................... { 
....................    float48 r; 
....................  
....................    r = ASIN_COS(x, 1); 
....................    return(r); 
.................... } 
....................  
.................... // Overloaded function acos() for data type - Float64 
.................... float64 acos(float64 x) 
.................... { 
....................    float64 r; 
....................  
....................    r = ASIN_COS(x, 1); 
....................    return(r); 
.................... } 
.................... #endif 
....................  
.................... float32 const pat[4] = {0.17630401, 5.6710795, 22.376096, 19.818457}; 
.................... float32 const qat[4] = {1.0000000,  11.368190, 28.982246, 19.818457}; 
....................  
.................... //////////////////////////////////////////////////////////////////////////// 
.................... //   float atan(float x) 
.................... //////////////////////////////////////////////////////////////////////////// 
.................... // Description : returns the arctangent value of the value x. 
.................... // Date : N/A 
.................... // 
.................... float32 atan(float32 x) 
.................... { 
....................    float32 y, res, r; 
....................    int1 s, flag; 
....................  
....................    s = 0; 
....................    flag = 0; 
....................    y = x; 
....................  
....................    if (x < 0) 
....................    { 
....................       s = 1; 
....................       y = -y; 
....................    } 
....................  
....................    if (y > 1.0) 
....................    { 
....................       y = 1.0/y; 
....................       flag = 1; 
....................    } 
....................  
....................    res = pat[0]*y*y + pat[1]; 
....................    res = res*y*y + pat[2]; 
....................    res = res*y*y + pat[3]; 
....................  
....................    r = qat[0]*y*y + qat[1]; 
....................    r = r*y*y + qat[2]; 
....................    r = r*y*y + qat[3]; 
....................  
....................    res = y*res/r; 
....................  
....................  
....................    if (flag)                              // for |x| > 1 
....................       res = PI_DIV_BY_TWO - res; 
....................    if (s) 
....................       res = -res; 
....................  
....................    return(res); 
.................... } 
.................... //Overloaded functions for atan() for PCD 
.................... // Overloaded function atan() for data type - Float48 
.................... #if defined(__PCD__) 
.................... float48 atan(float48 x) 
.................... { 
....................    float48 y, res, r; 
....................    int1 s, flag; 
....................  
....................    s = 0; 
....................    flag = 0; 
....................    y = x; 
....................  
....................    if (x < 0) 
....................    { 
....................       s = 1; 
....................       y = -y; 
....................    } 
....................  
....................    if (y > 1.0) 
....................    { 
....................       y = 1.0/y; 
....................       flag = 1; 
....................    } 
....................  
....................    res = pat[0]*y*y + pat[1]; 
....................    res = res*y*y + pat[2]; 
....................    res = res*y*y + pat[3]; 
....................  
....................    r = qat[0]*y*y + qat[1]; 
....................    r = r*y*y + qat[2]; 
....................    r = r*y*y + qat[3]; 
....................  
....................    res = y*res/r; 
....................  
....................  
....................    if (flag)                              // for |x| > 1 
....................       res = PI_DIV_BY_TWO - res; 
....................    if (s) 
....................       res = -res; 
....................  
....................    return(res); 
.................... } 
....................  
.................... // Overloaded function atan() for data type - Float64 
.................... float64 atan(float64 x) 
.................... { 
....................    float64 y, res, r; 
....................    int1 s, flag; 
....................  
....................    s = 0; 
....................    flag = 0; 
....................    y = x; 
....................  
....................    if (x < 0) 
....................    { 
....................       s = 1; 
....................       y = -y; 
....................    } 
....................  
....................    if (y > 1.0) 
....................    { 
....................       y = 1.0/y; 
....................       flag = 1; 
....................    } 
....................  
....................    res = pat[0]*y*y + pat[1]; 
....................    res = res*y*y + pat[2]; 
....................    res = res*y*y + pat[3]; 
....................  
....................    r = qat[0]*y*y + qat[1]; 
....................    r = r*y*y + qat[2]; 
....................    r = r*y*y + qat[3]; 
....................  
....................    res = y*res/r; 
....................  
....................  
....................    if (flag)                              // for |x| > 1 
....................       res = PI_DIV_BY_TWO - res; 
....................    if (s) 
....................       res = -res; 
....................  
....................    return(res); 
.................... } 
.................... #endif 
....................  
.................... ///////////////////////////////////////////////////////////////////////////// 
.................... //   float atan2(float y, float x) 
.................... ///////////////////////////////////////////////////////////////////////////// 
.................... // Description :computes the principal value of arc tangent of y/x, using the 
.................... // signs of both the arguments to determine the quadrant of the return value 
.................... // Returns : returns the arc tangent of y/x. 
.................... // Date : N/A 
.................... // 
....................  
.................... float32 atan2(float32 y,float32 x) 
.................... { 
....................    float32 z; 
....................    int1 sign; 
....................    unsigned int8 quad; 
....................    sign=0; 
....................    quad=0; //quadrant 
....................    quad=((y<=0.0)?((x<=0.0)?3:4):((x<0.0)?2:1)); 
....................    if(y<0.0) 
....................    { 
....................       sign=1; 
....................       y=-y; 
....................    } 
....................    if(x<0.0) 
....................    { 
....................       x=-x; 
....................    } 
....................    if (x==0.0) 
....................    { 
....................       if(y==0.0) 
....................       { 
....................       #ifdef _ERRNO 
....................       { 
....................          errno=EDOM; 
....................       } 
....................       #endif 
....................       } 
....................       else 
....................       { 
....................          if(sign) 
....................          { 
....................          return (-(PI_DIV_BY_TWO)); 
....................          } 
....................          else 
....................          { 
....................          return (PI_DIV_BY_TWO); 
....................          } 
....................       } 
....................    } 
....................    else 
....................    { 
....................       z=y/x; 
....................       switch(quad) 
....................       { 
....................          case 1: 
....................          { 
....................             return atan(z); 
....................             break; 
....................          } 
....................          case 2: 
....................          { 
.................... //            return (atan(z)+PI_DIV_BY_TWO);  //2L3122 
....................             return (PI-atan(z)); 
....................             break; 
....................          } 
....................          case 3: 
....................          { 
....................             return (atan(z)-PI); 
....................             break; 
....................          } 
....................          case 4: 
....................          { 
....................             return (-atan(z)); 
....................             break; 
....................          } 
....................       } 
....................    } 
.................... } 
....................  
.................... //Overloaded functions for atan2() for PCD 
.................... // Overloaded function atan2() for data type - Float48 
.................... #if defined(__PCD__) 
.................... float48 atan2(float48 y,float48 x) 
.................... { 
....................    float48 z; 
....................    int1 sign; 
....................    unsigned int8 quad; 
....................    sign=0; 
....................    quad=0; //quadrant 
....................    quad=((y<=0.0)?((x<=0.0)?3:4):((x<0.0)?2:1)); 
....................    if(y<0.0) 
....................    { 
....................       sign=1; 
....................       y=-y; 
....................    } 
....................    if(x<0.0) 
....................    { 
....................       x=-x; 
....................    } 
....................    if (x==0.0) 
....................    { 
....................       if(y==0.0) 
....................       { 
....................       #ifdef _ERRNO 
....................       { 
....................          errno=EDOM; 
....................       } 
....................       #endif 
....................       } 
....................       else 
....................       { 
....................          if(sign) 
....................          { 
....................          return (-(PI_DIV_BY_TWO)); 
....................          } 
....................          else 
....................          { 
....................          return (PI_DIV_BY_TWO); 
....................          } 
....................       } 
....................    } 
....................    else 
....................    { 
....................       z=y/x; 
....................       switch(quad) 
....................       { 
....................          case 1: 
....................          { 
....................             return atan(z); 
....................             break; 
....................          } 
....................          case 2: 
....................          { 
.................... //            return (atan(z)+PI_DIV_BY_TWO);  //2L3122 
....................             return (PI-atan(z)); 
....................             break; 
....................          } 
....................          case 3: 
....................          { 
....................             return (atan(z)-PI); 
....................             break; 
....................          } 
....................          case 4: 
....................          { 
....................             return (-atan(z)); 
....................             break; 
....................          } 
....................       } 
....................    } 
.................... } 
....................  
.................... // Overloaded function atan2() for data type - Float64 
.................... float64 atan2(float64 y,float64 x) 
.................... { 
....................    float64 z; 
....................    int1 sign; 
....................    unsigned int8 quad; 
....................    sign=0; 
....................    quad=0; //quadrant 
....................    quad=((y<=0.0)?((x<=0.0)?3:4):((x<0.0)?2:1)); 
....................    if(y<0.0) 
....................    { 
....................       sign=1; 
....................       y=-y; 
....................    } 
....................    if(x<0.0) 
....................    { 
....................       x=-x; 
....................    } 
....................    if (x==0.0) 
....................    { 
....................       if(y==0.0) 
....................       { 
....................       #ifdef _ERRNO 
....................       { 
....................          errno=EDOM; 
....................       } 
....................       #endif 
....................       } 
....................       else 
....................       { 
....................          if(sign) 
....................          { 
....................          return (-(PI_DIV_BY_TWO)); 
....................          } 
....................          else 
....................          { 
....................          return (PI_DIV_BY_TWO); 
....................          } 
....................       } 
....................    } 
....................    else 
....................    { 
....................       z=y/x; 
....................       switch(quad) 
....................       { 
....................          case 1: 
....................          { 
....................             return atan(z); 
....................             break; 
....................          } 
....................          case 2: 
....................          { 
.................... //            return (atan(z)+PI_DIV_BY_TWO);  //2L3122 
....................             return (PI-atan(z)); 
....................             break; 
....................          } 
....................          case 3: 
....................          { 
....................             return (atan(z)-PI); 
....................             break; 
....................          } 
....................          case 4: 
....................          { 
....................             return (-atan(z)); 
....................             break; 
....................          } 
....................       } 
....................    } 
.................... } 
.................... #endif 
....................  
.................... //////////////////// Hyperbolic functions //////////////////// 
....................  
.................... //////////////////////////////////////////////////////////////////////////// 
.................... //   float cosh(float x) 
.................... //////////////////////////////////////////////////////////////////////////// 
.................... // Description : Computes the hyperbolic cosine value of x 
.................... // Returns : returns the hyperbolic cosine value of x 
.................... // Date : N/A 
.................... // 
....................  
.................... float32 cosh(float32 x) 
.................... { 
....................    return ((exp(x)+exp(-x))/2); 
.................... } 
.................... //Overloaded functions for cosh() for PCD 
.................... // Overloaded function cosh() for data type - Float48 
.................... #if defined(__PCD__) 
.................... float48 cosh(float48 x) 
.................... { 
....................    return ((exp(x)+exp(-x))/2); 
.................... } 
....................  
.................... // Overloaded function cosh() for data type - Float64 
.................... float64 cosh(float64 x) 
.................... { 
....................    return ((exp(x)+exp(-x))/2); 
.................... } 
.................... #endif 
....................  
.................... //////////////////////////////////////////////////////////////////////////// 
.................... //   float sinh(float x) 
.................... //////////////////////////////////////////////////////////////////////////// 
.................... // Description : Computes the hyperbolic sine value of x 
.................... // Returns : returns the hyperbolic sine value of x 
.................... // Date : N/A 
.................... // 
....................  
.................... float32 sinh(float32 x) 
.................... { 
....................  
....................    return ((exp(x) - exp(-x))/2); 
.................... } 
.................... //Overloaded functions for sinh() for PCD 
.................... // Overloaded function sinh() for data type - Float48 
.................... #if defined(__PCD__) 
.................... float48 sinh(float48 x) 
.................... { 
....................  
....................    return ((exp(x) - exp(-x))/2); 
.................... } 
....................  
.................... // Overloaded function sinh() for data type - Float48 
.................... float64 sinh(float64 x) 
.................... { 
....................  
....................    return ((exp(x) - exp(-x))/2); 
.................... } 
.................... #endif 
....................  
.................... //////////////////////////////////////////////////////////////////////////// 
.................... //   float tanh(float x) 
.................... //////////////////////////////////////////////////////////////////////////// 
.................... // Description : Computes the hyperbolic tangent value of x 
.................... // Returns : returns the hyperbolic tangent value of x 
.................... // Date : N/A 
.................... // 
....................  
.................... float32 tanh(float32 x) 
.................... { 
....................    return(sinh(x)/cosh(x)); 
.................... } 
.................... //Overloaded functions for tanh() for PCD 
.................... // Overloaded function tanh() for data type - Float48 
.................... #if defined(__PCD__) 
.................... float48 tanh(float48 x) 
.................... { 
....................    return(sinh(x)/cosh(x)); 
.................... } 
....................  
.................... // Overloaded function tanh() for data type - Float64 
.................... float64 tanh(float64 x) 
.................... { 
....................    return(sinh(x)/cosh(x)); 
.................... } 
.................... #endif 
....................  
.................... //////////////////////////////////////////////////////////////////////////// 
.................... //   float frexp(float x, signed int *exp) 
.................... //////////////////////////////////////////////////////////////////////////// 
.................... // Description : breaks a floating point number into a normalized fraction and an integral 
.................... // power of 2. It stores the integer in the signed int object pointed to by exp. 
.................... // Returns : returns the value x, such that x is a double with magnitude in the interval 
.................... // [1/2,1) or zero, and value equals x times 2 raised to the power *exp.If value is zero, 
.................... // both parts of the result are zero. 
.................... // Date : N/A 
.................... // 
....................  
.................... #define LOG2 .30102999566398119521 
.................... float32 frexp(float32 x, signed int8 *exp) 
.................... { 
....................    float32 res; 
....................    int1 sign = 0; 
....................    if(x == 0.0) 
....................    { 
....................       *exp=0; 
....................       return (0.0); 
....................    } 
....................    if(x < 0.0) 
....................    { 
....................      x=-x; 
....................      sign=1; 
....................    } 
....................    if (x > 1.0) 
....................    { 
....................       *exp=(ceil(log10(x)/LOG2)); 
....................       res=x/(pow(2, *exp)); 
....................       if (res == 1) 
....................       { 
....................          *exp=*exp+1; 
....................           res=.5; 
....................       } 
....................    } 
....................    else 
....................    { 
....................       if(x < 0.5) 
....................       { 
....................          *exp=-1; 
....................          res=x*2; 
....................       } 
....................       else 
....................       { 
....................          *exp=0; 
....................           res=x; 
....................       } 
....................    } 
....................    if(sign) 
....................    { 
....................       res=-res; 
....................    } 
....................    return res; 
.................... } 
....................  
.................... //Overloaded functions for frexp() for PCD 
.................... // Overloaded function frexp() for data type - Float48 
.................... #if defined(__PCD__) 
.................... float48 frexp(float48 x, signed int8 *exp) 
.................... { 
....................    float48 res; 
....................    int1 sign = 0; 
....................    if(x == 0.0) 
....................    { 
....................       *exp=0; 
....................       return (0.0); 
....................    } 
....................    if(x < 0.0) 
....................    { 
....................      x=-x; 
....................      sign=1; 
....................    } 
....................    if (x > 1.0) 
....................    { 
....................       *exp=(ceil(log10(x)/LOG2)); 
....................       res=x/(pow(2, *exp)); 
....................       if (res == 1) 
....................       { 
....................          *exp=*exp+1; 
....................           res=.5; 
....................       } 
....................    } 
....................    else 
....................    { 
....................       if(x < 0.5) 
....................       { 
....................          *exp=-1; 
....................          res=x*2; 
....................       } 
....................       else 
....................       { 
....................          *exp=0; 
....................           res=x; 
....................       } 
....................    } 
....................    if(sign) 
....................    { 
....................       res=-res; 
....................    } 
....................    return res; 
.................... } 
....................  
.................... // Overloaded function frexp() for data type - Float64 
.................... float64 frexp(float64 x, signed int8 *exp) 
.................... { 
....................    float64 res; 
....................    int1 sign = 0; 
....................    if(x == 0.0) 
....................    { 
....................       *exp=0; 
....................       return (0.0); 
....................    } 
....................    if(x < 0.0) 
....................    { 
....................      x=-x; 
....................      sign=1; 
....................    } 
....................    if (x > 1.0) 
....................    { 
....................       *exp=(ceil(log10(x)/LOG2)); 
....................       res=x/(pow(2, *exp)); 
....................       if (res == 1) 
....................       { 
....................          *exp=*exp+1; 
....................           res=.5; 
....................       } 
....................    } 
....................    else 
....................    { 
....................       if(x < 0.5) 
....................       { 
....................          *exp=-1; 
....................          res=x*2; 
....................       } 
....................       else 
....................       { 
....................          *exp=0; 
....................           res=x; 
....................       } 
....................    } 
....................    if(sign) 
....................    { 
....................       res=-res; 
....................    } 
....................    return res; 
.................... } 
.................... #endif 
....................  
.................... ////////////////////////////////////////////////////////////////////////////// 
.................... //   float ldexp(float x, signed int *exp) 
.................... ////////////////////////////////////////////////////////////////////////////// 
.................... // Description : multiplies a floating point number by an integral power of 2. 
.................... // Returns : returns the value of x times 2 raised to the power exp. 
.................... // Date : N/A 
.................... // 
....................  
.................... float32 ldexp(float32 value, signed int8 exp) 
.................... { 
....................    return (value * pow(2,exp)); 
.................... } 
.................... //Overloaded functions for ldexp() for PCD 
.................... // Overloaded function ldexp() for data type - Float48 
....................  
.................... #if defined(__PCD__) 
.................... float48 ldexp(float48 value, signed int8 exp) 
.................... { 
....................    return (value * pow(2,exp)); 
.................... } 
.................... // Overloaded function ldexp() for data type - Float64 
.................... float64 ldexp(float64 value, signed int8 exp) 
.................... { 
....................    return (value * pow(2,exp)); 
.................... } 
.................... #endif 
....................  
.................... #endif 
....................  
.................... #include "HDM64GS12.c" 
.................... ///////////////////////////////////////////////////////////////////////// 
.................... ////                           HDM64GS12.c                           //// 
.................... ////                                                                 //// 
.................... //// This file contains drivers for using a Hantronix HDM64GS12 with //// 
.................... //// a KS0108 display controller. The HDM64GS12 is 128 by 64 pixels. //// 
.................... //// The driver treats the upper left pixel as (0,0).                //// 
.................... ////                                                                 //// 
.................... //// Use #define FAST_GLCD if the target chip has at least 1k of RAM //// 
.................... //// to decrease the time it takes to update the display.            //// 
.................... //// glcd_update() must then be called to update the display after   //// 
.................... //// changing the pixel information.                                 //// 
.................... //// See ex_glcd.c for suggested usage.                              //// 
.................... //// See KS0108.c for controlling a single 64 by 64 display          //// 
.................... ///////////////////////////////////////////////////////////////////////// 
.................... ////                                                                 //// 
.................... //// LCD Pin connections:                                            //// 
.................... //// (These can be changed as needed in the following defines).      //// 
.................... ////  * 1: VSS is connected to GND                                   //// 
.................... ////  * 2: VDD is connected to +5V                                   //// 
.................... ////  * 3: V0  - LCD operating voltage (Constrast adjustment)        //// 
.................... ////  * 4: D/I - Data or Instruction is connected to B2              //// 
.................... ////  * 5: R/W - Read or Write is connected to B4                    //// 
.................... ////  * 6: Enable is connected to B5                                 //// 
.................... ////  *7-14: Data Bus 0 to 7 is connected to port d                  //// 
.................... ////  *15: Chip Select 1 is connected to B0                          //// 
.................... ////  *16: Chip Select 2 is connected to B1                          //// 
.................... ////  *17: Reset is connected to C0                                  //// 
.................... ////  *18: Negative voltage is also connected to the 20k Ohm POT     //// 
.................... ////  *19: Positive voltage for LED backlight is connected to +5V    //// 
.................... ////  *20: Negavtive voltage for LED backlight is connected to GND   //// 
.................... ////                                                                 //// 
.................... ///////////////////////////////////////////////////////////////////////// 
.................... ////                                                                 //// 
.................... ////  glcd_init(mode)                                                //// 
.................... ////     * Must be called before any other function.                 //// 
.................... ////       - mode can be ON or OFF to turn the LCD on or off         //// 
.................... ////                                                                 //// 
.................... ////  glcd_pixel(x,y,color)                                          //// 
.................... ////     * Sets the pixel to the given color.                        //// 
.................... ////       - color can be ON or OFF                                  //// 
.................... ////                                                                 //// 
.................... ////  glcd_fillScreen(color)                                         //// 
.................... ////     * Fills the entire LCD with the given color.                //// 
.................... ////       - color can be ON or OFF                                  //// 
.................... ////                                                                 //// 
.................... ////  glcd_update()                                                  //// 
.................... ////     * Write the display data stored in RAM to the LCD           //// 
.................... ////     * Only available if FAST_GLCD is defined                    //// 
.................... ////                                                                 //// 
.................... ///////////////////////////////////////////////////////////////////////// 
.................... ////        (C) Copyright 1996, 2004 Custom Computer Services        //// 
.................... //// This source code may only be used by licensed users of the CCS  //// 
.................... //// C compiler.  This source code may only be distributed to other  //// 
.................... //// licensed users of the CCS C compiler.  No other use,            //// 
.................... //// reproduction or distribution is permitted without written       //// 
.................... //// permission.  Derivative programs created using this software    //// 
.................... //// in object code form are not restricted in any way.              //// 
.................... ///////////////////////////////////////////////////////////////////////// 
....................  
....................  
....................  
.................... #ifndef HDM64GS12 
.................... #define HDM64GS12 
....................  
.................... #ifndef FAST_GLCD 
.................... #define FAST_GLCD 
....................  
.................... #ifndef GLCD_WIDTH 
.................... #define GLCD_WIDTH   128 
.................... #endif 
....................  
.................... #ifndef GLCD_CS1 
.................... #define GLCD_CS1     PIN_B2   // Chip Selection 1 
.................... #endif 
....................  
.................... #ifndef GLCD_CS2 
.................... #define GLCD_CS2     PIN_B3   // Chip Selection 2 
.................... #endif 
....................  
.................... #ifndef GLCD_DI 
.................... #define GLCD_DI      PIN_B5   // Data or Instruction input 
.................... #endif 
....................  
.................... #ifndef GLCD_RW 
.................... #define GLCD_RW      PIN_B6   // Read/Write 
.................... #endif 
....................  
.................... #ifndef GLCD_E 
.................... #define GLCD_E       PIN_B7   // Enable 
.................... #endif 
....................  
.................... #ifndef GLCD_RST 
.................... #define GLCD_RST     PIN_B4   // Reset 
.................... #endif 
....................  
.................... #define GLCD_LEFT    0 
.................... #define GLCD_RIGHT   1 
....................  
.................... #ifndef ON 
.................... #define ON           1 
.................... #endif 
....................  
.................... #ifndef OFF 
.................... #define OFF          0 
.................... #endif 
....................  
.................... ///////////////////////////////////////////////////////////////////////// 
.................... // Function Prototypes 
.................... ///////////////////////////////////////////////////////////////////////// 
.................... void glcd_init(int1 mode); 
.................... void glcd_pixel(int8 x, int8 y, int1 color); 
.................... void glcd_fillScreen(int1 color); 
.................... void glcd_writeByte(int1 side, BYTE data); 
.................... BYTE glcd_readByte(int1 side); 
.................... void glcd_update(); 
.................... ///////////////////////////////////////////////////////////////////////// 
....................  
.................... #ifdef FAST_GLCD 
.................... struct 
.................... { 
....................    int8 left[512]; 
....................    int8 right[512]; 
.................... } displayData; 
.................... #endif 
....................  
....................  
.................... // Purpose:       Initialize the LCD. 
.................... //                Call before using any other LCD function. 
.................... // Inputs:        OFF - Turns the LCD off 
.................... //                ON  - Turns the LCD on 
.................... void glcd_init(int1 mode) 
.................... { 
....................    // Initialze some pins 
....................    output_high(GLCD_RST); 
*
01586:  BCF    F93.4
01588:  BSF    F8A.4
....................    output_low(GLCD_E); 
0158A:  BCF    F93.7
0158C:  BCF    F8A.7
....................    output_low(GLCD_CS1); 
0158E:  BCF    F93.2
01590:  BCF    F8A.2
....................    output_low(GLCD_CS2); 
01592:  BCF    F93.3
01594:  BCF    F8A.3
....................  
....................    output_low(GLCD_DI);                 // Set for instruction 
01596:  BCF    F93.5
01598:  BCF    F8A.5
....................    glcd_writeByte(GLCD_LEFT,  0xC0);    // Specify first RAM line at the top 
0159A:  MOVLB  5
0159C:  CLRF   xF4
0159E:  MOVLW  C0
015A0:  MOVWF  xF5
015A2:  MOVLB  0
015A4:  RCALL  143E
....................    glcd_writeByte(GLCD_RIGHT, 0xC0);    //   of the screen 
015A6:  MOVLW  01
015A8:  MOVLB  5
015AA:  MOVWF  xF4
015AC:  MOVLW  C0
015AE:  MOVWF  xF5
015B0:  MOVLB  0
015B2:  RCALL  143E
....................    glcd_writeByte(GLCD_LEFT,  0x40);    // Set the column address to 0 
015B4:  MOVLB  5
015B6:  CLRF   xF4
015B8:  MOVLW  40
015BA:  MOVWF  xF5
015BC:  MOVLB  0
015BE:  RCALL  143E
....................    glcd_writeByte(GLCD_RIGHT, 0x40); 
015C0:  MOVLW  01
015C2:  MOVLB  5
015C4:  MOVWF  xF4
015C6:  MOVLW  40
015C8:  MOVWF  xF5
015CA:  MOVLB  0
015CC:  RCALL  143E
....................    glcd_writeByte(GLCD_LEFT,  0xB8);    // Set the page address to 0 
015CE:  MOVLB  5
015D0:  CLRF   xF4
015D2:  MOVLW  B8
015D4:  MOVWF  xF5
015D6:  MOVLB  0
015D8:  RCALL  143E
....................    glcd_writeByte(GLCD_RIGHT, 0xB8); 
015DA:  MOVLW  01
015DC:  MOVLB  5
015DE:  MOVWF  xF4
015E0:  MOVLW  B8
015E2:  MOVWF  xF5
015E4:  MOVLB  0
015E6:  RCALL  143E
....................  
....................    if(mode == ON) 
015E8:  MOVLB  5
015EA:  DECFSZ xE5,W
015EC:  BRA    160A
....................    { 
....................       glcd_writeByte(GLCD_LEFT,  0x3F); // Turn the display on 
015EE:  CLRF   xF4
015F0:  MOVLW  3F
015F2:  MOVWF  xF5
015F4:  MOVLB  0
015F6:  RCALL  143E
....................       glcd_writeByte(GLCD_RIGHT, 0x3F); 
015F8:  MOVLW  01
015FA:  MOVLB  5
015FC:  MOVWF  xF4
015FE:  MOVLW  3F
01600:  MOVWF  xF5
01602:  MOVLB  0
01604:  RCALL  143E
....................    } 
....................    else 
01606:  BRA    1622
01608:  MOVLB  5
....................    { 
....................       glcd_writeByte(GLCD_LEFT,  0x3E); // Turn the display off 
0160A:  CLRF   xF4
0160C:  MOVLW  3E
0160E:  MOVWF  xF5
01610:  MOVLB  0
01612:  RCALL  143E
....................       glcd_writeByte(GLCD_RIGHT, 0x3E); 
01614:  MOVLW  01
01616:  MOVLB  5
01618:  MOVWF  xF4
0161A:  MOVLW  3E
0161C:  MOVWF  xF5
0161E:  MOVLB  0
01620:  RCALL  143E
....................    } 
....................  
....................    glcd_fillScreen(OFF);                // Clear the display 
01622:  MOVLB  5
01624:  CLRF   xED
01626:  MOVLB  0
01628:  RCALL  1474
....................  
....................    #ifdef FAST_GLCD 
....................    glcd_update(); 
0162A:  RCALL  14CE
....................    #endif 
.................... } 
0162C:  RETLW  00
....................  
....................  
.................... // Purpose:    Update the LCD with data from the display arrays 
.................... #ifdef FAST_GLCD 
.................... void glcd_update() 
.................... { 
....................    int8 i, j; 
....................    int8 *p1, *p2; 
....................  
....................    p1 = displayData.left; 
*
014CE:  MOVLB  5
014D0:  CLRF   xF0
014D2:  MOVLW  17
014D4:  MOVWF  xEF
....................    p2 = displayData.right; 
014D6:  MOVLW  02
014D8:  MOVWF  xF2
014DA:  MOVLW  17
014DC:  MOVWF  xF1
....................  
....................    // Loop through the vertical pages 
....................    for(i = 0; i < 8; ++i) 
014DE:  CLRF   xED
014E0:  MOVF   xED,W
014E2:  SUBLW  07
014E4:  BNC   1582
....................    { 
....................       output_low(GLCD_DI);                      // Set for instruction 
014E6:  BCF    F93.5
014E8:  BCF    F8A.5
....................       glcd_writeByte(GLCD_LEFT, 0x40);          // Set horizontal address to 0 
014EA:  CLRF   xF4
014EC:  MOVLW  40
014EE:  MOVWF  xF5
014F0:  MOVLB  0
014F2:  RCALL  143E
....................       glcd_writeByte(GLCD_RIGHT, 0x40); 
014F4:  MOVLW  01
014F6:  MOVLB  5
014F8:  MOVWF  xF4
014FA:  MOVLW  40
014FC:  MOVWF  xF5
014FE:  MOVLB  0
01500:  RCALL  143E
....................       glcd_writeByte(GLCD_LEFT, i | 0xB8);      // Set page address 
01502:  MOVLB  5
01504:  MOVF   xED,W
01506:  IORLW  B8
01508:  MOVWF  xF3
0150A:  CLRF   xF4
0150C:  MOVWF  xF5
0150E:  MOVLB  0
01510:  RCALL  143E
....................       glcd_writeByte(GLCD_RIGHT, i | 0xB8); 
01512:  MOVLB  5
01514:  MOVF   xED,W
01516:  IORLW  B8
01518:  MOVWF  xF3
0151A:  MOVLW  01
0151C:  MOVWF  xF4
0151E:  MOVFF  5F3,5F5
01522:  MOVLB  0
01524:  RCALL  143E
....................       output_high(GLCD_DI);                     // Set for data 
01526:  BCF    F93.5
01528:  BSF    F8A.5
....................  
....................       // Loop through the horizontal sections 
....................       for(j = 0; j < 64; ++j) 
0152A:  MOVLB  5
0152C:  CLRF   xEE
0152E:  MOVF   xEE,W
01530:  SUBLW  3F
01532:  BNC   157E
....................       { 
....................          glcd_writeByte(GLCD_LEFT, *p1++);      // Turn pixels on or off 
01534:  MOVFF  5F0,03
01538:  MOVF   xEF,W
0153A:  INCF   xEF,F
0153C:  BTFSC  FD8.2
0153E:  INCF   xF0,F
01540:  MOVWF  FE9
01542:  MOVFF  03,FEA
01546:  MOVFF  FEF,5F3
0154A:  CLRF   xF4
0154C:  MOVFF  5F3,5F5
01550:  MOVLB  0
01552:  RCALL  143E
....................          glcd_writeByte(GLCD_RIGHT, *p2++);     // Turn pixels on or off 
01554:  MOVLB  5
01556:  MOVFF  5F2,03
0155A:  MOVF   xF1,W
0155C:  INCF   xF1,F
0155E:  BTFSC  FD8.2
01560:  INCF   xF2,F
01562:  MOVWF  FE9
01564:  MOVFF  03,FEA
01568:  MOVFF  FEF,5F3
0156C:  MOVLW  01
0156E:  MOVWF  xF4
01570:  MOVFF  5F3,5F5
01574:  MOVLB  0
01576:  RCALL  143E
....................       } 
01578:  MOVLB  5
0157A:  INCF   xEE,F
0157C:  BRA    152E
....................    } 
0157E:  INCF   xED,F
01580:  BRA    14E0
.................... } 
01582:  MOVLB  0
01584:  RETLW  00
.................... #endif 
....................  
....................  
.................... // Purpose:    Turn a pixel on a graphic LCD on or off 
.................... // Inputs:     1) x - the x coordinate of the pixel 
.................... //             2) y - the y coordinate of the pixel 
.................... //             3) color - ON or OFF 
.................... void glcd_pixel(int8 x, int8 y, int1 color) 
.................... #ifdef FAST_GLCD 
.................... { 
....................    int8* p; 
....................    int16 temp; 
....................    temp =  y/8; 
*
0162E:  MOVLB  6
01630:  CLRF   x1F
01632:  RRCF   x1A,W
01634:  MOVWF  x1E
01636:  RRCF   x1E,F
01638:  RRCF   x1E,F
0163A:  MOVLW  1F
0163C:  ANDWF  x1E,F
....................    temp *= 64; 
0163E:  RLCF   x1E,F
01640:  RLCF   x1F,F
01642:  RLCF   x1E,F
01644:  RLCF   x1F,F
01646:  RLCF   x1E,F
01648:  RLCF   x1F,F
0164A:  RLCF   x1E,F
0164C:  RLCF   x1F,F
0164E:  RLCF   x1E,F
01650:  RLCF   x1F,F
01652:  RLCF   x1E,F
01654:  RLCF   x1F,F
01656:  MOVLW  C0
01658:  ANDWF  x1E,F
....................    temp += x; 
0165A:  MOVF   x19,W
0165C:  ADDWF  x1E,F
0165E:  MOVLW  00
01660:  ADDWFC x1F,F
....................  
....................    if(x > 63) 
01662:  MOVF   x19,W
01664:  SUBLW  3F
01666:  BC    1682
....................    { 
....................       p = displayData.right + temp - 64; 
01668:  MOVLW  17
0166A:  ADDWF  x1E,W
0166C:  MOVWF  x20
0166E:  MOVLW  02
01670:  ADDWFC x1F,W
01672:  MOVWF  x21
01674:  MOVLW  40
01676:  SUBWF  x20,W
01678:  MOVWF  x1C
0167A:  MOVLW  00
0167C:  SUBWFB x21,W
0167E:  MOVWF  x1D
....................    } 
....................    else 
01680:  BRA    168E
....................    { 
....................       p = displayData.left + temp; 
01682:  MOVLW  17
01684:  ADDWF  x1E,W
01686:  MOVWF  x1C
01688:  MOVLW  00
0168A:  ADDWFC x1F,W
0168C:  MOVWF  x1D
....................    } 
....................  
....................    if(color) 
0168E:  MOVF   x1B,F
01690:  BZ    16BC
....................    { 
....................       bit_set(*p, y%8); 
01692:  MOVFF  61D,03
01696:  MOVFF  61C,FE9
0169A:  MOVFF  61D,FEA
0169E:  MOVF   x1A,W
016A0:  ANDLW  07
016A2:  MOVWF  x20
016A4:  MOVLW  01
016A6:  MOVWF  00
016A8:  MOVF   x20,W
016AA:  MOVWF  01
016AC:  BZ    16B6
016AE:  BCF    FD8.0
016B0:  RLCF   00,F
016B2:  DECFSZ 01,F
016B4:  BRA    16AE
016B6:  MOVF   00,W
016B8:  IORWF  FEF,F
....................    } 
....................    else 
016BA:  BRA    16E6
....................    { 
....................       bit_clear(*p, y%8); 
016BC:  MOVFF  61D,03
016C0:  MOVFF  61C,FE9
016C4:  MOVFF  61D,FEA
016C8:  MOVF   x1A,W
016CA:  ANDLW  07
016CC:  MOVWF  x20
016CE:  MOVLW  01
016D0:  MOVWF  00
016D2:  MOVF   x20,W
016D4:  MOVWF  01
016D6:  BZ    16E0
016D8:  BCF    FD8.0
016DA:  RLCF   00,F
016DC:  DECFSZ 01,F
016DE:  BRA    16D8
016E0:  MOVF   00,W
016E2:  XORLW  FF
016E4:  ANDWF  FEF,F
....................    } 
.................... } 
016E6:  MOVLB  0
016E8:  RETLW  00
.................... #else 
.................... { 
....................    BYTE data; 
....................    int1 side = GLCD_LEFT;  // Stores which chip to use on the LCD 
....................  
....................    if(x > 63)              // Check for first or second display area 
....................    { 
....................       x -= 64; 
....................       side = GLCD_RIGHT; 
....................    } 
....................  
....................    output_low(GLCD_DI);                         // Set for instruction 
....................    bit_clear(x,7);                              // Clear the MSB. Part of an instruction code 
....................    bit_set(x,6);                                // Set bit 6. Also part of an instruction code 
....................    glcd_writeByte(side, x);                     // Set the horizontal address 
....................    glcd_writeByte(side, (y/8 & 0xBF) | 0xB8);   // Set the vertical page address 
....................    output_high(GLCD_DI);                        // Set for data 
....................    glcd_readByte(side);                         // Need two reads to get data 
....................    data = glcd_readByte(side);                  //  at new address 
....................  
....................    if(color == ON) 
....................       bit_set(data, y%8);        // Turn the pixel on 
....................    else                          // or 
....................       bit_clear(data, y%8);      // turn the pixel off 
....................  
....................    output_low(GLCD_DI);          // Set for instruction 
....................    glcd_writeByte(side, x);      // Set the horizontal address 
....................    output_high(GLCD_DI);         // Set for data 
....................    glcd_writeByte(side, data);   // Write the pixel data 
.................... } 
.................... #endif 
....................  
....................  
.................... // Purpose:    Fill the LCD screen with the passed in color 
.................... // Inputs:     ON  - turn all the pixels on 
.................... //             OFF - turn all the pixels off 
.................... void glcd_fillScreen(int1 color) 
.................... #ifdef FAST_GLCD 
.................... { 
....................    int8  data; 
....................    int8  *p1, *p2; 
....................    int16 i; 
....................  
....................    p1 = displayData.left; 
*
01474:  MOVLB  5
01476:  CLRF   xF0
01478:  MOVLW  17
0147A:  MOVWF  xEF
....................    p2 = displayData.right; 
0147C:  MOVLW  02
0147E:  MOVWF  xF2
01480:  MOVLW  17
01482:  MOVWF  xF1
....................    data = 0xFF * color; 
01484:  MOVF   xED,W
01486:  MULLW  FF
01488:  MOVFF  FF3,5EE
....................  
....................    for(i=0; i<512; ++i) 
0148C:  CLRF   xF4
0148E:  CLRF   xF3
01490:  MOVF   xF4,W
01492:  SUBLW  01
01494:  BNC   14CA
....................    { 
....................       *p1++ = data; 
01496:  MOVFF  5F0,03
0149A:  MOVF   xEF,W
0149C:  INCF   xEF,F
0149E:  BTFSC  FD8.2
014A0:  INCF   xF0,F
014A2:  MOVWF  FE9
014A4:  MOVFF  03,FEA
014A8:  MOVFF  5EE,FEF
....................       *p2++ = data; 
014AC:  MOVFF  5F2,03
014B0:  MOVF   xF1,W
014B2:  INCF   xF1,F
014B4:  BTFSC  FD8.2
014B6:  INCF   xF2,F
014B8:  MOVWF  FE9
014BA:  MOVFF  03,FEA
014BE:  MOVFF  5EE,FEF
....................    } 
014C2:  INCF   xF3,F
014C4:  BTFSC  FD8.2
014C6:  INCF   xF4,F
014C8:  BRA    1490
.................... } 
014CA:  MOVLB  0
014CC:  RETLW  00
.................... #else 
.................... { 
....................    int8 i, j; 
....................  
....................    // Loop through the vertical pages 
....................    for(i = 0; i < 8; ++i) 
....................    { 
....................       output_low(GLCD_DI);                      // Set for instruction 
....................       glcd_writeByte(GLCD_LEFT, 0b01000000);    // Set horizontal address to 0 
....................       glcd_writeByte(GLCD_RIGHT, 0b01000000); 
....................       glcd_writeByte(GLCD_LEFT, i | 0b10111000);// Set page address 
....................       glcd_writeByte(GLCD_RIGHT, i | 0b10111000); 
....................       output_high(GLCD_DI);                     // Set for data 
....................  
....................       // Loop through the horizontal sections 
....................       for(j = 0; j < 64; ++j) 
....................       { 
....................          glcd_writeByte(GLCD_LEFT, 0xFF*color);  // Turn pixels on or off 
....................          glcd_writeByte(GLCD_RIGHT, 0xFF*color); // Turn pixels on or off 
....................       } 
....................    } 
.................... } 
.................... #endif 
....................  
....................  
.................... // Purpose:    Write a byte of data to the specified chip 
.................... // Inputs:     1) chipSelect - which chip to write the data to 
.................... //             2) data - the byte of data to write 
.................... void glcd_writeByte(int1 side, BYTE data) 
.................... { 
....................    if(side)                   // Choose which side to write to 
*
0143E:  MOVLB  5
01440:  MOVF   xF4,F
01442:  BZ    144A
....................       output_high(GLCD_CS2); 
01444:  BCF    F93.3
01446:  BSF    F8A.3
....................    else 
01448:  BRA    144E
....................       output_high(GLCD_CS1); 
0144A:  BCF    F93.2
0144C:  BSF    F8A.2
....................  
....................    output_low(GLCD_RW);       // Set for writing 
0144E:  BCF    F93.6
01450:  BCF    F8A.6
....................    output_d(data);            // Put the data on the port 
01452:  CLRF   F95
01454:  MOVFF  5F5,F8C
....................    delay_cycles(1); 
01458:  NOP   
....................    output_high(GLCD_E);       // Pulse the enable pin 
0145A:  BCF    F93.7
0145C:  BSF    F8A.7
....................    delay_cycles(5); 
0145E:  BRA    1460
01460:  BRA    1462
01462:  NOP   
....................    output_low(GLCD_E); 
01464:  BCF    F93.7
01466:  BCF    F8A.7
....................  
....................    output_low(GLCD_CS1);      // Reset the chip select lines 
01468:  BCF    F93.2
0146A:  BCF    F8A.2
....................    output_low(GLCD_CS2); 
0146C:  BCF    F93.3
0146E:  BCF    F8A.3
.................... } 
01470:  MOVLB  0
01472:  RETLW  00
....................  
....................  
.................... // Purpose:    Reads a byte of data from the specified chip 
.................... // Ouputs:     A byte of data read from the chip 
.................... BYTE glcd_readByte(int1 side) 
.................... { 
....................    BYTE data;                 // Stores the data read from the LCD 
....................  
....................    set_tris_d(0xFF);          // Set port d to input 
....................    output_high(GLCD_RW);      // Set for reading 
....................  
....................    if(side)                   // Choose which side to write to 
....................       output_high(GLCD_CS2); 
....................    else 
....................       output_high(GLCD_CS1); 
....................  
....................    delay_cycles(1); 
....................    output_high(GLCD_E);       // Pulse the enable pin 
....................    delay_cycles(4); 
....................    data = input_d();          // Get the data from the display's output register 
....................    output_low(GLCD_E); 
....................  
....................    output_low(GLCD_CS1);      // Reset the chip select lines 
....................    output_low(GLCD_CS2); 
....................    return data;               // Return the read data 
.................... } 
....................  
.................... #endif 
....................  
.................... #include "GRAPHICS.c" 
.................... ///////////////////////////////////////////////////////////////////////// 
.................... ////                          graphics.c                             //// 
.................... ////                                                                 //// 
.................... ////   This file contains functions to draw lines, rectangles, bars, //// 
.................... ////   circles and text to a display. A function which draws a       //// 
.................... ////   single pixel must be defined before calling the functions in  //// 
.................... ////   this file. Call it glcd_pixel(x, y, color) where x is the     //// 
.................... ////   horizontal coordinate, y is the vertical coordinate, and      //// 
.................... ////   color is 1 bit to turn the pixel on or off.                   //// 
.................... ////                                                                 //// 
.................... ////   * Note: (0, 0) is treated as the upper left corner            //// 
.................... ////                                                                 //// 
.................... ///////////////////////////////////////////////////////////////////////// 
.................... ////                                                                 //// 
.................... ////  glcd_line(x1, y1, x2, y2, color)                               //// 
.................... ////     * Draws a line from the first point to the second point     //// 
.................... ////       with the given color                                      //// 
.................... ////       - color can be ON or OFF                                  //// 
.................... ////                                                                 //// 
.................... ////  glcd_rect(x1, y1, x2, y2, fill, color)                         //// 
.................... ////     * Draws a rectangle with one corner at point (x1,y1) and    //// 
.................... ////       the other corner at point (x2,y2)                         //// 
.................... ////       - fill can be YES or NO                                   //// 
.................... ////       - color can be ON or OFF                                  //// 
.................... ////                                                                 //// 
.................... ////  glcd_bar(x1, y1, x2, y2, width, color)                         //// 
.................... ////     * Draws a bar (wide line) from the first point to the       //// 
.................... ////       second point                                              //// 
.................... ////       - width is the number of pixels wide                      //// 
.................... ////       - color is ON or OFF                                      //// 
.................... ////                                                                 //// 
.................... ////  glcd_circle(x, y, radius, fill, color)                         //// 
.................... ////     * Draws a circle with center at (x,y)                       //// 
.................... ////       - fill can be YES or NO                                   //// 
.................... ////       - color can be ON or OFF                                  //// 
.................... ////                                                                 //// 
.................... ////  glcd_text57(x, y, textptr, size, color)                        //// 
.................... ////     * Write the null terminated text pointed to by textptr with //// 
.................... ////       the upper left coordinate of the first character at (x,y) //// 
.................... ////       Characters are 5 pixels wide and 7 pixels tall            //// 
.................... ////       - size is an integer that scales the size of the text     //// 
.................... ////       - color is ON or OFF                                      //// 
.................... ////     * Note - This function wraps characters to the next line    //// 
.................... ////              use #define GLCD_WIDTH to specify a display width  //// 
.................... ////                                                                 //// 
.................... ///////////////////////////////////////////////////////////////////////// 
.................... ////        (C) Copyright 1996, 2004 Custom Computer Services        //// 
.................... //// This source code may only be used by licensed users of the CCS  //// 
.................... //// C compiler.  This source code may only be distributed to other  //// 
.................... //// licensed users of the CCS C compiler.  No other use,            //// 
.................... //// reproduction or distribution is permitted without written       //// 
.................... //// permission.  Derivative programs created using this software    //// 
.................... //// in object code form are not restricted in any way.              //// 
.................... ///////////////////////////////////////////////////////////////////////// 
....................  
....................  
.................... ///////////////////////////////////////////////////////////////////////// 
.................... #ifndef GRAPHICS_DRAWING_FUNCTIONS 
.................... #define GRAPHICS_DRAWING_FUNCTIONS 
.................... ///////////////////////////////////////////////////////////////////////// 
....................  
....................  
.................... ///////////////////////////////////////////////////////////////////////// 
.................... #ifndef ON 
.................... #define ON  1 
.................... #endif 
....................  
.................... #ifndef OFF 
.................... #define OFF 0 
.................... #endif 
....................  
.................... #ifndef YES 
.................... #define YES 1 
.................... #endif 
....................  
.................... #ifndef NO 
.................... #define NO  0 
.................... #endif 
.................... ///////////////////////////////////////////////////////////////////////// 
....................  
....................  
.................... ///////////////////////////////////////////////////////////////////////// 
.................... //// Defines a 5x7 font 
.................... ///////////////////////////////////////////////////////////////////////// 
.................... const int8 FONT[51][5] ={0x00, 0x00, 0x00, 0x00, 0x00, // SPACE 
....................                          0x00, 0x00, 0x5F, 0x00, 0x00, // ! 
....................                          0x00, 0x03, 0x00, 0x03, 0x00, // " 
....................                          0x14, 0x3E, 0x14, 0x3E, 0x14, // # 
....................                          0x24, 0x2A, 0x7F, 0x2A, 0x12, // $ 
....................                          0x43, 0x33, 0x08, 0x66, 0x61, // % 
....................                          0x36, 0x49, 0x55, 0x22, 0x50, // & 
....................                          0x00, 0x05, 0x03, 0x00, 0x00, // ' 
....................                          0x00, 0x1C, 0x22, 0x41, 0x00, // ( 
....................                          0x00, 0x41, 0x22, 0x1C, 0x00, // ) 
....................                          0x14, 0x08, 0x3E, 0x08, 0x14, // * 
....................                          0x08, 0x08, 0x3E, 0x08, 0x08, // + 
....................                          0x00, 0x50, 0x30, 0x00, 0x00, // , 
....................                          0x08, 0x08, 0x08, 0x08, 0x08, // - 
....................                          0x00, 0x60, 0x60, 0x00, 0x00, // . 
....................                          0x20, 0x10, 0x08, 0x04, 0x02, // / 
....................                          0x3E, 0x51, 0x49, 0x45, 0x3E, // 0 
....................                          0x00, 0x04, 0x02, 0x7F, 0x00, // 1 
....................                          0x42, 0x61, 0x51, 0x49, 0x46, // 2 
....................                          0x22, 0x41, 0x49, 0x49, 0x36, // 3 
....................                          0x18, 0x14, 0x12, 0x7F, 0x10, // 4 
....................                          0x27, 0x45, 0x45, 0x45, 0x39, // 5 
....................                          0x3E, 0x49, 0x49, 0x49, 0x32, // 6 
....................                          0x01, 0x01, 0x71, 0x09, 0x07, // 7 
....................                          0x36, 0x49, 0x49, 0x49, 0x36, // 8 
....................                          0x26, 0x49, 0x49, 0x49, 0x3E, // 9 
....................                          0x00, 0x36, 0x36, 0x00, 0x00, // : 
....................                          0x00, 0x56, 0x36, 0x00, 0x00, // ; 
....................                          0x08, 0x14, 0x22, 0x41, 0x00, // < 
....................                          0x14, 0x14, 0x14, 0x14, 0x14, // = 
....................                          0x00, 0x41, 0x22, 0x14, 0x08, // > 
....................                          0x02, 0x01, 0x51, 0x09, 0x06, // ? 
....................                          0x3E, 0x41, 0x59, 0x55, 0x5E, // @ 
....................                          0x7E, 0x09, 0x09, 0x09, 0x7E, // A 
....................                          0x7F, 0x49, 0x49, 0x49, 0x36, // B 
....................                          0x3E, 0x41, 0x41, 0x41, 0x22, // C 
....................                          0x7F, 0x41, 0x41, 0x41, 0x3E, // D 
....................                          0x7F, 0x49, 0x49, 0x49, 0x41, // E 
....................                          0x7F, 0x09, 0x09, 0x09, 0x01, // F 
....................                          0x3E, 0x41, 0x41, 0x49, 0x3A, // G 
....................                          0x7F, 0x08, 0x08, 0x08, 0x7F, // H 
....................                          0x00, 0x41, 0x7F, 0x41, 0x00, // I 
....................                          0x30, 0x40, 0x40, 0x40, 0x3F, // J 
....................                          0x7F, 0x08, 0x14, 0x22, 0x41, // K 
....................                          0x7F, 0x40, 0x40, 0x40, 0x40, // L 
....................                          0x7F, 0x02, 0x0C, 0x02, 0x7F, // M 
....................                          0x7F, 0x02, 0x04, 0x08, 0x7F, // N 
....................                          0x3E, 0x41, 0x41, 0x41, 0x3E, // O 
....................                          0x7F, 0x09, 0x09, 0x09, 0x06, // P 
....................                          0x1E, 0x21, 0x21, 0x21, 0x5E, // Q 
....................                          0x7F, 0x09, 0x09, 0x09, 0x76};// R 
....................  
.................... const int8 FONT2[44][5]={0x26, 0x49, 0x49, 0x49, 0x32, // S 
....................                          0x01, 0x01, 0x7F, 0x01, 0x01, // T 
....................                          0x3F, 0x40, 0x40, 0x40, 0x3F, // U 
....................                          0x1F, 0x20, 0x40, 0x20, 0x1F, // V 
....................                          0x7F, 0x20, 0x10, 0x20, 0x7F, // W 
....................                          0x41, 0x22, 0x1C, 0x22, 0x41, // X 
....................                          0x07, 0x08, 0x70, 0x08, 0x07, // Y 
....................                          0x61, 0x51, 0x49, 0x45, 0x43, // Z 
....................                          0x00, 0x7F, 0x41, 0x00, 0x00, // [ 
....................                          0x02, 0x04, 0x08, 0x10, 0x20, // \ 
....................                          0x00, 0x00, 0x41, 0x7F, 0x00, // ] 
....................                          0x04, 0x02, 0x01, 0x02, 0x04, // ^ 
....................                          0x40, 0x40, 0x40, 0x40, 0x40, // _ 
....................                          0x00, 0x01, 0x02, 0x04, 0x00, // ` 
....................                          0x20, 0x54, 0x54, 0x54, 0x78, // a 
....................                          0x7F, 0x44, 0x44, 0x44, 0x38, // b 
....................                          0x38, 0x44, 0x44, 0x44, 0x44, // c 
....................                          0x38, 0x44, 0x44, 0x44, 0x7F, // d 
....................                          0x38, 0x54, 0x54, 0x54, 0x18, // e 
....................                          0x04, 0x04, 0x7E, 0x05, 0x05, // f 
....................                          0x08, 0x54, 0x54, 0x54, 0x3C, // g 
....................                          0x7F, 0x08, 0x04, 0x04, 0x78, // h 
....................                          0x00, 0x44, 0x7D, 0x40, 0x00, // i 
....................                          0x20, 0x40, 0x44, 0x3D, 0x00, // j 
....................                          0x7F, 0x10, 0x28, 0x44, 0x00, // k 
....................                          0x00, 0x41, 0x7F, 0x40, 0x00, // l 
....................                          0x7C, 0x04, 0x78, 0x04, 0x78, // m 
....................                          0x7C, 0x08, 0x04, 0x04, 0x78, // n 
....................                          0x38, 0x44, 0x44, 0x44, 0x38, // o 
....................                          0x7C, 0x14, 0x14, 0x14, 0x08, // p 
....................                          0x08, 0x14, 0x14, 0x14, 0x7C, // q 
....................                          0x00, 0x7C, 0x08, 0x04, 0x04, // r 
....................                          0x48, 0x54, 0x54, 0x54, 0x20, // s 
....................                          0x04, 0x04, 0x3F, 0x44, 0x44, // t 
....................                          0x3C, 0x40, 0x40, 0x20, 0x7C, // u 
....................                          0x1C, 0x20, 0x40, 0x20, 0x1C, // v 
....................                          0x3C, 0x40, 0x30, 0x40, 0x3C, // w 
....................                          0x44, 0x28, 0x10, 0x28, 0x44, // x 
....................                          0x0C, 0x50, 0x50, 0x50, 0x3C, // y 
....................                          0x44, 0x64, 0x54, 0x4C, 0x44, // z 
....................                          0x00, 0x08, 0x36, 0x41, 0x41, // { 
....................                          0x00, 0x00, 0x7F, 0x00, 0x00, // | 
....................                          0x41, 0x41, 0x36, 0x08, 0x00, // } 
....................                          0x02, 0x01, 0x02, 0x04, 0x02};// ~ 
.................... ///////////////////////////////////////////////////////////////////////// 
....................  
....................  
.................... ///////////////////////////////////////////////////////////////////////// 
.................... // Purpose:       Draw a line on a graphic LCD using Bresenham's 
.................... //                line drawing algorithm 
.................... // Inputs:        (x1, y1) - the start coordinate 
.................... //                (x2, y2) - the end coordinate 
.................... //                color - ON or OFF 
.................... // Dependencies:  glcd_pixel() 
.................... ///////////////////////////////////////////////////////////////////////// 
.................... #ifdef LARGE_LCD 
.................... void glcd_line(int16 x1, int16 y1, int16 x2, int16 y2, int1 color) 
.................... #else 
.................... void glcd_line(int8 x1, int8 y1, int8 x2, int8 y2, int1 color) 
.................... #endif 
.................... { 
*
04A06:  MOVLW  01
04A08:  MOVLB  6
04A0A:  MOVWF  x12
04A0C:  MOVWF  x13
04A0E:  CLRF   x18
....................    int16        dy, dx; 
....................    signed int8  addx=1, addy=1; 
....................    signed int16 P, diff; 
....................  
....................    #ifdef LARGE_LCD 
....................    int16 i=0; 
....................    dx = abs((signed int16)(x2 - x1)); 
....................    dy = abs((signed int16)(y2 - y1)); 
....................    #else 
....................    int8 i=0; 
....................    dx = abs((signed int8)(x2 - x1)); 
04A10:  MOVF   x09,W
04A12:  SUBWF  x0B,W
04A14:  MOVWF  x19
04A16:  MOVF   x19,W
04A18:  BTFSS  x19.7
04A1A:  BRA    4A22
04A1C:  MOVLW  00
04A1E:  BSF    FD8.0
04A20:  SUBFWB x19,W
04A22:  CLRF   03
04A24:  MOVWF  x10
04A26:  MOVFF  03,611
....................    dy = abs((signed int8)(y2 - y1)); 
04A2A:  MOVF   x0A,W
04A2C:  SUBWF  x0C,W
04A2E:  MOVWF  x19
04A30:  MOVF   x19,W
04A32:  BTFSS  x19.7
04A34:  BRA    4A3C
04A36:  MOVLW  00
04A38:  BSF    FD8.0
04A3A:  SUBFWB x19,W
04A3C:  CLRF   03
04A3E:  MOVWF  x0E
04A40:  MOVFF  03,60F
....................    #endif 
....................  
....................    if(x1 > x2) 
04A44:  MOVF   x09,W
04A46:  SUBWF  x0B,W
04A48:  BC    4A4E
....................       addx = -1; 
04A4A:  MOVLW  FF
04A4C:  MOVWF  x12
....................    if(y1 > y2) 
04A4E:  MOVF   x0A,W
04A50:  SUBWF  x0C,W
04A52:  BC    4A58
....................       addy = -1; 
04A54:  MOVLW  FF
04A56:  MOVWF  x13
....................  
....................    if(dx >= dy) 
04A58:  MOVF   x0F,W
04A5A:  SUBWF  x11,W
04A5C:  BNC   4AD6
04A5E:  BNZ   4A66
04A60:  MOVF   x0E,W
04A62:  SUBWF  x10,W
04A64:  BNC   4AD6
....................    { 
....................       dy *= 2; 
04A66:  BCF    FD8.0
04A68:  RLCF   x0E,F
04A6A:  RLCF   x0F,F
....................       P = dy - dx; 
04A6C:  MOVF   x10,W
04A6E:  SUBWF  x0E,W
04A70:  MOVWF  00
04A72:  MOVF   x11,W
04A74:  SUBWFB x0F,W
04A76:  MOVFF  00,614
04A7A:  MOVWF  x15
....................       diff = P - dx; 
04A7C:  MOVF   x10,W
04A7E:  SUBWF  x14,W
04A80:  MOVWF  x16
04A82:  MOVF   x11,W
04A84:  SUBWFB x15,W
04A86:  MOVWF  x17
....................  
....................       for(; i<=dx; ++i) 
04A88:  MOVF   x11,F
04A8A:  BNZ   4A92
04A8C:  MOVF   x18,W
04A8E:  SUBWF  x10,W
04A90:  BNC   4AD4
....................       { 
....................          glcd_pixel(x1, y1, color); 
04A92:  MOVFF  609,619
04A96:  MOVFF  60A,61A
04A9A:  MOVFF  60D,61B
04A9E:  MOVLB  0
04AA0:  CALL   162E
....................  
....................          if(P < 0) 
04AA4:  MOVLB  6
04AA6:  BTFSC  x15.7
04AA8:  BRA    4AAC
04AAA:  BRA    4ABC
....................          { 
....................             P  += dy; 
04AAC:  MOVF   x0E,W
04AAE:  ADDWF  x14,F
04AB0:  MOVF   x0F,W
04AB2:  ADDWFC x15,F
....................             x1 += addx; 
04AB4:  MOVF   x12,W
04AB6:  ADDWF  x09,W
04AB8:  MOVWF  x09
....................          } 
....................          else 
04ABA:  BRA    4AD0
....................          { 
....................             P  += diff; 
04ABC:  MOVF   x16,W
04ABE:  ADDWF  x14,F
04AC0:  MOVF   x17,W
04AC2:  ADDWFC x15,F
....................             x1 += addx; 
04AC4:  MOVF   x12,W
04AC6:  ADDWF  x09,W
04AC8:  MOVWF  x09
....................             y1 += addy; 
04ACA:  MOVF   x13,W
04ACC:  ADDWF  x0A,W
04ACE:  MOVWF  x0A
....................          } 
....................       } 
04AD0:  INCF   x18,F
04AD2:  BRA    4A88
....................    } 
....................    else 
04AD4:  BRA    4B44
....................    { 
....................       dx *= 2; 
04AD6:  BCF    FD8.0
04AD8:  RLCF   x10,F
04ADA:  RLCF   x11,F
....................       P = dx - dy; 
04ADC:  MOVF   x0E,W
04ADE:  SUBWF  x10,W
04AE0:  MOVWF  00
04AE2:  MOVF   x0F,W
04AE4:  SUBWFB x11,W
04AE6:  MOVFF  00,614
04AEA:  MOVWF  x15
....................       diff = P - dy; 
04AEC:  MOVF   x0E,W
04AEE:  SUBWF  x14,W
04AF0:  MOVWF  x16
04AF2:  MOVF   x0F,W
04AF4:  SUBWFB x15,W
04AF6:  MOVWF  x17
....................  
....................       for(; i<=dy; ++i) 
04AF8:  MOVF   x0F,F
04AFA:  BNZ   4B02
04AFC:  MOVF   x18,W
04AFE:  SUBWF  x0E,W
04B00:  BNC   4B44
....................       { 
....................          glcd_pixel(x1, y1, color); 
04B02:  MOVFF  609,619
04B06:  MOVFF  60A,61A
04B0A:  MOVFF  60D,61B
04B0E:  MOVLB  0
04B10:  CALL   162E
....................  
....................          if(P < 0) 
04B14:  MOVLB  6
04B16:  BTFSC  x15.7
04B18:  BRA    4B1C
04B1A:  BRA    4B2C
....................          { 
....................             P  += dx; 
04B1C:  MOVF   x10,W
04B1E:  ADDWF  x14,F
04B20:  MOVF   x11,W
04B22:  ADDWFC x15,F
....................             y1 += addy; 
04B24:  MOVF   x13,W
04B26:  ADDWF  x0A,W
04B28:  MOVWF  x0A
....................          } 
....................          else 
04B2A:  BRA    4B40
....................          { 
....................             P  += diff; 
04B2C:  MOVF   x16,W
04B2E:  ADDWF  x14,F
04B30:  MOVF   x17,W
04B32:  ADDWFC x15,F
....................             x1 += addx; 
04B34:  MOVF   x12,W
04B36:  ADDWF  x09,W
04B38:  MOVWF  x09
....................             y1 += addy; 
04B3A:  MOVF   x13,W
04B3C:  ADDWF  x0A,W
04B3E:  MOVWF  x0A
....................          } 
....................       } 
04B40:  INCF   x18,F
04B42:  BRA    4AF8
....................    } 
.................... } 
04B44:  MOVLB  0
04B46:  RETLW  00
....................  
....................  
.................... ///////////////////////////////////////////////////////////////////////// 
.................... // Purpose:       Draw a rectangle on a graphic LCD 
.................... // Inputs:        (x1, y1) - the start coordinate 
.................... //                (x2, y2) - the end coordinate 
.................... //                fill  - YES or NO 
.................... //                color - ON or OFF 
.................... // Dependencies:  glcd_pixel(), glcd_line() 
.................... ///////////////////////////////////////////////////////////////////////// 
.................... #ifdef LARGE_LCD 
.................... void glcd_rect(int16 x1, int16 y1, int16 x2, int16 y2, int1 fill, int1 color) 
.................... #else 
.................... void glcd_rect(int8 x1, int8 y1, int8 x2, int8 y2, int1 fill, int1 color) 
.................... #endif 
.................... { 
....................    if(fill) 
04B48:  MOVLB  6
04B4A:  MOVF   x02,F
04B4C:  BZ    4BB4
....................    { 
....................       #ifdef LARGE_LCD 
....................       int16 i, xmin, xmax, ymin, ymax; 
....................       #else 
....................       int8  i, xmin, xmax, ymin, ymax; 
....................       #endif 
....................  
....................       if(x1 < x2)                            //  Find x min and max 
04B4E:  MOVF   x00,W
04B50:  MOVLB  5
04B52:  SUBWF  xFE,W
04B54:  BC    4B60
....................       { 
....................          xmin = x1; 
04B56:  MOVFF  5FE,605
....................          xmax = x2; 
04B5A:  MOVFF  600,606
....................       } 
....................       else 
04B5E:  BRA    4B68
....................       { 
....................          xmin = x2; 
04B60:  MOVFF  600,605
....................          xmax = x1; 
04B64:  MOVFF  5FE,606
....................       } 
....................  
....................       if(y1 < y2)                            // Find the y min and max 
04B68:  MOVLB  6
04B6A:  MOVF   x01,W
04B6C:  MOVLB  5
04B6E:  SUBWF  xFF,W
04B70:  BC    4B7C
....................       { 
....................          ymin = y1; 
04B72:  MOVFF  5FF,607
....................          ymax = y2; 
04B76:  MOVFF  601,608
....................       } 
....................       else 
04B7A:  BRA    4B84
....................       { 
....................          ymin = y2; 
04B7C:  MOVFF  601,607
....................          ymax = y1; 
04B80:  MOVFF  5FF,608
....................       } 
....................  
....................       for(; xmin <= xmax; ++xmin) 
04B84:  MOVLB  6
04B86:  MOVF   x05,W
04B88:  SUBWF  x06,W
04B8A:  BNC   4BB2
....................       { 
....................          for(i=ymin; i<=ymax; ++i) 
04B8C:  MOVFF  607,604
04B90:  MOVF   x04,W
04B92:  SUBWF  x08,W
04B94:  BNC   4BAE
....................          { 
....................             glcd_pixel(xmin, i, color); 
04B96:  MOVFF  605,619
04B9A:  MOVFF  604,61A
04B9E:  MOVFF  603,61B
04BA2:  MOVLB  0
04BA4:  CALL   162E
....................          } 
04BA8:  MOVLB  6
04BAA:  INCF   x04,F
04BAC:  BRA    4B90
....................       } 
04BAE:  INCF   x05,F
04BB0:  BRA    4B86
....................    } 
....................    else 
04BB2:  BRA    4C10
....................    { 
....................       glcd_line(x1, y1, x2, y1, color);      // Draw the 4 sides 
04BB4:  MOVFF  5FE,609
04BB8:  MOVFF  5FF,60A
04BBC:  MOVFF  600,60B
04BC0:  MOVFF  5FF,60C
04BC4:  MOVFF  603,60D
04BC8:  MOVLB  0
04BCA:  RCALL  4A06
....................       glcd_line(x1, y2, x2, y2, color); 
04BCC:  MOVFF  5FE,609
04BD0:  MOVFF  601,60A
04BD4:  MOVFF  600,60B
04BD8:  MOVFF  601,60C
04BDC:  MOVFF  603,60D
04BE0:  RCALL  4A06
....................       glcd_line(x1, y1, x1, y2, color); 
04BE2:  MOVFF  5FE,609
04BE6:  MOVFF  5FF,60A
04BEA:  MOVFF  5FE,60B
04BEE:  MOVFF  601,60C
04BF2:  MOVFF  603,60D
04BF6:  RCALL  4A06
....................       glcd_line(x2, y1, x2, y2, color); 
04BF8:  MOVFF  600,609
04BFC:  MOVFF  5FF,60A
04C00:  MOVFF  600,60B
04C04:  MOVFF  601,60C
04C08:  MOVFF  603,60D
04C0C:  RCALL  4A06
04C0E:  MOVLB  6
....................    } 
.................... } 
04C10:  MOVLB  0
04C12:  RETLW  00
....................  
.................... ///////////////////////////////////////////////////////////////////////// 
.................... // Purpose:       Draw a bar (wide line) on a graphic LCD 
.................... // Inputs:        (x1, y1) - the start coordinate 
.................... //                (x2, y2) - the end coordinate 
.................... //                width  - The number of pixels wide 
.................... //                color - ON or OFF 
.................... ///////////////////////////////////////////////////////////////////////// 
.................... #ifdef LARGE_LCD 
.................... void glcd_bar(int16 x1, int16 y1, int16 x2, int16 y2, int8 width, int1 color) 
.................... #else 
.................... void glcd_bar(int8 x1, int8 y1, int8 x2, int8 y2, int8 width, int1 color) 
.................... #endif 
.................... { 
....................    int8         half_width; 
....................    signed int16 dy, dx; 
....................    signed int8  addx=1, addy=1, j; 
....................    signed int16 P, diff, c1, c2; 
....................  
....................    #ifdef LARGE_LCD 
....................    int16 i=0; 
....................    dx = abs((signed int16)(x2 - x1)); 
....................    dy = abs((signed int16)(y2 - y1)); 
....................    #else 
....................    int8 i=0; 
....................    dx = abs((signed int8)(x2 - x1)); 
....................    dy = abs((signed int8)(y2 - y1)); 
....................    #endif 
....................  
....................    half_width = width/2; 
....................    c1 = -(dx*x1 + dy*y1); 
....................    c2 = -(dx*x2 + dy*y2); 
....................  
....................    if(x1 > x2) 
....................    { 
....................       signed int16 temp; 
....................       temp = c1; 
....................       c1 = c2; 
....................       c2 = temp; 
....................       addx = -1; 
....................    } 
....................    if(y1 > y2) 
....................    { 
....................       signed int16 temp; 
....................       temp = c1; 
....................       c1 = c2; 
....................       c2 = temp; 
....................       addy = -1; 
....................    } 
....................  
....................    if(dx >= dy) 
....................    { 
....................       P = 2*dy - dx; 
....................       diff = P - dx; 
....................  
....................       for(i=0; i<=dx; ++i) 
....................       { 
....................          for(j=-half_width; j<half_width+width%2; ++j) 
....................          { 
....................             #ifdef LARGE_LCD 
....................             int16 temp; 
....................             #else 
....................             int8 temp; 
....................             #endif 
....................  
....................             temp = dx*x1+dy*(y1+j);    // Use more RAM to increase speed 
....................             if(temp+c1 >= 0 && temp+c2 <=0) 
....................                glcd_pixel(x1, y1+j, color); 
....................          } 
....................          if(P < 0) 
....................          { 
....................             P  += 2*dy; 
....................             x1 += addx; 
....................          } 
....................          else 
....................          { 
....................             P  += diff; 
....................             x1 += addx; 
....................             y1 += addy; 
....................          } 
....................       } 
....................    } 
....................    else 
....................    { 
....................       P = 2*dx - dy; 
....................       diff = P - dy; 
....................  
....................       for(i=0; i<=dy; ++i) 
....................       { 
....................          if(P < 0) 
....................          { 
....................             P  += 2*dx; 
....................             y1 += addy; 
....................          } 
....................          else 
....................          { 
....................             P  += diff; 
....................             x1 += addx; 
....................             y1 += addy; 
....................          } 
....................          for(j=-half_width; j<half_width+width%2; ++j) 
....................          { 
....................             #ifdef LARGE_LCD 
....................             int16 temp; 
....................             #else 
....................             int8 temp; 
....................             #endif 
....................  
....................             temp = dx*x1+dy*(y1+j);    // Use more RAM to increase speed 
....................             if(temp+c1 >= 0 && temp+c2 <=0) 
....................                glcd_pixel(x1+j, y1, color); 
....................          } 
....................       } 
....................    } 
.................... } 
....................  
....................  
.................... ///////////////////////////////////////////////////////////////////////// 
.................... // Purpose:       Draw a circle on a graphic LCD 
.................... // Inputs:        (x,y) - the center of the circle 
.................... //                radius - the radius of the circle 
.................... //                fill - YES or NO 
.................... //                color - ON or OFF 
.................... ///////////////////////////////////////////////////////////////////////// 
.................... #ifdef LARGE_LCD 
.................... void glcd_circle(int16 x, int16 y, int16 radius, int1 fill, int1 color) 
.................... #else 
.................... void glcd_circle(int8 x, int8 y, int8 radius, int1 fill, int1 color) 
.................... #endif 
.................... { 
....................    #ifdef LARGE_LCD 
....................    signed int16 a, b, P; 
....................    #else 
....................    signed int8  a, b, P; 
....................    #endif 
....................  
....................    a = 0; 
*
05876:  MOVLB  6
05878:  CLRF   x01
....................    b = radius; 
0587A:  MOVFF  5FE,602
....................    P = 1 - radius; 
0587E:  MOVLW  01
05880:  BSF    FD8.0
05882:  MOVLB  5
05884:  SUBFWB xFE,W
05886:  MOVLB  6
05888:  MOVWF  x03
....................  
....................    do 
....................    { 
....................       if(fill) 
0588A:  MOVLB  5
0588C:  MOVF   xFF,F
0588E:  BTFSC  FD8.2
05890:  BRA    599E
....................       { 
....................          glcd_line(x-a, y+b, x+a, y+b, color); 
05892:  MOVLB  6
05894:  MOVF   x01,W
05896:  MOVLB  5
05898:  SUBWF  xFC,W
0589A:  MOVLB  6
0589C:  MOVWF  x04
0589E:  MOVF   x02,W
058A0:  MOVLB  5
058A2:  ADDWF  xFD,W
058A4:  MOVLB  6
058A6:  MOVWF  x05
058A8:  MOVF   x01,W
058AA:  MOVLB  5
058AC:  ADDWF  xFC,W
058AE:  MOVLB  6
058B0:  MOVWF  x06
058B2:  MOVF   x02,W
058B4:  MOVLB  5
058B6:  ADDWF  xFD,W
058B8:  MOVLB  6
058BA:  MOVWF  x07
058BC:  MOVFF  604,609
058C0:  MOVFF  605,60A
058C4:  MOVFF  606,60B
058C8:  MOVWF  x0C
058CA:  MOVFF  600,60D
058CE:  MOVLB  0
058D0:  CALL   4A06
....................          glcd_line(x-a, y-b, x+a, y-b, color); 
058D4:  MOVLB  6
058D6:  MOVF   x01,W
058D8:  MOVLB  5
058DA:  SUBWF  xFC,W
058DC:  MOVLB  6
058DE:  MOVWF  x04
058E0:  MOVF   x02,W
058E2:  MOVLB  5
058E4:  SUBWF  xFD,W
058E6:  MOVLB  6
058E8:  MOVWF  x05
058EA:  MOVF   x01,W
058EC:  MOVLB  5
058EE:  ADDWF  xFC,W
058F0:  MOVLB  6
058F2:  MOVWF  x06
058F4:  MOVF   x02,W
058F6:  MOVLB  5
058F8:  SUBWF  xFD,W
058FA:  MOVLB  6
058FC:  MOVWF  x07
058FE:  MOVFF  604,609
05902:  MOVFF  605,60A
05906:  MOVFF  606,60B
0590A:  MOVWF  x0C
0590C:  MOVFF  600,60D
05910:  MOVLB  0
05912:  CALL   4A06
....................          glcd_line(x-b, y+a, x+b, y+a, color); 
05916:  MOVLB  6
05918:  MOVF   x02,W
0591A:  MOVLB  5
0591C:  SUBWF  xFC,W
0591E:  MOVLB  6
05920:  MOVWF  x04
05922:  MOVF   x01,W
05924:  MOVLB  5
05926:  ADDWF  xFD,W
05928:  MOVLB  6
0592A:  MOVWF  x05
0592C:  MOVF   x02,W
0592E:  MOVLB  5
05930:  ADDWF  xFC,W
05932:  MOVLB  6
05934:  MOVWF  x06
05936:  MOVF   x01,W
05938:  MOVLB  5
0593A:  ADDWF  xFD,W
0593C:  MOVLB  6
0593E:  MOVWF  x07
05940:  MOVFF  604,609
05944:  MOVFF  605,60A
05948:  MOVFF  606,60B
0594C:  MOVWF  x0C
0594E:  MOVFF  600,60D
05952:  MOVLB  0
05954:  CALL   4A06
....................          glcd_line(x-b, y-a, x+b, y-a, color); 
05958:  MOVLB  6
0595A:  MOVF   x02,W
0595C:  MOVLB  5
0595E:  SUBWF  xFC,W
05960:  MOVLB  6
05962:  MOVWF  x04
05964:  MOVF   x01,W
05966:  MOVLB  5
05968:  SUBWF  xFD,W
0596A:  MOVLB  6
0596C:  MOVWF  x05
0596E:  MOVF   x02,W
05970:  MOVLB  5
05972:  ADDWF  xFC,W
05974:  MOVLB  6
05976:  MOVWF  x06
05978:  MOVF   x01,W
0597A:  MOVLB  5
0597C:  SUBWF  xFD,W
0597E:  MOVLB  6
05980:  MOVWF  x07
05982:  MOVFF  604,609
05986:  MOVFF  605,60A
0598A:  MOVFF  606,60B
0598E:  MOVWF  x0C
05990:  MOVFF  600,60D
05994:  MOVLB  0
05996:  CALL   4A06
....................       } 
....................       else 
0599A:  BRA    5AC4
0599C:  MOVLB  5
....................       { 
....................          glcd_pixel(a+x, b+y, color); 
0599E:  MOVF   xFC,W
059A0:  MOVLB  6
059A2:  ADDWF  x01,W
059A4:  MOVWF  x04
059A6:  MOVLB  5
059A8:  MOVF   xFD,W
059AA:  MOVLB  6
059AC:  ADDWF  x02,W
059AE:  MOVWF  x05
059B0:  MOVFF  604,619
059B4:  MOVWF  x1A
059B6:  MOVFF  600,61B
059BA:  MOVLB  0
059BC:  CALL   162E
....................          glcd_pixel(b+x, a+y, color); 
059C0:  MOVLB  5
059C2:  MOVF   xFC,W
059C4:  MOVLB  6
059C6:  ADDWF  x02,W
059C8:  MOVWF  x04
059CA:  MOVLB  5
059CC:  MOVF   xFD,W
059CE:  MOVLB  6
059D0:  ADDWF  x01,W
059D2:  MOVWF  x05
059D4:  MOVFF  604,619
059D8:  MOVWF  x1A
059DA:  MOVFF  600,61B
059DE:  MOVLB  0
059E0:  CALL   162E
....................          glcd_pixel(x-a, b+y, color); 
059E4:  MOVLB  6
059E6:  MOVF   x01,W
059E8:  MOVLB  5
059EA:  SUBWF  xFC,W
059EC:  MOVLB  6
059EE:  MOVWF  x04
059F0:  MOVLB  5
059F2:  MOVF   xFD,W
059F4:  MOVLB  6
059F6:  ADDWF  x02,W
059F8:  MOVWF  x05
059FA:  MOVFF  604,619
059FE:  MOVWF  x1A
05A00:  MOVFF  600,61B
05A04:  MOVLB  0
05A06:  CALL   162E
....................          glcd_pixel(x-b, a+y, color); 
05A0A:  MOVLB  6
05A0C:  MOVF   x02,W
05A0E:  MOVLB  5
05A10:  SUBWF  xFC,W
05A12:  MOVLB  6
05A14:  MOVWF  x04
05A16:  MOVLB  5
05A18:  MOVF   xFD,W
05A1A:  MOVLB  6
05A1C:  ADDWF  x01,W
05A1E:  MOVWF  x05
05A20:  MOVFF  604,619
05A24:  MOVWF  x1A
05A26:  MOVFF  600,61B
05A2A:  MOVLB  0
05A2C:  CALL   162E
....................          glcd_pixel(b+x, y-a, color); 
05A30:  MOVLB  5
05A32:  MOVF   xFC,W
05A34:  MOVLB  6
05A36:  ADDWF  x02,W
05A38:  MOVWF  x04
05A3A:  MOVF   x01,W
05A3C:  MOVLB  5
05A3E:  SUBWF  xFD,W
05A40:  MOVLB  6
05A42:  MOVWF  x05
05A44:  MOVFF  604,619
05A48:  MOVWF  x1A
05A4A:  MOVFF  600,61B
05A4E:  MOVLB  0
05A50:  CALL   162E
....................          glcd_pixel(a+x, y-b, color); 
05A54:  MOVLB  5
05A56:  MOVF   xFC,W
05A58:  MOVLB  6
05A5A:  ADDWF  x01,W
05A5C:  MOVWF  x04
05A5E:  MOVF   x02,W
05A60:  MOVLB  5
05A62:  SUBWF  xFD,W
05A64:  MOVLB  6
05A66:  MOVWF  x05
05A68:  MOVFF  604,619
05A6C:  MOVWF  x1A
05A6E:  MOVFF  600,61B
05A72:  MOVLB  0
05A74:  CALL   162E
....................          glcd_pixel(x-a, y-b, color); 
05A78:  MOVLB  6
05A7A:  MOVF   x01,W
05A7C:  MOVLB  5
05A7E:  SUBWF  xFC,W
05A80:  MOVLB  6
05A82:  MOVWF  x04
05A84:  MOVF   x02,W
05A86:  MOVLB  5
05A88:  SUBWF  xFD,W
05A8A:  MOVLB  6
05A8C:  MOVWF  x05
05A8E:  MOVFF  604,619
05A92:  MOVWF  x1A
05A94:  MOVFF  600,61B
05A98:  MOVLB  0
05A9A:  CALL   162E
....................          glcd_pixel(x-b, y-a, color); 
05A9E:  MOVLB  6
05AA0:  MOVF   x02,W
05AA2:  MOVLB  5
05AA4:  SUBWF  xFC,W
05AA6:  MOVLB  6
05AA8:  MOVWF  x04
05AAA:  MOVF   x01,W
05AAC:  MOVLB  5
05AAE:  SUBWF  xFD,W
05AB0:  MOVLB  6
05AB2:  MOVWF  x05
05AB4:  MOVFF  604,619
05AB8:  MOVWF  x1A
05ABA:  MOVFF  600,61B
05ABE:  MOVLB  0
05AC0:  CALL   162E
....................       } 
....................  
....................       if(P < 0) 
05AC4:  MOVLB  6
05AC6:  BTFSC  x03.7
05AC8:  BRA    5ACC
05ACA:  BRA    5AE8
....................          P += 3 + 2 * a++; 
05ACC:  MOVF   x01,W
05ACE:  INCF   x01,F
05AD0:  MOVWF  x04
05AD2:  MOVLW  02
05AD4:  MOVWF  x05
05AD6:  MOVFF  604,606
05ADA:  MOVLB  0
05ADC:  RCALL  5828
05ADE:  MOVF   01,W
05AE0:  ADDLW  03
05AE2:  MOVLB  6
05AE4:  ADDWF  x03,F
....................       else 
05AE6:  BRA    5B0A
....................          P += 5 + 2 * (a++ - b--); 
05AE8:  MOVF   x01,W
05AEA:  INCF   x01,F
05AEC:  MOVWF  x04
05AEE:  MOVF   x02,W
05AF0:  DECF   x02,F
05AF2:  SUBWF  x04,W
05AF4:  MOVWF  x04
05AF6:  MOVLW  02
05AF8:  MOVWF  x05
05AFA:  MOVFF  604,606
05AFE:  MOVLB  0
05B00:  RCALL  5828
05B02:  MOVF   01,W
05B04:  ADDLW  05
05B06:  MOVLB  6
05B08:  ADDWF  x03,F
....................     } while(a <= b); 
05B0A:  MOVF   x01,W
05B0C:  XORLW  80
05B0E:  MOVWF  00
05B10:  MOVF   x02,W
05B12:  XORLW  80
05B14:  SUBWF  00,W
05B16:  BTFSC  FD8.2
05B18:  BRA    588A
05B1A:  BTFSS  FD8.0
05B1C:  BRA    588A
.................... } 
05B1E:  MOVLB  0
05B20:  RETLW  00
....................  
....................  
.................... ///////////////////////////////////////////////////////////////////////// 
.................... // Purpose:       Write text on a graphic LCD 
.................... // Inputs:        (x,y) - The upper left coordinate of the first letter 
.................... //                textptr - A pointer to an array of text to display 
.................... //                size - The size of the text: 1 = 5x7, 2 = 10x14, ... 
.................... //                color - ON or OFF 
.................... ///////////////////////////////////////////////////////////////////////// 
.................... #ifdef LARGE_LCD 
.................... void glcd_text57(int16 x, int16 y, char* textptr, int8 size, int1 color) 
.................... #else 
.................... void glcd_text57(int8 x, int8 y, char* textptr, int8 size, int1 color) 
.................... #endif 
.................... { 
....................    int8 j, k, l, m;                       // Loop counters 
....................    int8 pixelData[5];                     // Stores character data 
....................  
....................    for(; *textptr != '\0'; ++textptr, ++x)// Loop through the passed string 
*
016EA:  MOVFF  601,03
016EE:  MOVLB  6
016F0:  MOVFF  600,FE9
016F4:  MOVFF  601,FEA
016F8:  MOVF   FEF,F
016FA:  BTFSC  FD8.2
016FC:  BRA    18BA
....................    { 
....................       if(*textptr < 'S') // Checks if the letter is in the first font array 
016FE:  MOVFF  601,03
01702:  MOVFF  600,FE9
01706:  MOVFF  601,FEA
0170A:  MOVF   FEF,W
0170C:  SUBLW  52
0170E:  BNC   175E
....................          memcpy(pixelData, FONT[*textptr - ' '], 5); 
01710:  MOVFF  601,03
01714:  MOVFF  600,FE9
01718:  MOVFF  601,FEA
0171C:  MOVLW  20
0171E:  SUBWF  FEF,W
01720:  MULLW  05
01722:  MOVF   FF3,W
01724:  CLRF   03
01726:  MOVWF  x0D
01728:  MOVLW  06
0172A:  MOVWF  FEA
0172C:  MOVLW  08
0172E:  MOVWF  FE9
01730:  CLRF   x11
01732:  MOVFF  60D,610
01736:  MOVFF  FF2,60E
0173A:  BCF    FF2.7
0173C:  MOVLW  05
0173E:  MOVWF  01
01740:  CLRF   FF7
01742:  MOVF   x0D,W
01744:  MOVLB  0
01746:  CALL   009E
0174A:  TBLRD*-
0174C:  TBLRD*+
0174E:  MOVFF  FF5,FEE
01752:  DECFSZ 01,F
01754:  BRA    174C
01756:  MOVLB  6
01758:  BTFSC  x0E.7
0175A:  BSF    FF2.7
....................       else if(*textptr <= '~') // Check if the letter is in the second font array 
0175C:  BRA    17C8
0175E:  MOVFF  601,03
01762:  MOVFF  600,FE9
01766:  MOVFF  601,FEA
0176A:  MOVF   FEF,W
0176C:  SUBLW  7E
0176E:  BNC   17BE
....................          memcpy(pixelData, FONT2[*textptr - 'S'], 5); 
01770:  MOVFF  601,03
01774:  MOVFF  600,FE9
01778:  MOVFF  601,FEA
0177C:  MOVLW  53
0177E:  SUBWF  FEF,W
01780:  MULLW  05
01782:  MOVF   FF3,W
01784:  CLRF   03
01786:  MOVWF  x0D
01788:  MOVLW  06
0178A:  MOVWF  FEA
0178C:  MOVLW  08
0178E:  MOVWF  FE9
01790:  CLRF   x11
01792:  MOVFF  60D,610
01796:  MOVFF  FF2,60E
0179A:  BCF    FF2.7
0179C:  MOVLW  05
0179E:  MOVWF  01
017A0:  CLRF   FF7
017A2:  MOVF   x0D,W
017A4:  MOVLB  0
017A6:  CALL   01BC
017AA:  TBLRD*-
017AC:  TBLRD*+
017AE:  MOVFF  FF5,FEE
017B2:  DECFSZ 01,F
017B4:  BRA    17AC
017B6:  MOVLB  6
017B8:  BTFSC  x0E.7
017BA:  BSF    FF2.7
....................       else 
017BC:  BRA    17C8
....................          memcpy(pixelData, FONT[0], 5);   // Default to space 
017BE:  CLRF   x08
017C0:  CLRF   x09
017C2:  CLRF   x0A
017C4:  CLRF   x0B
017C6:  CLRF   x0C
....................  
....................       // Handles newline and carriage returns 
....................       switch(*textptr) 
....................       { 
017C8:  MOVFF  601,03
017CC:  MOVF   x00,W
017CE:  MOVWF  FE9
017D0:  MOVFF  03,FEA
017D4:  MOVF   FEF,W
017D6:  XORLW  0A
017D8:  MOVLB  0
017DA:  BZ    17E2
017DC:  XORLW  07
017DE:  BZ    17F4
017E0:  BRA    17FA
....................          case '\n': 
....................             y += 7*size + 1; 
017E2:  MOVLB  6
017E4:  MOVF   x02,W
017E6:  MULLW  07
017E8:  MOVF   FF3,W
017EA:  ADDLW  01
017EC:  MOVLB  5
017EE:  ADDWF  xFF,F
....................             continue; 
017F0:  BRA    18A8
017F2:  MOVLB  0
....................          case '\r': 
....................             x = 0; 
017F4:  MOVLB  5
017F6:  CLRF   xFE
....................             continue; 
017F8:  BRA    18A8
....................       } 
....................  
....................       if(x+5*size >= GLCD_WIDTH)          // Performs character wrapping 
017FA:  MOVLB  6
017FC:  MOVF   x02,W
017FE:  MULLW  05
01800:  MOVF   FF3,W
01802:  MOVLB  5
01804:  ADDWF  xFE,W
01806:  SUBLW  7F
01808:  BC    181A
....................       { 
....................          x = 0;                           // Set x at far left position 
0180A:  CLRF   xFE
....................          y += 7*size + 1;                 // Set y at next position down 
0180C:  MOVLB  6
0180E:  MOVF   x02,W
01810:  MULLW  07
01812:  MOVF   FF3,W
01814:  ADDLW  01
01816:  MOVLB  5
01818:  ADDWF  xFF,F
....................       } 
....................       for(j=0; j<5; ++j, x+=size)         // Loop through character byte data 
0181A:  MOVLB  6
0181C:  CLRF   x04
0181E:  MOVF   x04,W
01820:  SUBLW  04
01822:  BNC   18A6
....................       { 
....................          for(k=0; k < 7; ++k)             // Loop through the vertical pixels 
01824:  CLRF   x05
01826:  MOVF   x05,W
01828:  SUBLW  06
0182A:  BNC   189A
....................          { 
....................             if(bit_test(pixelData[j], k)) // Check if the pixel should be set 
0182C:  CLRF   03
0182E:  MOVF   x04,W
01830:  ADDLW  08
01832:  MOVWF  FE9
01834:  MOVLW  06
01836:  ADDWFC 03,W
01838:  MOVWF  FEA
0183A:  MOVFF  FEF,60D
0183E:  MOVFF  60D,00
01842:  MOVF   x05,W
01844:  MOVWF  01
01846:  BZ    1850
01848:  BCF    FD8.0
0184A:  RRCF   00,F
0184C:  DECFSZ 01,F
0184E:  BRA    1848
01850:  BTFSS  00.0
01852:  BRA    1896
....................             { 
....................                for(l=0; l < size; ++l)    // These two loops change the 
01854:  CLRF   x06
01856:  MOVF   x02,W
01858:  SUBWF  x06,W
0185A:  BC    1896
....................                {                          // character's size 
....................                   for(m=0; m < size; ++m) 
0185C:  CLRF   x07
0185E:  MOVF   x02,W
01860:  SUBWF  x07,W
01862:  BC    1892
....................                   { 
....................                      glcd_pixel(x+m, y+k*size+l, color); // Draws the pixel 
01864:  MOVF   x07,W
01866:  MOVLB  5
01868:  ADDWF  xFE,W
0186A:  MOVLB  6
0186C:  MOVWF  x0D
0186E:  MOVF   x05,W
01870:  MULWF  x02
01872:  MOVF   FF3,W
01874:  MOVLB  5
01876:  ADDWF  xFF,W
01878:  MOVLB  6
0187A:  ADDWF  x06,W
0187C:  MOVWF  x0E
0187E:  MOVFF  60D,619
01882:  MOVWF  x1A
01884:  MOVFF  603,61B
01888:  MOVLB  0
0188A:  RCALL  162E
....................                   } 
0188C:  MOVLB  6
0188E:  INCF   x07,F
01890:  BRA    185E
....................                } 
01892:  INCF   x06,F
01894:  BRA    1856
....................             } 
....................          } 
01896:  INCF   x05,F
01898:  BRA    1826
....................       } 
0189A:  INCF   x04,F
0189C:  MOVF   x02,W
0189E:  MOVLB  5
018A0:  ADDWF  xFE,F
018A2:  MOVLB  6
018A4:  BRA    181E
018A6:  MOVLB  5
....................    } 
018A8:  MOVLB  6
018AA:  INCF   x00,F
018AC:  BTFSC  FD8.2
018AE:  INCF   x01,F
018B0:  MOVLB  5
018B2:  INCF   xFE,F
018B4:  MOVLB  0
018B6:  BRA    16EA
018B8:  MOVLB  6
.................... } 
018BA:  MOVLB  0
018BC:  RETLW  00
....................  
.................... #endif 
....................  
.................... #include "imagen.h" 
.................... const int8 Bombillo [64][16] = { 
.................... 0x00, 0x00, 0x00, 0x00, 0x00, 0x00, 0x00, 0x00, 0x00, 0x00, 0x00, 0x00, 0x00, 0x00, 0x00, 0x00, 
.................... 0x00, 0x00, 0x00, 0x00, 0x00, 0x00, 0x00, 0x00, 0x00, 0x00, 0x00, 0x00, 0x00, 0x00, 0x00, 0x00, 
.................... 0x00, 0x00, 0x00, 0x00, 0x00, 0x00, 0x00, 0x00, 0x00, 0x00, 0x00, 0x00, 0x00, 0x00, 0x00, 0x00, 
.................... 0x00, 0x00, 0x00, 0x00, 0x00, 0x00, 0x00, 0x00, 0x00, 0x00, 0x00, 0x00, 0x00, 0x00, 0x00, 0x00, 
.................... 0x00, 0x00, 0x00, 0x00, 0x00, 0x00, 0x00, 0x00, 0x00, 0x00, 0x00, 0x00, 0x00, 0x00, 0x00, 0x00, 
.................... 0x00, 0x00, 0x00, 0x00, 0x00, 0x00, 0x00, 0x00, 0x00, 0x00, 0x00, 0x00, 0x00, 0x00, 0x00, 0x00, 
.................... 0x00, 0x00, 0x00, 0x00, 0x00, 0x00, 0x00, 0x00, 0x00, 0x00, 0x00, 0x00, 0x00, 0x00, 0x00, 0x00, 
.................... 0x00, 0x00, 0x00, 0x00, 0x00, 0x00, 0x00, 0x00, 0x00, 0x00, 0x00, 0x00, 0x00, 0x00, 0x00, 0x00, 
.................... 0x00, 0x00, 0x00, 0x00, 0x00, 0x00, 0x00, 0x00, 0x00, 0x00, 0x00, 0x00, 0x00, 0x00, 0x00, 0x00, 
.................... 0x00, 0x00, 0x00, 0x00, 0x00, 0x00, 0x00, 0x00, 0x00, 0x00, 0x00, 0x00, 0x00, 0x00, 0x00, 0x00, 
.................... 0x00, 0x00, 0x00, 0x00, 0x00, 0x00, 0x00, 0x00, 0x00, 0x00, 0x00, 0x00, 0x00, 0x00, 0x00, 0x00, 
.................... 0x00, 0x00, 0x00, 0x00, 0x00, 0x00, 0x00, 0x00, 0x00, 0x00, 0x00, 0x00, 0x00, 0x00, 0x00, 0x00, 
.................... 0x00, 0x00, 0x00, 0x00, 0x00, 0x00, 0x00, 0x00, 0x00, 0x00, 0x00, 0x00, 0x00, 0x00, 0x00, 0x00, 
.................... 0x00, 0x00, 0x00, 0x00, 0x00, 0x00, 0x00, 0x00, 0x00, 0x00, 0x00, 0x00, 0x00, 0x00, 0x00, 0x00, 
.................... 0x00, 0x00, 0x00, 0x00, 0x00, 0x00, 0x00, 0x00, 0x00, 0x00, 0x00, 0x00, 0x00, 0x00, 0x00, 0x00, 
.................... 0x00, 0x00, 0x00, 0x00, 0x00, 0x00, 0x00, 0x00, 0x00, 0x00, 0x00, 0x00, 0x00, 0x08, 0x00, 0x80, 
.................... 0x00, 0x00, 0x00, 0x00, 0x00, 0x00, 0x00, 0x00, 0x00, 0x00, 0x00, 0x00, 0x00, 0x04, 0x01, 0x00, 
.................... 0x00, 0x00, 0x00, 0x00, 0x00, 0x00, 0x00, 0x00, 0x00, 0x00, 0x00, 0x00, 0x00, 0x02, 0x02, 0x00, 
.................... 0x00, 0x00, 0x00, 0x00, 0x00, 0x00, 0x00, 0x00, 0x00, 0x00, 0x00, 0x00, 0x00, 0x00, 0x78, 0x00, 
.................... 0x00, 0x00, 0x00, 0x00, 0x00, 0x00, 0x00, 0x00, 0x00, 0x00, 0x00, 0x00, 0x00, 0x00, 0x84, 0x00, 
.................... 0x00, 0x00, 0x00, 0x00, 0x00, 0x00, 0x00, 0x00, 0x00, 0x00, 0x00, 0x00, 0x00, 0x01, 0x02, 0x00, 
.................... 0x00, 0x00, 0x00, 0x00, 0x00, 0x00, 0x00, 0x00, 0x00, 0x00, 0x00, 0x00, 0x00, 0xF9, 0x02, 0xF8, 
.................... 0x00, 0x00, 0x00, 0x00, 0x00, 0x00, 0x00, 0x00, 0x00, 0x00, 0x00, 0x00, 0x00, 0x01, 0x02, 0x00, 
.................... 0x00, 0x00, 0x00, 0x00, 0x00, 0x00, 0x00, 0x00, 0x00, 0x00, 0x00, 0x00, 0x00, 0x01, 0x02, 0x00, 
.................... 0x00, 0x00, 0x00, 0x00, 0x00, 0x00, 0x00, 0x00, 0x00, 0x00, 0x00, 0x00, 0x00, 0x04, 0x84, 0x80, 
.................... 0x00, 0x00, 0x00, 0x00, 0x00, 0x00, 0x00, 0x00, 0x00, 0x00, 0x00, 0x00, 0x00, 0x08, 0x78, 0x40, 
.................... 0x00, 0x00, 0x00, 0x00, 0x00, 0x00, 0x00, 0x00, 0x00, 0x00, 0x00, 0x00, 0x00, 0x10, 0x48, 0x20, 
.................... 0x00, 0x00, 0x00, 0x00, 0x00, 0x00, 0x00, 0x00, 0x00, 0x00, 0x00, 0x00, 0x00, 0x20, 0x48, 0x10, 
.................... 0x00, 0x00, 0x00, 0x00, 0x00, 0x00, 0x00, 0x00, 0x00, 0x00, 0x00, 0x00, 0x00, 0x00, 0x78, 0x00, 
.................... 0x00, 0x00, 0x00, 0x00, 0x00, 0x00, 0x00, 0x00, 0x00, 0x00, 0x00, 0x00, 0x00, 0x00, 0x00, 0x00, 
.................... 0x00, 0x00, 0x00, 0x00, 0x00, 0x00, 0x00, 0x00, 0x00, 0x00, 0x00, 0x00, 0x00, 0x00, 0x00, 0x00, 
.................... 0x00, 0x00, 0x00, 0x00, 0x00, 0x00, 0x00, 0x00, 0x00, 0x00, 0x00, 0x00, 0x00, 0x00, 0x00, 0x00, 
.................... 0x00, 0x00, 0x00, 0x00, 0x00, 0x00, 0x00, 0x00, 0x00, 0x00, 0x00, 0x00, 0x00, 0x00, 0x00, 0x00, 
.................... 0x00, 0x00, 0x00, 0x00, 0x00, 0x00, 0x00, 0x00, 0x00, 0x00, 0x00, 0x00, 0x00, 0x00, 0x00, 0x00, 
.................... 0x00, 0x00, 0x00, 0x00, 0x00, 0x00, 0x00, 0x00, 0x00, 0x00, 0x00, 0x00, 0x00, 0x00, 0x00, 0x00, 
.................... 0x00, 0x00, 0x00, 0x00, 0x00, 0x00, 0x00, 0x00, 0x00, 0x00, 0x00, 0x00, 0x00, 0x00, 0x00, 0x00, 
.................... 0x00, 0x00, 0x00, 0x00, 0x00, 0x00, 0x00, 0x00, 0x00, 0x00, 0x00, 0x00, 0x00, 0x00, 0x00, 0x00, 
.................... 0x00, 0x00, 0x00, 0x00, 0x00, 0x00, 0x00, 0x00, 0x00, 0x00, 0x00, 0x00, 0x00, 0x00, 0x00, 0x00, 
.................... 0x00, 0x00, 0x00, 0x00, 0x00, 0x00, 0x00, 0x00, 0x00, 0x00, 0x00, 0x00, 0x00, 0x00, 0x00, 0x00, 
.................... 0x00, 0x00, 0x00, 0x00, 0x00, 0x00, 0x00, 0x00, 0x00, 0x00, 0x00, 0x00, 0x00, 0x00, 0x00, 0x00, 
.................... 0x00, 0x00, 0x00, 0x00, 0x00, 0x00, 0x00, 0x00, 0x00, 0x00, 0x00, 0x00, 0x00, 0x00, 0x00, 0x00, 
.................... 0x00, 0x00, 0x00, 0x00, 0x00, 0x00, 0x00, 0x00, 0x00, 0x00, 0x00, 0x00, 0x00, 0x00, 0x00, 0x00, 
.................... 0x00, 0x00, 0x00, 0x00, 0x00, 0x00, 0x00, 0x00, 0x00, 0x00, 0x00, 0x00, 0x00, 0x00, 0x00, 0x00, 
.................... 0x00, 0x00, 0x00, 0x00, 0x00, 0x00, 0x00, 0x00, 0x00, 0x00, 0x00, 0x00, 0x00, 0x00, 0x00, 0x00, 
.................... 0x00, 0x00, 0x00, 0x00, 0x00, 0x00, 0x00, 0x00, 0x00, 0x00, 0x00, 0x00, 0x00, 0x00, 0x00, 0x00, 
.................... 0x00, 0x00, 0x00, 0x00, 0x00, 0x00, 0x00, 0x00, 0x00, 0x00, 0x00, 0x00, 0x00, 0x00, 0x00, 0x00, 
.................... 0x00, 0x00, 0x00, 0x00, 0x00, 0x00, 0x00, 0x00, 0x00, 0x00, 0x00, 0x00, 0x00, 0x00, 0x00, 0x00, 
.................... 0x00, 0x00, 0x00, 0x00, 0x00, 0x00, 0x00, 0x00, 0x00, 0x00, 0x00, 0x00, 0x00, 0x00, 0x00, 0x00, 
.................... 0x00, 0x00, 0x00, 0x00, 0x00, 0x00, 0x00, 0x00, 0x00, 0x00, 0x00, 0x00, 0x00, 0x00, 0x00, 0x00, 
.................... 0x00, 0x00, 0x00, 0x00, 0x00, 0x00, 0x00, 0x00, 0x00, 0x00, 0x00, 0x00, 0x00, 0x00, 0x00, 0x00, 
.................... 0x00, 0x00, 0x00, 0x00, 0x00, 0x00, 0x00, 0x00, 0x00, 0x00, 0x00, 0x00, 0x00, 0x00, 0x00, 0x00, 
.................... 0x00, 0x00, 0x00, 0x00, 0x00, 0x00, 0x00, 0x00, 0x00, 0x00, 0x00, 0x00, 0x00, 0x00, 0x00, 0x00, 
.................... 0x00, 0x00, 0x00, 0x00, 0x00, 0x00, 0x00, 0x00, 0x00, 0x00, 0x00, 0x00, 0x00, 0x00, 0x00, 0x00, 
.................... 0x00, 0x00, 0x00, 0x00, 0x00, 0x00, 0x00, 0x00, 0x00, 0x00, 0x00, 0x00, 0x00, 0x00, 0x00, 0x00, 
.................... 0x00, 0x00, 0x00, 0x00, 0x00, 0x00, 0x00, 0x00, 0x00, 0x00, 0x00, 0x00, 0x00, 0x00, 0x00, 0x00, 
.................... 0x00, 0x00, 0x00, 0x00, 0x00, 0x00, 0x00, 0x00, 0x00, 0x00, 0x00, 0x00, 0x00, 0x00, 0x00, 0x00, 
.................... 0x00, 0x00, 0x00, 0x00, 0x00, 0x00, 0x00, 0x00, 0x00, 0x00, 0x00, 0x00, 0x00, 0x00, 0x00, 0x00, 
.................... 0x00, 0x00, 0x00, 0x00, 0x00, 0x00, 0x00, 0x00, 0x00, 0x00, 0x00, 0x00, 0x00, 0x00, 0x00, 0x00, 
.................... 0x00, 0x00, 0x00, 0x00, 0x00, 0x00, 0x00, 0x00, 0x00, 0x00, 0x00, 0x00, 0x00, 0x00, 0x00, 0x00, 
.................... 0x00, 0x00, 0x00, 0x00, 0x00, 0x00, 0x00, 0x00, 0x00, 0x00, 0x00, 0x00, 0x00, 0x00, 0x00, 0x00, 
.................... 0x00, 0x00, 0x00, 0x00, 0x00, 0x00, 0x00, 0x00, 0x00, 0x00, 0x00, 0x00, 0x00, 0x00, 0x00, 0x00, 
.................... 0x00, 0x00, 0x00, 0x00, 0x00, 0x00, 0x00, 0x00, 0x00, 0x00, 0x00, 0x00, 0x00, 0x00, 0x00, 0x00, 
.................... 0x00, 0x00, 0x00, 0x00, 0x00, 0x00, 0x00, 0x00, 0x00, 0x00, 0x00, 0x00, 0x00, 0x00, 0x00, 0x00, 
.................... 0x00, 0x00, 0x00, 0x00, 0x00, 0x00, 0x00, 0x00, 0x00, 0x00, 0x00, 0x00, 0x00, 0x00, 0x00, 0x00 
.................... }; 
....................  
.................... const int8 Tomai [64][16] = { 
.................... 0x00, 0x00, 0x00, 0x00, 0x00, 0x00, 0x00, 0x00, 0x00, 0x00, 0x00, 0x00, 0x00, 0x00, 0x00, 0x00, 
.................... 0x00, 0x00, 0x00, 0x00, 0x00, 0x00, 0x00, 0x00, 0x00, 0x00, 0x00, 0x00, 0x00, 0x00, 0x00, 0x00, 
.................... 0x00, 0x00, 0x00, 0x00, 0x00, 0x00, 0x00, 0x00, 0x00, 0x00, 0x00, 0x00, 0x00, 0x00, 0x00, 0x00, 
.................... 0x00, 0x00, 0x00, 0x00, 0x00, 0x00, 0x00, 0x00, 0x00, 0x00, 0x00, 0x00, 0x00, 0x00, 0x00, 0x00, 
.................... 0x00, 0x00, 0x00, 0x00, 0x00, 0x00, 0x00, 0x00, 0x00, 0x00, 0x00, 0x00, 0x00, 0x00, 0x00, 0x00, 
.................... 0x00, 0x00, 0x00, 0x00, 0x00, 0x00, 0x00, 0x00, 0x00, 0x00, 0x00, 0x00, 0x00, 0x00, 0x00, 0x00, 
.................... 0x00, 0x00, 0x00, 0x00, 0x00, 0x00, 0x00, 0x00, 0x00, 0x00, 0x00, 0x00, 0x00, 0x00, 0x00, 0x00, 
.................... 0x00, 0x00, 0x00, 0x00, 0x00, 0x00, 0x00, 0x00, 0x00, 0x00, 0x00, 0x00, 0x00, 0x00, 0x00, 0x00, 
.................... 0x00, 0x00, 0x00, 0x00, 0x00, 0x00, 0x00, 0x00, 0x00, 0x00, 0x00, 0x00, 0x00, 0x00, 0x00, 0x00, 
.................... 0x00, 0x00, 0x00, 0x00, 0x00, 0x00, 0x00, 0x00, 0x00, 0x00, 0x00, 0x00, 0x00, 0x00, 0x00, 0x00, 
.................... 0x00, 0x00, 0x00, 0x00, 0x00, 0x00, 0x00, 0x00, 0x00, 0x00, 0x00, 0x00, 0x00, 0x00, 0x00, 0x00, 
.................... 0x00, 0x00, 0x00, 0x00, 0x00, 0x00, 0x00, 0x00, 0x00, 0x00, 0x00, 0x00, 0x00, 0x00, 0x00, 0x00, 
.................... 0x00, 0x00, 0x00, 0x00, 0x00, 0x00, 0x00, 0x00, 0x00, 0x00, 0x00, 0x00, 0x00, 0x00, 0x00, 0x00, 
.................... 0x00, 0x00, 0x00, 0x00, 0x00, 0x00, 0x00, 0x00, 0x00, 0x00, 0x00, 0x00, 0x00, 0x00, 0x00, 0x00, 
.................... 0x00, 0x00, 0x00, 0x00, 0x00, 0x00, 0x00, 0x00, 0x00, 0x00, 0x00, 0x00, 0x00, 0x00, 0x00, 0x00, 
.................... 0x00, 0x00, 0x00, 0x00, 0x00, 0x00, 0x00, 0x00, 0x00, 0x00, 0x00, 0x00, 0x00, 0x00, 0x00, 0x00, 
.................... 0x00, 0x00, 0x00, 0x00, 0x00, 0x00, 0x00, 0x00, 0x00, 0x00, 0x00, 0x00, 0x00, 0x00, 0x00, 0x00, 
.................... 0x00, 0x00, 0x00, 0x00, 0x00, 0x00, 0x00, 0x00, 0x00, 0x00, 0x00, 0x00, 0x00, 0x00, 0x00, 0x00, 
.................... 0x00, 0x00, 0x00, 0x00, 0x00, 0x00, 0x00, 0x00, 0x00, 0x00, 0x00, 0x00, 0x00, 0x00, 0x00, 0x00, 
.................... 0x00, 0x00, 0x00, 0x00, 0x00, 0x00, 0x00, 0x00, 0x00, 0x00, 0x00, 0x00, 0x00, 0x00, 0x00, 0x00, 
.................... 0x00, 0x00, 0x00, 0x00, 0x00, 0x00, 0x00, 0x00, 0x00, 0x00, 0x00, 0x00, 0x00, 0x00, 0x00, 0x00, 
.................... 0x00, 0x00, 0x00, 0x00, 0x00, 0x00, 0x00, 0x00, 0x00, 0x00, 0x00, 0x00, 0x00, 0x00, 0x00, 0x00, 
.................... 0x00, 0x00, 0x00, 0x00, 0x00, 0x00, 0x00, 0x00, 0x00, 0x00, 0x00, 0x00, 0x00, 0x00, 0x00, 0x00, 
.................... 0x00, 0x00, 0x00, 0x00, 0x00, 0x00, 0x00, 0x00, 0x00, 0x00, 0x00, 0x00, 0x00, 0x00, 0x00, 0x00, 
.................... 0x00, 0x00, 0x00, 0x00, 0x00, 0x00, 0x00, 0x00, 0x00, 0x00, 0x00, 0x00, 0x00, 0x00, 0x00, 0x00, 
.................... 0x00, 0x00, 0x00, 0x00, 0x00, 0x00, 0x00, 0x00, 0x00, 0x00, 0x00, 0x00, 0x00, 0x00, 0x00, 0x00, 
.................... 0x00, 0x00, 0x00, 0x00, 0x00, 0x00, 0x00, 0x00, 0x00, 0x00, 0x00, 0x00, 0x00, 0x00, 0x00, 0x00, 
.................... 0x00, 0x00, 0x00, 0x00, 0x00, 0x00, 0x00, 0x00, 0x00, 0x00, 0x00, 0x00, 0x00, 0x00, 0x00, 0x00, 
.................... 0x00, 0x00, 0x00, 0x00, 0x00, 0x00, 0x00, 0x00, 0x00, 0x00, 0x00, 0x00, 0x00, 0x00, 0x00, 0x00, 
.................... 0x00, 0x00, 0x00, 0x00, 0x00, 0x00, 0x00, 0x00, 0x00, 0x00, 0x00, 0x00, 0x00, 0x00, 0x00, 0x00, 
.................... 0x00, 0x00, 0x00, 0x00, 0x00, 0x00, 0x00, 0x00, 0x00, 0x00, 0x00, 0x00, 0x00, 0x7F, 0xFF, 0xF8, 
.................... 0x00, 0x00, 0x00, 0x00, 0x00, 0x00, 0x00, 0x00, 0x00, 0x00, 0x00, 0x00, 0x00, 0x40, 0x00, 0x08, 
.................... 0x00, 0x00, 0x00, 0x00, 0x00, 0x00, 0x00, 0x00, 0x00, 0x00, 0x00, 0x00, 0x00, 0x47, 0x03, 0x88, 
.................... 0x00, 0x00, 0x00, 0x00, 0x00, 0x00, 0x00, 0x00, 0x00, 0x00, 0x00, 0x00, 0x00, 0x45, 0x02, 0x88, 
.................... 0x00, 0x00, 0x00, 0x00, 0x00, 0x00, 0x00, 0x00, 0x00, 0x00, 0x00, 0x00, 0x00, 0x45, 0x02, 0x88, 
.................... 0x00, 0x00, 0x00, 0x00, 0x00, 0x00, 0x00, 0x00, 0x00, 0x00, 0x00, 0x00, 0x00, 0x45, 0x02, 0x88, 
.................... 0x00, 0x00, 0x00, 0x00, 0x00, 0x00, 0x00, 0x00, 0x00, 0x00, 0x00, 0x00, 0x00, 0x45, 0x02, 0x88, 
.................... 0x00, 0x00, 0x00, 0x00, 0x00, 0x00, 0x00, 0x00, 0x00, 0x00, 0x00, 0x00, 0x00, 0x47, 0x03, 0x88, 
.................... 0x00, 0x00, 0x00, 0x00, 0x00, 0x00, 0x00, 0x00, 0x00, 0x00, 0x00, 0x00, 0x00, 0x40, 0x00, 0x08, 
.................... 0x00, 0x00, 0x00, 0x00, 0x00, 0x00, 0x00, 0x00, 0x00, 0x00, 0x00, 0x00, 0x00, 0x40, 0xFC, 0x08, 
.................... 0x00, 0x00, 0x00, 0x00, 0x00, 0x00, 0x00, 0x00, 0x00, 0x00, 0x00, 0x00, 0x00, 0x40, 0x84, 0x08, 
.................... 0x00, 0x00, 0x00, 0x00, 0x00, 0x00, 0x00, 0x00, 0x00, 0x00, 0x00, 0x00, 0x00, 0x40, 0x84, 0x08, 
.................... 0x00, 0x00, 0x00, 0x00, 0x00, 0x00, 0x00, 0x00, 0x00, 0x00, 0x00, 0x00, 0x00, 0x40, 0xFC, 0x08, 
.................... 0x00, 0x00, 0x00, 0x00, 0x00, 0x00, 0x00, 0x00, 0x00, 0x00, 0x00, 0x00, 0x00, 0x40, 0x00, 0x08, 
.................... 0x00, 0x00, 0x00, 0x00, 0x00, 0x00, 0x00, 0x00, 0x00, 0x00, 0x00, 0x00, 0x00, 0x7F, 0xFF, 0xF8, 
.................... 0x00, 0x00, 0x00, 0x00, 0x00, 0x00, 0x00, 0x00, 0x00, 0x00, 0x00, 0x00, 0x00, 0x00, 0x00, 0x00, 
.................... 0x00, 0x00, 0x00, 0x00, 0x00, 0x00, 0x00, 0x00, 0x00, 0x00, 0x00, 0x00, 0x00, 0x00, 0x00, 0x00, 
.................... 0x00, 0x00, 0x00, 0x00, 0x00, 0x00, 0x00, 0x00, 0x00, 0x00, 0x00, 0x00, 0x00, 0x00, 0x00, 0x00, 
.................... 0x00, 0x00, 0x00, 0x00, 0x00, 0x00, 0x00, 0x00, 0x00, 0x00, 0x00, 0x00, 0x00, 0x00, 0x00, 0x00, 
.................... 0x00, 0x00, 0x00, 0x00, 0x00, 0x00, 0x00, 0x00, 0x00, 0x00, 0x00, 0x00, 0x00, 0x00, 0x00, 0x00, 
.................... 0x00, 0x00, 0x00, 0x00, 0x00, 0x00, 0x00, 0x00, 0x00, 0x00, 0x00, 0x00, 0x00, 0x00, 0x00, 0x00, 
.................... 0x00, 0x00, 0x00, 0x00, 0x00, 0x00, 0x00, 0x00, 0x00, 0x00, 0x00, 0x00, 0x00, 0x00, 0x00, 0x00, 
.................... 0x00, 0x00, 0x00, 0x00, 0x00, 0x00, 0x00, 0x00, 0x00, 0x00, 0x00, 0x00, 0x00, 0x00, 0x00, 0x00, 
.................... 0x00, 0x00, 0x00, 0x00, 0x00, 0x00, 0x00, 0x00, 0x00, 0x00, 0x00, 0x00, 0x00, 0x00, 0x00, 0x00, 
.................... 0x00, 0x00, 0x00, 0x00, 0x00, 0x00, 0x00, 0x00, 0x00, 0x00, 0x00, 0x00, 0x00, 0x00, 0x00, 0x00, 
.................... 0x00, 0x00, 0x00, 0x00, 0x00, 0x00, 0x00, 0x00, 0x00, 0x00, 0x00, 0x00, 0x00, 0x00, 0x00, 0x00, 
.................... 0x00, 0x00, 0x00, 0x00, 0x00, 0x00, 0x00, 0x00, 0x00, 0x00, 0x00, 0x00, 0x00, 0x00, 0x00, 0x00, 
.................... 0x00, 0x00, 0x00, 0x00, 0x00, 0x00, 0x00, 0x00, 0x00, 0x00, 0x00, 0x00, 0x00, 0x00, 0x00, 0x00, 
.................... 0x00, 0x00, 0x00, 0x00, 0x00, 0x00, 0x00, 0x00, 0x00, 0x00, 0x00, 0x00, 0x00, 0x00, 0x00, 0x00, 
.................... 0x00, 0x00, 0x00, 0x00, 0x00, 0x00, 0x00, 0x00, 0x00, 0x00, 0x00, 0x00, 0x00, 0x00, 0x00, 0x00, 
.................... 0x00, 0x00, 0x00, 0x00, 0x00, 0x00, 0x00, 0x00, 0x00, 0x00, 0x00, 0x00, 0x00, 0x00, 0x00, 0x00, 
.................... 0x00, 0x00, 0x00, 0x00, 0x00, 0x00, 0x00, 0x00, 0x00, 0x00, 0x00, 0x00, 0x00, 0x00, 0x00, 0x00, 
.................... 0x00, 0x00, 0x00, 0x00, 0x00, 0x00, 0x00, 0x00, 0x00, 0x00, 0x00, 0x00, 0x00, 0x00, 0x00, 0x00, 
.................... 0x00, 0x00, 0x00, 0x00, 0x00, 0x00, 0x00, 0x00, 0x00, 0x00, 0x00, 0x00, 0x00, 0x00, 0x00, 0x00 
.................... }; 
....................  
.................... const int8 Ventilador [64][16] = { 
.................... 0x00, 0x00, 0x00, 0x00, 0x00, 0x00, 0x00, 0x00, 0x00, 0x00, 0x00, 0x00, 0x00, 0x00, 0x00, 0x00, 
.................... 0x00, 0x00, 0x00, 0x00, 0x00, 0x00, 0x00, 0x00, 0x00, 0x00, 0x00, 0x00, 0x00, 0x00, 0x00, 0x00, 
.................... 0x00, 0x00, 0x00, 0x00, 0x00, 0x00, 0x00, 0x00, 0x00, 0x00, 0x00, 0x00, 0x00, 0x00, 0x00, 0x00, 
.................... 0x00, 0x00, 0x00, 0x00, 0x00, 0x00, 0x00, 0x00, 0x00, 0x00, 0x00, 0x00, 0x00, 0x00, 0x00, 0x00, 
.................... 0x00, 0x00, 0x00, 0x00, 0x00, 0x00, 0x00, 0x00, 0x00, 0x00, 0x00, 0x00, 0x00, 0x00, 0x00, 0x00, 
.................... 0x00, 0x00, 0x00, 0x00, 0x00, 0x00, 0x00, 0x00, 0x00, 0x00, 0x00, 0x00, 0x00, 0x00, 0x00, 0x00, 
.................... 0x00, 0x00, 0x00, 0x00, 0x00, 0x00, 0x00, 0x00, 0x00, 0x00, 0x00, 0x00, 0x00, 0x00, 0x00, 0x00, 
.................... 0x00, 0x00, 0x00, 0x00, 0x00, 0x00, 0x00, 0x00, 0x00, 0x00, 0x00, 0x00, 0x00, 0x00, 0x00, 0x00, 
.................... 0x00, 0x00, 0x00, 0x00, 0x00, 0x00, 0x00, 0x00, 0x00, 0x00, 0x00, 0x00, 0x00, 0x00, 0x00, 0x00, 
.................... 0x00, 0x00, 0x00, 0x00, 0x00, 0x00, 0x00, 0x00, 0x00, 0x00, 0x00, 0x00, 0x00, 0x00, 0x00, 0x00, 
.................... 0x00, 0x00, 0x00, 0x00, 0x00, 0x00, 0x00, 0x00, 0x00, 0x00, 0x00, 0x00, 0x00, 0x00, 0x00, 0x00, 
.................... 0x00, 0x00, 0x00, 0x00, 0x00, 0x00, 0x00, 0x00, 0x00, 0x00, 0x00, 0x00, 0x00, 0x00, 0x00, 0x00, 
.................... 0x00, 0x00, 0x00, 0x00, 0x00, 0x00, 0x00, 0x00, 0x00, 0x00, 0x00, 0x00, 0x00, 0x00, 0x00, 0x00, 
.................... 0x00, 0x00, 0x00, 0x00, 0x00, 0x00, 0x00, 0x00, 0x00, 0x00, 0x00, 0x00, 0x00, 0x00, 0x00, 0x00, 
.................... 0x00, 0x00, 0x00, 0x00, 0x00, 0x00, 0x00, 0x00, 0x00, 0x00, 0x00, 0x00, 0x00, 0x00, 0x00, 0x00, 
.................... 0x00, 0x00, 0x00, 0x00, 0x00, 0x00, 0x00, 0x00, 0x00, 0x00, 0x00, 0x00, 0x00, 0x00, 0x00, 0x00, 
.................... 0x00, 0x00, 0x00, 0x00, 0x00, 0x00, 0x00, 0x00, 0x00, 0x00, 0x00, 0x00, 0x00, 0x00, 0x00, 0x00, 
.................... 0x00, 0x00, 0x00, 0x00, 0x00, 0x00, 0x00, 0x00, 0x00, 0x00, 0x00, 0x00, 0x00, 0x00, 0x00, 0x00, 
.................... 0x00, 0x00, 0x00, 0x00, 0x00, 0x00, 0x00, 0x00, 0x00, 0x00, 0x00, 0x00, 0x00, 0x00, 0x00, 0x00, 
.................... 0x00, 0x00, 0x00, 0x00, 0x00, 0x00, 0x00, 0x00, 0x00, 0x00, 0x00, 0x00, 0x00, 0x00, 0x00, 0x00, 
.................... 0x00, 0x00, 0x00, 0x00, 0x00, 0x00, 0x00, 0x00, 0x00, 0x00, 0x00, 0x00, 0x00, 0x00, 0x00, 0x00, 
.................... 0x00, 0x00, 0x00, 0x00, 0x00, 0x00, 0x00, 0x00, 0x00, 0x00, 0x00, 0x00, 0x00, 0x00, 0x00, 0x00, 
.................... 0x00, 0x00, 0x00, 0x00, 0x00, 0x00, 0x00, 0x00, 0x00, 0x00, 0x00, 0x00, 0x00, 0x00, 0x00, 0x00, 
.................... 0x00, 0x00, 0x00, 0x00, 0x00, 0x00, 0x00, 0x00, 0x00, 0x00, 0x00, 0x00, 0x00, 0x00, 0x00, 0x00, 
.................... 0x00, 0x00, 0x00, 0x00, 0x00, 0x00, 0x00, 0x00, 0x00, 0x00, 0x00, 0x00, 0x00, 0x00, 0x00, 0x00, 
.................... 0x00, 0x00, 0x00, 0x00, 0x00, 0x00, 0x00, 0x00, 0x00, 0x00, 0x00, 0x00, 0x00, 0x00, 0x00, 0x00, 
.................... 0x00, 0x00, 0x00, 0x00, 0x00, 0x00, 0x00, 0x00, 0x00, 0x00, 0x00, 0x00, 0x00, 0x00, 0x00, 0x00, 
.................... 0x00, 0x00, 0x00, 0x00, 0x00, 0x00, 0x00, 0x00, 0x00, 0x00, 0x00, 0x00, 0x00, 0x00, 0x00, 0x00, 
.................... 0x00, 0x00, 0x00, 0x00, 0x00, 0x00, 0x00, 0x00, 0x00, 0x00, 0x00, 0x00, 0x00, 0x00, 0x00, 0x00, 
.................... 0x00, 0x00, 0x00, 0x00, 0x00, 0x00, 0x00, 0x00, 0x00, 0x00, 0x00, 0x00, 0x00, 0x00, 0x00, 0x00, 
.................... 0x00, 0x00, 0x00, 0x00, 0x00, 0x00, 0x00, 0x00, 0x00, 0x00, 0x00, 0x00, 0x00, 0x00, 0x00, 0x00, 
.................... 0x00, 0x00, 0x00, 0x00, 0x00, 0x00, 0x00, 0x00, 0x00, 0x00, 0x00, 0x00, 0x00, 0x00, 0x00, 0x00, 
.................... 0x00, 0x00, 0x00, 0x00, 0x00, 0x00, 0x00, 0x00, 0x00, 0x00, 0x00, 0x00, 0x00, 0x00, 0x00, 0x00, 
.................... 0x00, 0x00, 0x00, 0x00, 0x00, 0x00, 0x00, 0x00, 0x00, 0x00, 0x00, 0x00, 0x00, 0x00, 0x00, 0x00, 
.................... 0x00, 0x00, 0x00, 0x00, 0x00, 0x00, 0x00, 0x00, 0x00, 0x00, 0x00, 0x00, 0x00, 0x00, 0x00, 0x00, 
.................... 0x00, 0x00, 0x00, 0x00, 0x00, 0x00, 0x00, 0x00, 0x00, 0x00, 0x00, 0x00, 0x00, 0x00, 0x00, 0x00, 
.................... 0x00, 0x00, 0x00, 0x00, 0x00, 0x00, 0x00, 0x00, 0x00, 0x00, 0x00, 0x00, 0x00, 0x00, 0x00, 0x00, 
.................... 0x00, 0x00, 0x00, 0x00, 0x00, 0x00, 0x00, 0x00, 0x00, 0x00, 0x00, 0x00, 0x00, 0x00, 0x00, 0x00, 
.................... 0x00, 0x00, 0x00, 0x00, 0x00, 0x00, 0x00, 0x00, 0x00, 0x00, 0x00, 0x00, 0x00, 0x00, 0x00, 0x00, 
.................... 0x00, 0x00, 0x00, 0x00, 0x00, 0x00, 0x00, 0x00, 0x00, 0x00, 0x00, 0x00, 0x00, 0x00, 0x00, 0x00, 
.................... 0x00, 0x00, 0x00, 0x00, 0x00, 0x00, 0x00, 0x00, 0x00, 0x00, 0x00, 0x00, 0x00, 0x00, 0x00, 0x00, 
.................... 0x00, 0x00, 0x00, 0x00, 0x00, 0x00, 0x00, 0x00, 0x00, 0x00, 0x00, 0x00, 0x00, 0x00, 0x00, 0x00, 
.................... 0x00, 0x00, 0x00, 0x00, 0x00, 0x00, 0x00, 0x00, 0x00, 0x00, 0x00, 0x00, 0x00, 0x00, 0x00, 0x00, 
.................... 0x00, 0x00, 0x00, 0x00, 0x00, 0x00, 0x00, 0x00, 0x00, 0x00, 0x00, 0x00, 0x00, 0x00, 0x00, 0x00, 
.................... 0x00, 0x00, 0x00, 0x00, 0x00, 0x00, 0x00, 0x00, 0x00, 0x00, 0x00, 0x00, 0x00, 0x00, 0x00, 0x00, 
.................... 0x00, 0x00, 0x00, 0x00, 0x00, 0x00, 0x00, 0x00, 0x00, 0x00, 0x00, 0x00, 0x00, 0x00, 0x00, 0x00, 
.................... 0x00, 0x00, 0x00, 0x00, 0x00, 0x00, 0x00, 0x00, 0x00, 0x00, 0x00, 0x00, 0x00, 0x00, 0x60, 0x00, 
.................... 0x00, 0x00, 0x00, 0x00, 0x00, 0x00, 0x00, 0x00, 0x00, 0x00, 0x00, 0x00, 0x00, 0x00, 0xF0, 0x00, 
.................... 0x00, 0x00, 0x00, 0x00, 0x00, 0x00, 0x00, 0x00, 0x00, 0x00, 0x00, 0x00, 0x00, 0x01, 0xF8, 0x00, 
.................... 0x00, 0x00, 0x00, 0x00, 0x00, 0x00, 0x00, 0x00, 0x00, 0x00, 0x00, 0x00, 0x00, 0x01, 0xF8, 0x00, 
.................... 0x00, 0x00, 0x00, 0x00, 0x00, 0x00, 0x00, 0x00, 0x00, 0x00, 0x00, 0x00, 0x00, 0x01, 0xF8, 0x00, 
.................... 0x00, 0x00, 0x00, 0x00, 0x00, 0x00, 0x00, 0x00, 0x00, 0x00, 0x00, 0x00, 0x00, 0x00, 0xF0, 0x00, 
.................... 0x00, 0x00, 0x00, 0x00, 0x00, 0x00, 0x00, 0x00, 0x00, 0x00, 0x00, 0x00, 0x00, 0x38, 0x71, 0xC0, 
.................... 0x00, 0x00, 0x00, 0x00, 0x00, 0x00, 0x00, 0x00, 0x00, 0x00, 0x00, 0x00, 0x00, 0x7C, 0x93, 0xE0, 
.................... 0x00, 0x00, 0x00, 0x00, 0x00, 0x00, 0x00, 0x00, 0x00, 0x00, 0x00, 0x00, 0x00, 0xFF, 0x0F, 0xF0, 
.................... 0x00, 0x00, 0x00, 0x00, 0x00, 0x00, 0x00, 0x00, 0x00, 0x00, 0x00, 0x00, 0x00, 0xFF, 0x0F, 0xF0, 
.................... 0x00, 0x00, 0x00, 0x00, 0x00, 0x00, 0x00, 0x00, 0x00, 0x00, 0x00, 0x00, 0x00, 0x7D, 0x93, 0xE0, 
.................... 0x00, 0x00, 0x00, 0x00, 0x00, 0x00, 0x00, 0x00, 0x00, 0x00, 0x00, 0x00, 0x00, 0x38, 0x61, 0xC0, 
.................... 0x00, 0x00, 0x00, 0x00, 0x00, 0x00, 0x00, 0x00, 0x00, 0x00, 0x00, 0x00, 0x00, 0x00, 0xF0, 0x00, 
.................... 0x00, 0x00, 0x00, 0x00, 0x00, 0x00, 0x00, 0x00, 0x00, 0x00, 0x00, 0x00, 0x00, 0x01, 0xF8, 0x00, 
.................... 0x00, 0x00, 0x00, 0x00, 0x00, 0x00, 0x00, 0x00, 0x00, 0x00, 0x00, 0x00, 0x00, 0x01, 0xF8, 0x00, 
.................... 0x00, 0x00, 0x00, 0x00, 0x00, 0x00, 0x00, 0x00, 0x00, 0x00, 0x00, 0x00, 0x00, 0x01, 0xF8, 0x00, 
.................... 0x00, 0x00, 0x00, 0x00, 0x00, 0x00, 0x00, 0x00, 0x00, 0x00, 0x00, 0x00, 0x00, 0x00, 0xF0, 0x00, 
.................... 0x00, 0x00, 0x00, 0x00, 0x00, 0x00, 0x00, 0x00, 0x00, 0x00, 0x00, 0x00, 0x00, 0x00, 0x60, 0x00 
.................... }; 
....................  
.................... #include "FuncionesDisplay.h" 
....................  
.................... typedef struct{ 
....................    char Letra[20]; 
.................... }MENUU; 
....................  
.................... MENUU Menus; 
....................   
.................... void displayContrasena(int digito, int x, int y, int sombreado) 
.................... { 
....................    char voltage[9]; 
....................    sprintf(voltage, "%i", digito); 
*
04C14:  MOVLW  05
04C16:  MOVLB  4
04C18:  MOVWF  x2C
04C1A:  MOVLW  F3
04C1C:  MOVWF  x2B
04C1E:  MOVFF  5EF,5FC
04C22:  MOVLW  1F
04C24:  MOVLB  5
04C26:  MOVWF  xFD
04C28:  MOVLB  0
04C2A:  RCALL  4918
....................     
....................    if(sombreado==1) 
04C2C:  MOVLB  5
04C2E:  DECFSZ xF2,W
04C30:  BRA    4C88
....................       {glcd_rect(x, y, x+18, y+24, YES, ON);glcd_text57(x+2, y+1, voltage, 2, OFF);} 
04C32:  MOVLW  12
04C34:  ADDWF  xF0,W
04C36:  MOVWF  xFC
04C38:  MOVLW  18
04C3A:  ADDWF  xF1,W
04C3C:  MOVWF  xFD
04C3E:  MOVFF  5F0,5FE
04C42:  MOVFF  5F1,5FF
04C46:  MOVFF  5FC,600
04C4A:  MOVFF  FE8,601
04C4E:  MOVLW  01
04C50:  MOVLB  6
04C52:  MOVWF  x02
04C54:  MOVWF  x03
04C56:  MOVLB  0
04C58:  RCALL  4B48
04C5A:  MOVLW  02
04C5C:  MOVLB  5
04C5E:  ADDWF  xF0,W
04C60:  MOVWF  xFC
04C62:  MOVLW  01
04C64:  ADDWF  xF1,W
04C66:  MOVWF  xFD
04C68:  MOVFF  5FC,5FE
04C6C:  MOVWF  xFF
04C6E:  MOVLW  05
04C70:  MOVLB  6
04C72:  MOVWF  x01
04C74:  MOVLW  F3
04C76:  MOVWF  x00
04C78:  MOVLW  02
04C7A:  MOVWF  x02
04C7C:  CLRF   x03
04C7E:  MOVLB  0
04C80:  CALL   16EA
....................    else    
04C84:  BRA    4CDA
04C86:  MOVLB  5
....................       {glcd_rect(x, y, x+18, y+24, NO, OFF);glcd_text57(x+2, y+1, voltage, 2, ON);} 
04C88:  MOVLW  12
04C8A:  ADDWF  xF0,W
04C8C:  MOVWF  xFC
04C8E:  MOVLW  18
04C90:  ADDWF  xF1,W
04C92:  MOVWF  xFD
04C94:  MOVFF  5F0,5FE
04C98:  MOVFF  5F1,5FF
04C9C:  MOVFF  5FC,600
04CA0:  MOVFF  FE8,601
04CA4:  MOVLB  6
04CA6:  CLRF   x02
04CA8:  CLRF   x03
04CAA:  MOVLB  0
04CAC:  RCALL  4B48
04CAE:  MOVLW  02
04CB0:  MOVLB  5
04CB2:  ADDWF  xF0,W
04CB4:  MOVWF  xFC
04CB6:  MOVLW  01
04CB8:  ADDWF  xF1,W
04CBA:  MOVWF  xFD
04CBC:  MOVFF  5FC,5FE
04CC0:  MOVWF  xFF
04CC2:  MOVLW  05
04CC4:  MOVLB  6
04CC6:  MOVWF  x01
04CC8:  MOVLW  F3
04CCA:  MOVWF  x00
04CCC:  MOVLW  02
04CCE:  MOVWF  x02
04CD0:  MOVLW  01
04CD2:  MOVWF  x03
04CD4:  MOVLB  0
04CD6:  CALL   16EA
....................  
.................... } 
04CDA:  RETLW  00
....................  
.................... void displayTiempo(int digito, int x, int y, int sombreado, int tamano) 
.................... { 
....................    char voltage[9]; 
....................    sprintf(voltage, "%i", digito); 
*
0549A:  MOVLW  05
0549C:  MOVLB  4
0549E:  MOVWF  x2C
054A0:  MOVLW  EA
054A2:  MOVWF  x2B
054A4:  MOVFF  5E5,5FC
054A8:  MOVLW  1F
054AA:  MOVLB  5
054AC:  MOVWF  xFD
054AE:  MOVLB  0
054B0:  CALL   4918
....................     
....................    if(sombreado==1) 
054B4:  MOVLB  5
054B6:  DECFSZ xE8,W
054B8:  BRA    5518
....................       {glcd_rect(x, y, x+(tamano*6), y+(tamano*8), YES, ON);glcd_text57(x+2, y+1, voltage, tamano, OFF);} 
054BA:  MOVF   xE9,W
054BC:  MULLW  06
054BE:  MOVF   FF3,W
054C0:  ADDWF  xE6,W
054C2:  MOVWF  xF3
054C4:  MOVF   xE9,W
054C6:  MULLW  08
054C8:  MOVF   FF3,W
054CA:  ADDWF  xE7,W
054CC:  MOVWF  xF4
054CE:  MOVFF  5E6,5FE
054D2:  MOVFF  5E7,5FF
054D6:  MOVFF  5F3,600
054DA:  MOVFF  FE8,601
054DE:  MOVLW  01
054E0:  MOVLB  6
054E2:  MOVWF  x02
054E4:  MOVWF  x03
054E6:  MOVLB  0
054E8:  CALL   4B48
054EC:  MOVLW  02
054EE:  MOVLB  5
054F0:  ADDWF  xE6,W
054F2:  MOVWF  xF3
054F4:  MOVLW  01
054F6:  ADDWF  xE7,W
054F8:  MOVWF  xF4
054FA:  MOVFF  5F3,5FE
054FE:  MOVWF  xFF
05500:  MOVLW  05
05502:  MOVLB  6
05504:  MOVWF  x01
05506:  MOVLW  EA
05508:  MOVWF  x00
0550A:  MOVFF  5E9,602
0550E:  CLRF   x03
05510:  MOVLB  0
05512:  CALL   16EA
05516:  MOVLB  5
....................    if(sombreado==0) 
05518:  MOVF   xE8,F
0551A:  BNZ   557C
....................       {glcd_rect(x, y, x+(tamano*6), y+(tamano*8), YES, OFF);glcd_text57(x+2, y+1, voltage, tamano, ON);} 
0551C:  MOVF   xE9,W
0551E:  MULLW  06
05520:  MOVF   FF3,W
05522:  ADDWF  xE6,W
05524:  MOVWF  xF3
05526:  MOVF   xE9,W
05528:  MULLW  08
0552A:  MOVF   FF3,W
0552C:  ADDWF  xE7,W
0552E:  MOVWF  xF4
05530:  MOVFF  5E6,5FE
05534:  MOVFF  5E7,5FF
05538:  MOVFF  5F3,600
0553C:  MOVFF  FE8,601
05540:  MOVLW  01
05542:  MOVLB  6
05544:  MOVWF  x02
05546:  CLRF   x03
05548:  MOVLB  0
0554A:  CALL   4B48
0554E:  MOVLW  02
05550:  MOVLB  5
05552:  ADDWF  xE6,W
05554:  MOVWF  xF3
05556:  MOVLW  01
05558:  ADDWF  xE7,W
0555A:  MOVWF  xF4
0555C:  MOVFF  5F3,5FE
05560:  MOVWF  xFF
05562:  MOVLW  05
05564:  MOVLB  6
05566:  MOVWF  x01
05568:  MOVLW  EA
0556A:  MOVWF  x00
0556C:  MOVFF  5E9,602
05570:  MOVLW  01
05572:  MOVWF  x03
05574:  MOVLB  0
05576:  CALL   16EA
0557A:  MOVLB  5
....................  
.................... } 
0557C:  MOVLB  0
0557E:  RETLW  00
....................  
.................... void displayMenu(char palabra[100], int x, int y, int sombreado, int tamano) 
.................... { 
....................    strcpy(Menus.Letra,palabra); 
*
04CDC:  MOVLB  5
04CDE:  MOVFF  5ED,01
04CE2:  MOVFF  5EE,03
04CE6:  MOVFF  5ED,5F3
04CEA:  MOVFF  5EE,5F4
04CEE:  MOVLW  04
04CF0:  MOVWF  FEA
04CF2:  MOVLW  17
04CF4:  MOVWF  FE9
04CF6:  MOVFF  5EE,FE2
04CFA:  MOVFF  5ED,FE1
04CFE:  MOVF   FE7,F
04D00:  MOVFF  FE6,FEE
04D04:  BNZ   4CFE
....................    if(sombreado==1) 
04D06:  DECFSZ xF1,W
04D08:  BRA    4D5A
....................       {glcd_rect(0, y, 127, y+(tamano*8), YES, ON);glcd_text57(x+1, y+1, Menus.Letra, tamano, OFF);} 
04D0A:  MOVF   xF2,W
04D0C:  MULLW  08
04D0E:  MOVF   FF3,W
04D10:  ADDWF  xF0,W
04D12:  MOVWF  xF3
04D14:  CLRF   xFE
04D16:  MOVFF  5F0,5FF
04D1A:  MOVLW  7F
04D1C:  MOVLB  6
04D1E:  MOVWF  x00
04D20:  MOVFF  5F3,601
04D24:  MOVLW  01
04D26:  MOVWF  x02
04D28:  MOVWF  x03
04D2A:  MOVLB  0
04D2C:  RCALL  4B48
04D2E:  MOVLW  01
04D30:  MOVLB  5
04D32:  ADDWF  xEF,W
04D34:  MOVWF  xF3
04D36:  MOVLW  01
04D38:  ADDWF  xF0,W
04D3A:  MOVWF  xF4
04D3C:  MOVFF  5F3,5FE
04D40:  MOVWF  xFF
04D42:  MOVLW  04
04D44:  MOVLB  6
04D46:  MOVWF  x01
04D48:  MOVLW  17
04D4A:  MOVWF  x00
04D4C:  MOVFF  5F2,602
04D50:  CLRF   x03
04D52:  MOVLB  0
04D54:  CALL   16EA
04D58:  MOVLB  5
....................    if(sombreado==0) 
04D5A:  MOVF   xF1,F
04D5C:  BNZ   4DB0
....................       {glcd_rect(0, y, 127, y+(tamano*8), YES, OFF);glcd_text57(x+1, y+1, Menus.Letra, tamano, ON);} 
04D5E:  MOVF   xF2,W
04D60:  MULLW  08
04D62:  MOVF   FF3,W
04D64:  ADDWF  xF0,W
04D66:  MOVWF  xF3
04D68:  CLRF   xFE
04D6A:  MOVFF  5F0,5FF
04D6E:  MOVLW  7F
04D70:  MOVLB  6
04D72:  MOVWF  x00
04D74:  MOVFF  5F3,601
04D78:  MOVLW  01
04D7A:  MOVWF  x02
04D7C:  CLRF   x03
04D7E:  MOVLB  0
04D80:  RCALL  4B48
04D82:  MOVLW  01
04D84:  MOVLB  5
04D86:  ADDWF  xEF,W
04D88:  MOVWF  xF3
04D8A:  MOVLW  01
04D8C:  ADDWF  xF0,W
04D8E:  MOVWF  xF4
04D90:  MOVFF  5F3,5FE
04D94:  MOVWF  xFF
04D96:  MOVLW  04
04D98:  MOVLB  6
04D9A:  MOVWF  x01
04D9C:  MOVLW  17
04D9E:  MOVWF  x00
04DA0:  MOVFF  5F2,602
04DA4:  MOVLW  01
04DA6:  MOVWF  x03
04DA8:  MOVLB  0
04DAA:  CALL   16EA
04DAE:  MOVLB  5
....................  
.................... } 
04DB0:  MOVLB  0
04DB2:  RETLW  00
....................  
.................... void displayfloat2(float adc,int x,int y,int sombreado, int tamano) { 
....................    char voltage[9];     
....................       sprintf(voltage, "%2.0f C",adc); // Converts adc to text 
*
05B22:  MOVLW  05
05B24:  MOVLB  4
05B26:  MOVWF  x2C
05B28:  MOVLW  F1
05B2A:  MOVWF  x2B
05B2C:  MOVLW  01
05B2E:  MOVWF  FE9
05B30:  MOVFF  5EC,5FD
05B34:  MOVFF  5EB,5FC
05B38:  MOVFF  5EA,5FB
05B3C:  MOVFF  5E9,5FA
05B40:  MOVLB  5
05B42:  CLRF   xFE
05B44:  MOVLB  0
05B46:  RCALL  5644
05B48:  MOVLW  20
05B4A:  MOVLB  6
05B4C:  MOVWF  x0D
05B4E:  MOVLB  0
05B50:  CALL   48F6
05B54:  MOVLW  43
05B56:  MOVLB  6
05B58:  MOVWF  x0D
05B5A:  MOVLB  0
05B5C:  CALL   48F6
....................        
....................    if(sombreado==1) 
05B60:  MOVLB  5
05B62:  DECFSZ xEF,W
05B64:  BRA    5BE6
....................       {glcd_rect(x, y, x+(tamano*20), y+(tamano*8), YES, ON);glcd_text57(x+2, y+1, voltage, tamano, OFF);glcd_circle(x+17,y+2,1,ON,OFF);} 
05B66:  MOVF   xF0,W
05B68:  MULLW  14
05B6A:  MOVF   FF3,W
05B6C:  ADDWF  xED,W
05B6E:  MOVWF  xFA
05B70:  MOVF   xF0,W
05B72:  MULLW  08
05B74:  MOVF   FF3,W
05B76:  ADDWF  xEE,W
05B78:  MOVWF  xFB
05B7A:  MOVFF  5ED,5FE
05B7E:  MOVFF  5EE,5FF
05B82:  MOVFF  5FA,600
05B86:  MOVFF  FE8,601
05B8A:  MOVLW  01
05B8C:  MOVLB  6
05B8E:  MOVWF  x02
05B90:  MOVWF  x03
05B92:  MOVLB  0
05B94:  CALL   4B48
05B98:  MOVLW  02
05B9A:  MOVLB  5
05B9C:  ADDWF  xED,W
05B9E:  MOVWF  xFA
05BA0:  MOVLW  01
05BA2:  ADDWF  xEE,W
05BA4:  MOVWF  xFB
05BA6:  MOVFF  5FA,5FE
05BAA:  MOVWF  xFF
05BAC:  MOVLW  05
05BAE:  MOVLB  6
05BB0:  MOVWF  x01
05BB2:  MOVLW  F1
05BB4:  MOVWF  x00
05BB6:  MOVFF  5F0,602
05BBA:  CLRF   x03
05BBC:  MOVLB  0
05BBE:  CALL   16EA
05BC2:  MOVLW  11
05BC4:  MOVLB  5
05BC6:  ADDWF  xED,W
05BC8:  MOVWF  xFA
05BCA:  MOVLW  02
05BCC:  ADDWF  xEE,W
05BCE:  MOVWF  xFB
05BD0:  MOVFF  5FA,5FC
05BD4:  MOVWF  xFD
05BD6:  MOVLW  01
05BD8:  MOVWF  xFE
05BDA:  MOVWF  xFF
05BDC:  MOVLB  6
05BDE:  CLRF   x00
05BE0:  MOVLB  0
05BE2:  RCALL  5876
05BE4:  MOVLB  5
....................    if(sombreado==0) 
05BE6:  MOVF   xEF,F
05BE8:  BNZ   5C6C
....................       {glcd_rect(x, y, x+(tamano*20), y+(tamano*8), YES, OFF);glcd_text57(x+2, y+1, voltage, tamano, ON);glcd_circle(x+17,y+2,1,ON,ON);} 
05BEA:  MOVF   xF0,W
05BEC:  MULLW  14
05BEE:  MOVF   FF3,W
05BF0:  ADDWF  xED,W
05BF2:  MOVWF  xFA
05BF4:  MOVF   xF0,W
05BF6:  MULLW  08
05BF8:  MOVF   FF3,W
05BFA:  ADDWF  xEE,W
05BFC:  MOVWF  xFB
05BFE:  MOVFF  5ED,5FE
05C02:  MOVFF  5EE,5FF
05C06:  MOVFF  5FA,600
05C0A:  MOVFF  FE8,601
05C0E:  MOVLW  01
05C10:  MOVLB  6
05C12:  MOVWF  x02
05C14:  CLRF   x03
05C16:  MOVLB  0
05C18:  CALL   4B48
05C1C:  MOVLW  02
05C1E:  MOVLB  5
05C20:  ADDWF  xED,W
05C22:  MOVWF  xFA
05C24:  MOVLW  01
05C26:  ADDWF  xEE,W
05C28:  MOVWF  xFB
05C2A:  MOVFF  5FA,5FE
05C2E:  MOVWF  xFF
05C30:  MOVLW  05
05C32:  MOVLB  6
05C34:  MOVWF  x01
05C36:  MOVLW  F1
05C38:  MOVWF  x00
05C3A:  MOVFF  5F0,602
05C3E:  MOVLW  01
05C40:  MOVWF  x03
05C42:  MOVLB  0
05C44:  CALL   16EA
05C48:  MOVLW  11
05C4A:  MOVLB  5
05C4C:  ADDWF  xED,W
05C4E:  MOVWF  xFA
05C50:  MOVLW  02
05C52:  ADDWF  xEE,W
05C54:  MOVWF  xFB
05C56:  MOVFF  5FA,5FC
05C5A:  MOVWF  xFD
05C5C:  MOVLW  01
05C5E:  MOVWF  xFE
05C60:  MOVWF  xFF
05C62:  MOVLB  6
05C64:  MOVWF  x00
05C66:  MOVLB  0
05C68:  RCALL  5876
05C6A:  MOVLB  5
....................        
.................... } 
05C6C:  MOVLB  0
05C6E:  GOTO   7268 (RETURN)
....................  
.................... void displayfloat(float adc,int x,int y,int sombreado, int tamano) { 
....................    char voltage[9];     
....................       sprintf(voltage, "%2.2f ",adc); // Converts adc to text 
*
05E9E:  MOVLW  05
05EA0:  MOVLB  4
05EA2:  MOVWF  x2C
05EA4:  MOVLW  F1
05EA6:  MOVWF  x2B
05EA8:  MOVLW  89
05EAA:  MOVWF  FE9
05EAC:  MOVFF  5EC,5FD
05EB0:  MOVFF  5EB,5FC
05EB4:  MOVFF  5EA,5FB
05EB8:  MOVFF  5E9,5FA
05EBC:  MOVLW  02
05EBE:  MOVLB  5
05EC0:  MOVWF  xFE
05EC2:  MOVLB  0
05EC4:  CALL   5644
05EC8:  MOVLW  20
05ECA:  MOVLB  6
05ECC:  MOVWF  x0D
05ECE:  MOVLB  0
05ED0:  CALL   48F6
....................        
....................    if(sombreado==1) 
05ED4:  MOVLB  5
05ED6:  DECFSZ xEF,W
05ED8:  BRA    5F38
....................       {glcd_rect(x, y, x+(tamano*20), y+(tamano*8), YES, ON);glcd_text57(x+2, y+1, voltage, tamano, OFF);} 
05EDA:  MOVF   xF0,W
05EDC:  MULLW  14
05EDE:  MOVF   FF3,W
05EE0:  ADDWF  xED,W
05EE2:  MOVWF  xFA
05EE4:  MOVF   xF0,W
05EE6:  MULLW  08
05EE8:  MOVF   FF3,W
05EEA:  ADDWF  xEE,W
05EEC:  MOVWF  xFB
05EEE:  MOVFF  5ED,5FE
05EF2:  MOVFF  5EE,5FF
05EF6:  MOVFF  5FA,600
05EFA:  MOVFF  FE8,601
05EFE:  MOVLW  01
05F00:  MOVLB  6
05F02:  MOVWF  x02
05F04:  MOVWF  x03
05F06:  MOVLB  0
05F08:  CALL   4B48
05F0C:  MOVLW  02
05F0E:  MOVLB  5
05F10:  ADDWF  xED,W
05F12:  MOVWF  xFA
05F14:  MOVLW  01
05F16:  ADDWF  xEE,W
05F18:  MOVWF  xFB
05F1A:  MOVFF  5FA,5FE
05F1E:  MOVWF  xFF
05F20:  MOVLW  05
05F22:  MOVLB  6
05F24:  MOVWF  x01
05F26:  MOVLW  F1
05F28:  MOVWF  x00
05F2A:  MOVFF  5F0,602
05F2E:  CLRF   x03
05F30:  MOVLB  0
05F32:  CALL   16EA
05F36:  MOVLB  5
....................    if(sombreado==0) 
05F38:  MOVF   xEF,F
05F3A:  BNZ   5F9C
....................       {glcd_rect(x, y, x+(tamano*20), y+(tamano*8), YES, OFF);glcd_text57(x+2, y+1, voltage, tamano, ON);} 
05F3C:  MOVF   xF0,W
05F3E:  MULLW  14
05F40:  MOVF   FF3,W
05F42:  ADDWF  xED,W
05F44:  MOVWF  xFA
05F46:  MOVF   xF0,W
05F48:  MULLW  08
05F4A:  MOVF   FF3,W
05F4C:  ADDWF  xEE,W
05F4E:  MOVWF  xFB
05F50:  MOVFF  5ED,5FE
05F54:  MOVFF  5EE,5FF
05F58:  MOVFF  5FA,600
05F5C:  MOVFF  FE8,601
05F60:  MOVLW  01
05F62:  MOVLB  6
05F64:  MOVWF  x02
05F66:  CLRF   x03
05F68:  MOVLB  0
05F6A:  CALL   4B48
05F6E:  MOVLW  02
05F70:  MOVLB  5
05F72:  ADDWF  xED,W
05F74:  MOVWF  xFA
05F76:  MOVLW  01
05F78:  ADDWF  xEE,W
05F7A:  MOVWF  xFB
05F7C:  MOVFF  5FA,5FE
05F80:  MOVWF  xFF
05F82:  MOVLW  05
05F84:  MOVLB  6
05F86:  MOVWF  x01
05F88:  MOVLW  F1
05F8A:  MOVWF  x00
05F8C:  MOVFF  5F0,602
05F90:  MOVLW  01
05F92:  MOVWF  x03
05F94:  MOVLB  0
05F96:  CALL   16EA
05F9A:  MOVLB  5
....................        
.................... } 
05F9C:  MOVLB  0
05F9E:  RETLW  00
....................  
.................... // Funcion para conversor analogo-digital 
.................... unsigned int16 sensores(int x){ 
.................... unsigned int16 y;set_adc_channel(x);delay_ms(1);y=read_adc();return (y); 
*
02E58:  MOVLB  5
02E5A:  RLCF   xF6,W
02E5C:  MOVWF  00
02E5E:  RLCF   00,F
02E60:  MOVLW  FC
02E62:  ANDWF  00,F
02E64:  MOVFF  00,01
02E68:  MOVF   FC2,W
02E6A:  ANDLW  C3
02E6C:  IORWF  00,W
02E6E:  MOVWF  FC2
02E70:  MOVLW  01
02E72:  MOVWF  xF9
02E74:  MOVLB  0
02E76:  CALL   1394
02E7A:  BSF    FC2.1
02E7C:  BTFSC  FC2.1
02E7E:  BRA    2E7C
02E80:  MOVFF  FC4,5F8
02E84:  MOVLB  5
02E86:  MOVFF  FC3,5F7
02E8A:  MOVFF  5F7,01
02E8E:  MOVFF  5F8,02
.................... } 
02E92:  MOVLB  0
02E94:  RETLW  00
....................  
....................  
.................... #define   UP               !input(PIN_A5) 
.................... #define   DOWN             !input(PIN_E0) 
.................... #define   RIGHT            !input(PIN_E1) 
.................... #define   LEFT             !input(PIN_E2) 
.................... #define   VIDRIOUP         !input(PIN_A4) 
.................... #define   VIDRIODN         !input(PIN_A3) 
....................  
.................... #define   Alarma_on           output_bit(PIN_C7,1) 
.................... #define   Alarma_off          output_bit(PIN_C7,0) 
.................... #define   LuzBlanca_on        output_bit(PIN_C0,1) 
.................... #define   LuzBlanca_off       output_bit(PIN_C0,0) 
.................... #define   LuzUV_on            output_bit(PIN_C1,1) 
.................... #define   LuzUV_off           output_bit(PIN_C1,0) 
.................... #define   Motor_on            output_bit(PIN_C2,1) 
.................... #define   Motor_off           output_bit(PIN_C2,0) 
.................... #define   Display_on          output_bit(PIN_B1,1) 
.................... #define   Display_off         output_bit(PIN_B1,0) 
....................  
.................... #define   PresDownFlow 2 
....................  
.................... short Flanco=0,Flanco1=0,Flanco2=0,Flanco3=0,Flanco4=0,Flanco5=0,imprimir=0,flag_blower=0,flag_toma=0,flag_luz=0,flag_alarma=0,w=0; 
.................... short tiempo_purga=0,tiempo_trabajo=0,flag_latencia=0,flag_uv=0,tiempo_uv=0,guardauv=0,tiempocumplido=1; 
.................... short guardatrabajo=0,Lectura=0,n=0; 
.................... char  JP[] = "JP Inglobal", Cabina[] = "Cabina Extractora",Dos_puntos[]=":"; 
.................... char  Clase[] = " Sin Ductos", Tiempo[] = "Tiempo de Purga",UV[]="UV"; 
.................... char  Inflowt[] = "Vel:",Downflowt[] = "T:", ZF[] = "Fabrica:208.0", ZA[] = "Actual:",AJ[]="Ajuste:"; 
.................... char  Vida_Filtro[] = "Filtro:",ZFP[] = "Fabrica:235.0", Perdida[]="!Filtro Saturado!", Tempo[]="Tempo UV:",Vida_UV[] = "UVLife:"; 
.................... int8 Menu=200, unidad=1, Opcion=1,negativo=10,G_l=0,G_h=0,tiemporeset=0; 
.................... int8 q=0,r=0,l=0,h=0,Entero=0,Decimal1=0,Alarma=10; 
....................  
.................... unsigned int16 Inflow_adc=0,Filtro_Downflow_adc=0,Temporal1=0,segundos_uv=0; 
....................  
.................... int16 t_latencia=0,minutos_uv=0,minutos_trabajo=0,G16=0; 
.................... signed int  Tpurga[4]={0,0,0,0};       // Tiempo de Purga transcurrido 
.................... signed int  Tpurgap[4]={9,0,0,0};      // Tiempo de Purga programado 
.................... signed int  Tppurgap[4]={9,0,0,0};     // Tiempo de Post-Purga programado 
.................... signed int  Tuv[4]={0,0,0,0};          // Tiempo de UV transcurrido(en Horas) 
.................... signed int  Tempouvp[4]={0,0,0,0};        // Tiempo de UV transcurrido 
.................... signed int  Tempouv[4]={0,0,0,0};         // Tiempo de UV transcurrido 
.................... signed int  Ttrabajo[4]={0,0,0,0};        // Tiempo de trabajo transcurrido (en Horas) 
.................... signed int  Contrasena[4]={0,0,0,0};      // Contrasena de 4 digitos 
.................... signed int  Password[4]={0,0,0,0};        // Contrasena Almacenada de 4 digitos 
.................... float Inflow=0.0,Downflow=0.0,Filtro_Downflow=0.0,Diferencia=0.0,barra=0.0,barra_old=0.0; 
.................... float Velocidad=0.0,x_uno=0.0,x_cuadrado=0.0,x_cubo=0.0,Ajuste1=0.0,Ajuste2=0.0; 
.................... float Temporal=0.0,Temporal2=0.0; 
.................... float a=0.00000957915546738639,b=-0.00727819571978831,c= 1.85375754678451,d= -156.816806902063; 
.................... //float t=378.463968402560,f=-18275.0402762787;//Sensor 2 Posible bueno 
....................  
.................... float promedio[8]={0.0,0.0,0.0,0.0,0.0,0.0,0.0,0.0}; 
.................... float promedio2[8]={0.0,0.0,0.0,0.0,0.0,0.0,0.0,0.0}; 
.................... float PromPresion[8]={0.0,0.0,0.0,0.0,0.0,0.0,0.0,0.0}; 
.................... float Flujo=0.0,zero_fabrica=208.0,zero_actual=0.0; 
.................... float V1=0.0,Presion=0.0,G=2.0; 
....................  
.................... int16 pulsos=0,retardo=0; 
.................... int8 i=0,l2=0,h2=0,Temperatura=0; 
.................... short Cruce=OFF,Purga=OFF; 
.................... int16 tiempocruce=0; 
.................... int8 Porcentaje=0,VelMotor=0; 
.................... float Tcruce=0.0,Tcruce2=0; 
....................  
.................... #include "Funciones.h" 
.................... float Leer_Sensor_Presion(int media){ 
*
046B8:  MOVLB  5
046BA:  CLRF   xE9
046BC:  CLRF   xE8
046BE:  CLRF   xE7
046C0:  CLRF   xE6
....................    float promediopresion=0.0; 
....................     
....................    Filtro_Downflow_adc=sensores(PresDownFlow); 
046C2:  MOVLW  02
046C4:  MOVWF  xF6
046C6:  MOVLB  0
046C8:  CALL   2E58
046CC:  MOVFF  02,4E0
046D0:  MOVFF  01,4DF
....................    V1=Filtro_Downflow_adc;  
046D4:  MOVFF  4E0,61B
046D8:  MOVFF  4DF,61A
046DC:  CALL   18BE
046E0:  MOVFF  03,5C8
046E4:  MOVFF  02,5C7
046E8:  MOVFF  01,5C6
046EC:  MOVFF  00,5C5
....................    //V1 = (x_uno*5.0)/1023.0;   //Lectura de Divisor de Voltaje de PT100 con resistencia de 1k (+-10%) 
....................    Presion=(V1/G)-1.0;// Presion=(Voltaje/Ganancia)-1 
046F0:  MOVFF  5C8,619
046F4:  MOVFF  5C7,618
046F8:  MOVFF  5C6,617
046FC:  MOVFF  5C5,616
04700:  MOVFF  5D0,61D
04704:  MOVFF  5CF,61C
04708:  MOVFF  5CE,61B
0470C:  MOVFF  5CD,61A
04710:  CALL   18F4
04714:  MOVFF  00,5EA
04718:  MOVFF  01,5EB
0471C:  MOVFF  02,5EC
04720:  MOVFF  03,5ED
04724:  BSF    FD8.1
04726:  MOVFF  03,61D
0472A:  MOVFF  02,61C
0472E:  MOVFF  01,61B
04732:  MOVFF  00,61A
04736:  MOVLB  6
04738:  CLRF   x21
0473A:  CLRF   x20
0473C:  CLRF   x1F
0473E:  MOVLW  7F
04740:  MOVWF  x1E
04742:  MOVLB  0
04744:  CALL   1A52
04748:  MOVFF  03,5CC
0474C:  MOVFF  02,5CB
04750:  MOVFF  01,5CA
04754:  MOVFF  00,5C9
....................     
....................    if(Presion<0.0) 
04758:  MOVFF  5CC,619
0475C:  MOVFF  5CB,618
04760:  MOVFF  5CA,617
04764:  MOVFF  5C9,616
04768:  MOVLB  6
0476A:  CLRF   x1D
0476C:  CLRF   x1C
0476E:  CLRF   x1B
04770:  CLRF   x1A
04772:  MOVLB  0
04774:  CALL   2452
04778:  BNC   4784
....................    { 
....................       Presion=0.0; 
0477A:  MOVLB  5
0477C:  CLRF   xCC
0477E:  CLRF   xCB
04780:  CLRF   xCA
04782:  CLRF   xC9
....................    } 
....................  
....................    if(r>media-1) 
04784:  MOVLW  01
04786:  MOVLB  5
04788:  SUBWF  xE5,W
0478A:  MOVLB  4
0478C:  SUBWF  xD7,W
0478E:  BZ    4794
04790:  BNC   4794
....................    {r=0;} 
04792:  CLRF   xD7
....................    PromPresion[r]=Presion*4.02;r++; 
04794:  MOVF   xD7,W
04796:  MULLW  04
04798:  MOVF   FF3,W
0479A:  CLRF   03
0479C:  ADDLW  99
0479E:  MOVWF  FE9
047A0:  MOVLW  05
047A2:  ADDWFC 03,W
047A4:  MOVWF  FEA
047A6:  MOVFF  5CC,619
047AA:  MOVFF  5CB,618
047AE:  MOVFF  5CA,617
047B2:  MOVFF  5C9,616
047B6:  MOVLW  D7
047B8:  MOVLB  6
047BA:  MOVWF  x1D
047BC:  MOVLW  A3
047BE:  MOVWF  x1C
047C0:  CLRF   x1B
047C2:  MOVLW  81
047C4:  MOVWF  x1A
047C6:  MOVLB  0
047C8:  CALL   2ED2
047CC:  MOVFF  00,FEF
047D0:  MOVFF  01,FEC
047D4:  MOVFF  02,FEC
047D8:  MOVFF  03,FEC
047DC:  MOVLB  4
047DE:  INCF   xD7,F
....................           
....................    for(q=0;q<=(media-1);q++) 
047E0:  CLRF   xD6
047E2:  MOVLW  01
047E4:  MOVLB  5
047E6:  SUBWF  xE5,W
047E8:  MOVLB  4
047EA:  SUBWF  xD6,W
047EC:  BZ    47F0
047EE:  BC    4860
....................    { 
....................       promediopresion+=PromPresion[q]; 
047F0:  MOVF   xD6,W
047F2:  MULLW  04
047F4:  MOVF   FF3,W
047F6:  CLRF   03
047F8:  ADDLW  99
047FA:  MOVWF  FE9
047FC:  MOVLW  05
047FE:  ADDWFC 03,W
04800:  MOVWF  FEA
04802:  MOVFF  FEF,00
04806:  MOVFF  FEC,01
0480A:  MOVFF  FEC,02
0480E:  MOVFF  FEC,03
04812:  MOVFF  FEA,5EB
04816:  MOVFF  FE9,5EA
0481A:  BCF    FD8.1
0481C:  MOVFF  5E9,61D
04820:  MOVFF  5E8,61C
04824:  MOVFF  5E7,61B
04828:  MOVFF  5E6,61A
0482C:  MOVFF  03,621
04830:  MOVFF  02,620
04834:  MOVFF  01,61F
04838:  MOVFF  00,61E
0483C:  MOVLB  0
0483E:  CALL   1A52
04842:  MOVFF  5EB,FEA
04846:  MOVFF  5EA,FE9
0484A:  MOVFF  03,5E9
0484E:  MOVFF  02,5E8
04852:  MOVFF  01,5E7
04856:  MOVFF  00,5E6
....................    }  
0485A:  MOVLB  4
0485C:  INCF   xD6,F
0485E:  BRA    47E2
....................    promediopresion=promediopresion/media;    
04860:  MOVLB  6
04862:  CLRF   x1B
04864:  MOVFF  5E5,61A
04868:  MOVLB  0
0486A:  CALL   18BE
0486E:  MOVFF  5E9,619
04872:  MOVFF  5E8,618
04876:  MOVFF  5E7,617
0487A:  MOVFF  5E6,616
0487E:  MOVFF  03,61D
04882:  MOVFF  02,61C
04886:  MOVFF  01,61B
0488A:  MOVFF  00,61A
0488E:  CALL   18F4
04892:  MOVFF  03,5E9
04896:  MOVFF  02,5E8
0489A:  MOVFF  01,5E7
0489E:  MOVFF  00,5E6
....................     
....................    return promediopresion*Ajuste2; 
048A2:  MOVFF  5E9,619
048A6:  MOVFF  5E8,618
048AA:  MOVFF  5E7,617
048AE:  MOVFF  5E6,616
048B2:  MOVFF  540,61D
048B6:  MOVFF  53F,61C
048BA:  MOVFF  53E,61B
048BE:  MOVFF  53D,61A
048C2:  CALL   2ED2
.................... } 
048C6:  GOTO   6628 (RETURN)
....................  
.................... float leeTemperatura(int8 media){ 
*
044E8:  MOVLB  5
044EA:  CLRF   xE9
044EC:  CLRF   xE8
044EE:  CLRF   xE7
044F0:  CLRF   xE6
044F2:  CLRF   xED
044F4:  CLRF   xEC
044F6:  CLRF   xEB
044F8:  CLRF   xEA
044FA:  CLRF   xF1
044FC:  CLRF   xF0
044FE:  CLRF   xEF
04500:  CLRF   xEE
04502:  CLRF   xF5
04504:  CLRF   xF4
04506:  CLRF   xF3
04508:  CLRF   xF2
....................    float ADC=0,V=0,T=0,Tempera=0; 
....................    ADC=sensores(0); 
0450A:  CLRF   xF6
0450C:  MOVLB  0
0450E:  CALL   2E58
04512:  MOVFF  02,61B
04516:  MOVFF  01,61A
0451A:  CALL   18BE
0451E:  MOVFF  03,5E9
04522:  MOVFF  02,5E8
04526:  MOVFF  01,5E7
0452A:  MOVFF  00,5E6
....................    V=5*ADC/1023; 
0452E:  MOVLB  6
04530:  CLRF   x19
04532:  CLRF   x18
04534:  MOVLW  20
04536:  MOVWF  x17
04538:  MOVLW  81
0453A:  MOVWF  x16
0453C:  MOVFF  5E9,61D
04540:  MOVFF  5E8,61C
04544:  MOVFF  5E7,61B
04548:  MOVFF  5E6,61A
0454C:  MOVLB  0
0454E:  CALL   2ED2
04552:  MOVFF  00,5F6
04556:  MOVFF  01,5F7
0455A:  MOVFF  02,5F8
0455E:  MOVFF  03,5F9
04562:  MOVFF  03,619
04566:  MOVFF  02,618
0456A:  MOVFF  01,617
0456E:  MOVFF  00,616
04572:  MOVLB  6
04574:  CLRF   x1D
04576:  MOVLW  C0
04578:  MOVWF  x1C
0457A:  MOVLW  7F
0457C:  MOVWF  x1B
0457E:  MOVLW  88
04580:  MOVWF  x1A
04582:  MOVLB  0
04584:  CALL   18F4
04588:  MOVFF  03,5ED
0458C:  MOVFF  02,5EC
04590:  MOVFF  01,5EB
04594:  MOVFF  00,5EA
....................    T=V/0.01; 
04598:  MOVFF  5ED,619
0459C:  MOVFF  5EC,618
045A0:  MOVFF  5EB,617
045A4:  MOVFF  5EA,616
045A8:  MOVLW  0A
045AA:  MOVLB  6
045AC:  MOVWF  x1D
045AE:  MOVLW  D7
045B0:  MOVWF  x1C
045B2:  MOVLW  23
045B4:  MOVWF  x1B
045B6:  MOVLW  78
045B8:  MOVWF  x1A
045BA:  MOVLB  0
045BC:  CALL   18F4
045C0:  MOVFF  03,5F1
045C4:  MOVFF  02,5F0
045C8:  MOVFF  01,5EF
045CC:  MOVFF  00,5EE
....................    if(l2>media) 
045D0:  MOVLB  5
045D2:  MOVF   xD6,W
045D4:  SUBWF  xE5,W
045D6:  BC    45DA
....................       l2=0; 
045D8:  CLRF   xD6
....................        
....................    promedio2[l2]=T;l2++; 
045DA:  MOVF   xD6,W
045DC:  MULLW  04
045DE:  MOVF   FF3,W
045E0:  CLRF   03
045E2:  ADDLW  79
045E4:  MOVWF  FE9
045E6:  MOVLW  05
045E8:  ADDWFC 03,W
045EA:  MOVWF  FEA
045EC:  MOVFF  5EE,FEF
045F0:  MOVFF  5EF,FEC
045F4:  MOVFF  5F0,FEC
045F8:  MOVFF  5F1,FEC
045FC:  INCF   xD6,F
....................    Tempera=0; 
045FE:  CLRF   xF5
04600:  CLRF   xF4
04602:  CLRF   xF3
04604:  CLRF   xF2
....................       
....................      for(h2=0;h2<=(media-1);h2++){ 
04606:  CLRF   xD7
04608:  MOVLW  01
0460A:  SUBWF  xE5,W
0460C:  SUBWF  xD7,W
0460E:  BZ    4612
04610:  BC    4682
....................         Tempera+=promedio2[h2]; 
04612:  MOVF   xD7,W
04614:  MULLW  04
04616:  MOVF   FF3,W
04618:  CLRF   03
0461A:  ADDLW  79
0461C:  MOVWF  FE9
0461E:  MOVLW  05
04620:  ADDWFC 03,W
04622:  MOVWF  FEA
04624:  MOVFF  FEF,00
04628:  MOVFF  FEC,01
0462C:  MOVFF  FEC,02
04630:  MOVFF  FEC,03
04634:  MOVFF  FEA,5F7
04638:  MOVFF  FE9,5F6
0463C:  BCF    FD8.1
0463E:  MOVFF  5F5,61D
04642:  MOVFF  5F4,61C
04646:  MOVFF  5F3,61B
0464A:  MOVFF  5F2,61A
0464E:  MOVFF  03,621
04652:  MOVFF  02,620
04656:  MOVFF  01,61F
0465A:  MOVFF  00,61E
0465E:  MOVLB  0
04660:  CALL   1A52
04664:  MOVFF  5F7,FEA
04668:  MOVFF  5F6,FE9
0466C:  MOVFF  03,5F5
04670:  MOVFF  02,5F4
04674:  MOVFF  01,5F3
04678:  MOVFF  00,5F2
....................      }       
0467C:  MOVLB  5
0467E:  INCF   xD7,F
04680:  BRA    4608
....................    return Tempera/media; 
04682:  MOVLB  6
04684:  CLRF   x1B
04686:  MOVFF  5E5,61A
0468A:  MOVLB  0
0468C:  CALL   18BE
04690:  MOVFF  5F5,619
04694:  MOVFF  5F4,618
04698:  MOVFF  5F3,617
0469C:  MOVFF  5F2,616
046A0:  MOVFF  03,61D
046A4:  MOVFF  02,61C
046A8:  MOVFF  01,61B
046AC:  MOVFF  00,61A
046B0:  CALL   18F4
.................... } 
046B4:  GOTO   6604 (RETURN)
....................  
.................... void LeeEEPROM(void){ 
....................    Password[0]=read_eeprom(0); 
*
01CCA:  MOVFF  FF2,5E5
01CCE:  BCF    FF2.7
01CD0:  CLRF   FAA
01CD2:  CLRF   FA9
01CD4:  BCF    FA6.6
01CD6:  BCF    FA6.7
01CD8:  BSF    FA6.0
01CDA:  MOVF   FA8,W
01CDC:  MOVLB  5
01CDE:  BTFSC  xE5.7
01CE0:  BSF    FF2.7
01CE2:  MOVWF  x0D
....................    delay_ms(10); 
01CE4:  MOVLW  0A
01CE6:  MOVWF  xF9
01CE8:  MOVLB  0
01CEA:  CALL   1394
....................    Password[1]=read_eeprom(1); 
01CEE:  MOVFF  FF2,5E5
01CF2:  BCF    FF2.7
01CF4:  CLRF   FAA
01CF6:  MOVLW  01
01CF8:  MOVWF  FA9
01CFA:  BCF    FA6.6
01CFC:  BCF    FA6.7
01CFE:  BSF    FA6.0
01D00:  MOVF   FA8,W
01D02:  MOVLB  5
01D04:  BTFSC  xE5.7
01D06:  BSF    FF2.7
01D08:  MOVWF  x0E
....................    delay_ms(10); 
01D0A:  MOVLW  0A
01D0C:  MOVWF  xF9
01D0E:  MOVLB  0
01D10:  CALL   1394
....................    Password[2]=read_eeprom(2); 
01D14:  MOVFF  FF2,5E5
01D18:  BCF    FF2.7
01D1A:  CLRF   FAA
01D1C:  MOVLW  02
01D1E:  MOVWF  FA9
01D20:  BCF    FA6.6
01D22:  BCF    FA6.7
01D24:  BSF    FA6.0
01D26:  MOVF   FA8,W
01D28:  MOVLB  5
01D2A:  BTFSC  xE5.7
01D2C:  BSF    FF2.7
01D2E:  MOVWF  x0F
....................    delay_ms(10); 
01D30:  MOVLW  0A
01D32:  MOVWF  xF9
01D34:  MOVLB  0
01D36:  CALL   1394
....................    Password[3]=read_eeprom(3); 
01D3A:  MOVFF  FF2,5E5
01D3E:  BCF    FF2.7
01D40:  CLRF   FAA
01D42:  MOVLW  03
01D44:  MOVWF  FA9
01D46:  BCF    FA6.6
01D48:  BCF    FA6.7
01D4A:  BSF    FA6.0
01D4C:  MOVF   FA8,W
01D4E:  MOVLB  5
01D50:  BTFSC  xE5.7
01D52:  BSF    FF2.7
01D54:  MOVWF  x10
....................    delay_ms(10); 
01D56:  MOVLW  0A
01D58:  MOVWF  xF9
01D5A:  MOVLB  0
01D5C:  CALL   1394
....................    Tpurgap[0]=read_eeprom(4); 
01D60:  MOVFF  FF2,5E5
01D64:  BCF    FF2.7
01D66:  CLRF   FAA
01D68:  MOVLW  04
01D6A:  MOVWF  FA9
01D6C:  BCF    FA6.6
01D6E:  BCF    FA6.7
01D70:  BSF    FA6.0
01D72:  MOVF   FA8,W
01D74:  MOVLB  5
01D76:  BTFSC  xE5.7
01D78:  BSF    FF2.7
01D7A:  MOVLB  4
01D7C:  MOVWF  xF1
....................    delay_ms(10); 
01D7E:  MOVLW  0A
01D80:  MOVLB  5
01D82:  MOVWF  xF9
01D84:  MOVLB  0
01D86:  CALL   1394
....................    Tpurgap[1]=read_eeprom(5); 
01D8A:  MOVFF  FF2,5E5
01D8E:  BCF    FF2.7
01D90:  CLRF   FAA
01D92:  MOVLW  05
01D94:  MOVWF  FA9
01D96:  BCF    FA6.6
01D98:  BCF    FA6.7
01D9A:  BSF    FA6.0
01D9C:  MOVF   FA8,W
01D9E:  MOVLB  5
01DA0:  BTFSC  xE5.7
01DA2:  BSF    FF2.7
01DA4:  MOVLB  4
01DA6:  MOVWF  xF2
....................    delay_ms(10); 
01DA8:  MOVLW  0A
01DAA:  MOVLB  5
01DAC:  MOVWF  xF9
01DAE:  MOVLB  0
01DB0:  CALL   1394
....................    Tpurgap[2]=read_eeprom(6); 
01DB4:  MOVFF  FF2,5E5
01DB8:  BCF    FF2.7
01DBA:  CLRF   FAA
01DBC:  MOVLW  06
01DBE:  MOVWF  FA9
01DC0:  BCF    FA6.6
01DC2:  BCF    FA6.7
01DC4:  BSF    FA6.0
01DC6:  MOVF   FA8,W
01DC8:  MOVLB  5
01DCA:  BTFSC  xE5.7
01DCC:  BSF    FF2.7
01DCE:  MOVLB  4
01DD0:  MOVWF  xF3
....................    delay_ms(10); 
01DD2:  MOVLW  0A
01DD4:  MOVLB  5
01DD6:  MOVWF  xF9
01DD8:  MOVLB  0
01DDA:  CALL   1394
....................    Tpurgap[3]=read_eeprom(7); 
01DDE:  MOVFF  FF2,5E5
01DE2:  BCF    FF2.7
01DE4:  CLRF   FAA
01DE6:  MOVLW  07
01DE8:  MOVWF  FA9
01DEA:  BCF    FA6.6
01DEC:  BCF    FA6.7
01DEE:  BSF    FA6.0
01DF0:  MOVF   FA8,W
01DF2:  MOVLB  5
01DF4:  BTFSC  xE5.7
01DF6:  BSF    FF2.7
01DF8:  MOVLB  4
01DFA:  MOVWF  xF4
....................    delay_ms(10); 
01DFC:  MOVLW  0A
01DFE:  MOVLB  5
01E00:  MOVWF  xF9
01E02:  MOVLB  0
01E04:  CALL   1394
....................    Tppurgap[0]=read_eeprom(8); 
01E08:  MOVFF  FF2,5E5
01E0C:  BCF    FF2.7
01E0E:  CLRF   FAA
01E10:  MOVLW  08
01E12:  MOVWF  FA9
01E14:  BCF    FA6.6
01E16:  BCF    FA6.7
01E18:  BSF    FA6.0
01E1A:  MOVF   FA8,W
01E1C:  MOVLB  5
01E1E:  BTFSC  xE5.7
01E20:  BSF    FF2.7
01E22:  MOVLB  4
01E24:  MOVWF  xF5
....................    delay_ms(10); 
01E26:  MOVLW  0A
01E28:  MOVLB  5
01E2A:  MOVWF  xF9
01E2C:  MOVLB  0
01E2E:  CALL   1394
....................    Tppurgap[1]=read_eeprom(9); 
01E32:  MOVFF  FF2,5E5
01E36:  BCF    FF2.7
01E38:  CLRF   FAA
01E3A:  MOVLW  09
01E3C:  MOVWF  FA9
01E3E:  BCF    FA6.6
01E40:  BCF    FA6.7
01E42:  BSF    FA6.0
01E44:  MOVF   FA8,W
01E46:  MOVLB  5
01E48:  BTFSC  xE5.7
01E4A:  BSF    FF2.7
01E4C:  MOVLB  4
01E4E:  MOVWF  xF6
....................    delay_ms(10); 
01E50:  MOVLW  0A
01E52:  MOVLB  5
01E54:  MOVWF  xF9
01E56:  MOVLB  0
01E58:  CALL   1394
....................    Tppurgap[2]=read_eeprom(10); 
01E5C:  MOVFF  FF2,5E5
01E60:  BCF    FF2.7
01E62:  CLRF   FAA
01E64:  MOVLW  0A
01E66:  MOVWF  FA9
01E68:  BCF    FA6.6
01E6A:  BCF    FA6.7
01E6C:  BSF    FA6.0
01E6E:  MOVF   FA8,W
01E70:  MOVLB  5
01E72:  BTFSC  xE5.7
01E74:  BSF    FF2.7
01E76:  MOVLB  4
01E78:  MOVWF  xF7
....................    delay_ms(10); 
01E7A:  MOVLW  0A
01E7C:  MOVLB  5
01E7E:  MOVWF  xF9
01E80:  MOVLB  0
01E82:  CALL   1394
....................    Tppurgap[3]=read_eeprom(11); 
01E86:  MOVFF  FF2,5E5
01E8A:  BCF    FF2.7
01E8C:  CLRF   FAA
01E8E:  MOVLW  0B
01E90:  MOVWF  FA9
01E92:  BCF    FA6.6
01E94:  BCF    FA6.7
01E96:  BSF    FA6.0
01E98:  MOVF   FA8,W
01E9A:  MOVLB  5
01E9C:  BTFSC  xE5.7
01E9E:  BSF    FF2.7
01EA0:  MOVLB  4
01EA2:  MOVWF  xF8
....................    delay_ms(10); 
01EA4:  MOVLW  0A
01EA6:  MOVLB  5
01EA8:  MOVWF  xF9
01EAA:  MOVLB  0
01EAC:  CALL   1394
....................    Tuv[0]=read_eeprom(12); 
01EB0:  MOVFF  FF2,5E5
01EB4:  BCF    FF2.7
01EB6:  CLRF   FAA
01EB8:  MOVLW  0C
01EBA:  MOVWF  FA9
01EBC:  BCF    FA6.6
01EBE:  BCF    FA6.7
01EC0:  BSF    FA6.0
01EC2:  MOVF   FA8,W
01EC4:  MOVLB  5
01EC6:  BTFSC  xE5.7
01EC8:  BSF    FF2.7
01ECA:  MOVLB  4
01ECC:  MOVWF  xF9
....................    delay_ms(10); 
01ECE:  MOVLW  0A
01ED0:  MOVLB  5
01ED2:  MOVWF  xF9
01ED4:  MOVLB  0
01ED6:  CALL   1394
....................    Tuv[1]=read_eeprom(13); 
01EDA:  MOVFF  FF2,5E5
01EDE:  BCF    FF2.7
01EE0:  CLRF   FAA
01EE2:  MOVLW  0D
01EE4:  MOVWF  FA9
01EE6:  BCF    FA6.6
01EE8:  BCF    FA6.7
01EEA:  BSF    FA6.0
01EEC:  MOVF   FA8,W
01EEE:  MOVLB  5
01EF0:  BTFSC  xE5.7
01EF2:  BSF    FF2.7
01EF4:  MOVLB  4
01EF6:  MOVWF  xFA
....................    delay_ms(10); 
01EF8:  MOVLW  0A
01EFA:  MOVLB  5
01EFC:  MOVWF  xF9
01EFE:  MOVLB  0
01F00:  CALL   1394
....................    Tuv[2]=read_eeprom(14); 
01F04:  MOVFF  FF2,5E5
01F08:  BCF    FF2.7
01F0A:  CLRF   FAA
01F0C:  MOVLW  0E
01F0E:  MOVWF  FA9
01F10:  BCF    FA6.6
01F12:  BCF    FA6.7
01F14:  BSF    FA6.0
01F16:  MOVF   FA8,W
01F18:  MOVLB  5
01F1A:  BTFSC  xE5.7
01F1C:  BSF    FF2.7
01F1E:  MOVLB  4
01F20:  MOVWF  xFB
....................    delay_ms(10); 
01F22:  MOVLW  0A
01F24:  MOVLB  5
01F26:  MOVWF  xF9
01F28:  MOVLB  0
01F2A:  CALL   1394
....................    Tuv[3]=read_eeprom(15); 
01F2E:  MOVFF  FF2,5E5
01F32:  BCF    FF2.7
01F34:  CLRF   FAA
01F36:  MOVLW  0F
01F38:  MOVWF  FA9
01F3A:  BCF    FA6.6
01F3C:  BCF    FA6.7
01F3E:  BSF    FA6.0
01F40:  MOVF   FA8,W
01F42:  MOVLB  5
01F44:  BTFSC  xE5.7
01F46:  BSF    FF2.7
01F48:  MOVLB  4
01F4A:  MOVWF  xFC
....................    delay_ms(10); 
01F4C:  MOVLW  0A
01F4E:  MOVLB  5
01F50:  MOVWF  xF9
01F52:  MOVLB  0
01F54:  CALL   1394
....................    Ttrabajo[0]=read_eeprom(16); 
01F58:  MOVFF  FF2,5E5
01F5C:  BCF    FF2.7
01F5E:  CLRF   FAA
01F60:  MOVLW  10
01F62:  MOVWF  FA9
01F64:  BCF    FA6.6
01F66:  BCF    FA6.7
01F68:  BSF    FA6.0
01F6A:  MOVF   FA8,W
01F6C:  MOVLB  5
01F6E:  BTFSC  xE5.7
01F70:  BSF    FF2.7
01F72:  MOVWF  x05
....................    delay_ms(10); 
01F74:  MOVLW  0A
01F76:  MOVWF  xF9
01F78:  MOVLB  0
01F7A:  CALL   1394
....................    Ttrabajo[1]=read_eeprom(17); 
01F7E:  MOVFF  FF2,5E5
01F82:  BCF    FF2.7
01F84:  CLRF   FAA
01F86:  MOVLW  11
01F88:  MOVWF  FA9
01F8A:  BCF    FA6.6
01F8C:  BCF    FA6.7
01F8E:  BSF    FA6.0
01F90:  MOVF   FA8,W
01F92:  MOVLB  5
01F94:  BTFSC  xE5.7
01F96:  BSF    FF2.7
01F98:  MOVWF  x06
....................    delay_ms(10); 
01F9A:  MOVLW  0A
01F9C:  MOVWF  xF9
01F9E:  MOVLB  0
01FA0:  CALL   1394
....................    Ttrabajo[2]=read_eeprom(18); 
01FA4:  MOVFF  FF2,5E5
01FA8:  BCF    FF2.7
01FAA:  CLRF   FAA
01FAC:  MOVLW  12
01FAE:  MOVWF  FA9
01FB0:  BCF    FA6.6
01FB2:  BCF    FA6.7
01FB4:  BSF    FA6.0
01FB6:  MOVF   FA8,W
01FB8:  MOVLB  5
01FBA:  BTFSC  xE5.7
01FBC:  BSF    FF2.7
01FBE:  MOVWF  x07
....................    delay_ms(10); 
01FC0:  MOVLW  0A
01FC2:  MOVWF  xF9
01FC4:  MOVLB  0
01FC6:  CALL   1394
....................    Ttrabajo[3]=read_eeprom(19); 
01FCA:  MOVFF  FF2,5E5
01FCE:  BCF    FF2.7
01FD0:  CLRF   FAA
01FD2:  MOVLW  13
01FD4:  MOVWF  FA9
01FD6:  BCF    FA6.6
01FD8:  BCF    FA6.7
01FDA:  BSF    FA6.0
01FDC:  MOVF   FA8,W
01FDE:  MOVLB  5
01FE0:  BTFSC  xE5.7
01FE2:  BSF    FF2.7
01FE4:  MOVWF  x08
....................    delay_ms(10); 
01FE6:  MOVLW  0A
01FE8:  MOVWF  xF9
01FEA:  MOVLB  0
01FEC:  CALL   1394
....................    //flag_alarma=read_eeprom(20); 
....................    //delay_ms(10); 
....................    Tempouvp[0]=read_eeprom(21); 
01FF0:  MOVFF  FF2,5E5
01FF4:  BCF    FF2.7
01FF6:  CLRF   FAA
01FF8:  MOVLW  15
01FFA:  MOVWF  FA9
01FFC:  BCF    FA6.6
01FFE:  BCF    FA6.7
02000:  BSF    FA6.0
02002:  MOVF   FA8,W
02004:  MOVLB  5
02006:  BTFSC  xE5.7
02008:  BSF    FF2.7
0200A:  MOVLB  4
0200C:  MOVWF  xFD
....................    delay_ms(10); 
0200E:  MOVLW  0A
02010:  MOVLB  5
02012:  MOVWF  xF9
02014:  MOVLB  0
02016:  CALL   1394
....................    Tempouvp[1]=read_eeprom(22); 
0201A:  MOVFF  FF2,5E5
0201E:  BCF    FF2.7
02020:  CLRF   FAA
02022:  MOVLW  16
02024:  MOVWF  FA9
02026:  BCF    FA6.6
02028:  BCF    FA6.7
0202A:  BSF    FA6.0
0202C:  MOVF   FA8,W
0202E:  MOVLB  5
02030:  BTFSC  xE5.7
02032:  BSF    FF2.7
02034:  MOVLB  4
02036:  MOVWF  xFE
....................    delay_ms(10); 
02038:  MOVLW  0A
0203A:  MOVLB  5
0203C:  MOVWF  xF9
0203E:  MOVLB  0
02040:  CALL   1394
....................    Tempouvp[2]=read_eeprom(23); 
02044:  MOVFF  FF2,5E5
02048:  BCF    FF2.7
0204A:  CLRF   FAA
0204C:  MOVLW  17
0204E:  MOVWF  FA9
02050:  BCF    FA6.6
02052:  BCF    FA6.7
02054:  BSF    FA6.0
02056:  MOVF   FA8,W
02058:  MOVLB  5
0205A:  BTFSC  xE5.7
0205C:  BSF    FF2.7
0205E:  MOVLB  4
02060:  MOVWF  xFF
....................    delay_ms(10); 
02062:  MOVLW  0A
02064:  MOVLB  5
02066:  MOVWF  xF9
02068:  MOVLB  0
0206A:  CALL   1394
....................    Tempouvp[3]=read_eeprom(24); 
0206E:  MOVFF  FF2,5E5
02072:  BCF    FF2.7
02074:  CLRF   FAA
02076:  MOVLW  18
02078:  MOVWF  FA9
0207A:  BCF    FA6.6
0207C:  BCF    FA6.7
0207E:  BSF    FA6.0
02080:  MOVF   FA8,W
02082:  MOVLB  5
02084:  BTFSC  xE5.7
02086:  BSF    FF2.7
02088:  MOVWF  x00
....................     
....................    delay_ms(10); 
0208A:  MOVLW  0A
0208C:  MOVWF  xF9
0208E:  MOVLB  0
02090:  CALL   1394
....................    Entero=read_eeprom(25);//Decimal1=read_eeprom(26); 
02094:  MOVFF  FF2,5E5
02098:  BCF    FF2.7
0209A:  CLRF   FAA
0209C:  MOVLW  19
0209E:  MOVWF  FA9
020A0:  BCF    FA6.6
020A2:  BCF    FA6.7
020A4:  BSF    FA6.0
020A6:  MOVF   FA8,W
020A8:  MOVLB  5
020AA:  BTFSC  xE5.7
020AC:  BSF    FF2.7
020AE:  MOVLB  4
020B0:  MOVWF  xDA
....................    delay_ms(10); 
020B2:  MOVLW  0A
020B4:  MOVLB  5
020B6:  MOVWF  xF9
020B8:  MOVLB  0
020BA:  CALL   1394
....................    Temporal=read_eeprom(26); 
020BE:  MOVFF  FF2,5E5
020C2:  BCF    FF2.7
020C4:  CLRF   FAA
020C6:  MOVLW  1A
020C8:  MOVWF  FA9
020CA:  BCF    FA6.6
020CC:  BCF    FA6.7
020CE:  BSF    FA6.0
020D0:  MOVF   FA8,W
020D2:  MOVLB  5
020D4:  BTFSC  xE5.7
020D6:  BSF    FF2.7
020D8:  MOVLB  6
020DA:  CLRF   x1B
020DC:  MOVWF  x1A
020DE:  MOVLB  0
020E0:  CALL   18BE
020E4:  MOVFF  03,544
020E8:  MOVFF  02,543
020EC:  MOVFF  01,542
020F0:  MOVFF  00,541
....................    delay_ms(10); 
020F4:  MOVLW  0A
020F6:  MOVLB  5
020F8:  MOVWF  xF9
020FA:  MOVLB  0
020FC:  CALL   1394
....................    Temporal=Temporal/10.0; 
02100:  MOVFF  544,619
02104:  MOVFF  543,618
02108:  MOVFF  542,617
0210C:  MOVFF  541,616
02110:  MOVLB  6
02112:  CLRF   x1D
02114:  CLRF   x1C
02116:  MOVLW  20
02118:  MOVWF  x1B
0211A:  MOVLW  82
0211C:  MOVWF  x1A
0211E:  MOVLB  0
02120:  CALL   18F4
02124:  MOVFF  03,544
02128:  MOVFF  02,543
0212C:  MOVFF  01,542
02130:  MOVFF  00,541
....................    Ajuste1=Entero+Temporal; 
02134:  MOVLB  6
02136:  CLRF   x1B
02138:  MOVFF  4DA,61A
0213C:  MOVLB  0
0213E:  CALL   18BE
02142:  BCF    FD8.1
02144:  MOVFF  03,61D
02148:  MOVFF  02,61C
0214C:  MOVFF  01,61B
02150:  MOVFF  00,61A
02154:  MOVFF  544,621
02158:  MOVFF  543,620
0215C:  MOVFF  542,61F
02160:  MOVFF  541,61E
02164:  RCALL  1A52
02166:  MOVFF  03,53C
0216A:  MOVFF  02,53B
0216E:  MOVFF  01,53A
02172:  MOVFF  00,539
....................     
....................     
....................    Entero=read_eeprom(27);//Decimal1=read_eeprom(26); 
02176:  MOVFF  FF2,5E5
0217A:  BCF    FF2.7
0217C:  CLRF   FAA
0217E:  MOVLW  1B
02180:  MOVWF  FA9
02182:  BCF    FA6.6
02184:  BCF    FA6.7
02186:  BSF    FA6.0
02188:  MOVF   FA8,W
0218A:  MOVLB  5
0218C:  BTFSC  xE5.7
0218E:  BSF    FF2.7
02190:  MOVLB  4
02192:  MOVWF  xDA
....................    delay_ms(10); 
02194:  MOVLW  0A
02196:  MOVLB  5
02198:  MOVWF  xF9
0219A:  MOVLB  0
0219C:  CALL   1394
....................    Temporal=read_eeprom(28); 
021A0:  MOVFF  FF2,5E5
021A4:  BCF    FF2.7
021A6:  CLRF   FAA
021A8:  MOVLW  1C
021AA:  MOVWF  FA9
021AC:  BCF    FA6.6
021AE:  BCF    FA6.7
021B0:  BSF    FA6.0
021B2:  MOVF   FA8,W
021B4:  MOVLB  5
021B6:  BTFSC  xE5.7
021B8:  BSF    FF2.7
021BA:  MOVLB  6
021BC:  CLRF   x1B
021BE:  MOVWF  x1A
021C0:  MOVLB  0
021C2:  CALL   18BE
021C6:  MOVFF  03,544
021CA:  MOVFF  02,543
021CE:  MOVFF  01,542
021D2:  MOVFF  00,541
....................    delay_ms(10); 
021D6:  MOVLW  0A
021D8:  MOVLB  5
021DA:  MOVWF  xF9
021DC:  MOVLB  0
021DE:  CALL   1394
....................    Temporal=Temporal/10.0; 
021E2:  MOVFF  544,619
021E6:  MOVFF  543,618
021EA:  MOVFF  542,617
021EE:  MOVFF  541,616
021F2:  MOVLB  6
021F4:  CLRF   x1D
021F6:  CLRF   x1C
021F8:  MOVLW  20
021FA:  MOVWF  x1B
021FC:  MOVLW  82
021FE:  MOVWF  x1A
02200:  MOVLB  0
02202:  CALL   18F4
02206:  MOVFF  03,544
0220A:  MOVFF  02,543
0220E:  MOVFF  01,542
02212:  MOVFF  00,541
....................    Ajuste2=Entero+Temporal; 
02216:  MOVLB  6
02218:  CLRF   x1B
0221A:  MOVFF  4DA,61A
0221E:  MOVLB  0
02220:  CALL   18BE
02224:  BCF    FD8.1
02226:  MOVFF  03,61D
0222A:  MOVFF  02,61C
0222E:  MOVFF  01,61B
02232:  MOVFF  00,61A
02236:  MOVFF  544,621
0223A:  MOVFF  543,620
0223E:  MOVFF  542,61F
02242:  MOVFF  541,61E
02246:  RCALL  1A52
02248:  MOVFF  03,540
0224C:  MOVFF  02,53F
02250:  MOVFF  01,53E
02254:  MOVFF  00,53D
....................     
....................    zero_actual=make16(read_eeprom(30),read_eeprom(29)); 
02258:  MOVFF  FF2,5E5
0225C:  BCF    FF2.7
0225E:  CLRF   FAA
02260:  MOVLW  1E
02262:  MOVWF  FA9
02264:  BCF    FA6.6
02266:  BCF    FA6.7
02268:  BSF    FA6.0
0226A:  MOVF   FA8,W
0226C:  MOVLB  5
0226E:  BTFSC  xE5.7
02270:  BSF    FF2.7
02272:  MOVWF  xE6
02274:  MOVFF  FF2,5E7
02278:  BCF    FF2.7
0227A:  CLRF   FAA
0227C:  MOVLW  1D
0227E:  MOVWF  FA9
02280:  BCF    FA6.6
02282:  BCF    FA6.7
02284:  BSF    FA6.0
02286:  MOVF   FA8,W
02288:  BTFSC  xE7.7
0228A:  BSF    FF2.7
0228C:  MOVWF  xE8
0228E:  MOVFF  5E6,03
02292:  MOVF   xE8,W
02294:  MOVLB  6
02296:  MOVWF  x1A
02298:  MOVFF  03,61B
0229C:  MOVLB  0
0229E:  CALL   18BE
022A2:  MOVFF  03,5C4
022A6:  MOVFF  02,5C3
022AA:  MOVFF  01,5C2
022AE:  MOVFF  00,5C1
....................    delay_ms(10); 
022B2:  MOVLW  0A
022B4:  MOVLB  5
022B6:  MOVWF  xF9
022B8:  MOVLB  0
022BA:  CALL   1394
....................    minutos_trabajo=make16(read_eeprom(34),read_eeprom(33)); 
022BE:  MOVFF  FF2,5E5
022C2:  BCF    FF2.7
022C4:  CLRF   FAA
022C6:  MOVLW  22
022C8:  MOVWF  FA9
022CA:  BCF    FA6.6
022CC:  BCF    FA6.7
022CE:  BSF    FA6.0
022D0:  MOVF   FA8,W
022D2:  MOVLB  5
022D4:  BTFSC  xE5.7
022D6:  BSF    FF2.7
022D8:  MOVWF  xE6
022DA:  MOVFF  FF2,5E7
022DE:  BCF    FF2.7
022E0:  CLRF   FAA
022E2:  MOVLW  21
022E4:  MOVWF  FA9
022E6:  BCF    FA6.6
022E8:  BCF    FA6.7
022EA:  BSF    FA6.0
022EC:  MOVF   FA8,W
022EE:  BTFSC  xE7.7
022F0:  BSF    FF2.7
022F2:  MOVWF  xE8
022F4:  MOVFF  5E6,4EA
022F8:  MOVFF  5E8,4E9
....................    delay_ms(10); 
022FC:  MOVLW  0A
022FE:  MOVWF  xF9
02300:  MOVLB  0
02302:  CALL   1394
....................    minutos_uv=read_eeprom(31); 
02306:  MOVFF  FF2,5E5
0230A:  BCF    FF2.7
0230C:  CLRF   FAA
0230E:  MOVLW  1F
02310:  MOVWF  FA9
02312:  BCF    FA6.6
02314:  BCF    FA6.7
02316:  BSF    FA6.0
02318:  MOVF   FA8,W
0231A:  MOVLB  5
0231C:  BTFSC  xE5.7
0231E:  BSF    FF2.7
02320:  MOVLB  4
02322:  CLRF   xE8
02324:  MOVWF  xE7
....................    delay_ms(10); 
02326:  MOVLW  0A
02328:  MOVLB  5
0232A:  MOVWF  xF9
0232C:  MOVLB  0
0232E:  CALL   1394
....................    VelMotor=read_eeprom(32); 
02332:  MOVFF  FF2,5E5
02336:  BCF    FF2.7
02338:  CLRF   FAA
0233A:  MOVLW  20
0233C:  MOVWF  FA9
0233E:  BCF    FA6.6
02340:  BCF    FA6.7
02342:  BSF    FA6.0
02344:  MOVF   FA8,W
02346:  MOVLB  5
02348:  BTFSC  xE5.7
0234A:  BSF    FF2.7
0234C:  MOVWF  xDC
....................    delay_ms(10); 
0234E:  MOVLW  0A
02350:  MOVWF  xF9
02352:  MOVLB  0
02354:  CALL   1394
....................     
....................    Diferencia=make16(read_eeprom(61),read_eeprom(60)); 
02358:  MOVFF  FF2,5E5
0235C:  BCF    FF2.7
0235E:  CLRF   FAA
02360:  MOVLW  3D
02362:  MOVWF  FA9
02364:  BCF    FA6.6
02366:  BCF    FA6.7
02368:  BSF    FA6.0
0236A:  MOVF   FA8,W
0236C:  MOVLB  5
0236E:  BTFSC  xE5.7
02370:  BSF    FF2.7
02372:  MOVWF  xE6
02374:  MOVFF  FF2,5E7
02378:  BCF    FF2.7
0237A:  CLRF   FAA
0237C:  MOVLW  3C
0237E:  MOVWF  FA9
02380:  BCF    FA6.6
02382:  BCF    FA6.7
02384:  BSF    FA6.0
02386:  MOVF   FA8,W
02388:  BTFSC  xE7.7
0238A:  BSF    FF2.7
0238C:  MOVWF  xE8
0238E:  MOVFF  5E6,03
02392:  MOVF   xE8,W
02394:  MOVLB  6
02396:  MOVWF  x1A
02398:  MOVFF  03,61B
0239C:  MOVLB  0
0239E:  CALL   18BE
023A2:  MOVFF  03,520
023A6:  MOVFF  02,51F
023AA:  MOVFF  01,51E
023AE:  MOVFF  00,51D
....................    delay_ms(10); 
023B2:  MOVLW  0A
023B4:  MOVLB  5
023B6:  MOVWF  xF9
023B8:  MOVLB  0
023BA:  CALL   1394
....................    G=make16(read_eeprom(63),read_eeprom(62)); 
023BE:  MOVFF  FF2,5E5
023C2:  BCF    FF2.7
023C4:  CLRF   FAA
023C6:  MOVLW  3F
023C8:  MOVWF  FA9
023CA:  BCF    FA6.6
023CC:  BCF    FA6.7
023CE:  BSF    FA6.0
023D0:  MOVF   FA8,W
023D2:  MOVLB  5
023D4:  BTFSC  xE5.7
023D6:  BSF    FF2.7
023D8:  MOVWF  xE6
023DA:  MOVFF  FF2,5E7
023DE:  BCF    FF2.7
023E0:  CLRF   FAA
023E2:  MOVLW  3E
023E4:  MOVWF  FA9
023E6:  BCF    FA6.6
023E8:  BCF    FA6.7
023EA:  BSF    FA6.0
023EC:  MOVF   FA8,W
023EE:  BTFSC  xE7.7
023F0:  BSF    FF2.7
023F2:  MOVWF  xE8
023F4:  MOVFF  5E6,03
023F8:  MOVF   xE8,W
023FA:  MOVLB  6
023FC:  MOVWF  x1A
023FE:  MOVFF  03,61B
02402:  MOVLB  0
02404:  CALL   18BE
02408:  MOVFF  03,5D0
0240C:  MOVFF  02,5CF
02410:  MOVFF  01,5CE
02414:  MOVFF  00,5CD
....................    delay_ms(10); 
02418:  MOVLW  0A
0241A:  MOVLB  5
0241C:  MOVWF  xF9
0241E:  MOVLB  0
02420:  CALL   1394
....................    negativo=read_eeprom(50); 
02424:  MOVFF  FF2,5E5
02428:  BCF    FF2.7
0242A:  CLRF   FAA
0242C:  MOVLW  32
0242E:  MOVWF  FA9
02430:  BCF    FA6.6
02432:  BCF    FA6.7
02434:  BSF    FA6.0
02436:  MOVF   FA8,W
02438:  MOVLB  5
0243A:  BTFSC  xE5.7
0243C:  BSF    FF2.7
0243E:  MOVLB  4
02440:  MOVWF  xD2
....................    delay_ms(10); 
02442:  MOVLW  0A
02444:  MOVLB  5
02446:  MOVWF  xF9
02448:  MOVLB  0
0244A:  CALL   1394
....................  
.................... } 
0244E:  GOTO   65CC (RETURN)
....................  
.................... void LimitaValores(void){ 
....................    if(Password[0]>9 || Password[0]<0){ 
*
024CC:  MOVLB  5
024CE:  BTFSC  x0D.7
024D0:  BRA    24D8
024D2:  MOVF   x0D,W
024D4:  SUBLW  09
024D6:  BNC   24DE
024D8:  BTFSC  x0D.7
024DA:  BRA    24DE
024DC:  BRA    250A
....................       Password[0]=0;write_eeprom(0,0); 
024DE:  CLRF   x0D
024E0:  CLRF   FAA
024E2:  CLRF   FA9
024E4:  CLRF   FA8
024E6:  BCF    FA6.6
024E8:  BCF    FA6.7
024EA:  BSF    FA6.2
024EC:  MOVF   FF2,W
024EE:  MOVWF  00
024F0:  BCF    FF2.7
024F2:  MOVLB  F
024F4:  MOVLW  55
024F6:  MOVWF  FA7
024F8:  MOVLW  AA
024FA:  MOVWF  FA7
024FC:  BSF    FA6.1
024FE:  BTFSC  FA6.1
02500:  BRA    24FE
02502:  BCF    FA6.2
02504:  MOVF   00,W
02506:  IORWF  FF2,F
02508:  MOVLB  5
....................    } 
....................    if(Password[1]>9 || Password[1]<0){ 
0250A:  BTFSC  x0E.7
0250C:  BRA    2514
0250E:  MOVF   x0E,W
02510:  SUBLW  09
02512:  BNC   251A
02514:  BTFSC  x0E.7
02516:  BRA    251A
02518:  BRA    2548
....................       Password[1]=0;write_eeprom(1,0); 
0251A:  CLRF   x0E
0251C:  CLRF   FAA
0251E:  MOVLW  01
02520:  MOVWF  FA9
02522:  CLRF   FA8
02524:  BCF    FA6.6
02526:  BCF    FA6.7
02528:  BSF    FA6.2
0252A:  MOVF   FF2,W
0252C:  MOVWF  00
0252E:  BCF    FF2.7
02530:  MOVLB  F
02532:  MOVLW  55
02534:  MOVWF  FA7
02536:  MOVLW  AA
02538:  MOVWF  FA7
0253A:  BSF    FA6.1
0253C:  BTFSC  FA6.1
0253E:  BRA    253C
02540:  BCF    FA6.2
02542:  MOVF   00,W
02544:  IORWF  FF2,F
02546:  MOVLB  5
....................    } 
....................    if(Password[2]>9 || Password[2]<0){ 
02548:  BTFSC  x0F.7
0254A:  BRA    2552
0254C:  MOVF   x0F,W
0254E:  SUBLW  09
02550:  BNC   2558
02552:  BTFSC  x0F.7
02554:  BRA    2558
02556:  BRA    2586
....................       Password[2]=0;write_eeprom(2,0); 
02558:  CLRF   x0F
0255A:  CLRF   FAA
0255C:  MOVLW  02
0255E:  MOVWF  FA9
02560:  CLRF   FA8
02562:  BCF    FA6.6
02564:  BCF    FA6.7
02566:  BSF    FA6.2
02568:  MOVF   FF2,W
0256A:  MOVWF  00
0256C:  BCF    FF2.7
0256E:  MOVLB  F
02570:  MOVLW  55
02572:  MOVWF  FA7
02574:  MOVLW  AA
02576:  MOVWF  FA7
02578:  BSF    FA6.1
0257A:  BTFSC  FA6.1
0257C:  BRA    257A
0257E:  BCF    FA6.2
02580:  MOVF   00,W
02582:  IORWF  FF2,F
02584:  MOVLB  5
....................    } 
....................    if(Password[3]>9 || Password[3]<0){ 
02586:  BTFSC  x10.7
02588:  BRA    2590
0258A:  MOVF   x10,W
0258C:  SUBLW  09
0258E:  BNC   2596
02590:  BTFSC  x10.7
02592:  BRA    2596
02594:  BRA    25C2
....................       Password[3]=0;write_eeprom(3,0); 
02596:  CLRF   x10
02598:  CLRF   FAA
0259A:  MOVLW  03
0259C:  MOVWF  FA9
0259E:  CLRF   FA8
025A0:  BCF    FA6.6
025A2:  BCF    FA6.7
025A4:  BSF    FA6.2
025A6:  MOVF   FF2,W
025A8:  MOVWF  00
025AA:  BCF    FF2.7
025AC:  MOVLB  F
025AE:  MOVLW  55
025B0:  MOVWF  FA7
025B2:  MOVLW  AA
025B4:  MOVWF  FA7
025B6:  BSF    FA6.1
025B8:  BTFSC  FA6.1
025BA:  BRA    25B8
025BC:  BCF    FA6.2
025BE:  MOVF   00,W
025C0:  IORWF  FF2,F
....................    } 
....................    if(Tpurgap[0]>9 || Tpurgap[0]<0){ 
025C2:  MOVLB  4
025C4:  BTFSC  xF1.7
025C6:  BRA    25CE
025C8:  MOVF   xF1,W
025CA:  SUBLW  09
025CC:  BNC   25D4
025CE:  BTFSC  xF1.7
025D0:  BRA    25D4
025D2:  BRA    2602
....................       Tpurgap[0]=0;write_eeprom(4,0); 
025D4:  CLRF   xF1
025D6:  CLRF   FAA
025D8:  MOVLW  04
025DA:  MOVWF  FA9
025DC:  CLRF   FA8
025DE:  BCF    FA6.6
025E0:  BCF    FA6.7
025E2:  BSF    FA6.2
025E4:  MOVF   FF2,W
025E6:  MOVWF  00
025E8:  BCF    FF2.7
025EA:  MOVLB  F
025EC:  MOVLW  55
025EE:  MOVWF  FA7
025F0:  MOVLW  AA
025F2:  MOVWF  FA7
025F4:  BSF    FA6.1
025F6:  BTFSC  FA6.1
025F8:  BRA    25F6
025FA:  BCF    FA6.2
025FC:  MOVF   00,W
025FE:  IORWF  FF2,F
02600:  MOVLB  4
....................    } 
....................    if(Tpurgap[1]>9 || Tpurgap[1]<0){ 
02602:  BTFSC  xF2.7
02604:  BRA    260C
02606:  MOVF   xF2,W
02608:  SUBLW  09
0260A:  BNC   2612
0260C:  BTFSC  xF2.7
0260E:  BRA    2612
02610:  BRA    2640
....................       Tpurgap[1]=0;write_eeprom(5,0); 
02612:  CLRF   xF2
02614:  CLRF   FAA
02616:  MOVLW  05
02618:  MOVWF  FA9
0261A:  CLRF   FA8
0261C:  BCF    FA6.6
0261E:  BCF    FA6.7
02620:  BSF    FA6.2
02622:  MOVF   FF2,W
02624:  MOVWF  00
02626:  BCF    FF2.7
02628:  MOVLB  F
0262A:  MOVLW  55
0262C:  MOVWF  FA7
0262E:  MOVLW  AA
02630:  MOVWF  FA7
02632:  BSF    FA6.1
02634:  BTFSC  FA6.1
02636:  BRA    2634
02638:  BCF    FA6.2
0263A:  MOVF   00,W
0263C:  IORWF  FF2,F
0263E:  MOVLB  4
....................    } 
....................    if(Tpurgap[2]>9 || Tpurgap[2]<0){ 
02640:  BTFSC  xF3.7
02642:  BRA    264A
02644:  MOVF   xF3,W
02646:  SUBLW  09
02648:  BNC   2650
0264A:  BTFSC  xF3.7
0264C:  BRA    2650
0264E:  BRA    2682
....................       Tpurgap[2]=2;write_eeprom(6,2); 
02650:  MOVLW  02
02652:  MOVWF  xF3
02654:  CLRF   FAA
02656:  MOVLW  06
02658:  MOVWF  FA9
0265A:  MOVLW  02
0265C:  MOVWF  FA8
0265E:  BCF    FA6.6
02660:  BCF    FA6.7
02662:  BSF    FA6.2
02664:  MOVF   FF2,W
02666:  MOVWF  00
02668:  BCF    FF2.7
0266A:  MOVLB  F
0266C:  MOVLW  55
0266E:  MOVWF  FA7
02670:  MOVLW  AA
02672:  MOVWF  FA7
02674:  BSF    FA6.1
02676:  BTFSC  FA6.1
02678:  BRA    2676
0267A:  BCF    FA6.2
0267C:  MOVF   00,W
0267E:  IORWF  FF2,F
02680:  MOVLB  4
....................    } 
....................    if(Tpurgap[3]>9 || Tpurgap[3]<0){ 
02682:  BTFSC  xF4.7
02684:  BRA    268C
02686:  MOVF   xF4,W
02688:  SUBLW  09
0268A:  BNC   2692
0268C:  BTFSC  xF4.7
0268E:  BRA    2692
02690:  BRA    26C0
....................       Tpurgap[3]=0;write_eeprom(7,0); 
02692:  CLRF   xF4
02694:  CLRF   FAA
02696:  MOVLW  07
02698:  MOVWF  FA9
0269A:  CLRF   FA8
0269C:  BCF    FA6.6
0269E:  BCF    FA6.7
026A0:  BSF    FA6.2
026A2:  MOVF   FF2,W
026A4:  MOVWF  00
026A6:  BCF    FF2.7
026A8:  MOVLB  F
026AA:  MOVLW  55
026AC:  MOVWF  FA7
026AE:  MOVLW  AA
026B0:  MOVWF  FA7
026B2:  BSF    FA6.1
026B4:  BTFSC  FA6.1
026B6:  BRA    26B4
026B8:  BCF    FA6.2
026BA:  MOVF   00,W
026BC:  IORWF  FF2,F
026BE:  MOVLB  4
....................    } 
....................    if(Tppurgap[0]>9 || Tppurgap[0]<0){ 
026C0:  BTFSC  xF5.7
026C2:  BRA    26CA
026C4:  MOVF   xF5,W
026C6:  SUBLW  09
026C8:  BNC   26D0
026CA:  BTFSC  xF5.7
026CC:  BRA    26D0
026CE:  BRA    26FE
....................       Tppurgap[0]=0;write_eeprom(8,0); 
026D0:  CLRF   xF5
026D2:  CLRF   FAA
026D4:  MOVLW  08
026D6:  MOVWF  FA9
026D8:  CLRF   FA8
026DA:  BCF    FA6.6
026DC:  BCF    FA6.7
026DE:  BSF    FA6.2
026E0:  MOVF   FF2,W
026E2:  MOVWF  00
026E4:  BCF    FF2.7
026E6:  MOVLB  F
026E8:  MOVLW  55
026EA:  MOVWF  FA7
026EC:  MOVLW  AA
026EE:  MOVWF  FA7
026F0:  BSF    FA6.1
026F2:  BTFSC  FA6.1
026F4:  BRA    26F2
026F6:  BCF    FA6.2
026F8:  MOVF   00,W
026FA:  IORWF  FF2,F
026FC:  MOVLB  4
....................    } 
....................    if(Tppurgap[1]>9 || Tppurgap[1]<0){ 
026FE:  BTFSC  xF6.7
02700:  BRA    2708
02702:  MOVF   xF6,W
02704:  SUBLW  09
02706:  BNC   270E
02708:  BTFSC  xF6.7
0270A:  BRA    270E
0270C:  BRA    273C
....................       Tppurgap[1]=0;write_eeprom(9,0); 
0270E:  CLRF   xF6
02710:  CLRF   FAA
02712:  MOVLW  09
02714:  MOVWF  FA9
02716:  CLRF   FA8
02718:  BCF    FA6.6
0271A:  BCF    FA6.7
0271C:  BSF    FA6.2
0271E:  MOVF   FF2,W
02720:  MOVWF  00
02722:  BCF    FF2.7
02724:  MOVLB  F
02726:  MOVLW  55
02728:  MOVWF  FA7
0272A:  MOVLW  AA
0272C:  MOVWF  FA7
0272E:  BSF    FA6.1
02730:  BTFSC  FA6.1
02732:  BRA    2730
02734:  BCF    FA6.2
02736:  MOVF   00,W
02738:  IORWF  FF2,F
0273A:  MOVLB  4
....................    } 
....................    if(Tppurgap[2]>9 || Tppurgap[2]<0){ 
0273C:  BTFSC  xF7.7
0273E:  BRA    2746
02740:  MOVF   xF7,W
02742:  SUBLW  09
02744:  BNC   274C
02746:  BTFSC  xF7.7
02748:  BRA    274C
0274A:  BRA    277E
....................       Tppurgap[2]=2;write_eeprom(10,2); 
0274C:  MOVLW  02
0274E:  MOVWF  xF7
02750:  CLRF   FAA
02752:  MOVLW  0A
02754:  MOVWF  FA9
02756:  MOVLW  02
02758:  MOVWF  FA8
0275A:  BCF    FA6.6
0275C:  BCF    FA6.7
0275E:  BSF    FA6.2
02760:  MOVF   FF2,W
02762:  MOVWF  00
02764:  BCF    FF2.7
02766:  MOVLB  F
02768:  MOVLW  55
0276A:  MOVWF  FA7
0276C:  MOVLW  AA
0276E:  MOVWF  FA7
02770:  BSF    FA6.1
02772:  BTFSC  FA6.1
02774:  BRA    2772
02776:  BCF    FA6.2
02778:  MOVF   00,W
0277A:  IORWF  FF2,F
0277C:  MOVLB  4
....................    } 
....................    if(Tppurgap[3]>9 || Tppurgap[3]<0){ 
0277E:  BTFSC  xF8.7
02780:  BRA    2788
02782:  MOVF   xF8,W
02784:  SUBLW  09
02786:  BNC   278E
02788:  BTFSC  xF8.7
0278A:  BRA    278E
0278C:  BRA    27BC
....................       Tppurgap[3]=0;write_eeprom(11,0); 
0278E:  CLRF   xF8
02790:  CLRF   FAA
02792:  MOVLW  0B
02794:  MOVWF  FA9
02796:  CLRF   FA8
02798:  BCF    FA6.6
0279A:  BCF    FA6.7
0279C:  BSF    FA6.2
0279E:  MOVF   FF2,W
027A0:  MOVWF  00
027A2:  BCF    FF2.7
027A4:  MOVLB  F
027A6:  MOVLW  55
027A8:  MOVWF  FA7
027AA:  MOVLW  AA
027AC:  MOVWF  FA7
027AE:  BSF    FA6.1
027B0:  BTFSC  FA6.1
027B2:  BRA    27B0
027B4:  BCF    FA6.2
027B6:  MOVF   00,W
027B8:  IORWF  FF2,F
027BA:  MOVLB  4
....................    } 
....................    if(Tuv[0]>9 || Tuv[0]<0){ 
027BC:  BTFSC  xF9.7
027BE:  BRA    27C6
027C0:  MOVF   xF9,W
027C2:  SUBLW  09
027C4:  BNC   27CC
027C6:  BTFSC  xF9.7
027C8:  BRA    27CC
027CA:  BRA    27FA
....................       Tuv[0]=0;write_eeprom(12,0); 
027CC:  CLRF   xF9
027CE:  CLRF   FAA
027D0:  MOVLW  0C
027D2:  MOVWF  FA9
027D4:  CLRF   FA8
027D6:  BCF    FA6.6
027D8:  BCF    FA6.7
027DA:  BSF    FA6.2
027DC:  MOVF   FF2,W
027DE:  MOVWF  00
027E0:  BCF    FF2.7
027E2:  MOVLB  F
027E4:  MOVLW  55
027E6:  MOVWF  FA7
027E8:  MOVLW  AA
027EA:  MOVWF  FA7
027EC:  BSF    FA6.1
027EE:  BTFSC  FA6.1
027F0:  BRA    27EE
027F2:  BCF    FA6.2
027F4:  MOVF   00,W
027F6:  IORWF  FF2,F
027F8:  MOVLB  4
....................    } 
....................    if(Tuv[1]>9 || Tuv[1]<0){ 
027FA:  BTFSC  xFA.7
027FC:  BRA    2804
027FE:  MOVF   xFA,W
02800:  SUBLW  09
02802:  BNC   280A
02804:  BTFSC  xFA.7
02806:  BRA    280A
02808:  BRA    2838
....................       Tuv[1]=0;write_eeprom(13,0); 
0280A:  CLRF   xFA
0280C:  CLRF   FAA
0280E:  MOVLW  0D
02810:  MOVWF  FA9
02812:  CLRF   FA8
02814:  BCF    FA6.6
02816:  BCF    FA6.7
02818:  BSF    FA6.2
0281A:  MOVF   FF2,W
0281C:  MOVWF  00
0281E:  BCF    FF2.7
02820:  MOVLB  F
02822:  MOVLW  55
02824:  MOVWF  FA7
02826:  MOVLW  AA
02828:  MOVWF  FA7
0282A:  BSF    FA6.1
0282C:  BTFSC  FA6.1
0282E:  BRA    282C
02830:  BCF    FA6.2
02832:  MOVF   00,W
02834:  IORWF  FF2,F
02836:  MOVLB  4
....................    } 
....................    if(Tuv[2]>9 || Tuv[2]<0){ 
02838:  BTFSC  xFB.7
0283A:  BRA    2842
0283C:  MOVF   xFB,W
0283E:  SUBLW  09
02840:  BNC   2848
02842:  BTFSC  xFB.7
02844:  BRA    2848
02846:  BRA    2876
....................       Tuv[2]=0;write_eeprom(14,0); 
02848:  CLRF   xFB
0284A:  CLRF   FAA
0284C:  MOVLW  0E
0284E:  MOVWF  FA9
02850:  CLRF   FA8
02852:  BCF    FA6.6
02854:  BCF    FA6.7
02856:  BSF    FA6.2
02858:  MOVF   FF2,W
0285A:  MOVWF  00
0285C:  BCF    FF2.7
0285E:  MOVLB  F
02860:  MOVLW  55
02862:  MOVWF  FA7
02864:  MOVLW  AA
02866:  MOVWF  FA7
02868:  BSF    FA6.1
0286A:  BTFSC  FA6.1
0286C:  BRA    286A
0286E:  BCF    FA6.2
02870:  MOVF   00,W
02872:  IORWF  FF2,F
02874:  MOVLB  4
....................    } 
....................    if(Tuv[3]>9 || Tuv[3]<0){ 
02876:  BTFSC  xFC.7
02878:  BRA    2880
0287A:  MOVF   xFC,W
0287C:  SUBLW  09
0287E:  BNC   2886
02880:  BTFSC  xFC.7
02882:  BRA    2886
02884:  BRA    28B2
....................       Tuv[3]=0;write_eeprom(15,0); 
02886:  CLRF   xFC
02888:  CLRF   FAA
0288A:  MOVLW  0F
0288C:  MOVWF  FA9
0288E:  CLRF   FA8
02890:  BCF    FA6.6
02892:  BCF    FA6.7
02894:  BSF    FA6.2
02896:  MOVF   FF2,W
02898:  MOVWF  00
0289A:  BCF    FF2.7
0289C:  MOVLB  F
0289E:  MOVLW  55
028A0:  MOVWF  FA7
028A2:  MOVLW  AA
028A4:  MOVWF  FA7
028A6:  BSF    FA6.1
028A8:  BTFSC  FA6.1
028AA:  BRA    28A8
028AC:  BCF    FA6.2
028AE:  MOVF   00,W
028B0:  IORWF  FF2,F
....................    } 
....................    if(Ttrabajo[0]>9 || Ttrabajo[0]<0){ 
028B2:  MOVLB  5
028B4:  BTFSC  x05.7
028B6:  BRA    28BE
028B8:  MOVF   x05,W
028BA:  SUBLW  09
028BC:  BNC   28C4
028BE:  BTFSC  x05.7
028C0:  BRA    28C4
028C2:  BRA    28F2
....................       Ttrabajo[0]=0;write_eeprom(16,0); 
028C4:  CLRF   x05
028C6:  CLRF   FAA
028C8:  MOVLW  10
028CA:  MOVWF  FA9
028CC:  CLRF   FA8
028CE:  BCF    FA6.6
028D0:  BCF    FA6.7
028D2:  BSF    FA6.2
028D4:  MOVF   FF2,W
028D6:  MOVWF  00
028D8:  BCF    FF2.7
028DA:  MOVLB  F
028DC:  MOVLW  55
028DE:  MOVWF  FA7
028E0:  MOVLW  AA
028E2:  MOVWF  FA7
028E4:  BSF    FA6.1
028E6:  BTFSC  FA6.1
028E8:  BRA    28E6
028EA:  BCF    FA6.2
028EC:  MOVF   00,W
028EE:  IORWF  FF2,F
028F0:  MOVLB  5
....................    } 
....................    if(Ttrabajo[1]>9 || Ttrabajo[1]<0){ 
028F2:  BTFSC  x06.7
028F4:  BRA    28FC
028F6:  MOVF   x06,W
028F8:  SUBLW  09
028FA:  BNC   2902
028FC:  BTFSC  x06.7
028FE:  BRA    2902
02900:  BRA    2930
....................       Ttrabajo[1]=0;write_eeprom(17,0); 
02902:  CLRF   x06
02904:  CLRF   FAA
02906:  MOVLW  11
02908:  MOVWF  FA9
0290A:  CLRF   FA8
0290C:  BCF    FA6.6
0290E:  BCF    FA6.7
02910:  BSF    FA6.2
02912:  MOVF   FF2,W
02914:  MOVWF  00
02916:  BCF    FF2.7
02918:  MOVLB  F
0291A:  MOVLW  55
0291C:  MOVWF  FA7
0291E:  MOVLW  AA
02920:  MOVWF  FA7
02922:  BSF    FA6.1
02924:  BTFSC  FA6.1
02926:  BRA    2924
02928:  BCF    FA6.2
0292A:  MOVF   00,W
0292C:  IORWF  FF2,F
0292E:  MOVLB  5
....................    } 
....................    if(Ttrabajo[2]>9 || Ttrabajo[2]<0){ 
02930:  BTFSC  x07.7
02932:  BRA    293A
02934:  MOVF   x07,W
02936:  SUBLW  09
02938:  BNC   2940
0293A:  BTFSC  x07.7
0293C:  BRA    2940
0293E:  BRA    296E
....................       Ttrabajo[2]=0;write_eeprom(18,0); 
02940:  CLRF   x07
02942:  CLRF   FAA
02944:  MOVLW  12
02946:  MOVWF  FA9
02948:  CLRF   FA8
0294A:  BCF    FA6.6
0294C:  BCF    FA6.7
0294E:  BSF    FA6.2
02950:  MOVF   FF2,W
02952:  MOVWF  00
02954:  BCF    FF2.7
02956:  MOVLB  F
02958:  MOVLW  55
0295A:  MOVWF  FA7
0295C:  MOVLW  AA
0295E:  MOVWF  FA7
02960:  BSF    FA6.1
02962:  BTFSC  FA6.1
02964:  BRA    2962
02966:  BCF    FA6.2
02968:  MOVF   00,W
0296A:  IORWF  FF2,F
0296C:  MOVLB  5
....................    } 
....................    if(Ttrabajo[3]>9 || Ttrabajo[3]<0){ 
0296E:  BTFSC  x08.7
02970:  BRA    2978
02972:  MOVF   x08,W
02974:  SUBLW  09
02976:  BNC   297E
02978:  BTFSC  x08.7
0297A:  BRA    297E
0297C:  BRA    29AA
....................       Ttrabajo[3]=0;write_eeprom(19,0); 
0297E:  CLRF   x08
02980:  CLRF   FAA
02982:  MOVLW  13
02984:  MOVWF  FA9
02986:  CLRF   FA8
02988:  BCF    FA6.6
0298A:  BCF    FA6.7
0298C:  BSF    FA6.2
0298E:  MOVF   FF2,W
02990:  MOVWF  00
02992:  BCF    FF2.7
02994:  MOVLB  F
02996:  MOVLW  55
02998:  MOVWF  FA7
0299A:  MOVLW  AA
0299C:  MOVWF  FA7
0299E:  BSF    FA6.1
029A0:  BTFSC  FA6.1
029A2:  BRA    29A0
029A4:  BCF    FA6.2
029A6:  MOVF   00,W
029A8:  IORWF  FF2,F
....................    } 
....................    if(Tempouvp[0]>9 || Tempouvp[0]<0){ 
029AA:  MOVLB  4
029AC:  BTFSC  xFD.7
029AE:  BRA    29B6
029B0:  MOVF   xFD,W
029B2:  SUBLW  09
029B4:  BNC   29BC
029B6:  BTFSC  xFD.7
029B8:  BRA    29BC
029BA:  BRA    29EA
....................       Tempouvp[0]=0;write_eeprom(21,0); 
029BC:  CLRF   xFD
029BE:  CLRF   FAA
029C0:  MOVLW  15
029C2:  MOVWF  FA9
029C4:  CLRF   FA8
029C6:  BCF    FA6.6
029C8:  BCF    FA6.7
029CA:  BSF    FA6.2
029CC:  MOVF   FF2,W
029CE:  MOVWF  00
029D0:  BCF    FF2.7
029D2:  MOVLB  F
029D4:  MOVLW  55
029D6:  MOVWF  FA7
029D8:  MOVLW  AA
029DA:  MOVWF  FA7
029DC:  BSF    FA6.1
029DE:  BTFSC  FA6.1
029E0:  BRA    29DE
029E2:  BCF    FA6.2
029E4:  MOVF   00,W
029E6:  IORWF  FF2,F
029E8:  MOVLB  4
....................    } 
....................    if(Tempouvp[1]>9 || Tempouvp[1]<0){ 
029EA:  BTFSC  xFE.7
029EC:  BRA    29F4
029EE:  MOVF   xFE,W
029F0:  SUBLW  09
029F2:  BNC   29FA
029F4:  BTFSC  xFE.7
029F6:  BRA    29FA
029F8:  BRA    2A28
....................       Tempouvp[1]=0;write_eeprom(22,0); 
029FA:  CLRF   xFE
029FC:  CLRF   FAA
029FE:  MOVLW  16
02A00:  MOVWF  FA9
02A02:  CLRF   FA8
02A04:  BCF    FA6.6
02A06:  BCF    FA6.7
02A08:  BSF    FA6.2
02A0A:  MOVF   FF2,W
02A0C:  MOVWF  00
02A0E:  BCF    FF2.7
02A10:  MOVLB  F
02A12:  MOVLW  55
02A14:  MOVWF  FA7
02A16:  MOVLW  AA
02A18:  MOVWF  FA7
02A1A:  BSF    FA6.1
02A1C:  BTFSC  FA6.1
02A1E:  BRA    2A1C
02A20:  BCF    FA6.2
02A22:  MOVF   00,W
02A24:  IORWF  FF2,F
02A26:  MOVLB  4
....................    } 
....................    if(Tempouvp[2]>9 || Tempouvp[2]<0){ 
02A28:  BTFSC  xFF.7
02A2A:  BRA    2A32
02A2C:  MOVF   xFF,W
02A2E:  SUBLW  09
02A30:  BNC   2A38
02A32:  BTFSC  xFF.7
02A34:  BRA    2A38
02A36:  BRA    2A64
....................       Tempouvp[2]=0;write_eeprom(23,0); 
02A38:  CLRF   xFF
02A3A:  CLRF   FAA
02A3C:  MOVLW  17
02A3E:  MOVWF  FA9
02A40:  CLRF   FA8
02A42:  BCF    FA6.6
02A44:  BCF    FA6.7
02A46:  BSF    FA6.2
02A48:  MOVF   FF2,W
02A4A:  MOVWF  00
02A4C:  BCF    FF2.7
02A4E:  MOVLB  F
02A50:  MOVLW  55
02A52:  MOVWF  FA7
02A54:  MOVLW  AA
02A56:  MOVWF  FA7
02A58:  BSF    FA6.1
02A5A:  BTFSC  FA6.1
02A5C:  BRA    2A5A
02A5E:  BCF    FA6.2
02A60:  MOVF   00,W
02A62:  IORWF  FF2,F
....................    } 
....................    if(Tempouvp[3]>9 || Tempouvp[3]<0){ 
02A64:  MOVLB  5
02A66:  BTFSC  x00.7
02A68:  BRA    2A70
02A6A:  MOVF   x00,W
02A6C:  SUBLW  09
02A6E:  BNC   2A76
02A70:  BTFSC  x00.7
02A72:  BRA    2A76
02A74:  BRA    2AA6
....................       Tempouvp[3]=1;write_eeprom(24,1); 
02A76:  MOVLW  01
02A78:  MOVWF  x00
02A7A:  CLRF   FAA
02A7C:  MOVLW  18
02A7E:  MOVWF  FA9
02A80:  MOVLW  01
02A82:  MOVWF  FA8
02A84:  BCF    FA6.6
02A86:  BCF    FA6.7
02A88:  BSF    FA6.2
02A8A:  MOVF   FF2,W
02A8C:  MOVWF  00
02A8E:  BCF    FF2.7
02A90:  MOVLB  F
02A92:  MOVLW  55
02A94:  MOVWF  FA7
02A96:  MOVLW  AA
02A98:  MOVWF  FA7
02A9A:  BSF    FA6.1
02A9C:  BTFSC  FA6.1
02A9E:  BRA    2A9C
02AA0:  BCF    FA6.2
02AA2:  MOVF   00,W
02AA4:  IORWF  FF2,F
....................    } 
....................    if(Ajuste1>2.0){ 
02AA6:  MOVLB  6
02AA8:  CLRF   x19
02AAA:  CLRF   x18
02AAC:  CLRF   x17
02AAE:  MOVLW  80
02AB0:  MOVWF  x16
02AB2:  MOVFF  53C,61D
02AB6:  MOVFF  53B,61C
02ABA:  MOVFF  53A,61B
02ABE:  MOVFF  539,61A
02AC2:  MOVLB  0
02AC4:  RCALL  2452
02AC6:  BNC   2B2C
....................       Ajuste1=1.5;write_eeprom(25,1);write_eeprom(26,5); 
02AC8:  MOVLB  5
02ACA:  CLRF   x3C
02ACC:  CLRF   x3B
02ACE:  MOVLW  40
02AD0:  MOVWF  x3A
02AD2:  MOVLW  7F
02AD4:  MOVWF  x39
02AD6:  CLRF   FAA
02AD8:  MOVLW  19
02ADA:  MOVWF  FA9
02ADC:  MOVLW  01
02ADE:  MOVWF  FA8
02AE0:  BCF    FA6.6
02AE2:  BCF    FA6.7
02AE4:  BSF    FA6.2
02AE6:  MOVF   FF2,W
02AE8:  MOVWF  00
02AEA:  BCF    FF2.7
02AEC:  MOVLB  F
02AEE:  MOVLW  55
02AF0:  MOVWF  FA7
02AF2:  MOVLW  AA
02AF4:  MOVWF  FA7
02AF6:  BSF    FA6.1
02AF8:  BTFSC  FA6.1
02AFA:  BRA    2AF8
02AFC:  BCF    FA6.2
02AFE:  MOVF   00,W
02B00:  IORWF  FF2,F
02B02:  CLRF   FAA
02B04:  MOVLW  1A
02B06:  MOVWF  FA9
02B08:  MOVLW  05
02B0A:  MOVWF  FA8
02B0C:  BCF    FA6.6
02B0E:  BCF    FA6.7
02B10:  BSF    FA6.2
02B12:  MOVF   FF2,W
02B14:  MOVWF  00
02B16:  BCF    FF2.7
02B18:  MOVLW  55
02B1A:  MOVWF  FA7
02B1C:  MOVLW  AA
02B1E:  MOVWF  FA7
02B20:  BSF    FA6.1
02B22:  BTFSC  FA6.1
02B24:  BRA    2B22
02B26:  BCF    FA6.2
02B28:  MOVF   00,W
02B2A:  IORWF  FF2,F
....................    } 
....................    if(Ajuste2>2.0){ 
02B2C:  MOVLB  6
02B2E:  CLRF   x19
02B30:  CLRF   x18
02B32:  CLRF   x17
02B34:  MOVLW  80
02B36:  MOVWF  x16
02B38:  MOVFF  540,61D
02B3C:  MOVFF  53F,61C
02B40:  MOVFF  53E,61B
02B44:  MOVFF  53D,61A
02B48:  MOVLB  0
02B4A:  RCALL  2452
02B4C:  BNC   2BAE
....................       Ajuste2=1.0;write_eeprom(27,1);write_eeprom(28,0); 
02B4E:  MOVLB  5
02B50:  CLRF   x40
02B52:  CLRF   x3F
02B54:  CLRF   x3E
02B56:  MOVLW  7F
02B58:  MOVWF  x3D
02B5A:  CLRF   FAA
02B5C:  MOVLW  1B
02B5E:  MOVWF  FA9
02B60:  MOVLW  01
02B62:  MOVWF  FA8
02B64:  BCF    FA6.6
02B66:  BCF    FA6.7
02B68:  BSF    FA6.2
02B6A:  MOVF   FF2,W
02B6C:  MOVWF  00
02B6E:  BCF    FF2.7
02B70:  MOVLB  F
02B72:  MOVLW  55
02B74:  MOVWF  FA7
02B76:  MOVLW  AA
02B78:  MOVWF  FA7
02B7A:  BSF    FA6.1
02B7C:  BTFSC  FA6.1
02B7E:  BRA    2B7C
02B80:  BCF    FA6.2
02B82:  MOVF   00,W
02B84:  IORWF  FF2,F
02B86:  CLRF   FAA
02B88:  MOVLW  1C
02B8A:  MOVWF  FA9
02B8C:  CLRF   FA8
02B8E:  BCF    FA6.6
02B90:  BCF    FA6.7
02B92:  BSF    FA6.2
02B94:  MOVF   FF2,W
02B96:  MOVWF  00
02B98:  BCF    FF2.7
02B9A:  MOVLW  55
02B9C:  MOVWF  FA7
02B9E:  MOVLW  AA
02BA0:  MOVWF  FA7
02BA2:  BSF    FA6.1
02BA4:  BTFSC  FA6.1
02BA6:  BRA    2BA4
02BA8:  BCF    FA6.2
02BAA:  MOVF   00,W
02BAC:  IORWF  FF2,F
....................    } 
....................    if(zero_actual>300){ 
02BAE:  MOVLB  6
02BB0:  CLRF   x19
02BB2:  CLRF   x18
02BB4:  MOVLW  16
02BB6:  MOVWF  x17
02BB8:  MOVLW  87
02BBA:  MOVWF  x16
02BBC:  MOVFF  5C4,61D
02BC0:  MOVFF  5C3,61C
02BC4:  MOVFF  5C2,61B
02BC8:  MOVFF  5C1,61A
02BCC:  MOVLB  0
02BCE:  RCALL  2452
02BD0:  BNC   2C34
....................       zero_actual=203;write_eeprom(29,203);write_eeprom(30,0); 
02BD2:  MOVLB  5
02BD4:  CLRF   xC4
02BD6:  CLRF   xC3
02BD8:  MOVLW  4B
02BDA:  MOVWF  xC2
02BDC:  MOVLW  86
02BDE:  MOVWF  xC1
02BE0:  CLRF   FAA
02BE2:  MOVLW  1D
02BE4:  MOVWF  FA9
02BE6:  MOVLW  CB
02BE8:  MOVWF  FA8
02BEA:  BCF    FA6.6
02BEC:  BCF    FA6.7
02BEE:  BSF    FA6.2
02BF0:  MOVF   FF2,W
02BF2:  MOVWF  00
02BF4:  BCF    FF2.7
02BF6:  MOVLB  F
02BF8:  MOVLW  55
02BFA:  MOVWF  FA7
02BFC:  MOVLW  AA
02BFE:  MOVWF  FA7
02C00:  BSF    FA6.1
02C02:  BTFSC  FA6.1
02C04:  BRA    2C02
02C06:  BCF    FA6.2
02C08:  MOVF   00,W
02C0A:  IORWF  FF2,F
02C0C:  CLRF   FAA
02C0E:  MOVLW  1E
02C10:  MOVWF  FA9
02C12:  CLRF   FA8
02C14:  BCF    FA6.6
02C16:  BCF    FA6.7
02C18:  BSF    FA6.2
02C1A:  MOVF   FF2,W
02C1C:  MOVWF  00
02C1E:  BCF    FF2.7
02C20:  MOVLW  55
02C22:  MOVWF  FA7
02C24:  MOVLW  AA
02C26:  MOVWF  FA7
02C28:  BSF    FA6.1
02C2A:  BTFSC  FA6.1
02C2C:  BRA    2C2A
02C2E:  BCF    FA6.2
02C30:  MOVF   00,W
02C32:  IORWF  FF2,F
....................    } 
....................    if(minutos_uv>60){ 
02C34:  MOVLB  4
02C36:  MOVF   xE8,F
02C38:  BNZ   2C40
02C3A:  MOVF   xE7,W
02C3C:  SUBLW  3C
02C3E:  BC    2C6E
....................       minutos_uv=0;write_eeprom(31,0); 
02C40:  CLRF   xE8
02C42:  CLRF   xE7
02C44:  CLRF   FAA
02C46:  MOVLW  1F
02C48:  MOVWF  FA9
02C4A:  CLRF   FA8
02C4C:  BCF    FA6.6
02C4E:  BCF    FA6.7
02C50:  BSF    FA6.2
02C52:  MOVF   FF2,W
02C54:  MOVWF  00
02C56:  BCF    FF2.7
02C58:  MOVLB  F
02C5A:  MOVLW  55
02C5C:  MOVWF  FA7
02C5E:  MOVLW  AA
02C60:  MOVWF  FA7
02C62:  BSF    FA6.1
02C64:  BTFSC  FA6.1
02C66:  BRA    2C64
02C68:  BCF    FA6.2
02C6A:  MOVF   00,W
02C6C:  IORWF  FF2,F
....................    } 
....................    if(VelMotor>6){ 
02C6E:  MOVLB  5
02C70:  MOVF   xDC,W
02C72:  SUBLW  06
02C74:  BC    2CA6
....................       VelMotor=2;write_eeprom(32,2); 
02C76:  MOVLW  02
02C78:  MOVWF  xDC
02C7A:  CLRF   FAA
02C7C:  MOVLW  20
02C7E:  MOVWF  FA9
02C80:  MOVLW  02
02C82:  MOVWF  FA8
02C84:  BCF    FA6.6
02C86:  BCF    FA6.7
02C88:  BSF    FA6.2
02C8A:  MOVF   FF2,W
02C8C:  MOVWF  00
02C8E:  BCF    FF2.7
02C90:  MOVLB  F
02C92:  MOVLW  55
02C94:  MOVWF  FA7
02C96:  MOVLW  AA
02C98:  MOVWF  FA7
02C9A:  BSF    FA6.1
02C9C:  BTFSC  FA6.1
02C9E:  BRA    2C9C
02CA0:  BCF    FA6.2
02CA2:  MOVF   00,W
02CA4:  IORWF  FF2,F
....................    }    
....................    if(minutos_trabajo>3600){ 
02CA6:  MOVLB  4
02CA8:  MOVF   xEA,W
02CAA:  SUBLW  0D
02CAC:  BC    2D0E
02CAE:  XORLW  FF
02CB0:  BNZ   2CB8
02CB2:  MOVF   xE9,W
02CB4:  SUBLW  10
02CB6:  BC    2D0E
....................       minutos_trabajo=0;write_eeprom(33,0);write_eeprom(34,0); 
02CB8:  CLRF   xEA
02CBA:  CLRF   xE9
02CBC:  CLRF   FAA
02CBE:  MOVLW  21
02CC0:  MOVWF  FA9
02CC2:  CLRF   FA8
02CC4:  BCF    FA6.6
02CC6:  BCF    FA6.7
02CC8:  BSF    FA6.2
02CCA:  MOVF   FF2,W
02CCC:  MOVWF  00
02CCE:  BCF    FF2.7
02CD0:  MOVLB  F
02CD2:  MOVLW  55
02CD4:  MOVWF  FA7
02CD6:  MOVLW  AA
02CD8:  MOVWF  FA7
02CDA:  BSF    FA6.1
02CDC:  BTFSC  FA6.1
02CDE:  BRA    2CDC
02CE0:  BCF    FA6.2
02CE2:  MOVF   00,W
02CE4:  IORWF  FF2,F
02CE6:  CLRF   FAA
02CE8:  MOVLW  22
02CEA:  MOVWF  FA9
02CEC:  CLRF   FA8
02CEE:  BCF    FA6.6
02CF0:  BCF    FA6.7
02CF2:  BSF    FA6.2
02CF4:  MOVF   FF2,W
02CF6:  MOVWF  00
02CF8:  BCF    FF2.7
02CFA:  MOVLW  55
02CFC:  MOVWF  FA7
02CFE:  MOVLW  AA
02D00:  MOVWF  FA7
02D02:  BSF    FA6.1
02D04:  BTFSC  FA6.1
02D06:  BRA    2D04
02D08:  BCF    FA6.2
02D0A:  MOVF   00,W
02D0C:  IORWF  FF2,F
....................    } 
....................    //if(Relacion>2.0){ 
....................       //Relacion=0.57;write_eeprom(35,0);write_eeprom(36,57); 
....................    //} 
....................    if(Diferencia>200){ 
02D0E:  MOVLB  6
02D10:  CLRF   x19
02D12:  CLRF   x18
02D14:  MOVLW  48
02D16:  MOVWF  x17
02D18:  MOVLW  86
02D1A:  MOVWF  x16
02D1C:  MOVFF  520,61D
02D20:  MOVFF  51F,61C
02D24:  MOVFF  51E,61B
02D28:  MOVFF  51D,61A
02D2C:  MOVLB  0
02D2E:  CALL   2452
02D32:  BNC   2D90
....................       Diferencia=0;write_eeprom(60,0);write_eeprom(61,0); 
02D34:  MOVLB  5
02D36:  CLRF   x20
02D38:  CLRF   x1F
02D3A:  CLRF   x1E
02D3C:  CLRF   x1D
02D3E:  CLRF   FAA
02D40:  MOVLW  3C
02D42:  MOVWF  FA9
02D44:  CLRF   FA8
02D46:  BCF    FA6.6
02D48:  BCF    FA6.7
02D4A:  BSF    FA6.2
02D4C:  MOVF   FF2,W
02D4E:  MOVWF  00
02D50:  BCF    FF2.7
02D52:  MOVLB  F
02D54:  MOVLW  55
02D56:  MOVWF  FA7
02D58:  MOVLW  AA
02D5A:  MOVWF  FA7
02D5C:  BSF    FA6.1
02D5E:  BTFSC  FA6.1
02D60:  BRA    2D5E
02D62:  BCF    FA6.2
02D64:  MOVF   00,W
02D66:  IORWF  FF2,F
02D68:  CLRF   FAA
02D6A:  MOVLW  3D
02D6C:  MOVWF  FA9
02D6E:  CLRF   FA8
02D70:  BCF    FA6.6
02D72:  BCF    FA6.7
02D74:  BSF    FA6.2
02D76:  MOVF   FF2,W
02D78:  MOVWF  00
02D7A:  BCF    FF2.7
02D7C:  MOVLW  55
02D7E:  MOVWF  FA7
02D80:  MOVLW  AA
02D82:  MOVWF  FA7
02D84:  BSF    FA6.1
02D86:  BTFSC  FA6.1
02D88:  BRA    2D86
02D8A:  BCF    FA6.2
02D8C:  MOVF   00,W
02D8E:  IORWF  FF2,F
....................    } 
....................    if(G>240){ 
02D90:  MOVLB  6
02D92:  CLRF   x19
02D94:  CLRF   x18
02D96:  MOVLW  70
02D98:  MOVWF  x17
02D9A:  MOVLW  86
02D9C:  MOVWF  x16
02D9E:  MOVFF  5D0,61D
02DA2:  MOVFF  5CF,61C
02DA6:  MOVFF  5CE,61B
02DAA:  MOVFF  5CD,61A
02DAE:  MOVLB  0
02DB0:  CALL   2452
02DB4:  BNC   2E18
....................       G=240;write_eeprom(62,240);write_eeprom(63,0); 
02DB6:  MOVLB  5
02DB8:  CLRF   xD0
02DBA:  CLRF   xCF
02DBC:  MOVLW  70
02DBE:  MOVWF  xCE
02DC0:  MOVLW  86
02DC2:  MOVWF  xCD
02DC4:  CLRF   FAA
02DC6:  MOVLW  3E
02DC8:  MOVWF  FA9
02DCA:  MOVLW  F0
02DCC:  MOVWF  FA8
02DCE:  BCF    FA6.6
02DD0:  BCF    FA6.7
02DD2:  BSF    FA6.2
02DD4:  MOVF   FF2,W
02DD6:  MOVWF  00
02DD8:  BCF    FF2.7
02DDA:  MOVLB  F
02DDC:  MOVLW  55
02DDE:  MOVWF  FA7
02DE0:  MOVLW  AA
02DE2:  MOVWF  FA7
02DE4:  BSF    FA6.1
02DE6:  BTFSC  FA6.1
02DE8:  BRA    2DE6
02DEA:  BCF    FA6.2
02DEC:  MOVF   00,W
02DEE:  IORWF  FF2,F
02DF0:  CLRF   FAA
02DF2:  MOVLW  3F
02DF4:  MOVWF  FA9
02DF6:  CLRF   FA8
02DF8:  BCF    FA6.6
02DFA:  BCF    FA6.7
02DFC:  BSF    FA6.2
02DFE:  MOVF   FF2,W
02E00:  MOVWF  00
02E02:  BCF    FF2.7
02E04:  MOVLW  55
02E06:  MOVWF  FA7
02E08:  MOVLW  AA
02E0A:  MOVWF  FA7
02E0C:  BSF    FA6.1
02E0E:  BTFSC  FA6.1
02E10:  BRA    2E0E
02E12:  BCF    FA6.2
02E14:  MOVF   00,W
02E16:  IORWF  FF2,F
....................    } 
....................    if(negativo>20){ 
02E18:  MOVLB  4
02E1A:  MOVF   xD2,W
02E1C:  SUBLW  14
02E1E:  BC    2E52
....................       negativo=10;write_eeprom(50,10); 
02E20:  MOVLW  0A
02E22:  MOVWF  xD2
02E24:  CLRF   FAA
02E26:  MOVLW  32
02E28:  MOVWF  FA9
02E2A:  MOVLW  0A
02E2C:  MOVWF  FA8
02E2E:  BCF    FA6.6
02E30:  BCF    FA6.7
02E32:  BSF    FA6.2
02E34:  MOVF   FF2,W
02E36:  MOVWF  00
02E38:  BCF    FF2.7
02E3A:  MOVLB  F
02E3C:  MOVLW  55
02E3E:  MOVWF  FA7
02E40:  MOVLW  AA
02E42:  MOVWF  FA7
02E44:  BSF    FA6.1
02E46:  BTFSC  FA6.1
02E48:  BRA    2E46
02E4A:  BCF    FA6.2
02E4C:  MOVF   00,W
02E4E:  IORWF  FF2,F
02E50:  MOVLB  4
....................    } 
.................... } 
02E52:  MOVLB  0
02E54:  GOTO   65D0 (RETURN)
....................  
.................... void VelocidadMotor(int8 Vel){ 
....................    if(Vel==6){ 
*
013BC:  MOVLB  5
013BE:  MOVF   xE5,W
013C0:  SUBLW  06
013C2:  BNZ   13CC
....................       Porcentaje=0; 
013C4:  CLRF   xDB
....................       Motor_on; 
013C6:  BSF    F8B.2
013C8:  BCF    F94.2
....................    }else if(Vel==5){ 
013CA:  BRA    143A
013CC:  MOVF   xE5,W
013CE:  SUBLW  05
013D0:  BNZ   13E0
....................       Porcentaje=15; 
013D2:  MOVLW  0F
013D4:  MOVWF  xDB
....................       retardo=2000; 
013D6:  MOVLW  07
013D8:  MOVWF  xD4
013DA:  MOVLW  D0
013DC:  MOVWF  xD3
....................    }else if(Vel==4){ 
013DE:  BRA    143A
013E0:  MOVF   xE5,W
013E2:  SUBLW  04
013E4:  BNZ   13F4
....................       Porcentaje=25; 
013E6:  MOVLW  19
013E8:  MOVWF  xDB
....................       retardo=3000; 
013EA:  MOVLW  0B
013EC:  MOVWF  xD4
013EE:  MOVLW  B8
013F0:  MOVWF  xD3
....................    }else if(Vel==3){ 
013F2:  BRA    143A
013F4:  MOVF   xE5,W
013F6:  SUBLW  03
013F8:  BNZ   1408
....................       Porcentaje=35; 
013FA:  MOVLW  23
013FC:  MOVWF  xDB
....................       retardo=3600; 
013FE:  MOVLW  0E
01400:  MOVWF  xD4
01402:  MOVLW  10
01404:  MOVWF  xD3
....................    }else if(Vel==2){ 
01406:  BRA    143A
01408:  MOVF   xE5,W
0140A:  SUBLW  02
0140C:  BNZ   141C
....................       Porcentaje=45; 
0140E:  MOVLW  2D
01410:  MOVWF  xDB
....................       retardo=4300; 
01412:  MOVLW  10
01414:  MOVWF  xD4
01416:  MOVLW  CC
01418:  MOVWF  xD3
....................    }else if(Vel==1){ 
0141A:  BRA    143A
0141C:  DECFSZ xE5,W
0141E:  BRA    142E
....................       Porcentaje=50; 
01420:  MOVLW  32
01422:  MOVWF  xDB
....................       retardo=5000; 
01424:  MOVLW  13
01426:  MOVWF  xD4
01428:  MOVLW  88
0142A:  MOVWF  xD3
....................    }else if(Vel==0){ 
0142C:  BRA    143A
0142E:  MOVF   xE5,F
01430:  BNZ   143A
....................       Porcentaje=100; 
01432:  MOVLW  64
01434:  MOVWF  xDB
....................       Motor_off; 
01436:  BCF    F8B.2
01438:  BCF    F94.2
....................    } 
.................... } 
0143A:  MOVLB  0
0143C:  RETLW  00
....................  
.................... short PidePassword(int8 MenuAnt, int8 MenuActual, int8 MenuPost, int8 clave0,int8 clave1, int8 clave2,int8 clave3){ 
....................       if(n==0) 
*
04DB4:  MOVLB  4
04DB6:  BTFSC  x2F.5
04DB8:  BRA    4E50
....................       { 
....................          displayContrasena(Contrasena[0],20,30,1);displayContrasena(Contrasena[1],40,30,0); 
04DBA:  MOVFF  509,5EF
04DBE:  MOVLW  14
04DC0:  MOVLB  5
04DC2:  MOVWF  xF0
04DC4:  MOVLW  1E
04DC6:  MOVWF  xF1
04DC8:  MOVLW  01
04DCA:  MOVWF  xF2
04DCC:  MOVLB  0
04DCE:  RCALL  4C14
04DD0:  MOVFF  50A,5EF
04DD4:  MOVLW  28
04DD6:  MOVLB  5
04DD8:  MOVWF  xF0
04DDA:  MOVLW  1E
04DDC:  MOVWF  xF1
04DDE:  CLRF   xF2
04DE0:  MOVLB  0
04DE2:  RCALL  4C14
....................          displayContrasena(Contrasena[2],60,30,0);displayContrasena(Contrasena[0],80,30,0); 
04DE4:  MOVFF  50B,5EF
04DE8:  MOVLW  3C
04DEA:  MOVLB  5
04DEC:  MOVWF  xF0
04DEE:  MOVLW  1E
04DF0:  MOVWF  xF1
04DF2:  CLRF   xF2
04DF4:  MOVLB  0
04DF6:  RCALL  4C14
04DF8:  MOVFF  509,5EF
04DFC:  MOVLW  50
04DFE:  MOVLB  5
04E00:  MOVWF  xF0
04E02:  MOVLW  1E
04E04:  MOVWF  xF1
04E06:  CLRF   xF2
04E08:  MOVLB  0
04E0A:  RCALL  4C14
....................          strcpy(Menus.Letra,"Clave"); 
04E0C:  MOVLW  04
04E0E:  MOVWF  FEA
04E10:  MOVLW  17
04E12:  MOVWF  FE9
04E14:  MOVFF  FF2,5ED
04E18:  BCF    FF2.7
04E1A:  MOVLW  00
04E1C:  CALL   0F0A
04E20:  TBLRD*-
04E22:  TBLRD*+
04E24:  MOVF   FF5,W
04E26:  MOVWF  FEE
04E28:  IORLW  00
04E2A:  BNZ   4E22
04E2C:  MOVLB  5
04E2E:  BTFSC  xED.7
04E30:  BSF    FF2.7
....................          displayMenu(Menus.Letra,20,0,1,3); 
04E32:  MOVLW  04
04E34:  MOVWF  xEE
04E36:  MOVLW  17
04E38:  MOVWF  xED
04E3A:  MOVLW  14
04E3C:  MOVWF  xEF
04E3E:  CLRF   xF0
04E40:  MOVLW  01
04E42:  MOVWF  xF1
04E44:  MOVLW  03
04E46:  MOVWF  xF2
04E48:  MOVLB  0
04E4A:  RCALL  4CDC
....................          n=1; 
04E4C:  MOVLB  4
04E4E:  BSF    x2F.5
....................       } 
....................        
....................       if(UP){ 
04E50:  BSF    F92.5
04E52:  BTFSC  F80.5
04E54:  BRA    4F30
....................          flag_latencia=0;t_latencia=0; 
04E56:  BCF    x2E.6
04E58:  CLRF   xE6
04E5A:  CLRF   xE5
....................          if(Flanco == 0){ 
04E5C:  BTFSC  x2D.0
04E5E:  BRA    4F2E
....................             Flanco = 1;delay_ms(5); 
04E60:  BSF    x2D.0
04E62:  MOVLW  05
04E64:  MOVLB  5
04E66:  MOVWF  xF9
04E68:  MOVLB  0
04E6A:  CALL   1394
....................             for(i=1;i<=4;i++){ 
04E6E:  MOVLW  01
04E70:  MOVLB  5
04E72:  MOVWF  xD5
04E74:  MOVF   xD5,W
04E76:  SUBLW  04
04E78:  BNC   4F2C
....................                if(unidad==i){ 
04E7A:  MOVF   xD5,W
04E7C:  MOVLB  4
04E7E:  SUBWF  xD0,W
04E80:  BNZ   4EF6
....................                   Contrasena[i-1]++; 
04E82:  MOVLW  01
04E84:  MOVLB  5
04E86:  SUBWF  xD5,W
04E88:  CLRF   03
04E8A:  ADDLW  09
04E8C:  MOVWF  FE9
04E8E:  MOVLW  05
04E90:  ADDWFC 03,W
04E92:  MOVWF  FEA
04E94:  INCF   FEF,F
....................                   if(Contrasena[i-1]>9){ 
04E96:  MOVLW  01
04E98:  SUBWF  xD5,W
04E9A:  CLRF   03
04E9C:  ADDLW  09
04E9E:  MOVWF  FE9
04EA0:  MOVLW  05
04EA2:  ADDWFC 03,W
04EA4:  MOVWF  FEA
04EA6:  BTFSC  FEF.7
04EA8:  BRA    4EC2
04EAA:  MOVF   FEF,W
04EAC:  SUBLW  09
04EAE:  BC    4EC2
....................                      Contrasena[i-1]=0; 
04EB0:  MOVLW  01
04EB2:  SUBWF  xD5,W
04EB4:  CLRF   03
04EB6:  ADDLW  09
04EB8:  MOVWF  FE9
04EBA:  MOVLW  05
04EBC:  ADDWFC 03,W
04EBE:  MOVWF  FEA
04EC0:  CLRF   FEF
....................                   } 
....................                   displayContrasena(Contrasena[i-1],i*20,30,1); 
04EC2:  MOVLW  01
04EC4:  SUBWF  xD5,W
04EC6:  CLRF   03
04EC8:  ADDLW  09
04ECA:  MOVWF  FE9
04ECC:  MOVLW  05
04ECE:  ADDWFC 03,W
04ED0:  MOVWF  FEA
04ED2:  MOVFF  FEF,5ED
04ED6:  MOVF   xD5,W
04ED8:  MULLW  14
04EDA:  MOVFF  FF3,5EE
04EDE:  MOVFF  5ED,5EF
04EE2:  MOVFF  5EE,5F0
04EE6:  MOVLW  1E
04EE8:  MOVWF  xF1
04EEA:  MOVLW  01
04EEC:  MOVWF  xF2
04EEE:  MOVLB  0
04EF0:  RCALL  4C14
....................                }else{ 
04EF2:  BRA    4F26
04EF4:  MOVLB  4
....................                   displayContrasena(Contrasena[i-1],i*20,30,0); 
04EF6:  MOVLW  01
04EF8:  MOVLB  5
04EFA:  SUBWF  xD5,W
04EFC:  CLRF   03
04EFE:  ADDLW  09
04F00:  MOVWF  FE9
04F02:  MOVLW  05
04F04:  ADDWFC 03,W
04F06:  MOVWF  FEA
04F08:  MOVFF  FEF,5ED
04F0C:  MOVF   xD5,W
04F0E:  MULLW  14
04F10:  MOVFF  FF3,5EE
04F14:  MOVFF  5ED,5EF
04F18:  MOVFF  5EE,5F0
04F1C:  MOVLW  1E
04F1E:  MOVWF  xF1
04F20:  CLRF   xF2
04F22:  MOVLB  0
04F24:  RCALL  4C14
....................                } 
....................             } 
04F26:  MOVLB  5
04F28:  INCF   xD5,F
04F2A:  BRA    4E74
04F2C:  MOVLB  4
....................          } 
....................       }else{ 
04F2E:  BRA    4F32
....................          Flanco = 0; 
04F30:  BCF    x2D.0
....................       } 
....................              
....................       if(DOWN){ 
04F32:  BSF    F96.0
04F34:  BTFSC  F84.0
04F36:  BRA    5010
....................          flag_latencia=0;t_latencia=0; 
04F38:  BCF    x2E.6
04F3A:  CLRF   xE6
04F3C:  CLRF   xE5
....................          if(Flanco2 == 0){ 
04F3E:  BTFSC  x2D.2
04F40:  BRA    500E
....................             Flanco2 = 1;delay_ms(5); 
04F42:  BSF    x2D.2
04F44:  MOVLW  05
04F46:  MOVLB  5
04F48:  MOVWF  xF9
04F4A:  MOVLB  0
04F4C:  CALL   1394
....................             for(i=1;i<=4;i++){ 
04F50:  MOVLW  01
04F52:  MOVLB  5
04F54:  MOVWF  xD5
04F56:  MOVF   xD5,W
04F58:  SUBLW  04
04F5A:  BNC   500C
....................                if(unidad==i){ 
04F5C:  MOVF   xD5,W
04F5E:  MOVLB  4
04F60:  SUBWF  xD0,W
04F62:  BNZ   4FD6
....................                   Contrasena[i-1]--; 
04F64:  MOVLW  01
04F66:  MOVLB  5
04F68:  SUBWF  xD5,W
04F6A:  CLRF   03
04F6C:  ADDLW  09
04F6E:  MOVWF  FE9
04F70:  MOVLW  05
04F72:  ADDWFC 03,W
04F74:  MOVWF  FEA
04F76:  DECF   FEF,F
....................                   if(Contrasena[i-1]<0){ 
04F78:  MOVLW  01
04F7A:  SUBWF  xD5,W
04F7C:  CLRF   03
04F7E:  ADDLW  09
04F80:  MOVWF  FE9
04F82:  MOVLW  05
04F84:  ADDWFC 03,W
04F86:  MOVWF  FEA
04F88:  BTFSC  FEF.7
04F8A:  BRA    4F8E
04F8C:  BRA    4FA2
....................                      Contrasena[i-1]=9; 
04F8E:  MOVLW  01
04F90:  SUBWF  xD5,W
04F92:  CLRF   03
04F94:  ADDLW  09
04F96:  MOVWF  FE9
04F98:  MOVLW  05
04F9A:  ADDWFC 03,W
04F9C:  MOVWF  FEA
04F9E:  MOVLW  09
04FA0:  MOVWF  FEF
....................                   } 
....................                   displayContrasena(Contrasena[i-1],i*20,30,1); 
04FA2:  MOVLW  01
04FA4:  SUBWF  xD5,W
04FA6:  CLRF   03
04FA8:  ADDLW  09
04FAA:  MOVWF  FE9
04FAC:  MOVLW  05
04FAE:  ADDWFC 03,W
04FB0:  MOVWF  FEA
04FB2:  MOVFF  FEF,5ED
04FB6:  MOVF   xD5,W
04FB8:  MULLW  14
04FBA:  MOVFF  FF3,5EE
04FBE:  MOVFF  5ED,5EF
04FC2:  MOVFF  5EE,5F0
04FC6:  MOVLW  1E
04FC8:  MOVWF  xF1
04FCA:  MOVLW  01
04FCC:  MOVWF  xF2
04FCE:  MOVLB  0
04FD0:  RCALL  4C14
....................                }else{ 
04FD2:  BRA    5006
04FD4:  MOVLB  4
....................                   displayContrasena(Contrasena[i-1],i*20,30,0); 
04FD6:  MOVLW  01
04FD8:  MOVLB  5
04FDA:  SUBWF  xD5,W
04FDC:  CLRF   03
04FDE:  ADDLW  09
04FE0:  MOVWF  FE9
04FE2:  MOVLW  05
04FE4:  ADDWFC 03,W
04FE6:  MOVWF  FEA
04FE8:  MOVFF  FEF,5ED
04FEC:  MOVF   xD5,W
04FEE:  MULLW  14
04FF0:  MOVFF  FF3,5EE
04FF4:  MOVFF  5ED,5EF
04FF8:  MOVFF  5EE,5F0
04FFC:  MOVLW  1E
04FFE:  MOVWF  xF1
05000:  CLRF   xF2
05002:  MOVLB  0
05004:  RCALL  4C14
....................                } 
....................             }       
05006:  MOVLB  5
05008:  INCF   xD5,F
0500A:  BRA    4F56
0500C:  MOVLB  4
....................          }      
....................       }else{ 
0500E:  BRA    5012
....................          Flanco2 = 0; 
05010:  BCF    x2D.2
....................       } 
....................              
....................       if(RIGHT){ 
05012:  BSF    F96.1
05014:  BTFSC  F84.1
05016:  BRA    50B8
....................          flag_latencia=0;t_latencia=0; 
05018:  BCF    x2E.6
0501A:  CLRF   xE6
0501C:  CLRF   xE5
....................          if(Flanco1 == 0){ 
0501E:  BTFSC  x2D.1
05020:  BRA    50B6
....................             Flanco1 = 1;delay_ms(5);unidad++; 
05022:  BSF    x2D.1
05024:  MOVLW  05
05026:  MOVLB  5
05028:  MOVWF  xF9
0502A:  MOVLB  0
0502C:  CALL   1394
05030:  MOVLB  4
05032:  INCF   xD0,F
....................             for(i=1;i<=4;i++){ 
05034:  MOVLW  01
05036:  MOVLB  5
05038:  MOVWF  xD5
0503A:  MOVF   xD5,W
0503C:  SUBLW  04
0503E:  BNC   50B4
....................                if(unidad==i){ 
05040:  MOVF   xD5,W
05042:  MOVLB  4
05044:  SUBWF  xD0,W
05046:  BNZ   507E
....................                   displayContrasena(Contrasena[i-1],i*20,30,1); 
05048:  MOVLW  01
0504A:  MOVLB  5
0504C:  SUBWF  xD5,W
0504E:  CLRF   03
05050:  ADDLW  09
05052:  MOVWF  FE9
05054:  MOVLW  05
05056:  ADDWFC 03,W
05058:  MOVWF  FEA
0505A:  MOVFF  FEF,5ED
0505E:  MOVF   xD5,W
05060:  MULLW  14
05062:  MOVFF  FF3,5EE
05066:  MOVFF  5ED,5EF
0506A:  MOVFF  5EE,5F0
0506E:  MOVLW  1E
05070:  MOVWF  xF1
05072:  MOVLW  01
05074:  MOVWF  xF2
05076:  MOVLB  0
05078:  RCALL  4C14
....................                }else{ 
0507A:  BRA    50AE
0507C:  MOVLB  4
....................                   displayContrasena(Contrasena[i-1],i*20,30,0); 
0507E:  MOVLW  01
05080:  MOVLB  5
05082:  SUBWF  xD5,W
05084:  CLRF   03
05086:  ADDLW  09
05088:  MOVWF  FE9
0508A:  MOVLW  05
0508C:  ADDWFC 03,W
0508E:  MOVWF  FEA
05090:  MOVFF  FEF,5ED
05094:  MOVF   xD5,W
05096:  MULLW  14
05098:  MOVFF  FF3,5EE
0509C:  MOVFF  5ED,5EF
050A0:  MOVFF  5EE,5F0
050A4:  MOVLW  1E
050A6:  MOVWF  xF1
050A8:  CLRF   xF2
050AA:  MOVLB  0
050AC:  RCALL  4C14
....................                } 
....................             } 
050AE:  MOVLB  5
050B0:  INCF   xD5,F
050B2:  BRA    503A
050B4:  MOVLB  4
....................          } 
....................       }else{ 
050B6:  BRA    50BA
....................          Flanco1 = 0; 
050B8:  BCF    x2D.1
....................       } 
....................        
....................       if(LEFT){ 
050BA:  BSF    F96.2
050BC:  BTFSC  F84.2
050BE:  BRA    5108
....................          delay_ms(100); 
050C0:  MOVLW  64
050C2:  MOVLB  5
050C4:  MOVWF  xF9
050C6:  MOVLB  0
050C8:  CALL   1394
....................          if(LEFT){ 
050CC:  BSF    F96.2
050CE:  BTFSC  F84.2
050D0:  BRA    5106
....................             Menu=MenuAnt;glcd_fillScreen(OFF);n=0;Opcion=1;unidad=1; 
050D2:  MOVFF  5E6,4CF
050D6:  MOVLB  5
050D8:  CLRF   xED
050DA:  MOVLB  0
050DC:  CALL   1474
050E0:  MOVLB  4
050E2:  BCF    x2F.5
050E4:  MOVLW  01
050E6:  MOVWF  xD1
050E8:  MOVWF  xD0
....................             Contrasena[0]=0;Contrasena[1]=0;Contrasena[2]=0;Contrasena[3]=0; 
050EA:  MOVLB  5
050EC:  CLRF   x09
050EE:  CLRF   x0A
050F0:  CLRF   x0B
050F2:  CLRF   x0C
....................             glcd_fillScreen(OFF);glcd_update(); 
050F4:  CLRF   xED
050F6:  MOVLB  0
050F8:  CALL   1474
050FC:  CALL   14CE
....................             return 1; 
05100:  MOVLW  01
05102:  MOVWF  01
05104:  BRA    5494
05106:  MOVLB  4
....................          } 
....................       } 
....................      
....................       if(unidad>4){ 
05108:  MOVF   xD0,W
0510A:  SUBLW  04
0510C:  BTFSC  FD8.0
0510E:  BRA    5496
....................          glcd_fillScreen(OFF);unidad=1;flag_latencia=0;t_latencia=0; 
05110:  MOVLB  5
05112:  CLRF   xED
05114:  MOVLB  0
05116:  CALL   1474
0511A:  MOVLW  01
0511C:  MOVLB  4
0511E:  MOVWF  xD0
05120:  BCF    x2E.6
05122:  CLRF   xE6
05124:  CLRF   xE5
....................           
....................          if(Contrasena[0]==3&&Contrasena[1]==8&&Contrasena[2]==9&&Contrasena[3]==2 && MenuActual==0){ // Si Ingresa clave para reset general del sistema. 
05126:  MOVLB  5
05128:  MOVF   x09,W
0512A:  SUBLW  03
0512C:  BTFSS  FD8.2
0512E:  BRA    5222
05130:  MOVF   x0A,W
05132:  SUBLW  08
05134:  BTFSS  FD8.2
05136:  BRA    5222
05138:  MOVF   x0B,W
0513A:  SUBLW  09
0513C:  BNZ   5222
0513E:  MOVF   x0C,W
05140:  SUBLW  02
05142:  BNZ   5222
05144:  MOVF   xE7,F
05146:  BNZ   5222
....................             write_eeprom(0,0);delay_ms(20);write_eeprom(1,0);delay_ms(20);// Reestablece a contrasea de Fabrica y reinicia Programa. 
05148:  CLRF   FAA
0514A:  CLRF   FA9
0514C:  CLRF   FA8
0514E:  BCF    FA6.6
05150:  BCF    FA6.7
05152:  BSF    FA6.2
05154:  MOVF   FF2,W
05156:  MOVWF  00
05158:  BCF    FF2.7
0515A:  MOVLB  F
0515C:  MOVLW  55
0515E:  MOVWF  FA7
05160:  MOVLW  AA
05162:  MOVWF  FA7
05164:  BSF    FA6.1
05166:  BTFSC  FA6.1
05168:  BRA    5166
0516A:  BCF    FA6.2
0516C:  MOVF   00,W
0516E:  IORWF  FF2,F
05170:  MOVLW  14
05172:  MOVLB  5
05174:  MOVWF  xF9
05176:  MOVLB  0
05178:  CALL   1394
0517C:  CLRF   FAA
0517E:  MOVLW  01
05180:  MOVWF  FA9
05182:  CLRF   FA8
05184:  BCF    FA6.6
05186:  BCF    FA6.7
05188:  BSF    FA6.2
0518A:  MOVF   FF2,W
0518C:  MOVWF  00
0518E:  BCF    FF2.7
05190:  MOVLB  F
05192:  MOVLW  55
05194:  MOVWF  FA7
05196:  MOVLW  AA
05198:  MOVWF  FA7
0519A:  BSF    FA6.1
0519C:  BTFSC  FA6.1
0519E:  BRA    519C
051A0:  BCF    FA6.2
051A2:  MOVF   00,W
051A4:  IORWF  FF2,F
051A6:  MOVLW  14
051A8:  MOVLB  5
051AA:  MOVWF  xF9
051AC:  MOVLB  0
051AE:  CALL   1394
....................             write_eeprom(2,0);delay_ms(20);write_eeprom(3,0);delay_ms(20); 
051B2:  CLRF   FAA
051B4:  MOVLW  02
051B6:  MOVWF  FA9
051B8:  CLRF   FA8
051BA:  BCF    FA6.6
051BC:  BCF    FA6.7
051BE:  BSF    FA6.2
051C0:  MOVF   FF2,W
051C2:  MOVWF  00
051C4:  BCF    FF2.7
051C6:  MOVLB  F
051C8:  MOVLW  55
051CA:  MOVWF  FA7
051CC:  MOVLW  AA
051CE:  MOVWF  FA7
051D0:  BSF    FA6.1
051D2:  BTFSC  FA6.1
051D4:  BRA    51D2
051D6:  BCF    FA6.2
051D8:  MOVF   00,W
051DA:  IORWF  FF2,F
051DC:  MOVLW  14
051DE:  MOVLB  5
051E0:  MOVWF  xF9
051E2:  MOVLB  0
051E4:  CALL   1394
051E8:  CLRF   FAA
051EA:  MOVLW  03
051EC:  MOVWF  FA9
051EE:  CLRF   FA8
051F0:  BCF    FA6.6
051F2:  BCF    FA6.7
051F4:  BSF    FA6.2
051F6:  MOVF   FF2,W
051F8:  MOVWF  00
051FA:  BCF    FF2.7
051FC:  MOVLB  F
051FE:  MOVLW  55
05200:  MOVWF  FA7
05202:  MOVLW  AA
05204:  MOVWF  FA7
05206:  BSF    FA6.1
05208:  BTFSC  FA6.1
0520A:  BRA    5208
0520C:  BCF    FA6.2
0520E:  MOVF   00,W
05210:  IORWF  FF2,F
05212:  MOVLW  14
05214:  MOVLB  5
05216:  MOVWF  xF9
05218:  MOVLB  0
0521A:  CALL   1394
....................             reset_cpu(); 
0521E:  RESET
05220:  MOVLB  5
....................          } 
....................        
....................          if((Contrasena[0]==clave0)&&(Contrasena[1]==clave1)&&(Contrasena[2]==clave2)&&(Contrasena[3]==clave3)){ 
05222:  MOVF   xE9,W
05224:  SUBWF  x09,W
05226:  BTFSS  FD8.2
05228:  BRA    530A
0522A:  MOVF   xEA,W
0522C:  SUBWF  x0A,W
0522E:  BNZ   530A
05230:  MOVF   xEB,W
05232:  SUBWF  x0B,W
05234:  BNZ   530A
05236:  MOVF   xEC,W
05238:  SUBWF  x0C,W
0523A:  BNZ   530A
....................             glcd_fillScreen(OFF); 
0523C:  CLRF   xED
0523E:  MOVLB  0
05240:  CALL   1474
....................             strcpy(Menus.Letra,"Clave"); 
05244:  MOVLW  04
05246:  MOVWF  FEA
05248:  MOVLW  17
0524A:  MOVWF  FE9
0524C:  MOVFF  FF2,5ED
05250:  BCF    FF2.7
05252:  MOVLW  00
05254:  CALL   0F0A
05258:  TBLRD*-
0525A:  TBLRD*+
0525C:  MOVF   FF5,W
0525E:  MOVWF  FEE
05260:  IORLW  00
05262:  BNZ   525A
05264:  MOVLB  5
05266:  BTFSC  xED.7
05268:  BSF    FF2.7
....................             displayMenu(Menus.Letra,30,0,0,2); 
0526A:  MOVLW  04
0526C:  MOVWF  xEE
0526E:  MOVLW  17
05270:  MOVWF  xED
05272:  MOVLW  1E
05274:  MOVWF  xEF
05276:  CLRF   xF0
05278:  CLRF   xF1
0527A:  MOVLW  02
0527C:  MOVWF  xF2
0527E:  MOVLB  0
05280:  RCALL  4CDC
....................             strcpy(Menus.Letra,"Correcta"); 
05282:  MOVLW  04
05284:  MOVWF  FEA
05286:  MOVLW  17
05288:  MOVWF  FE9
0528A:  MOVFF  FF2,5ED
0528E:  BCF    FF2.7
05290:  MOVLW  00
05292:  CALL   0F2E
05296:  TBLRD*-
05298:  TBLRD*+
0529A:  MOVF   FF5,W
0529C:  MOVWF  FEE
0529E:  IORLW  00
052A0:  BNZ   5298
052A2:  MOVLB  5
052A4:  BTFSC  xED.7
052A6:  BSF    FF2.7
....................             displayMenu(Menus.Letra,15,30,0,2); 
052A8:  MOVLW  04
052AA:  MOVWF  xEE
052AC:  MOVLW  17
052AE:  MOVWF  xED
052B0:  MOVLW  0F
052B2:  MOVWF  xEF
052B4:  MOVLW  1E
052B6:  MOVWF  xF0
052B8:  CLRF   xF1
052BA:  MOVLW  02
052BC:  MOVWF  xF2
052BE:  MOVLB  0
052C0:  RCALL  4CDC
....................             Menu=MenuPost;glcd_update();delay_ms(1000);glcd_fillScreen(OFF); 
052C2:  MOVFF  5E8,4CF
052C6:  CALL   14CE
052CA:  MOVLW  04
052CC:  MOVLB  5
052CE:  MOVWF  xED
052D0:  MOVLW  FA
052D2:  MOVWF  xF9
052D4:  MOVLB  0
052D6:  CALL   1394
052DA:  MOVLB  5
052DC:  DECFSZ xED,F
052DE:  BRA    52D0
052E0:  CLRF   xED
052E2:  MOVLB  0
052E4:  CALL   1474
....................             Contrasena[0]=0;Contrasena[1]=0;Contrasena[2]=0;Contrasena[3]=0; 
052E8:  MOVLB  5
052EA:  CLRF   x09
052EC:  CLRF   x0A
052EE:  CLRF   x0B
052F0:  CLRF   x0C
....................             if(MenuActual==0)tiempo_purga=1;n=0; 
052F2:  MOVF   xE7,F
052F4:  BNZ   52FA
052F6:  MOVLB  4
052F8:  BSF    x2E.4
052FA:  MOVLB  4
052FC:  BCF    x2F.5
....................             return 1; 
052FE:  MOVLW  01
05300:  MOVWF  01
05302:  MOVLB  0
05304:  BRA    5494
....................          }else{ 
05306:  BRA    5494
05308:  MOVLB  5
....................             glcd_fillScreen(OFF); 
0530A:  CLRF   xED
0530C:  MOVLB  0
0530E:  CALL   1474
....................             strcpy(Menus.Letra,"Clave"); 
05312:  MOVLW  04
05314:  MOVWF  FEA
05316:  MOVLW  17
05318:  MOVWF  FE9
0531A:  MOVFF  FF2,5ED
0531E:  BCF    FF2.7
05320:  MOVLW  00
05322:  CALL   0F0A
05326:  TBLRD*-
05328:  TBLRD*+
0532A:  MOVF   FF5,W
0532C:  MOVWF  FEE
0532E:  IORLW  00
05330:  BNZ   5328
05332:  MOVLB  5
05334:  BTFSC  xED.7
05336:  BSF    FF2.7
....................             displayMenu(Menus.Letra,30,0,0,2); 
05338:  MOVLW  04
0533A:  MOVWF  xEE
0533C:  MOVLW  17
0533E:  MOVWF  xED
05340:  MOVLW  1E
05342:  MOVWF  xEF
05344:  CLRF   xF0
05346:  CLRF   xF1
05348:  MOVLW  02
0534A:  MOVWF  xF2
0534C:  MOVLB  0
0534E:  RCALL  4CDC
....................             strcpy(Menus.Letra,"Incorrecta"); 
05350:  MOVLW  04
05352:  MOVWF  FEA
05354:  MOVLW  17
05356:  MOVWF  FE9
05358:  MOVFF  FF2,5ED
0535C:  BCF    FF2.7
0535E:  MOVLW  00
05360:  CALL   0F56
05364:  TBLRD*-
05366:  TBLRD*+
05368:  MOVF   FF5,W
0536A:  MOVWF  FEE
0536C:  IORLW  00
0536E:  BNZ   5366
05370:  MOVLB  5
05372:  BTFSC  xED.7
05374:  BSF    FF2.7
....................             displayMenu(Menus.Letra,0,30,0,2); 
05376:  MOVLW  04
05378:  MOVWF  xEE
0537A:  MOVLW  17
0537C:  MOVWF  xED
0537E:  CLRF   xEF
05380:  MOVLW  1E
05382:  MOVWF  xF0
05384:  CLRF   xF1
05386:  MOVLW  02
05388:  MOVWF  xF2
0538A:  MOVLB  0
0538C:  RCALL  4CDC
....................             unidad=1;glcd_update();delay_ms(1000);Contrasena[0]=0;Contrasena[1]=0;Contrasena[2]=0;Contrasena[3]=0;glcd_fillScreen(OFF); 
0538E:  MOVLW  01
05390:  MOVLB  4
05392:  MOVWF  xD0
05394:  MOVLB  0
05396:  CALL   14CE
0539A:  MOVLW  04
0539C:  MOVLB  5
0539E:  MOVWF  xED
053A0:  MOVLW  FA
053A2:  MOVWF  xF9
053A4:  MOVLB  0
053A6:  CALL   1394
053AA:  MOVLB  5
053AC:  DECFSZ xED,F
053AE:  BRA    53A0
053B0:  CLRF   x09
053B2:  CLRF   x0A
053B4:  CLRF   x0B
053B6:  CLRF   x0C
053B8:  CLRF   xED
053BA:  MOVLB  0
053BC:  CALL   1474
....................             glcd_rect(0, 0, 127, 25, YES, ON);strcpy(Menus.Letra,"Clave");glcd_text57(25, 1, Menus.Letra, 3, OFF);displayContrasena(Contrasena[0],20,30,1); 
053C0:  MOVLB  5
053C2:  CLRF   xFE
053C4:  CLRF   xFF
053C6:  MOVLW  7F
053C8:  MOVLB  6
053CA:  MOVWF  x00
053CC:  MOVLW  19
053CE:  MOVWF  x01
053D0:  MOVLW  01
053D2:  MOVWF  x02
053D4:  MOVWF  x03
053D6:  MOVLB  0
053D8:  CALL   4B48
053DC:  MOVLW  04
053DE:  MOVWF  FEA
053E0:  MOVLW  17
053E2:  MOVWF  FE9
053E4:  MOVFF  FF2,5ED
053E8:  BCF    FF2.7
053EA:  MOVLW  00
053EC:  CALL   0F0A
053F0:  TBLRD*-
053F2:  TBLRD*+
053F4:  MOVF   FF5,W
053F6:  MOVWF  FEE
053F8:  IORLW  00
053FA:  BNZ   53F2
053FC:  MOVLB  5
053FE:  BTFSC  xED.7
05400:  BSF    FF2.7
05402:  MOVLW  19
05404:  MOVWF  xFE
05406:  MOVLW  01
05408:  MOVWF  xFF
0540A:  MOVLW  04
0540C:  MOVLB  6
0540E:  MOVWF  x01
05410:  MOVLW  17
05412:  MOVWF  x00
05414:  MOVLW  03
05416:  MOVWF  x02
05418:  CLRF   x03
0541A:  MOVLB  0
0541C:  CALL   16EA
05420:  MOVFF  509,5EF
05424:  MOVLW  14
05426:  MOVLB  5
05428:  MOVWF  xF0
0542A:  MOVLW  1E
0542C:  MOVWF  xF1
0542E:  MOVLW  01
05430:  MOVWF  xF2
05432:  MOVLB  0
05434:  CALL   4C14
....................             displayContrasena(Contrasena[1],40,30,0);displayContrasena(Contrasena[2],60,30,0);displayContrasena(Contrasena[0],80,30,0); 
05438:  MOVFF  50A,5EF
0543C:  MOVLW  28
0543E:  MOVLB  5
05440:  MOVWF  xF0
05442:  MOVLW  1E
05444:  MOVWF  xF1
05446:  CLRF   xF2
05448:  MOVLB  0
0544A:  CALL   4C14
0544E:  MOVFF  50B,5EF
05452:  MOVLW  3C
05454:  MOVLB  5
05456:  MOVWF  xF0
05458:  MOVLW  1E
0545A:  MOVWF  xF1
0545C:  CLRF   xF2
0545E:  MOVLB  0
05460:  CALL   4C14
05464:  MOVFF  509,5EF
05468:  MOVLW  50
0546A:  MOVLB  5
0546C:  MOVWF  xF0
0546E:  MOVLW  1E
05470:  MOVWF  xF1
05472:  CLRF   xF2
05474:  MOVLB  0
05476:  CALL   4C14
....................             Menu=MenuAnt;glcd_fillScreen(OFF);n=0; 
0547A:  MOVFF  5E6,4CF
0547E:  MOVLB  5
05480:  CLRF   xED
05482:  MOVLB  0
05484:  CALL   1474
05488:  MOVLB  4
0548A:  BCF    x2F.5
....................             return 0; 
0548C:  MOVLW  00
0548E:  MOVWF  01
05490:  MOVLB  0
05492:  BRA    5494
05494:  MOVLB  4
....................          } 
....................       } 
.................... } 
05496:  MOVLB  0
05498:  RETLW  00
....................  
....................  
.................... #int_EXT            // Interrupcin de encoder para control. 
.................... void ext0() {       // 6 pulsos por vuelta. 
....................    pulsos++; 
*
012D2:  MOVLB  5
012D4:  INCF   xD1,F
012D6:  BTFSC  FD8.2
012D8:  INCF   xD2,F
....................    if(pulsos>=120){ 
012DA:  MOVF   xD2,F
012DC:  BNZ   12E4
012DE:  MOVF   xD1,W
012E0:  SUBLW  77
012E2:  BC    133C
....................       pulsos=0; 
012E4:  CLRF   xD2
012E6:  CLRF   xD1
....................       imprimir=1;Lectura=1;tiemporeset++; 
012E8:  MOVLB  4
012EA:  BSF    x2D.6
012EC:  BSF    x2F.4
012EE:  INCF   xD5,F
....................     
....................       if(flag_blower==1) 
012F0:  BTFSS  x2D.7
012F2:  BRA    12FA
....................          minutos_trabajo++;  
012F4:  INCF   xE9,F
012F6:  BTFSC  FD8.2
012F8:  INCF   xEA,F
....................    
....................       if(tiempo_purga==1 || Purga){                   
012FA:  BTFSC  x2E.4
012FC:  BRA    1302
012FE:  BTFSS  x2F.7
01300:  BRA    133A
....................          Tpurga[0]++; 
01302:  INCF   xED,F
....................          if(Tpurga[0]>9){ 
01304:  BTFSC  xED.7
01306:  BRA    1312
01308:  MOVF   xED,W
0130A:  SUBLW  09
0130C:  BC    1312
....................             Tpurga[0]=0; 
0130E:  CLRF   xED
....................             Tpurga[1]++; 
01310:  INCF   xEE,F
....................          } 
....................          if(Tpurga[1]>5){ 
01312:  BTFSC  xEE.7
01314:  BRA    1320
01316:  MOVF   xEE,W
01318:  SUBLW  05
0131A:  BC    1320
....................             Tpurga[1]=0; 
0131C:  CLRF   xEE
....................             Tpurga[2]++; 
0131E:  INCF   xEF,F
....................          } 
....................          if(Tpurga[2]>9){ 
01320:  BTFSC  xEF.7
01322:  BRA    132E
01324:  MOVF   xEF,W
01326:  SUBLW  09
01328:  BC    132E
....................             Tpurga[2]=0; 
0132A:  CLRF   xEF
....................             Tpurga[3]++; 
0132C:  INCF   xF0,F
....................          } 
....................          if(Tpurga[3]>5){ 
0132E:  BTFSC  xF0.7
01330:  BRA    133A
01332:  MOVF   xF0,W
01334:  SUBLW  05
01336:  BC    133A
....................             Tpurga[3]=0; 
01338:  CLRF   xF0
0133A:  MOVLB  5
....................          } 
....................       }  
....................    } 
....................    tiempocruce=0; 
0133C:  CLRF   xDA
0133E:  CLRF   xD9
....................    Cruce=ON; 
01340:  MOVLB  4
01342:  BSF    x2F.6
....................    if(VelMotor<6){ 
01344:  MOVLB  5
01346:  MOVF   xDC,W
01348:  SUBLW  05
0134A:  BNC   138C
....................       if(VelMotor>0 && Porcentaje<100){ 
0134C:  MOVF   xDC,F
0134E:  BZ    1388
01350:  MOVF   xDB,W
01352:  SUBLW  63
01354:  BNC   1388
....................          delay_us(retardo);       
01356:  MOVFF  5D4,632
0135A:  MOVLB  6
0135C:  INCF   x32,F
0135E:  DECF   x32,F
01360:  BTFSC  FD8.2
01362:  BRA    1370
01364:  MOVLW  FF
01366:  MOVWF  x33
01368:  MOVLB  0
0136A:  RCALL  12B2
0136C:  MOVLB  6
0136E:  BRA    135E
01370:  MOVFF  5D3,633
01374:  MOVLB  0
01376:  RCALL  12B2
....................          Motor_on; 
01378:  BSF    F8B.2
0137A:  BCF    F94.2
....................          delay_us(100);       
0137C:  MOVLW  A6
0137E:  MOVWF  00
01380:  DECFSZ 00,F
01382:  BRA    1380
01384:  NOP   
01386:  MOVLB  5
....................       } 
....................       Motor_off; 
01388:  BCF    F8B.2
0138A:  BCF    F94.2
....................    } 
.................... } 
....................  
0138C:  BCF    FF2.1
0138E:  MOVLB  0
01390:  GOTO   0058
.................... void glcd_imagen(int8 x) 
.................... { 
....................    char i,j; 
....................    signed char k;  
....................       
....................    if(x==3){ 
*
05C94:  MOVLB  5
05C96:  MOVF   xE5,W
05C98:  SUBLW  03
05C9A:  BNZ   5D42
....................    for( i = 0 ; i < 64 ; i ++ ) 
05C9C:  CLRF   xE6
05C9E:  MOVF   xE6,W
05CA0:  SUBLW  3F
05CA2:  BNC   5D42
....................    {  for( j = 0 ; j < 16 ; j ++) 
05CA4:  CLRF   xE7
05CA6:  MOVF   xE7,W
05CA8:  SUBLW  0F
05CAA:  BNC   5D3E
....................       {  for(k=7;k>-1;k--) 
05CAC:  MOVLW  07
05CAE:  MOVWF  xE8
05CB0:  MOVF   xE8,W
05CB2:  XORLW  80
05CB4:  SUBLW  7F
05CB6:  BC    5D3A
....................          {       
....................             if( bit_test(Bombillo[i][j] ,7-k ))  
05CB8:  CLRF   xEA
05CBA:  MOVFF  5E6,5E9
05CBE:  CLRF   xEC
05CC0:  MOVLW  10
05CC2:  MOVWF  xEB
05CC4:  MOVLB  0
05CC6:  RCALL  5C72
05CC8:  MOVFF  02,5EA
05CCC:  MOVFF  01,5E9
05CD0:  MOVLB  5
05CD2:  MOVF   xE7,W
05CD4:  ADDWF  01,W
05CD6:  MOVWF  01
05CD8:  MOVLW  00
05CDA:  ADDWFC 02,W
05CDC:  MOVWF  03
05CDE:  MOVF   01,W
05CE0:  MOVFF  FF2,5E9
05CE4:  BCF    FF2.7
05CE6:  MOVFF  03,FF7
05CEA:  MOVLB  0
05CEC:  CALL   02B6
05CF0:  MOVLB  5
05CF2:  BTFSC  xE9.7
05CF4:  BSF    FF2.7
05CF6:  MOVWF  xE9
05CF8:  MOVLW  07
05CFA:  BSF    FD8.0
05CFC:  SUBFWB xE8,W
05CFE:  MOVWF  xEA
05D00:  MOVFF  5E9,00
05D04:  MOVF   xEA,W
05D06:  MOVWF  01
05D08:  BZ    5D12
05D0A:  BCF    FD8.0
05D0C:  RRCF   00,F
05D0E:  DECFSZ 01,F
05D10:  BRA    5D0A
05D12:  BTFSS  00.0
05D14:  BRA    5D36
....................                glcd_pixel( j*8+k,i, ON ); 
05D16:  MOVF   xE7,W
05D18:  MULLW  08
05D1A:  MOVF   FF3,W
05D1C:  ADDWF  xE8,W
05D1E:  MOVWF  xE9
05D20:  MOVFF  FE8,619
05D24:  MOVFF  5E6,61A
05D28:  MOVLW  01
05D2A:  MOVLB  6
05D2C:  MOVWF  x1B
05D2E:  MOVLB  0
05D30:  CALL   162E
05D34:  MOVLB  5
....................          }   
05D36:  DECF   xE8,F
05D38:  BRA    5CB0
....................       } 
05D3A:  INCF   xE7,F
05D3C:  BRA    5CA6
....................    } 
05D3E:  INCF   xE6,F
05D40:  BRA    5C9E
....................    } 
....................     
....................    if(x==4){ 
05D42:  MOVF   xE5,W
05D44:  SUBLW  04
05D46:  BNZ   5DEE
....................    for( i = 0 ; i < 64 ; i ++ ) 
05D48:  CLRF   xE6
05D4A:  MOVF   xE6,W
05D4C:  SUBLW  3F
05D4E:  BNC   5DEE
....................    {  for( j = 0 ; j < 16 ; j ++) 
05D50:  CLRF   xE7
05D52:  MOVF   xE7,W
05D54:  SUBLW  0F
05D56:  BNC   5DEA
....................       {  for(k=7;k>-1;k--) 
05D58:  MOVLW  07
05D5A:  MOVWF  xE8
05D5C:  MOVF   xE8,W
05D5E:  XORLW  80
05D60:  SUBLW  7F
05D62:  BC    5DE6
....................          {       
....................             if( bit_test(Tomai[i][j] ,7-k ))  
05D64:  CLRF   xEA
05D66:  MOVFF  5E6,5E9
05D6A:  CLRF   xEC
05D6C:  MOVLW  10
05D6E:  MOVWF  xEB
05D70:  MOVLB  0
05D72:  RCALL  5C72
05D74:  MOVFF  02,5EA
05D78:  MOVFF  01,5E9
05D7C:  MOVLB  5
05D7E:  MOVF   xE7,W
05D80:  ADDWF  01,W
05D82:  MOVWF  01
05D84:  MOVLW  00
05D86:  ADDWFC 02,W
05D88:  MOVWF  03
05D8A:  MOVF   01,W
05D8C:  MOVFF  FF2,5E9
05D90:  BCF    FF2.7
05D92:  MOVFF  03,FF7
05D96:  MOVLB  0
05D98:  CALL   06D2
05D9C:  MOVLB  5
05D9E:  BTFSC  xE9.7
05DA0:  BSF    FF2.7
05DA2:  MOVWF  xE9
05DA4:  MOVLW  07
05DA6:  BSF    FD8.0
05DA8:  SUBFWB xE8,W
05DAA:  MOVWF  xEA
05DAC:  MOVFF  5E9,00
05DB0:  MOVF   xEA,W
05DB2:  MOVWF  01
05DB4:  BZ    5DBE
05DB6:  BCF    FD8.0
05DB8:  RRCF   00,F
05DBA:  DECFSZ 01,F
05DBC:  BRA    5DB6
05DBE:  BTFSS  00.0
05DC0:  BRA    5DE2
....................                glcd_pixel( j*8+k,i, ON ); 
05DC2:  MOVF   xE7,W
05DC4:  MULLW  08
05DC6:  MOVF   FF3,W
05DC8:  ADDWF  xE8,W
05DCA:  MOVWF  xE9
05DCC:  MOVFF  FE8,619
05DD0:  MOVFF  5E6,61A
05DD4:  MOVLW  01
05DD6:  MOVLB  6
05DD8:  MOVWF  x1B
05DDA:  MOVLB  0
05DDC:  CALL   162E
05DE0:  MOVLB  5
....................          }   
05DE2:  DECF   xE8,F
05DE4:  BRA    5D5C
....................       } 
05DE6:  INCF   xE7,F
05DE8:  BRA    5D52
....................    } 
05DEA:  INCF   xE6,F
05DEC:  BRA    5D4A
....................    } 
....................     
....................    if(x==5){ 
05DEE:  MOVF   xE5,W
05DF0:  SUBLW  05
05DF2:  BNZ   5E9A
....................    for( i = 0 ; i < 64 ; i ++ ) 
05DF4:  CLRF   xE6
05DF6:  MOVF   xE6,W
05DF8:  SUBLW  3F
05DFA:  BNC   5E9A
....................    {  for( j = 0 ; j < 16 ; j ++) 
05DFC:  CLRF   xE7
05DFE:  MOVF   xE7,W
05E00:  SUBLW  0F
05E02:  BNC   5E96
....................       {  for(k=7;k>-1;k--) 
05E04:  MOVLW  07
05E06:  MOVWF  xE8
05E08:  MOVF   xE8,W
05E0A:  XORLW  80
05E0C:  SUBLW  7F
05E0E:  BC    5E92
....................          {       
....................             if( bit_test(Ventilador[i][j] ,7-k ))  
05E10:  CLRF   xEA
05E12:  MOVFF  5E6,5E9
05E16:  CLRF   xEC
05E18:  MOVLW  10
05E1A:  MOVWF  xEB
05E1C:  MOVLB  0
05E1E:  RCALL  5C72
05E20:  MOVFF  02,5EA
05E24:  MOVFF  01,5E9
05E28:  MOVLB  5
05E2A:  MOVF   xE7,W
05E2C:  ADDWF  01,W
05E2E:  MOVWF  01
05E30:  MOVLW  00
05E32:  ADDWFC 02,W
05E34:  MOVWF  03
05E36:  MOVF   01,W
05E38:  MOVFF  FF2,5E9
05E3C:  BCF    FF2.7
05E3E:  MOVFF  03,FF7
05E42:  MOVLB  0
05E44:  CALL   0AEE
05E48:  MOVLB  5
05E4A:  BTFSC  xE9.7
05E4C:  BSF    FF2.7
05E4E:  MOVWF  xE9
05E50:  MOVLW  07
05E52:  BSF    FD8.0
05E54:  SUBFWB xE8,W
05E56:  MOVWF  xEA
05E58:  MOVFF  5E9,00
05E5C:  MOVF   xEA,W
05E5E:  MOVWF  01
05E60:  BZ    5E6A
05E62:  BCF    FD8.0
05E64:  RRCF   00,F
05E66:  DECFSZ 01,F
05E68:  BRA    5E62
05E6A:  BTFSS  00.0
05E6C:  BRA    5E8E
....................                glcd_pixel( j*8+k,i, ON ); 
05E6E:  MOVF   xE7,W
05E70:  MULLW  08
05E72:  MOVF   FF3,W
05E74:  ADDWF  xE8,W
05E76:  MOVWF  xE9
05E78:  MOVFF  FE8,619
05E7C:  MOVFF  5E6,61A
05E80:  MOVLW  01
05E82:  MOVLB  6
05E84:  MOVWF  x1B
05E86:  MOVLB  0
05E88:  CALL   162E
05E8C:  MOVLB  5
....................          }   
05E8E:  DECF   xE8,F
05E90:  BRA    5E08
....................       } 
05E92:  INCF   xE7,F
05E94:  BRA    5DFE
....................    } 
05E96:  INCF   xE6,F
05E98:  BRA    5DF6
....................    } 
.................... } 
05E9A:  MOVLB  0
05E9C:  RETLW  00
....................  
....................  
.................... Float LeerFlujoInFlow(int media) 
.................... { 
....................     InFlow_adc=sensores(1); 
*
0411A:  MOVLW  01
0411C:  MOVLB  5
0411E:  MOVWF  xF6
04120:  MOVLB  0
04122:  CALL   2E58
04126:  MOVFF  02,4DE
0412A:  MOVFF  01,4DD
....................        
....................     if(negativo==10) 
0412E:  MOVLB  4
04130:  MOVF   xD2,W
04132:  SUBLW  0A
04134:  BNZ   417C
....................     { 
....................       x_uno=Inflow_adc+Diferencia; 
04136:  MOVFF  4DE,61B
0413A:  MOVFF  4DD,61A
0413E:  MOVLB  0
04140:  CALL   18BE
04144:  BCF    FD8.1
04146:  MOVFF  03,61D
0414A:  MOVFF  02,61C
0414E:  MOVFF  01,61B
04152:  MOVFF  00,61A
04156:  MOVFF  520,621
0415A:  MOVFF  51F,620
0415E:  MOVFF  51E,61F
04162:  MOVFF  51D,61E
04166:  CALL   1A52
0416A:  MOVFF  03,530
0416E:  MOVFF  02,52F
04172:  MOVFF  01,52E
04176:  MOVFF  00,52D
0417A:  MOVLB  4
....................     } 
....................     if(negativo==20) 
0417C:  MOVF   xD2,W
0417E:  SUBLW  14
04180:  BNZ   41C6
....................     { 
....................       x_uno=Inflow_adc-Diferencia; 
04182:  MOVFF  4DE,61B
04186:  MOVFF  4DD,61A
0418A:  MOVLB  0
0418C:  CALL   18BE
04190:  BSF    FD8.1
04192:  MOVFF  03,61D
04196:  MOVFF  02,61C
0419A:  MOVFF  01,61B
0419E:  MOVFF  00,61A
041A2:  MOVFF  520,621
041A6:  MOVFF  51F,620
041AA:  MOVFF  51E,61F
041AE:  MOVFF  51D,61E
041B2:  CALL   1A52
041B6:  MOVFF  03,530
041BA:  MOVFF  02,52F
041BE:  MOVFF  01,52E
041C2:  MOVFF  00,52D
....................     } 
....................     Velocidad=(pow(x_uno,3)*a)+(pow(x_uno,2)*b)+(x_uno*c)+(d); 
041C6:  MOVFF  530,5ED
041CA:  MOVFF  52F,5EC
041CE:  MOVFF  52E,5EB
041D2:  MOVFF  52D,5EA
041D6:  MOVLB  5
041D8:  CLRF   xF1
041DA:  CLRF   xF0
041DC:  MOVLW  40
041DE:  MOVWF  xEF
041E0:  MOVLW  80
041E2:  MOVWF  xEE
041E4:  MOVLB  0
041E6:  RCALL  3E0E
041E8:  MOVFF  00,5E6
041EC:  MOVFF  01,5E7
041F0:  MOVFF  02,5E8
041F4:  MOVFF  03,5E9
041F8:  MOVFF  03,619
041FC:  MOVFF  02,618
04200:  MOVFF  01,617
04204:  MOVFF  00,616
04208:  MOVFF  54C,61D
0420C:  MOVFF  54B,61C
04210:  MOVFF  54A,61B
04214:  MOVFF  549,61A
04218:  CALL   2ED2
0421C:  MOVFF  00,5E6
04220:  MOVFF  01,5E7
04224:  MOVFF  02,5E8
04228:  MOVFF  03,5E9
0422C:  MOVFF  530,5ED
04230:  MOVFF  52F,5EC
04234:  MOVFF  52E,5EB
04238:  MOVFF  52D,5EA
0423C:  MOVLB  5
0423E:  CLRF   xF1
04240:  CLRF   xF0
04242:  CLRF   xEF
04244:  MOVLW  80
04246:  MOVWF  xEE
04248:  MOVLB  0
0424A:  RCALL  3E0E
0424C:  MOVFF  00,5EA
04250:  MOVFF  01,5EB
04254:  MOVFF  02,5EC
04258:  MOVFF  03,5ED
0425C:  MOVFF  03,619
04260:  MOVFF  02,618
04264:  MOVFF  01,617
04268:  MOVFF  00,616
0426C:  MOVFF  550,61D
04270:  MOVFF  54F,61C
04274:  MOVFF  54E,61B
04278:  MOVFF  54D,61A
0427C:  CALL   2ED2
04280:  MOVFF  FEA,5EB
04284:  MOVFF  FE9,5EA
04288:  BCF    FD8.1
0428A:  MOVFF  5E9,61D
0428E:  MOVFF  5E8,61C
04292:  MOVFF  5E7,61B
04296:  MOVFF  5E6,61A
0429A:  MOVFF  03,621
0429E:  MOVFF  02,620
042A2:  MOVFF  01,61F
042A6:  MOVFF  00,61E
042AA:  CALL   1A52
042AE:  MOVFF  5EB,FEA
042B2:  MOVFF  5EA,FE9
042B6:  MOVFF  00,5E6
042BA:  MOVFF  01,5E7
042BE:  MOVFF  02,5E8
042C2:  MOVFF  03,5E9
042C6:  MOVFF  530,619
042CA:  MOVFF  52F,618
042CE:  MOVFF  52E,617
042D2:  MOVFF  52D,616
042D6:  MOVFF  554,61D
042DA:  MOVFF  553,61C
042DE:  MOVFF  552,61B
042E2:  MOVFF  551,61A
042E6:  CALL   2ED2
042EA:  MOVFF  FEA,5ED
042EE:  MOVFF  FE9,5EC
042F2:  BCF    FD8.1
042F4:  MOVFF  5E9,61D
042F8:  MOVFF  5E8,61C
042FC:  MOVFF  5E7,61B
04300:  MOVFF  5E6,61A
04304:  MOVFF  03,621
04308:  MOVFF  02,620
0430C:  MOVFF  01,61F
04310:  MOVFF  00,61E
04314:  CALL   1A52
04318:  MOVFF  5ED,FEA
0431C:  MOVFF  5EC,FE9
04320:  MOVFF  00,5E6
04324:  MOVFF  01,5E7
04328:  MOVFF  02,5E8
0432C:  MOVFF  03,5E9
04330:  MOVFF  FEA,5EF
04334:  MOVFF  FE9,5EE
04338:  BCF    FD8.1
0433A:  MOVFF  03,61D
0433E:  MOVFF  02,61C
04342:  MOVFF  01,61B
04346:  MOVFF  00,61A
0434A:  MOVFF  558,621
0434E:  MOVFF  557,620
04352:  MOVFF  556,61F
04356:  MOVFF  555,61E
0435A:  CALL   1A52
0435E:  MOVFF  5EF,FEA
04362:  MOVFF  5EE,FE9
04366:  MOVFF  03,52C
0436A:  MOVFF  02,52B
0436E:  MOVFF  01,52A
04372:  MOVFF  00,529
....................     //Velocidad=Velocidad*correccion;//Ajuste de Temperatura 
....................      
....................     if(Velocidad<0.0) 
04376:  MOVFF  52C,619
0437A:  MOVFF  52B,618
0437E:  MOVFF  52A,617
04382:  MOVFF  529,616
04386:  MOVLB  6
04388:  CLRF   x1D
0438A:  CLRF   x1C
0438C:  CLRF   x1B
0438E:  CLRF   x1A
04390:  MOVLB  0
04392:  CALL   2452
04396:  BNC   43A2
....................      {Velocidad=0.0;} 
04398:  MOVLB  5
0439A:  CLRF   x2C
0439C:  CLRF   x2B
0439E:  CLRF   x2A
043A0:  CLRF   x29
....................       
....................      if(l>=media) 
043A2:  MOVLB  5
043A4:  MOVF   xE5,W
043A6:  MOVLB  4
043A8:  SUBWF  xD8,W
043AA:  BNC   43AE
....................        {l=0;} 
043AC:  CLRF   xD8
....................       
....................      promedio[l]=Velocidad;l++; 
043AE:  MOVF   xD8,W
043B0:  MULLW  04
043B2:  MOVF   FF3,W
043B4:  CLRF   03
043B6:  ADDLW  59
043B8:  MOVWF  FE9
043BA:  MOVLW  05
043BC:  ADDWFC 03,W
043BE:  MOVWF  FEA
043C0:  MOVFF  529,FEF
043C4:  MOVFF  52A,FEC
043C8:  MOVFF  52B,FEC
043CC:  MOVFF  52C,FEC
043D0:  INCF   xD8,F
....................      Flujo=0; 
043D2:  MOVLB  5
043D4:  CLRF   xBC
043D6:  CLRF   xBB
043D8:  CLRF   xBA
043DA:  CLRF   xB9
....................         for(h=0;h<=(media-1);h++) 
043DC:  MOVLB  4
043DE:  CLRF   xD9
043E0:  MOVLW  01
043E2:  MOVLB  5
043E4:  SUBWF  xE5,W
043E6:  MOVLB  4
043E8:  SUBWF  xD9,W
043EA:  BZ    43EE
043EC:  BC    445E
....................         { 
....................            Flujo+=promedio[h]; 
043EE:  MOVF   xD9,W
043F0:  MULLW  04
043F2:  MOVF   FF3,W
043F4:  CLRF   03
043F6:  ADDLW  59
043F8:  MOVWF  FE9
043FA:  MOVLW  05
043FC:  ADDWFC 03,W
043FE:  MOVWF  FEA
04400:  MOVFF  FEF,00
04404:  MOVFF  FEC,01
04408:  MOVFF  FEC,02
0440C:  MOVFF  FEC,03
04410:  MOVFF  FEA,5E7
04414:  MOVFF  FE9,5E6
04418:  BCF    FD8.1
0441A:  MOVFF  5BC,61D
0441E:  MOVFF  5BB,61C
04422:  MOVFF  5BA,61B
04426:  MOVFF  5B9,61A
0442A:  MOVFF  03,621
0442E:  MOVFF  02,620
04432:  MOVFF  01,61F
04436:  MOVFF  00,61E
0443A:  MOVLB  0
0443C:  CALL   1A52
04440:  MOVFF  5E7,FEA
04444:  MOVFF  5E6,FE9
04448:  MOVFF  03,5BC
0444C:  MOVFF  02,5BB
04450:  MOVFF  01,5BA
04454:  MOVFF  00,5B9
....................         }  
04458:  MOVLB  4
0445A:  INCF   xD9,F
0445C:  BRA    43E0
....................            Flujo=(Flujo/media)*Ajuste1;  
0445E:  MOVLB  6
04460:  CLRF   x1B
04462:  MOVFF  5E5,61A
04466:  MOVLB  0
04468:  CALL   18BE
0446C:  MOVFF  5BC,619
04470:  MOVFF  5BB,618
04474:  MOVFF  5BA,617
04478:  MOVFF  5B9,616
0447C:  MOVFF  03,61D
04480:  MOVFF  02,61C
04484:  MOVFF  01,61B
04488:  MOVFF  00,61A
0448C:  CALL   18F4
04490:  MOVFF  00,5E6
04494:  MOVFF  01,5E7
04498:  MOVFF  02,5E8
0449C:  MOVFF  03,5E9
044A0:  MOVFF  03,619
044A4:  MOVFF  02,618
044A8:  MOVFF  01,617
044AC:  MOVFF  00,616
044B0:  MOVFF  53C,61D
044B4:  MOVFF  53B,61C
044B8:  MOVFF  53A,61B
044BC:  MOVFF  539,61A
044C0:  CALL   2ED2
044C4:  MOVFF  03,5BC
044C8:  MOVFF  02,5BB
044CC:  MOVFF  01,5BA
044D0:  MOVFF  00,5B9
....................            return Flujo; 
044D4:  MOVFF  5B9,00
044D8:  MOVFF  5BA,01
044DC:  MOVFF  5BB,02
044E0:  MOVFF  5BC,03
.................... } 
044E4:  GOTO   65E8 (RETURN)
....................  
.................... void main(){ 
*
05FA0:  CLRF   FF8
05FA2:  BCF    FD0.7
05FA4:  BSF    07.7
05FA6:  CLRF   FEA
05FA8:  CLRF   FE9
05FAA:  MOVLB  4
05FAC:  BCF    x2D.0
05FAE:  BCF    x2D.1
05FB0:  BCF    x2D.2
05FB2:  BCF    x2D.3
05FB4:  BCF    x2D.4
05FB6:  BCF    x2D.5
05FB8:  BCF    x2D.6
05FBA:  BCF    x2D.7
05FBC:  BCF    x2E.0
05FBE:  BCF    x2E.1
05FC0:  BCF    x2E.2
05FC2:  BCF    x2E.3
05FC4:  BCF    x2E.4
05FC6:  BCF    x2E.5
05FC8:  BCF    x2E.6
05FCA:  BCF    x2E.7
05FCC:  BCF    x2F.0
05FCE:  BCF    x2F.1
05FD0:  BSF    x2F.2
05FD2:  BCF    x2F.3
05FD4:  BCF    x2F.4
05FD6:  BCF    x2F.5
05FD8:  MOVLW  C8
05FDA:  MOVWF  xCF
05FDC:  MOVLW  01
05FDE:  MOVWF  xD0
05FE0:  MOVWF  xD1
05FE2:  MOVLW  0A
05FE4:  MOVWF  xD2
05FE6:  CLRF   xD3
05FE8:  CLRF   xD4
05FEA:  CLRF   xD5
05FEC:  CLRF   xD6
05FEE:  CLRF   xD7
05FF0:  CLRF   xD8
05FF2:  CLRF   xD9
05FF4:  CLRF   xDA
05FF6:  CLRF   xDB
05FF8:  MOVWF  xDC
05FFA:  CLRF   xDE
05FFC:  CLRF   xDD
05FFE:  CLRF   xE0
06000:  CLRF   xDF
06002:  CLRF   xE2
06004:  CLRF   xE1
06006:  CLRF   xE4
06008:  CLRF   xE3
0600A:  CLRF   xE6
0600C:  CLRF   xE5
0600E:  CLRF   xE8
06010:  CLRF   xE7
06012:  CLRF   xEA
06014:  CLRF   xE9
06016:  CLRF   xEC
06018:  CLRF   xEB
0601A:  MOVLB  5
0601C:  CLRF   x14
0601E:  CLRF   x13
06020:  CLRF   x12
06022:  CLRF   x11
06024:  CLRF   x18
06026:  CLRF   x17
06028:  CLRF   x16
0602A:  CLRF   x15
0602C:  CLRF   x1C
0602E:  CLRF   x1B
06030:  CLRF   x1A
06032:  CLRF   x19
06034:  CLRF   x20
06036:  CLRF   x1F
06038:  CLRF   x1E
0603A:  CLRF   x1D
0603C:  CLRF   x24
0603E:  CLRF   x23
06040:  CLRF   x22
06042:  CLRF   x21
06044:  CLRF   x28
06046:  CLRF   x27
06048:  CLRF   x26
0604A:  CLRF   x25
0604C:  CLRF   x2C
0604E:  CLRF   x2B
06050:  CLRF   x2A
06052:  CLRF   x29
06054:  CLRF   x30
06056:  CLRF   x2F
06058:  CLRF   x2E
0605A:  CLRF   x2D
0605C:  CLRF   x34
0605E:  CLRF   x33
06060:  CLRF   x32
06062:  CLRF   x31
06064:  CLRF   x38
06066:  CLRF   x37
06068:  CLRF   x36
0606A:  CLRF   x35
0606C:  CLRF   x3C
0606E:  CLRF   x3B
06070:  CLRF   x3A
06072:  CLRF   x39
06074:  CLRF   x40
06076:  CLRF   x3F
06078:  CLRF   x3E
0607A:  CLRF   x3D
0607C:  CLRF   x44
0607E:  CLRF   x43
06080:  CLRF   x42
06082:  CLRF   x41
06084:  CLRF   x48
06086:  CLRF   x47
06088:  CLRF   x46
0608A:  CLRF   x45
0608C:  MOVLW  29
0608E:  MOVWF  x4C
06090:  MOVLW  B6
06092:  MOVWF  x4B
06094:  MOVLW  20
06096:  MOVWF  x4A
06098:  MOVLW  6E
0609A:  MOVWF  x49
0609C:  MOVLW  EE
0609E:  MOVWF  x50
060A0:  MOVLW  7D
060A2:  MOVWF  x4F
060A4:  MOVLW  EE
060A6:  MOVWF  x4E
060A8:  MOVLW  77
060AA:  MOVWF  x4D
060AC:  MOVLW  ED
060AE:  MOVWF  x54
060B0:  MOVLW  47
060B2:  MOVWF  x53
060B4:  MOVLW  6D
060B6:  MOVWF  x52
060B8:  MOVLW  7F
060BA:  MOVWF  x51
060BC:  MOVLW  1A
060BE:  MOVWF  x58
060C0:  MOVLW  D1
060C2:  MOVWF  x57
060C4:  MOVLW  9C
060C6:  MOVWF  x56
060C8:  MOVLW  86
060CA:  MOVWF  x55
060CC:  CLRF   xBC
060CE:  CLRF   xBB
060D0:  CLRF   xBA
060D2:  CLRF   xB9
060D4:  CLRF   xC0
060D6:  CLRF   xBF
060D8:  MOVLW  50
060DA:  MOVWF  xBE
060DC:  MOVLW  86
060DE:  MOVWF  xBD
060E0:  CLRF   xC4
060E2:  CLRF   xC3
060E4:  CLRF   xC2
060E6:  CLRF   xC1
060E8:  CLRF   xC8
060EA:  CLRF   xC7
060EC:  CLRF   xC6
060EE:  CLRF   xC5
060F0:  CLRF   xCC
060F2:  CLRF   xCB
060F4:  CLRF   xCA
060F6:  CLRF   xC9
060F8:  CLRF   xD0
060FA:  CLRF   xCF
060FC:  CLRF   xCE
060FE:  MOVLW  80
06100:  MOVWF  xCD
06102:  CLRF   xD2
06104:  CLRF   xD1
06106:  CLRF   xD4
06108:  CLRF   xD3
0610A:  CLRF   xD5
0610C:  CLRF   xD6
0610E:  CLRF   xD7
06110:  CLRF   xD8
06112:  MOVLB  4
06114:  BCF    x2F.6
06116:  BCF    x2F.7
06118:  MOVLB  5
0611A:  CLRF   xDA
0611C:  CLRF   xD9
0611E:  CLRF   xDB
06120:  CLRF   xDC
06122:  CLRF   xE0
06124:  CLRF   xDF
06126:  CLRF   xDE
06128:  CLRF   xDD
0612A:  CLRF   xE4
0612C:  CLRF   xE3
0612E:  CLRF   xE2
06130:  CLRF   xE1
06132:  MOVF   FC1,W
06134:  ANDLW  C0
06136:  IORLW  0F
06138:  MOVWF  FC1
0613A:  MOVLW  07
0613C:  MOVWF  FB4
0613E:  MOVLB  4
06140:  CLRF   x2B
06142:  CLRF   x2C
06144:  MOVLW  4A
06146:  MOVWF  x30
06148:  MOVLW  50
0614A:  MOVWF  x31
0614C:  MOVLW  20
0614E:  MOVWF  x32
06150:  MOVLW  49
06152:  MOVWF  x33
06154:  MOVLW  6E
06156:  MOVWF  x34
06158:  MOVLW  67
0615A:  MOVWF  x35
0615C:  MOVLW  6C
0615E:  MOVWF  x36
06160:  MOVLW  6F
06162:  MOVWF  x37
06164:  MOVLW  62
06166:  MOVWF  x38
06168:  MOVLW  61
0616A:  MOVWF  x39
0616C:  MOVLW  6C
0616E:  MOVWF  x3A
06170:  CLRF   x3B
06172:  MOVLW  43
06174:  MOVWF  x3C
06176:  MOVLW  61
06178:  MOVWF  x3D
0617A:  MOVLW  62
0617C:  MOVWF  x3E
0617E:  MOVLW  69
06180:  MOVWF  x3F
06182:  MOVLW  6E
06184:  MOVWF  x40
06186:  MOVLW  61
06188:  MOVWF  x41
0618A:  MOVLW  20
0618C:  MOVWF  x42
0618E:  MOVLW  45
06190:  MOVWF  x43
06192:  MOVLW  78
06194:  MOVWF  x44
06196:  MOVLW  74
06198:  MOVWF  x45
0619A:  MOVLW  72
0619C:  MOVWF  x46
0619E:  MOVLW  61
061A0:  MOVWF  x47
061A2:  MOVLW  63
061A4:  MOVWF  x48
061A6:  MOVLW  74
061A8:  MOVWF  x49
061AA:  MOVLW  6F
061AC:  MOVWF  x4A
061AE:  MOVLW  72
061B0:  MOVWF  x4B
061B2:  MOVLW  61
061B4:  MOVWF  x4C
061B6:  CLRF   x4D
061B8:  MOVLW  3A
061BA:  MOVWF  x4E
061BC:  CLRF   x4F
061BE:  MOVLW  20
061C0:  MOVWF  x50
061C2:  MOVLW  53
061C4:  MOVWF  x51
061C6:  MOVLW  69
061C8:  MOVWF  x52
061CA:  MOVLW  6E
061CC:  MOVWF  x53
061CE:  MOVLW  20
061D0:  MOVWF  x54
061D2:  MOVLW  44
061D4:  MOVWF  x55
061D6:  MOVLW  75
061D8:  MOVWF  x56
061DA:  MOVLW  63
061DC:  MOVWF  x57
061DE:  MOVLW  74
061E0:  MOVWF  x58
061E2:  MOVLW  6F
061E4:  MOVWF  x59
061E6:  MOVLW  73
061E8:  MOVWF  x5A
061EA:  CLRF   x5B
061EC:  MOVLW  54
061EE:  MOVWF  x5C
061F0:  MOVLW  69
061F2:  MOVWF  x5D
061F4:  MOVLW  65
061F6:  MOVWF  x5E
061F8:  MOVLW  6D
061FA:  MOVWF  x5F
061FC:  MOVLW  70
061FE:  MOVWF  x60
06200:  MOVLW  6F
06202:  MOVWF  x61
06204:  MOVLW  20
06206:  MOVWF  x62
06208:  MOVLW  64
0620A:  MOVWF  x63
0620C:  MOVLW  65
0620E:  MOVWF  x64
06210:  MOVLW  20
06212:  MOVWF  x65
06214:  MOVLW  50
06216:  MOVWF  x66
06218:  MOVLW  75
0621A:  MOVWF  x67
0621C:  MOVLW  72
0621E:  MOVWF  x68
06220:  MOVLW  67
06222:  MOVWF  x69
06224:  MOVLW  61
06226:  MOVWF  x6A
06228:  CLRF   x6B
0622A:  MOVLW  55
0622C:  MOVWF  x6C
0622E:  MOVLW  56
06230:  MOVWF  x6D
06232:  CLRF   x6E
06234:  MOVWF  x6F
06236:  MOVLW  65
06238:  MOVWF  x70
0623A:  MOVLW  6C
0623C:  MOVWF  x71
0623E:  MOVLW  3A
06240:  MOVWF  x72
06242:  CLRF   x73
06244:  MOVLW  54
06246:  MOVWF  x74
06248:  MOVLW  3A
0624A:  MOVWF  x75
0624C:  CLRF   x76
0624E:  MOVLW  46
06250:  MOVWF  x77
06252:  MOVLW  61
06254:  MOVWF  x78
06256:  MOVLW  62
06258:  MOVWF  x79
0625A:  MOVLW  72
0625C:  MOVWF  x7A
0625E:  MOVLW  69
06260:  MOVWF  x7B
06262:  MOVLW  63
06264:  MOVWF  x7C
06266:  MOVLW  61
06268:  MOVWF  x7D
0626A:  MOVLW  3A
0626C:  MOVWF  x7E
0626E:  MOVLW  32
06270:  MOVWF  x7F
06272:  MOVLW  30
06274:  MOVWF  x80
06276:  MOVLW  38
06278:  MOVWF  x81
0627A:  MOVLW  2E
0627C:  MOVWF  x82
0627E:  MOVLW  30
06280:  MOVWF  x83
06282:  CLRF   x84
06284:  MOVLW  41
06286:  MOVWF  x85
06288:  MOVLW  63
0628A:  MOVWF  x86
0628C:  MOVLW  74
0628E:  MOVWF  x87
06290:  MOVLW  75
06292:  MOVWF  x88
06294:  MOVLW  61
06296:  MOVWF  x89
06298:  MOVLW  6C
0629A:  MOVWF  x8A
0629C:  MOVLW  3A
0629E:  MOVWF  x8B
062A0:  CLRF   x8C
062A2:  MOVLW  41
062A4:  MOVWF  x8D
062A6:  MOVLW  6A
062A8:  MOVWF  x8E
062AA:  MOVLW  75
062AC:  MOVWF  x8F
062AE:  MOVLW  73
062B0:  MOVWF  x90
062B2:  MOVLW  74
062B4:  MOVWF  x91
062B6:  MOVLW  65
062B8:  MOVWF  x92
062BA:  MOVLW  3A
062BC:  MOVWF  x93
062BE:  CLRF   x94
062C0:  MOVLW  46
062C2:  MOVWF  x95
062C4:  MOVLW  69
062C6:  MOVWF  x96
062C8:  MOVLW  6C
062CA:  MOVWF  x97
062CC:  MOVLW  74
062CE:  MOVWF  x98
062D0:  MOVLW  72
062D2:  MOVWF  x99
062D4:  MOVLW  6F
062D6:  MOVWF  x9A
062D8:  MOVLW  3A
062DA:  MOVWF  x9B
062DC:  CLRF   x9C
062DE:  MOVLW  46
062E0:  MOVWF  x9D
062E2:  MOVLW  61
062E4:  MOVWF  x9E
062E6:  MOVLW  62
062E8:  MOVWF  x9F
062EA:  MOVLW  72
062EC:  MOVWF  xA0
062EE:  MOVLW  69
062F0:  MOVWF  xA1
062F2:  MOVLW  63
062F4:  MOVWF  xA2
062F6:  MOVLW  61
062F8:  MOVWF  xA3
062FA:  MOVLW  3A
062FC:  MOVWF  xA4
062FE:  MOVLW  32
06300:  MOVWF  xA5
06302:  MOVLW  33
06304:  MOVWF  xA6
06306:  MOVLW  35
06308:  MOVWF  xA7
0630A:  MOVLW  2E
0630C:  MOVWF  xA8
0630E:  MOVLW  30
06310:  MOVWF  xA9
06312:  CLRF   xAA
06314:  MOVLW  21
06316:  MOVWF  xAB
06318:  MOVLW  46
0631A:  MOVWF  xAC
0631C:  MOVLW  69
0631E:  MOVWF  xAD
06320:  MOVLW  6C
06322:  MOVWF  xAE
06324:  MOVLW  74
06326:  MOVWF  xAF
06328:  MOVLW  72
0632A:  MOVWF  xB0
0632C:  MOVLW  6F
0632E:  MOVWF  xB1
06330:  MOVLW  20
06332:  MOVWF  xB2
06334:  MOVLW  53
06336:  MOVWF  xB3
06338:  MOVLW  61
0633A:  MOVWF  xB4
0633C:  MOVLW  74
0633E:  MOVWF  xB5
06340:  MOVLW  75
06342:  MOVWF  xB6
06344:  MOVLW  72
06346:  MOVWF  xB7
06348:  MOVLW  61
0634A:  MOVWF  xB8
0634C:  MOVLW  64
0634E:  MOVWF  xB9
06350:  MOVLW  6F
06352:  MOVWF  xBA
06354:  MOVLW  21
06356:  MOVWF  xBB
06358:  CLRF   xBC
0635A:  MOVLW  54
0635C:  MOVWF  xBD
0635E:  MOVLW  65
06360:  MOVWF  xBE
06362:  MOVLW  6D
06364:  MOVWF  xBF
06366:  MOVLW  70
06368:  MOVWF  xC0
0636A:  MOVLW  6F
0636C:  MOVWF  xC1
0636E:  MOVLW  20
06370:  MOVWF  xC2
06372:  MOVLW  55
06374:  MOVWF  xC3
06376:  MOVLW  56
06378:  MOVWF  xC4
0637A:  MOVLW  3A
0637C:  MOVWF  xC5
0637E:  CLRF   xC6
06380:  MOVLW  55
06382:  MOVWF  xC7
06384:  MOVLW  56
06386:  MOVWF  xC8
06388:  MOVLW  4C
0638A:  MOVWF  xC9
0638C:  MOVLW  69
0638E:  MOVWF  xCA
06390:  MOVLW  66
06392:  MOVWF  xCB
06394:  MOVLW  65
06396:  MOVWF  xCC
06398:  MOVLW  3A
0639A:  MOVWF  xCD
0639C:  CLRF   xCE
0639E:  CLRF   xED
063A0:  CLRF   xEE
063A2:  CLRF   xEF
063A4:  CLRF   xF0
063A6:  MOVLW  09
063A8:  MOVWF  xF1
063AA:  CLRF   xF2
063AC:  CLRF   xF3
063AE:  CLRF   xF4
063B0:  MOVWF  xF5
063B2:  CLRF   xF6
063B4:  CLRF   xF7
063B6:  CLRF   xF8
063B8:  CLRF   xF9
063BA:  CLRF   xFA
063BC:  CLRF   xFB
063BE:  CLRF   xFC
063C0:  CLRF   xFD
063C2:  CLRF   xFE
063C4:  CLRF   xFF
063C6:  MOVLB  5
063C8:  CLRF   x00
063CA:  CLRF   x01
063CC:  CLRF   x02
063CE:  CLRF   x03
063D0:  CLRF   x04
063D2:  CLRF   x05
063D4:  CLRF   x06
063D6:  CLRF   x07
063D8:  CLRF   x08
063DA:  CLRF   x09
063DC:  CLRF   x0A
063DE:  CLRF   x0B
063E0:  CLRF   x0C
063E2:  CLRF   x0D
063E4:  CLRF   x0E
063E6:  CLRF   x0F
063E8:  CLRF   x10
063EA:  CLRF   x59
063EC:  CLRF   x5A
063EE:  CLRF   x5B
063F0:  CLRF   x5C
063F2:  CLRF   x5D
063F4:  CLRF   x5E
063F6:  CLRF   x5F
063F8:  CLRF   x60
063FA:  CLRF   x61
063FC:  CLRF   x62
063FE:  CLRF   x63
06400:  CLRF   x64
06402:  CLRF   x65
06404:  CLRF   x66
06406:  CLRF   x67
06408:  CLRF   x68
0640A:  CLRF   x69
0640C:  CLRF   x6A
0640E:  CLRF   x6B
06410:  CLRF   x6C
06412:  CLRF   x6D
06414:  CLRF   x6E
06416:  CLRF   x6F
06418:  CLRF   x70
0641A:  CLRF   x71
0641C:  CLRF   x72
0641E:  CLRF   x73
06420:  CLRF   x74
06422:  CLRF   x75
06424:  CLRF   x76
06426:  CLRF   x77
06428:  CLRF   x78
0642A:  CLRF   x79
0642C:  CLRF   x7A
0642E:  CLRF   x7B
06430:  CLRF   x7C
06432:  CLRF   x7D
06434:  CLRF   x7E
06436:  CLRF   x7F
06438:  CLRF   x80
0643A:  CLRF   x81
0643C:  CLRF   x82
0643E:  CLRF   x83
06440:  CLRF   x84
06442:  CLRF   x85
06444:  CLRF   x86
06446:  CLRF   x87
06448:  CLRF   x88
0644A:  CLRF   x89
0644C:  CLRF   x8A
0644E:  CLRF   x8B
06450:  CLRF   x8C
06452:  CLRF   x8D
06454:  CLRF   x8E
06456:  CLRF   x8F
06458:  CLRF   x90
0645A:  CLRF   x91
0645C:  CLRF   x92
0645E:  CLRF   x93
06460:  CLRF   x94
06462:  CLRF   x95
06464:  CLRF   x96
06466:  CLRF   x97
06468:  CLRF   x98
0646A:  CLRF   x99
0646C:  CLRF   x9A
0646E:  CLRF   x9B
06470:  CLRF   x9C
06472:  CLRF   x9D
06474:  CLRF   x9E
06476:  CLRF   x9F
06478:  CLRF   xA0
0647A:  CLRF   xA1
0647C:  CLRF   xA2
0647E:  CLRF   xA3
06480:  CLRF   xA4
06482:  CLRF   xA5
06484:  CLRF   xA6
06486:  CLRF   xA7
06488:  CLRF   xA8
0648A:  CLRF   xA9
0648C:  CLRF   xAA
0648E:  CLRF   xAB
06490:  CLRF   xAC
06492:  CLRF   xAD
06494:  CLRF   xAE
06496:  CLRF   xAF
06498:  CLRF   xB0
0649A:  CLRF   xB1
0649C:  CLRF   xB2
0649E:  CLRF   xB3
064A0:  CLRF   xB4
064A2:  CLRF   xB5
064A4:  CLRF   xB6
064A6:  CLRF   xB7
064A8:  CLRF   xB8
....................    delay_ms(1000); 
064AA:  MOVLW  04
064AC:  MOVWF  xE5
064AE:  MOVLW  FA
064B0:  MOVWF  xF9
064B2:  MOVLB  0
064B4:  CALL   1394
064B8:  MOVLB  5
064BA:  DECFSZ xE5,F
064BC:  BRA    64AE
....................    Cruce=OFF; 
064BE:  MOVLB  4
064C0:  BCF    x2F.6
....................    VelocidadMotor(0); 
064C2:  MOVLB  5
064C4:  CLRF   xE5
064C6:  MOVLB  0
064C8:  CALL   13BC
....................    Tcruce2=83; 
064CC:  MOVLB  5
064CE:  CLRF   xE4
064D0:  CLRF   xE3
064D2:  MOVLW  26
064D4:  MOVWF  xE2
064D6:  MOVLW  85
064D8:  MOVWF  xE1
....................    Tcruce=8300; 
064DA:  CLRF   xE0
064DC:  MOVLW  B0
064DE:  MOVWF  xDF
064E0:  MOVLW  01
064E2:  MOVWF  xDE
064E4:  MOVLW  8C
064E6:  MOVWF  xDD
....................    Motor_off; 
064E8:  BCF    F8B.2
064EA:  BCF    F94.2
....................    //setup_timer_1(T1_INTERNAL|T1_DIV_BY_1); 
....................    //enable_interrupts(INT_TIMER1); 
....................    enable_interrupts(INT_EXT_L2H); 
064EC:  BSF    FF2.4
064EE:  BSF    FF1.6
....................    setup_adc_ports(AN0_TO_AN1); 
064F0:  MOVF   FC1,W
064F2:  ANDLW  C0
064F4:  IORLW  0D
064F6:  MOVWF  FC1
....................    setup_adc(ADC_CLOCK_DIV_32 ); 
064F8:  MOVF   FC0,W
064FA:  ANDLW  C0
064FC:  IORLW  02
064FE:  MOVWF  FC0
06500:  BSF    FC0.7
06502:  BSF    FC2.0
....................    enable_interrupts(global);   
06504:  MOVLW  C0
06506:  IORWF  FF2,F
....................    VelocidadMotor(0); 
06508:  CLRF   xE5
0650A:  MOVLB  0
0650C:  CALL   13BC
....................    Motor_off; 
06510:  BCF    F8B.2
06512:  BCF    F94.2
.................... //-------Inicio de Cabina-------------------------------------------------------------------------// 
....................    Display_on; 
06514:  BSF    F8A.1
06516:  BCF    F93.1
....................    glcd_init(ON);             //Inicializa la glcd 
06518:  MOVLW  01
0651A:  MOVLB  5
0651C:  MOVWF  xE5
0651E:  MOVLB  0
06520:  CALL   1586
....................    glcd_fillScreen(OFF);      //Limpia la pantalla 
06524:  MOVLB  5
06526:  CLRF   xED
06528:  MOVLB  0
0652A:  CALL   1474
....................    glcd_text57(0, 0, JP, 2, ON);glcd_text57(5, 20, Cabina, 1, ON);glcd_text57(0, 40, Clase, 2, ON);              
0652E:  MOVLB  5
06530:  CLRF   xFE
06532:  CLRF   xFF
06534:  MOVLW  04
06536:  MOVLB  6
06538:  MOVWF  x01
0653A:  MOVLW  30
0653C:  MOVWF  x00
0653E:  MOVLW  02
06540:  MOVWF  x02
06542:  MOVLW  01
06544:  MOVWF  x03
06546:  MOVLB  0
06548:  CALL   16EA
0654C:  MOVLW  05
0654E:  MOVLB  5
06550:  MOVWF  xFE
06552:  MOVLW  14
06554:  MOVWF  xFF
06556:  MOVLW  04
06558:  MOVLB  6
0655A:  MOVWF  x01
0655C:  MOVLW  3C
0655E:  MOVWF  x00
06560:  MOVLW  01
06562:  MOVWF  x02
06564:  MOVWF  x03
06566:  MOVLB  0
06568:  CALL   16EA
0656C:  MOVLB  5
0656E:  CLRF   xFE
06570:  MOVLW  28
06572:  MOVWF  xFF
06574:  MOVLW  04
06576:  MOVLB  6
06578:  MOVWF  x01
0657A:  MOVLW  50
0657C:  MOVWF  x00
0657E:  MOVLW  02
06580:  MOVWF  x02
06582:  MOVLW  01
06584:  MOVWF  x03
06586:  MOVLB  0
06588:  CALL   16EA
....................    glcd_update(); 
0658C:  CALL   14CE
....................    delay_ms(3000); 
06590:  MOVLW  0C
06592:  MOVLB  5
06594:  MOVWF  xE5
06596:  MOVLW  FA
06598:  MOVWF  xF9
0659A:  MOVLB  0
0659C:  CALL   1394
065A0:  MOVLB  5
065A2:  DECFSZ xE5,F
065A4:  BRA    6596
....................                         
....................    glcd_fillScreen(OFF);      //Limpia la pantalla 
065A6:  CLRF   xED
065A8:  MOVLB  0
065AA:  CALL   1474
....................    Menu=0; 
065AE:  MOVLB  4
065B0:  CLRF   xCF
....................    LuzBlanca_off;Alarma_off; 
065B2:  BCF    F8B.0
065B4:  BCF    F94.0
065B6:  BCF    F8B.7
065B8:  BCF    F94.7
.................... //-------Inicio de Cabina-------------------------------------------------------------------------// 
....................    VelocidadMotor(0); 
065BA:  MOVLB  5
065BC:  CLRF   xE5
065BE:  MOVLB  0
065C0:  CALL   13BC
....................    Motor_off; 
065C4:  BCF    F8B.2
065C6:  BCF    F94.2
....................    LeeEEPROM(); // Lectura de variables almacenadas en la EEPROM  
065C8:  GOTO   1CCA
....................    LimitaValores(); 
065CC:  GOTO   24CC
....................    //Menu=2; 
....................    while(true){  
....................    glcd_update(); 
065D0:  CALL   14CE
.................... //**Actualizacin de Lectura de Sensores**//    
....................    if(Lectura==1){ 
065D4:  MOVLB  4
065D6:  BTFSS  x2F.4
065D8:  BRA    663A
....................       Lectura=0; 
065DA:  BCF    x2F.4
....................       InFlow=LeerFlujoInFlow(8); 
065DC:  MOVLW  08
065DE:  MOVLB  5
065E0:  MOVWF  xE5
065E2:  MOVLB  0
065E4:  GOTO   411A
065E8:  MOVFF  03,514
065EC:  MOVFF  02,513
065F0:  MOVFF  01,512
065F4:  MOVFF  00,511
....................       Temperatura=leeTemperatura(5); 
065F8:  MOVLW  05
065FA:  MOVLB  5
065FC:  MOVWF  xE5
065FE:  MOVLB  0
06600:  GOTO   44E8
06604:  MOVFF  03,619
06608:  MOVFF  02,618
0660C:  MOVFF  01,617
06610:  MOVFF  00,616
06614:  CALL   2E96
06618:  MOVFF  01,5D8
....................       Filtro_DownFlow=Leer_Sensor_Presion(8); 
0661C:  MOVLW  08
0661E:  MOVLB  5
06620:  MOVWF  xE5
06622:  MOVLB  0
06624:  GOTO   46B8
06628:  MOVFF  03,51C
0662C:  MOVFF  02,51B
06630:  MOVFF  01,51A
06634:  MOVFF  00,519
06638:  MOVLB  4
....................    } 
.................... //----------------------------------------// 
....................  
.................... //**Contador de Tiempo de Trabajo del filtro**// 
....................    if(minutos_trabajo>=3600){ // Tiempo de Trabajo 
0663A:  MOVF   xEA,W
0663C:  SUBLW  0D
0663E:  BTFSC  FD8.0
06640:  BRA    67E8
06642:  XORLW  FF
06644:  BNZ   664E
06646:  MOVF   xE9,W
06648:  SUBLW  0F
0664A:  BTFSC  FD8.0
0664C:  BRA    67E8
....................       minutos_trabajo=0; //Minutos Trabajo realmente son segundos. 
0664E:  CLRF   xEA
06650:  CLRF   xE9
....................       write_eeprom(33,make8(minutos_trabajo,0)); 
06652:  MOVFF  4E9,5E5
06656:  CLRF   FAA
06658:  MOVLW  21
0665A:  MOVWF  FA9
0665C:  MOVFF  5E5,FA8
06660:  BCF    FA6.6
06662:  BCF    FA6.7
06664:  BSF    FA6.2
06666:  MOVF   FF2,W
06668:  MOVWF  00
0666A:  BCF    FF2.7
0666C:  MOVLB  F
0666E:  MOVLW  55
06670:  MOVWF  FA7
06672:  MOVLW  AA
06674:  MOVWF  FA7
06676:  BSF    FA6.1
06678:  BTFSC  FA6.1
0667A:  BRA    6678
0667C:  BCF    FA6.2
0667E:  MOVF   00,W
06680:  IORWF  FF2,F
....................       delay_ms(20); 
06682:  MOVLW  14
06684:  MOVLB  5
06686:  MOVWF  xF9
06688:  MOVLB  0
0668A:  CALL   1394
....................       write_eeprom(34,make8(minutos_trabajo,1)); 
0668E:  MOVFF  4EA,5E5
06692:  CLRF   FAA
06694:  MOVLW  22
06696:  MOVWF  FA9
06698:  MOVFF  5E5,FA8
0669C:  BCF    FA6.6
0669E:  BCF    FA6.7
066A0:  BSF    FA6.2
066A2:  MOVF   FF2,W
066A4:  MOVWF  00
066A6:  BCF    FF2.7
066A8:  MOVLB  F
066AA:  MOVLW  55
066AC:  MOVWF  FA7
066AE:  MOVLW  AA
066B0:  MOVWF  FA7
066B2:  BSF    FA6.1
066B4:  BTFSC  FA6.1
066B6:  BRA    66B4
066B8:  BCF    FA6.2
066BA:  MOVF   00,W
066BC:  IORWF  FF2,F
....................       delay_ms(20); 
066BE:  MOVLW  14
066C0:  MOVLB  5
066C2:  MOVWF  xF9
066C4:  MOVLB  0
066C6:  CALL   1394
....................       Ttrabajo[0]++; 
066CA:  MOVLB  5
066CC:  INCF   x05,F
....................       if(Ttrabajo[0]>9){ 
066CE:  BTFSC  x05.7
066D0:  BRA    66DC
066D2:  MOVF   x05,W
066D4:  SUBLW  09
066D6:  BC    66DC
....................          Ttrabajo[0]=0; 
066D8:  CLRF   x05
....................          Ttrabajo[1]++; 
066DA:  INCF   x06,F
....................       } 
....................       if(Ttrabajo[1]>9){ 
066DC:  BTFSC  x06.7
066DE:  BRA    66EA
066E0:  MOVF   x06,W
066E2:  SUBLW  09
066E4:  BC    66EA
....................          Ttrabajo[1]=0; 
066E6:  CLRF   x06
....................          Ttrabajo[2]++; 
066E8:  INCF   x07,F
....................       } 
....................       if(Ttrabajo[2]>9){ 
066EA:  BTFSC  x07.7
066EC:  BRA    66F8
066EE:  MOVF   x07,W
066F0:  SUBLW  09
066F2:  BC    66F8
....................          Ttrabajo[2]=0; 
066F4:  CLRF   x07
....................          Ttrabajo[3]++; 
066F6:  INCF   x08,F
....................       } 
....................       if(Ttrabajo[3]>9){ 
066F8:  BTFSC  x08.7
066FA:  BRA    6704
066FC:  MOVF   x08,W
066FE:  SUBLW  09
06700:  BC    6704
....................          Ttrabajo[3]=0; 
06702:  CLRF   x08
....................       } 
....................       write_eeprom(16,Ttrabajo[0]); 
06704:  CLRF   FAA
06706:  MOVLW  10
06708:  MOVWF  FA9
0670A:  MOVFF  505,FA8
0670E:  BCF    FA6.6
06710:  BCF    FA6.7
06712:  BSF    FA6.2
06714:  MOVF   FF2,W
06716:  MOVWF  00
06718:  BCF    FF2.7
0671A:  MOVLB  F
0671C:  MOVLW  55
0671E:  MOVWF  FA7
06720:  MOVLW  AA
06722:  MOVWF  FA7
06724:  BSF    FA6.1
06726:  BTFSC  FA6.1
06728:  BRA    6726
0672A:  BCF    FA6.2
0672C:  MOVF   00,W
0672E:  IORWF  FF2,F
....................       delay_ms(20); 
06730:  MOVLW  14
06732:  MOVLB  5
06734:  MOVWF  xF9
06736:  MOVLB  0
06738:  CALL   1394
....................       write_eeprom(17,Ttrabajo[1]); 
0673C:  CLRF   FAA
0673E:  MOVLW  11
06740:  MOVWF  FA9
06742:  MOVFF  506,FA8
06746:  BCF    FA6.6
06748:  BCF    FA6.7
0674A:  BSF    FA6.2
0674C:  MOVF   FF2,W
0674E:  MOVWF  00
06750:  BCF    FF2.7
06752:  MOVLB  F
06754:  MOVLW  55
06756:  MOVWF  FA7
06758:  MOVLW  AA
0675A:  MOVWF  FA7
0675C:  BSF    FA6.1
0675E:  BTFSC  FA6.1
06760:  BRA    675E
06762:  BCF    FA6.2
06764:  MOVF   00,W
06766:  IORWF  FF2,F
....................       delay_ms(20); 
06768:  MOVLW  14
0676A:  MOVLB  5
0676C:  MOVWF  xF9
0676E:  MOVLB  0
06770:  CALL   1394
....................       write_eeprom(18,Ttrabajo[2]); 
06774:  CLRF   FAA
06776:  MOVLW  12
06778:  MOVWF  FA9
0677A:  MOVFF  507,FA8
0677E:  BCF    FA6.6
06780:  BCF    FA6.7
06782:  BSF    FA6.2
06784:  MOVF   FF2,W
06786:  MOVWF  00
06788:  BCF    FF2.7
0678A:  MOVLB  F
0678C:  MOVLW  55
0678E:  MOVWF  FA7
06790:  MOVLW  AA
06792:  MOVWF  FA7
06794:  BSF    FA6.1
06796:  BTFSC  FA6.1
06798:  BRA    6796
0679A:  BCF    FA6.2
0679C:  MOVF   00,W
0679E:  IORWF  FF2,F
....................       delay_ms(20); 
067A0:  MOVLW  14
067A2:  MOVLB  5
067A4:  MOVWF  xF9
067A6:  MOVLB  0
067A8:  CALL   1394
....................       write_eeprom(19,Ttrabajo[3]); 
067AC:  CLRF   FAA
067AE:  MOVLW  13
067B0:  MOVWF  FA9
067B2:  MOVFF  508,FA8
067B6:  BCF    FA6.6
067B8:  BCF    FA6.7
067BA:  BSF    FA6.2
067BC:  MOVF   FF2,W
067BE:  MOVWF  00
067C0:  BCF    FF2.7
067C2:  MOVLB  F
067C4:  MOVLW  55
067C6:  MOVWF  FA7
067C8:  MOVLW  AA
067CA:  MOVWF  FA7
067CC:  BSF    FA6.1
067CE:  BTFSC  FA6.1
067D0:  BRA    67CE
067D2:  BCF    FA6.2
067D4:  MOVF   00,W
067D6:  IORWF  FF2,F
....................       delay_ms(20); 
067D8:  MOVLW  14
067DA:  MOVLB  5
067DC:  MOVWF  xF9
067DE:  MOVLB  0
067E0:  CALL   1394
....................    }else if(minutos_trabajo==900 || minutos_trabajo==1800 || minutos_trabajo==2700 ){ 
067E4:  BRA    6884
067E6:  MOVLB  4
067E8:  MOVF   xE9,W
067EA:  SUBLW  84
067EC:  BNZ   67F4
067EE:  MOVF   xEA,W
067F0:  SUBLW  03
067F2:  BZ    680C
067F4:  MOVF   xE9,W
067F6:  SUBLW  08
067F8:  BNZ   6800
067FA:  MOVF   xEA,W
067FC:  SUBLW  07
067FE:  BZ    680C
06800:  MOVF   xE9,W
06802:  SUBLW  8C
06804:  BNZ   6886
06806:  MOVF   xEA,W
06808:  SUBLW  0A
0680A:  BNZ   6886
....................       write_eeprom(33,make8(minutos_trabajo,0)); 
0680C:  MOVFF  4E9,5E5
06810:  CLRF   FAA
06812:  MOVLW  21
06814:  MOVWF  FA9
06816:  MOVFF  5E5,FA8
0681A:  BCF    FA6.6
0681C:  BCF    FA6.7
0681E:  BSF    FA6.2
06820:  MOVF   FF2,W
06822:  MOVWF  00
06824:  BCF    FF2.7
06826:  MOVLB  F
06828:  MOVLW  55
0682A:  MOVWF  FA7
0682C:  MOVLW  AA
0682E:  MOVWF  FA7
06830:  BSF    FA6.1
06832:  BTFSC  FA6.1
06834:  BRA    6832
06836:  BCF    FA6.2
06838:  MOVF   00,W
0683A:  IORWF  FF2,F
....................       delay_ms(20); 
0683C:  MOVLW  14
0683E:  MOVLB  5
06840:  MOVWF  xF9
06842:  MOVLB  0
06844:  CALL   1394
....................       write_eeprom(34,make8(minutos_trabajo,1)); 
06848:  MOVFF  4EA,5E5
0684C:  CLRF   FAA
0684E:  MOVLW  22
06850:  MOVWF  FA9
06852:  MOVFF  5E5,FA8
06856:  BCF    FA6.6
06858:  BCF    FA6.7
0685A:  BSF    FA6.2
0685C:  MOVF   FF2,W
0685E:  MOVWF  00
06860:  BCF    FF2.7
06862:  MOVLB  F
06864:  MOVLW  55
06866:  MOVWF  FA7
06868:  MOVLW  AA
0686A:  MOVWF  FA7
0686C:  BSF    FA6.1
0686E:  BTFSC  FA6.1
06870:  BRA    686E
06872:  BCF    FA6.2
06874:  MOVF   00,W
06876:  IORWF  FF2,F
....................       delay_ms(20); 
06878:  MOVLW  14
0687A:  MOVLB  5
0687C:  MOVWF  xF9
0687E:  MOVLB  0
06880:  CALL   1394
06884:  MOVLB  4
....................    } 
.................... //----------------------------------------//       
....................  
.................... //**Contador de Tiempo de Trabajo de UV**// 
....................          if(segundos_uv>=60){ 
06886:  MOVF   xE4,F
06888:  BNZ   6890
0688A:  MOVF   xE3,W
0688C:  SUBLW  3B
0688E:  BC    689A
....................             segundos_uv=0; 
06890:  CLRF   xE4
06892:  CLRF   xE3
....................             minutos_uv++; 
06894:  INCF   xE7,F
06896:  BTFSC  FD8.2
06898:  INCF   xE8,F
....................          } 
....................           
....................          if(minutos_uv>=60){ 
0689A:  MOVF   xE8,F
0689C:  BNZ   68A6
0689E:  MOVF   xE7,W
068A0:  SUBLW  3B
068A2:  BTFSC  FD8.0
068A4:  BRA    69FE
....................             minutos_uv=0; 
068A6:  CLRF   xE8
068A8:  CLRF   xE7
....................             Tuv[0]++; 
068AA:  INCF   xF9,F
....................             if(Tuv[0]>9){ 
068AC:  BTFSC  xF9.7
068AE:  BRA    68BA
068B0:  MOVF   xF9,W
068B2:  SUBLW  09
068B4:  BC    68BA
....................                Tuv[0]=0; 
068B6:  CLRF   xF9
....................                Tuv[1]++; 
068B8:  INCF   xFA,F
....................             } 
....................             if(Tuv[1]>9){ 
068BA:  BTFSC  xFA.7
068BC:  BRA    68C8
068BE:  MOVF   xFA,W
068C0:  SUBLW  09
068C2:  BC    68C8
....................                Tuv[1]=0; 
068C4:  CLRF   xFA
....................                Tuv[2]++; 
068C6:  INCF   xFB,F
....................             } 
....................             if(Tuv[2]>9){ 
068C8:  BTFSC  xFB.7
068CA:  BRA    68D6
068CC:  MOVF   xFB,W
068CE:  SUBLW  09
068D0:  BC    68D6
....................                Tuv[2]=0; 
068D2:  CLRF   xFB
....................                Tuv[3]++; 
068D4:  INCF   xFC,F
....................             } 
....................             if(Tuv[3]>9){ 
068D6:  BTFSC  xFC.7
068D8:  BRA    68E2
068DA:  MOVF   xFC,W
068DC:  SUBLW  09
068DE:  BC    68E2
....................                Tuv[3]=0; 
068E0:  CLRF   xFC
....................             } 
....................             write_eeprom(31,minutos_uv); 
068E2:  CLRF   FAA
068E4:  MOVLW  1F
068E6:  MOVWF  FA9
068E8:  MOVFF  4E7,FA8
068EC:  BCF    FA6.6
068EE:  BCF    FA6.7
068F0:  BSF    FA6.2
068F2:  MOVF   FF2,W
068F4:  MOVWF  00
068F6:  BCF    FF2.7
068F8:  MOVLB  F
068FA:  MOVLW  55
068FC:  MOVWF  FA7
068FE:  MOVLW  AA
06900:  MOVWF  FA7
06902:  BSF    FA6.1
06904:  BTFSC  FA6.1
06906:  BRA    6904
06908:  BCF    FA6.2
0690A:  MOVF   00,W
0690C:  IORWF  FF2,F
....................             delay_ms(20); 
0690E:  MOVLW  14
06910:  MOVLB  5
06912:  MOVWF  xF9
06914:  MOVLB  0
06916:  CALL   1394
....................             write_eeprom(12,Tuv[0]); 
0691A:  CLRF   FAA
0691C:  MOVLW  0C
0691E:  MOVWF  FA9
06920:  MOVFF  4F9,FA8
06924:  BCF    FA6.6
06926:  BCF    FA6.7
06928:  BSF    FA6.2
0692A:  MOVF   FF2,W
0692C:  MOVWF  00
0692E:  BCF    FF2.7
06930:  MOVLB  F
06932:  MOVLW  55
06934:  MOVWF  FA7
06936:  MOVLW  AA
06938:  MOVWF  FA7
0693A:  BSF    FA6.1
0693C:  BTFSC  FA6.1
0693E:  BRA    693C
06940:  BCF    FA6.2
06942:  MOVF   00,W
06944:  IORWF  FF2,F
....................             delay_ms(20); 
06946:  MOVLW  14
06948:  MOVLB  5
0694A:  MOVWF  xF9
0694C:  MOVLB  0
0694E:  CALL   1394
....................             write_eeprom(13,Tuv[1]); 
06952:  CLRF   FAA
06954:  MOVLW  0D
06956:  MOVWF  FA9
06958:  MOVFF  4FA,FA8
0695C:  BCF    FA6.6
0695E:  BCF    FA6.7
06960:  BSF    FA6.2
06962:  MOVF   FF2,W
06964:  MOVWF  00
06966:  BCF    FF2.7
06968:  MOVLB  F
0696A:  MOVLW  55
0696C:  MOVWF  FA7
0696E:  MOVLW  AA
06970:  MOVWF  FA7
06972:  BSF    FA6.1
06974:  BTFSC  FA6.1
06976:  BRA    6974
06978:  BCF    FA6.2
0697A:  MOVF   00,W
0697C:  IORWF  FF2,F
....................             delay_ms(20); 
0697E:  MOVLW  14
06980:  MOVLB  5
06982:  MOVWF  xF9
06984:  MOVLB  0
06986:  CALL   1394
....................             write_eeprom(14,Tuv[2]); 
0698A:  CLRF   FAA
0698C:  MOVLW  0E
0698E:  MOVWF  FA9
06990:  MOVFF  4FB,FA8
06994:  BCF    FA6.6
06996:  BCF    FA6.7
06998:  BSF    FA6.2
0699A:  MOVF   FF2,W
0699C:  MOVWF  00
0699E:  BCF    FF2.7
069A0:  MOVLB  F
069A2:  MOVLW  55
069A4:  MOVWF  FA7
069A6:  MOVLW  AA
069A8:  MOVWF  FA7
069AA:  BSF    FA6.1
069AC:  BTFSC  FA6.1
069AE:  BRA    69AC
069B0:  BCF    FA6.2
069B2:  MOVF   00,W
069B4:  IORWF  FF2,F
....................             delay_ms(20); 
069B6:  MOVLW  14
069B8:  MOVLB  5
069BA:  MOVWF  xF9
069BC:  MOVLB  0
069BE:  CALL   1394
....................             write_eeprom(15,Tuv[3]); 
069C2:  CLRF   FAA
069C4:  MOVLW  0F
069C6:  MOVWF  FA9
069C8:  MOVFF  4FC,FA8
069CC:  BCF    FA6.6
069CE:  BCF    FA6.7
069D0:  BSF    FA6.2
069D2:  MOVF   FF2,W
069D4:  MOVWF  00
069D6:  BCF    FF2.7
069D8:  MOVLB  F
069DA:  MOVLW  55
069DC:  MOVWF  FA7
069DE:  MOVLW  AA
069E0:  MOVWF  FA7
069E2:  BSF    FA6.1
069E4:  BTFSC  FA6.1
069E6:  BRA    69E4
069E8:  BCF    FA6.2
069EA:  MOVF   00,W
069EC:  IORWF  FF2,F
....................             delay_ms(20); 
069EE:  MOVLW  14
069F0:  MOVLB  5
069F2:  MOVWF  xF9
069F4:  MOVLB  0
069F6:  CALL   1394
....................          }else if(minutos_uv==15 || minutos_uv==30 || minutos_uv==45){ 
069FA:  BRA    6A54
069FC:  MOVLB  4
069FE:  MOVF   xE7,W
06A00:  SUBLW  0F
06A02:  BNZ   6A08
06A04:  MOVF   xE8,F
06A06:  BZ    6A1C
06A08:  MOVF   xE7,W
06A0A:  SUBLW  1E
06A0C:  BNZ   6A12
06A0E:  MOVF   xE8,F
06A10:  BZ    6A1C
06A12:  MOVF   xE7,W
06A14:  SUBLW  2D
06A16:  BNZ   6A56
06A18:  MOVF   xE8,F
06A1A:  BNZ   6A56
....................             write_eeprom(31,minutos_uv); 
06A1C:  CLRF   FAA
06A1E:  MOVLW  1F
06A20:  MOVWF  FA9
06A22:  MOVFF  4E7,FA8
06A26:  BCF    FA6.6
06A28:  BCF    FA6.7
06A2A:  BSF    FA6.2
06A2C:  MOVF   FF2,W
06A2E:  MOVWF  00
06A30:  BCF    FF2.7
06A32:  MOVLB  F
06A34:  MOVLW  55
06A36:  MOVWF  FA7
06A38:  MOVLW  AA
06A3A:  MOVWF  FA7
06A3C:  BSF    FA6.1
06A3E:  BTFSC  FA6.1
06A40:  BRA    6A3E
06A42:  BCF    FA6.2
06A44:  MOVF   00,W
06A46:  IORWF  FF2,F
....................             delay_ms(20); 
06A48:  MOVLW  14
06A4A:  MOVLB  5
06A4C:  MOVWF  xF9
06A4E:  MOVLB  0
06A50:  CALL   1394
06A54:  MOVLB  4
....................          } 
.................... //----------------------------------------// 
....................  
....................    if(Menu!=2){// Si no esta en el menu de estados apaga la alarma 
06A56:  MOVF   xCF,W
06A58:  SUBLW  02
06A5A:  BZ    6A64
....................       Alarma_off; 
06A5C:  BCF    F8B.7
06A5E:  BCF    F94.7
....................       Alarma=10; 
06A60:  MOVLW  0A
06A62:  MOVWF  xDC
....................    } 
....................     
.................... //_-------------------------------------------------------------------------------------------------------------------------------------------------------- 
....................    if(Menu==0){ //Menu de Contrasea. 
06A64:  MOVF   xCF,F
06A66:  BNZ   6A9E
....................       while(PidePassword(0,0,1,Password[0],Password[1],Password[2],Password[3])==0){ 
06A68:  MOVLB  5
06A6A:  CLRF   xE6
06A6C:  CLRF   xE7
06A6E:  MOVLW  01
06A70:  MOVWF  xE8
06A72:  MOVFF  50D,5E9
06A76:  MOVFF  50E,5EA
06A7A:  MOVFF  50F,5EB
06A7E:  MOVFF  510,5EC
06A82:  MOVLB  0
06A84:  CALL   4DB4
06A88:  MOVF   01,F
06A8A:  BNZ   6AA0
....................          VelocidadMotor(0); 
06A8C:  MOVLB  5
06A8E:  CLRF   xE5
06A90:  MOVLB  0
06A92:  CALL   13BC
....................          glcd_update(); 
06A96:  CALL   14CE
....................       }        
06A9A:  MOVLB  4
06A9C:  BRA    6A68
06A9E:  MOVLB  0
....................    } 
.................... //_--------------------------------------------------------------------------------------------------------------------------------------------------------        
....................  
.................... //_-------------------------------------------------------------------------------------------------------------------------------------------------------- 
....................       if(Menu==1){//Menu de Purga. 
06AA0:  MOVLB  4
06AA2:  DECFSZ xCF,W
06AA4:  BRA    6C12
....................          glcd_text57(15, 1, Tiempo, 1, ON); 
06AA6:  MOVLW  0F
06AA8:  MOVLB  5
06AAA:  MOVWF  xFE
06AAC:  MOVLW  01
06AAE:  MOVWF  xFF
06AB0:  MOVLW  04
06AB2:  MOVLB  6
06AB4:  MOVWF  x01
06AB6:  MOVLW  5C
06AB8:  MOVWF  x00
06ABA:  MOVLW  01
06ABC:  MOVWF  x02
06ABE:  MOVWF  x03
06AC0:  MOVLB  0
06AC2:  CALL   16EA
....................          LuzBlanca_off;//Alarma_off; 
06AC6:  BCF    F8B.0
06AC8:  BCF    F94.0
....................          glcd_rect(9, 54, 120, 64, YES, OFF);          
06ACA:  MOVLW  09
06ACC:  MOVLB  5
06ACE:  MOVWF  xFE
06AD0:  MOVLW  36
06AD2:  MOVWF  xFF
06AD4:  MOVLW  78
06AD6:  MOVLB  6
06AD8:  MOVWF  x00
06ADA:  MOVLW  40
06ADC:  MOVWF  x01
06ADE:  MOVLW  01
06AE0:  MOVWF  x02
06AE2:  CLRF   x03
06AE4:  MOVLB  0
06AE6:  CALL   4B48
....................          displayTiempo(Tpurga[3],20,20,0,2);displayTiempo(Tpurga[2],40,20,0,2);glcd_text57(60, 22, Dos_puntos, 2, ON); 
06AEA:  MOVFF  4F0,5E5
06AEE:  MOVLW  14
06AF0:  MOVLB  5
06AF2:  MOVWF  xE6
06AF4:  MOVWF  xE7
06AF6:  CLRF   xE8
06AF8:  MOVLW  02
06AFA:  MOVWF  xE9
06AFC:  MOVLB  0
06AFE:  CALL   549A
06B02:  MOVFF  4EF,5E5
06B06:  MOVLW  28
06B08:  MOVLB  5
06B0A:  MOVWF  xE6
06B0C:  MOVLW  14
06B0E:  MOVWF  xE7
06B10:  CLRF   xE8
06B12:  MOVLW  02
06B14:  MOVWF  xE9
06B16:  MOVLB  0
06B18:  CALL   549A
06B1C:  MOVLW  3C
06B1E:  MOVLB  5
06B20:  MOVWF  xFE
06B22:  MOVLW  16
06B24:  MOVWF  xFF
06B26:  MOVLW  04
06B28:  MOVLB  6
06B2A:  MOVWF  x01
06B2C:  MOVLW  4E
06B2E:  MOVWF  x00
06B30:  MOVLW  02
06B32:  MOVWF  x02
06B34:  MOVLW  01
06B36:  MOVWF  x03
06B38:  MOVLB  0
06B3A:  CALL   16EA
....................          displayTiempo(Tpurga[1],70,20,0,2);displayTiempo(Tpurga[0],90,20,0,2);         
06B3E:  MOVFF  4EE,5E5
06B42:  MOVLW  46
06B44:  MOVLB  5
06B46:  MOVWF  xE6
06B48:  MOVLW  14
06B4A:  MOVWF  xE7
06B4C:  CLRF   xE8
06B4E:  MOVLW  02
06B50:  MOVWF  xE9
06B52:  MOVLB  0
06B54:  CALL   549A
06B58:  MOVFF  4ED,5E5
06B5C:  MOVLW  5A
06B5E:  MOVLB  5
06B60:  MOVWF  xE6
06B62:  MOVLW  14
06B64:  MOVWF  xE7
06B66:  CLRF   xE8
06B68:  MOVLW  02
06B6A:  MOVWF  xE9
06B6C:  MOVLB  0
06B6E:  CALL   549A
....................           
....................          tiempo_purga=1; 
06B72:  MOVLB  4
06B74:  BSF    x2E.4
....................          Purga=ON; 
06B76:  BSF    x2F.7
....................          VelocidadMotor(VelMotor); 
06B78:  MOVFF  5DC,5E5
06B7C:  MOVLB  0
06B7E:  CALL   13BC
....................           
....................          if(RIGHT){ 
06B82:  BSF    F96.1
06B84:  BTFSC  F84.1
06B86:  BRA    6BB6
....................             delay_ms(500); 
06B88:  MOVLW  02
06B8A:  MOVLB  5
06B8C:  MOVWF  xE5
06B8E:  MOVLW  FA
06B90:  MOVWF  xF9
06B92:  MOVLB  0
06B94:  CALL   1394
06B98:  MOVLB  5
06B9A:  DECFSZ xE5,F
06B9C:  BRA    6B8E
....................             if(RIGHT){ 
06B9E:  BSF    F96.1
06BA0:  BTFSC  F84.1
06BA2:  BRA    6BB8
....................                tiempo_purga=0;Menu=2;glcd_fillScreen(OFF); 
06BA4:  MOVLB  4
06BA6:  BCF    x2E.4
06BA8:  MOVLW  02
06BAA:  MOVWF  xCF
06BAC:  MOVLB  5
06BAE:  CLRF   xED
06BB0:  MOVLB  0
06BB2:  CALL   1474
06BB6:  MOVLB  5
....................             } 
....................          } 
....................         
....................          if((Tpurga[0]>=Tpurgap[0])&&(Tpurga[1]>=Tpurgap[1])&&(Tpurga[2]>=Tpurgap[2])&&(Tpurga[3]>=Tpurgap[3])){ 
06BB8:  MOVLB  4
06BBA:  MOVF   xF1,W
06BBC:  XORLW  80
06BBE:  MOVWF  00
06BC0:  MOVF   xED,W
06BC2:  XORLW  80
06BC4:  SUBWF  00,W
06BC6:  BZ    6BCA
06BC8:  BC    6C12
06BCA:  MOVF   xF2,W
06BCC:  XORLW  80
06BCE:  MOVWF  00
06BD0:  MOVF   xEE,W
06BD2:  XORLW  80
06BD4:  SUBWF  00,W
06BD6:  BZ    6BDA
06BD8:  BC    6C12
06BDA:  MOVF   xF3,W
06BDC:  XORLW  80
06BDE:  MOVWF  00
06BE0:  MOVF   xEF,W
06BE2:  XORLW  80
06BE4:  SUBWF  00,W
06BE6:  BZ    6BEA
06BE8:  BC    6C12
06BEA:  MOVF   xF4,W
06BEC:  XORLW  80
06BEE:  MOVWF  00
06BF0:  MOVF   xF0,W
06BF2:  XORLW  80
06BF4:  SUBWF  00,W
06BF6:  BZ    6BFA
06BF8:  BC    6C12
....................             tiempo_purga=0;Menu=2;glcd_fillScreen(OFF);flag_luz=1;flag_blower=1;flag_toma=1; 
06BFA:  BCF    x2E.4
06BFC:  MOVLW  02
06BFE:  MOVWF  xCF
06C00:  MOVLB  5
06C02:  CLRF   xED
06C04:  MOVLB  0
06C06:  CALL   1474
06C0A:  MOVLB  4
06C0C:  BSF    x2E.1
06C0E:  BSF    x2D.7
06C10:  BSF    x2E.0
....................          }       
....................       } 
.................... //_--------------------------------------------------------------------------------------------------------------------------------------------------------        
....................  
.................... //_-------------------------------------------------------------------------------------------------------------------------------------------------------- 
....................       if(Menu==2){ //Menu General. 
06C12:  MOVF   xCF,W
06C14:  SUBLW  02
06C16:  BTFSS  FD8.2
06C18:  GOTO   7810
....................          Purga=OFF; 
06C1C:  BCF    x2F.7
....................          w=0; 
06C1E:  BCF    x2E.3
....................          //glcd_imagen(4); 
....................           
....................          if(VelMotor==1){ 
06C20:  MOVLB  5
06C22:  DECFSZ xDC,W
06C24:  BRA    6CE6
....................             glcd_rect(0, 29, 13, 39, YES, ON); 
06C26:  CLRF   xFE
06C28:  MOVLW  1D
06C2A:  MOVWF  xFF
06C2C:  MOVLW  0D
06C2E:  MOVLB  6
06C30:  MOVWF  x00
06C32:  MOVLW  27
06C34:  MOVWF  x01
06C36:  MOVLW  01
06C38:  MOVWF  x02
06C3A:  MOVWF  x03
06C3C:  MOVLB  0
06C3E:  CALL   4B48
....................             glcd_rect(15, 26, 28, 39, NO, ON); 
06C42:  MOVLW  0F
06C44:  MOVLB  5
06C46:  MOVWF  xFE
06C48:  MOVLW  1A
06C4A:  MOVWF  xFF
06C4C:  MOVLW  1C
06C4E:  MOVLB  6
06C50:  MOVWF  x00
06C52:  MOVLW  27
06C54:  MOVWF  x01
06C56:  CLRF   x02
06C58:  MOVLW  01
06C5A:  MOVWF  x03
06C5C:  MOVLB  0
06C5E:  CALL   4B48
....................             glcd_rect(30, 23, 43, 39, NO, ON); 
06C62:  MOVLW  1E
06C64:  MOVLB  5
06C66:  MOVWF  xFE
06C68:  MOVLW  17
06C6A:  MOVWF  xFF
06C6C:  MOVLW  2B
06C6E:  MOVLB  6
06C70:  MOVWF  x00
06C72:  MOVLW  27
06C74:  MOVWF  x01
06C76:  CLRF   x02
06C78:  MOVLW  01
06C7A:  MOVWF  x03
06C7C:  MOVLB  0
06C7E:  CALL   4B48
....................             glcd_rect(45, 20, 58, 39, NO, ON); 
06C82:  MOVLW  2D
06C84:  MOVLB  5
06C86:  MOVWF  xFE
06C88:  MOVLW  14
06C8A:  MOVWF  xFF
06C8C:  MOVLW  3A
06C8E:  MOVLB  6
06C90:  MOVWF  x00
06C92:  MOVLW  27
06C94:  MOVWF  x01
06C96:  CLRF   x02
06C98:  MOVLW  01
06C9A:  MOVWF  x03
06C9C:  MOVLB  0
06C9E:  CALL   4B48
....................             glcd_rect(60, 17, 73, 39, NO, ON); 
06CA2:  MOVLW  3C
06CA4:  MOVLB  5
06CA6:  MOVWF  xFE
06CA8:  MOVLW  11
06CAA:  MOVWF  xFF
06CAC:  MOVLW  49
06CAE:  MOVLB  6
06CB0:  MOVWF  x00
06CB2:  MOVLW  27
06CB4:  MOVWF  x01
06CB6:  CLRF   x02
06CB8:  MOVLW  01
06CBA:  MOVWF  x03
06CBC:  MOVLB  0
06CBE:  CALL   4B48
....................             glcd_rect(75, 14, 88, 39, NO, ON); 
06CC2:  MOVLW  4B
06CC4:  MOVLB  5
06CC6:  MOVWF  xFE
06CC8:  MOVLW  0E
06CCA:  MOVWF  xFF
06CCC:  MOVLW  58
06CCE:  MOVLB  6
06CD0:  MOVWF  x00
06CD2:  MOVLW  27
06CD4:  MOVWF  x01
06CD6:  CLRF   x02
06CD8:  MOVLW  01
06CDA:  MOVWF  x03
06CDC:  MOVLB  0
06CDE:  CALL   4B48
....................          }else if(VelMotor==2){ 
06CE2:  BRA    70C0
06CE4:  MOVLB  5
06CE6:  MOVF   xDC,W
06CE8:  SUBLW  02
06CEA:  BNZ   6DAC
....................             glcd_rect(0, 29, 13, 39, YES, ON); 
06CEC:  CLRF   xFE
06CEE:  MOVLW  1D
06CF0:  MOVWF  xFF
06CF2:  MOVLW  0D
06CF4:  MOVLB  6
06CF6:  MOVWF  x00
06CF8:  MOVLW  27
06CFA:  MOVWF  x01
06CFC:  MOVLW  01
06CFE:  MOVWF  x02
06D00:  MOVWF  x03
06D02:  MOVLB  0
06D04:  CALL   4B48
....................             glcd_rect(15, 26, 28, 39, YES, ON); 
06D08:  MOVLW  0F
06D0A:  MOVLB  5
06D0C:  MOVWF  xFE
06D0E:  MOVLW  1A
06D10:  MOVWF  xFF
06D12:  MOVLW  1C
06D14:  MOVLB  6
06D16:  MOVWF  x00
06D18:  MOVLW  27
06D1A:  MOVWF  x01
06D1C:  MOVLW  01
06D1E:  MOVWF  x02
06D20:  MOVWF  x03
06D22:  MOVLB  0
06D24:  CALL   4B48
....................             glcd_rect(30, 23, 43, 39, NO, ON); 
06D28:  MOVLW  1E
06D2A:  MOVLB  5
06D2C:  MOVWF  xFE
06D2E:  MOVLW  17
06D30:  MOVWF  xFF
06D32:  MOVLW  2B
06D34:  MOVLB  6
06D36:  MOVWF  x00
06D38:  MOVLW  27
06D3A:  MOVWF  x01
06D3C:  CLRF   x02
06D3E:  MOVLW  01
06D40:  MOVWF  x03
06D42:  MOVLB  0
06D44:  CALL   4B48
....................             glcd_rect(45, 20, 58, 39, NO, ON); 
06D48:  MOVLW  2D
06D4A:  MOVLB  5
06D4C:  MOVWF  xFE
06D4E:  MOVLW  14
06D50:  MOVWF  xFF
06D52:  MOVLW  3A
06D54:  MOVLB  6
06D56:  MOVWF  x00
06D58:  MOVLW  27
06D5A:  MOVWF  x01
06D5C:  CLRF   x02
06D5E:  MOVLW  01
06D60:  MOVWF  x03
06D62:  MOVLB  0
06D64:  CALL   4B48
....................             glcd_rect(60, 17, 73, 39, NO, ON); 
06D68:  MOVLW  3C
06D6A:  MOVLB  5
06D6C:  MOVWF  xFE
06D6E:  MOVLW  11
06D70:  MOVWF  xFF
06D72:  MOVLW  49
06D74:  MOVLB  6
06D76:  MOVWF  x00
06D78:  MOVLW  27
06D7A:  MOVWF  x01
06D7C:  CLRF   x02
06D7E:  MOVLW  01
06D80:  MOVWF  x03
06D82:  MOVLB  0
06D84:  CALL   4B48
....................             glcd_rect(75, 14, 88, 39, NO, ON); 
06D88:  MOVLW  4B
06D8A:  MOVLB  5
06D8C:  MOVWF  xFE
06D8E:  MOVLW  0E
06D90:  MOVWF  xFF
06D92:  MOVLW  58
06D94:  MOVLB  6
06D96:  MOVWF  x00
06D98:  MOVLW  27
06D9A:  MOVWF  x01
06D9C:  CLRF   x02
06D9E:  MOVLW  01
06DA0:  MOVWF  x03
06DA2:  MOVLB  0
06DA4:  CALL   4B48
....................          }else if(VelMotor==3){ 
06DA8:  BRA    70C0
06DAA:  MOVLB  5
06DAC:  MOVF   xDC,W
06DAE:  SUBLW  03
06DB0:  BNZ   6E72
....................             glcd_rect(0, 29, 13, 39, YES, ON); 
06DB2:  CLRF   xFE
06DB4:  MOVLW  1D
06DB6:  MOVWF  xFF
06DB8:  MOVLW  0D
06DBA:  MOVLB  6
06DBC:  MOVWF  x00
06DBE:  MOVLW  27
06DC0:  MOVWF  x01
06DC2:  MOVLW  01
06DC4:  MOVWF  x02
06DC6:  MOVWF  x03
06DC8:  MOVLB  0
06DCA:  CALL   4B48
....................             glcd_rect(15, 26, 28, 39, YES, ON); 
06DCE:  MOVLW  0F
06DD0:  MOVLB  5
06DD2:  MOVWF  xFE
06DD4:  MOVLW  1A
06DD6:  MOVWF  xFF
06DD8:  MOVLW  1C
06DDA:  MOVLB  6
06DDC:  MOVWF  x00
06DDE:  MOVLW  27
06DE0:  MOVWF  x01
06DE2:  MOVLW  01
06DE4:  MOVWF  x02
06DE6:  MOVWF  x03
06DE8:  MOVLB  0
06DEA:  CALL   4B48
....................             glcd_rect(30, 23, 43, 39, YES, ON); 
06DEE:  MOVLW  1E
06DF0:  MOVLB  5
06DF2:  MOVWF  xFE
06DF4:  MOVLW  17
06DF6:  MOVWF  xFF
06DF8:  MOVLW  2B
06DFA:  MOVLB  6
06DFC:  MOVWF  x00
06DFE:  MOVLW  27
06E00:  MOVWF  x01
06E02:  MOVLW  01
06E04:  MOVWF  x02
06E06:  MOVWF  x03
06E08:  MOVLB  0
06E0A:  CALL   4B48
....................             glcd_rect(45, 20, 58, 39, NO, ON); 
06E0E:  MOVLW  2D
06E10:  MOVLB  5
06E12:  MOVWF  xFE
06E14:  MOVLW  14
06E16:  MOVWF  xFF
06E18:  MOVLW  3A
06E1A:  MOVLB  6
06E1C:  MOVWF  x00
06E1E:  MOVLW  27
06E20:  MOVWF  x01
06E22:  CLRF   x02
06E24:  MOVLW  01
06E26:  MOVWF  x03
06E28:  MOVLB  0
06E2A:  CALL   4B48
....................             glcd_rect(60, 17, 73, 39, NO, ON); 
06E2E:  MOVLW  3C
06E30:  MOVLB  5
06E32:  MOVWF  xFE
06E34:  MOVLW  11
06E36:  MOVWF  xFF
06E38:  MOVLW  49
06E3A:  MOVLB  6
06E3C:  MOVWF  x00
06E3E:  MOVLW  27
06E40:  MOVWF  x01
06E42:  CLRF   x02
06E44:  MOVLW  01
06E46:  MOVWF  x03
06E48:  MOVLB  0
06E4A:  CALL   4B48
....................             glcd_rect(75, 14, 88, 39, NO, ON); 
06E4E:  MOVLW  4B
06E50:  MOVLB  5
06E52:  MOVWF  xFE
06E54:  MOVLW  0E
06E56:  MOVWF  xFF
06E58:  MOVLW  58
06E5A:  MOVLB  6
06E5C:  MOVWF  x00
06E5E:  MOVLW  27
06E60:  MOVWF  x01
06E62:  CLRF   x02
06E64:  MOVLW  01
06E66:  MOVWF  x03
06E68:  MOVLB  0
06E6A:  CALL   4B48
....................          }else if(VelMotor==4){ 
06E6E:  BRA    70C0
06E70:  MOVLB  5
06E72:  MOVF   xDC,W
06E74:  SUBLW  04
06E76:  BNZ   6F38
....................             glcd_rect(0, 29, 13, 39, YES, ON); 
06E78:  CLRF   xFE
06E7A:  MOVLW  1D
06E7C:  MOVWF  xFF
06E7E:  MOVLW  0D
06E80:  MOVLB  6
06E82:  MOVWF  x00
06E84:  MOVLW  27
06E86:  MOVWF  x01
06E88:  MOVLW  01
06E8A:  MOVWF  x02
06E8C:  MOVWF  x03
06E8E:  MOVLB  0
06E90:  CALL   4B48
....................             glcd_rect(15, 26, 28, 39, YES, ON); 
06E94:  MOVLW  0F
06E96:  MOVLB  5
06E98:  MOVWF  xFE
06E9A:  MOVLW  1A
06E9C:  MOVWF  xFF
06E9E:  MOVLW  1C
06EA0:  MOVLB  6
06EA2:  MOVWF  x00
06EA4:  MOVLW  27
06EA6:  MOVWF  x01
06EA8:  MOVLW  01
06EAA:  MOVWF  x02
06EAC:  MOVWF  x03
06EAE:  MOVLB  0
06EB0:  CALL   4B48
....................             glcd_rect(30, 23, 43, 39, YES, ON); 
06EB4:  MOVLW  1E
06EB6:  MOVLB  5
06EB8:  MOVWF  xFE
06EBA:  MOVLW  17
06EBC:  MOVWF  xFF
06EBE:  MOVLW  2B
06EC0:  MOVLB  6
06EC2:  MOVWF  x00
06EC4:  MOVLW  27
06EC6:  MOVWF  x01
06EC8:  MOVLW  01
06ECA:  MOVWF  x02
06ECC:  MOVWF  x03
06ECE:  MOVLB  0
06ED0:  CALL   4B48
....................             glcd_rect(45, 20, 58, 39, YES, ON); 
06ED4:  MOVLW  2D
06ED6:  MOVLB  5
06ED8:  MOVWF  xFE
06EDA:  MOVLW  14
06EDC:  MOVWF  xFF
06EDE:  MOVLW  3A
06EE0:  MOVLB  6
06EE2:  MOVWF  x00
06EE4:  MOVLW  27
06EE6:  MOVWF  x01
06EE8:  MOVLW  01
06EEA:  MOVWF  x02
06EEC:  MOVWF  x03
06EEE:  MOVLB  0
06EF0:  CALL   4B48
....................             glcd_rect(60, 17, 73, 39, NO, ON); 
06EF4:  MOVLW  3C
06EF6:  MOVLB  5
06EF8:  MOVWF  xFE
06EFA:  MOVLW  11
06EFC:  MOVWF  xFF
06EFE:  MOVLW  49
06F00:  MOVLB  6
06F02:  MOVWF  x00
06F04:  MOVLW  27
06F06:  MOVWF  x01
06F08:  CLRF   x02
06F0A:  MOVLW  01
06F0C:  MOVWF  x03
06F0E:  MOVLB  0
06F10:  CALL   4B48
....................             glcd_rect(75, 14, 88, 39, NO, ON); 
06F14:  MOVLW  4B
06F16:  MOVLB  5
06F18:  MOVWF  xFE
06F1A:  MOVLW  0E
06F1C:  MOVWF  xFF
06F1E:  MOVLW  58
06F20:  MOVLB  6
06F22:  MOVWF  x00
06F24:  MOVLW  27
06F26:  MOVWF  x01
06F28:  CLRF   x02
06F2A:  MOVLW  01
06F2C:  MOVWF  x03
06F2E:  MOVLB  0
06F30:  CALL   4B48
....................          }else if(VelMotor==5){ 
06F34:  BRA    70C0
06F36:  MOVLB  5
06F38:  MOVF   xDC,W
06F3A:  SUBLW  05
06F3C:  BNZ   6FFE
....................             glcd_rect(0, 29, 13, 39, YES, ON); 
06F3E:  CLRF   xFE
06F40:  MOVLW  1D
06F42:  MOVWF  xFF
06F44:  MOVLW  0D
06F46:  MOVLB  6
06F48:  MOVWF  x00
06F4A:  MOVLW  27
06F4C:  MOVWF  x01
06F4E:  MOVLW  01
06F50:  MOVWF  x02
06F52:  MOVWF  x03
06F54:  MOVLB  0
06F56:  CALL   4B48
....................             glcd_rect(15, 26, 28, 39, YES, ON); 
06F5A:  MOVLW  0F
06F5C:  MOVLB  5
06F5E:  MOVWF  xFE
06F60:  MOVLW  1A
06F62:  MOVWF  xFF
06F64:  MOVLW  1C
06F66:  MOVLB  6
06F68:  MOVWF  x00
06F6A:  MOVLW  27
06F6C:  MOVWF  x01
06F6E:  MOVLW  01
06F70:  MOVWF  x02
06F72:  MOVWF  x03
06F74:  MOVLB  0
06F76:  CALL   4B48
....................             glcd_rect(30, 23, 43, 39, YES, ON); 
06F7A:  MOVLW  1E
06F7C:  MOVLB  5
06F7E:  MOVWF  xFE
06F80:  MOVLW  17
06F82:  MOVWF  xFF
06F84:  MOVLW  2B
06F86:  MOVLB  6
06F88:  MOVWF  x00
06F8A:  MOVLW  27
06F8C:  MOVWF  x01
06F8E:  MOVLW  01
06F90:  MOVWF  x02
06F92:  MOVWF  x03
06F94:  MOVLB  0
06F96:  CALL   4B48
....................             glcd_rect(45, 20, 58, 39, YES, ON); 
06F9A:  MOVLW  2D
06F9C:  MOVLB  5
06F9E:  MOVWF  xFE
06FA0:  MOVLW  14
06FA2:  MOVWF  xFF
06FA4:  MOVLW  3A
06FA6:  MOVLB  6
06FA8:  MOVWF  x00
06FAA:  MOVLW  27
06FAC:  MOVWF  x01
06FAE:  MOVLW  01
06FB0:  MOVWF  x02
06FB2:  MOVWF  x03
06FB4:  MOVLB  0
06FB6:  CALL   4B48
....................             glcd_rect(60, 17, 73, 39, YES, ON); 
06FBA:  MOVLW  3C
06FBC:  MOVLB  5
06FBE:  MOVWF  xFE
06FC0:  MOVLW  11
06FC2:  MOVWF  xFF
06FC4:  MOVLW  49
06FC6:  MOVLB  6
06FC8:  MOVWF  x00
06FCA:  MOVLW  27
06FCC:  MOVWF  x01
06FCE:  MOVLW  01
06FD0:  MOVWF  x02
06FD2:  MOVWF  x03
06FD4:  MOVLB  0
06FD6:  CALL   4B48
....................             glcd_rect(75, 14, 88, 39, NO, ON); 
06FDA:  MOVLW  4B
06FDC:  MOVLB  5
06FDE:  MOVWF  xFE
06FE0:  MOVLW  0E
06FE2:  MOVWF  xFF
06FE4:  MOVLW  58
06FE6:  MOVLB  6
06FE8:  MOVWF  x00
06FEA:  MOVLW  27
06FEC:  MOVWF  x01
06FEE:  CLRF   x02
06FF0:  MOVLW  01
06FF2:  MOVWF  x03
06FF4:  MOVLB  0
06FF6:  CALL   4B48
....................          }else if(VelMotor==6){ 
06FFA:  BRA    70C0
06FFC:  MOVLB  5
06FFE:  MOVF   xDC,W
07000:  SUBLW  06
07002:  BNZ   70C0
....................             glcd_rect(0, 29, 13, 39, YES, ON); 
07004:  CLRF   xFE
07006:  MOVLW  1D
07008:  MOVWF  xFF
0700A:  MOVLW  0D
0700C:  MOVLB  6
0700E:  MOVWF  x00
07010:  MOVLW  27
07012:  MOVWF  x01
07014:  MOVLW  01
07016:  MOVWF  x02
07018:  MOVWF  x03
0701A:  MOVLB  0
0701C:  CALL   4B48
....................             glcd_rect(15, 26, 28, 39, YES, ON); 
07020:  MOVLW  0F
07022:  MOVLB  5
07024:  MOVWF  xFE
07026:  MOVLW  1A
07028:  MOVWF  xFF
0702A:  MOVLW  1C
0702C:  MOVLB  6
0702E:  MOVWF  x00
07030:  MOVLW  27
07032:  MOVWF  x01
07034:  MOVLW  01
07036:  MOVWF  x02
07038:  MOVWF  x03
0703A:  MOVLB  0
0703C:  CALL   4B48
....................             glcd_rect(30, 23, 43, 39, YES, ON); 
07040:  MOVLW  1E
07042:  MOVLB  5
07044:  MOVWF  xFE
07046:  MOVLW  17
07048:  MOVWF  xFF
0704A:  MOVLW  2B
0704C:  MOVLB  6
0704E:  MOVWF  x00
07050:  MOVLW  27
07052:  MOVWF  x01
07054:  MOVLW  01
07056:  MOVWF  x02
07058:  MOVWF  x03
0705A:  MOVLB  0
0705C:  CALL   4B48
....................             glcd_rect(45, 20, 58, 39, YES, ON); 
07060:  MOVLW  2D
07062:  MOVLB  5
07064:  MOVWF  xFE
07066:  MOVLW  14
07068:  MOVWF  xFF
0706A:  MOVLW  3A
0706C:  MOVLB  6
0706E:  MOVWF  x00
07070:  MOVLW  27
07072:  MOVWF  x01
07074:  MOVLW  01
07076:  MOVWF  x02
07078:  MOVWF  x03
0707A:  MOVLB  0
0707C:  CALL   4B48
....................             glcd_rect(60, 17, 73, 39, YES, ON); 
07080:  MOVLW  3C
07082:  MOVLB  5
07084:  MOVWF  xFE
07086:  MOVLW  11
07088:  MOVWF  xFF
0708A:  MOVLW  49
0708C:  MOVLB  6
0708E:  MOVWF  x00
07090:  MOVLW  27
07092:  MOVWF  x01
07094:  MOVLW  01
07096:  MOVWF  x02
07098:  MOVWF  x03
0709A:  MOVLB  0
0709C:  CALL   4B48
....................             glcd_rect(75, 14, 88, 39, YES, ON); 
070A0:  MOVLW  4B
070A2:  MOVLB  5
070A4:  MOVWF  xFE
070A6:  MOVLW  0E
070A8:  MOVWF  xFF
070AA:  MOVLW  58
070AC:  MOVLB  6
070AE:  MOVWF  x00
070B0:  MOVLW  27
070B2:  MOVWF  x01
070B4:  MOVLW  01
070B6:  MOVWF  x02
070B8:  MOVWF  x03
070BA:  MOVLB  0
070BC:  CALL   4B48
....................          } 
....................           
....................          if(imprimir==1){ 
070C0:  MOVLB  4
070C2:  BTFSS  x2D.6
070C4:  BRA    726C
....................             glcd_text57(2, 12, Inflowt, 1, ON); 
070C6:  MOVLW  02
070C8:  MOVLB  5
070CA:  MOVWF  xFE
070CC:  MOVLW  0C
070CE:  MOVWF  xFF
070D0:  MOVLW  04
070D2:  MOVLB  6
070D4:  MOVWF  x01
070D6:  MOVLW  6F
070D8:  MOVWF  x00
070DA:  MOVLW  01
070DC:  MOVWF  x02
070DE:  MOVWF  x03
070E0:  MOVLB  0
070E2:  CALL   16EA
....................             displayTiempo(VelMotor,23,11,0,1);   
070E6:  MOVFF  5DC,5E5
070EA:  MOVLW  17
070EC:  MOVLB  5
070EE:  MOVWF  xE6
070F0:  MOVLW  0B
070F2:  MOVWF  xE7
070F4:  CLRF   xE8
070F6:  MOVLW  01
070F8:  MOVWF  xE9
070FA:  MOVLB  0
070FC:  CALL   549A
....................             glcd_rect(0, 10, 95, 63, NO, ON); 
07100:  MOVLB  5
07102:  CLRF   xFE
07104:  MOVLW  0A
07106:  MOVWF  xFF
07108:  MOVLW  5F
0710A:  MOVLB  6
0710C:  MOVWF  x00
0710E:  MOVLW  3F
07110:  MOVWF  x01
07112:  CLRF   x02
07114:  MOVLW  01
07116:  MOVWF  x03
07118:  MOVLB  0
0711A:  CALL   4B48
....................             glcd_rect(100, 10, 127, 63, NO, ON); 
0711E:  MOVLW  64
07120:  MOVLB  5
07122:  MOVWF  xFE
07124:  MOVLW  0A
07126:  MOVWF  xFF
07128:  MOVLW  7F
0712A:  MOVLB  6
0712C:  MOVWF  x00
0712E:  MOVLW  3F
07130:  MOVWF  x01
07132:  CLRF   x02
07134:  MOVLW  01
07136:  MOVWF  x03
07138:  MOVLB  0
0713A:  CALL   4B48
....................             //glcd_text57(35, 12, Downflowt, 1, ON); 
....................             glcd_text57(2, 41, Vida_Filtro, 1, ON); 
0713E:  MOVLW  02
07140:  MOVLB  5
07142:  MOVWF  xFE
07144:  MOVLW  29
07146:  MOVWF  xFF
07148:  MOVLW  04
0714A:  MOVLB  6
0714C:  MOVWF  x01
0714E:  MOVLW  95
07150:  MOVWF  x00
07152:  MOVLW  01
07154:  MOVWF  x02
07156:  MOVWF  x03
07158:  MOVLB  0
0715A:  CALL   16EA
....................             //displayTiempo(Ttrabajo[3],60,41,0,1);displayTiempo(Ttrabajo[2],67,41,0,1);displayTiempo(Ttrabajo[1],74,41,0,1);displayTiempo(Ttrabajo[0],82,41,0,1); 
....................             if(Filtro_Downflow>=1.4){ 
0715E:  MOVLW  33
07160:  MOVLB  6
07162:  MOVWF  x19
07164:  MOVWF  x18
07166:  MOVWF  x17
07168:  MOVLW  7F
0716A:  MOVWF  x16
0716C:  MOVFF  51C,61D
07170:  MOVFF  51B,61C
07174:  MOVFF  51A,61B
07178:  MOVFF  519,61A
0717C:  MOVLB  0
0717E:  CALL   2452
07182:  BC    7186
07184:  BNZ   71E6
....................                strcpy(Menus.Letra,"Filtro Saturado"); 
07186:  MOVLW  04
07188:  MOVWF  FEA
0718A:  MOVLW  17
0718C:  MOVWF  FE9
0718E:  MOVFF  FF2,5E5
07192:  BCF    FF2.7
07194:  MOVLW  00
07196:  CALL   0F80
0719A:  TBLRD*-
0719C:  TBLRD*+
0719E:  MOVF   FF5,W
071A0:  MOVWF  FEE
071A2:  IORLW  00
071A4:  BNZ   719C
071A6:  MOVLB  5
071A8:  BTFSC  xE5.7
071AA:  BSF    FF2.7
....................                displayMenu(Menus.Letra,0,0,1,1); 
071AC:  MOVLW  04
071AE:  MOVWF  xEE
071B0:  MOVLW  17
071B2:  MOVWF  xED
071B4:  CLRF   xEF
071B6:  CLRF   xF0
071B8:  MOVLW  01
071BA:  MOVWF  xF1
071BC:  MOVWF  xF2
071BE:  MOVLB  0
071C0:  CALL   4CDC
....................                Alarma_on; 
071C4:  BSF    F8B.7
071C6:  BCF    F94.7
....................                delay_ms(50); 
071C8:  MOVLW  32
071CA:  MOVLB  5
071CC:  MOVWF  xF9
071CE:  MOVLB  0
071D0:  CALL   1394
....................                Alarma_off; 
071D4:  BCF    F8B.7
071D6:  BCF    F94.7
....................                delay_ms(50); 
071D8:  MOVLW  32
071DA:  MOVLB  5
071DC:  MOVWF  xF9
071DE:  MOVLB  0
071E0:  CALL   1394
....................             }else{ 
071E4:  BRA    7226
....................                strcpy(Menus.Letra,"JPCEGH61-FLPS"); 
071E6:  MOVLW  04
071E8:  MOVWF  FEA
071EA:  MOVLW  17
071EC:  MOVWF  FE9
071EE:  MOVFF  FF2,5E5
071F2:  BCF    FF2.7
071F4:  MOVLW  00
071F6:  CALL   0FAE
071FA:  TBLRD*-
071FC:  TBLRD*+
071FE:  MOVF   FF5,W
07200:  MOVWF  FEE
07202:  IORLW  00
07204:  BNZ   71FC
07206:  MOVLB  5
07208:  BTFSC  xE5.7
0720A:  BSF    FF2.7
....................                displayMenu(Menus.Letra,2,0,1,1); 
0720C:  MOVLW  04
0720E:  MOVWF  xEE
07210:  MOVLW  17
07212:  MOVWF  xED
07214:  MOVLW  02
07216:  MOVWF  xEF
07218:  CLRF   xF0
0721A:  MOVLW  01
0721C:  MOVWF  xF1
0721E:  MOVWF  xF2
07220:  MOVLB  0
07222:  CALL   4CDC
....................             } 
....................             displayfloat2(Temperatura,90,0,1,1); 
07226:  MOVLB  6
07228:  CLRF   x1B
0722A:  MOVFF  5D8,61A
0722E:  MOVLB  0
07230:  CALL   18BE
07234:  MOVFF  00,5E5
07238:  MOVFF  01,5E6
0723C:  MOVFF  02,5E7
07240:  MOVFF  03,5E8
07244:  MOVFF  03,5EC
07248:  MOVFF  02,5EB
0724C:  MOVFF  01,5EA
07250:  MOVFF  00,5E9
07254:  MOVLW  5A
07256:  MOVLB  5
07258:  MOVWF  xED
0725A:  CLRF   xEE
0725C:  MOVLW  01
0725E:  MOVWF  xEF
07260:  MOVWF  xF0
07262:  MOVLB  0
07264:  GOTO   5B22
....................              
....................             //glcd_text57(2, 52, Tempo, 1, ON); 
....................             //displayTiempo(Tempouv[3],59,51,0,1); 
....................             //displayTiempo(Tempouv[2],67,51,0,1); 
....................             //glcd_text57(75, 52, Dos_puntos, 1, ON); 
....................             //displayTiempo(Tempouv[1],79,51,0,1); 
....................             //displayTiempo(Tempouv[0],87,51,0,1); 
....................             imprimir=0; 
07268:  MOVLB  4
0726A:  BCF    x2D.6
....................          } 
....................           
....................          // Dibujo de barra de estado de filtro                   
....................          barra=100.0*(Filtro_Downflow/1.5); 
0726C:  MOVFF  51C,619
07270:  MOVFF  51B,618
07274:  MOVFF  51A,617
07278:  MOVFF  519,616
0727C:  MOVLB  6
0727E:  CLRF   x1D
07280:  CLRF   x1C
07282:  MOVLW  40
07284:  MOVWF  x1B
07286:  MOVLW  7F
07288:  MOVWF  x1A
0728A:  MOVLB  0
0728C:  CALL   18F4
07290:  MOVLB  6
07292:  CLRF   x19
07294:  CLRF   x18
07296:  MOVLW  48
07298:  MOVWF  x17
0729A:  MOVLW  85
0729C:  MOVWF  x16
0729E:  MOVFF  03,61D
072A2:  MOVFF  02,61C
072A6:  MOVFF  01,61B
072AA:  MOVFF  00,61A
072AE:  MOVLB  0
072B0:  CALL   2ED2
072B4:  MOVFF  03,524
072B8:  MOVFF  02,523
072BC:  MOVFF  01,522
072C0:  MOVFF  00,521
....................          if(barra>100.0) 
072C4:  MOVLB  6
072C6:  CLRF   x19
072C8:  CLRF   x18
072CA:  MOVLW  48
072CC:  MOVWF  x17
072CE:  MOVLW  85
072D0:  MOVWF  x16
072D2:  MOVFF  524,61D
072D6:  MOVFF  523,61C
072DA:  MOVFF  522,61B
072DE:  MOVFF  521,61A
072E2:  MOVLB  0
072E4:  CALL   2452
072E8:  BNC   72F8
....................             barra=100.0; 
072EA:  MOVLB  5
072EC:  CLRF   x24
072EE:  CLRF   x23
072F0:  MOVLW  48
072F2:  MOVWF  x22
072F4:  MOVLW  85
072F6:  MOVWF  x21
....................          barra=barra/2; 
072F8:  MOVFF  524,619
072FC:  MOVFF  523,618
07300:  MOVFF  522,617
07304:  MOVFF  521,616
07308:  MOVLB  6
0730A:  CLRF   x1D
0730C:  CLRF   x1C
0730E:  CLRF   x1B
07310:  MOVLW  80
07312:  MOVWF  x1A
07314:  MOVLB  0
07316:  CALL   18F4
0731A:  MOVFF  03,524
0731E:  MOVFF  02,523
07322:  MOVFF  01,522
07326:  MOVFF  00,521
....................          glcd_rect(42, 41, (int8)(barra_old)+42, 48, YES, OFF);  // Clears the old bar 
0732A:  MOVFF  528,619
0732E:  MOVFF  527,618
07332:  MOVFF  526,617
07336:  MOVFF  525,616
0733A:  CALL   2E96
0733E:  MOVLW  2A
07340:  ADDWF  01,W
07342:  MOVLB  5
07344:  MOVWF  xE5
07346:  MOVLW  2A
07348:  MOVWF  xFE
0734A:  MOVLW  29
0734C:  MOVWF  xFF
0734E:  MOVFF  5E5,600
07352:  MOVLW  30
07354:  MOVLB  6
07356:  MOVWF  x01
07358:  MOVLW  01
0735A:  MOVWF  x02
0735C:  CLRF   x03
0735E:  MOVLB  0
07360:  CALL   4B48
....................          glcd_rect(42, 41, (int8)(barra)+42, 48, YES, ON);             // Draws a new bar 
07364:  MOVFF  524,619
07368:  MOVFF  523,618
0736C:  MOVFF  522,617
07370:  MOVFF  521,616
07374:  CALL   2E96
07378:  MOVLW  2A
0737A:  ADDWF  01,W
0737C:  MOVLB  5
0737E:  MOVWF  xE5
07380:  MOVLW  2A
07382:  MOVWF  xFE
07384:  MOVLW  29
07386:  MOVWF  xFF
07388:  MOVFF  5E5,600
0738C:  MOVLW  30
0738E:  MOVLB  6
07390:  MOVWF  x01
07392:  MOVLW  01
07394:  MOVWF  x02
07396:  MOVWF  x03
07398:  MOVLB  0
0739A:  CALL   4B48
....................          glcd_rect(42, 41, 94, 48, NO, ON);             // Draws a new bar 
0739E:  MOVLW  2A
073A0:  MOVLB  5
073A2:  MOVWF  xFE
073A4:  MOVLW  29
073A6:  MOVWF  xFF
073A8:  MOVLW  5E
073AA:  MOVLB  6
073AC:  MOVWF  x00
073AE:  MOVLW  30
073B0:  MOVWF  x01
073B2:  CLRF   x02
073B4:  MOVLW  01
073B6:  MOVWF  x03
073B8:  MOVLB  0
073BA:  CALL   4B48
....................          barra_old=barra; 
073BE:  MOVFF  524,528
073C2:  MOVFF  523,527
073C6:  MOVFF  522,526
073CA:  MOVFF  521,525
.................... // Fin de Dibujo de barra de estado de Filtro 
....................           
....................          if(VIDRIODN){ 
073CE:  BSF    F92.3
073D0:  BTFSC  F80.3
073D2:  BRA    73DE
....................            flag_blower=0; 
073D4:  MOVLB  4
073D6:  BCF    x2D.7
....................            flag_luz=0; 
073D8:  BCF    x2E.1
....................          }else{ 
073DA:  BRA    73E2
073DC:  MOVLB  0
....................            flag_uv=0;  
073DE:  MOVLB  4
073E0:  BCF    x2E.7
....................          } 
....................           
....................          if(flag_blower==1){ 
073E2:  BTFSS  x2D.7
073E4:  BRA    758A
....................             glcd_imagen(5);tiempo_trabajo=1; 
073E6:  MOVLW  05
073E8:  MOVLB  5
073EA:  MOVWF  xE5
073EC:  MOVLB  0
073EE:  CALL   5C94
073F2:  MOVLB  4
073F4:  BSF    x2E.5
....................             if(guardatrabajo==1){ 
073F6:  BTFSS  x2F.3
073F8:  BRA    757C
....................                VelocidadMotor(6); 
073FA:  MOVLW  06
073FC:  MOVLB  5
073FE:  MOVWF  xE5
07400:  MOVLB  0
07402:  CALL   13BC
....................                guardatrabajo=0; 
07406:  MOVLB  4
07408:  BCF    x2F.3
....................                write_eeprom(33,make8(minutos_trabajo,0)); 
0740A:  MOVFF  4E9,5E5
0740E:  CLRF   FAA
07410:  MOVLW  21
07412:  MOVWF  FA9
07414:  MOVFF  5E5,FA8
07418:  BCF    FA6.6
0741A:  BCF    FA6.7
0741C:  BSF    FA6.2
0741E:  MOVF   FF2,W
07420:  MOVWF  00
07422:  BCF    FF2.7
07424:  MOVLB  F
07426:  MOVLW  55
07428:  MOVWF  FA7
0742A:  MOVLW  AA
0742C:  MOVWF  FA7
0742E:  BSF    FA6.1
07430:  BTFSC  FA6.1
07432:  BRA    7430
07434:  BCF    FA6.2
07436:  MOVF   00,W
07438:  IORWF  FF2,F
....................                delay_ms(20); 
0743A:  MOVLW  14
0743C:  MOVLB  5
0743E:  MOVWF  xF9
07440:  MOVLB  0
07442:  CALL   1394
....................                write_eeprom(34,make8(minutos_trabajo,1)); 
07446:  MOVFF  4EA,5E5
0744A:  CLRF   FAA
0744C:  MOVLW  22
0744E:  MOVWF  FA9
07450:  MOVFF  5E5,FA8
07454:  BCF    FA6.6
07456:  BCF    FA6.7
07458:  BSF    FA6.2
0745A:  MOVF   FF2,W
0745C:  MOVWF  00
0745E:  BCF    FF2.7
07460:  MOVLB  F
07462:  MOVLW  55
07464:  MOVWF  FA7
07466:  MOVLW  AA
07468:  MOVWF  FA7
0746A:  BSF    FA6.1
0746C:  BTFSC  FA6.1
0746E:  BRA    746C
07470:  BCF    FA6.2
07472:  MOVF   00,W
07474:  IORWF  FF2,F
....................                delay_ms(20); 
07476:  MOVLW  14
07478:  MOVLB  5
0747A:  MOVWF  xF9
0747C:  MOVLB  0
0747E:  CALL   1394
....................                write_eeprom(16,Ttrabajo[0]); 
07482:  CLRF   FAA
07484:  MOVLW  10
07486:  MOVWF  FA9
07488:  MOVFF  505,FA8
0748C:  BCF    FA6.6
0748E:  BCF    FA6.7
07490:  BSF    FA6.2
07492:  MOVF   FF2,W
07494:  MOVWF  00
07496:  BCF    FF2.7
07498:  MOVLB  F
0749A:  MOVLW  55
0749C:  MOVWF  FA7
0749E:  MOVLW  AA
074A0:  MOVWF  FA7
074A2:  BSF    FA6.1
074A4:  BTFSC  FA6.1
074A6:  BRA    74A4
074A8:  BCF    FA6.2
074AA:  MOVF   00,W
074AC:  IORWF  FF2,F
....................                delay_ms(20); 
074AE:  MOVLW  14
074B0:  MOVLB  5
074B2:  MOVWF  xF9
074B4:  MOVLB  0
074B6:  CALL   1394
....................                write_eeprom(17,Ttrabajo[1]); 
074BA:  CLRF   FAA
074BC:  MOVLW  11
074BE:  MOVWF  FA9
074C0:  MOVFF  506,FA8
074C4:  BCF    FA6.6
074C6:  BCF    FA6.7
074C8:  BSF    FA6.2
074CA:  MOVF   FF2,W
074CC:  MOVWF  00
074CE:  BCF    FF2.7
074D0:  MOVLB  F
074D2:  MOVLW  55
074D4:  MOVWF  FA7
074D6:  MOVLW  AA
074D8:  MOVWF  FA7
074DA:  BSF    FA6.1
074DC:  BTFSC  FA6.1
074DE:  BRA    74DC
074E0:  BCF    FA6.2
074E2:  MOVF   00,W
074E4:  IORWF  FF2,F
....................                delay_ms(20); 
074E6:  MOVLW  14
074E8:  MOVLB  5
074EA:  MOVWF  xF9
074EC:  MOVLB  0
074EE:  CALL   1394
....................                write_eeprom(18,Ttrabajo[2]); 
074F2:  CLRF   FAA
074F4:  MOVLW  12
074F6:  MOVWF  FA9
074F8:  MOVFF  507,FA8
074FC:  BCF    FA6.6
074FE:  BCF    FA6.7
07500:  BSF    FA6.2
07502:  MOVF   FF2,W
07504:  MOVWF  00
07506:  BCF    FF2.7
07508:  MOVLB  F
0750A:  MOVLW  55
0750C:  MOVWF  FA7
0750E:  MOVLW  AA
07510:  MOVWF  FA7
07512:  BSF    FA6.1
07514:  BTFSC  FA6.1
07516:  BRA    7514
07518:  BCF    FA6.2
0751A:  MOVF   00,W
0751C:  IORWF  FF2,F
....................                delay_ms(20); 
0751E:  MOVLW  14
07520:  MOVLB  5
07522:  MOVWF  xF9
07524:  MOVLB  0
07526:  CALL   1394
....................                write_eeprom(19,Ttrabajo[3]); 
0752A:  CLRF   FAA
0752C:  MOVLW  13
0752E:  MOVWF  FA9
07530:  MOVFF  508,FA8
07534:  BCF    FA6.6
07536:  BCF    FA6.7
07538:  BSF    FA6.2
0753A:  MOVF   FF2,W
0753C:  MOVWF  00
0753E:  BCF    FF2.7
07540:  MOVLB  F
07542:  MOVLW  55
07544:  MOVWF  FA7
07546:  MOVLW  AA
07548:  MOVWF  FA7
0754A:  BSF    FA6.1
0754C:  BTFSC  FA6.1
0754E:  BRA    754C
07550:  BCF    FA6.2
07552:  MOVF   00,W
07554:  IORWF  FF2,F
....................                delay_ms(20); 
07556:  MOVLW  14
07558:  MOVLB  5
0755A:  MOVWF  xF9
0755C:  MOVLB  0
0755E:  CALL   1394
....................                glcd_init(ON);             //Inicializa la glcd 
07562:  MOVLW  01
07564:  MOVLB  5
07566:  MOVWF  xE5
07568:  MOVLB  0
0756A:  CALL   1586
....................                glcd_fillScreen(OFF);      //Limpia la pantalla 
0756E:  MOVLB  5
07570:  CLRF   xED
07572:  MOVLB  0
07574:  CALL   1474
....................                glcd_update();   
07578:  CALL   14CE
....................             } 
....................             VelocidadMotor(VelMotor); 
0757C:  MOVFF  5DC,5E5
07580:  MOVLB  0
07582:  CALL   13BC
....................          }else{ 
07586:  BRA    7724
07588:  MOVLB  4
....................             Filtro_Downflow=0; 
0758A:  MOVLB  5
0758C:  CLRF   x1C
0758E:  CLRF   x1B
07590:  CLRF   x1A
07592:  CLRF   x19
....................             glcd_rect(102, 45, 126, 62, YES, OFF);tiempo_trabajo=0;VelocidadMotor(0); 
07594:  MOVLW  66
07596:  MOVWF  xFE
07598:  MOVLW  2D
0759A:  MOVWF  xFF
0759C:  MOVLW  7E
0759E:  MOVLB  6
075A0:  MOVWF  x00
075A2:  MOVLW  3E
075A4:  MOVWF  x01
075A6:  MOVLW  01
075A8:  MOVWF  x02
075AA:  CLRF   x03
075AC:  MOVLB  0
075AE:  CALL   4B48
075B2:  MOVLB  4
075B4:  BCF    x2E.5
075B6:  MOVLB  5
075B8:  CLRF   xE5
075BA:  MOVLB  0
075BC:  CALL   13BC
....................             if(guardatrabajo==0){ 
075C0:  MOVLB  4
075C2:  BTFSC  x2F.3
075C4:  BRA    7726
....................                guardatrabajo=1; 
075C6:  BSF    x2F.3
....................                write_eeprom(33,make8(minutos_trabajo,0)); 
075C8:  MOVFF  4E9,5E5
075CC:  CLRF   FAA
075CE:  MOVLW  21
075D0:  MOVWF  FA9
075D2:  MOVFF  5E5,FA8
075D6:  BCF    FA6.6
075D8:  BCF    FA6.7
075DA:  BSF    FA6.2
075DC:  MOVF   FF2,W
075DE:  MOVWF  00
075E0:  BCF    FF2.7
075E2:  MOVLB  F
075E4:  MOVLW  55
075E6:  MOVWF  FA7
075E8:  MOVLW  AA
075EA:  MOVWF  FA7
075EC:  BSF    FA6.1
075EE:  BTFSC  FA6.1
075F0:  BRA    75EE
075F2:  BCF    FA6.2
075F4:  MOVF   00,W
075F6:  IORWF  FF2,F
....................                delay_ms(20); 
075F8:  MOVLW  14
075FA:  MOVLB  5
075FC:  MOVWF  xF9
075FE:  MOVLB  0
07600:  CALL   1394
....................                write_eeprom(34,make8(minutos_trabajo,1)); 
07604:  MOVFF  4EA,5E5
07608:  CLRF   FAA
0760A:  MOVLW  22
0760C:  MOVWF  FA9
0760E:  MOVFF  5E5,FA8
07612:  BCF    FA6.6
07614:  BCF    FA6.7
07616:  BSF    FA6.2
07618:  MOVF   FF2,W
0761A:  MOVWF  00
0761C:  BCF    FF2.7
0761E:  MOVLB  F
07620:  MOVLW  55
07622:  MOVWF  FA7
07624:  MOVLW  AA
07626:  MOVWF  FA7
07628:  BSF    FA6.1
0762A:  BTFSC  FA6.1
0762C:  BRA    762A
0762E:  BCF    FA6.2
07630:  MOVF   00,W
07632:  IORWF  FF2,F
....................                delay_ms(20); 
07634:  MOVLW  14
07636:  MOVLB  5
07638:  MOVWF  xF9
0763A:  MOVLB  0
0763C:  CALL   1394
....................                write_eeprom(16,Ttrabajo[0]); 
07640:  CLRF   FAA
07642:  MOVLW  10
07644:  MOVWF  FA9
07646:  MOVFF  505,FA8
0764A:  BCF    FA6.6
0764C:  BCF    FA6.7
0764E:  BSF    FA6.2
07650:  MOVF   FF2,W
07652:  MOVWF  00
07654:  BCF    FF2.7
07656:  MOVLB  F
07658:  MOVLW  55
0765A:  MOVWF  FA7
0765C:  MOVLW  AA
0765E:  MOVWF  FA7
07660:  BSF    FA6.1
07662:  BTFSC  FA6.1
07664:  BRA    7662
07666:  BCF    FA6.2
07668:  MOVF   00,W
0766A:  IORWF  FF2,F
....................                delay_ms(20); 
0766C:  MOVLW  14
0766E:  MOVLB  5
07670:  MOVWF  xF9
07672:  MOVLB  0
07674:  CALL   1394
....................                write_eeprom(17,Ttrabajo[1]); 
07678:  CLRF   FAA
0767A:  MOVLW  11
0767C:  MOVWF  FA9
0767E:  MOVFF  506,FA8
07682:  BCF    FA6.6
07684:  BCF    FA6.7
07686:  BSF    FA6.2
07688:  MOVF   FF2,W
0768A:  MOVWF  00
0768C:  BCF    FF2.7
0768E:  MOVLB  F
07690:  MOVLW  55
07692:  MOVWF  FA7
07694:  MOVLW  AA
07696:  MOVWF  FA7
07698:  BSF    FA6.1
0769A:  BTFSC  FA6.1
0769C:  BRA    769A
0769E:  BCF    FA6.2
076A0:  MOVF   00,W
076A2:  IORWF  FF2,F
....................                delay_ms(20); 
076A4:  MOVLW  14
076A6:  MOVLB  5
076A8:  MOVWF  xF9
076AA:  MOVLB  0
076AC:  CALL   1394
....................                write_eeprom(18,Ttrabajo[2]); 
076B0:  CLRF   FAA
076B2:  MOVLW  12
076B4:  MOVWF  FA9
076B6:  MOVFF  507,FA8
076BA:  BCF    FA6.6
076BC:  BCF    FA6.7
076BE:  BSF    FA6.2
076C0:  MOVF   FF2,W
076C2:  MOVWF  00
076C4:  BCF    FF2.7
076C6:  MOVLB  F
076C8:  MOVLW  55
076CA:  MOVWF  FA7
076CC:  MOVLW  AA
076CE:  MOVWF  FA7
076D0:  BSF    FA6.1
076D2:  BTFSC  FA6.1
076D4:  BRA    76D2
076D6:  BCF    FA6.2
076D8:  MOVF   00,W
076DA:  IORWF  FF2,F
....................                delay_ms(20); 
076DC:  MOVLW  14
076DE:  MOVLB  5
076E0:  MOVWF  xF9
076E2:  MOVLB  0
076E4:  CALL   1394
....................                write_eeprom(19,Ttrabajo[3]); 
076E8:  CLRF   FAA
076EA:  MOVLW  13
076EC:  MOVWF  FA9
076EE:  MOVFF  508,FA8
076F2:  BCF    FA6.6
076F4:  BCF    FA6.7
076F6:  BSF    FA6.2
076F8:  MOVF   FF2,W
076FA:  MOVWF  00
076FC:  BCF    FF2.7
076FE:  MOVLB  F
07700:  MOVLW  55
07702:  MOVWF  FA7
07704:  MOVLW  AA
07706:  MOVWF  FA7
07708:  BSF    FA6.1
0770A:  BTFSC  FA6.1
0770C:  BRA    770A
0770E:  BCF    FA6.2
07710:  MOVF   00,W
07712:  IORWF  FF2,F
....................                delay_ms(20); 
07714:  MOVLW  14
07716:  MOVLB  5
07718:  MOVWF  xF9
0771A:  MOVLB  0
0771C:  CALL   1394
....................                //glcd_init(ON);             //Inicializa la glcd 
....................                //glcd_fillScreen(OFF);      //Limpia la pantalla 
....................                glcd_update();   
07720:  CALL   14CE
07724:  MOVLB  4
....................             } 
....................          } 
....................           
....................       if(flag_luz==1){ 
07726:  BTFSS  x2E.1
07728:  BRA    773E
....................          glcd_imagen(3);LuzBlanca_on; 
0772A:  MOVLW  03
0772C:  MOVLB  5
0772E:  MOVWF  xE5
07730:  MOVLB  0
07732:  CALL   5C94
07736:  BSF    F8B.0
07738:  BCF    F94.0
....................       }else{ 
0773A:  BRA    7762
0773C:  MOVLB  4
....................          glcd_rect(102, 14, 126, 28, YES, OFF);LuzBlanca_off; 
0773E:  MOVLW  66
07740:  MOVLB  5
07742:  MOVWF  xFE
07744:  MOVLW  0E
07746:  MOVWF  xFF
07748:  MOVLW  7E
0774A:  MOVLB  6
0774C:  MOVWF  x00
0774E:  MOVLW  1C
07750:  MOVWF  x01
07752:  MOVLW  01
07754:  MOVWF  x02
07756:  CLRF   x03
07758:  MOVLB  0
0775A:  CALL   4B48
0775E:  BCF    F8B.0
07760:  BCF    F94.0
....................       } 
....................              
....................       if(RIGHT){//Si oprime boton de Blower. 
07762:  BSF    F96.1
07764:  BTFSC  F84.1
07766:  BRA    7784
....................          if(Flanco3 == 0){ 
07768:  MOVLB  4
0776A:  BTFSC  x2D.3
0776C:  BRA    7780
....................             Flanco3 = 1;delay_ms(3);flag_blower=!flag_blower; 
0776E:  BSF    x2D.3
07770:  MOVLW  03
07772:  MOVLB  5
07774:  MOVWF  xF9
07776:  MOVLB  0
07778:  CALL   1394
0777C:  MOVLB  4
0777E:  BTG    x2D.7
....................          } 
....................       }else{ 
07780:  BRA    7788
07782:  MOVLB  0
....................          Flanco3 = 0; 
07784:  MOVLB  4
07786:  BCF    x2D.3
....................       } 
....................        
....................       if(LEFT){//Si oprime boton de UV. 
07788:  BSF    F96.2
0778A:  BTFSC  F84.2
0778C:  BRA    77A4
....................          if(Flanco4 == 0){ 
0778E:  BTFSC  x2D.4
07790:  BRA    77A2
....................             Flanco4 = 1;delay_ms(3);//flag_uv=!flag_uv; 
07792:  BSF    x2D.4
07794:  MOVLW  03
07796:  MOVLB  5
07798:  MOVWF  xF9
0779A:  MOVLB  0
0779C:  CALL   1394
077A0:  MOVLB  4
....................          } 
....................       }else{ 
077A2:  BRA    77A6
....................          Flanco4 = 0; 
077A4:  BCF    x2D.4
....................       } 
....................              
....................       if(DOWN){//Si oprime boton de Luz Blanca. 
077A6:  BSF    F96.0
077A8:  BTFSC  F84.0
077AA:  BRA    77C4
....................          if(Flanco5 == 0){ 
077AC:  BTFSC  x2D.5
077AE:  BRA    77C2
....................             Flanco5 = 1;delay_ms(3);flag_luz=!flag_luz; 
077B0:  BSF    x2D.5
077B2:  MOVLW  03
077B4:  MOVLB  5
077B6:  MOVWF  xF9
077B8:  MOVLB  0
077BA:  CALL   1394
077BE:  MOVLB  4
077C0:  BTG    x2E.1
....................          } 
....................       }else{ 
077C2:  BRA    77C6
....................          Flanco5 = 0; 
077C4:  BCF    x2D.5
....................       } 
....................        
....................       if(UP){//Si oprime boton de Toma. 
077C6:  BSF    F92.5
077C8:  BTFSC  F80.5
077CA:  BRA    7810
....................          delay_ms(20); 
077CC:  MOVLW  14
077CE:  MOVLB  5
077D0:  MOVWF  xF9
077D2:  MOVLB  0
077D4:  CALL   1394
....................          if(UP){//Si oprime boton de Toma. 
077D8:  BSF    F92.5
077DA:  BTFSC  F80.5
077DC:  BRA    780E
....................             delay_ms(5);Menu=3;//glcd_fillScreen(OFF); 
077DE:  MOVLW  05
077E0:  MOVLB  5
077E2:  MOVWF  xF9
077E4:  MOVLB  0
077E6:  CALL   1394
077EA:  MOVLW  03
077EC:  MOVLB  4
077EE:  MOVWF  xCF
....................             glcd_init(ON);             //Inicializa la glcd 
077F0:  MOVLW  01
077F2:  MOVLB  5
077F4:  MOVWF  xE5
077F6:  MOVLB  0
077F8:  CALL   1586
....................             glcd_fillScreen(OFF);      //Limpia la pantalla 
077FC:  MOVLB  5
077FE:  CLRF   xED
07800:  MOVLB  0
07802:  CALL   1474
....................             glcd_update();   
07806:  CALL   14CE
....................             LuzBlanca_off; 
0780A:  BCF    F8B.0
0780C:  BCF    F94.0
0780E:  MOVLB  4
....................          } 
....................       } 
....................              
....................     } 
.................... //_--------------------------------------------------------------------------------------------------------------------------------------------------------        
....................  
.................... //_-------------------------------------------------------------------------------------------------------------------------------------------------------- 
....................       if(Menu==3){ //Menu Principal. 
07810:  MOVF   xCF,W
07812:  SUBLW  03
07814:  BTFSS  FD8.2
07816:  BRA    7AFE
....................              
....................       strcpy(Menus.Letra,"Menu"); 
07818:  MOVLW  04
0781A:  MOVWF  FEA
0781C:  MOVLW  17
0781E:  MOVWF  FE9
07820:  MOVFF  FF2,5E5
07824:  BCF    FF2.7
07826:  MOVLW  00
07828:  MOVLB  0
0782A:  CALL   0FDA
0782E:  TBLRD*-
07830:  TBLRD*+
07832:  MOVF   FF5,W
07834:  MOVWF  FEE
07836:  IORLW  00
07838:  BNZ   7830
0783A:  MOVLB  5
0783C:  BTFSC  xE5.7
0783E:  BSF    FF2.7
....................       displayMenu(Menus.Letra,40,0,1,2); 
07840:  MOVLW  04
07842:  MOVWF  xEE
07844:  MOVLW  17
07846:  MOVWF  xED
07848:  MOVLW  28
0784A:  MOVWF  xEF
0784C:  CLRF   xF0
0784E:  MOVLW  01
07850:  MOVWF  xF1
07852:  MOVLW  02
07854:  MOVWF  xF2
07856:  MOVLB  0
07858:  CALL   4CDC
....................        
....................       if(Opcion==1){ 
0785C:  MOVLB  4
0785E:  DECFSZ xD1,W
07860:  BRA    78A8
....................          strcpy(Menus.Letra,"Ajustes"); 
07862:  MOVLW  04
07864:  MOVWF  FEA
07866:  MOVLW  17
07868:  MOVWF  FE9
0786A:  MOVFF  FF2,5E5
0786E:  BCF    FF2.7
07870:  MOVLW  00
07872:  MOVLB  0
07874:  CALL   0FFE
07878:  TBLRD*-
0787A:  TBLRD*+
0787C:  MOVF   FF5,W
0787E:  MOVWF  FEE
07880:  IORLW  00
07882:  BNZ   787A
07884:  MOVLB  5
07886:  BTFSC  xE5.7
07888:  BSF    FF2.7
....................          displayMenu(Menus.Letra,0,19,1,1); 
0788A:  MOVLW  04
0788C:  MOVWF  xEE
0788E:  MOVLW  17
07890:  MOVWF  xED
07892:  CLRF   xEF
07894:  MOVLW  13
07896:  MOVWF  xF0
07898:  MOVLW  01
0789A:  MOVWF  xF1
0789C:  MOVWF  xF2
0789E:  MOVLB  0
078A0:  CALL   4CDC
....................       }else{ 
078A4:  BRA    78EA
078A6:  MOVLB  4
....................          strcpy(Menus.Letra,"Ajustes"); 
078A8:  MOVLW  04
078AA:  MOVWF  FEA
078AC:  MOVLW  17
078AE:  MOVWF  FE9
078B0:  MOVFF  FF2,5E5
078B4:  BCF    FF2.7
078B6:  MOVLW  00
078B8:  MOVLB  0
078BA:  CALL   0FFE
078BE:  TBLRD*-
078C0:  TBLRD*+
078C2:  MOVF   FF5,W
078C4:  MOVWF  FEE
078C6:  IORLW  00
078C8:  BNZ   78C0
078CA:  MOVLB  5
078CC:  BTFSC  xE5.7
078CE:  BSF    FF2.7
....................          displayMenu(Menus.Letra,0,19,0,1); 
078D0:  MOVLW  04
078D2:  MOVWF  xEE
078D4:  MOVLW  17
078D6:  MOVWF  xED
078D8:  CLRF   xEF
078DA:  MOVLW  13
078DC:  MOVWF  xF0
078DE:  CLRF   xF1
078E0:  MOVLW  01
078E2:  MOVWF  xF2
078E4:  MOVLB  0
078E6:  CALL   4CDC
....................       } 
....................           
....................       if(Opcion==2){ 
078EA:  MOVLB  4
078EC:  MOVF   xD1,W
078EE:  SUBLW  02
078F0:  BNZ   7938
....................          strcpy(Menus.Letra,"Cambio de Clave"); 
078F2:  MOVLW  04
078F4:  MOVWF  FEA
078F6:  MOVLW  17
078F8:  MOVWF  FE9
078FA:  MOVFF  FF2,5E5
078FE:  BCF    FF2.7
07900:  MOVLW  00
07902:  MOVLB  0
07904:  CALL   1024
07908:  TBLRD*-
0790A:  TBLRD*+
0790C:  MOVF   FF5,W
0790E:  MOVWF  FEE
07910:  IORLW  00
07912:  BNZ   790A
07914:  MOVLB  5
07916:  BTFSC  xE5.7
07918:  BSF    FF2.7
....................          displayMenu(Menus.Letra,0,35,1,1); 
0791A:  MOVLW  04
0791C:  MOVWF  xEE
0791E:  MOVLW  17
07920:  MOVWF  xED
07922:  CLRF   xEF
07924:  MOVLW  23
07926:  MOVWF  xF0
07928:  MOVLW  01
0792A:  MOVWF  xF1
0792C:  MOVWF  xF2
0792E:  MOVLB  0
07930:  CALL   4CDC
....................       }else{ 
07934:  BRA    797A
07936:  MOVLB  4
....................          strcpy(Menus.Letra,"Cambio de Clave"); 
07938:  MOVLW  04
0793A:  MOVWF  FEA
0793C:  MOVLW  17
0793E:  MOVWF  FE9
07940:  MOVFF  FF2,5E5
07944:  BCF    FF2.7
07946:  MOVLW  00
07948:  MOVLB  0
0794A:  CALL   1024
0794E:  TBLRD*-
07950:  TBLRD*+
07952:  MOVF   FF5,W
07954:  MOVWF  FEE
07956:  IORLW  00
07958:  BNZ   7950
0795A:  MOVLB  5
0795C:  BTFSC  xE5.7
0795E:  BSF    FF2.7
....................          displayMenu(Menus.Letra,0,35,0,1); 
07960:  MOVLW  04
07962:  MOVWF  xEE
07964:  MOVLW  17
07966:  MOVWF  xED
07968:  CLRF   xEF
0796A:  MOVLW  23
0796C:  MOVWF  xF0
0796E:  CLRF   xF1
07970:  MOVLW  01
07972:  MOVWF  xF2
07974:  MOVLB  0
07976:  CALL   4CDC
....................       } 
....................           
....................       if(Opcion==3){ 
0797A:  MOVLB  4
0797C:  MOVF   xD1,W
0797E:  SUBLW  03
07980:  BNZ   79C8
....................          strcpy(Menus.Letra,"Modo"); 
07982:  MOVLW  04
07984:  MOVWF  FEA
07986:  MOVLW  17
07988:  MOVWF  FE9
0798A:  MOVFF  FF2,5E5
0798E:  BCF    FF2.7
07990:  MOVLW  00
07992:  MOVLB  0
07994:  CALL   1052
07998:  TBLRD*-
0799A:  TBLRD*+
0799C:  MOVF   FF5,W
0799E:  MOVWF  FEE
079A0:  IORLW  00
079A2:  BNZ   799A
079A4:  MOVLB  5
079A6:  BTFSC  xE5.7
079A8:  BSF    FF2.7
....................          displayMenu(Menus.Letra,0,51,1,1); 
079AA:  MOVLW  04
079AC:  MOVWF  xEE
079AE:  MOVLW  17
079B0:  MOVWF  xED
079B2:  CLRF   xEF
079B4:  MOVLW  33
079B6:  MOVWF  xF0
079B8:  MOVLW  01
079BA:  MOVWF  xF1
079BC:  MOVWF  xF2
079BE:  MOVLB  0
079C0:  CALL   4CDC
....................       }else{ 
079C4:  BRA    7A0A
079C6:  MOVLB  4
....................          strcpy(Menus.Letra,"Modo"); 
079C8:  MOVLW  04
079CA:  MOVWF  FEA
079CC:  MOVLW  17
079CE:  MOVWF  FE9
079D0:  MOVFF  FF2,5E5
079D4:  BCF    FF2.7
079D6:  MOVLW  00
079D8:  MOVLB  0
079DA:  CALL   1052
079DE:  TBLRD*-
079E0:  TBLRD*+
079E2:  MOVF   FF5,W
079E4:  MOVWF  FEE
079E6:  IORLW  00
079E8:  BNZ   79E0
079EA:  MOVLB  5
079EC:  BTFSC  xE5.7
079EE:  BSF    FF2.7
....................          displayMenu(Menus.Letra,0,51,0,1); 
079F0:  MOVLW  04
079F2:  MOVWF  xEE
079F4:  MOVLW  17
079F6:  MOVWF  xED
079F8:  CLRF   xEF
079FA:  MOVLW  33
079FC:  MOVWF  xF0
079FE:  CLRF   xF1
07A00:  MOVLW  01
07A02:  MOVWF  xF2
07A04:  MOVLB  0
07A06:  CALL   4CDC
....................       } 
....................       glcd_update();  
07A0A:  CALL   14CE
....................        
....................       if(w==0){ 
07A0E:  MOVLB  4
07A10:  BTFSC  x2E.3
07A12:  BRA    7A2E
....................          delay_ms(500);w=1; 
07A14:  MOVLW  02
07A16:  MOVLB  5
07A18:  MOVWF  xE5
07A1A:  MOVLW  FA
07A1C:  MOVWF  xF9
07A1E:  MOVLB  0
07A20:  CALL   1394
07A24:  MOVLB  5
07A26:  DECFSZ xE5,F
07A28:  BRA    7A1A
07A2A:  MOVLB  4
07A2C:  BSF    x2E.3
....................       } 
....................           
....................       if(UP){//Si oprime hacia arriba         
07A2E:  BSF    F92.5
07A30:  BTFSC  F80.5
07A32:  BRA    7A4C
....................          if(Flanco == 0){ 
07A34:  BTFSC  x2D.0
07A36:  BRA    7A4A
....................             Flanco = 1;delay_ms(30);Opcion--; 
07A38:  BSF    x2D.0
07A3A:  MOVLW  1E
07A3C:  MOVLB  5
07A3E:  MOVWF  xF9
07A40:  MOVLB  0
07A42:  CALL   1394
07A46:  MOVLB  4
07A48:  DECF   xD1,F
....................          } 
....................       }else{ 
07A4A:  BRA    7A4E
....................          Flanco = 0; 
07A4C:  BCF    x2D.0
....................       } 
....................              
....................       if(DOWN){//Si oprime hacia abajo 
07A4E:  BSF    F96.0
07A50:  BTFSC  F84.0
07A52:  BRA    7A6C
....................          if(Flanco2 == 0){ 
07A54:  BTFSC  x2D.2
07A56:  BRA    7A6A
....................             Flanco2 = 1;delay_ms(30);Opcion++; 
07A58:  BSF    x2D.2
07A5A:  MOVLW  1E
07A5C:  MOVLB  5
07A5E:  MOVWF  xF9
07A60:  MOVLB  0
07A62:  CALL   1394
07A66:  MOVLB  4
07A68:  INCF   xD1,F
....................          } 
....................       }else{ 
07A6A:  BRA    7A6E
....................          Flanco2 = 0; 
07A6C:  BCF    x2D.2
....................       } 
....................              
....................       if(RIGHT){//Si oprime SET 
07A6E:  BSF    F96.1
07A70:  BTFSC  F84.1
07A72:  BRA    7ABC
....................          if(Flanco1 == 0){ 
07A74:  BTFSC  x2D.1
07A76:  BRA    7ABA
....................             Flanco1 = 1;delay_ms(500);Menu=Opcion+3;Opcion=1;glcd_fillscreen(OFF);unidad=1; 
07A78:  BSF    x2D.1
07A7A:  MOVLW  02
07A7C:  MOVLB  5
07A7E:  MOVWF  xE5
07A80:  MOVLW  FA
07A82:  MOVWF  xF9
07A84:  MOVLB  0
07A86:  CALL   1394
07A8A:  MOVLB  5
07A8C:  DECFSZ xE5,F
07A8E:  BRA    7A80
07A90:  MOVLW  03
07A92:  MOVLB  4
07A94:  ADDWF  xD1,W
07A96:  MOVWF  xCF
07A98:  MOVLW  01
07A9A:  MOVWF  xD1
07A9C:  MOVLB  5
07A9E:  CLRF   xED
07AA0:  MOVLB  0
07AA2:  CALL   1474
07AA6:  MOVLW  01
07AA8:  MOVLB  4
07AAA:  MOVWF  xD0
....................             Contrasena[0]=0;Contrasena[1]=0;Contrasena[2]=0;Contrasena[3]=0;n=0; 
07AAC:  MOVLB  5
07AAE:  CLRF   x09
07AB0:  CLRF   x0A
07AB2:  CLRF   x0B
07AB4:  CLRF   x0C
07AB6:  MOVLB  4
07AB8:  BCF    x2F.5
....................          } 
....................       }else{ 
07ABA:  BRA    7ABE
....................          Flanco1 = 0; 
07ABC:  BCF    x2D.1
....................       } 
....................              
....................       if(LEFT){//Si oprime boton de Toma. 
07ABE:  BSF    F96.2
07AC0:  BTFSC  F84.2
07AC2:  BRA    7AEC
....................          delay_ms(700);Menu=2;glcd_fillscreen(OFF); 
07AC4:  MOVLW  04
07AC6:  MOVLB  5
07AC8:  MOVWF  xE5
07ACA:  MOVLW  AF
07ACC:  MOVWF  xF9
07ACE:  MOVLB  0
07AD0:  CALL   1394
07AD4:  MOVLB  5
07AD6:  DECFSZ xE5,F
07AD8:  BRA    7ACA
07ADA:  MOVLW  02
07ADC:  MOVLB  4
07ADE:  MOVWF  xCF
07AE0:  MOVLB  5
07AE2:  CLRF   xED
07AE4:  MOVLB  0
07AE6:  CALL   1474
07AEA:  MOVLB  4
....................       } 
....................              
....................       if(Opcion>3) 
07AEC:  MOVF   xD1,W
07AEE:  SUBLW  03
07AF0:  BC    7AF6
....................          Opcion=1; 
07AF2:  MOVLW  01
07AF4:  MOVWF  xD1
....................       if(Opcion<1) 
07AF6:  MOVF   xD1,F
07AF8:  BNZ   7AFE
....................          Opcion=3; 
07AFA:  MOVLW  03
07AFC:  MOVWF  xD1
....................     } 
.................... //_--------------------------------------------------------------------------------------------------------------------------------------------------------        
....................  
.................... //_-------------------------------------------------------------------------------------------------------------------------------------------------------- 
....................       if(Menu==4){ //Menu de Ajustes. 
07AFE:  MOVF   xCF,W
07B00:  SUBLW  04
07B02:  BTFSS  FD8.2
07B04:  BRA    7C94
....................        
....................       strcpy(Menus.Letra,"Ajustes"); 
07B06:  MOVLW  04
07B08:  MOVWF  FEA
07B0A:  MOVLW  17
07B0C:  MOVWF  FE9
07B0E:  MOVFF  FF2,5E5
07B12:  BCF    FF2.7
07B14:  MOVLW  00
07B16:  MOVLB  0
07B18:  CALL   0FFE
07B1C:  TBLRD*-
07B1E:  TBLRD*+
07B20:  MOVF   FF5,W
07B22:  MOVWF  FEE
07B24:  IORLW  00
07B26:  BNZ   7B1E
07B28:  MOVLB  5
07B2A:  BTFSC  xE5.7
07B2C:  BSF    FF2.7
....................       displayMenu(Menus.Letra,0,0,1,2); 
07B2E:  MOVLW  04
07B30:  MOVWF  xEE
07B32:  MOVLW  17
07B34:  MOVWF  xED
07B36:  CLRF   xEF
07B38:  CLRF   xF0
07B3A:  MOVLW  01
07B3C:  MOVWF  xF1
07B3E:  MOVLW  02
07B40:  MOVWF  xF2
07B42:  MOVLB  0
07B44:  CALL   4CDC
....................        
....................       if(Opcion==1)    
07B48:  MOVLB  4
07B4A:  DECFSZ xD1,W
07B4C:  BRA    7B94
....................          {strcpy(Menus.Letra,"Tiempo Purga"); 
07B4E:  MOVLW  04
07B50:  MOVWF  FEA
07B52:  MOVLW  17
07B54:  MOVWF  FE9
07B56:  MOVFF  FF2,5E5
07B5A:  BCF    FF2.7
07B5C:  MOVLW  00
07B5E:  MOVLB  0
07B60:  CALL   1076
07B64:  TBLRD*-
07B66:  TBLRD*+
07B68:  MOVF   FF5,W
07B6A:  MOVWF  FEE
07B6C:  IORLW  00
07B6E:  BNZ   7B66
07B70:  MOVLB  5
07B72:  BTFSC  xE5.7
07B74:  BSF    FF2.7
....................          displayMenu(Menus.Letra,0,20,1,1);} 
07B76:  MOVLW  04
07B78:  MOVWF  xEE
07B7A:  MOVLW  17
07B7C:  MOVWF  xED
07B7E:  CLRF   xEF
07B80:  MOVLW  14
07B82:  MOVWF  xF0
07B84:  MOVLW  01
07B86:  MOVWF  xF1
07B88:  MOVWF  xF2
07B8A:  MOVLB  0
07B8C:  CALL   4CDC
....................       else 
07B90:  BRA    7BD6
07B92:  MOVLB  4
....................          {strcpy(Menus.Letra,"Tiempo Purga"); 
07B94:  MOVLW  04
07B96:  MOVWF  FEA
07B98:  MOVLW  17
07B9A:  MOVWF  FE9
07B9C:  MOVFF  FF2,5E5
07BA0:  BCF    FF2.7
07BA2:  MOVLW  00
07BA4:  MOVLB  0
07BA6:  CALL   1076
07BAA:  TBLRD*-
07BAC:  TBLRD*+
07BAE:  MOVF   FF5,W
07BB0:  MOVWF  FEE
07BB2:  IORLW  00
07BB4:  BNZ   7BAC
07BB6:  MOVLB  5
07BB8:  BTFSC  xE5.7
07BBA:  BSF    FF2.7
....................          displayMenu(Menus.Letra,0,20,0,1);}              
07BBC:  MOVLW  04
07BBE:  MOVWF  xEE
07BC0:  MOVLW  17
07BC2:  MOVWF  xED
07BC4:  CLRF   xEF
07BC6:  MOVLW  14
07BC8:  MOVWF  xF0
07BCA:  CLRF   xF1
07BCC:  MOVLW  01
07BCE:  MOVWF  xF2
07BD0:  MOVLB  0
07BD2:  CALL   4CDC
....................          
....................       if(UP)//Si oprime hacia arriba 
07BD6:  BSF    F92.5
07BD8:  BTFSC  F80.5
07BDA:  BRA    7BF6
....................       {  if(Flanco == 0)  
07BDC:  MOVLB  4
07BDE:  BTFSC  x2D.0
07BE0:  BRA    7BF4
....................             {Flanco = 1;delay_ms(30);Opcion--; 
07BE2:  BSF    x2D.0
07BE4:  MOVLW  1E
07BE6:  MOVLB  5
07BE8:  MOVWF  xF9
07BEA:  MOVLB  0
07BEC:  CALL   1394
07BF0:  MOVLB  4
07BF2:  DECF   xD1,F
....................             } 
....................       } 
....................          else 
07BF4:  BRA    7BFA
....................             {Flanco = 0;} 
07BF6:  MOVLB  4
07BF8:  BCF    x2D.0
....................              
....................       if(DOWN)//Si oprime hacia abajo 
07BFA:  BSF    F96.0
07BFC:  BTFSC  F84.0
07BFE:  BRA    7C18
....................       {  if(Flanco2 == 0)  
07C00:  BTFSC  x2D.2
07C02:  BRA    7C16
....................             {Flanco2 = 1;delay_ms(30);Opcion++; 
07C04:  BSF    x2D.2
07C06:  MOVLW  1E
07C08:  MOVLB  5
07C0A:  MOVWF  xF9
07C0C:  MOVLB  0
07C0E:  CALL   1394
07C12:  MOVLB  4
07C14:  INCF   xD1,F
....................             }      
....................       } 
....................          else 
07C16:  BRA    7C1A
....................             {Flanco2 = 0;}   
07C18:  BCF    x2D.2
....................              
....................       if(RIGHT)//Si oprime SET 
07C1A:  BSF    F96.1
07C1C:  BTFSC  F84.1
07C1E:  BRA    7C52
....................       {  if(Flanco1 == 0)  
07C20:  BTFSC  x2D.1
07C22:  BRA    7C50
....................             {Flanco1 = 1;delay_ms(500);Menu=Opcion+10;glcd_fillScreen(OFF); 
07C24:  BSF    x2D.1
07C26:  MOVLW  02
07C28:  MOVLB  5
07C2A:  MOVWF  xE5
07C2C:  MOVLW  FA
07C2E:  MOVWF  xF9
07C30:  MOVLB  0
07C32:  CALL   1394
07C36:  MOVLB  5
07C38:  DECFSZ xE5,F
07C3A:  BRA    7C2C
07C3C:  MOVLW  0A
07C3E:  MOVLB  4
07C40:  ADDWF  xD1,W
07C42:  MOVWF  xCF
07C44:  MOVLB  5
07C46:  CLRF   xED
07C48:  MOVLB  0
07C4A:  CALL   1474
07C4E:  MOVLB  4
....................             } 
....................       } 
....................          else 
07C50:  BRA    7C54
....................             {Flanco1 = 0;}   
07C52:  BCF    x2D.1
....................              
....................       if(LEFT)//Si oprime boton de Toma. 
07C54:  BSF    F96.2
07C56:  BTFSC  F84.2
07C58:  BRA    7C82
....................         {delay_ms(700);Menu=3;glcd_fillscreen(OFF);} 
07C5A:  MOVLW  04
07C5C:  MOVLB  5
07C5E:  MOVWF  xE5
07C60:  MOVLW  AF
07C62:  MOVWF  xF9
07C64:  MOVLB  0
07C66:  CALL   1394
07C6A:  MOVLB  5
07C6C:  DECFSZ xE5,F
07C6E:  BRA    7C60
07C70:  MOVLW  03
07C72:  MOVLB  4
07C74:  MOVWF  xCF
07C76:  MOVLB  5
07C78:  CLRF   xED
07C7A:  MOVLB  0
07C7C:  CALL   1474
07C80:  MOVLB  4
....................        
....................       if(Opcion>1) 
07C82:  MOVF   xD1,W
07C84:  SUBLW  01
07C86:  BC    7C8C
....................       {Opcion=1;} 
07C88:  MOVLW  01
07C8A:  MOVWF  xD1
....................       if(Opcion<1) 
07C8C:  MOVF   xD1,F
07C8E:  BNZ   7C94
....................       {Opcion=1;} 
07C90:  MOVLW  01
07C92:  MOVWF  xD1
....................      
....................     } 
.................... //_--------------------------------------------------------------------------------------------------------------------------------------------------------        
....................  
.................... //_-------------------------------------------------------------------------------------------------------------------------------------------------------- 
....................       if(Menu==6){ //Menu de Modo. 
07C94:  MOVF   xCF,W
07C96:  SUBLW  06
07C98:  BTFSS  FD8.2
07C9A:  BRA    7EC2
....................        
....................       strcpy(Menus.Letra,"Modo"); 
07C9C:  MOVLW  04
07C9E:  MOVWF  FEA
07CA0:  MOVLW  17
07CA2:  MOVWF  FE9
07CA4:  MOVFF  FF2,5E5
07CA8:  BCF    FF2.7
07CAA:  MOVLW  00
07CAC:  MOVLB  0
07CAE:  CALL   1052
07CB2:  TBLRD*-
07CB4:  TBLRD*+
07CB6:  MOVF   FF5,W
07CB8:  MOVWF  FEE
07CBA:  IORLW  00
07CBC:  BNZ   7CB4
07CBE:  MOVLB  5
07CC0:  BTFSC  xE5.7
07CC2:  BSF    FF2.7
....................       displayMenu(Menus.Letra,40,0,1,2); 
07CC4:  MOVLW  04
07CC6:  MOVWF  xEE
07CC8:  MOVLW  17
07CCA:  MOVWF  xED
07CCC:  MOVLW  28
07CCE:  MOVWF  xEF
07CD0:  CLRF   xF0
07CD2:  MOVLW  01
07CD4:  MOVWF  xF1
07CD6:  MOVLW  02
07CD8:  MOVWF  xF2
07CDA:  MOVLB  0
07CDC:  CALL   4CDC
....................           
....................       if(Opcion==1)    
07CE0:  MOVLB  4
07CE2:  DECFSZ xD1,W
07CE4:  BRA    7D2C
....................          {strcpy(Menus.Letra,"Mantenimiento"); 
07CE6:  MOVLW  04
07CE8:  MOVWF  FEA
07CEA:  MOVLW  17
07CEC:  MOVWF  FE9
07CEE:  MOVFF  FF2,5E5
07CF2:  BCF    FF2.7
07CF4:  MOVLW  00
07CF6:  MOVLB  0
07CF8:  CALL   10A2
07CFC:  TBLRD*-
07CFE:  TBLRD*+
07D00:  MOVF   FF5,W
07D02:  MOVWF  FEE
07D04:  IORLW  00
07D06:  BNZ   7CFE
07D08:  MOVLB  5
07D0A:  BTFSC  xE5.7
07D0C:  BSF    FF2.7
....................          displayMenu(Menus.Letra,0,19,1,1);} 
07D0E:  MOVLW  04
07D10:  MOVWF  xEE
07D12:  MOVLW  17
07D14:  MOVWF  xED
07D16:  CLRF   xEF
07D18:  MOVLW  13
07D1A:  MOVWF  xF0
07D1C:  MOVLW  01
07D1E:  MOVWF  xF1
07D20:  MOVWF  xF2
07D22:  MOVLB  0
07D24:  CALL   4CDC
....................       else 
07D28:  BRA    7D6E
07D2A:  MOVLB  4
....................          {strcpy(Menus.Letra,"Mantenimiento"); 
07D2C:  MOVLW  04
07D2E:  MOVWF  FEA
07D30:  MOVLW  17
07D32:  MOVWF  FE9
07D34:  MOVFF  FF2,5E5
07D38:  BCF    FF2.7
07D3A:  MOVLW  00
07D3C:  MOVLB  0
07D3E:  CALL   10A2
07D42:  TBLRD*-
07D44:  TBLRD*+
07D46:  MOVF   FF5,W
07D48:  MOVWF  FEE
07D4A:  IORLW  00
07D4C:  BNZ   7D44
07D4E:  MOVLB  5
07D50:  BTFSC  xE5.7
07D52:  BSF    FF2.7
....................          displayMenu(Menus.Letra,0,19,0,1);}    
07D54:  MOVLW  04
07D56:  MOVWF  xEE
07D58:  MOVLW  17
07D5A:  MOVWF  xED
07D5C:  CLRF   xEF
07D5E:  MOVLW  13
07D60:  MOVWF  xF0
07D62:  CLRF   xF1
07D64:  MOVLW  01
07D66:  MOVWF  xF2
07D68:  MOVLB  0
07D6A:  CALL   4CDC
....................           
....................       if(Opcion==2)    
07D6E:  MOVLB  4
07D70:  MOVF   xD1,W
07D72:  SUBLW  02
07D74:  BNZ   7DBC
....................          {strcpy(Menus.Letra,"Servicio"); 
07D76:  MOVLW  04
07D78:  MOVWF  FEA
07D7A:  MOVLW  17
07D7C:  MOVWF  FE9
07D7E:  MOVFF  FF2,5E5
07D82:  BCF    FF2.7
07D84:  MOVLW  00
07D86:  MOVLB  0
07D88:  CALL   10CE
07D8C:  TBLRD*-
07D8E:  TBLRD*+
07D90:  MOVF   FF5,W
07D92:  MOVWF  FEE
07D94:  IORLW  00
07D96:  BNZ   7D8E
07D98:  MOVLB  5
07D9A:  BTFSC  xE5.7
07D9C:  BSF    FF2.7
....................          displayMenu(Menus.Letra,0,35,1,1);} 
07D9E:  MOVLW  04
07DA0:  MOVWF  xEE
07DA2:  MOVLW  17
07DA4:  MOVWF  xED
07DA6:  CLRF   xEF
07DA8:  MOVLW  23
07DAA:  MOVWF  xF0
07DAC:  MOVLW  01
07DAE:  MOVWF  xF1
07DB0:  MOVWF  xF2
07DB2:  MOVLB  0
07DB4:  CALL   4CDC
....................       else 
07DB8:  BRA    7DFE
07DBA:  MOVLB  4
....................          {strcpy(Menus.Letra,"Servicio"); 
07DBC:  MOVLW  04
07DBE:  MOVWF  FEA
07DC0:  MOVLW  17
07DC2:  MOVWF  FE9
07DC4:  MOVFF  FF2,5E5
07DC8:  BCF    FF2.7
07DCA:  MOVLW  00
07DCC:  MOVLB  0
07DCE:  CALL   10CE
07DD2:  TBLRD*-
07DD4:  TBLRD*+
07DD6:  MOVF   FF5,W
07DD8:  MOVWF  FEE
07DDA:  IORLW  00
07DDC:  BNZ   7DD4
07DDE:  MOVLB  5
07DE0:  BTFSC  xE5.7
07DE2:  BSF    FF2.7
....................          displayMenu(Menus.Letra,0,35,0,1);} 
07DE4:  MOVLW  04
07DE6:  MOVWF  xEE
07DE8:  MOVLW  17
07DEA:  MOVWF  xED
07DEC:  CLRF   xEF
07DEE:  MOVLW  23
07DF0:  MOVWF  xF0
07DF2:  CLRF   xF1
07DF4:  MOVLW  01
07DF6:  MOVWF  xF2
07DF8:  MOVLB  0
07DFA:  CALL   4CDC
....................           
....................       if(UP)//Si oprime hacia arriba 
07DFE:  BSF    F92.5
07E00:  BTFSC  F80.5
07E02:  BRA    7E1E
....................       {  if(Flanco == 0)  
07E04:  MOVLB  4
07E06:  BTFSC  x2D.0
07E08:  BRA    7E1C
....................             {Flanco = 1;delay_ms(30);Opcion--; 
07E0A:  BSF    x2D.0
07E0C:  MOVLW  1E
07E0E:  MOVLB  5
07E10:  MOVWF  xF9
07E12:  MOVLB  0
07E14:  CALL   1394
07E18:  MOVLB  4
07E1A:  DECF   xD1,F
....................             } 
....................       } 
....................          else 
07E1C:  BRA    7E22
....................             {Flanco = 0;} 
07E1E:  MOVLB  4
07E20:  BCF    x2D.0
....................              
....................       if(DOWN)//Si oprime hacia abajo 
07E22:  BSF    F96.0
07E24:  BTFSC  F84.0
07E26:  BRA    7E40
....................       {  if(Flanco2 == 0)  
07E28:  BTFSC  x2D.2
07E2A:  BRA    7E3E
....................             {Flanco2 = 1;delay_ms(30);Opcion++; 
07E2C:  BSF    x2D.2
07E2E:  MOVLW  1E
07E30:  MOVLB  5
07E32:  MOVWF  xF9
07E34:  MOVLB  0
07E36:  CALL   1394
07E3A:  MOVLB  4
07E3C:  INCF   xD1,F
....................             }      
....................       } 
....................          else 
07E3E:  BRA    7E42
....................             {Flanco2 = 0;}   
07E40:  BCF    x2D.2
....................              
....................       if(RIGHT)//Si oprime SET 
07E42:  BSF    F96.1
07E44:  BTFSC  F84.1
07E46:  BRA    7E80
....................       {  if(Flanco1 == 0)  
07E48:  BTFSC  x2D.1
07E4A:  BRA    7E7E
....................             {Flanco1 = 1;delay_ms(500);Menu=Opcion+30;glcd_fillScreen(OFF);Opcion=1;unidad=1; 
07E4C:  BSF    x2D.1
07E4E:  MOVLW  02
07E50:  MOVLB  5
07E52:  MOVWF  xE5
07E54:  MOVLW  FA
07E56:  MOVWF  xF9
07E58:  MOVLB  0
07E5A:  CALL   1394
07E5E:  MOVLB  5
07E60:  DECFSZ xE5,F
07E62:  BRA    7E54
07E64:  MOVLW  1E
07E66:  MOVLB  4
07E68:  ADDWF  xD1,W
07E6A:  MOVWF  xCF
07E6C:  MOVLB  5
07E6E:  CLRF   xED
07E70:  MOVLB  0
07E72:  CALL   1474
07E76:  MOVLW  01
07E78:  MOVLB  4
07E7A:  MOVWF  xD1
07E7C:  MOVWF  xD0
....................             } 
....................       } 
....................          else 
07E7E:  BRA    7E82
....................             {Flanco1 = 0;}   
07E80:  BCF    x2D.1
....................              
....................       if(LEFT)//Si oprime boton de Toma. 
07E82:  BSF    F96.2
07E84:  BTFSC  F84.2
07E86:  BRA    7EB0
....................         {delay_ms(700);Menu=3;glcd_fillscreen(OFF);} 
07E88:  MOVLW  04
07E8A:  MOVLB  5
07E8C:  MOVWF  xE5
07E8E:  MOVLW  AF
07E90:  MOVWF  xF9
07E92:  MOVLB  0
07E94:  CALL   1394
07E98:  MOVLB  5
07E9A:  DECFSZ xE5,F
07E9C:  BRA    7E8E
07E9E:  MOVLW  03
07EA0:  MOVLB  4
07EA2:  MOVWF  xCF
07EA4:  MOVLB  5
07EA6:  CLRF   xED
07EA8:  MOVLB  0
07EAA:  CALL   1474
07EAE:  MOVLB  4
....................       if(Opcion>2) 
07EB0:  MOVF   xD1,W
07EB2:  SUBLW  02
07EB4:  BC    7EBA
....................       {Opcion=1;} 
07EB6:  MOVLW  01
07EB8:  MOVWF  xD1
....................       if(Opcion<1) 
07EBA:  MOVF   xD1,F
07EBC:  BNZ   7EC2
....................       {Opcion=2;} 
07EBE:  MOVLW  02
07EC0:  MOVWF  xD1
....................      
....................     } 
.................... //_--------------------------------------------------------------------------------------------------------------------------------------------------------        
....................  
.................... //_-------------------------------------------------------------------------------------------------------------------------------------------------------- 
....................       if(Menu==11){ //Menu de Purga. 
07EC2:  MOVF   xCF,W
07EC4:  SUBLW  0B
07EC6:  BTFSS  FD8.2
07EC8:  BRA    828E
....................        
....................       strcpy(Menus.Letra,"T. Purga"); 
07ECA:  MOVLW  04
07ECC:  MOVWF  FEA
07ECE:  MOVLW  17
07ED0:  MOVWF  FE9
07ED2:  MOVFF  FF2,5E5
07ED6:  BCF    FF2.7
07ED8:  MOVLW  00
07EDA:  MOVLB  0
07EDC:  CALL   10F6
07EE0:  TBLRD*-
07EE2:  TBLRD*+
07EE4:  MOVF   FF5,W
07EE6:  MOVWF  FEE
07EE8:  IORLW  00
07EEA:  BNZ   7EE2
07EEC:  MOVLB  5
07EEE:  BTFSC  xE5.7
07EF0:  BSF    FF2.7
....................       displayMenu(Menus.Letra,10,0,1,2); 
07EF2:  MOVLW  04
07EF4:  MOVWF  xEE
07EF6:  MOVLW  17
07EF8:  MOVWF  xED
07EFA:  MOVLW  0A
07EFC:  MOVWF  xEF
07EFE:  CLRF   xF0
07F00:  MOVLW  01
07F02:  MOVWF  xF1
07F04:  MOVLW  02
07F06:  MOVWF  xF2
07F08:  MOVLB  0
07F0A:  CALL   4CDC
....................        
....................       if(unidad==4) 
07F0E:  MOVLB  4
07F10:  MOVF   xD0,W
07F12:  SUBLW  04
07F14:  BNZ   7F34
....................       {displayTiempo(Tpurgap[3],20,40,1,2);} 
07F16:  MOVFF  4F4,5E5
07F1A:  MOVLW  14
07F1C:  MOVLB  5
07F1E:  MOVWF  xE6
07F20:  MOVLW  28
07F22:  MOVWF  xE7
07F24:  MOVLW  01
07F26:  MOVWF  xE8
07F28:  MOVLW  02
07F2A:  MOVWF  xE9
07F2C:  MOVLB  0
07F2E:  CALL   549A
....................       else 
07F32:  BRA    7F4E
....................       {displayTiempo(Tpurgap[3],20,40,0,2);} 
07F34:  MOVFF  4F4,5E5
07F38:  MOVLW  14
07F3A:  MOVLB  5
07F3C:  MOVWF  xE6
07F3E:  MOVLW  28
07F40:  MOVWF  xE7
07F42:  CLRF   xE8
07F44:  MOVLW  02
07F46:  MOVWF  xE9
07F48:  MOVLB  0
07F4A:  CALL   549A
....................        
....................       if(unidad==3) 
07F4E:  MOVLB  4
07F50:  MOVF   xD0,W
07F52:  SUBLW  03
07F54:  BNZ   7F72
....................       {displayTiempo(Tpurgap[2],40,40,1,2);} 
07F56:  MOVFF  4F3,5E5
07F5A:  MOVLW  28
07F5C:  MOVLB  5
07F5E:  MOVWF  xE6
07F60:  MOVWF  xE7
07F62:  MOVLW  01
07F64:  MOVWF  xE8
07F66:  MOVLW  02
07F68:  MOVWF  xE9
07F6A:  MOVLB  0
07F6C:  CALL   549A
....................       else 
07F70:  BRA    7F8A
....................       {displayTiempo(Tpurgap[2],40,40,0,2);} 
07F72:  MOVFF  4F3,5E5
07F76:  MOVLW  28
07F78:  MOVLB  5
07F7A:  MOVWF  xE6
07F7C:  MOVWF  xE7
07F7E:  CLRF   xE8
07F80:  MOVLW  02
07F82:  MOVWF  xE9
07F84:  MOVLB  0
07F86:  CALL   549A
....................        
....................       if(unidad==2) 
07F8A:  MOVLB  4
07F8C:  MOVF   xD0,W
07F8E:  SUBLW  02
07F90:  BNZ   7FB0
....................       {displayTiempo(Tpurgap[1],70,40,1,2);} 
07F92:  MOVFF  4F2,5E5
07F96:  MOVLW  46
07F98:  MOVLB  5
07F9A:  MOVWF  xE6
07F9C:  MOVLW  28
07F9E:  MOVWF  xE7
07FA0:  MOVLW  01
07FA2:  MOVWF  xE8
07FA4:  MOVLW  02
07FA6:  MOVWF  xE9
07FA8:  MOVLB  0
07FAA:  CALL   549A
....................       else 
07FAE:  BRA    7FCA
....................       {displayTiempo(Tpurgap[1],70,40,0,2);} 
07FB0:  MOVFF  4F2,5E5
07FB4:  MOVLW  46
07FB6:  MOVLB  5
07FB8:  MOVWF  xE6
07FBA:  MOVLW  28
07FBC:  MOVWF  xE7
07FBE:  CLRF   xE8
07FC0:  MOVLW  02
07FC2:  MOVWF  xE9
07FC4:  MOVLB  0
07FC6:  CALL   549A
....................        
....................       if(unidad==1) 
07FCA:  MOVLB  4
07FCC:  DECFSZ xD0,W
07FCE:  BRA    7FEE
....................       {displayTiempo(Tpurgap[0],90,40,1,2);} 
07FD0:  MOVFF  4F1,5E5
07FD4:  MOVLW  5A
07FD6:  MOVLB  5
07FD8:  MOVWF  xE6
07FDA:  MOVLW  28
07FDC:  MOVWF  xE7
07FDE:  MOVLW  01
07FE0:  MOVWF  xE8
07FE2:  MOVLW  02
07FE4:  MOVWF  xE9
07FE6:  MOVLB  0
07FE8:  CALL   549A
....................       else 
07FEC:  BRA    8008
....................       {displayTiempo(Tpurgap[0],90,40,0,2);} 
07FEE:  MOVFF  4F1,5E5
07FF2:  MOVLW  5A
07FF4:  MOVLB  5
07FF6:  MOVWF  xE6
07FF8:  MOVLW  28
07FFA:  MOVWF  xE7
07FFC:  CLRF   xE8
07FFE:  MOVLW  02
08000:  MOVWF  xE9
08002:  MOVLB  0
08004:  CALL   549A
....................        
....................       glcd_text57(60, 42, Dos_puntos, 2, ON); 
08008:  MOVLW  3C
0800A:  MOVLB  5
0800C:  MOVWF  xFE
0800E:  MOVLW  2A
08010:  MOVWF  xFF
08012:  MOVLW  04
08014:  MOVLB  6
08016:  MOVWF  x01
08018:  MOVLW  4E
0801A:  MOVWF  x00
0801C:  MOVLW  02
0801E:  MOVWF  x02
08020:  MOVLW  01
08022:  MOVWF  x03
08024:  MOVLB  0
08026:  CALL   16EA
....................           
....................          
....................       if(UP)//Si oprime hacia arriba 
0802A:  BSF    F92.5
0802C:  BTFSC  F80.5
0802E:  BRA    805A
....................       {  if(Flanco == 0)  
08030:  MOVLB  4
08032:  BTFSC  x2D.0
08034:  BRA    8058
....................             {Flanco = 1;delay_ms(30);Tpurgap[unidad-1]++; 
08036:  BSF    x2D.0
08038:  MOVLW  1E
0803A:  MOVLB  5
0803C:  MOVWF  xF9
0803E:  MOVLB  0
08040:  CALL   1394
08044:  MOVLW  01
08046:  MOVLB  4
08048:  SUBWF  xD0,W
0804A:  CLRF   03
0804C:  ADDLW  F1
0804E:  MOVWF  FE9
08050:  MOVLW  04
08052:  ADDWFC 03,W
08054:  MOVWF  FEA
08056:  INCF   FEF,F
....................             } 
....................       } 
....................          else 
08058:  BRA    805E
....................             {Flanco = 0;} 
0805A:  MOVLB  4
0805C:  BCF    x2D.0
....................              
....................       if(DOWN)//Si oprime hacia abajo 
0805E:  BSF    F96.0
08060:  BTFSC  F84.0
08062:  BRA    808C
....................       {  if(Flanco2 == 0)  
08064:  BTFSC  x2D.2
08066:  BRA    808A
....................             {Flanco2 = 1;delay_ms(30);Tpurgap[unidad-1]--; 
08068:  BSF    x2D.2
0806A:  MOVLW  1E
0806C:  MOVLB  5
0806E:  MOVWF  xF9
08070:  MOVLB  0
08072:  CALL   1394
08076:  MOVLW  01
08078:  MOVLB  4
0807A:  SUBWF  xD0,W
0807C:  CLRF   03
0807E:  ADDLW  F1
08080:  MOVWF  FE9
08082:  MOVLW  04
08084:  ADDWFC 03,W
08086:  MOVWF  FEA
08088:  DECF   FEF,F
....................             }      
....................       } 
....................          else 
0808A:  BRA    808E
....................             {Flanco2 = 0;}   
0808C:  BCF    x2D.2
....................              
....................       if(RIGHT)//Si oprime SET 
0808E:  BSF    F96.1
08090:  BTFSC  F84.1
08092:  BRA    80AC
....................       {  if(Flanco1 == 0)  
08094:  BTFSC  x2D.1
08096:  BRA    80AA
....................             {Flanco1 = 1;delay_ms(30);unidad--; 
08098:  BSF    x2D.1
0809A:  MOVLW  1E
0809C:  MOVLB  5
0809E:  MOVWF  xF9
080A0:  MOVLB  0
080A2:  CALL   1394
080A6:  MOVLB  4
080A8:  DECF   xD0,F
....................             } 
....................       } 
....................          else 
080AA:  BRA    80AE
....................             {Flanco1 = 0;}   
080AC:  BCF    x2D.1
....................              
....................       if(LEFT)//Si oprime boton de Toma. 
080AE:  BSF    F96.2
080B0:  BTFSC  F84.2
080B2:  BRA    81C2
....................       { 
....................          delay_ms(700);Menu=4;glcd_fillscreen(OFF);Opcion=1;unidad=1; 
080B4:  MOVLW  04
080B6:  MOVLB  5
080B8:  MOVWF  xE5
080BA:  MOVLW  AF
080BC:  MOVWF  xF9
080BE:  MOVLB  0
080C0:  CALL   1394
080C4:  MOVLB  5
080C6:  DECFSZ xE5,F
080C8:  BRA    80BA
080CA:  MOVLW  04
080CC:  MOVLB  4
080CE:  MOVWF  xCF
080D0:  MOVLB  5
080D2:  CLRF   xED
080D4:  MOVLB  0
080D6:  CALL   1474
080DA:  MOVLW  01
080DC:  MOVLB  4
080DE:  MOVWF  xD1
080E0:  MOVWF  xD0
....................          write_eeprom(4,Tpurgap[0]); 
080E2:  CLRF   FAA
080E4:  MOVLW  04
080E6:  MOVWF  FA9
080E8:  MOVFF  4F1,FA8
080EC:  BCF    FA6.6
080EE:  BCF    FA6.7
080F0:  BSF    FA6.2
080F2:  MOVF   FF2,W
080F4:  MOVWF  00
080F6:  BCF    FF2.7
080F8:  MOVLB  F
080FA:  MOVLW  55
080FC:  MOVWF  FA7
080FE:  MOVLW  AA
08100:  MOVWF  FA7
08102:  BSF    FA6.1
08104:  BTFSC  FA6.1
08106:  BRA    8104
08108:  BCF    FA6.2
0810A:  MOVF   00,W
0810C:  IORWF  FF2,F
....................          delay_ms(20); 
0810E:  MOVLW  14
08110:  MOVLB  5
08112:  MOVWF  xF9
08114:  MOVLB  0
08116:  CALL   1394
....................          write_eeprom(5,Tpurgap[1]); 
0811A:  CLRF   FAA
0811C:  MOVLW  05
0811E:  MOVWF  FA9
08120:  MOVFF  4F2,FA8
08124:  BCF    FA6.6
08126:  BCF    FA6.7
08128:  BSF    FA6.2
0812A:  MOVF   FF2,W
0812C:  MOVWF  00
0812E:  BCF    FF2.7
08130:  MOVLB  F
08132:  MOVLW  55
08134:  MOVWF  FA7
08136:  MOVLW  AA
08138:  MOVWF  FA7
0813A:  BSF    FA6.1
0813C:  BTFSC  FA6.1
0813E:  BRA    813C
08140:  BCF    FA6.2
08142:  MOVF   00,W
08144:  IORWF  FF2,F
....................          delay_ms(20); 
08146:  MOVLW  14
08148:  MOVLB  5
0814A:  MOVWF  xF9
0814C:  MOVLB  0
0814E:  CALL   1394
....................          write_eeprom(6,Tpurgap[2]); 
08152:  CLRF   FAA
08154:  MOVLW  06
08156:  MOVWF  FA9
08158:  MOVFF  4F3,FA8
0815C:  BCF    FA6.6
0815E:  BCF    FA6.7
08160:  BSF    FA6.2
08162:  MOVF   FF2,W
08164:  MOVWF  00
08166:  BCF    FF2.7
08168:  MOVLB  F
0816A:  MOVLW  55
0816C:  MOVWF  FA7
0816E:  MOVLW  AA
08170:  MOVWF  FA7
08172:  BSF    FA6.1
08174:  BTFSC  FA6.1
08176:  BRA    8174
08178:  BCF    FA6.2
0817A:  MOVF   00,W
0817C:  IORWF  FF2,F
....................          delay_ms(20); 
0817E:  MOVLW  14
08180:  MOVLB  5
08182:  MOVWF  xF9
08184:  MOVLB  0
08186:  CALL   1394
....................          write_eeprom(7,Tpurgap[3]); 
0818A:  CLRF   FAA
0818C:  MOVLW  07
0818E:  MOVWF  FA9
08190:  MOVFF  4F4,FA8
08194:  BCF    FA6.6
08196:  BCF    FA6.7
08198:  BSF    FA6.2
0819A:  MOVF   FF2,W
0819C:  MOVWF  00
0819E:  BCF    FF2.7
081A0:  MOVLB  F
081A2:  MOVLW  55
081A4:  MOVWF  FA7
081A6:  MOVLW  AA
081A8:  MOVWF  FA7
081AA:  BSF    FA6.1
081AC:  BTFSC  FA6.1
081AE:  BRA    81AC
081B0:  BCF    FA6.2
081B2:  MOVF   00,W
081B4:  IORWF  FF2,F
....................          delay_ms(20); 
081B6:  MOVLW  14
081B8:  MOVLB  5
081BA:  MOVWF  xF9
081BC:  MOVLB  0
081BE:  CALL   1394
....................       } 
....................        
....................       for(i=0;i<4;i++) 
081C2:  MOVLB  5
081C4:  CLRF   xD5
081C6:  MOVF   xD5,W
081C8:  SUBLW  03
081CA:  BNC   821E
....................       { 
....................          if(Tpurgap[i]>9) 
081CC:  CLRF   03
081CE:  MOVF   xD5,W
081D0:  ADDLW  F1
081D2:  MOVWF  FE9
081D4:  MOVLW  04
081D6:  ADDWFC 03,W
081D8:  MOVWF  FEA
081DA:  BTFSC  FEF.7
081DC:  BRA    81F4
081DE:  MOVF   FEF,W
081E0:  SUBLW  09
081E2:  BC    81F4
....................          {Tpurgap[i]=0;} 
081E4:  CLRF   03
081E6:  MOVF   xD5,W
081E8:  ADDLW  F1
081EA:  MOVWF  FE9
081EC:  MOVLW  04
081EE:  ADDWFC 03,W
081F0:  MOVWF  FEA
081F2:  CLRF   FEF
....................           
....................          if(Tpurgap[i]<0) 
081F4:  CLRF   03
081F6:  MOVF   xD5,W
081F8:  ADDLW  F1
081FA:  MOVWF  FE9
081FC:  MOVLW  04
081FE:  ADDWFC 03,W
08200:  MOVWF  FEA
08202:  BTFSC  FEF.7
08204:  BRA    8208
08206:  BRA    821A
....................          {Tpurgap[i]=9;} 
08208:  CLRF   03
0820A:  MOVF   xD5,W
0820C:  ADDLW  F1
0820E:  MOVWF  FE9
08210:  MOVLW  04
08212:  ADDWFC 03,W
08214:  MOVWF  FEA
08216:  MOVLW  09
08218:  MOVWF  FEF
....................       }       
0821A:  INCF   xD5,F
0821C:  BRA    81C6
....................       for(i=1;i<4;i++) 
0821E:  MOVLW  01
08220:  MOVWF  xD5
08222:  MOVF   xD5,W
08224:  SUBLW  03
08226:  BNC   827C
....................       { 
....................          if(Tpurgap[i]>5) 
08228:  CLRF   03
0822A:  MOVF   xD5,W
0822C:  ADDLW  F1
0822E:  MOVWF  FE9
08230:  MOVLW  04
08232:  ADDWFC 03,W
08234:  MOVWF  FEA
08236:  BTFSC  FEF.7
08238:  BRA    8250
0823A:  MOVF   FEF,W
0823C:  SUBLW  05
0823E:  BC    8250
....................          {Tpurgap[i]=0;} 
08240:  CLRF   03
08242:  MOVF   xD5,W
08244:  ADDLW  F1
08246:  MOVWF  FE9
08248:  MOVLW  04
0824A:  ADDWFC 03,W
0824C:  MOVWF  FEA
0824E:  CLRF   FEF
....................           
....................          if(Tpurgap[i]<0) 
08250:  CLRF   03
08252:  MOVF   xD5,W
08254:  ADDLW  F1
08256:  MOVWF  FE9
08258:  MOVLW  04
0825A:  ADDWFC 03,W
0825C:  MOVWF  FEA
0825E:  BTFSC  FEF.7
08260:  BRA    8264
08262:  BRA    8276
....................          {Tpurgap[i]=5;} 
08264:  CLRF   03
08266:  MOVF   xD5,W
08268:  ADDLW  F1
0826A:  MOVWF  FE9
0826C:  MOVLW  04
0826E:  ADDWFC 03,W
08270:  MOVWF  FEA
08272:  MOVLW  05
08274:  MOVWF  FEF
....................         i++;  
08276:  INCF   xD5,F
....................       } 
08278:  INCF   xD5,F
0827A:  BRA    8222
....................       if(unidad<1) 
0827C:  MOVLB  4
0827E:  MOVF   xD0,F
08280:  BNZ   8286
....................       {unidad=4;} 
08282:  MOVLW  04
08284:  MOVWF  xD0
....................       if(Opcion<1) 
08286:  MOVF   xD1,F
08288:  BNZ   828E
....................       {Opcion=4;} 
0828A:  MOVLW  04
0828C:  MOVWF  xD1
....................      
....................     } 
.................... //_--------------------------------------------------------------------------------------------------------------------------------------------------------        
....................  
.................... //_-------------------------------------------------------------------------------------------------------------------------------------------------------- 
....................       if(Menu==5){ //Menu de Clave. 
0828E:  MOVF   xCF,W
08290:  SUBLW  05
08292:  BNZ   82F2
....................  
....................       PidePassword(3,5,211,Password[0],Password[1],Password[2],Password[3]); 
08294:  MOVLW  03
08296:  MOVLB  5
08298:  MOVWF  xE6
0829A:  MOVLW  05
0829C:  MOVWF  xE7
0829E:  MOVLW  D3
082A0:  MOVWF  xE8
082A2:  MOVFF  50D,5E9
082A6:  MOVFF  50E,5EA
082AA:  MOVFF  50F,5EB
082AE:  MOVFF  510,5EC
082B2:  MOVLB  0
082B4:  CALL   4DB4
....................              
....................       if(LEFT)//Si oprime boton de Toma. 
082B8:  BSF    F96.2
082BA:  BTFSC  F84.2
082BC:  BRA    82F4
....................       { 
....................          delay_ms(200); 
082BE:  MOVLW  C8
082C0:  MOVLB  5
082C2:  MOVWF  xF9
082C4:  MOVLB  0
082C6:  CALL   1394
....................          if(unidad==1){ 
082CA:  MOVLB  4
082CC:  DECFSZ xD0,W
082CE:  BRA    82F2
....................             Menu=3;glcd_fillscreen(OFF);Opcion=1;unidad=1;Contrasena[0]=0;Contrasena[1]=0;Contrasena[2]=0;Contrasena[3]=0; 
082D0:  MOVLW  03
082D2:  MOVWF  xCF
082D4:  MOVLB  5
082D6:  CLRF   xED
082D8:  MOVLB  0
082DA:  CALL   1474
082DE:  MOVLW  01
082E0:  MOVLB  4
082E2:  MOVWF  xD1
082E4:  MOVWF  xD0
082E6:  MOVLB  5
082E8:  CLRF   x09
082EA:  CLRF   x0A
082EC:  CLRF   x0B
082EE:  CLRF   x0C
082F0:  MOVLB  4
082F2:  MOVLB  0
....................          } 
....................       }  
....................     } 
.................... //_--------------------------------------------------------------------------------------------------------------------------------------------------------        
....................  
.................... //_-------------------------------------------------------------------------------------------------------------------------------------------------------- 
....................       if(Menu==211){ //Menu de Cambio Clave. 
082F4:  MOVLB  4
082F6:  MOVF   xCF,W
082F8:  SUBLW  D3
082FA:  BTFSS  FD8.2
082FC:  BRA    879C
....................        
....................       if(n==0) 
082FE:  BTFSC  x2F.5
08300:  BRA    8360
....................       { 
....................          displayContrasena(Contrasena[0],20,30,1);displayContrasena(Contrasena[1],40,30,0); 
08302:  MOVFF  509,5EF
08306:  MOVLW  14
08308:  MOVLB  5
0830A:  MOVWF  xF0
0830C:  MOVLW  1E
0830E:  MOVWF  xF1
08310:  MOVLW  01
08312:  MOVWF  xF2
08314:  MOVLB  0
08316:  CALL   4C14
0831A:  MOVFF  50A,5EF
0831E:  MOVLW  28
08320:  MOVLB  5
08322:  MOVWF  xF0
08324:  MOVLW  1E
08326:  MOVWF  xF1
08328:  CLRF   xF2
0832A:  MOVLB  0
0832C:  CALL   4C14
....................          displayContrasena(Contrasena[2],60,30,0);displayContrasena(Contrasena[0],80,30,0); 
08330:  MOVFF  50B,5EF
08334:  MOVLW  3C
08336:  MOVLB  5
08338:  MOVWF  xF0
0833A:  MOVLW  1E
0833C:  MOVWF  xF1
0833E:  CLRF   xF2
08340:  MOVLB  0
08342:  CALL   4C14
08346:  MOVFF  509,5EF
0834A:  MOVLW  50
0834C:  MOVLB  5
0834E:  MOVWF  xF0
08350:  MOVLW  1E
08352:  MOVWF  xF1
08354:  CLRF   xF2
08356:  MOVLB  0
08358:  CALL   4C14
....................          n=1; 
0835C:  MOVLB  4
0835E:  BSF    x2F.5
....................       } 
....................       strcpy(Menus.Letra,"Clave Nueva"); 
08360:  MOVLW  04
08362:  MOVWF  FEA
08364:  MOVLW  17
08366:  MOVWF  FE9
08368:  MOVFF  FF2,5E5
0836C:  BCF    FF2.7
0836E:  MOVLW  00
08370:  MOVLB  0
08372:  CALL   111E
08376:  TBLRD*-
08378:  TBLRD*+
0837A:  MOVF   FF5,W
0837C:  MOVWF  FEE
0837E:  IORLW  00
08380:  BNZ   8378
08382:  MOVLB  5
08384:  BTFSC  xE5.7
08386:  BSF    FF2.7
....................       displayMenu(Menus.Letra,0,0,1,2); 
08388:  MOVLW  04
0838A:  MOVWF  xEE
0838C:  MOVLW  17
0838E:  MOVWF  xED
08390:  CLRF   xEF
08392:  CLRF   xF0
08394:  MOVLW  01
08396:  MOVWF  xF1
08398:  MOVLW  02
0839A:  MOVWF  xF2
0839C:  MOVLB  0
0839E:  CALL   4CDC
....................          
....................        
....................       if(UP)//Si oprime hacia arriba 
083A2:  BSF    F92.5
083A4:  BTFSC  F80.5
083A6:  BRA    8480
....................       {  if(Flanco == 0)  
083A8:  MOVLB  4
083AA:  BTFSC  x2D.0
083AC:  BRA    847E
....................             {Flanco = 1;delay_ms(30); 
083AE:  BSF    x2D.0
083B0:  MOVLW  1E
083B2:  MOVLB  5
083B4:  MOVWF  xF9
083B6:  MOVLB  0
083B8:  CALL   1394
....................             for(i=1;i<=4;i++) 
083BC:  MOVLW  01
083BE:  MOVLB  5
083C0:  MOVWF  xD5
083C2:  MOVF   xD5,W
083C4:  SUBLW  04
083C6:  BNC   847C
....................                { 
....................                   if(unidad==i) 
083C8:  MOVF   xD5,W
083CA:  MOVLB  4
083CC:  SUBWF  xD0,W
083CE:  BNZ   8444
....................                   {Contrasena[i-1]++; 
083D0:  MOVLW  01
083D2:  MOVLB  5
083D4:  SUBWF  xD5,W
083D6:  CLRF   03
083D8:  ADDLW  09
083DA:  MOVWF  FE9
083DC:  MOVLW  05
083DE:  ADDWFC 03,W
083E0:  MOVWF  FEA
083E2:  INCF   FEF,F
....................                   if(Contrasena[i-1]>9) 
083E4:  MOVLW  01
083E6:  SUBWF  xD5,W
083E8:  CLRF   03
083EA:  ADDLW  09
083EC:  MOVWF  FE9
083EE:  MOVLW  05
083F0:  ADDWFC 03,W
083F2:  MOVWF  FEA
083F4:  BTFSC  FEF.7
083F6:  BRA    8410
083F8:  MOVF   FEF,W
083FA:  SUBLW  09
083FC:  BC    8410
....................                         {Contrasena[i-1]=0;} 
083FE:  MOVLW  01
08400:  SUBWF  xD5,W
08402:  CLRF   03
08404:  ADDLW  09
08406:  MOVWF  FE9
08408:  MOVLW  05
0840A:  ADDWFC 03,W
0840C:  MOVWF  FEA
0840E:  CLRF   FEF
....................                   displayContrasena(Contrasena[i-1],i*20,30,1);} 
08410:  MOVLW  01
08412:  SUBWF  xD5,W
08414:  CLRF   03
08416:  ADDLW  09
08418:  MOVWF  FE9
0841A:  MOVLW  05
0841C:  ADDWFC 03,W
0841E:  MOVWF  FEA
08420:  MOVFF  FEF,5E5
08424:  MOVF   xD5,W
08426:  MULLW  14
08428:  MOVFF  FF3,5E6
0842C:  MOVFF  5E5,5EF
08430:  MOVFF  5E6,5F0
08434:  MOVLW  1E
08436:  MOVWF  xF1
08438:  MOVLW  01
0843A:  MOVWF  xF2
0843C:  MOVLB  0
0843E:  CALL   4C14
....................                   else 
08442:  BRA    8476
....................                   {displayContrasena(Contrasena[i-1],i*20,30,0);} 
08444:  MOVLW  01
08446:  MOVLB  5
08448:  SUBWF  xD5,W
0844A:  CLRF   03
0844C:  ADDLW  09
0844E:  MOVWF  FE9
08450:  MOVLW  05
08452:  ADDWFC 03,W
08454:  MOVWF  FEA
08456:  MOVFF  FEF,5E5
0845A:  MOVF   xD5,W
0845C:  MULLW  14
0845E:  MOVFF  FF3,5E6
08462:  MOVFF  5E5,5EF
08466:  MOVFF  5E6,5F0
0846A:  MOVLW  1E
0846C:  MOVWF  xF1
0846E:  CLRF   xF2
08470:  MOVLB  0
08472:  CALL   4C14
....................                } 
08476:  MOVLB  5
08478:  INCF   xD5,F
0847A:  BRA    83C2
0847C:  MOVLB  4
....................             } 
....................       } 
....................          else 
0847E:  BRA    8484
....................             {Flanco = 0;} 
08480:  MOVLB  4
08482:  BCF    x2D.0
....................              
....................       if(DOWN )//Si oprime hacia abajo 
08484:  BSF    F96.0
08486:  BTFSC  F84.0
08488:  BRA    855E
....................       {  if(Flanco2 == 0)  
0848A:  BTFSC  x2D.2
0848C:  BRA    855C
....................             {Flanco2 = 1;delay_ms(30); 
0848E:  BSF    x2D.2
08490:  MOVLW  1E
08492:  MOVLB  5
08494:  MOVWF  xF9
08496:  MOVLB  0
08498:  CALL   1394
....................                for(i=1;i<=4;i++) 
0849C:  MOVLW  01
0849E:  MOVLB  5
084A0:  MOVWF  xD5
084A2:  MOVF   xD5,W
084A4:  SUBLW  04
084A6:  BNC   855A
....................                { 
....................                   if(unidad==i) 
084A8:  MOVF   xD5,W
084AA:  MOVLB  4
084AC:  SUBWF  xD0,W
084AE:  BNZ   8522
....................                   {Contrasena[i-1]--;  
084B0:  MOVLW  01
084B2:  MOVLB  5
084B4:  SUBWF  xD5,W
084B6:  CLRF   03
084B8:  ADDLW  09
084BA:  MOVWF  FE9
084BC:  MOVLW  05
084BE:  ADDWFC 03,W
084C0:  MOVWF  FEA
084C2:  DECF   FEF,F
....................                      if(Contrasena[i-1]<0) 
084C4:  MOVLW  01
084C6:  SUBWF  xD5,W
084C8:  CLRF   03
084CA:  ADDLW  09
084CC:  MOVWF  FE9
084CE:  MOVLW  05
084D0:  ADDWFC 03,W
084D2:  MOVWF  FEA
084D4:  BTFSC  FEF.7
084D6:  BRA    84DA
084D8:  BRA    84EE
....................                         {Contrasena[i-1]=9;} 
084DA:  MOVLW  01
084DC:  SUBWF  xD5,W
084DE:  CLRF   03
084E0:  ADDLW  09
084E2:  MOVWF  FE9
084E4:  MOVLW  05
084E6:  ADDWFC 03,W
084E8:  MOVWF  FEA
084EA:  MOVLW  09
084EC:  MOVWF  FEF
....................                    displayContrasena(Contrasena[i-1],i*20,30,1);} 
084EE:  MOVLW  01
084F0:  SUBWF  xD5,W
084F2:  CLRF   03
084F4:  ADDLW  09
084F6:  MOVWF  FE9
084F8:  MOVLW  05
084FA:  ADDWFC 03,W
084FC:  MOVWF  FEA
084FE:  MOVFF  FEF,5E5
08502:  MOVF   xD5,W
08504:  MULLW  14
08506:  MOVFF  FF3,5E6
0850A:  MOVFF  5E5,5EF
0850E:  MOVFF  5E6,5F0
08512:  MOVLW  1E
08514:  MOVWF  xF1
08516:  MOVLW  01
08518:  MOVWF  xF2
0851A:  MOVLB  0
0851C:  CALL   4C14
....................                   else 
08520:  BRA    8554
....................                   {displayContrasena(Contrasena[i-1],i*20,30,0);} 
08522:  MOVLW  01
08524:  MOVLB  5
08526:  SUBWF  xD5,W
08528:  CLRF   03
0852A:  ADDLW  09
0852C:  MOVWF  FE9
0852E:  MOVLW  05
08530:  ADDWFC 03,W
08532:  MOVWF  FEA
08534:  MOVFF  FEF,5E5
08538:  MOVF   xD5,W
0853A:  MULLW  14
0853C:  MOVFF  FF3,5E6
08540:  MOVFF  5E5,5EF
08544:  MOVFF  5E6,5F0
08548:  MOVLW  1E
0854A:  MOVWF  xF1
0854C:  CLRF   xF2
0854E:  MOVLB  0
08550:  CALL   4C14
....................                }       
08554:  MOVLB  5
08556:  INCF   xD5,F
08558:  BRA    84A2
0855A:  MOVLB  4
....................             }      
....................       } 
....................          else 
0855C:  BRA    8560
....................             {Flanco2 = 0;}   
0855E:  BCF    x2D.2
....................              
....................       if(RIGHT)//Si oprime SET 
08560:  BSF    F96.1
08562:  BTFSC  F84.1
08564:  BRA    8602
....................       {  if(Flanco1 == 0)  
08566:  BTFSC  x2D.1
08568:  BRA    8600
....................             {Flanco1 = 1;delay_ms(30);unidad++; 
0856A:  BSF    x2D.1
0856C:  MOVLW  1E
0856E:  MOVLB  5
08570:  MOVWF  xF9
08572:  MOVLB  0
08574:  CALL   1394
08578:  MOVLB  4
0857A:  INCF   xD0,F
....................                for(i=1;i<=4;i++) 
0857C:  MOVLW  01
0857E:  MOVLB  5
08580:  MOVWF  xD5
08582:  MOVF   xD5,W
08584:  SUBLW  04
08586:  BNC   85FE
....................                { 
....................                   if(unidad==i) 
08588:  MOVF   xD5,W
0858A:  MOVLB  4
0858C:  SUBWF  xD0,W
0858E:  BNZ   85C6
....................                   {displayContrasena(Contrasena[i-1],i*20,30,1);} 
08590:  MOVLW  01
08592:  MOVLB  5
08594:  SUBWF  xD5,W
08596:  CLRF   03
08598:  ADDLW  09
0859A:  MOVWF  FE9
0859C:  MOVLW  05
0859E:  ADDWFC 03,W
085A0:  MOVWF  FEA
085A2:  MOVFF  FEF,5E5
085A6:  MOVF   xD5,W
085A8:  MULLW  14
085AA:  MOVFF  FF3,5E6
085AE:  MOVFF  5E5,5EF
085B2:  MOVFF  5E6,5F0
085B6:  MOVLW  1E
085B8:  MOVWF  xF1
085BA:  MOVLW  01
085BC:  MOVWF  xF2
085BE:  MOVLB  0
085C0:  CALL   4C14
....................                   else 
085C4:  BRA    85F8
....................                   {displayContrasena(Contrasena[i-1],i*20,30,0);} 
085C6:  MOVLW  01
085C8:  MOVLB  5
085CA:  SUBWF  xD5,W
085CC:  CLRF   03
085CE:  ADDLW  09
085D0:  MOVWF  FE9
085D2:  MOVLW  05
085D4:  ADDWFC 03,W
085D6:  MOVWF  FEA
085D8:  MOVFF  FEF,5E5
085DC:  MOVF   xD5,W
085DE:  MULLW  14
085E0:  MOVFF  FF3,5E6
085E4:  MOVFF  5E5,5EF
085E8:  MOVFF  5E6,5F0
085EC:  MOVLW  1E
085EE:  MOVWF  xF1
085F0:  CLRF   xF2
085F2:  MOVLB  0
085F4:  CALL   4C14
....................                } 
085F8:  MOVLB  5
085FA:  INCF   xD5,F
085FC:  BRA    8582
085FE:  MOVLB  4
....................             } 
....................       } 
....................          else 
08600:  BRA    8604
....................             {Flanco1 = 0;}   
08602:  BCF    x2D.1
....................              
....................       if(LEFT)//Si oprime boton de Toma. 
08604:  BSF    F96.2
08606:  BTFSC  F84.2
08608:  BRA    8648
....................       { 
....................          
....................          delay_ms(700); 
0860A:  MOVLW  04
0860C:  MOVLB  5
0860E:  MOVWF  xE5
08610:  MOVLW  AF
08612:  MOVWF  xF9
08614:  MOVLB  0
08616:  CALL   1394
0861A:  MOVLB  5
0861C:  DECFSZ xE5,F
0861E:  BRA    8610
....................          if(unidad==1){ 
08620:  MOVLB  4
08622:  DECFSZ xD0,W
08624:  BRA    8648
....................             Menu=3;glcd_fillscreen(OFF);Opcion=1;unidad=1;Contrasena[0]=0;Contrasena[1]=0;Contrasena[2]=0;Contrasena[3]=0; 
08626:  MOVLW  03
08628:  MOVWF  xCF
0862A:  MOVLB  5
0862C:  CLRF   xED
0862E:  MOVLB  0
08630:  CALL   1474
08634:  MOVLW  01
08636:  MOVLB  4
08638:  MOVWF  xD1
0863A:  MOVWF  xD0
0863C:  MOVLB  5
0863E:  CLRF   x09
08640:  CLRF   x0A
08642:  CLRF   x0B
08644:  CLRF   x0C
08646:  MOVLB  4
....................          } 
....................       } 
....................        
....................       if(unidad>4) 
08648:  MOVF   xD0,W
0864A:  SUBLW  04
0864C:  BTFSC  FD8.0
0864E:  BRA    879C
....................       { 
....................          Opcion=1;glcd_fillscreen(OFF);unidad=1;n=0; 
08650:  MOVLW  01
08652:  MOVWF  xD1
08654:  MOVLB  5
08656:  CLRF   xED
08658:  MOVLB  0
0865A:  CALL   1474
0865E:  MOVLW  01
08660:  MOVLB  4
08662:  MOVWF  xD0
08664:  BCF    x2F.5
....................          Password[0]=Contrasena[0];Password[1]=Contrasena[1];Password[2]=Contrasena[2];Password[3]=Contrasena[3]; 
08666:  MOVFF  509,50D
0866A:  MOVFF  50A,50E
0866E:  MOVFF  50B,50F
08672:  MOVFF  50C,510
....................          write_eeprom(0,Password[0]); 
08676:  CLRF   FAA
08678:  CLRF   FA9
0867A:  MOVFF  50D,FA8
0867E:  BCF    FA6.6
08680:  BCF    FA6.7
08682:  BSF    FA6.2
08684:  MOVF   FF2,W
08686:  MOVWF  00
08688:  BCF    FF2.7
0868A:  MOVLB  F
0868C:  MOVLW  55
0868E:  MOVWF  FA7
08690:  MOVLW  AA
08692:  MOVWF  FA7
08694:  BSF    FA6.1
08696:  BTFSC  FA6.1
08698:  BRA    8696
0869A:  BCF    FA6.2
0869C:  MOVF   00,W
0869E:  IORWF  FF2,F
....................          delay_ms(20); 
086A0:  MOVLW  14
086A2:  MOVLB  5
086A4:  MOVWF  xF9
086A6:  MOVLB  0
086A8:  CALL   1394
....................          write_eeprom(1,Password[1]); 
086AC:  CLRF   FAA
086AE:  MOVLW  01
086B0:  MOVWF  FA9
086B2:  MOVFF  50E,FA8
086B6:  BCF    FA6.6
086B8:  BCF    FA6.7
086BA:  BSF    FA6.2
086BC:  MOVF   FF2,W
086BE:  MOVWF  00
086C0:  BCF    FF2.7
086C2:  MOVLB  F
086C4:  MOVLW  55
086C6:  MOVWF  FA7
086C8:  MOVLW  AA
086CA:  MOVWF  FA7
086CC:  BSF    FA6.1
086CE:  BTFSC  FA6.1
086D0:  BRA    86CE
086D2:  BCF    FA6.2
086D4:  MOVF   00,W
086D6:  IORWF  FF2,F
....................          delay_ms(20); 
086D8:  MOVLW  14
086DA:  MOVLB  5
086DC:  MOVWF  xF9
086DE:  MOVLB  0
086E0:  CALL   1394
....................          write_eeprom(2,Password[2]); 
086E4:  CLRF   FAA
086E6:  MOVLW  02
086E8:  MOVWF  FA9
086EA:  MOVFF  50F,FA8
086EE:  BCF    FA6.6
086F0:  BCF    FA6.7
086F2:  BSF    FA6.2
086F4:  MOVF   FF2,W
086F6:  MOVWF  00
086F8:  BCF    FF2.7
086FA:  MOVLB  F
086FC:  MOVLW  55
086FE:  MOVWF  FA7
08700:  MOVLW  AA
08702:  MOVWF  FA7
08704:  BSF    FA6.1
08706:  BTFSC  FA6.1
08708:  BRA    8706
0870A:  BCF    FA6.2
0870C:  MOVF   00,W
0870E:  IORWF  FF2,F
....................          delay_ms(20); 
08710:  MOVLW  14
08712:  MOVLB  5
08714:  MOVWF  xF9
08716:  MOVLB  0
08718:  CALL   1394
....................          write_eeprom(3,Password[3]); 
0871C:  CLRF   FAA
0871E:  MOVLW  03
08720:  MOVWF  FA9
08722:  MOVFF  510,FA8
08726:  BCF    FA6.6
08728:  BCF    FA6.7
0872A:  BSF    FA6.2
0872C:  MOVF   FF2,W
0872E:  MOVWF  00
08730:  BCF    FF2.7
08732:  MOVLB  F
08734:  MOVLW  55
08736:  MOVWF  FA7
08738:  MOVLW  AA
0873A:  MOVWF  FA7
0873C:  BSF    FA6.1
0873E:  BTFSC  FA6.1
08740:  BRA    873E
08742:  BCF    FA6.2
08744:  MOVF   00,W
08746:  IORWF  FF2,F
....................          delay_ms(20); 
08748:  MOVLW  14
0874A:  MOVLB  5
0874C:  MOVWF  xF9
0874E:  MOVLB  0
08750:  CALL   1394
....................          glcd_imagen(1);glcd_update();Menu=211;delay_ms(1000);glcd_fillScreen(OFF);Menu=3; 
08754:  MOVLW  01
08756:  MOVLB  5
08758:  MOVWF  xE5
0875A:  MOVLB  0
0875C:  CALL   5C94
08760:  CALL   14CE
08764:  MOVLW  D3
08766:  MOVLB  4
08768:  MOVWF  xCF
0876A:  MOVLW  04
0876C:  MOVLB  5
0876E:  MOVWF  xE5
08770:  MOVLW  FA
08772:  MOVWF  xF9
08774:  MOVLB  0
08776:  CALL   1394
0877A:  MOVLB  5
0877C:  DECFSZ xE5,F
0877E:  BRA    8770
08780:  CLRF   xED
08782:  MOVLB  0
08784:  CALL   1474
08788:  MOVLW  03
0878A:  MOVLB  4
0878C:  MOVWF  xCF
....................          n=0; 
0878E:  BCF    x2F.5
....................          Contrasena[0]=0;Contrasena[1]=0;Contrasena[2]=0;Contrasena[3]=0; 
08790:  MOVLB  5
08792:  CLRF   x09
08794:  CLRF   x0A
08796:  CLRF   x0B
08798:  CLRF   x0C
0879A:  MOVLB  4
....................       } 
....................      
....................     } 
.................... //_--------------------------------------------------------------------------------------------------------------------------------------------------------        
....................  
.................... //_-------------------------------------------------------------------------------------------------------------------------------------------------------- 
....................       if(Menu==31){ //Menu de Mantenimiento. 
0879C:  MOVF   xCF,W
0879E:  SUBLW  1F
087A0:  BTFSS  FD8.2
087A2:  BRA    8B02
....................        
....................          strcpy(Menus.Letra,"Manteniento"); 
087A4:  MOVLW  04
087A6:  MOVWF  FEA
087A8:  MOVLW  17
087AA:  MOVWF  FE9
087AC:  MOVFF  FF2,5E5
087B0:  BCF    FF2.7
087B2:  MOVLW  00
087B4:  MOVLB  0
087B6:  CALL   1148
087BA:  TBLRD*-
087BC:  TBLRD*+
087BE:  MOVF   FF5,W
087C0:  MOVWF  FEE
087C2:  IORLW  00
087C4:  BNZ   87BC
087C6:  MOVLB  5
087C8:  BTFSC  xE5.7
087CA:  BSF    FF2.7
....................          displayMenu(Menus.Letra,0,0,1,2); 
087CC:  MOVLW  04
087CE:  MOVWF  xEE
087D0:  MOVLW  17
087D2:  MOVWF  xED
087D4:  CLRF   xEF
087D6:  CLRF   xF0
087D8:  MOVLW  01
087DA:  MOVWF  xF1
087DC:  MOVLW  02
087DE:  MOVWF  xF2
087E0:  MOVLB  0
087E2:  CALL   4CDC
....................           
....................          strcpy(Menus.Letra,"Trabajo Filtro(h):"); 
087E6:  MOVLW  04
087E8:  MOVWF  FEA
087EA:  MOVLW  17
087EC:  MOVWF  FE9
087EE:  MOVFF  FF2,5E5
087F2:  BCF    FF2.7
087F4:  MOVLW  00
087F6:  CALL   1172
087FA:  TBLRD*-
087FC:  TBLRD*+
087FE:  MOVF   FF5,W
08800:  MOVWF  FEE
08802:  IORLW  00
08804:  BNZ   87FC
08806:  MOVLB  5
08808:  BTFSC  xE5.7
0880A:  BSF    FF2.7
....................          displayMenu(Menus.Letra,10,20,1,1); 
0880C:  MOVLW  04
0880E:  MOVWF  xEE
08810:  MOVLW  17
08812:  MOVWF  xED
08814:  MOVLW  0A
08816:  MOVWF  xEF
08818:  MOVLW  14
0881A:  MOVWF  xF0
0881C:  MOVLW  01
0881E:  MOVWF  xF1
08820:  MOVWF  xF2
08822:  MOVLB  0
08824:  CALL   4CDC
....................          glcd_text57(0, 31, Vida_Filtro, 1, ON); 
08828:  MOVLB  5
0882A:  CLRF   xFE
0882C:  MOVLW  1F
0882E:  MOVWF  xFF
08830:  MOVLW  04
08832:  MOVLB  6
08834:  MOVWF  x01
08836:  MOVLW  95
08838:  MOVWF  x00
0883A:  MOVLW  01
0883C:  MOVWF  x02
0883E:  MOVWF  x03
08840:  MOVLB  0
08842:  CALL   16EA
....................          displayTiempo(Ttrabajo[3],60,30,0,1);displayTiempo(Ttrabajo[2],67,30,0,1);displayTiempo(Ttrabajo[1],74,30,0,1);displayTiempo(Ttrabajo[0],82,30,0,1); 
08846:  MOVFF  508,5E5
0884A:  MOVLW  3C
0884C:  MOVLB  5
0884E:  MOVWF  xE6
08850:  MOVLW  1E
08852:  MOVWF  xE7
08854:  CLRF   xE8
08856:  MOVLW  01
08858:  MOVWF  xE9
0885A:  MOVLB  0
0885C:  CALL   549A
08860:  MOVFF  507,5E5
08864:  MOVLW  43
08866:  MOVLB  5
08868:  MOVWF  xE6
0886A:  MOVLW  1E
0886C:  MOVWF  xE7
0886E:  CLRF   xE8
08870:  MOVLW  01
08872:  MOVWF  xE9
08874:  MOVLB  0
08876:  CALL   549A
0887A:  MOVFF  506,5E5
0887E:  MOVLW  4A
08880:  MOVLB  5
08882:  MOVWF  xE6
08884:  MOVLW  1E
08886:  MOVWF  xE7
08888:  CLRF   xE8
0888A:  MOVLW  01
0888C:  MOVWF  xE9
0888E:  MOVLB  0
08890:  CALL   549A
08894:  MOVFF  505,5E5
08898:  MOVLW  52
0889A:  MOVLB  5
0889C:  MOVWF  xE6
0889E:  MOVLW  1E
088A0:  MOVWF  xE7
088A2:  CLRF   xE8
088A4:  MOVLW  01
088A6:  MOVWF  xE9
088A8:  MOVLB  0
088AA:  CALL   549A
....................           
....................          LuzBlanca_on; 
088AE:  BSF    F8B.0
088B0:  BCF    F94.0
....................           
....................             if(UP && RIGHT) // Reinicia Tiempo de Luz UV 
088B2:  BSF    F92.5
088B4:  BTFSC  F80.5
088B6:  BRA    89C8
088B8:  BSF    F96.1
088BA:  BTFSC  F84.1
088BC:  BRA    89C8
....................             { 
....................                   delay_ms(2000); 
088BE:  MOVLW  08
088C0:  MOVLB  5
088C2:  MOVWF  xE5
088C4:  MOVLW  FA
088C6:  MOVWF  xF9
088C8:  MOVLB  0
088CA:  CALL   1394
088CE:  MOVLB  5
088D0:  DECFSZ xE5,F
088D2:  BRA    88C4
....................                   write_eeprom(12,0); 
088D4:  CLRF   FAA
088D6:  MOVLW  0C
088D8:  MOVWF  FA9
088DA:  CLRF   FA8
088DC:  BCF    FA6.6
088DE:  BCF    FA6.7
088E0:  BSF    FA6.2
088E2:  MOVF   FF2,W
088E4:  MOVWF  00
088E6:  BCF    FF2.7
088E8:  MOVLB  F
088EA:  MOVLW  55
088EC:  MOVWF  FA7
088EE:  MOVLW  AA
088F0:  MOVWF  FA7
088F2:  BSF    FA6.1
088F4:  BTFSC  FA6.1
088F6:  BRA    88F4
088F8:  BCF    FA6.2
088FA:  MOVF   00,W
088FC:  IORWF  FF2,F
....................                   delay_ms(20); 
088FE:  MOVLW  14
08900:  MOVLB  5
08902:  MOVWF  xF9
08904:  MOVLB  0
08906:  CALL   1394
....................                   write_eeprom(13,0); 
0890A:  CLRF   FAA
0890C:  MOVLW  0D
0890E:  MOVWF  FA9
08910:  CLRF   FA8
08912:  BCF    FA6.6
08914:  BCF    FA6.7
08916:  BSF    FA6.2
08918:  MOVF   FF2,W
0891A:  MOVWF  00
0891C:  BCF    FF2.7
0891E:  MOVLB  F
08920:  MOVLW  55
08922:  MOVWF  FA7
08924:  MOVLW  AA
08926:  MOVWF  FA7
08928:  BSF    FA6.1
0892A:  BTFSC  FA6.1
0892C:  BRA    892A
0892E:  BCF    FA6.2
08930:  MOVF   00,W
08932:  IORWF  FF2,F
....................                   delay_ms(20); 
08934:  MOVLW  14
08936:  MOVLB  5
08938:  MOVWF  xF9
0893A:  MOVLB  0
0893C:  CALL   1394
....................                   write_eeprom(14,0); 
08940:  CLRF   FAA
08942:  MOVLW  0E
08944:  MOVWF  FA9
08946:  CLRF   FA8
08948:  BCF    FA6.6
0894A:  BCF    FA6.7
0894C:  BSF    FA6.2
0894E:  MOVF   FF2,W
08950:  MOVWF  00
08952:  BCF    FF2.7
08954:  MOVLB  F
08956:  MOVLW  55
08958:  MOVWF  FA7
0895A:  MOVLW  AA
0895C:  MOVWF  FA7
0895E:  BSF    FA6.1
08960:  BTFSC  FA6.1
08962:  BRA    8960
08964:  BCF    FA6.2
08966:  MOVF   00,W
08968:  IORWF  FF2,F
....................                   delay_ms(20); 
0896A:  MOVLW  14
0896C:  MOVLB  5
0896E:  MOVWF  xF9
08970:  MOVLB  0
08972:  CALL   1394
....................                   write_eeprom(15,0); 
08976:  CLRF   FAA
08978:  MOVLW  0F
0897A:  MOVWF  FA9
0897C:  CLRF   FA8
0897E:  BCF    FA6.6
08980:  BCF    FA6.7
08982:  BSF    FA6.2
08984:  MOVF   FF2,W
08986:  MOVWF  00
08988:  BCF    FF2.7
0898A:  MOVLB  F
0898C:  MOVLW  55
0898E:  MOVWF  FA7
08990:  MOVLW  AA
08992:  MOVWF  FA7
08994:  BSF    FA6.1
08996:  BTFSC  FA6.1
08998:  BRA    8996
0899A:  BCF    FA6.2
0899C:  MOVF   00,W
0899E:  IORWF  FF2,F
....................                   delay_ms(20); 
089A0:  MOVLW  14
089A2:  MOVLB  5
089A4:  MOVWF  xF9
089A6:  MOVLB  0
089A8:  CALL   1394
....................                   Tuv[3]=0;Tuv[2]=0;Tuv[1]=0;Tuv[0]=0; 
089AC:  MOVLB  4
089AE:  CLRF   xFC
089B0:  CLRF   xFB
089B2:  CLRF   xFA
089B4:  CLRF   xF9
....................                   Menu=3;glcd_fillscreen(OFF);LuzBlanca_off; 
089B6:  MOVLW  03
089B8:  MOVWF  xCF
089BA:  MOVLB  5
089BC:  CLRF   xED
089BE:  MOVLB  0
089C0:  CALL   1474
089C4:  BCF    F8B.0
089C6:  BCF    F94.0
....................                 
....................             } 
....................             if(DOWN && RIGHT) // Reinicia Tiempo de Trabajo 
089C8:  BSF    F96.0
089CA:  BTFSC  F84.0
089CC:  BRA    8AE0
089CE:  BSF    F96.1
089D0:  BTFSC  F84.1
089D2:  BRA    8AE0
....................             { 
....................                   delay_ms(2000); 
089D4:  MOVLW  08
089D6:  MOVLB  5
089D8:  MOVWF  xE5
089DA:  MOVLW  FA
089DC:  MOVWF  xF9
089DE:  MOVLB  0
089E0:  CALL   1394
089E4:  MOVLB  5
089E6:  DECFSZ xE5,F
089E8:  BRA    89DA
....................                   write_eeprom(16,0); 
089EA:  CLRF   FAA
089EC:  MOVLW  10
089EE:  MOVWF  FA9
089F0:  CLRF   FA8
089F2:  BCF    FA6.6
089F4:  BCF    FA6.7
089F6:  BSF    FA6.2
089F8:  MOVF   FF2,W
089FA:  MOVWF  00
089FC:  BCF    FF2.7
089FE:  MOVLB  F
08A00:  MOVLW  55
08A02:  MOVWF  FA7
08A04:  MOVLW  AA
08A06:  MOVWF  FA7
08A08:  BSF    FA6.1
08A0A:  BTFSC  FA6.1
08A0C:  BRA    8A0A
08A0E:  BCF    FA6.2
08A10:  MOVF   00,W
08A12:  IORWF  FF2,F
....................                   delay_ms(20); 
08A14:  MOVLW  14
08A16:  MOVLB  5
08A18:  MOVWF  xF9
08A1A:  MOVLB  0
08A1C:  CALL   1394
....................                   write_eeprom(17,0); 
08A20:  CLRF   FAA
08A22:  MOVLW  11
08A24:  MOVWF  FA9
08A26:  CLRF   FA8
08A28:  BCF    FA6.6
08A2A:  BCF    FA6.7
08A2C:  BSF    FA6.2
08A2E:  MOVF   FF2,W
08A30:  MOVWF  00
08A32:  BCF    FF2.7
08A34:  MOVLB  F
08A36:  MOVLW  55
08A38:  MOVWF  FA7
08A3A:  MOVLW  AA
08A3C:  MOVWF  FA7
08A3E:  BSF    FA6.1
08A40:  BTFSC  FA6.1
08A42:  BRA    8A40
08A44:  BCF    FA6.2
08A46:  MOVF   00,W
08A48:  IORWF  FF2,F
....................                   delay_ms(20); 
08A4A:  MOVLW  14
08A4C:  MOVLB  5
08A4E:  MOVWF  xF9
08A50:  MOVLB  0
08A52:  CALL   1394
....................                   write_eeprom(18,0); 
08A56:  CLRF   FAA
08A58:  MOVLW  12
08A5A:  MOVWF  FA9
08A5C:  CLRF   FA8
08A5E:  BCF    FA6.6
08A60:  BCF    FA6.7
08A62:  BSF    FA6.2
08A64:  MOVF   FF2,W
08A66:  MOVWF  00
08A68:  BCF    FF2.7
08A6A:  MOVLB  F
08A6C:  MOVLW  55
08A6E:  MOVWF  FA7
08A70:  MOVLW  AA
08A72:  MOVWF  FA7
08A74:  BSF    FA6.1
08A76:  BTFSC  FA6.1
08A78:  BRA    8A76
08A7A:  BCF    FA6.2
08A7C:  MOVF   00,W
08A7E:  IORWF  FF2,F
....................                   delay_ms(20); 
08A80:  MOVLW  14
08A82:  MOVLB  5
08A84:  MOVWF  xF9
08A86:  MOVLB  0
08A88:  CALL   1394
....................                   write_eeprom(19,0); 
08A8C:  CLRF   FAA
08A8E:  MOVLW  13
08A90:  MOVWF  FA9
08A92:  CLRF   FA8
08A94:  BCF    FA6.6
08A96:  BCF    FA6.7
08A98:  BSF    FA6.2
08A9A:  MOVF   FF2,W
08A9C:  MOVWF  00
08A9E:  BCF    FF2.7
08AA0:  MOVLB  F
08AA2:  MOVLW  55
08AA4:  MOVWF  FA7
08AA6:  MOVLW  AA
08AA8:  MOVWF  FA7
08AAA:  BSF    FA6.1
08AAC:  BTFSC  FA6.1
08AAE:  BRA    8AAC
08AB0:  BCF    FA6.2
08AB2:  MOVF   00,W
08AB4:  IORWF  FF2,F
....................                   delay_ms(20); 
08AB6:  MOVLW  14
08AB8:  MOVLB  5
08ABA:  MOVWF  xF9
08ABC:  MOVLB  0
08ABE:  CALL   1394
....................                   Ttrabajo[3]=0;Ttrabajo[2]=0;Ttrabajo[1]=0;Ttrabajo[0]=0; 
08AC2:  MOVLB  5
08AC4:  CLRF   x08
08AC6:  CLRF   x07
08AC8:  CLRF   x06
08ACA:  CLRF   x05
....................                   Menu=3;glcd_fillscreen(OFF);LuzBlanca_off; 
08ACC:  MOVLW  03
08ACE:  MOVLB  4
08AD0:  MOVWF  xCF
08AD2:  MOVLB  5
08AD4:  CLRF   xED
08AD6:  MOVLB  0
08AD8:  CALL   1474
08ADC:  BCF    F8B.0
08ADE:  BCF    F94.0
....................             } 
....................              
....................             if(LEFT) 
08AE0:  BSF    F96.2
08AE2:  BTFSC  F84.2
08AE4:  BRA    8B04
....................             { 
....................                Menu=6;glcd_fillscreen(OFF);LuzBlanca_off;Opcion=1;unidad=1; 
08AE6:  MOVLW  06
08AE8:  MOVLB  4
08AEA:  MOVWF  xCF
08AEC:  MOVLB  5
08AEE:  CLRF   xED
08AF0:  MOVLB  0
08AF2:  CALL   1474
08AF6:  BCF    F8B.0
08AF8:  BCF    F94.0
08AFA:  MOVLW  01
08AFC:  MOVLB  4
08AFE:  MOVWF  xD1
08B00:  MOVWF  xD0
08B02:  MOVLB  0
....................             } 
....................     } 
.................... //_--------------------------------------------------------------------------------------------------------------------------------------------------------        
....................  
.................... //_-------------------------------------------------------------------------------------------------------------------------------------------------------- 
....................       if(Menu==32){ //Menu de Servicio 
08B04:  MOVLB  4
08B06:  MOVF   xCF,W
08B08:  SUBLW  20
08B0A:  BTFSS  FD8.2
08B0C:  BRA    8E24
....................        
....................       strcpy(Menus.Letra,"Servicio"); 
08B0E:  MOVLW  04
08B10:  MOVWF  FEA
08B12:  MOVLW  17
08B14:  MOVWF  FE9
08B16:  MOVFF  FF2,5E5
08B1A:  BCF    FF2.7
08B1C:  MOVLW  00
08B1E:  MOVLB  0
08B20:  CALL   10CE
08B24:  TBLRD*-
08B26:  TBLRD*+
08B28:  MOVF   FF5,W
08B2A:  MOVWF  FEE
08B2C:  IORLW  00
08B2E:  BNZ   8B26
08B30:  MOVLB  5
08B32:  BTFSC  xE5.7
08B34:  BSF    FF2.7
....................       displayMenu(Menus.Letra,10,0,1,2); 
08B36:  MOVLW  04
08B38:  MOVWF  xEE
08B3A:  MOVLW  17
08B3C:  MOVWF  xED
08B3E:  MOVLW  0A
08B40:  MOVWF  xEF
08B42:  CLRF   xF0
08B44:  MOVLW  01
08B46:  MOVWF  xF1
08B48:  MOVLW  02
08B4A:  MOVWF  xF2
08B4C:  MOVLB  0
08B4E:  CALL   4CDC
....................        
....................       if(Opcion==1)    
08B52:  MOVLB  4
08B54:  DECFSZ xD1,W
08B56:  BRA    8B9E
....................          {strcpy(Menus.Letra,"Sensor de Flujo"); 
08B58:  MOVLW  04
08B5A:  MOVWF  FEA
08B5C:  MOVLW  17
08B5E:  MOVWF  FE9
08B60:  MOVFF  FF2,5E5
08B64:  BCF    FF2.7
08B66:  MOVLW  00
08B68:  MOVLB  0
08B6A:  CALL   11A4
08B6E:  TBLRD*-
08B70:  TBLRD*+
08B72:  MOVF   FF5,W
08B74:  MOVWF  FEE
08B76:  IORLW  00
08B78:  BNZ   8B70
08B7A:  MOVLB  5
08B7C:  BTFSC  xE5.7
08B7E:  BSF    FF2.7
....................          displayMenu(Menus.Letra,0,18,1,1);} 
08B80:  MOVLW  04
08B82:  MOVWF  xEE
08B84:  MOVLW  17
08B86:  MOVWF  xED
08B88:  CLRF   xEF
08B8A:  MOVLW  12
08B8C:  MOVWF  xF0
08B8E:  MOVLW  01
08B90:  MOVWF  xF1
08B92:  MOVWF  xF2
08B94:  MOVLB  0
08B96:  CALL   4CDC
....................       else 
08B9A:  BRA    8BE0
08B9C:  MOVLB  4
....................          {strcpy(Menus.Letra,"Sensor de Flujo"); 
08B9E:  MOVLW  04
08BA0:  MOVWF  FEA
08BA2:  MOVLW  17
08BA4:  MOVWF  FE9
08BA6:  MOVFF  FF2,5E5
08BAA:  BCF    FF2.7
08BAC:  MOVLW  00
08BAE:  MOVLB  0
08BB0:  CALL   11A4
08BB4:  TBLRD*-
08BB6:  TBLRD*+
08BB8:  MOVF   FF5,W
08BBA:  MOVWF  FEE
08BBC:  IORLW  00
08BBE:  BNZ   8BB6
08BC0:  MOVLB  5
08BC2:  BTFSC  xE5.7
08BC4:  BSF    FF2.7
....................          displayMenu(Menus.Letra,0,18,0,1);}  
08BC6:  MOVLW  04
08BC8:  MOVWF  xEE
08BCA:  MOVLW  17
08BCC:  MOVWF  xED
08BCE:  CLRF   xEF
08BD0:  MOVLW  12
08BD2:  MOVWF  xF0
08BD4:  CLRF   xF1
08BD6:  MOVLW  01
08BD8:  MOVWF  xF2
08BDA:  MOVLB  0
08BDC:  CALL   4CDC
....................           
....................       if(Opcion==2)    
08BE0:  MOVLB  4
08BE2:  MOVF   xD1,W
08BE4:  SUBLW  02
08BE6:  BNZ   8C2E
....................          {strcpy(Menus.Letra,"Sensor de Presion"); 
08BE8:  MOVLW  04
08BEA:  MOVWF  FEA
08BEC:  MOVLW  17
08BEE:  MOVWF  FE9
08BF0:  MOVFF  FF2,5E5
08BF4:  BCF    FF2.7
08BF6:  MOVLW  00
08BF8:  MOVLB  0
08BFA:  CALL   11D2
08BFE:  TBLRD*-
08C00:  TBLRD*+
08C02:  MOVF   FF5,W
08C04:  MOVWF  FEE
08C06:  IORLW  00
08C08:  BNZ   8C00
08C0A:  MOVLB  5
08C0C:  BTFSC  xE5.7
08C0E:  BSF    FF2.7
....................          displayMenu(Menus.Letra,0,29,1,1);} 
08C10:  MOVLW  04
08C12:  MOVWF  xEE
08C14:  MOVLW  17
08C16:  MOVWF  xED
08C18:  CLRF   xEF
08C1A:  MOVLW  1D
08C1C:  MOVWF  xF0
08C1E:  MOVLW  01
08C20:  MOVWF  xF1
08C22:  MOVWF  xF2
08C24:  MOVLB  0
08C26:  CALL   4CDC
....................       else 
08C2A:  BRA    8C70
08C2C:  MOVLB  4
....................          {strcpy(Menus.Letra,"Sensor de Presion"); 
08C2E:  MOVLW  04
08C30:  MOVWF  FEA
08C32:  MOVLW  17
08C34:  MOVWF  FE9
08C36:  MOVFF  FF2,5E5
08C3A:  BCF    FF2.7
08C3C:  MOVLW  00
08C3E:  MOVLB  0
08C40:  CALL   11D2
08C44:  TBLRD*-
08C46:  TBLRD*+
08C48:  MOVF   FF5,W
08C4A:  MOVWF  FEE
08C4C:  IORLW  00
08C4E:  BNZ   8C46
08C50:  MOVLB  5
08C52:  BTFSC  xE5.7
08C54:  BSF    FF2.7
....................          displayMenu(Menus.Letra,0,29,0,1);}   
08C56:  MOVLW  04
08C58:  MOVWF  xEE
08C5A:  MOVLW  17
08C5C:  MOVWF  xED
08C5E:  CLRF   xEF
08C60:  MOVLW  1D
08C62:  MOVWF  xF0
08C64:  CLRF   xF1
08C66:  MOVLW  01
08C68:  MOVWF  xF2
08C6A:  MOVLB  0
08C6C:  CALL   4CDC
....................        
....................       if(Opcion==3)    
08C70:  MOVLB  4
08C72:  MOVF   xD1,W
08C74:  SUBLW  03
08C76:  BNZ   8CBE
....................          {strcpy(Menus.Letra,"Velocidad Ventilador"); 
08C78:  MOVLW  04
08C7A:  MOVWF  FEA
08C7C:  MOVLW  17
08C7E:  MOVWF  FE9
08C80:  MOVFF  FF2,5E5
08C84:  BCF    FF2.7
08C86:  MOVLW  00
08C88:  MOVLB  0
08C8A:  CALL   1202
08C8E:  TBLRD*-
08C90:  TBLRD*+
08C92:  MOVF   FF5,W
08C94:  MOVWF  FEE
08C96:  IORLW  00
08C98:  BNZ   8C90
08C9A:  MOVLB  5
08C9C:  BTFSC  xE5.7
08C9E:  BSF    FF2.7
....................          displayMenu(Menus.Letra,0,40,1,1);} 
08CA0:  MOVLW  04
08CA2:  MOVWF  xEE
08CA4:  MOVLW  17
08CA6:  MOVWF  xED
08CA8:  CLRF   xEF
08CAA:  MOVLW  28
08CAC:  MOVWF  xF0
08CAE:  MOVLW  01
08CB0:  MOVWF  xF1
08CB2:  MOVWF  xF2
08CB4:  MOVLB  0
08CB6:  CALL   4CDC
....................       else 
08CBA:  BRA    8D00
08CBC:  MOVLB  4
....................          {strcpy(Menus.Letra,"Velocidad Ventilador"); 
08CBE:  MOVLW  04
08CC0:  MOVWF  FEA
08CC2:  MOVLW  17
08CC4:  MOVWF  FE9
08CC6:  MOVFF  FF2,5E5
08CCA:  BCF    FF2.7
08CCC:  MOVLW  00
08CCE:  MOVLB  0
08CD0:  CALL   1202
08CD4:  TBLRD*-
08CD6:  TBLRD*+
08CD8:  MOVF   FF5,W
08CDA:  MOVWF  FEE
08CDC:  IORLW  00
08CDE:  BNZ   8CD6
08CE0:  MOVLB  5
08CE2:  BTFSC  xE5.7
08CE4:  BSF    FF2.7
....................          displayMenu(Menus.Letra,0,40,0,1);}  
08CE6:  MOVLW  04
08CE8:  MOVWF  xEE
08CEA:  MOVLW  17
08CEC:  MOVWF  xED
08CEE:  CLRF   xEF
08CF0:  MOVLW  28
08CF2:  MOVWF  xF0
08CF4:  CLRF   xF1
08CF6:  MOVLW  01
08CF8:  MOVWF  xF2
08CFA:  MOVLB  0
08CFC:  CALL   4CDC
....................        
....................          
....................       if(UP)//Si oprime hacia arriba 
08D00:  BSF    F92.5
08D02:  BTFSC  F80.5
08D04:  BRA    8D20
....................       {  if(Flanco == 0)  
08D06:  MOVLB  4
08D08:  BTFSC  x2D.0
08D0A:  BRA    8D1E
....................             {Flanco = 1;delay_ms(30);Opcion--; 
08D0C:  BSF    x2D.0
08D0E:  MOVLW  1E
08D10:  MOVLB  5
08D12:  MOVWF  xF9
08D14:  MOVLB  0
08D16:  CALL   1394
08D1A:  MOVLB  4
08D1C:  DECF   xD1,F
....................             } 
....................       } 
....................          else 
08D1E:  BRA    8D24
....................             {Flanco = 0;} 
08D20:  MOVLB  4
08D22:  BCF    x2D.0
....................              
....................       if(DOWN)//Si oprime hacia abajo 
08D24:  BSF    F96.0
08D26:  BTFSC  F84.0
08D28:  BRA    8D42
....................       {  if(Flanco2 == 0)  
08D2A:  BTFSC  x2D.2
08D2C:  BRA    8D40
....................             {Flanco2 = 1;delay_ms(30);Opcion++; 
08D2E:  BSF    x2D.2
08D30:  MOVLW  1E
08D32:  MOVLB  5
08D34:  MOVWF  xF9
08D36:  MOVLB  0
08D38:  CALL   1394
08D3C:  MOVLB  4
08D3E:  INCF   xD1,F
....................             }      
....................       } 
....................          else 
08D40:  BRA    8D44
....................             {Flanco2 = 0;}   
08D42:  BCF    x2D.2
....................              
....................       if(RIGHT)//Si oprime SET 
08D44:  BSF    F96.1
08D46:  BTFSC  F84.1
08D48:  BRA    8DDA
....................       {   
....................          delay_ms(20); 
08D4A:  MOVLW  14
08D4C:  MOVLB  5
08D4E:  MOVWF  xF9
08D50:  MOVLB  0
08D52:  CALL   1394
....................          if(RIGHT){ 
08D56:  BSF    F96.1
08D58:  BTFSC  F84.1
08D5A:  BRA    8DDC
....................             delay_ms(100); 
08D5C:  MOVLW  64
08D5E:  MOVLB  5
08D60:  MOVWF  xF9
08D62:  MOVLB  0
08D64:  CALL   1394
....................             glcd_fillScreen(OFF); 
08D68:  MOVLB  5
08D6A:  CLRF   xED
08D6C:  MOVLB  0
08D6E:  CALL   1474
....................             while(!PidePassword(6,32,Opcion+40,4,4,4,4)){ 
08D72:  MOVLW  28
08D74:  MOVLB  4
08D76:  ADDWF  xD1,W
08D78:  MOVLB  5
08D7A:  MOVWF  xE5
08D7C:  MOVLW  06
08D7E:  MOVWF  xE6
08D80:  MOVLW  20
08D82:  MOVWF  xE7
08D84:  MOVFF  5E5,5E8
08D88:  MOVLW  04
08D8A:  MOVWF  xE9
08D8C:  MOVWF  xEA
08D8E:  MOVWF  xEB
08D90:  MOVWF  xEC
08D92:  MOVLB  0
08D94:  CALL   4DB4
08D98:  MOVF   01,F
08D9A:  BNZ   8DC8
....................                PidePassword(6,32,Opcion+40,4,4,4,4);glcd_update(); 
08D9C:  MOVLW  28
08D9E:  MOVLB  4
08DA0:  ADDWF  xD1,W
08DA2:  MOVLB  5
08DA4:  MOVWF  xE5
08DA6:  MOVLW  06
08DA8:  MOVWF  xE6
08DAA:  MOVLW  20
08DAC:  MOVWF  xE7
08DAE:  MOVFF  5E5,5E8
08DB2:  MOVLW  04
08DB4:  MOVWF  xE9
08DB6:  MOVWF  xEA
08DB8:  MOVWF  xEB
08DBA:  MOVWF  xEC
08DBC:  MOVLB  0
08DBE:  CALL   4DB4
08DC2:  CALL   14CE
....................             }             
08DC6:  BRA    8D72
....................             glcd_fillScreen(OFF);Opcion=1;unidad=1; 
08DC8:  MOVLB  5
08DCA:  CLRF   xED
08DCC:  MOVLB  0
08DCE:  CALL   1474
08DD2:  MOVLW  01
08DD4:  MOVLB  4
08DD6:  MOVWF  xD1
08DD8:  MOVWF  xD0
08DDA:  MOVLB  0
....................          } 
....................       } 
....................              
....................       if(LEFT)//Si oprime boton de Toma. 
08DDC:  BSF    F96.2
08DDE:  BTFSC  F84.2
08DE0:  BRA    8E10
....................         {delay_ms(700);Menu=6;glcd_fillscreen(OFF);Opcion=1;unidad=1;} 
08DE2:  MOVLW  04
08DE4:  MOVLB  5
08DE6:  MOVWF  xE5
08DE8:  MOVLW  AF
08DEA:  MOVWF  xF9
08DEC:  MOVLB  0
08DEE:  CALL   1394
08DF2:  MOVLB  5
08DF4:  DECFSZ xE5,F
08DF6:  BRA    8DE8
08DF8:  MOVLW  06
08DFA:  MOVLB  4
08DFC:  MOVWF  xCF
08DFE:  MOVLB  5
08E00:  CLRF   xED
08E02:  MOVLB  0
08E04:  CALL   1474
08E08:  MOVLW  01
08E0A:  MOVLB  4
08E0C:  MOVWF  xD1
08E0E:  MOVWF  xD0
....................          
....................       if(Opcion>3) 
08E10:  MOVLB  4
08E12:  MOVF   xD1,W
08E14:  SUBLW  03
08E16:  BC    8E1C
....................       {Opcion=1;} 
08E18:  MOVLW  01
08E1A:  MOVWF  xD1
....................       if(Opcion<1) 
08E1C:  MOVF   xD1,F
08E1E:  BNZ   8E24
....................       {Opcion=3;} 
08E20:  MOVLW  03
08E22:  MOVWF  xD1
....................     } 
.................... //_--------------------------------------------------------------------------------------------------------------------------------------------------------        
....................  
.................... //_-------------------------------------------------------------------------------------------------------------------------------------------------------- 
....................       if(Menu==41){ //Menu de Sensor de Flujo. 
08E24:  MOVF   xCF,W
08E26:  SUBLW  29
08E28:  BTFSS  FD8.2
08E2A:  BRA    93F4
....................        
....................       if(Ajuste1>10.0) 
08E2C:  MOVLB  6
08E2E:  CLRF   x19
08E30:  CLRF   x18
08E32:  MOVLW  20
08E34:  MOVWF  x17
08E36:  MOVLW  82
08E38:  MOVWF  x16
08E3A:  MOVFF  53C,61D
08E3E:  MOVFF  53B,61C
08E42:  MOVFF  53A,61B
08E46:  MOVFF  539,61A
08E4A:  MOVLB  0
08E4C:  CALL   2452
08E50:  BNC   8E5E
....................          Ajuste1=0.0; 
08E52:  MOVLB  5
08E54:  CLRF   x3C
08E56:  CLRF   x3B
08E58:  CLRF   x3A
08E5A:  CLRF   x39
08E5C:  MOVLB  0
....................        
....................       strcpy(Menus.Letra,"Sensor de Flujo"); 
08E5E:  MOVLW  04
08E60:  MOVWF  FEA
08E62:  MOVLW  17
08E64:  MOVWF  FE9
08E66:  MOVFF  FF2,5E5
08E6A:  BCF    FF2.7
08E6C:  MOVLW  00
08E6E:  CALL   11A4
08E72:  TBLRD*-
08E74:  TBLRD*+
08E76:  MOVF   FF5,W
08E78:  MOVWF  FEE
08E7A:  IORLW  00
08E7C:  BNZ   8E74
08E7E:  MOVLB  5
08E80:  BTFSC  xE5.7
08E82:  BSF    FF2.7
....................       displayMenu(Menus.Letra,10,0,1,1); 
08E84:  MOVLW  04
08E86:  MOVWF  xEE
08E88:  MOVLW  17
08E8A:  MOVWF  xED
08E8C:  MOVLW  0A
08E8E:  MOVWF  xEF
08E90:  CLRF   xF0
08E92:  MOVLW  01
08E94:  MOVWF  xF1
08E96:  MOVWF  xF2
08E98:  MOVLB  0
08E9A:  CALL   4CDC
....................        
....................       glcd_text57(0, 12, ZF, 1, ON); 
08E9E:  MOVLB  5
08EA0:  CLRF   xFE
08EA2:  MOVLW  0C
08EA4:  MOVWF  xFF
08EA6:  MOVLW  04
08EA8:  MOVLB  6
08EAA:  MOVWF  x01
08EAC:  MOVLW  77
08EAE:  MOVWF  x00
08EB0:  MOVLW  01
08EB2:  MOVWF  x02
08EB4:  MOVWF  x03
08EB6:  MOVLB  0
08EB8:  CALL   16EA
....................        
....................       glcd_text57(0, 20, ZA, 1, ON); 
08EBC:  MOVLB  5
08EBE:  CLRF   xFE
08EC0:  MOVLW  14
08EC2:  MOVWF  xFF
08EC4:  MOVLW  04
08EC6:  MOVLB  6
08EC8:  MOVWF  x01
08ECA:  MOVLW  85
08ECC:  MOVWF  x00
08ECE:  MOVLW  01
08ED0:  MOVWF  x02
08ED2:  MOVWF  x03
08ED4:  MOVLB  0
08ED6:  CALL   16EA
....................        
....................       glcd_text57(0, 30, AJ, 1, ON);            
08EDA:  MOVLB  5
08EDC:  CLRF   xFE
08EDE:  MOVLW  1E
08EE0:  MOVWF  xFF
08EE2:  MOVLW  04
08EE4:  MOVLB  6
08EE6:  MOVWF  x01
08EE8:  MOVLW  8D
08EEA:  MOVWF  x00
08EEC:  MOVLW  01
08EEE:  MOVWF  x02
08EF0:  MOVWF  x03
08EF2:  MOVLB  0
08EF4:  CALL   16EA
....................        
....................       displayfloat(zero_actual,44,20,0,1); 
08EF8:  MOVFF  5C4,5EC
08EFC:  MOVFF  5C3,5EB
08F00:  MOVFF  5C2,5EA
08F04:  MOVFF  5C1,5E9
08F08:  MOVLW  2C
08F0A:  MOVLB  5
08F0C:  MOVWF  xED
08F0E:  MOVLW  14
08F10:  MOVWF  xEE
08F12:  CLRF   xEF
08F14:  MOVLW  01
08F16:  MOVWF  xF0
08F18:  MOVLB  0
08F1A:  CALL   5E9E
....................       displayfloat(Ajuste1,44,30,0,1); 
08F1E:  MOVFF  53C,5EC
08F22:  MOVFF  53B,5EB
08F26:  MOVFF  53A,5EA
08F2A:  MOVFF  539,5E9
08F2E:  MOVLW  2C
08F30:  MOVLB  5
08F32:  MOVWF  xED
08F34:  MOVLW  1E
08F36:  MOVWF  xEE
08F38:  CLRF   xEF
08F3A:  MOVLW  01
08F3C:  MOVWF  xF0
08F3E:  MOVLB  0
08F40:  CALL   5E9E
....................       displayfloat(Inflow_adc,0,40,0,1); 
08F44:  MOVFF  4DE,61B
08F48:  MOVFF  4DD,61A
08F4C:  CALL   18BE
08F50:  MOVFF  00,5E5
08F54:  MOVFF  01,5E6
08F58:  MOVFF  02,5E7
08F5C:  MOVFF  03,5E8
08F60:  MOVFF  03,5EC
08F64:  MOVFF  02,5EB
08F68:  MOVFF  01,5EA
08F6C:  MOVFF  00,5E9
08F70:  MOVLB  5
08F72:  CLRF   xED
08F74:  MOVLW  28
08F76:  MOVWF  xEE
08F78:  CLRF   xEF
08F7A:  MOVLW  01
08F7C:  MOVWF  xF0
08F7E:  MOVLB  0
08F80:  CALL   5E9E
.................... //      displayfloat(Diferencia,0,50,0,1); 
....................        
....................       if(UP)//Si oprime hacia arriba 
08F84:  BSF    F92.5
08F86:  BTFSC  F80.5
08F88:  BRA    8FD0
....................       {   
....................          delay_ms(30);Ajuste1+=0.01; 
08F8A:  MOVLW  1E
08F8C:  MOVLB  5
08F8E:  MOVWF  xF9
08F90:  MOVLB  0
08F92:  CALL   1394
08F96:  BCF    FD8.1
08F98:  MOVFF  53C,61D
08F9C:  MOVFF  53B,61C
08FA0:  MOVFF  53A,61B
08FA4:  MOVFF  539,61A
08FA8:  MOVLW  0A
08FAA:  MOVLB  6
08FAC:  MOVWF  x21
08FAE:  MOVLW  D7
08FB0:  MOVWF  x20
08FB2:  MOVLW  23
08FB4:  MOVWF  x1F
08FB6:  MOVLW  78
08FB8:  MOVWF  x1E
08FBA:  MOVLB  0
08FBC:  CALL   1A52
08FC0:  MOVFF  03,53C
08FC4:  MOVFF  02,53B
08FC8:  MOVFF  01,53A
08FCC:  MOVFF  00,539
....................       } 
....................              
....................       if(DOWN)//Si oprime hacia abajo 
08FD0:  BSF    F96.0
08FD2:  BTFSC  F84.0
08FD4:  BRA    901C
....................       {    
....................          delay_ms(30);Ajuste1-=0.01; 
08FD6:  MOVLW  1E
08FD8:  MOVLB  5
08FDA:  MOVWF  xF9
08FDC:  MOVLB  0
08FDE:  CALL   1394
08FE2:  BSF    FD8.1
08FE4:  MOVFF  53C,61D
08FE8:  MOVFF  53B,61C
08FEC:  MOVFF  53A,61B
08FF0:  MOVFF  539,61A
08FF4:  MOVLW  0A
08FF6:  MOVLB  6
08FF8:  MOVWF  x21
08FFA:  MOVLW  D7
08FFC:  MOVWF  x20
08FFE:  MOVLW  23
09000:  MOVWF  x1F
09002:  MOVLW  78
09004:  MOVWF  x1E
09006:  MOVLB  0
09008:  CALL   1A52
0900C:  MOVFF  03,53C
09010:  MOVFF  02,53B
09014:  MOVFF  01,53A
09018:  MOVFF  00,539
....................       } 
....................              
....................       if(RIGHT)//Si oprime SET 
0901C:  BSF    F96.1
0901E:  BTFSC  F84.1
09020:  BRA    928E
....................       {   
....................          zero_actual=Inflow_adc; 
09022:  MOVFF  4DE,61B
09026:  MOVFF  4DD,61A
0902A:  CALL   18BE
0902E:  MOVFF  03,5C4
09032:  MOVFF  02,5C3
09036:  MOVFF  01,5C2
0903A:  MOVFF  00,5C1
....................          Diferencia=zero_fabrica-Inflow_adc; 
0903E:  MOVFF  4DE,61B
09042:  MOVFF  4DD,61A
09046:  CALL   18BE
0904A:  BSF    FD8.1
0904C:  MOVFF  5C0,61D
09050:  MOVFF  5BF,61C
09054:  MOVFF  5BE,61B
09058:  MOVFF  5BD,61A
0905C:  MOVFF  03,621
09060:  MOVFF  02,620
09064:  MOVFF  01,61F
09068:  MOVFF  00,61E
0906C:  CALL   1A52
09070:  MOVFF  03,520
09074:  MOVFF  02,51F
09078:  MOVFF  01,51E
0907C:  MOVFF  00,51D
....................              
....................          if(Diferencia>=0) 
09080:  MOVLB  6
09082:  CLRF   x19
09084:  CLRF   x18
09086:  CLRF   x17
09088:  CLRF   x16
0908A:  MOVFF  520,61D
0908E:  MOVFF  51F,61C
09092:  MOVFF  51E,61B
09096:  MOVFF  51D,61A
0909A:  MOVLB  0
0909C:  CALL   2452
090A0:  BC    90A4
090A2:  BNZ   90E2
....................          { 
....................             negativo=10;write_eeprom(50,negativo);delay_ms(20); 
090A4:  MOVLW  0A
090A6:  MOVLB  4
090A8:  MOVWF  xD2
090AA:  CLRF   FAA
090AC:  MOVLW  32
090AE:  MOVWF  FA9
090B0:  MOVFF  4D2,FA8
090B4:  BCF    FA6.6
090B6:  BCF    FA6.7
090B8:  BSF    FA6.2
090BA:  MOVF   FF2,W
090BC:  MOVWF  00
090BE:  BCF    FF2.7
090C0:  MOVLB  F
090C2:  MOVLW  55
090C4:  MOVWF  FA7
090C6:  MOVLW  AA
090C8:  MOVWF  FA7
090CA:  BSF    FA6.1
090CC:  BTFSC  FA6.1
090CE:  BRA    90CC
090D0:  BCF    FA6.2
090D2:  MOVF   00,W
090D4:  IORWF  FF2,F
090D6:  MOVLW  14
090D8:  MOVLB  5
090DA:  MOVWF  xF9
090DC:  MOVLB  0
090DE:  CALL   1394
....................          } 
....................          if(Diferencia<0) 
090E2:  MOVFF  520,619
090E6:  MOVFF  51F,618
090EA:  MOVFF  51E,617
090EE:  MOVFF  51D,616
090F2:  MOVLB  6
090F4:  CLRF   x1D
090F6:  CLRF   x1C
090F8:  CLRF   x1B
090FA:  CLRF   x1A
090FC:  MOVLB  0
090FE:  CALL   2452
09102:  BNC   9142
....................          { 
....................             negativo=20;write_eeprom(50,negativo);delay_ms(20); 
09104:  MOVLW  14
09106:  MOVLB  4
09108:  MOVWF  xD2
0910A:  CLRF   FAA
0910C:  MOVLW  32
0910E:  MOVWF  FA9
09110:  MOVFF  4D2,FA8
09114:  BCF    FA6.6
09116:  BCF    FA6.7
09118:  BSF    FA6.2
0911A:  MOVF   FF2,W
0911C:  MOVWF  00
0911E:  BCF    FF2.7
09120:  MOVLB  F
09122:  MOVLW  55
09124:  MOVWF  FA7
09126:  MOVLW  AA
09128:  MOVWF  FA7
0912A:  BSF    FA6.1
0912C:  BTFSC  FA6.1
0912E:  BRA    912C
09130:  BCF    FA6.2
09132:  MOVF   00,W
09134:  IORWF  FF2,F
09136:  MOVLW  14
09138:  MOVLB  5
0913A:  MOVWF  xF9
0913C:  MOVLB  0
0913E:  CALL   1394
....................          } 
....................          Diferencia=abs(Diferencia); 
09142:  MOVFF  51D,00
09146:  MOVFF  51E,01
0914A:  MOVFF  51F,02
0914E:  MOVFF  520,03
09152:  BCF    01.7
09154:  MOVFF  520,520
09158:  MOVFF  51F,51F
0915C:  MOVFF  01,51E
09160:  MOVFF  51D,51D
....................          Temporal1=(int16)Diferencia; 
09164:  MOVFF  520,619
09168:  MOVFF  51F,618
0916C:  MOVFF  51E,617
09170:  MOVFF  51D,616
09174:  CALL   2E96
09178:  MOVFF  02,4E2
0917C:  MOVFF  01,4E1
....................          write_eeprom(60,make8(Temporal1,0)); 
09180:  MOVFF  4E1,5E5
09184:  CLRF   FAA
09186:  MOVLW  3C
09188:  MOVWF  FA9
0918A:  MOVFF  5E5,FA8
0918E:  BCF    FA6.6
09190:  BCF    FA6.7
09192:  BSF    FA6.2
09194:  MOVF   FF2,W
09196:  MOVWF  00
09198:  BCF    FF2.7
0919A:  MOVLB  F
0919C:  MOVLW  55
0919E:  MOVWF  FA7
091A0:  MOVLW  AA
091A2:  MOVWF  FA7
091A4:  BSF    FA6.1
091A6:  BTFSC  FA6.1
091A8:  BRA    91A6
091AA:  BCF    FA6.2
091AC:  MOVF   00,W
091AE:  IORWF  FF2,F
....................          delay_ms(20); 
091B0:  MOVLW  14
091B2:  MOVLB  5
091B4:  MOVWF  xF9
091B6:  MOVLB  0
091B8:  CALL   1394
....................          write_eeprom(61,make8(Temporal1,1));//Guardar valor de Setpoint en eeprom 
091BC:  MOVFF  4E2,5E5
091C0:  CLRF   FAA
091C2:  MOVLW  3D
091C4:  MOVWF  FA9
091C6:  MOVFF  5E5,FA8
091CA:  BCF    FA6.6
091CC:  BCF    FA6.7
091CE:  BSF    FA6.2
091D0:  MOVF   FF2,W
091D2:  MOVWF  00
091D4:  BCF    FF2.7
091D6:  MOVLB  F
091D8:  MOVLW  55
091DA:  MOVWF  FA7
091DC:  MOVLW  AA
091DE:  MOVWF  FA7
091E0:  BSF    FA6.1
091E2:  BTFSC  FA6.1
091E4:  BRA    91E2
091E6:  BCF    FA6.2
091E8:  MOVF   00,W
091EA:  IORWF  FF2,F
....................          delay_ms(20); 
091EC:  MOVLW  14
091EE:  MOVLB  5
091F0:  MOVWF  xF9
091F2:  MOVLB  0
091F4:  CALL   1394
....................  
....................          Temporal1=(int16)zero_actual; 
091F8:  MOVFF  5C4,619
091FC:  MOVFF  5C3,618
09200:  MOVFF  5C2,617
09204:  MOVFF  5C1,616
09208:  CALL   2E96
0920C:  MOVFF  02,4E2
09210:  MOVFF  01,4E1
....................          write_eeprom(29,make8(Temporal1,0)); 
09214:  MOVFF  4E1,5E5
09218:  CLRF   FAA
0921A:  MOVLW  1D
0921C:  MOVWF  FA9
0921E:  MOVFF  5E5,FA8
09222:  BCF    FA6.6
09224:  BCF    FA6.7
09226:  BSF    FA6.2
09228:  MOVF   FF2,W
0922A:  MOVWF  00
0922C:  BCF    FF2.7
0922E:  MOVLB  F
09230:  MOVLW  55
09232:  MOVWF  FA7
09234:  MOVLW  AA
09236:  MOVWF  FA7
09238:  BSF    FA6.1
0923A:  BTFSC  FA6.1
0923C:  BRA    923A
0923E:  BCF    FA6.2
09240:  MOVF   00,W
09242:  IORWF  FF2,F
....................          delay_ms(20); 
09244:  MOVLW  14
09246:  MOVLB  5
09248:  MOVWF  xF9
0924A:  MOVLB  0
0924C:  CALL   1394
....................          write_eeprom(30,make8(Temporal1,1));//Guardar valor de Setpoint en eeprom 
09250:  MOVFF  4E2,5E5
09254:  CLRF   FAA
09256:  MOVLW  1E
09258:  MOVWF  FA9
0925A:  MOVFF  5E5,FA8
0925E:  BCF    FA6.6
09260:  BCF    FA6.7
09262:  BSF    FA6.2
09264:  MOVF   FF2,W
09266:  MOVWF  00
09268:  BCF    FF2.7
0926A:  MOVLB  F
0926C:  MOVLW  55
0926E:  MOVWF  FA7
09270:  MOVLW  AA
09272:  MOVWF  FA7
09274:  BSF    FA6.1
09276:  BTFSC  FA6.1
09278:  BRA    9276
0927A:  BCF    FA6.2
0927C:  MOVF   00,W
0927E:  IORWF  FF2,F
....................          delay_ms(20); 
09280:  MOVLW  14
09282:  MOVLB  5
09284:  MOVWF  xF9
09286:  MOVLB  0
09288:  CALL   1394
....................       } 
....................          else 
0928C:  BRA    9294
....................             {Flanco1 = 0;}   
0928E:  MOVLB  4
09290:  BCF    x2D.1
09292:  MOVLB  0
....................              
....................       if(LEFT)//Si oprime boton de Toma. 
09294:  BSF    F96.2
09296:  BTFSC  F84.2
09298:  BRA    93F2
....................       { 
....................          delay_ms(700);Menu=32;glcd_fillscreen(OFF);Opcion=1;unidad=1; 
0929A:  MOVLW  04
0929C:  MOVLB  5
0929E:  MOVWF  xE5
092A0:  MOVLW  AF
092A2:  MOVWF  xF9
092A4:  MOVLB  0
092A6:  CALL   1394
092AA:  MOVLB  5
092AC:  DECFSZ xE5,F
092AE:  BRA    92A0
092B0:  MOVLW  20
092B2:  MOVLB  4
092B4:  MOVWF  xCF
092B6:  MOVLB  5
092B8:  CLRF   xED
092BA:  MOVLB  0
092BC:  CALL   1474
092C0:  MOVLW  01
092C2:  MOVLB  4
092C4:  MOVWF  xD1
092C6:  MOVWF  xD0
....................          Temporal=Ajuste1; 
092C8:  MOVFF  53C,544
092CC:  MOVFF  53B,543
092D0:  MOVFF  53A,542
092D4:  MOVFF  539,541
....................          Entero=(int)Ajuste1; 
092D8:  MOVFF  53C,619
092DC:  MOVFF  53B,618
092E0:  MOVFF  53A,617
092E4:  MOVFF  539,616
092E8:  MOVLB  0
092EA:  CALL   2E96
092EE:  MOVFF  01,4DA
....................          Temporal=Temporal-Entero; 
092F2:  MOVLB  6
092F4:  CLRF   x1B
092F6:  MOVFF  4DA,61A
092FA:  MOVLB  0
092FC:  CALL   18BE
09300:  BSF    FD8.1
09302:  MOVFF  544,61D
09306:  MOVFF  543,61C
0930A:  MOVFF  542,61B
0930E:  MOVFF  541,61A
09312:  MOVFF  03,621
09316:  MOVFF  02,620
0931A:  MOVFF  01,61F
0931E:  MOVFF  00,61E
09322:  CALL   1A52
09326:  MOVFF  03,544
0932A:  MOVFF  02,543
0932E:  MOVFF  01,542
09332:  MOVFF  00,541
....................          Temporal2=Temporal*10.0; 
09336:  MOVFF  544,619
0933A:  MOVFF  543,618
0933E:  MOVFF  542,617
09342:  MOVFF  541,616
09346:  MOVLB  6
09348:  CLRF   x1D
0934A:  CLRF   x1C
0934C:  MOVLW  20
0934E:  MOVWF  x1B
09350:  MOVLW  82
09352:  MOVWF  x1A
09354:  MOVLB  0
09356:  CALL   2ED2
0935A:  MOVFF  03,548
0935E:  MOVFF  02,547
09362:  MOVFF  01,546
09366:  MOVFF  00,545
....................          Decimal1=(int8)Temporal2; 
0936A:  MOVFF  548,619
0936E:  MOVFF  547,618
09372:  MOVFF  546,617
09376:  MOVFF  545,616
0937A:  CALL   2E96
0937E:  MOVFF  01,4DB
....................          write_eeprom(25,Entero); 
09382:  CLRF   FAA
09384:  MOVLW  19
09386:  MOVWF  FA9
09388:  MOVFF  4DA,FA8
0938C:  BCF    FA6.6
0938E:  BCF    FA6.7
09390:  BSF    FA6.2
09392:  MOVF   FF2,W
09394:  MOVWF  00
09396:  BCF    FF2.7
09398:  MOVLB  F
0939A:  MOVLW  55
0939C:  MOVWF  FA7
0939E:  MOVLW  AA
093A0:  MOVWF  FA7
093A2:  BSF    FA6.1
093A4:  BTFSC  FA6.1
093A6:  BRA    93A4
093A8:  BCF    FA6.2
093AA:  MOVF   00,W
093AC:  IORWF  FF2,F
....................          delay_ms(20); 
093AE:  MOVLW  14
093B0:  MOVLB  5
093B2:  MOVWF  xF9
093B4:  MOVLB  0
093B6:  CALL   1394
....................          write_eeprom(26,Decimal1); 
093BA:  CLRF   FAA
093BC:  MOVLW  1A
093BE:  MOVWF  FA9
093C0:  MOVFF  4DB,FA8
093C4:  BCF    FA6.6
093C6:  BCF    FA6.7
093C8:  BSF    FA6.2
093CA:  MOVF   FF2,W
093CC:  MOVWF  00
093CE:  BCF    FF2.7
093D0:  MOVLB  F
093D2:  MOVLW  55
093D4:  MOVWF  FA7
093D6:  MOVLW  AA
093D8:  MOVWF  FA7
093DA:  BSF    FA6.1
093DC:  BTFSC  FA6.1
093DE:  BRA    93DC
093E0:  BCF    FA6.2
093E2:  MOVF   00,W
093E4:  IORWF  FF2,F
....................          delay_ms(20); 
093E6:  MOVLW  14
093E8:  MOVLB  5
093EA:  MOVWF  xF9
093EC:  MOVLB  0
093EE:  CALL   1394
093F2:  MOVLB  4
....................       } 
....................     } 
.................... //_--------------------------------------------------------------------------------------------------------------------------------------------------------        
....................  
.................... //_-------------------------------------------------------------------------------------------------------------------------------------------------------- 
....................       if(Menu==42){ //Menu de Sensor de Presin. 
093F4:  MOVF   xCF,W
093F6:  SUBLW  2A
093F8:  BTFSS  FD8.2
093FA:  BRA    982E
....................        
....................       if(Ajuste2>10.0) 
093FC:  MOVLB  6
093FE:  CLRF   x19
09400:  CLRF   x18
09402:  MOVLW  20
09404:  MOVWF  x17
09406:  MOVLW  82
09408:  MOVWF  x16
0940A:  MOVFF  540,61D
0940E:  MOVFF  53F,61C
09412:  MOVFF  53E,61B
09416:  MOVFF  53D,61A
0941A:  MOVLB  0
0941C:  CALL   2452
09420:  BNC   942E
....................          Ajuste2=0.0; 
09422:  MOVLB  5
09424:  CLRF   x40
09426:  CLRF   x3F
09428:  CLRF   x3E
0942A:  CLRF   x3D
0942C:  MOVLB  0
....................        
....................       strcpy(Menus.Letra,"Sensor de Presion"); 
0942E:  MOVLW  04
09430:  MOVWF  FEA
09432:  MOVLW  17
09434:  MOVWF  FE9
09436:  MOVFF  FF2,5E5
0943A:  BCF    FF2.7
0943C:  MOVLW  00
0943E:  CALL   11D2
09442:  TBLRD*-
09444:  TBLRD*+
09446:  MOVF   FF5,W
09448:  MOVWF  FEE
0944A:  IORLW  00
0944C:  BNZ   9444
0944E:  MOVLB  5
09450:  BTFSC  xE5.7
09452:  BSF    FF2.7
....................       displayMenu(Menus.Letra,10,0,1,1); 
09454:  MOVLW  04
09456:  MOVWF  xEE
09458:  MOVLW  17
0945A:  MOVWF  xED
0945C:  MOVLW  0A
0945E:  MOVWF  xEF
09460:  CLRF   xF0
09462:  MOVLW  01
09464:  MOVWF  xF1
09466:  MOVWF  xF2
09468:  MOVLB  0
0946A:  CALL   4CDC
....................        
....................       glcd_text57(0, 12, ZFP, 1, ON); 
0946E:  MOVLB  5
09470:  CLRF   xFE
09472:  MOVLW  0C
09474:  MOVWF  xFF
09476:  MOVLW  04
09478:  MOVLB  6
0947A:  MOVWF  x01
0947C:  MOVLW  9D
0947E:  MOVWF  x00
09480:  MOVLW  01
09482:  MOVWF  x02
09484:  MOVWF  x03
09486:  MOVLB  0
09488:  CALL   16EA
....................        
....................       glcd_text57(0, 20, ZA, 1, ON); 
0948C:  MOVLB  5
0948E:  CLRF   xFE
09490:  MOVLW  14
09492:  MOVWF  xFF
09494:  MOVLW  04
09496:  MOVLB  6
09498:  MOVWF  x01
0949A:  MOVLW  85
0949C:  MOVWF  x00
0949E:  MOVLW  01
094A0:  MOVWF  x02
094A2:  MOVWF  x03
094A4:  MOVLB  0
094A6:  CALL   16EA
....................        
....................       glcd_text57(0, 30, AJ, 1, ON);            
094AA:  MOVLB  5
094AC:  CLRF   xFE
094AE:  MOVLW  1E
094B0:  MOVWF  xFF
094B2:  MOVLW  04
094B4:  MOVLB  6
094B6:  MOVWF  x01
094B8:  MOVLW  8D
094BA:  MOVWF  x00
094BC:  MOVLW  01
094BE:  MOVWF  x02
094C0:  MOVWF  x03
094C2:  MOVLB  0
094C4:  CALL   16EA
....................        
....................       displayfloat(G,44,20,0,1); 
094C8:  MOVFF  5D0,5EC
094CC:  MOVFF  5CF,5EB
094D0:  MOVFF  5CE,5EA
094D4:  MOVFF  5CD,5E9
094D8:  MOVLW  2C
094DA:  MOVLB  5
094DC:  MOVWF  xED
094DE:  MOVLW  14
094E0:  MOVWF  xEE
094E2:  CLRF   xEF
094E4:  MOVLW  01
094E6:  MOVWF  xF0
094E8:  MOVLB  0
094EA:  CALL   5E9E
....................       displayfloat(Ajuste2,44,30,0,1); 
094EE:  MOVFF  540,5EC
094F2:  MOVFF  53F,5EB
094F6:  MOVFF  53E,5EA
094FA:  MOVFF  53D,5E9
094FE:  MOVLW  2C
09500:  MOVLB  5
09502:  MOVWF  xED
09504:  MOVLW  1E
09506:  MOVWF  xEE
09508:  CLRF   xEF
0950A:  MOVLW  01
0950C:  MOVWF  xF0
0950E:  MOVLB  0
09510:  CALL   5E9E
....................       displayfloat(Filtro_DownFlow_adc,0,40,0,1); 
09514:  MOVFF  4E0,61B
09518:  MOVFF  4DF,61A
0951C:  CALL   18BE
09520:  MOVFF  00,5E5
09524:  MOVFF  01,5E6
09528:  MOVFF  02,5E7
0952C:  MOVFF  03,5E8
09530:  MOVFF  03,5EC
09534:  MOVFF  02,5EB
09538:  MOVFF  01,5EA
0953C:  MOVFF  00,5E9
09540:  MOVLB  5
09542:  CLRF   xED
09544:  MOVLW  28
09546:  MOVWF  xEE
09548:  CLRF   xEF
0954A:  MOVLW  01
0954C:  MOVWF  xF0
0954E:  MOVLB  0
09550:  CALL   5E9E
....................       displayfloat(Filtro_DownFlow,0,50,0,1); 
09554:  MOVFF  51C,5EC
09558:  MOVFF  51B,5EB
0955C:  MOVFF  51A,5EA
09560:  MOVFF  519,5E9
09564:  MOVLB  5
09566:  CLRF   xED
09568:  MOVLW  32
0956A:  MOVWF  xEE
0956C:  CLRF   xEF
0956E:  MOVLW  01
09570:  MOVWF  xF0
09572:  MOVLB  0
09574:  CALL   5E9E
....................        
....................       if(UP)//Si oprime hacia arriba 
09578:  BSF    F92.5
0957A:  BTFSC  F80.5
0957C:  BRA    95C4
....................       {   
....................          delay_ms(30);Ajuste2+=0.01; 
0957E:  MOVLW  1E
09580:  MOVLB  5
09582:  MOVWF  xF9
09584:  MOVLB  0
09586:  CALL   1394
0958A:  BCF    FD8.1
0958C:  MOVFF  540,61D
09590:  MOVFF  53F,61C
09594:  MOVFF  53E,61B
09598:  MOVFF  53D,61A
0959C:  MOVLW  0A
0959E:  MOVLB  6
095A0:  MOVWF  x21
095A2:  MOVLW  D7
095A4:  MOVWF  x20
095A6:  MOVLW  23
095A8:  MOVWF  x1F
095AA:  MOVLW  78
095AC:  MOVWF  x1E
095AE:  MOVLB  0
095B0:  CALL   1A52
095B4:  MOVFF  03,540
095B8:  MOVFF  02,53F
095BC:  MOVFF  01,53E
095C0:  MOVFF  00,53D
....................       } 
....................              
....................       if(DOWN)//Si oprime hacia abajo 
095C4:  BSF    F96.0
095C6:  BTFSC  F84.0
095C8:  BRA    9610
....................       {   
....................          delay_ms(30);Ajuste2-=0.01; 
095CA:  MOVLW  1E
095CC:  MOVLB  5
095CE:  MOVWF  xF9
095D0:  MOVLB  0
095D2:  CALL   1394
095D6:  BSF    FD8.1
095D8:  MOVFF  540,61D
095DC:  MOVFF  53F,61C
095E0:  MOVFF  53E,61B
095E4:  MOVFF  53D,61A
095E8:  MOVLW  0A
095EA:  MOVLB  6
095EC:  MOVWF  x21
095EE:  MOVLW  D7
095F0:  MOVWF  x20
095F2:  MOVLW  23
095F4:  MOVWF  x1F
095F6:  MOVLW  78
095F8:  MOVWF  x1E
095FA:  MOVLB  0
095FC:  CALL   1A52
09600:  MOVFF  03,540
09604:  MOVFF  02,53F
09608:  MOVFF  01,53E
0960C:  MOVFF  00,53D
....................       } 
....................              
....................       if(RIGHT)//Si oprime SET 
09610:  BSF    F96.1
09612:  BTFSC  F84.1
09614:  BRA    96C8
....................       {            
....................          G=Filtro_Downflow_adc; 
09616:  MOVFF  4E0,61B
0961A:  MOVFF  4DF,61A
0961E:  CALL   18BE
09622:  MOVFF  03,5D0
09626:  MOVFF  02,5CF
0962A:  MOVFF  01,5CE
0962E:  MOVFF  00,5CD
....................          G16=(int16)G; 
09632:  MOVFF  5D0,619
09636:  MOVFF  5CF,618
0963A:  MOVFF  5CE,617
0963E:  MOVFF  5CD,616
09642:  CALL   2E96
09646:  MOVFF  02,4EC
0964A:  MOVFF  01,4EB
....................          G_l=G16; G_h=(G16>>8); 
0964E:  MOVFF  4EB,4D3
09652:  MOVFF  4EC,4D4
....................              
....................          write_eeprom(62,G_l); 
09656:  CLRF   FAA
09658:  MOVLW  3E
0965A:  MOVWF  FA9
0965C:  MOVFF  4D3,FA8
09660:  BCF    FA6.6
09662:  BCF    FA6.7
09664:  BSF    FA6.2
09666:  MOVF   FF2,W
09668:  MOVWF  00
0966A:  BCF    FF2.7
0966C:  MOVLB  F
0966E:  MOVLW  55
09670:  MOVWF  FA7
09672:  MOVLW  AA
09674:  MOVWF  FA7
09676:  BSF    FA6.1
09678:  BTFSC  FA6.1
0967A:  BRA    9678
0967C:  BCF    FA6.2
0967E:  MOVF   00,W
09680:  IORWF  FF2,F
....................          delay_ms(20); 
09682:  MOVLW  14
09684:  MOVLB  5
09686:  MOVWF  xF9
09688:  MOVLB  0
0968A:  CALL   1394
....................          write_eeprom(63,G_h);//Guardar valor de Setpoint en eeprom 
0968E:  CLRF   FAA
09690:  MOVLW  3F
09692:  MOVWF  FA9
09694:  MOVFF  4D4,FA8
09698:  BCF    FA6.6
0969A:  BCF    FA6.7
0969C:  BSF    FA6.2
0969E:  MOVF   FF2,W
096A0:  MOVWF  00
096A2:  BCF    FF2.7
096A4:  MOVLB  F
096A6:  MOVLW  55
096A8:  MOVWF  FA7
096AA:  MOVLW  AA
096AC:  MOVWF  FA7
096AE:  BSF    FA6.1
096B0:  BTFSC  FA6.1
096B2:  BRA    96B0
096B4:  BCF    FA6.2
096B6:  MOVF   00,W
096B8:  IORWF  FF2,F
....................          delay_ms(20); 
096BA:  MOVLW  14
096BC:  MOVLB  5
096BE:  MOVWF  xF9
096C0:  MOVLB  0
096C2:  CALL   1394
....................       } 
....................          else 
096C6:  BRA    96CE
....................             {Flanco1 = 0;}   
096C8:  MOVLB  4
096CA:  BCF    x2D.1
096CC:  MOVLB  0
....................              
....................       if(LEFT)//Si oprime boton de Toma. 
096CE:  BSF    F96.2
096D0:  BTFSC  F84.2
096D2:  BRA    982C
....................       {                   
....................          delay_ms(700);Menu=32;glcd_fillscreen(OFF);Opcion=1;unidad=1; 
096D4:  MOVLW  04
096D6:  MOVLB  5
096D8:  MOVWF  xE5
096DA:  MOVLW  AF
096DC:  MOVWF  xF9
096DE:  MOVLB  0
096E0:  CALL   1394
096E4:  MOVLB  5
096E6:  DECFSZ xE5,F
096E8:  BRA    96DA
096EA:  MOVLW  20
096EC:  MOVLB  4
096EE:  MOVWF  xCF
096F0:  MOVLB  5
096F2:  CLRF   xED
096F4:  MOVLB  0
096F6:  CALL   1474
096FA:  MOVLW  01
096FC:  MOVLB  4
096FE:  MOVWF  xD1
09700:  MOVWF  xD0
....................          Temporal=Ajuste2; 
09702:  MOVFF  540,544
09706:  MOVFF  53F,543
0970A:  MOVFF  53E,542
0970E:  MOVFF  53D,541
....................          Entero=(int)Ajuste2; 
09712:  MOVFF  540,619
09716:  MOVFF  53F,618
0971A:  MOVFF  53E,617
0971E:  MOVFF  53D,616
09722:  MOVLB  0
09724:  CALL   2E96
09728:  MOVFF  01,4DA
....................          Temporal=Temporal-Entero; 
0972C:  MOVLB  6
0972E:  CLRF   x1B
09730:  MOVFF  4DA,61A
09734:  MOVLB  0
09736:  CALL   18BE
0973A:  BSF    FD8.1
0973C:  MOVFF  544,61D
09740:  MOVFF  543,61C
09744:  MOVFF  542,61B
09748:  MOVFF  541,61A
0974C:  MOVFF  03,621
09750:  MOVFF  02,620
09754:  MOVFF  01,61F
09758:  MOVFF  00,61E
0975C:  CALL   1A52
09760:  MOVFF  03,544
09764:  MOVFF  02,543
09768:  MOVFF  01,542
0976C:  MOVFF  00,541
....................          Temporal2=Temporal*10.0; 
09770:  MOVFF  544,619
09774:  MOVFF  543,618
09778:  MOVFF  542,617
0977C:  MOVFF  541,616
09780:  MOVLB  6
09782:  CLRF   x1D
09784:  CLRF   x1C
09786:  MOVLW  20
09788:  MOVWF  x1B
0978A:  MOVLW  82
0978C:  MOVWF  x1A
0978E:  MOVLB  0
09790:  CALL   2ED2
09794:  MOVFF  03,548
09798:  MOVFF  02,547
0979C:  MOVFF  01,546
097A0:  MOVFF  00,545
....................          Decimal1=(int8)Temporal2; 
097A4:  MOVFF  548,619
097A8:  MOVFF  547,618
097AC:  MOVFF  546,617
097B0:  MOVFF  545,616
097B4:  CALL   2E96
097B8:  MOVFF  01,4DB
....................          write_eeprom(27,Entero); 
097BC:  CLRF   FAA
097BE:  MOVLW  1B
097C0:  MOVWF  FA9
097C2:  MOVFF  4DA,FA8
097C6:  BCF    FA6.6
097C8:  BCF    FA6.7
097CA:  BSF    FA6.2
097CC:  MOVF   FF2,W
097CE:  MOVWF  00
097D0:  BCF    FF2.7
097D2:  MOVLB  F
097D4:  MOVLW  55
097D6:  MOVWF  FA7
097D8:  MOVLW  AA
097DA:  MOVWF  FA7
097DC:  BSF    FA6.1
097DE:  BTFSC  FA6.1
097E0:  BRA    97DE
097E2:  BCF    FA6.2
097E4:  MOVF   00,W
097E6:  IORWF  FF2,F
....................          delay_ms(20); 
097E8:  MOVLW  14
097EA:  MOVLB  5
097EC:  MOVWF  xF9
097EE:  MOVLB  0
097F0:  CALL   1394
....................          write_eeprom(28,Decimal1); 
097F4:  CLRF   FAA
097F6:  MOVLW  1C
097F8:  MOVWF  FA9
097FA:  MOVFF  4DB,FA8
097FE:  BCF    FA6.6
09800:  BCF    FA6.7
09802:  BSF    FA6.2
09804:  MOVF   FF2,W
09806:  MOVWF  00
09808:  BCF    FF2.7
0980A:  MOVLB  F
0980C:  MOVLW  55
0980E:  MOVWF  FA7
09810:  MOVLW  AA
09812:  MOVWF  FA7
09814:  BSF    FA6.1
09816:  BTFSC  FA6.1
09818:  BRA    9816
0981A:  BCF    FA6.2
0981C:  MOVF   00,W
0981E:  IORWF  FF2,F
....................          delay_ms(20); 
09820:  MOVLW  14
09822:  MOVLB  5
09824:  MOVWF  xF9
09826:  MOVLB  0
09828:  CALL   1394
0982C:  MOVLB  4
....................       } 
....................     } 
.................... //_--------------------------------------------------------------------------------------------------------------------------------------------------------        
....................  
.................... //_-------------------------------------------------------------------------------------------------------------------------------------------------------- 
....................       if(Menu==43){ //Menu de Velocidad de Motor 
0982E:  MOVF   xCF,W
09830:  SUBLW  2B
09832:  BTFSS  FD8.2
09834:  BRA    9A00
....................        
....................       if(VelMotor>6)VelMotor=6; 
09836:  MOVLB  5
09838:  MOVF   xDC,W
0983A:  SUBLW  06
0983C:  BC    9842
0983E:  MOVLW  06
09840:  MOVWF  xDC
....................        
....................       strcpy(Menus.Letra,"Seleccion Vel"); 
09842:  MOVLW  04
09844:  MOVWF  FEA
09846:  MOVLW  17
09848:  MOVWF  FE9
0984A:  MOVFF  FF2,5E5
0984E:  BCF    FF2.7
09850:  MOVLW  00
09852:  MOVLB  0
09854:  CALL   1236
09858:  TBLRD*-
0985A:  TBLRD*+
0985C:  MOVF   FF5,W
0985E:  MOVWF  FEE
09860:  IORLW  00
09862:  BNZ   985A
09864:  MOVLB  5
09866:  BTFSC  xE5.7
09868:  BSF    FF2.7
....................       displayMenu(Menus.Letra,10,0,1,1); 
0986A:  MOVLW  04
0986C:  MOVWF  xEE
0986E:  MOVLW  17
09870:  MOVWF  xED
09872:  MOVLW  0A
09874:  MOVWF  xEF
09876:  CLRF   xF0
09878:  MOVLW  01
0987A:  MOVWF  xF1
0987C:  MOVWF  xF2
0987E:  MOVLB  0
09880:  CALL   4CDC
....................        
....................       displayTiempo(VelMotor,50,40,1,2); 
09884:  MOVFF  5DC,5E5
09888:  MOVLW  32
0988A:  MOVLB  5
0988C:  MOVWF  xE6
0988E:  MOVLW  28
09890:  MOVWF  xE7
09892:  MOVLW  01
09894:  MOVWF  xE8
09896:  MOVLW  02
09898:  MOVWF  xE9
0989A:  MOVLB  0
0989C:  CALL   549A
....................        
....................       if(UP && VelMotor<6)//Si oprime hacia arriba 
098A0:  BSF    F92.5
098A2:  BTFSC  F80.5
098A4:  BRA    98C4
098A6:  MOVLB  5
098A8:  MOVF   xDC,W
098AA:  SUBLW  05
098AC:  BTFSC  FD8.0
098AE:  BRA    98B4
098B0:  MOVLB  0
098B2:  BRA    98C4
....................       {   
....................          delay_ms(200);VelMotor++; 
098B4:  MOVLW  C8
098B6:  MOVWF  xF9
098B8:  MOVLB  0
098BA:  CALL   1394
098BE:  MOVLB  5
098C0:  INCF   xDC,F
098C2:  MOVLB  0
....................       } 
....................              
....................       if(DOWN && VelMotor>0)//Si oprime hacia abajo 
098C4:  BSF    F96.0
098C6:  BTFSC  F84.0
098C8:  BRA    98E6
098CA:  MOVLB  5
098CC:  MOVF   xDC,F
098CE:  BTFSS  FD8.2
098D0:  BRA    98D6
098D2:  MOVLB  0
098D4:  BRA    98E6
....................       {   
....................          delay_ms(200);VelMotor--; 
098D6:  MOVLW  C8
098D8:  MOVWF  xF9
098DA:  MOVLB  0
098DC:  CALL   1394
098E0:  MOVLB  5
098E2:  DECF   xDC,F
098E4:  MOVLB  0
....................       } 
....................              
....................       if(RIGHT)//Si oprime SET 
098E6:  BSF    F96.1
098E8:  BTFSC  F84.1
098EA:  BRA    98F4
....................       {            
....................          VelocidadMotor(VelMotor); 
098EC:  MOVFF  5DC,5E5
098F0:  CALL   13BC
....................       }  
....................              
....................       if(LEFT)//Si oprime boton de Toma. 
098F4:  BSF    F96.2
098F6:  BTFSC  F84.2
098F8:  BRA    9A02
....................       {                   
....................          delay_ms(100);glcd_fillscreen(OFF);Opcion=1;unidad=1; 
098FA:  MOVLW  64
098FC:  MOVLB  5
098FE:  MOVWF  xF9
09900:  MOVLB  0
09902:  CALL   1394
09906:  MOVLB  5
09908:  CLRF   xED
0990A:  MOVLB  0
0990C:  CALL   1474
09910:  MOVLW  01
09912:  MOVLB  4
09914:  MOVWF  xD1
09916:  MOVWF  xD0
....................          write_eeprom(32,VelMotor);//Guardar valor de Setpoint en eeprom 
09918:  CLRF   FAA
0991A:  MOVLW  20
0991C:  MOVWF  FA9
0991E:  MOVFF  5DC,FA8
09922:  BCF    FA6.6
09924:  BCF    FA6.7
09926:  BSF    FA6.2
09928:  MOVF   FF2,W
0992A:  MOVWF  00
0992C:  BCF    FF2.7
0992E:  MOVLB  F
09930:  MOVLW  55
09932:  MOVWF  FA7
09934:  MOVLW  AA
09936:  MOVWF  FA7
09938:  BSF    FA6.1
0993A:  BTFSC  FA6.1
0993C:  BRA    993A
0993E:  BCF    FA6.2
09940:  MOVF   00,W
09942:  IORWF  FF2,F
....................          delay_ms(20); 
09944:  MOVLW  14
09946:  MOVLB  5
09948:  MOVWF  xF9
0994A:  MOVLB  0
0994C:  CALL   1394
....................          glcd_fillScreen(OFF); 
09950:  MOVLB  5
09952:  CLRF   xED
09954:  MOVLB  0
09956:  CALL   1474
....................          strcpy(Menus.Letra,"Velocidad"); 
0995A:  MOVLW  04
0995C:  MOVWF  FEA
0995E:  MOVLW  17
09960:  MOVWF  FE9
09962:  MOVFF  FF2,5E5
09966:  BCF    FF2.7
09968:  MOVLW  00
0996A:  CALL   1262
0996E:  TBLRD*-
09970:  TBLRD*+
09972:  MOVF   FF5,W
09974:  MOVWF  FEE
09976:  IORLW  00
09978:  BNZ   9970
0997A:  MOVLB  5
0997C:  BTFSC  xE5.7
0997E:  BSF    FF2.7
....................          displayMenu(Menus.Letra,0,0,0,2); 
09980:  MOVLW  04
09982:  MOVWF  xEE
09984:  MOVLW  17
09986:  MOVWF  xED
09988:  CLRF   xEF
0998A:  CLRF   xF0
0998C:  CLRF   xF1
0998E:  MOVLW  02
09990:  MOVWF  xF2
09992:  MOVLB  0
09994:  CALL   4CDC
....................          strcpy(Menus.Letra,"Guardada"); 
09998:  MOVLW  04
0999A:  MOVWF  FEA
0999C:  MOVLW  17
0999E:  MOVWF  FE9
099A0:  MOVFF  FF2,5E5
099A4:  BCF    FF2.7
099A6:  MOVLW  00
099A8:  CALL   128A
099AC:  TBLRD*-
099AE:  TBLRD*+
099B0:  MOVF   FF5,W
099B2:  MOVWF  FEE
099B4:  IORLW  00
099B6:  BNZ   99AE
099B8:  MOVLB  5
099BA:  BTFSC  xE5.7
099BC:  BSF    FF2.7
....................          displayMenu(Menus.Letra,0,30,0,2); 
099BE:  MOVLW  04
099C0:  MOVWF  xEE
099C2:  MOVLW  17
099C4:  MOVWF  xED
099C6:  CLRF   xEF
099C8:  MOVLW  1E
099CA:  MOVWF  xF0
099CC:  CLRF   xF1
099CE:  MOVLW  02
099D0:  MOVWF  xF2
099D2:  MOVLB  0
099D4:  CALL   4CDC
....................          glcd_update(); 
099D8:  CALL   14CE
....................          delay_ms(1000); 
099DC:  MOVLW  04
099DE:  MOVLB  5
099E0:  MOVWF  xE5
099E2:  MOVLW  FA
099E4:  MOVWF  xF9
099E6:  MOVLB  0
099E8:  CALL   1394
099EC:  MOVLB  5
099EE:  DECFSZ xE5,F
099F0:  BRA    99E2
....................          glcd_fillScreen(OFF); 
099F2:  CLRF   xED
099F4:  MOVLB  0
099F6:  CALL   1474
....................          Menu=32; 
099FA:  MOVLW  20
099FC:  MOVLB  4
099FE:  MOVWF  xCF
09A00:  MOVLB  0
....................       } 
....................     } 
.................... //_--------------------------------------------------------------------------------------------------------------------------------------------------------        
....................  
....................    if(tiemporeset>=60) 
09A02:  MOVLB  4
09A04:  MOVF   xD5,W
09A06:  SUBLW  3B
09A08:  BC    9A20
....................    { 
....................       if(Menu!=200){ 
09A0A:  MOVF   xCF,W
09A0C:  SUBLW  C8
09A0E:  BZ    9A20
....................          glcd_init(ON); 
09A10:  MOVLW  01
09A12:  MOVLB  5
09A14:  MOVWF  xE5
09A16:  MOVLB  0
09A18:  CALL   1586
....................          tiemporeset=0; 
09A1C:  MOVLB  4
09A1E:  CLRF   xD5
....................       } 
....................    }  
.................... } 
09A20:  MOVLB  0
09A22:  GOTO   65D0
....................  
.................... } 
....................  
09A26:  SLEEP 

Configuration Fuses:
   Word  1: 0200   HS NOIESO NOFCMEN
   Word  2: 1E1F   BROWNOUT NOWDT BORV20 NOPUT WDT32768
   Word  3: 0000   NOPBADEN NOLPT1OSC NOMCLR
   Word  4: 00B0   NOSTVREN NODEBUG NOLVP NOXINST BBSIZ4K
   Word  5: C03F   NOPROTECT NOCPD NOCPB
   Word  6: E03F   NOWRT NOWRTD NOWRTC NOWRTB
   Word  7: 403F   NOEBTR NOEBTRB
