CCS PCH C Compiler, Version 4.104, 5967               09-feb.-21 09:54

               Filename: D:\Laboratorio\Cabina Extractora de Gases y  Humos\2021\Cabina Extractora Sin Ductos 90TOPA GLCD CEMMIT #0045884XX OP202114\Firmware - V1.1.0\Maestro_v2.lst

               ROM used: 43168 bytes (66%)
                         Largest free fragment is 22368
               RAM used: 1586 (40%) at main() level
                         1656 (42%) worst case
               Stack:    7 worst case (6 in main + 1 for interrupts)

*
00000:  GOTO   616C
*
00008:  MOVWF  04
0000A:  MOVFF  FD8,05
0000E:  MOVFF  FE0,06
00012:  MOVLB  0
00014:  MOVFF  FE9,0C
00018:  MOVFF  FEA,07
0001C:  MOVFF  FE1,08
00020:  MOVFF  FE2,09
00024:  MOVFF  FD9,0A
00028:  MOVFF  FDA,0B
0002C:  MOVFF  FF3,12
00030:  MOVFF  FF4,13
00034:  MOVFF  FFA,14
00038:  MOVFF  00,0E
0003C:  MOVFF  01,0F
00040:  MOVFF  02,10
00044:  MOVFF  03,11
00048:  BTFSS  F9D.0
0004A:  GOTO   0054
0004E:  BTFSC  F9E.0
00050:  GOTO   136A
00054:  MOVFF  0E,00
00058:  MOVFF  0F,01
0005C:  MOVFF  10,02
00060:  MOVFF  11,03
00064:  MOVFF  0C,FE9
00068:  MOVFF  07,FEA
0006C:  BSF    07.7
0006E:  MOVFF  08,FE1
00072:  MOVFF  09,FE2
00076:  MOVFF  0A,FD9
0007A:  MOVFF  0B,FDA
0007E:  MOVFF  12,FF3
00082:  MOVFF  13,FF4
00086:  MOVFF  14,FFA
0008A:  MOVF   04,W
0008C:  MOVFF  06,FE0
00090:  MOVFF  05,FD8
00094:  RETFIE 0
.................... //Programa para Cabina Extractora de gases y Humos sin Ductos con variador y comunicacion MODBUS RTU-RS385 
....................  
.................... #include <18F4620.h> 
.................... //////// Standard Header file for the PIC18F4620 device //////////////// 
.................... #device PIC18F4620 
.................... #list 
....................  
.................... #device adc=10 
.................... #fuses HS,WDT8192,NOPROTECT,NOLVP,NODEBUG,NOSTVREN,NOPUT,NOCPD,NOWRT,NOIESO,NOFCMEN,NOPBADEN,NOWRTC,NOWRTB,NOEBTR,NOEBTRB,NOCPB,NOXINST,NOLPT1OSC,NOMCLR,NOBROWNOUT 
.................... #use delay(clock=20000000) 
*
01524:  MOVLW  06
01526:  MOVWF  FEA
01528:  MOVLW  46
0152A:  MOVWF  FE9
0152C:  MOVF   FEF,W
0152E:  BZ    154A
01530:  MOVLW  06
01532:  MOVWF  01
01534:  CLRF   00
01536:  DECFSZ 00,F
01538:  BRA    1536
0153A:  DECFSZ 01,F
0153C:  BRA    1534
0153E:  MOVLW  7B
01540:  MOVWF  00
01542:  DECFSZ 00,F
01544:  BRA    1542
01546:  DECFSZ FEF,F
01548:  BRA    1530
0154A:  RETLW  00
.................... #use i2c(Master,slow,sda=PIN_C4,scl=PIN_C3) 
*
019F2:  MOVLW  08
019F4:  MOVWF  01
019F6:  MOVLW  05
019F8:  MOVWF  00
019FA:  DECFSZ 00,F
019FC:  BRA    19FA
019FE:  BCF    F8B.3
01A00:  BCF    F94.3
01A02:  MOVLW  06
01A04:  MOVWF  00
01A06:  DECFSZ 00,F
01A08:  BRA    1A06
01A0A:  MOVLB  6
01A0C:  RLCF   x3B,F
01A0E:  BCF    F8B.4
01A10:  BTFSC  FD8.0
01A12:  BSF    F94.4
01A14:  BTFSS  FD8.0
01A16:  BCF    F94.4
01A18:  BSF    F94.3
01A1A:  BTFSS  F82.3
01A1C:  BRA    1A1A
01A1E:  DECFSZ 01,F
01A20:  BRA    1A24
01A22:  BRA    1A28
01A24:  MOVLB  0
01A26:  BRA    19F6
01A28:  MOVLW  05
01A2A:  MOVWF  00
01A2C:  DECFSZ 00,F
01A2E:  BRA    1A2C
01A30:  BCF    F8B.3
01A32:  BCF    F94.3
01A34:  NOP   
01A36:  BSF    F94.4
01A38:  MOVLW  06
01A3A:  MOVWF  00
01A3C:  DECFSZ 00,F
01A3E:  BRA    1A3C
01A40:  MOVLW  06
01A42:  MOVWF  00
01A44:  DECFSZ 00,F
01A46:  BRA    1A44
01A48:  BSF    F94.3
01A4A:  BTFSS  F82.3
01A4C:  BRA    1A4A
01A4E:  CLRF   01
01A50:  MOVLW  06
01A52:  MOVWF  00
01A54:  DECFSZ 00,F
01A56:  BRA    1A54
01A58:  BTFSC  F82.4
01A5A:  BSF    01.0
01A5C:  BCF    F8B.3
01A5E:  BCF    F94.3
01A60:  BCF    F8B.4
01A62:  BCF    F94.4
01A64:  MOVLB  0
01A66:  RETLW  00
*
01B02:  MOVLW  08
01B04:  MOVLB  6
01B06:  MOVWF  x3B
01B08:  MOVFF  00,63C
01B0C:  BSF    F94.4
01B0E:  MOVLW  06
01B10:  MOVWF  00
01B12:  DECFSZ 00,F
01B14:  BRA    1B12
01B16:  BSF    F94.3
01B18:  BTFSS  F82.3
01B1A:  BRA    1B18
01B1C:  BTFSC  F82.4
01B1E:  BSF    FD8.0
01B20:  BTFSS  F82.4
01B22:  BCF    FD8.0
01B24:  RLCF   01,F
01B26:  MOVLW  05
01B28:  MOVWF  00
01B2A:  DECFSZ 00,F
01B2C:  BRA    1B2A
01B2E:  BCF    F94.3
01B30:  BCF    F8B.3
01B32:  DECFSZ x3B,F
01B34:  BRA    1B0C
01B36:  BSF    F94.4
01B38:  MOVLW  06
01B3A:  MOVWF  00
01B3C:  DECFSZ 00,F
01B3E:  BRA    1B3C
01B40:  BCF    F8B.4
01B42:  MOVF   x3C,W
01B44:  BTFSS  FD8.2
01B46:  BCF    F94.4
01B48:  NOP   
01B4A:  BSF    F94.3
01B4C:  BTFSS  F82.3
01B4E:  BRA    1B4C
01B50:  MOVLW  05
01B52:  MOVWF  00
01B54:  DECFSZ 00,F
01B56:  BRA    1B54
01B58:  BCF    F8B.3
01B5A:  BCF    F94.3
01B5C:  MOVLW  06
01B5E:  MOVWF  00
01B60:  DECFSZ 00,F
01B62:  BRA    1B60
01B64:  BCF    F8B.4
01B66:  BCF    F94.4
01B68:  MOVLB  0
01B6A:  RETLW  00
.................... #include <MATH.h> 
.................... //////////////////////////////////////////////////////////////////////////// 
.................... ////        (C) Copyright 1996,2008 Custom Computer Services            //// 
.................... //// This source code may only be used by licensed users of the CCS C   //// 
.................... //// compiler.  This source code may only be distributed to other       //// 
.................... //// licensed users of the CCS C compiler.  No other use, reproduction  //// 
.................... //// or distribution is permitted without written permission.           //// 
.................... //// Derivative programs created using this software in object code     //// 
.................... //// form are not restricted in any way.                                //// 
.................... //////////////////////////////////////////////////////////////////////////// 
.................... ////                                                                    //// 
.................... //// History:                                                           //// 
.................... ////  * 9/20/2001 :  Improvments are made to sin/cos code.              //// 
.................... ////                 The code now is small, much faster,                //// 
.................... ////                 and more accurate.                                 //// 
.................... ////  * 2/21/2007 :  Compiler handles & operator differently and does 
.................... ////                 not return generic (int8 *) so type cast is done   //// 
.................... ////                                                                    //// 
.................... //////////////////////////////////////////////////////////////////////////// 
....................  
.................... #ifndef MATH_H 
.................... #define MATH_H 
....................  
.................... #ifdef PI 
.................... #undef  PI 
.................... #endif 
.................... #define PI     3.1415926535897932 
....................  
....................  
.................... #define SQRT2  1.4142135623730950 
....................  
.................... //float const ps[4] = {5.9304945, 21.125224, 8.9403076, 0.29730279}; 
.................... //float const qs[4] = {1.0000000, 15.035723, 17.764134, 2.4934718}; 
....................  
.................... ///////////////////////////// Round Functions ////////////////////////////// 
....................  
.................... float32 CEIL_FLOOR(float32 x, unsigned int8 n) 
.................... { 
....................    float32 y, res; 
....................    unsigned int16 l; 
....................    int1 s; 
....................  
....................    s = 0; 
*
0335C:  MOVLB  6
0335E:  BCF    x62.0
....................    y = x; 
03360:  MOVFF  656,65B
03364:  MOVFF  655,65A
03368:  MOVFF  654,659
0336C:  MOVFF  653,658
....................  
....................    if (x < 0) 
03370:  MOVFF  656,666
03374:  MOVFF  655,665
03378:  MOVFF  654,664
0337C:  MOVFF  653,663
03380:  CLRF   x6A
03382:  CLRF   x69
03384:  CLRF   x68
03386:  CLRF   x67
03388:  MOVLB  0
0338A:  CALL   2910
0338E:  BNC   339A
....................    { 
....................       s = 1; 
03390:  MOVLB  6
03392:  BSF    x62.0
....................       y = -y; 
03394:  MOVF   x59,W
03396:  XORLW  80
03398:  MOVWF  x59
....................    } 
....................  
....................    if (y <= 32768.0) 
0339A:  MOVFF  65B,666
0339E:  MOVFF  65A,665
033A2:  MOVFF  659,664
033A6:  MOVFF  658,663
033AA:  MOVLB  6
033AC:  CLRF   x6A
033AE:  CLRF   x69
033B0:  CLRF   x68
033B2:  MOVLW  8E
033B4:  MOVWF  x67
033B6:  MOVLB  0
033B8:  CALL   2910
033BC:  BC    33C0
033BE:  BNZ   33F2
....................   res = (float32)(unsigned int16)y; 
033C0:  MOVFF  65B,666
033C4:  MOVFF  65A,665
033C8:  MOVFF  659,664
033CC:  MOVFF  658,663
033D0:  CALL   1DA8
033D4:  MOVFF  02,668
033D8:  MOVFF  01,667
033DC:  CALL   173C
033E0:  MOVFF  03,65F
033E4:  MOVFF  02,65E
033E8:  MOVFF  01,65D
033EC:  MOVFF  00,65C
....................  
....................  else if (y < 10000000.0) 
033F0:  BRA    3598
033F2:  MOVFF  65B,666
033F6:  MOVFF  65A,665
033FA:  MOVFF  659,664
033FE:  MOVFF  658,663
03402:  MOVLW  80
03404:  MOVLB  6
03406:  MOVWF  x6A
03408:  MOVLW  96
0340A:  MOVWF  x69
0340C:  MOVLW  18
0340E:  MOVWF  x68
03410:  MOVLW  96
03412:  MOVWF  x67
03414:  MOVLB  0
03416:  CALL   2910
0341A:  BTFSS  FD8.0
0341C:  BRA    3588
....................    { 
....................   l = (unsigned int16)(y/32768.0); 
0341E:  MOVFF  65B,666
03422:  MOVFF  65A,665
03426:  MOVFF  659,664
0342A:  MOVFF  658,663
0342E:  MOVLB  6
03430:  CLRF   x6A
03432:  CLRF   x69
03434:  CLRF   x68
03436:  MOVLW  8E
03438:  MOVWF  x67
0343A:  MOVLB  0
0343C:  CALL   1772
03440:  MOVFF  03,666
03444:  MOVFF  02,665
03448:  MOVFF  01,664
0344C:  MOVFF  00,663
03450:  CALL   1DA8
03454:  MOVFF  02,661
03458:  MOVFF  01,660
....................       y = 32768.0*(y/32768.0 - (float32)l); 
0345C:  MOVFF  65B,666
03460:  MOVFF  65A,665
03464:  MOVFF  659,664
03468:  MOVFF  658,663
0346C:  MOVLB  6
0346E:  CLRF   x6A
03470:  CLRF   x69
03472:  CLRF   x68
03474:  MOVLW  8E
03476:  MOVWF  x67
03478:  MOVLB  0
0347A:  CALL   1772
0347E:  MOVFF  00,663
03482:  MOVFF  01,664
03486:  MOVFF  02,665
0348A:  MOVFF  03,666
0348E:  MOVFF  661,668
03492:  MOVFF  660,667
03496:  CALL   173C
0349A:  BSF    FD8.1
0349C:  MOVFF  666,66A
034A0:  MOVFF  665,669
034A4:  MOVFF  664,668
034A8:  MOVFF  663,667
034AC:  MOVFF  03,66E
034B0:  MOVFF  02,66D
034B4:  MOVFF  01,66C
034B8:  MOVFF  00,66B
034BC:  CALL   1EF0
034C0:  MOVLB  6
034C2:  CLRF   x66
034C4:  CLRF   x65
034C6:  CLRF   x64
034C8:  MOVLW  8E
034CA:  MOVWF  x63
034CC:  MOVFF  03,66A
034D0:  MOVFF  02,669
034D4:  MOVFF  01,668
034D8:  MOVFF  00,667
034DC:  MOVLB  0
034DE:  CALL   18D0
034E2:  MOVFF  03,65B
034E6:  MOVFF  02,65A
034EA:  MOVFF  01,659
034EE:  MOVFF  00,658
....................   res = 32768.0*(float32)l; 
034F2:  MOVFF  661,668
034F6:  MOVFF  660,667
034FA:  CALL   173C
034FE:  MOVLB  6
03500:  CLRF   x66
03502:  CLRF   x65
03504:  CLRF   x64
03506:  MOVLW  8E
03508:  MOVWF  x63
0350A:  MOVFF  03,66A
0350E:  MOVFF  02,669
03512:  MOVFF  01,668
03516:  MOVFF  00,667
0351A:  MOVLB  0
0351C:  CALL   18D0
03520:  MOVFF  03,65F
03524:  MOVFF  02,65E
03528:  MOVFF  01,65D
0352C:  MOVFF  00,65C
....................   res += (float32)(unsigned int16)y; 
03530:  MOVFF  65B,666
03534:  MOVFF  65A,665
03538:  MOVFF  659,664
0353C:  MOVFF  658,663
03540:  CALL   1DA8
03544:  MOVFF  02,668
03548:  MOVFF  01,667
0354C:  CALL   173C
03550:  BCF    FD8.1
03552:  MOVFF  65F,66A
03556:  MOVFF  65E,669
0355A:  MOVFF  65D,668
0355E:  MOVFF  65C,667
03562:  MOVFF  03,66E
03566:  MOVFF  02,66D
0356A:  MOVFF  01,66C
0356E:  MOVFF  00,66B
03572:  CALL   1EF0
03576:  MOVFF  03,65F
0357A:  MOVFF  02,65E
0357E:  MOVFF  01,65D
03582:  MOVFF  00,65C
....................  } 
....................  
....................  else 
03586:  BRA    3598
....................   res = y; 
03588:  MOVFF  65B,65F
0358C:  MOVFF  65A,65E
03590:  MOVFF  659,65D
03594:  MOVFF  658,65C
....................  
....................  y = y - (float32)(unsigned int16)y; 
03598:  MOVFF  65B,666
0359C:  MOVFF  65A,665
035A0:  MOVFF  659,664
035A4:  MOVFF  658,663
035A8:  CALL   1DA8
035AC:  MOVFF  02,668
035B0:  MOVFF  01,667
035B4:  CALL   173C
035B8:  BSF    FD8.1
035BA:  MOVFF  65B,66A
035BE:  MOVFF  65A,669
035C2:  MOVFF  659,668
035C6:  MOVFF  658,667
035CA:  MOVFF  03,66E
035CE:  MOVFF  02,66D
035D2:  MOVFF  01,66C
035D6:  MOVFF  00,66B
035DA:  CALL   1EF0
035DE:  MOVFF  03,65B
035E2:  MOVFF  02,65A
035E6:  MOVFF  01,659
035EA:  MOVFF  00,658
....................  
....................  if (s) 
035EE:  MOVLB  6
035F0:  BTFSS  x62.0
035F2:  BRA    35FA
....................   res = -res; 
035F4:  MOVF   x5D,W
035F6:  XORLW  80
035F8:  MOVWF  x5D
....................  
....................  if (y != 0) 
035FA:  MOVFF  65B,666
035FE:  MOVFF  65A,665
03602:  MOVFF  659,664
03606:  MOVFF  658,663
0360A:  CLRF   x6A
0360C:  CLRF   x69
0360E:  CLRF   x68
03610:  CLRF   x67
03612:  MOVLB  0
03614:  CALL   2910
03618:  BZ    3692
....................  { 
....................   if (s == 1 && n == 0) 
0361A:  MOVLB  6
0361C:  BTFSS  x62.0
0361E:  BRA    3658
03620:  MOVF   x57,F
03622:  BNZ   3658
....................    res -= 1.0; 
03624:  BSF    FD8.1
03626:  MOVFF  65F,66A
0362A:  MOVFF  65E,669
0362E:  MOVFF  65D,668
03632:  MOVFF  65C,667
03636:  CLRF   x6E
03638:  CLRF   x6D
0363A:  CLRF   x6C
0363C:  MOVLW  7F
0363E:  MOVWF  x6B
03640:  MOVLB  0
03642:  CALL   1EF0
03646:  MOVFF  03,65F
0364A:  MOVFF  02,65E
0364E:  MOVFF  01,65D
03652:  MOVFF  00,65C
03656:  MOVLB  6
....................  
....................   if (s == 0 && n == 1) 
03658:  BTFSC  x62.0
0365A:  BRA    3694
0365C:  DECFSZ x57,W
0365E:  BRA    3694
....................    res += 1.0; 
03660:  BCF    FD8.1
03662:  MOVFF  65F,66A
03666:  MOVFF  65E,669
0366A:  MOVFF  65D,668
0366E:  MOVFF  65C,667
03672:  CLRF   x6E
03674:  CLRF   x6D
03676:  CLRF   x6C
03678:  MOVLW  7F
0367A:  MOVWF  x6B
0367C:  MOVLB  0
0367E:  CALL   1EF0
03682:  MOVFF  03,65F
03686:  MOVFF  02,65E
0368A:  MOVFF  01,65D
0368E:  MOVFF  00,65C
03692:  MOVLB  6
....................  } 
....................  if (x == 0) 
03694:  MOVFF  656,666
03698:  MOVFF  655,665
0369C:  MOVFF  654,664
036A0:  MOVFF  653,663
036A4:  CLRF   x6A
036A6:  CLRF   x69
036A8:  CLRF   x68
036AA:  CLRF   x67
036AC:  MOVLB  0
036AE:  CALL   2910
036B2:  BNZ   36C0
....................     res = 0; 
036B4:  MOVLB  6
036B6:  CLRF   x5F
036B8:  CLRF   x5E
036BA:  CLRF   x5D
036BC:  CLRF   x5C
036BE:  MOVLB  0
....................  
....................  return (res); 
036C0:  MOVFF  65C,00
036C4:  MOVFF  65D,01
036C8:  MOVFF  65E,02
036CC:  MOVFF  65F,03
.................... } 
036D0:  RETLW  00
....................  
.................... // Overloaded Functions to take care for new Data types in PCD 
.................... // Overloaded function CEIL_FLOOR() for data type - Float48 
.................... #if defined(__PCD__) 
.................... float48 CEIL_FLOOR(float48 x, unsigned int8 n) 
.................... { 
....................    float48 y, res; 
....................    unsigned int16 l; 
....................    int1 s; 
....................  
....................    s = 0; 
....................    y = x; 
....................  
....................    if (x < 0) 
....................    { 
....................       s = 1; 
....................       y = -y; 
....................    } 
....................  
....................    if (y <= 32768.0) 
....................   res = (float48)(unsigned int16)y; 
....................  
....................  else if (y < 10000000.0) 
....................    { 
....................   l = (unsigned int16)(y/32768.0); 
....................       y = 32768.0*(y/32768.0 - (float48)l); 
....................   res = 32768.0*(float32)l; 
....................   res += (float48)(unsigned int16)y; 
....................  } 
....................  
....................  else 
....................   res = y; 
....................  
....................  y = y - (float48)(unsigned int16)y; 
....................  
....................  if (s) 
....................   res = -res; 
....................  
....................  if (y != 0) 
....................  { 
....................   if (s == 1 && n == 0) 
....................    res -= 1.0; 
....................  
....................   if (s == 0 && n == 1) 
....................    res += 1.0; 
....................  } 
....................  if (x == 0) 
....................     res = 0; 
....................  
....................  return (res); 
.................... } 
....................  
....................  
.................... // Overloaded function CEIL_FLOOR() for data type - Float64 
.................... float64 CEIL_FLOOR(float64 x, unsigned int8 n) 
.................... { 
....................    float64 y, res; 
....................    unsigned int16 l; 
....................    int1 s; 
....................  
....................    s = 0; 
....................    y = x; 
....................  
....................    if (x < 0) 
....................    { 
....................       s = 1; 
....................       y = -y; 
....................    } 
....................  
....................    if (y <= 32768.0) 
....................   res = (float64)(unsigned int16)y; 
....................  
....................  else if (y < 10000000.0) 
....................    { 
....................   l = (unsigned int16)(y/32768.0); 
....................       y = 32768.0*(y/32768.0 - (float64)l); 
....................   res = 32768.0*(float64)l; 
....................   res += (float64)(unsigned int16)y; 
....................  } 
....................  
....................  else 
....................   res = y; 
....................  
....................  y = y - (float64)(unsigned int16)y; 
....................  
....................  if (s) 
....................   res = -res; 
....................  
....................  if (y != 0) 
....................  { 
....................   if (s == 1 && n == 0) 
....................    res -= 1.0; 
....................  
....................   if (s == 0 && n == 1) 
....................    res += 1.0; 
....................  } 
....................  if (x == 0) 
....................     res = 0; 
....................  
....................  return (res); 
.................... } 
.................... #endif 
....................  
.................... //////////////////////////////////////////////////////////////////////////// 
.................... //   float floor(float x) 
.................... //////////////////////////////////////////////////////////////////////////// 
.................... // Description : rounds down the number x. 
.................... // Date : N/A 
.................... // 
.................... float32 floor(float32 x) 
.................... { 
....................    return CEIL_FLOOR(x, 0); 
*
036F0:  MOVFF  652,656
036F4:  MOVFF  651,655
036F8:  MOVFF  650,654
036FC:  MOVFF  64F,653
03700:  MOVLB  6
03702:  CLRF   x57
03704:  MOVLB  0
03706:  RCALL  335C
.................... } 
03708:  GOTO   3814 (RETURN)
.................... // Following 2 functions are overloaded functions of floor() for PCD 
.................... // Overloaded function floor() for data type - Float48 
.................... #if defined(__PCD__) 
.................... float48 floor(float48 x) 
.................... { 
....................    return CEIL_FLOOR(x, 0); 
.................... } 
....................  
.................... // Overloaded function floor() for data type - Float64 
.................... float64 floor(float64 x) 
.................... { 
....................    return CEIL_FLOOR(x, 0); 
.................... } 
.................... #endif 
....................  
....................  
.................... //////////////////////////////////////////////////////////////////////////// 
.................... //   float ceil(float x) 
.................... //////////////////////////////////////////////////////////////////////////// 
.................... // Description : rounds up the number x. 
.................... // Date : N/A 
.................... // 
.................... float32 ceil(float32 x) 
.................... { 
....................    return CEIL_FLOOR(x, 1); 
*
036D2:  MOVFF  652,656
036D6:  MOVFF  651,655
036DA:  MOVFF  650,654
036DE:  MOVFF  64F,653
036E2:  MOVLW  01
036E4:  MOVLB  6
036E6:  MOVWF  x57
036E8:  MOVLB  0
036EA:  RCALL  335C
.................... } 
036EC:  GOTO   37CC (RETURN)
.................... // Following 2 functions are overloaded functions of ceil() for PCD 
.................... // Overloaded function ceil() for data type - Float48 
.................... #if defined(__PCD__) 
.................... float48 ceil(float48 x) 
.................... { 
....................    return CEIL_FLOOR(x, 1); 
.................... } 
....................  
.................... // Overloaded function ceil() for data type - Float64 
.................... float64 ceil(float64 x) 
.................... { 
....................    return CEIL_FLOOR(x, 1); 
.................... } 
.................... #endif 
....................  
....................  //////////////////////////////////////////////////////////////////////////// 
.................... //   float fabs(float x) 
.................... //////////////////////////////////////////////////////////////////////////// 
.................... // Description : Computes the absolute value of floating point number x 
.................... // Returns : returns the absolute value of x 
.................... // Date : N/A 
.................... // 
.................... #define fabs abs 
....................  
.................... //////////////////////////////////////////////////////////////////////////// 
.................... //   float fmod(float x) 
.................... //////////////////////////////////////////////////////////////////////////// 
.................... // Description : Computes the floating point remainder of x/y 
.................... // Returns : returns the value of x= i*y, for some integer i such that, if y 
.................... // is non zero, the result has the same isgn of x na dmagnitude less than the 
.................... // magnitude of y. If y is zero then a domain error occurs. 
.................... // Date : N/A 
.................... // 
....................  
.................... float fmod(float32 x,float32 y) 
.................... { 
....................    float32 i; 
....................    if (y!=0.0) 
*
0370C:  MOVFF  646,666
03710:  MOVFF  645,665
03714:  MOVFF  644,664
03718:  MOVFF  643,663
0371C:  MOVLB  6
0371E:  CLRF   x6A
03720:  CLRF   x69
03722:  CLRF   x68
03724:  CLRF   x67
03726:  MOVLB  0
03728:  CALL   2910
0372C:  BTFSC  FD8.2
0372E:  BRA    3872
....................    { 
....................       i=(x/y < 0.0)? ceil(x/y): floor(x/y); 
03730:  MOVFF  642,666
03734:  MOVFF  641,665
03738:  MOVFF  640,664
0373C:  MOVFF  63F,663
03740:  MOVFF  646,66A
03744:  MOVFF  645,669
03748:  MOVFF  644,668
0374C:  MOVFF  643,667
03750:  CALL   1772
03754:  MOVFF  00,64B
03758:  MOVFF  01,64C
0375C:  MOVFF  02,64D
03760:  MOVFF  03,64E
03764:  MOVFF  03,666
03768:  MOVFF  02,665
0376C:  MOVFF  01,664
03770:  MOVFF  00,663
03774:  MOVLB  6
03776:  CLRF   x6A
03778:  CLRF   x69
0377A:  CLRF   x68
0377C:  CLRF   x67
0377E:  MOVLB  0
03780:  CALL   2910
03784:  BNC   37CE
03786:  MOVFF  642,666
0378A:  MOVFF  641,665
0378E:  MOVFF  640,664
03792:  MOVFF  63F,663
03796:  MOVFF  646,66A
0379A:  MOVFF  645,669
0379E:  MOVFF  644,668
037A2:  MOVFF  643,667
037A6:  CALL   1772
037AA:  MOVFF  00,64B
037AE:  MOVFF  01,64C
037B2:  MOVFF  02,64D
037B6:  MOVFF  03,64E
037BA:  MOVFF  03,652
037BE:  MOVFF  02,651
037C2:  MOVFF  01,650
037C6:  MOVFF  00,64F
037CA:  BRA    36D2
037CC:  BRA    3814
037CE:  MOVFF  642,666
037D2:  MOVFF  641,665
037D6:  MOVFF  640,664
037DA:  MOVFF  63F,663
037DE:  MOVFF  646,66A
037E2:  MOVFF  645,669
037E6:  MOVFF  644,668
037EA:  MOVFF  643,667
037EE:  CALL   1772
037F2:  MOVFF  00,64B
037F6:  MOVFF  01,64C
037FA:  MOVFF  02,64D
037FE:  MOVFF  03,64E
03802:  MOVFF  03,652
03806:  MOVFF  02,651
0380A:  MOVFF  01,650
0380E:  MOVFF  00,64F
03812:  BRA    36F0
03814:  MOVFF  03,64A
03818:  MOVFF  02,649
0381C:  MOVFF  01,648
03820:  MOVFF  00,647
....................       return(x-(i*y)); 
03824:  MOVFF  64A,666
03828:  MOVFF  649,665
0382C:  MOVFF  648,664
03830:  MOVFF  647,663
03834:  MOVFF  646,66A
03838:  MOVFF  645,669
0383C:  MOVFF  644,668
03840:  MOVFF  643,667
03844:  CALL   18D0
03848:  BSF    FD8.1
0384A:  MOVFF  642,66A
0384E:  MOVFF  641,669
03852:  MOVFF  640,668
03856:  MOVFF  63F,667
0385A:  MOVFF  03,66E
0385E:  MOVFF  02,66D
03862:  MOVFF  01,66C
03866:  MOVFF  00,66B
0386A:  CALL   1EF0
0386E:  BRA    3872
....................    } 
....................    else 
03870:  BRA    3872
....................    { 
....................    #ifdef _ERRNO 
....................    { 
....................       errno=EDOM; 
....................    } 
....................    #endif 
....................    } 
.................... } 
03872:  RETLW  00
.................... //Overloaded function for fmod() for PCD 
.................... // Overloaded function fmod() for data type - Float48 
.................... #if defined(__PCD__) 
.................... float48 fmod(float48 x,float48 y) 
.................... { 
....................    float48 i; 
....................    if (y!=0.0) 
....................    { 
....................       i=(x/y < 0.0)? ceil(x/y): floor(x/y); 
....................       return(x-(i*y)); 
....................    } 
....................    else 
....................    { 
....................    #ifdef _ERRNO 
....................    { 
....................       errno=EDOM; 
....................    } 
....................    #endif 
....................    } 
.................... } 
.................... // Overloaded function fmod() for data type - Float64 
.................... float64 fmod(float64 x,float64 y) 
.................... { 
....................    float64 i; 
....................    if (y!=0.0) 
....................    { 
....................       i=(x/y < 0.0)? ceil(x/y): floor(x/y); 
....................       return(x-(i*y)); 
....................    } 
....................    else 
....................    { 
....................    #ifdef _ERRNO 
....................    { 
....................       errno=EDOM; 
....................    } 
....................    #endif 
....................    } 
.................... } 
.................... #endif 
.................... //////////////////// Exponential and logarithmic functions //////////////////// 
.................... //////////////////////////////////////////////////////////////////////////// 
.................... //   float exp(float x) 
.................... //////////////////////////////////////////////////////////////////////////// 
.................... // Description : returns the value (e^x) 
.................... // Date : N/A 
.................... // 
.................... #define LN2 0.6931471805599453 
....................  
.................... float const pe[6] = {0.000207455774, 0.00127100575, 0.00965065093, 
....................                      0.0554965651,  0.240227138,  0.693147172}; 
....................  
....................  
.................... float32 exp(float32 x) 
.................... { 
....................    float32 y, res, r; 
....................    #if defined(__PCD__) 
....................    int8 data1; 
....................    #endif 
....................    signed int8 n; 
....................    int1 s; 
....................    #ifdef _ERRNO 
....................    if(x > 88.722838) 
....................    { 
....................       errno=ERANGE; 
....................       return(0); 
....................    } 
....................    #endif 
....................    n = (signed int16)(x/LN2); 
*
03DA4:  MOVFF  646,666
03DA8:  MOVFF  645,665
03DAC:  MOVFF  644,664
03DB0:  MOVFF  643,663
03DB4:  MOVLW  18
03DB6:  MOVLB  6
03DB8:  MOVWF  x6A
03DBA:  MOVLW  72
03DBC:  MOVWF  x69
03DBE:  MOVLW  31
03DC0:  MOVWF  x68
03DC2:  MOVLW  7E
03DC4:  MOVWF  x67
03DC6:  MOVLB  0
03DC8:  CALL   1772
03DCC:  MOVFF  03,666
03DD0:  MOVFF  02,665
03DD4:  MOVFF  01,664
03DD8:  MOVFF  00,663
03DDC:  CALL   1DA8
03DE0:  MOVFF  01,653
....................    s = 0; 
03DE4:  MOVLB  6
03DE6:  BCF    x54.0
....................    y = x; 
03DE8:  MOVFF  646,64A
03DEC:  MOVFF  645,649
03DF0:  MOVFF  644,648
03DF4:  MOVFF  643,647
....................  
....................    if (x < 0) 
03DF8:  MOVFF  646,666
03DFC:  MOVFF  645,665
03E00:  MOVFF  644,664
03E04:  MOVFF  643,663
03E08:  CLRF   x6A
03E0A:  CLRF   x69
03E0C:  CLRF   x68
03E0E:  CLRF   x67
03E10:  MOVLB  0
03E12:  CALL   2910
03E16:  BNC   3E24
....................    { 
....................       s = 1; 
03E18:  MOVLB  6
03E1A:  BSF    x54.0
....................       n = -n; 
03E1C:  NEGF   x53
....................       y = -y; 
03E1E:  MOVF   x48,W
03E20:  XORLW  80
03E22:  MOVWF  x48
....................    } 
....................  
....................    res = 0.0; 
03E24:  MOVLB  6
03E26:  CLRF   x4E
03E28:  CLRF   x4D
03E2A:  CLRF   x4C
03E2C:  CLRF   x4B
.................... #if !defined(__PCD__) 
....................    *((unsigned int8 *)(&res)) = n + 0x7F; 
03E2E:  MOVLW  06
03E30:  MOVWF  x56
03E32:  MOVLW  4B
03E34:  MOVWF  FE9
03E36:  MOVFF  656,FEA
03E3A:  MOVLW  7F
03E3C:  ADDWF  x53,W
03E3E:  MOVWF  FEF
.................... #endif 
....................  
.................... #if defined(__PCD__)  // Takes care of IEEE format for PCD 
....................    data1 = n+0x7F; 
....................    if(bit_test(data1,0)) 
....................    bit_set(*(((unsigned int8 *)(&res)+2)),7); 
....................    rotate_right(&data1,1); 
....................    bit_clear(data1,7); 
....................    *(((unsigned int8 *)(&res)+3)) = data1; 
.................... #endif 
....................  
....................    y = y/LN2 - (float32)n; 
03E40:  MOVFF  64A,666
03E44:  MOVFF  649,665
03E48:  MOVFF  648,664
03E4C:  MOVFF  647,663
03E50:  MOVLW  18
03E52:  MOVWF  x6A
03E54:  MOVLW  72
03E56:  MOVWF  x69
03E58:  MOVLW  31
03E5A:  MOVWF  x68
03E5C:  MOVLW  7E
03E5E:  MOVWF  x67
03E60:  MOVLB  0
03E62:  CALL   1772
03E66:  MOVFF  00,655
03E6A:  MOVFF  01,656
03E6E:  MOVFF  02,657
03E72:  MOVFF  03,658
03E76:  MOVLB  6
03E78:  CLRF   x5A
03E7A:  MOVFF  653,659
03E7E:  BTFSC  x59.7
03E80:  DECF   x5A,F
03E82:  MOVLB  0
03E84:  RCALL  3874
03E86:  BSF    FD8.1
03E88:  MOVFF  658,66A
03E8C:  MOVFF  657,669
03E90:  MOVFF  656,668
03E94:  MOVFF  655,667
03E98:  MOVFF  03,66E
03E9C:  MOVFF  02,66D
03EA0:  MOVFF  01,66C
03EA4:  MOVFF  00,66B
03EA8:  CALL   1EF0
03EAC:  MOVFF  03,64A
03EB0:  MOVFF  02,649
03EB4:  MOVFF  01,648
03EB8:  MOVFF  00,647
....................  
....................    r = pe[0]*y + pe[1]; 
03EBC:  MOVLW  7C
03EBE:  MOVLB  6
03EC0:  MOVWF  x66
03EC2:  MOVLW  88
03EC4:  MOVWF  x65
03EC6:  MOVLW  59
03EC8:  MOVWF  x64
03ECA:  MOVLW  72
03ECC:  MOVWF  x63
03ECE:  MOVFF  64A,66A
03ED2:  MOVFF  649,669
03ED6:  MOVFF  648,668
03EDA:  MOVFF  647,667
03EDE:  MOVLB  0
03EE0:  CALL   18D0
03EE4:  MOVFF  00,655
03EE8:  MOVFF  01,656
03EEC:  MOVFF  02,657
03EF0:  MOVFF  03,658
03EF4:  BCF    FD8.1
03EF6:  MOVFF  03,66A
03EFA:  MOVFF  02,669
03EFE:  MOVFF  01,668
03F02:  MOVFF  00,667
03F06:  MOVLW  E0
03F08:  MOVLB  6
03F0A:  MOVWF  x6E
03F0C:  MOVLW  97
03F0E:  MOVWF  x6D
03F10:  MOVLW  26
03F12:  MOVWF  x6C
03F14:  MOVLW  75
03F16:  MOVWF  x6B
03F18:  MOVLB  0
03F1A:  CALL   1EF0
03F1E:  MOVFF  03,652
03F22:  MOVFF  02,651
03F26:  MOVFF  01,650
03F2A:  MOVFF  00,64F
....................    r = r*y + pe[2]; 
03F2E:  MOVFF  652,666
03F32:  MOVFF  651,665
03F36:  MOVFF  650,664
03F3A:  MOVFF  64F,663
03F3E:  MOVFF  64A,66A
03F42:  MOVFF  649,669
03F46:  MOVFF  648,668
03F4A:  MOVFF  647,667
03F4E:  CALL   18D0
03F52:  MOVFF  00,655
03F56:  MOVFF  01,656
03F5A:  MOVFF  02,657
03F5E:  MOVFF  03,658
03F62:  BCF    FD8.1
03F64:  MOVFF  03,66A
03F68:  MOVFF  02,669
03F6C:  MOVFF  01,668
03F70:  MOVFF  00,667
03F74:  MOVLW  C4
03F76:  MOVLB  6
03F78:  MOVWF  x6E
03F7A:  MOVLW  1D
03F7C:  MOVWF  x6D
03F7E:  MOVLW  1E
03F80:  MOVWF  x6C
03F82:  MOVLW  78
03F84:  MOVWF  x6B
03F86:  MOVLB  0
03F88:  CALL   1EF0
03F8C:  MOVFF  03,652
03F90:  MOVFF  02,651
03F94:  MOVFF  01,650
03F98:  MOVFF  00,64F
....................    r = r*y + pe[3]; 
03F9C:  MOVFF  652,666
03FA0:  MOVFF  651,665
03FA4:  MOVFF  650,664
03FA8:  MOVFF  64F,663
03FAC:  MOVFF  64A,66A
03FB0:  MOVFF  649,669
03FB4:  MOVFF  648,668
03FB8:  MOVFF  647,667
03FBC:  CALL   18D0
03FC0:  MOVFF  00,655
03FC4:  MOVFF  01,656
03FC8:  MOVFF  02,657
03FCC:  MOVFF  03,658
03FD0:  BCF    FD8.1
03FD2:  MOVFF  03,66A
03FD6:  MOVFF  02,669
03FDA:  MOVFF  01,668
03FDE:  MOVFF  00,667
03FE2:  MOVLW  5E
03FE4:  MOVLB  6
03FE6:  MOVWF  x6E
03FE8:  MOVLW  50
03FEA:  MOVWF  x6D
03FEC:  MOVLW  63
03FEE:  MOVWF  x6C
03FF0:  MOVLW  7A
03FF2:  MOVWF  x6B
03FF4:  MOVLB  0
03FF6:  CALL   1EF0
03FFA:  MOVFF  03,652
03FFE:  MOVFF  02,651
04002:  MOVFF  01,650
04006:  MOVFF  00,64F
....................    r = r*y + pe[4]; 
0400A:  MOVFF  652,666
0400E:  MOVFF  651,665
04012:  MOVFF  650,664
04016:  MOVFF  64F,663
0401A:  MOVFF  64A,66A
0401E:  MOVFF  649,669
04022:  MOVFF  648,668
04026:  MOVFF  647,667
0402A:  CALL   18D0
0402E:  MOVFF  00,655
04032:  MOVFF  01,656
04036:  MOVFF  02,657
0403A:  MOVFF  03,658
0403E:  BCF    FD8.1
04040:  MOVFF  03,66A
04044:  MOVFF  02,669
04048:  MOVFF  01,668
0404C:  MOVFF  00,667
04050:  MOVLW  1A
04052:  MOVLB  6
04054:  MOVWF  x6E
04056:  MOVLW  FE
04058:  MOVWF  x6D
0405A:  MOVLW  75
0405C:  MOVWF  x6C
0405E:  MOVLW  7C
04060:  MOVWF  x6B
04062:  MOVLB  0
04064:  CALL   1EF0
04068:  MOVFF  03,652
0406C:  MOVFF  02,651
04070:  MOVFF  01,650
04074:  MOVFF  00,64F
....................    r = r*y + pe[5]; 
04078:  MOVFF  652,666
0407C:  MOVFF  651,665
04080:  MOVFF  650,664
04084:  MOVFF  64F,663
04088:  MOVFF  64A,66A
0408C:  MOVFF  649,669
04090:  MOVFF  648,668
04094:  MOVFF  647,667
04098:  CALL   18D0
0409C:  MOVFF  00,655
040A0:  MOVFF  01,656
040A4:  MOVFF  02,657
040A8:  MOVFF  03,658
040AC:  BCF    FD8.1
040AE:  MOVFF  03,66A
040B2:  MOVFF  02,669
040B6:  MOVFF  01,668
040BA:  MOVFF  00,667
040BE:  MOVLW  18
040C0:  MOVLB  6
040C2:  MOVWF  x6E
040C4:  MOVLW  72
040C6:  MOVWF  x6D
040C8:  MOVLW  31
040CA:  MOVWF  x6C
040CC:  MOVLW  7E
040CE:  MOVWF  x6B
040D0:  MOVLB  0
040D2:  CALL   1EF0
040D6:  MOVFF  03,652
040DA:  MOVFF  02,651
040DE:  MOVFF  01,650
040E2:  MOVFF  00,64F
....................  
....................    res = res*(1.0 + y*r); 
040E6:  MOVFF  64A,666
040EA:  MOVFF  649,665
040EE:  MOVFF  648,664
040F2:  MOVFF  647,663
040F6:  MOVFF  652,66A
040FA:  MOVFF  651,669
040FE:  MOVFF  650,668
04102:  MOVFF  64F,667
04106:  CALL   18D0
0410A:  BCF    FD8.1
0410C:  MOVLB  6
0410E:  CLRF   x6A
04110:  CLRF   x69
04112:  CLRF   x68
04114:  MOVLW  7F
04116:  MOVWF  x67
04118:  MOVFF  03,66E
0411C:  MOVFF  02,66D
04120:  MOVFF  01,66C
04124:  MOVFF  00,66B
04128:  MOVLB  0
0412A:  CALL   1EF0
0412E:  MOVFF  64E,666
04132:  MOVFF  64D,665
04136:  MOVFF  64C,664
0413A:  MOVFF  64B,663
0413E:  MOVFF  03,66A
04142:  MOVFF  02,669
04146:  MOVFF  01,668
0414A:  MOVFF  00,667
0414E:  CALL   18D0
04152:  MOVFF  03,64E
04156:  MOVFF  02,64D
0415A:  MOVFF  01,64C
0415E:  MOVFF  00,64B
....................  
....................    if (s) 
04162:  MOVLB  6
04164:  BTFSS  x54.0
04166:  BRA    419A
....................       res = 1.0/res; 
04168:  CLRF   x66
0416A:  CLRF   x65
0416C:  CLRF   x64
0416E:  MOVLW  7F
04170:  MOVWF  x63
04172:  MOVFF  64E,66A
04176:  MOVFF  64D,669
0417A:  MOVFF  64C,668
0417E:  MOVFF  64B,667
04182:  MOVLB  0
04184:  CALL   1772
04188:  MOVFF  03,64E
0418C:  MOVFF  02,64D
04190:  MOVFF  01,64C
04194:  MOVFF  00,64B
04198:  MOVLB  6
....................    return(res); 
0419A:  MOVFF  64B,00
0419E:  MOVFF  64C,01
041A2:  MOVFF  64D,02
041A6:  MOVFF  64E,03
.................... } 
041AA:  MOVLB  0
041AC:  RETLW  00
....................  
....................  
.................... //Overloaded function for exp() for PCD 
.................... // Overloaded function exp() for data type - Float48 
.................... #if defined(__PCD__) 
.................... float48 exp(float48 x) 
.................... { 
....................    float48 y, res, r; 
....................    int8 data1; 
....................    signed int8 n; 
....................    int1 s; 
....................    #ifdef _ERRNO 
....................    if(x > 88.722838) 
....................    { 
....................       errno=ERANGE; 
....................       return(0); 
....................    } 
....................    #endif 
....................    n = (signed int16)(x/LN2); 
....................    s = 0; 
....................    y = x; 
....................  
....................    if (x < 0) 
....................    { 
....................       s = 1; 
....................       n = -n; 
....................       y = -y; 
....................    } 
....................  
....................    res = 0.0; 
....................  
....................    data1 = n+0x7F; 
....................    if(bit_test(data1,0)) 
....................    bit_set(*(((unsigned int8 *)(&res)+4)),7); 
....................    rotate_right(&data1,1); 
....................    bit_clear(data1,7); 
....................    *(((unsigned int8 *)(&res)+5)) = data1; 
....................  
....................    y = y/LN2 - (float48)n; 
....................  
....................    r = pe[0]*y + pe[1]; 
....................    r = r*y + pe[2]; 
....................    r = r*y + pe[3]; 
....................    r = r*y + pe[4]; 
....................    r = r*y + pe[5]; 
....................  
....................    res = res*(1.0 + y*r); 
....................  
....................    if (s) 
....................       res = 1.0/res; 
....................    return(res); 
.................... } 
....................  
.................... // Overloaded function exp() for data type - Float64 
.................... float64 exp(float64 x) 
.................... { 
....................    float64 y, res, r; 
....................    unsigned int16 data1, data2; 
....................    unsigned int16 *p; 
....................    signed int16 n; 
....................    int1 s; 
....................    #ifdef _ERRNO 
....................    if(x > 709.7827128) 
....................    { 
....................       errno=ERANGE; 
....................       return(0); 
....................    } 
....................    #endif 
....................    n = (signed int16)(x/LN2); 
....................    s = 0; 
....................    y = x; 
....................  
....................    if (x < 0) 
....................    { 
....................       s = 1; 
....................       n = -n; 
....................       y = -y; 
....................    } 
....................  
....................    res = 0.0; 
....................  
.................... #if !defined(__PCD__) 
....................    *((unsigned int16 *)(&res)) = n + 0x7F; 
.................... #endif 
....................    p= (((unsigned int16 *)(&res))+3); 
....................    data1 = *p; 
....................    data2 = *p;    
....................    data1 = n + 0x3FF; 
....................    data1 = data1 <<4; 
....................    if(bit_test(data2,15)) 
....................    bit_set(data1,15); 
....................    data2 = data2 & 0x000F; 
....................    data1 ^= data2; 
....................  
....................    *(((unsigned int16 *)(&res)+3)) = data1; 
....................  
....................  
....................    y = y/LN2 - (float64)n; 
....................  
....................    r = pe[0]*y + pe[1]; 
....................    r = r*y + pe[2]; 
....................    r = r*y + pe[3]; 
....................    r = r*y + pe[4]; 
....................    r = r*y + pe[5]; 
....................  
....................    res = res*(1.0 + y*r); 
....................  
....................    if (s) 
....................       res = 1.0/res; 
....................    return(res); 
.................... } 
....................  
.................... #ENDIF 
....................  
....................  
.................... /************************************************************/ 
....................  
.................... float32 const pl[4] = {0.45145214, -9.0558803, 26.940971, -19.860189}; 
.................... float32 const ql[4] = {1.0000000,  -8.1354259, 16.780517, -9.9300943}; 
....................  
.................... //////////////////////////////////////////////////////////////////////////// 
.................... //   float log(float x) 
.................... //////////////////////////////////////////////////////////////////////////// 
.................... // Description : returns the the natural log of x 
.................... // Date : N/A 
.................... // 
.................... float32 log(float32 x) 
.................... { 
....................    float32 y, res, r, y2; 
....................    #if defined(__PCD__) 
....................    unsigned int8  data1,data2; 
....................    #endif 
....................    signed int8 n; 
....................    #ifdef _ERRNO 
....................    if(x <0) 
....................    { 
....................       errno=EDOM; 
....................    } 
....................    if(x ==0) 
....................    { 
....................       errno=ERANGE; 
....................       return(0); 
....................    } 
....................    #endif 
....................    y = x; 
*
038C4:  MOVFF  646,64A
038C8:  MOVFF  645,649
038CC:  MOVFF  644,648
038D0:  MOVFF  643,647
....................  
....................    if (y != 1.0) 
038D4:  MOVFF  64A,666
038D8:  MOVFF  649,665
038DC:  MOVFF  648,664
038E0:  MOVFF  647,663
038E4:  MOVLB  6
038E6:  CLRF   x6A
038E8:  CLRF   x69
038EA:  CLRF   x68
038EC:  MOVLW  7F
038EE:  MOVWF  x67
038F0:  MOVLB  0
038F2:  CALL   2910
038F6:  BTFSC  FD8.2
038F8:  BRA    3D86
....................    { 
.................... #if !defined(__PCD__) 
....................     *((unsigned int8 *)(&y)) = 0x7E;  
038FA:  MOVLW  06
038FC:  MOVLB  6
038FE:  MOVWF  x59
03900:  MOVLW  47
03902:  MOVWF  FE9
03904:  MOVFF  659,FEA
03908:  MOVLW  7E
0390A:  MOVWF  FEF
.................... #endif 
....................  
.................... #if defined(__PCD__) // Takes care of IEEE format 
....................    data2 = *(((unsigned int8 *)(&y))+3); 
....................    *(((unsigned int8 *)(&y))+3) = 0x3F; 
....................    data1 = *(((unsigned int8 *)(&y))+2); 
....................    bit_clear(data1,7); 
....................    *(((unsigned int8 *)(&y))+2) = data1; 
....................    if(bit_test(data2,7)) 
....................    bit_set(*(((unsigned int8 *)(&y))+3),7); 
.................... #endif 
....................  
....................       y = (y - 1.0)/(y + 1.0); 
0390C:  BSF    FD8.1
0390E:  MOVFF  64A,66A
03912:  MOVFF  649,669
03916:  MOVFF  648,668
0391A:  MOVFF  647,667
0391E:  CLRF   x6E
03920:  CLRF   x6D
03922:  CLRF   x6C
03924:  MOVLW  7F
03926:  MOVWF  x6B
03928:  MOVLB  0
0392A:  CALL   1EF0
0392E:  MOVFF  00,658
03932:  MOVFF  01,659
03936:  MOVFF  02,65A
0393A:  MOVFF  03,65B
0393E:  BCF    FD8.1
03940:  MOVFF  64A,66A
03944:  MOVFF  649,669
03948:  MOVFF  648,668
0394C:  MOVFF  647,667
03950:  MOVLB  6
03952:  CLRF   x6E
03954:  CLRF   x6D
03956:  CLRF   x6C
03958:  MOVLW  7F
0395A:  MOVWF  x6B
0395C:  MOVLB  0
0395E:  CALL   1EF0
03962:  MOVFF  65B,666
03966:  MOVFF  65A,665
0396A:  MOVFF  659,664
0396E:  MOVFF  658,663
03972:  MOVFF  03,66A
03976:  MOVFF  02,669
0397A:  MOVFF  01,668
0397E:  MOVFF  00,667
03982:  CALL   1772
03986:  MOVFF  03,64A
0398A:  MOVFF  02,649
0398E:  MOVFF  01,648
03992:  MOVFF  00,647
....................  
....................       y2=y*y; 
03996:  MOVFF  64A,666
0399A:  MOVFF  649,665
0399E:  MOVFF  648,664
039A2:  MOVFF  647,663
039A6:  MOVFF  64A,66A
039AA:  MOVFF  649,669
039AE:  MOVFF  648,668
039B2:  MOVFF  647,667
039B6:  CALL   18D0
039BA:  MOVFF  03,656
039BE:  MOVFF  02,655
039C2:  MOVFF  01,654
039C6:  MOVFF  00,653
....................  
....................       res = pl[0]*y2 + pl[1]; 
039CA:  MOVLW  BC
039CC:  MOVLB  6
039CE:  MOVWF  x66
039D0:  MOVLW  24
039D2:  MOVWF  x65
039D4:  MOVLW  67
039D6:  MOVWF  x64
039D8:  MOVLW  7D
039DA:  MOVWF  x63
039DC:  MOVFF  656,66A
039E0:  MOVFF  655,669
039E4:  MOVFF  654,668
039E8:  MOVFF  653,667
039EC:  MOVLB  0
039EE:  CALL   18D0
039F2:  MOVFF  00,658
039F6:  MOVFF  01,659
039FA:  MOVFF  02,65A
039FE:  MOVFF  03,65B
03A02:  BCF    FD8.1
03A04:  MOVFF  03,66A
03A08:  MOVFF  02,669
03A0C:  MOVFF  01,668
03A10:  MOVFF  00,667
03A14:  MOVLW  E3
03A16:  MOVLB  6
03A18:  MOVWF  x6E
03A1A:  MOVLW  E4
03A1C:  MOVWF  x6D
03A1E:  MOVLW  90
03A20:  MOVWF  x6C
03A22:  MOVLW  82
03A24:  MOVWF  x6B
03A26:  MOVLB  0
03A28:  CALL   1EF0
03A2C:  MOVFF  03,64E
03A30:  MOVFF  02,64D
03A34:  MOVFF  01,64C
03A38:  MOVFF  00,64B
....................       res = res*y2 + pl[2]; 
03A3C:  MOVFF  64E,666
03A40:  MOVFF  64D,665
03A44:  MOVFF  64C,664
03A48:  MOVFF  64B,663
03A4C:  MOVFF  656,66A
03A50:  MOVFF  655,669
03A54:  MOVFF  654,668
03A58:  MOVFF  653,667
03A5C:  CALL   18D0
03A60:  MOVFF  00,658
03A64:  MOVFF  01,659
03A68:  MOVFF  02,65A
03A6C:  MOVFF  03,65B
03A70:  BCF    FD8.1
03A72:  MOVFF  03,66A
03A76:  MOVFF  02,669
03A7A:  MOVFF  01,668
03A7E:  MOVFF  00,667
03A82:  MOVLW  1C
03A84:  MOVLB  6
03A86:  MOVWF  x6E
03A88:  MOVLW  87
03A8A:  MOVWF  x6D
03A8C:  MOVLW  57
03A8E:  MOVWF  x6C
03A90:  MOVLW  83
03A92:  MOVWF  x6B
03A94:  MOVLB  0
03A96:  CALL   1EF0
03A9A:  MOVFF  03,64E
03A9E:  MOVFF  02,64D
03AA2:  MOVFF  01,64C
03AA6:  MOVFF  00,64B
....................       res = res*y2 + pl[3]; 
03AAA:  MOVFF  64E,666
03AAE:  MOVFF  64D,665
03AB2:  MOVFF  64C,664
03AB6:  MOVFF  64B,663
03ABA:  MOVFF  656,66A
03ABE:  MOVFF  655,669
03AC2:  MOVFF  654,668
03AC6:  MOVFF  653,667
03ACA:  CALL   18D0
03ACE:  MOVFF  00,658
03AD2:  MOVFF  01,659
03AD6:  MOVFF  02,65A
03ADA:  MOVFF  03,65B
03ADE:  BCF    FD8.1
03AE0:  MOVFF  03,66A
03AE4:  MOVFF  02,669
03AE8:  MOVFF  01,668
03AEC:  MOVFF  00,667
03AF0:  MOVLW  AB
03AF2:  MOVLB  6
03AF4:  MOVWF  x6E
03AF6:  MOVLW  E1
03AF8:  MOVWF  x6D
03AFA:  MOVLW  9E
03AFC:  MOVWF  x6C
03AFE:  MOVLW  83
03B00:  MOVWF  x6B
03B02:  MOVLB  0
03B04:  CALL   1EF0
03B08:  MOVFF  03,64E
03B0C:  MOVFF  02,64D
03B10:  MOVFF  01,64C
03B14:  MOVFF  00,64B
....................  
....................       r = ql[0]*y2 + ql[1]; 
03B18:  MOVLB  6
03B1A:  CLRF   x66
03B1C:  CLRF   x65
03B1E:  CLRF   x64
03B20:  MOVLW  7F
03B22:  MOVWF  x63
03B24:  MOVFF  656,66A
03B28:  MOVFF  655,669
03B2C:  MOVFF  654,668
03B30:  MOVFF  653,667
03B34:  MOVLB  0
03B36:  CALL   18D0
03B3A:  MOVFF  00,658
03B3E:  MOVFF  01,659
03B42:  MOVFF  02,65A
03B46:  MOVFF  03,65B
03B4A:  BCF    FD8.1
03B4C:  MOVFF  03,66A
03B50:  MOVFF  02,669
03B54:  MOVFF  01,668
03B58:  MOVFF  00,667
03B5C:  MOVLW  B4
03B5E:  MOVLB  6
03B60:  MOVWF  x6E
03B62:  MOVLW  2A
03B64:  MOVWF  x6D
03B66:  MOVLW  82
03B68:  MOVWF  x6C
03B6A:  MOVWF  x6B
03B6C:  MOVLB  0
03B6E:  CALL   1EF0
03B72:  MOVFF  03,652
03B76:  MOVFF  02,651
03B7A:  MOVFF  01,650
03B7E:  MOVFF  00,64F
....................       r = r*y2 + ql[2]; 
03B82:  MOVFF  652,666
03B86:  MOVFF  651,665
03B8A:  MOVFF  650,664
03B8E:  MOVFF  64F,663
03B92:  MOVFF  656,66A
03B96:  MOVFF  655,669
03B9A:  MOVFF  654,668
03B9E:  MOVFF  653,667
03BA2:  CALL   18D0
03BA6:  MOVFF  00,658
03BAA:  MOVFF  01,659
03BAE:  MOVFF  02,65A
03BB2:  MOVFF  03,65B
03BB6:  BCF    FD8.1
03BB8:  MOVFF  03,66A
03BBC:  MOVFF  02,669
03BC0:  MOVFF  01,668
03BC4:  MOVFF  00,667
03BC8:  MOVLW  80
03BCA:  MOVLB  6
03BCC:  MOVWF  x6E
03BCE:  MOVLW  3E
03BD0:  MOVWF  x6D
03BD2:  MOVLW  06
03BD4:  MOVWF  x6C
03BD6:  MOVLW  83
03BD8:  MOVWF  x6B
03BDA:  MOVLB  0
03BDC:  CALL   1EF0
03BE0:  MOVFF  03,652
03BE4:  MOVFF  02,651
03BE8:  MOVFF  01,650
03BEC:  MOVFF  00,64F
....................       r = r*y2 + ql[3]; 
03BF0:  MOVFF  652,666
03BF4:  MOVFF  651,665
03BF8:  MOVFF  650,664
03BFC:  MOVFF  64F,663
03C00:  MOVFF  656,66A
03C04:  MOVFF  655,669
03C08:  MOVFF  654,668
03C0C:  MOVFF  653,667
03C10:  CALL   18D0
03C14:  MOVFF  00,658
03C18:  MOVFF  01,659
03C1C:  MOVFF  02,65A
03C20:  MOVFF  03,65B
03C24:  BCF    FD8.1
03C26:  MOVFF  03,66A
03C2A:  MOVFF  02,669
03C2E:  MOVFF  01,668
03C32:  MOVFF  00,667
03C36:  MOVLW  AB
03C38:  MOVLB  6
03C3A:  MOVWF  x6E
03C3C:  MOVLW  E1
03C3E:  MOVWF  x6D
03C40:  MOVLW  9E
03C42:  MOVWF  x6C
03C44:  MOVLW  82
03C46:  MOVWF  x6B
03C48:  MOVLB  0
03C4A:  CALL   1EF0
03C4E:  MOVFF  03,652
03C52:  MOVFF  02,651
03C56:  MOVFF  01,650
03C5A:  MOVFF  00,64F
....................  
....................       res = y*res/r; 
03C5E:  MOVFF  64A,666
03C62:  MOVFF  649,665
03C66:  MOVFF  648,664
03C6A:  MOVFF  647,663
03C6E:  MOVFF  64E,66A
03C72:  MOVFF  64D,669
03C76:  MOVFF  64C,668
03C7A:  MOVFF  64B,667
03C7E:  CALL   18D0
03C82:  MOVFF  00,658
03C86:  MOVFF  01,659
03C8A:  MOVFF  02,65A
03C8E:  MOVFF  03,65B
03C92:  MOVFF  03,666
03C96:  MOVFF  02,665
03C9A:  MOVFF  01,664
03C9E:  MOVFF  00,663
03CA2:  MOVFF  652,66A
03CA6:  MOVFF  651,669
03CAA:  MOVFF  650,668
03CAE:  MOVFF  64F,667
03CB2:  CALL   1772
03CB6:  MOVFF  03,64E
03CBA:  MOVFF  02,64D
03CBE:  MOVFF  01,64C
03CC2:  MOVFF  00,64B
.................... #if !defined(__PCD__) 
....................       n = *((unsigned int8 *)(&x)) - 0x7E; 
03CC6:  MOVLW  06
03CC8:  MOVLB  6
03CCA:  MOVWF  x59
03CCC:  MOVLW  43
03CCE:  MOVWF  FE9
03CD0:  MOVFF  659,FEA
03CD4:  MOVLW  7E
03CD6:  SUBWF  FEF,W
03CD8:  MOVWF  x57
.................... #endif 
.................... #if defined(__PCD__)  
....................     data1 = *(((unsigned int8 *)(&x)+3)); 
....................     rotate_left(&data1,1); 
....................     data2 = *(((unsigned int8 *)(&x)+2)); 
....................     if(bit_test (data2,7)) 
....................       bit_set(data1,0); 
....................     n = data1 - 0x7E; 
.................... #endif 
....................  
....................       if (n<0)  
03CDA:  BTFSC  x57.7
03CDC:  BRA    3CE0
03CDE:  BRA    3D08
....................          r = -(float32)-n; 
03CE0:  MOVLW  00
03CE2:  BSF    FD8.0
03CE4:  SUBFWB x57,W
03CE6:  CLRF   x5A
03CE8:  MOVWF  x59
03CEA:  BTFSC  x59.7
03CEC:  DECF   x5A,F
03CEE:  MOVLB  0
03CF0:  RCALL  3874
03CF2:  MOVFF  00,64F
03CF6:  MOVF   01,W
03CF8:  XORLW  80
03CFA:  MOVLB  6
03CFC:  MOVWF  x50
03CFE:  MOVFF  02,651
03D02:  MOVFF  03,652
....................       else 
03D06:  BRA    3D28
....................          r = (float32)n; 
03D08:  CLRF   x5A
03D0A:  MOVFF  657,659
03D0E:  BTFSC  x59.7
03D10:  DECF   x5A,F
03D12:  MOVLB  0
03D14:  RCALL  3874
03D16:  MOVFF  03,652
03D1A:  MOVFF  02,651
03D1E:  MOVFF  01,650
03D22:  MOVFF  00,64F
03D26:  MOVLB  6
....................  
....................       res += r*LN2; 
03D28:  MOVFF  652,666
03D2C:  MOVFF  651,665
03D30:  MOVFF  650,664
03D34:  MOVFF  64F,663
03D38:  MOVLW  18
03D3A:  MOVWF  x6A
03D3C:  MOVLW  72
03D3E:  MOVWF  x69
03D40:  MOVLW  31
03D42:  MOVWF  x68
03D44:  MOVLW  7E
03D46:  MOVWF  x67
03D48:  MOVLB  0
03D4A:  CALL   18D0
03D4E:  BCF    FD8.1
03D50:  MOVFF  64E,66A
03D54:  MOVFF  64D,669
03D58:  MOVFF  64C,668
03D5C:  MOVFF  64B,667
03D60:  MOVFF  03,66E
03D64:  MOVFF  02,66D
03D68:  MOVFF  01,66C
03D6C:  MOVFF  00,66B
03D70:  CALL   1EF0
03D74:  MOVFF  03,64E
03D78:  MOVFF  02,64D
03D7C:  MOVFF  01,64C
03D80:  MOVFF  00,64B
....................    } 
....................  
....................    else 
03D84:  BRA    3D92
....................       res = 0.0; 
03D86:  MOVLB  6
03D88:  CLRF   x4E
03D8A:  CLRF   x4D
03D8C:  CLRF   x4C
03D8E:  CLRF   x4B
03D90:  MOVLB  0
....................  
....................    return(res); 
03D92:  MOVFF  64B,00
03D96:  MOVFF  64C,01
03D9A:  MOVFF  64D,02
03D9E:  MOVFF  64E,03
.................... } 
03DA2:  RETLW  00
....................  
.................... //Overloaded function for log() for PCD 
.................... // Overloaded function log() for data type - Float48 
.................... #if defined(__PCD__) 
.................... float48 log(float48 x) 
.................... { 
....................    float48 y, res, r, y2; 
....................    unsigned int8  data1,data2; 
....................    signed int8 n; 
....................    #ifdef _ERRNO 
....................    if(x <0) 
....................    { 
....................       errno=EDOM; 
....................    } 
....................    if(x ==0) 
....................    { 
....................       errno=ERANGE; 
....................       return(0); 
....................    } 
....................    #endif 
....................    y = x; 
....................  
....................    if (y != 1.0) 
....................    { 
....................     
....................    #if !defined(__PCD__) 
....................        *((unsigned int8 *)(&y)) = 0x7E;  
....................    #endif 
....................       data2 = *(((unsigned int8 *)(&y))+5); 
....................       *(((unsigned int8 *)(&y))+5) = 0x3F; 
....................       data1 = *(((unsigned int8 *)(&y))+4); 
....................       bit_clear(data1,7); 
....................       *(((unsigned int8 *)(&y))+4) = data1; 
....................    
....................       if(bit_test(data2,7)) 
....................          bit_set(*(((unsigned int8 *)(&y))+4),7); 
....................       y = (y - 1.0)/(y + 1.0); 
....................  
....................       y2=y*y; 
....................  
....................       res = pl[0]*y2 + pl[1]; 
....................       res = res*y2 + pl[2]; 
....................       res = res*y2 + pl[3]; 
....................  
....................       r = ql[0]*y2 + ql[1]; 
....................       r = r*y2 + ql[2]; 
....................       r = r*y2 + ql[3]; 
....................  
....................       res = y*res/r; 
....................  
....................     data1 = *(((unsigned int8 *)(&x)+5)); 
....................     rotate_left(&data1,1); 
....................     data2 = *(((unsigned int8 *)(&x)+4)); 
....................     if(bit_test (data2,7)) 
....................        bit_set(data1,0); 
....................       
....................     n = data1 - 0x7E; 
....................  
....................       if (n<0) 
....................          r = -(float48)-n; 
....................       else 
....................          r = (float48)n; 
....................  
....................       res += r*LN2; 
....................    } 
....................  
....................    else 
....................       res = 0.0; 
....................  
....................    return(res); 
.................... } 
....................  
.................... // Overloaded function log() for data type - Float48 
.................... #if defined(__PCD__) 
.................... float32 const pl_64[4] = {0.45145214, -9.0558803, 26.940971, -19.860189}; 
.................... float32 const ql_64[4] = {1.0000000,  -8.1354259, 16.780517, -9.9300943}; 
.................... #endif 
.................... float64 log(float64 x) 
.................... { 
....................    float64 y, res, r, y2; 
....................    unsigned int16  data1,data2; 
....................    unsigned int16 *p; 
....................    signed int16 n; 
....................    #ifdef _ERRNO 
....................    if(x <0) 
....................    { 
....................       errno=EDOM; 
....................    } 
....................    if(x ==0) 
....................    { 
....................       errno=ERANGE; 
....................       return(0); 
....................    } 
....................    #endif 
....................    y = x; 
....................  
....................    if (y != 1.0) 
....................    { 
....................    #if !defined(__PCD__) 
....................        *((unsigned int8 *)(&y)) = 0x7E;  
....................    #endif 
....................       p= (((unsigned int16 *)(&y))+3); 
....................       data1 = *p; 
....................       data2 = *p; 
....................       data1 = 0x3FE; 
....................       data1 = data1 <<4; 
....................       if(bit_test (data2,15)) 
....................       bit_set(data1,15); 
....................       data2 = data2 & 0x000F; 
....................       data1 ^=data2; 
....................  
....................       *p = data1; 
....................  
....................       y = (y - 1.0)/(y + 1.0); 
....................  
....................       y2=y*y; 
....................  
....................       res = pl_64[0]*y2 + pl_64[1]; 
....................       res = res*y2 + pl_64[2]; 
....................       res = res*y2 + pl_64[3]; 
....................  
....................       r = ql_64[0]*y2 + ql_64[1]; 
....................       r = r*y2 + ql_64[2]; 
....................       r = r*y2 + ql_64[3]; 
....................  
....................       res = y*res/r; 
....................   
....................       p= (((unsigned int16 *)(&x))+3); 
....................       data1 = *p; 
....................       bit_clear(data1,15); 
....................       data1 = data1 >>4;     
....................       n = data1 - 0x3FE; 
....................  
....................  
....................       if (n<0) 
....................          r = -(float64)-n; 
....................       else 
....................          r = (float64)n; 
....................  
....................       res += r*LN2; 
....................    } 
....................  
....................    else 
....................       res = 0.0; 
....................  
....................    return(res); 
.................... } 
.................... #endif 
....................  
....................  
.................... #define LN10 2.3025850929940456 
....................  
.................... //////////////////////////////////////////////////////////////////////////// 
.................... //   float log10(float x) 
.................... //////////////////////////////////////////////////////////////////////////// 
.................... // Description : returns the the log base 10 of x 
.................... // Date : N/A 
.................... // 
.................... float32 log10(float32 x) 
.................... { 
....................    float32 r; 
....................  
....................    r = log(x); 
....................    r = r/LN10; 
....................    return(r); 
.................... } 
....................  
.................... //Overloaded functions for log10() for PCD 
.................... // Overloaded function log10() for data type - Float48 
.................... #if defined(__PCD__) 
.................... float48 log10(float48 x) 
.................... { 
....................    float48 r; 
....................  
....................    r = log(x); 
....................    r = r/LN10; 
....................    return(r); 
.................... } 
....................  
.................... // Overloaded function log10() for data type - Float64 
.................... float64 log10(float64 x) 
.................... { 
....................    float64 r; 
....................  
....................    r = log(x); 
....................    r = r/LN10; 
....................    return(r); 
.................... } 
.................... #endif 
.................... //////////////////////////////////////////////////////////////////////////// 
.................... //   float modf(float x) 
.................... //////////////////////////////////////////////////////////////////////////// 
.................... // Description :breaks the argument value int integral and fractional parts, 
.................... // ach of which have the same sign as the argument.  It stores the integral part 
.................... // as a float in the object pointed to by the iptr 
.................... // Returns : returns the signed fractional part of value. 
.................... // Date : N/A 
.................... // 
....................  
.................... float32 modf(float32 value,float32 *iptr) 
.................... { 
....................    *iptr=(value < 0.0)? ceil(value): floor(value); 
....................    return(value - *iptr); 
.................... } 
.................... //Overloaded functions for modf() for PCD 
.................... // Overloaded function modf() for data type - Float48 
.................... #if defined(__PCD__) 
.................... float48 modf(float48 value,float48 *iptr) 
.................... { 
....................    *iptr=(value < 0.0)? ceil(value): floor(value); 
....................    return(value - *iptr); 
.................... } 
.................... // Overloaded function modf() for data type - Float64 
.................... float64 modf(float64 value,float64 *iptr) 
.................... { 
....................    *iptr=(value < 0.0)? ceil(value): floor(value); 
....................    return(value - *iptr); 
.................... } 
.................... #endif 
....................  
.................... //////////////////////////////////////////////////////////////////////////// 
.................... //   float pwr(float x,float y) 
.................... //////////////////////////////////////////////////////////////////////////// 
.................... // Description : returns the value (x^y) 
.................... // Date : N/A 
.................... // Note : 0 is returned when the function will generate an imaginary number 
.................... // 
.................... float32 pwr(float32 x,float32 y) 
.................... { 
....................    if(0 > x && fmod(y, 1) == 0) { 
....................       if(fmod(y, 2) == 0) { 
....................          return (exp(log(-x) * y)); 
....................       } else { 
....................          return (-exp(log(-x) * y)); 
....................       } 
....................    } else if(0 > x && fmod(y, 1) != 0) { 
....................       return 0; 
....................    } else { 
....................       if(x != 0 || 0 >= y) { 
....................          return (exp(log(x) * y)); 
....................       } 
....................    } 
.................... } 
.................... //Overloaded functions for pwr() for PCD 
.................... // Overloaded function pwr() for data type - Float48 
.................... #if defined(__PCD__) 
.................... float48 pwr(float48 x,float48 y) 
.................... { 
....................    if(0 > x && fmod(y, 1) == 0) { 
....................       if(fmod(y, 2) == 0) { 
....................          return (exp(log(-x) * y)); 
....................       } else { 
....................          return (-exp(log(-x) * y)); 
....................       } 
....................    } else if(0 > x && fmod(y, 1) != 0) { 
....................       return 0; 
....................    } else { 
....................       if(x != 0 || 0 >= y) { 
....................          return (exp(log(x) * y)); 
....................       } 
....................    } 
.................... } 
.................... // Overloaded function pwr() for data type - Float64 
.................... float64 pwr(float64 x,float64 y) 
.................... { 
....................    if(0 > x && fmod(y, 1) == 0) { 
....................       if(fmod(y, 2) == 0) { 
....................          return (exp(log(-x) * y)); 
....................       } else { 
....................          return (-exp(log(-x) * y)); 
....................       } 
....................    } else if(0 > x && fmod(y, 1) != 0) { 
....................       return 0; 
....................    } else { 
....................       if(x != 0 || 0 >= y) { 
....................          return (exp(log(x) * y)); 
....................       } 
....................    } 
.................... } 
.................... #endif 
....................  
.................... //////////////////// Power functions //////////////////// 
....................  
.................... //////////////////////////////////////////////////////////////////////////// 
.................... //   float pow(float x,float y) 
.................... //////////////////////////////////////////////////////////////////////////// 
.................... // Description : returns the value (x^y) 
.................... // Date : N/A 
.................... // Note : 0 is returned when the function will generate an imaginary number 
.................... // 
.................... float32 pow(float32 x,float32 y) 
.................... { 
....................    if(0 > x && fmod(y, 1) == 0) { 
*
041AE:  MOVFF  63A,666
041B2:  MOVFF  639,665
041B6:  MOVFF  638,664
041BA:  MOVFF  637,663
041BE:  MOVLB  6
041C0:  CLRF   x6A
041C2:  CLRF   x69
041C4:  CLRF   x68
041C6:  CLRF   x67
041C8:  MOVLB  0
041CA:  CALL   2910
041CE:  BTFSS  FD8.0
041D0:  BRA    4384
041D2:  MOVFF  63E,642
041D6:  MOVFF  63D,641
041DA:  MOVFF  63C,640
041DE:  MOVFF  63B,63F
041E2:  MOVLB  6
041E4:  CLRF   x46
041E6:  CLRF   x45
041E8:  CLRF   x44
041EA:  MOVLW  7F
041EC:  MOVWF  x43
041EE:  MOVLB  0
041F0:  CALL   370C
041F4:  MOVFF  00,63F
041F8:  MOVFF  01,640
041FC:  MOVFF  02,641
04200:  MOVFF  03,642
04204:  MOVFF  03,666
04208:  MOVFF  02,665
0420C:  MOVFF  01,664
04210:  MOVFF  00,663
04214:  MOVLB  6
04216:  CLRF   x6A
04218:  CLRF   x69
0421A:  CLRF   x68
0421C:  CLRF   x67
0421E:  MOVLB  0
04220:  CALL   2910
04224:  BTFSS  FD8.2
04226:  BRA    4384
....................       if(fmod(y, 2) == 0) { 
04228:  MOVFF  63E,642
0422C:  MOVFF  63D,641
04230:  MOVFF  63C,640
04234:  MOVFF  63B,63F
04238:  MOVLB  6
0423A:  CLRF   x46
0423C:  CLRF   x45
0423E:  CLRF   x44
04240:  MOVLW  80
04242:  MOVWF  x43
04244:  MOVLB  0
04246:  CALL   370C
0424A:  MOVFF  00,63F
0424E:  MOVFF  01,640
04252:  MOVFF  02,641
04256:  MOVFF  03,642
0425A:  MOVFF  03,666
0425E:  MOVFF  02,665
04262:  MOVFF  01,664
04266:  MOVFF  00,663
0426A:  MOVLB  6
0426C:  CLRF   x6A
0426E:  CLRF   x69
04270:  CLRF   x68
04272:  CLRF   x67
04274:  MOVLB  0
04276:  CALL   2910
0427A:  BNZ   42FE
....................          return (exp(log(-x) * y)); 
0427C:  MOVFF  637,63F
04280:  MOVLB  6
04282:  MOVF   x38,W
04284:  XORLW  80
04286:  MOVWF  x40
04288:  MOVFF  639,641
0428C:  MOVFF  63A,642
04290:  MOVFF  63A,646
04294:  MOVFF  639,645
04298:  MOVWF  x44
0429A:  MOVFF  637,643
0429E:  MOVLB  0
042A0:  CALL   38C4
042A4:  MOVFF  00,63F
042A8:  MOVFF  01,640
042AC:  MOVFF  02,641
042B0:  MOVFF  03,642
042B4:  MOVFF  03,666
042B8:  MOVFF  02,665
042BC:  MOVFF  01,664
042C0:  MOVFF  00,663
042C4:  MOVFF  63E,66A
042C8:  MOVFF  63D,669
042CC:  MOVFF  63C,668
042D0:  MOVFF  63B,667
042D4:  CALL   18D0
042D8:  MOVFF  00,63F
042DC:  MOVFF  01,640
042E0:  MOVFF  02,641
042E4:  MOVFF  03,642
042E8:  MOVFF  03,646
042EC:  MOVFF  02,645
042F0:  MOVFF  01,644
042F4:  MOVFF  00,643
042F8:  RCALL  3DA4
042FA:  BRA    44B8
....................       } else { 
042FC:  BRA    4382
....................          return (-exp(log(-x) * y)); 
042FE:  MOVFF  637,63F
04302:  MOVLB  6
04304:  MOVF   x38,W
04306:  XORLW  80
04308:  MOVWF  x40
0430A:  MOVFF  639,641
0430E:  MOVFF  63A,642
04312:  MOVFF  63A,646
04316:  MOVFF  639,645
0431A:  MOVWF  x44
0431C:  MOVFF  637,643
04320:  MOVLB  0
04322:  CALL   38C4
04326:  MOVFF  00,63F
0432A:  MOVFF  01,640
0432E:  MOVFF  02,641
04332:  MOVFF  03,642
04336:  MOVFF  03,666
0433A:  MOVFF  02,665
0433E:  MOVFF  01,664
04342:  MOVFF  00,663
04346:  MOVFF  63E,66A
0434A:  MOVFF  63D,669
0434E:  MOVFF  63C,668
04352:  MOVFF  63B,667
04356:  CALL   18D0
0435A:  MOVFF  00,63F
0435E:  MOVFF  01,640
04362:  MOVFF  02,641
04366:  MOVFF  03,642
0436A:  MOVFF  03,646
0436E:  MOVFF  02,645
04372:  MOVFF  01,644
04376:  MOVFF  00,643
0437A:  RCALL  3DA4
0437C:  MOVLW  80
0437E:  XORWF  01,F
04380:  BRA    44B8
....................       } 
....................    } else if(0 > x && fmod(y, 1) != 0) { 
04382:  BRA    44B8
04384:  MOVFF  63A,666
04388:  MOVFF  639,665
0438C:  MOVFF  638,664
04390:  MOVFF  637,663
04394:  MOVLB  6
04396:  CLRF   x6A
04398:  CLRF   x69
0439A:  CLRF   x68
0439C:  CLRF   x67
0439E:  MOVLB  0
043A0:  CALL   2910
043A4:  BNC   4406
043A6:  MOVFF  63E,642
043AA:  MOVFF  63D,641
043AE:  MOVFF  63C,640
043B2:  MOVFF  63B,63F
043B6:  MOVLB  6
043B8:  CLRF   x46
043BA:  CLRF   x45
043BC:  CLRF   x44
043BE:  MOVLW  7F
043C0:  MOVWF  x43
043C2:  MOVLB  0
043C4:  CALL   370C
043C8:  MOVFF  00,63F
043CC:  MOVFF  01,640
043D0:  MOVFF  02,641
043D4:  MOVFF  03,642
043D8:  MOVFF  03,666
043DC:  MOVFF  02,665
043E0:  MOVFF  01,664
043E4:  MOVFF  00,663
043E8:  MOVLB  6
043EA:  CLRF   x6A
043EC:  CLRF   x69
043EE:  CLRF   x68
043F0:  CLRF   x67
043F2:  MOVLB  0
043F4:  CALL   2910
043F8:  BZ    4406
....................       return 0; 
043FA:  CLRF   00
043FC:  CLRF   01
043FE:  CLRF   02
04400:  CLRF   03
04402:  BRA    44B8
....................    } else { 
04404:  BRA    44B8
....................       if(x != 0 || 0 >= y) { 
04406:  MOVFF  63A,666
0440A:  MOVFF  639,665
0440E:  MOVFF  638,664
04412:  MOVFF  637,663
04416:  MOVLB  6
04418:  CLRF   x6A
0441A:  CLRF   x69
0441C:  CLRF   x68
0441E:  CLRF   x67
04420:  MOVLB  0
04422:  CALL   2910
04426:  BNZ   444C
04428:  MOVFF  63E,666
0442C:  MOVFF  63D,665
04430:  MOVFF  63C,664
04434:  MOVFF  63B,663
04438:  MOVLB  6
0443A:  CLRF   x6A
0443C:  CLRF   x69
0443E:  CLRF   x68
04440:  CLRF   x67
04442:  MOVLB  0
04444:  CALL   2910
04448:  BC    444C
0444A:  BNZ   44B8
....................          return (exp(log(x) * y)); 
0444C:  MOVFF  63A,646
04450:  MOVFF  639,645
04454:  MOVFF  638,644
04458:  MOVFF  637,643
0445C:  CALL   38C4
04460:  MOVFF  00,63F
04464:  MOVFF  01,640
04468:  MOVFF  02,641
0446C:  MOVFF  03,642
04470:  MOVFF  03,666
04474:  MOVFF  02,665
04478:  MOVFF  01,664
0447C:  MOVFF  00,663
04480:  MOVFF  63E,66A
04484:  MOVFF  63D,669
04488:  MOVFF  63C,668
0448C:  MOVFF  63B,667
04490:  CALL   18D0
04494:  MOVFF  00,63F
04498:  MOVFF  01,640
0449C:  MOVFF  02,641
044A0:  MOVFF  03,642
044A4:  MOVFF  03,646
044A8:  MOVFF  02,645
044AC:  MOVFF  01,644
044B0:  MOVFF  00,643
044B4:  RCALL  3DA4
044B6:  BRA    44B8
....................       } 
....................    } 
.................... } 
044B8:  RETLW  00
.................... //Overloaded functions for pow() for PCD 
.................... // Overloaded function for pow() data type - Float48 
.................... #if defined(__PCD__) 
.................... float48 pow(float48 x,float48 y) 
.................... { 
....................    if(0 > x && fmod(y, 1) == 0) { 
....................       if(fmod(y, 2) == 0) { 
....................          return (exp(log(-x) * y)); 
....................       } else { 
....................          return (-exp(log(-x) * y)); 
....................       } 
....................    } else if(0 > x && fmod(y, 1) != 0) { 
....................       return 0; 
....................    } else { 
....................       if(x != 0 || 0 >= y) { 
....................          return (exp(log(x) * y)); 
....................       } 
....................    } 
.................... } 
....................  
.................... // Overloaded function pow() for data type - Float64 
.................... float64 pow(float64 x,float64 y) 
.................... { 
....................    if(0 > x && fmod(y, 1) == 0) { 
....................       if(fmod(y, 2) == 0) { 
....................          return (exp(log(-x) * y)); 
....................       } else { 
....................          return (-exp(log(-x) * y)); 
....................       } 
....................    } else if(0 > x && fmod(y, 1) != 0) { 
....................       return 0; 
....................    } else { 
....................       if(x != 0 || 0 >= y) { 
....................          return (exp(log(x) * y)); 
....................       } 
....................    } 
.................... } 
.................... #endif 
....................  
.................... //////////////////////////////////////////////////////////////////////////// 
.................... //   float sqrt(float x) 
.................... //////////////////////////////////////////////////////////////////////////// 
.................... // Description : returns the square root of x 
.................... // Date : N/A 
.................... // 
.................... float32 sqrt(float32 x) 
.................... { 
....................    float32 y, res; 
....................    #if defined(__PCD__) 
....................    unsigned int16 data1,data2; 
....................    #endif 
....................    BYTE *p; 
....................  
....................    #ifdef _ERRNO 
....................    if(x < 0) 
....................    { 
....................       errno=EDOM; 
....................    } 
....................    #endif 
....................  
....................    if( x<=0.0) 
....................       return(0.0); 
....................  
....................    y=x; 
....................     
....................    #if !defined(__PCD__) 
....................     p=&y; 
....................    (*p)=(BYTE)((((unsigned int16)(*p)) + 127) >> 1); 
....................    #endif 
....................     
....................    #if defined(__PCD__) 
....................     p = (((unsigned int8 *)(&y))+3); 
....................     data1 = *(((unsigned int8 *)(&y))+3); 
....................     data2 = *(((unsigned int8 *)(&y))+2); 
....................     rotate_left(&data1,1);     
....................     if(bit_test(data2,7))     
....................     bit_set(data1,0);     
....................     data1 = ((data1+127) >>1); 
....................     bit_clear(data2,7); 
....................     if(bit_test(data1,0)) 
....................     bit_set(data2,7); 
....................     data1 = data1 >>1; 
....................     *(((unsigned int8 *)(&y))+3) = data1; 
....................     *(((unsigned int8 *)(&y))+2) = data2; 
....................      
....................   #endif 
....................  
....................    do { 
....................       res=y; 
....................       y+=(x/y); 
....................  
....................       #if !defined(__PCD__) 
....................      (*p)--; 
....................    #endif 
....................     
....................    #if defined(__PCD__) 
....................     data1 = *(((unsigned int8 *)(&y))+3); 
....................     data2 = *(((unsigned int8 *)(&y))+2); 
....................     rotate_left(&data1,1); 
....................     if(bit_test(data2,7)) 
....................     bit_set(data1,0);     
....................     data1--; 
....................     bit_clear(data2,7); 
....................     if(bit_test(data1,0)) 
....................     bit_set(data2,7); 
....................     data1 = data1 >>1; 
....................     *(((unsigned int8 *)(&y))+3) = data1; 
....................     *(((unsigned int8 *)(&y))+2) = data2; 
....................      
....................   #endif 
....................    } while(res != y); 
....................  
....................    return(res); 
.................... } 
.................... //Overloaded functions for sqrt() for PCD 
.................... // Overloaded function sqrt() for data type - Float48 
.................... #if defined(__PCD__) 
.................... float48 sqrt(float48 x) 
.................... { 
....................    float48 y, res; 
....................    unsigned int16 data1,data2; 
....................    BYTE *p; 
....................  
....................    #ifdef _ERRNO 
....................    if(x < 0) 
....................    { 
....................       errno=EDOM; 
....................    } 
....................    #endif 
....................  
....................    if( x<=0.0) 
....................       return(0.0); 
....................  
....................    y=x; 
....................     
....................    #if !defined(__PCD__) 
....................     p=&y; 
....................    (*p)=(BYTE)((((unsigned int16)(*p)) + 127) >> 1); 
....................    #endif 
....................     
....................    #if defined(__PCD__) 
....................     p = (((unsigned int8 *)(&y))+5); 
....................     data1 = *(((unsigned int8 *)(&y))+5); 
....................     data2 = *(((unsigned int8 *)(&y))+4); 
....................     rotate_left(&data1,1); 
....................     if(bit_test(data2,7)) 
....................     bit_set(data1,0);     
....................     data1 = ((data1+127) >>1); 
....................     bit_clear(data2,7); 
....................     if(bit_test(data1,0)) 
....................     bit_set(data2,7); 
....................     data1 = data1 >>1; 
....................     *(((unsigned int8 *)(&y))+5) = data1; 
....................     *(((unsigned int8 *)(&y))+4) = data2; 
....................      
....................   #endif 
....................  
....................    do { 
....................       res=y; 
....................       y+=(x/y); 
....................  
....................       #if !defined(__PCD__) 
....................      (*p)--; 
....................    #endif 
....................     
....................     data1 = *(((unsigned int8 *)(&y))+5); 
....................     data2 = *(((unsigned int8 *)(&y))+4); 
....................     rotate_left(&data1,1); 
....................     if(bit_test(data2,7)) 
....................     bit_set(data1,0);     
....................     data1--; 
....................     bit_clear(data2,7); 
....................     if(bit_test(data1,0)) 
....................     bit_set(data2,7); 
....................     data1 = data1 >>1; 
....................     *(((unsigned int8 *)(&y))+5) = data1; 
....................     *(((unsigned int8 *)(&y))+4) = data2; 
....................      
....................    } while(res != y); 
....................  
....................    return(res); 
.................... } 
....................  
.................... // Overloaded function sqrt() for data type - Float64 
.................... float64 sqrt(float64 x) 
.................... { 
....................    float64 y, res; 
....................    unsigned int16 *p; 
....................    unsigned int16 temp1,temp2; 
....................  
....................    #ifdef _ERRNO 
....................    if(x < 0) 
....................    { 
....................       errno=EDOM; 
....................    } 
....................    #endif 
....................  
....................    if( x<=0.0) 
....................       return(0.0); 
....................  
....................    y=x; 
....................    p= (((unsigned int16 *)(&y))+3); 
....................    temp1 = *p; 
....................    temp2 = *p; 
....................    bit_clear(temp1,15); 
....................    temp1 = (temp1>>4)+1023; 
....................    temp1 = temp1 >> 1; 
....................    temp1 = (temp1<<4) & 0xFFF0; 
....................    if(bit_test(temp2,15)) 
....................    bit_set(temp1,15); 
....................    temp2 = temp2 & 0x000F; 
....................    temp1 ^= temp2; 
....................     
....................    (*p) = temp1; 
....................     
....................    do { 
....................       res=y; 
....................       y+=(x/y); 
....................      temp1 = *p; 
....................      temp2 = *p; 
....................      bit_clear(temp1,15); 
....................      temp1 = (temp1>>4); 
....................      temp1--; 
....................      temp1 = (temp1<<4) & 0xFFF0; 
....................      if(bit_test(temp2,15)) 
....................      bit_set(temp1,15); 
....................      temp2 = temp2 & 0x000F; 
....................      temp1 ^= temp2; 
....................      (*p) = temp1; 
....................  
....................    } while(res != y); 
....................  
....................    return(res); 
.................... } 
.................... #endif 
....................  
.................... ////////////////////////////// Trig Functions ////////////////////////////// 
.................... #ifdef PI_DIV_BY_TWO 
.................... #undef PI_DIV_BY_TWO 
.................... #endif 
.................... #define PI_DIV_BY_TWO   1.5707963267948966 
.................... #ifdef TWOBYPI 
.................... #undef TWOBYPI 
.................... #define TWOBYPI          0.6366197723675813 
.................... #endif 
.................... //////////////////////////////////////////////////////////////////////////// 
.................... //   float cos(float x) 
.................... //////////////////////////////////////////////////////////////////////////// 
.................... // Description : returns the cosine value of the angle x, which is in radian 
.................... // Date : 9/20/2001 
.................... // 
.................... float32 cos(float32 x) 
.................... { 
....................    float32 y, t, t2 = 1.0; 
....................    unsigned int8 quad, i; 
....................    float32 frac; 
....................    float32 p[6] = {                    //by the series definition for cosine 
....................       -0.5,                            // sum ( ( (-1)^n * x^2n )/(2n)! ) 
....................        0.04166666666667, 
....................       -0.00138888888889, 
....................        0.00002480158730, 
....................       -0.00000027557319, 
....................        0.00000000208767, 
....................       //-0.00000000001147, 
....................       // 0.00000000000005 
....................    }; 
....................  
....................    if (x < 0) x = -x;                  // absolute value of input 
....................  
....................    quad = (unsigned int8)(x / PI_DIV_BY_TWO);    // quadrant 
....................    frac = (x / PI_DIV_BY_TWO) - quad;  // fractional part of input 
....................    quad = quad % 4;                    // quadrant (0 to 3) 
....................  
....................    if (quad == 0 || quad == 2) 
....................       t = frac * PI_DIV_BY_TWO; 
....................    else if (quad == 1) 
....................       t = (1-frac) * PI_DIV_BY_TWO; 
....................    else // should be 3 
....................       t = (frac-1) * PI_DIV_BY_TWO; 
....................  
....................    y = 1.0; 
....................    t = t * t; 
....................    for (i = 0; i <= 5; i++) 
....................    { 
....................       t2 = t2 * t; 
....................       y = y + p[i] * t2; 
....................    } 
....................  
....................    if (quad == 2 || quad == 1) 
....................       y = -y;  // correct sign 
....................  
....................    return (y); 
.................... } 
....................  
....................  
.................... //Overloaded functions for cos() for PCD 
.................... // Overloaded function cos() for data type - Float48 
.................... #if defined(__PCD__) 
.................... float48 cos(float48 x) 
.................... { 
....................    float48 y, t, t2 = 1.0; 
....................    unsigned int8 quad, i; 
....................    float48 frac; 
....................    float48 p[6] = {                    //by the series definition for cosine 
....................       -0.5,                            // sum ( ( (-1)^n * x^2n )/(2n)! ) 
....................        0.04166666666667, 
....................       -0.00138888888889, 
....................        0.00002480158730, 
....................       -0.00000027557319, 
....................        0.00000000208767, 
....................       //-0.00000000001147, 
....................       // 0.00000000000005 
....................    }; 
....................  
....................    if (x < 0) x = -x;                  // absolute value of input 
....................  
....................    quad = (unsigned int8)(x / PI_DIV_BY_TWO);    // quadrant 
....................    frac = (x / PI_DIV_BY_TWO) - quad;  // fractional part of input 
....................    quad = quad % 4;                    // quadrant (0 to 3) 
....................  
....................    if (quad == 0 || quad == 2) 
....................       t = frac * PI_DIV_BY_TWO; 
....................    else if (quad == 1) 
....................       t = (1-frac) * PI_DIV_BY_TWO; 
....................    else // should be 3 
....................       t = (frac-1) * PI_DIV_BY_TWO; 
....................  
....................    y = 0.999999999781; 
....................    t = t * t; 
....................    for (i = 0; i <= 5; i++) 
....................    { 
....................       t2 = t2 * t; 
....................       y = y + p[i] * t2; 
....................    } 
....................  
....................    if (quad == 2 || quad == 1) 
....................       y = -y;  // correct sign 
....................  
....................    return (y); 
.................... } 
....................  
.................... // Overloaded function cos() for data type - Float48 
.................... float64 cos(float64 x) 
.................... { 
....................    float64 y, t, t2 = 1.0; 
....................    unsigned int8 quad, i; 
....................    float64 frac; 
....................    float64 p[6] = {                    //by the series definition for cosine 
....................       -0.5,                            // sum ( ( (-1)^n * x^2n )/(2n)! ) 
....................        0.04166666666667, 
....................       -0.00138888888889, 
....................        0.00002480158730, 
....................       -0.00000027557319, 
....................        0.00000000208767, 
....................       //-0.00000000001147, 
....................       // 0.00000000000005 
....................    }; 
....................  
....................    if (x < 0) x = -x;                  // absolute value of input 
....................  
....................    quad = (unsigned int8)(x / PI_DIV_BY_TWO);    // quadrant 
....................    frac = (x / PI_DIV_BY_TWO) - quad;  // fractional part of input 
....................    quad = quad % 4;                    // quadrant (0 to 3) 
....................  
....................    if (quad == 0 || quad == 2) 
....................       t = frac * PI_DIV_BY_TWO; 
....................    else if (quad == 1) 
....................       t = (1-frac) * PI_DIV_BY_TWO; 
....................    else // should be 3 
....................       t = (frac-1) * PI_DIV_BY_TWO; 
....................  
....................    y = 0.999999999781; 
....................    t = t * t; 
....................    for (i = 0; i <= 5; i++) 
....................    { 
....................       t2 = t2 * t; 
....................       y = y + p[i] * t2; 
....................    } 
....................  
....................    if (quad == 2 || quad == 1) 
....................       y = -y;  // correct sign 
....................  
....................    return (y); 
.................... } 
....................  
.................... #endif 
....................  
.................... //////////////////////////////////////////////////////////////////////////// 
.................... //   float sin(float x) 
.................... //////////////////////////////////////////////////////////////////////////// 
.................... // Description : returns the sine value of the angle x, which is in radian 
.................... // Date : 9/20/2001 
.................... // 
.................... float32 sin(float32 x) 
.................... { 
....................    return cos(x - PI_DIV_BY_TWO); 
.................... } 
....................  
.................... //Overloaded functions for sin() for PCD 
.................... // Overloaded function sin() for data type - Float48 
.................... #if defined(__PCD__) 
.................... float48 sin(float48 x) 
.................... { 
....................    return cos(x - PI_DIV_BY_TWO); 
.................... } 
....................  
.................... // Overloaded function sin() for data type - Float48 
.................... float64 sin(float64 x) 
.................... { 
....................    return cos(x - PI_DIV_BY_TWO); 
.................... } 
.................... #endif 
....................  
.................... //////////////////////////////////////////////////////////////////////////// 
.................... //   float tan(float x) 
.................... //////////////////////////////////////////////////////////////////////////// 
.................... // Description : returns the tangent value of the angle x, which is in radian 
.................... // Date : 9/20/2001 
.................... // 
.................... float32 tan(float32 x) 
.................... { 
....................    float32 c, s; 
....................  
....................    c = cos(x); 
....................    if (c == 0.0) 
....................       return (1.0e+36); 
....................  
....................    s = sin(x); 
....................    return(s/c); 
.................... } 
.................... //Overloaded functions for tan() for PCD 
.................... // Overloaded function tan() for data type - Float48 
.................... #if defined(__PCD__) 
.................... float48 tan(float48 x) 
.................... { 
....................    float48 c, s; 
....................  
....................    c = cos(x); 
....................    if (c == 0.0) 
....................       return (1.0e+36); 
....................  
....................    s = sin(x); 
....................    return(s/c); 
.................... } 
....................  
.................... // Overloaded function tan() for data type - Float48 
.................... float64 tan(float64 x) 
.................... { 
....................    float64 c, s; 
....................  
....................    c = cos(x); 
....................    if (c == 0.0) 
....................       return (1.0e+36); 
....................  
....................    s = sin(x); 
....................    return(s/c); 
.................... } 
.................... #endif 
....................  
.................... float32 const pas[3] = {0.49559947, -4.6145309, 5.6036290}; 
.................... float32 const qas[3] = {1.0000000,  -5.5484666, 5.6036290}; 
....................  
.................... float32 ASIN_COS(float32 x, unsigned int8 n) 
.................... { 
....................    float32 y, res, r, y2; 
....................    int1 s; 
....................    #ifdef _ERRNO 
....................    if(x <-1 || x > 1) 
....................    { 
....................       errno=EDOM; 
....................    } 
....................    #endif 
....................    s = 0; 
....................    y = x; 
....................  
....................    if (x < 0) 
....................    { 
....................       s = 1; 
....................       y = -y; 
....................    } 
....................  
....................    if (y > 0.5) 
....................    { 
....................       y = sqrt((1.0 - y)/2.0); 
....................       n += 2; 
....................    } 
....................  
....................    y2=y*y; 
....................  
....................    res = pas[0]*y2 + pas[1]; 
....................    res = res*y2 + pas[2]; 
....................  
....................    r = qas[0]*y2 + qas[1]; 
....................    r = r*y2 + qas[2]; 
....................  
....................    res = y*res/r; 
....................  
....................    if (n & 2)     // |x| > 0.5 
....................       res = PI_DIV_BY_TWO - 2.0*res; 
....................    if (s) 
....................       res = -res; 
....................    if (n & 1)           // take arccos 
....................       res = PI_DIV_BY_TWO - res; 
....................  
....................    return(res); 
.................... } 
....................  
.................... //Overloaded functions for ASIN_COS() for PCD 
.................... // Overloaded function ASIN_COS() for data type - Float48 
.................... #if defined(__PCD__) 
.................... float48 ASIN_COS(float48 x, unsigned int8 n) 
.................... { 
....................    float48 y, res, r, y2; 
....................    int1 s; 
....................    #ifdef _ERRNO 
....................    if(x <-1 || x > 1) 
....................    { 
....................       errno=EDOM; 
....................    } 
....................    #endif 
....................    s = 0; 
....................    y = x; 
....................  
....................    if (x < 0) 
....................    { 
....................       s = 1; 
....................       y = -y; 
....................    } 
....................  
....................    if (y > 0.5) 
....................    { 
....................       y = sqrt((1.0 - y)/2.0); 
....................       n += 2; 
....................    } 
....................  
....................    y2=y*y; 
....................  
....................    res = pas[0]*y2 + pas[1]; 
....................    res = res*y2 + pas[2]; 
....................  
....................    r = qas[0]*y2 + qas[1]; 
....................    r = r*y2 + qas[2]; 
....................  
....................    res = y*res/r; 
....................  
....................    if (n & 2)     // |x| > 0.5 
....................       res = PI_DIV_BY_TWO - 2.0*res; 
....................    if (s) 
....................       res = -res; 
....................    if (n & 1)           // take arccos 
....................       res = PI_DIV_BY_TWO - res; 
....................  
....................    return(res); 
.................... } 
....................  
.................... // Overloaded function ASIN_COS() for data type - Float64 
.................... float64 ASIN_COS(float64 x, unsigned int8 n) 
.................... { 
....................    float64 y, res, r, y2; 
....................    int1 s; 
....................    #ifdef _ERRNO 
....................    if(x <-1 || x > 1) 
....................    { 
....................       errno=EDOM; 
....................    } 
....................    #endif 
....................    s = 0; 
....................    y = x; 
....................  
....................    if (x < 0) 
....................    { 
....................       s = 1; 
....................       y = -y; 
....................    } 
....................  
....................    if (y > 0.5) 
....................    { 
....................       y = sqrt((1.0 - y)/2.0); 
....................       n += 2; 
....................    } 
....................  
....................    y2=y*y; 
....................  
....................    res = pas[0]*y2 + pas[1]; 
....................    res = res*y2 + pas[2]; 
....................  
....................    r = qas[0]*y2 + qas[1]; 
....................    r = r*y2 + qas[2]; 
....................  
....................    res = y*res/r; 
....................  
....................    if (n & 2)     // |x| > 0.5 
....................       res = PI_DIV_BY_TWO - 2.0*res; 
....................    if (s) 
....................       res = -res; 
....................    if (n & 1)           // take arccos 
....................       res = PI_DIV_BY_TWO - res; 
....................  
....................    return(res); 
.................... } 
.................... #endif 
....................  
.................... //////////////////////////////////////////////////////////////////////////// 
.................... //   float asin(float x) 
.................... //////////////////////////////////////////////////////////////////////////// 
.................... // Description : returns the arcsine value of the value x. 
.................... // Date : N/A 
.................... // 
.................... float32 asin(float32 x) 
.................... { 
....................    float32 r; 
....................  
....................    r = ASIN_COS(x, 0); 
....................    return(r); 
.................... } 
.................... //Overloaded functions for asin() for PCD 
.................... // Overloaded function asin() for data type - Float48 
.................... #if defined(__PCD__) 
.................... float48 asin(float48 x) 
.................... { 
....................    float48 r; 
....................  
....................    r = ASIN_COS(x, 0); 
....................    return(r); 
.................... } 
....................  
.................... // Overloaded function asin() for data type - Float64 
.................... float64 asin(float64 x) 
.................... { 
....................    float64 r; 
....................  
....................    r = ASIN_COS(x, 0); 
....................    return(r); 
.................... } 
.................... #endif 
....................  
.................... //////////////////////////////////////////////////////////////////////////// 
.................... //   float acos(float x) 
.................... //////////////////////////////////////////////////////////////////////////// 
.................... // Description : returns the arccosine value of the value x. 
.................... // Date : N/A 
.................... // 
.................... float32 acos(float32 x) 
.................... { 
....................    float32 r; 
....................  
....................    r = ASIN_COS(x, 1); 
....................    return(r); 
.................... } 
.................... //Overloaded functions for acos() for PCD 
.................... // Overloaded function acos() for data type - Float48 
.................... #if defined(__PCD__) 
.................... float48 acos(float48 x) 
.................... { 
....................    float48 r; 
....................  
....................    r = ASIN_COS(x, 1); 
....................    return(r); 
.................... } 
....................  
.................... // Overloaded function acos() for data type - Float64 
.................... float64 acos(float64 x) 
.................... { 
....................    float64 r; 
....................  
....................    r = ASIN_COS(x, 1); 
....................    return(r); 
.................... } 
.................... #endif 
....................  
.................... float32 const pat[4] = {0.17630401, 5.6710795, 22.376096, 19.818457}; 
.................... float32 const qat[4] = {1.0000000,  11.368190, 28.982246, 19.818457}; 
....................  
.................... //////////////////////////////////////////////////////////////////////////// 
.................... //   float atan(float x) 
.................... //////////////////////////////////////////////////////////////////////////// 
.................... // Description : returns the arctangent value of the value x. 
.................... // Date : N/A 
.................... // 
.................... float32 atan(float32 x) 
.................... { 
....................    float32 y, res, r; 
....................    int1 s, flag; 
....................  
....................    s = 0; 
....................    flag = 0; 
....................    y = x; 
....................  
....................    if (x < 0) 
....................    { 
....................       s = 1; 
....................       y = -y; 
....................    } 
....................  
....................    if (y > 1.0) 
....................    { 
....................       y = 1.0/y; 
....................       flag = 1; 
....................    } 
....................  
....................    res = pat[0]*y*y + pat[1]; 
....................    res = res*y*y + pat[2]; 
....................    res = res*y*y + pat[3]; 
....................  
....................    r = qat[0]*y*y + qat[1]; 
....................    r = r*y*y + qat[2]; 
....................    r = r*y*y + qat[3]; 
....................  
....................    res = y*res/r; 
....................  
....................  
....................    if (flag)                              // for |x| > 1 
....................       res = PI_DIV_BY_TWO - res; 
....................    if (s) 
....................       res = -res; 
....................  
....................    return(res); 
.................... } 
.................... //Overloaded functions for atan() for PCD 
.................... // Overloaded function atan() for data type - Float48 
.................... #if defined(__PCD__) 
.................... float48 atan(float48 x) 
.................... { 
....................    float48 y, res, r; 
....................    int1 s, flag; 
....................  
....................    s = 0; 
....................    flag = 0; 
....................    y = x; 
....................  
....................    if (x < 0) 
....................    { 
....................       s = 1; 
....................       y = -y; 
....................    } 
....................  
....................    if (y > 1.0) 
....................    { 
....................       y = 1.0/y; 
....................       flag = 1; 
....................    } 
....................  
....................    res = pat[0]*y*y + pat[1]; 
....................    res = res*y*y + pat[2]; 
....................    res = res*y*y + pat[3]; 
....................  
....................    r = qat[0]*y*y + qat[1]; 
....................    r = r*y*y + qat[2]; 
....................    r = r*y*y + qat[3]; 
....................  
....................    res = y*res/r; 
....................  
....................  
....................    if (flag)                              // for |x| > 1 
....................       res = PI_DIV_BY_TWO - res; 
....................    if (s) 
....................       res = -res; 
....................  
....................    return(res); 
.................... } 
....................  
.................... // Overloaded function atan() for data type - Float64 
.................... float64 atan(float64 x) 
.................... { 
....................    float64 y, res, r; 
....................    int1 s, flag; 
....................  
....................    s = 0; 
....................    flag = 0; 
....................    y = x; 
....................  
....................    if (x < 0) 
....................    { 
....................       s = 1; 
....................       y = -y; 
....................    } 
....................  
....................    if (y > 1.0) 
....................    { 
....................       y = 1.0/y; 
....................       flag = 1; 
....................    } 
....................  
....................    res = pat[0]*y*y + pat[1]; 
....................    res = res*y*y + pat[2]; 
....................    res = res*y*y + pat[3]; 
....................  
....................    r = qat[0]*y*y + qat[1]; 
....................    r = r*y*y + qat[2]; 
....................    r = r*y*y + qat[3]; 
....................  
....................    res = y*res/r; 
....................  
....................  
....................    if (flag)                              // for |x| > 1 
....................       res = PI_DIV_BY_TWO - res; 
....................    if (s) 
....................       res = -res; 
....................  
....................    return(res); 
.................... } 
.................... #endif 
....................  
.................... ///////////////////////////////////////////////////////////////////////////// 
.................... //   float atan2(float y, float x) 
.................... ///////////////////////////////////////////////////////////////////////////// 
.................... // Description :computes the principal value of arc tangent of y/x, using the 
.................... // signs of both the arguments to determine the quadrant of the return value 
.................... // Returns : returns the arc tangent of y/x. 
.................... // Date : N/A 
.................... // 
....................  
.................... float32 atan2(float32 y,float32 x) 
.................... { 
....................    float32 z; 
....................    int1 sign; 
....................    unsigned int8 quad; 
....................    sign=0; 
....................    quad=0; //quadrant 
....................    quad=((y<=0.0)?((x<=0.0)?3:4):((x<0.0)?2:1)); 
....................    if(y<0.0) 
....................    { 
....................       sign=1; 
....................       y=-y; 
....................    } 
....................    if(x<0.0) 
....................    { 
....................       x=-x; 
....................    } 
....................    if (x==0.0) 
....................    { 
....................       if(y==0.0) 
....................       { 
....................       #ifdef _ERRNO 
....................       { 
....................          errno=EDOM; 
....................       } 
....................       #endif 
....................       } 
....................       else 
....................       { 
....................          if(sign) 
....................          { 
....................          return (-(PI_DIV_BY_TWO)); 
....................          } 
....................          else 
....................          { 
....................          return (PI_DIV_BY_TWO); 
....................          } 
....................       } 
....................    } 
....................    else 
....................    { 
....................       z=y/x; 
....................       switch(quad) 
....................       { 
....................          case 1: 
....................          { 
....................             return atan(z); 
....................             break; 
....................          } 
....................          case 2: 
....................          { 
.................... //            return (atan(z)+PI_DIV_BY_TWO);  //2L3122 
....................             return (PI-atan(z)); 
....................             break; 
....................          } 
....................          case 3: 
....................          { 
....................             return (atan(z)-PI); 
....................             break; 
....................          } 
....................          case 4: 
....................          { 
....................             return (-atan(z)); 
....................             break; 
....................          } 
....................       } 
....................    } 
.................... } 
....................  
.................... //Overloaded functions for atan2() for PCD 
.................... // Overloaded function atan2() for data type - Float48 
.................... #if defined(__PCD__) 
.................... float48 atan2(float48 y,float48 x) 
.................... { 
....................    float48 z; 
....................    int1 sign; 
....................    unsigned int8 quad; 
....................    sign=0; 
....................    quad=0; //quadrant 
....................    quad=((y<=0.0)?((x<=0.0)?3:4):((x<0.0)?2:1)); 
....................    if(y<0.0) 
....................    { 
....................       sign=1; 
....................       y=-y; 
....................    } 
....................    if(x<0.0) 
....................    { 
....................       x=-x; 
....................    } 
....................    if (x==0.0) 
....................    { 
....................       if(y==0.0) 
....................       { 
....................       #ifdef _ERRNO 
....................       { 
....................          errno=EDOM; 
....................       } 
....................       #endif 
....................       } 
....................       else 
....................       { 
....................          if(sign) 
....................          { 
....................          return (-(PI_DIV_BY_TWO)); 
....................          } 
....................          else 
....................          { 
....................          return (PI_DIV_BY_TWO); 
....................          } 
....................       } 
....................    } 
....................    else 
....................    { 
....................       z=y/x; 
....................       switch(quad) 
....................       { 
....................          case 1: 
....................          { 
....................             return atan(z); 
....................             break; 
....................          } 
....................          case 2: 
....................          { 
.................... //            return (atan(z)+PI_DIV_BY_TWO);  //2L3122 
....................             return (PI-atan(z)); 
....................             break; 
....................          } 
....................          case 3: 
....................          { 
....................             return (atan(z)-PI); 
....................             break; 
....................          } 
....................          case 4: 
....................          { 
....................             return (-atan(z)); 
....................             break; 
....................          } 
....................       } 
....................    } 
.................... } 
....................  
.................... // Overloaded function atan2() for data type - Float64 
.................... float64 atan2(float64 y,float64 x) 
.................... { 
....................    float64 z; 
....................    int1 sign; 
....................    unsigned int8 quad; 
....................    sign=0; 
....................    quad=0; //quadrant 
....................    quad=((y<=0.0)?((x<=0.0)?3:4):((x<0.0)?2:1)); 
....................    if(y<0.0) 
....................    { 
....................       sign=1; 
....................       y=-y; 
....................    } 
....................    if(x<0.0) 
....................    { 
....................       x=-x; 
....................    } 
....................    if (x==0.0) 
....................    { 
....................       if(y==0.0) 
....................       { 
....................       #ifdef _ERRNO 
....................       { 
....................          errno=EDOM; 
....................       } 
....................       #endif 
....................       } 
....................       else 
....................       { 
....................          if(sign) 
....................          { 
....................          return (-(PI_DIV_BY_TWO)); 
....................          } 
....................          else 
....................          { 
....................          return (PI_DIV_BY_TWO); 
....................          } 
....................       } 
....................    } 
....................    else 
....................    { 
....................       z=y/x; 
....................       switch(quad) 
....................       { 
....................          case 1: 
....................          { 
....................             return atan(z); 
....................             break; 
....................          } 
....................          case 2: 
....................          { 
.................... //            return (atan(z)+PI_DIV_BY_TWO);  //2L3122 
....................             return (PI-atan(z)); 
....................             break; 
....................          } 
....................          case 3: 
....................          { 
....................             return (atan(z)-PI); 
....................             break; 
....................          } 
....................          case 4: 
....................          { 
....................             return (-atan(z)); 
....................             break; 
....................          } 
....................       } 
....................    } 
.................... } 
.................... #endif 
....................  
.................... //////////////////// Hyperbolic functions //////////////////// 
....................  
.................... //////////////////////////////////////////////////////////////////////////// 
.................... //   float cosh(float x) 
.................... //////////////////////////////////////////////////////////////////////////// 
.................... // Description : Computes the hyperbolic cosine value of x 
.................... // Returns : returns the hyperbolic cosine value of x 
.................... // Date : N/A 
.................... // 
....................  
.................... float32 cosh(float32 x) 
.................... { 
....................    return ((exp(x)+exp(-x))/2); 
.................... } 
.................... //Overloaded functions for cosh() for PCD 
.................... // Overloaded function cosh() for data type - Float48 
.................... #if defined(__PCD__) 
.................... float48 cosh(float48 x) 
.................... { 
....................    return ((exp(x)+exp(-x))/2); 
.................... } 
....................  
.................... // Overloaded function cosh() for data type - Float64 
.................... float64 cosh(float64 x) 
.................... { 
....................    return ((exp(x)+exp(-x))/2); 
.................... } 
.................... #endif 
....................  
.................... //////////////////////////////////////////////////////////////////////////// 
.................... //   float sinh(float x) 
.................... //////////////////////////////////////////////////////////////////////////// 
.................... // Description : Computes the hyperbolic sine value of x 
.................... // Returns : returns the hyperbolic sine value of x 
.................... // Date : N/A 
.................... // 
....................  
.................... float32 sinh(float32 x) 
.................... { 
....................  
....................    return ((exp(x) - exp(-x))/2); 
.................... } 
.................... //Overloaded functions for sinh() for PCD 
.................... // Overloaded function sinh() for data type - Float48 
.................... #if defined(__PCD__) 
.................... float48 sinh(float48 x) 
.................... { 
....................  
....................    return ((exp(x) - exp(-x))/2); 
.................... } 
....................  
.................... // Overloaded function sinh() for data type - Float48 
.................... float64 sinh(float64 x) 
.................... { 
....................  
....................    return ((exp(x) - exp(-x))/2); 
.................... } 
.................... #endif 
....................  
.................... //////////////////////////////////////////////////////////////////////////// 
.................... //   float tanh(float x) 
.................... //////////////////////////////////////////////////////////////////////////// 
.................... // Description : Computes the hyperbolic tangent value of x 
.................... // Returns : returns the hyperbolic tangent value of x 
.................... // Date : N/A 
.................... // 
....................  
.................... float32 tanh(float32 x) 
.................... { 
....................    return(sinh(x)/cosh(x)); 
.................... } 
.................... //Overloaded functions for tanh() for PCD 
.................... // Overloaded function tanh() for data type - Float48 
.................... #if defined(__PCD__) 
.................... float48 tanh(float48 x) 
.................... { 
....................    return(sinh(x)/cosh(x)); 
.................... } 
....................  
.................... // Overloaded function tanh() for data type - Float64 
.................... float64 tanh(float64 x) 
.................... { 
....................    return(sinh(x)/cosh(x)); 
.................... } 
.................... #endif 
....................  
.................... //////////////////////////////////////////////////////////////////////////// 
.................... //   float frexp(float x, signed int *exp) 
.................... //////////////////////////////////////////////////////////////////////////// 
.................... // Description : breaks a floating point number into a normalized fraction and an integral 
.................... // power of 2. It stores the integer in the signed int object pointed to by exp. 
.................... // Returns : returns the value x, such that x is a double with magnitude in the interval 
.................... // [1/2,1) or zero, and value equals x times 2 raised to the power *exp.If value is zero, 
.................... // both parts of the result are zero. 
.................... // Date : N/A 
.................... // 
....................  
.................... #define LOG2 .30102999566398119521 
.................... float32 frexp(float32 x, signed int8 *exp) 
.................... { 
....................    float32 res; 
....................    int1 sign = 0; 
....................    if(x == 0.0) 
....................    { 
....................       *exp=0; 
....................       return (0.0); 
....................    } 
....................    if(x < 0.0) 
....................    { 
....................      x=-x; 
....................      sign=1; 
....................    } 
....................    if (x > 1.0) 
....................    { 
....................       *exp=(ceil(log10(x)/LOG2)); 
....................       res=x/(pow(2, *exp)); 
....................       if (res == 1) 
....................       { 
....................          *exp=*exp+1; 
....................           res=.5; 
....................       } 
....................    } 
....................    else 
....................    { 
....................       if(x < 0.5) 
....................       { 
....................          *exp=-1; 
....................          res=x*2; 
....................       } 
....................       else 
....................       { 
....................          *exp=0; 
....................           res=x; 
....................       } 
....................    } 
....................    if(sign) 
....................    { 
....................       res=-res; 
....................    } 
....................    return res; 
.................... } 
....................  
.................... //Overloaded functions for frexp() for PCD 
.................... // Overloaded function frexp() for data type - Float48 
.................... #if defined(__PCD__) 
.................... float48 frexp(float48 x, signed int8 *exp) 
.................... { 
....................    float48 res; 
....................    int1 sign = 0; 
....................    if(x == 0.0) 
....................    { 
....................       *exp=0; 
....................       return (0.0); 
....................    } 
....................    if(x < 0.0) 
....................    { 
....................      x=-x; 
....................      sign=1; 
....................    } 
....................    if (x > 1.0) 
....................    { 
....................       *exp=(ceil(log10(x)/LOG2)); 
....................       res=x/(pow(2, *exp)); 
....................       if (res == 1) 
....................       { 
....................          *exp=*exp+1; 
....................           res=.5; 
....................       } 
....................    } 
....................    else 
....................    { 
....................       if(x < 0.5) 
....................       { 
....................          *exp=-1; 
....................          res=x*2; 
....................       } 
....................       else 
....................       { 
....................          *exp=0; 
....................           res=x; 
....................       } 
....................    } 
....................    if(sign) 
....................    { 
....................       res=-res; 
....................    } 
....................    return res; 
.................... } 
....................  
.................... // Overloaded function frexp() for data type - Float64 
.................... float64 frexp(float64 x, signed int8 *exp) 
.................... { 
....................    float64 res; 
....................    int1 sign = 0; 
....................    if(x == 0.0) 
....................    { 
....................       *exp=0; 
....................       return (0.0); 
....................    } 
....................    if(x < 0.0) 
....................    { 
....................      x=-x; 
....................      sign=1; 
....................    } 
....................    if (x > 1.0) 
....................    { 
....................       *exp=(ceil(log10(x)/LOG2)); 
....................       res=x/(pow(2, *exp)); 
....................       if (res == 1) 
....................       { 
....................          *exp=*exp+1; 
....................           res=.5; 
....................       } 
....................    } 
....................    else 
....................    { 
....................       if(x < 0.5) 
....................       { 
....................          *exp=-1; 
....................          res=x*2; 
....................       } 
....................       else 
....................       { 
....................          *exp=0; 
....................           res=x; 
....................       } 
....................    } 
....................    if(sign) 
....................    { 
....................       res=-res; 
....................    } 
....................    return res; 
.................... } 
.................... #endif 
....................  
.................... ////////////////////////////////////////////////////////////////////////////// 
.................... //   float ldexp(float x, signed int *exp) 
.................... ////////////////////////////////////////////////////////////////////////////// 
.................... // Description : multiplies a floating point number by an integral power of 2. 
.................... // Returns : returns the value of x times 2 raised to the power exp. 
.................... // Date : N/A 
.................... // 
....................  
.................... float32 ldexp(float32 value, signed int8 exp) 
.................... { 
....................    return (value * pow(2,exp)); 
.................... } 
.................... //Overloaded functions for ldexp() for PCD 
.................... // Overloaded function ldexp() for data type - Float48 
....................  
.................... #if defined(__PCD__) 
.................... float48 ldexp(float48 value, signed int8 exp) 
.................... { 
....................    return (value * pow(2,exp)); 
.................... } 
.................... // Overloaded function ldexp() for data type - Float64 
.................... float64 ldexp(float64 value, signed int8 exp) 
.................... { 
....................    return (value * pow(2,exp)); 
.................... } 
.................... #endif 
....................  
.................... #endif 
....................  
.................... #include "HDM64GS12.c" 
.................... ///////////////////////////////////////////////////////////////////////// 
.................... ////                           HDM64GS12.c                           //// 
.................... ////                                                                 //// 
.................... //// This file contains drivers for using a Hantronix HDM64GS12 with //// 
.................... //// a KS0108 display controller. The HDM64GS12 is 128 by 64 pixels. //// 
.................... //// The driver treats the upper left pixel as (0,0).                //// 
.................... ////                                                                 //// 
.................... //// Use #define FAST_GLCD if the target chip has at least 1k of RAM //// 
.................... //// to decrease the time it takes to update the display.            //// 
.................... //// glcd_update() must then be called to update the display after   //// 
.................... //// changing the pixel information.                                 //// 
.................... //// See ex_glcd.c for suggested usage.                              //// 
.................... //// See KS0108.c for controlling a single 64 by 64 display          //// 
.................... ///////////////////////////////////////////////////////////////////////// 
.................... ////                                                                 //// 
.................... //// LCD Pin connections:                                            //// 
.................... //// (These can be changed as needed in the following defines).      //// 
.................... ////  * 1: VSS is connected to GND                                   //// 
.................... ////  * 2: VDD is connected to +5V                                   //// 
.................... ////  * 3: V0  - LCD operating voltage (Constrast adjustment)        //// 
.................... ////  * 4: D/I - Data or Instruction is connected to B2              //// 
.................... ////  * 5: R/W - Read or Write is connected to B4                    //// 
.................... ////  * 6: Enable is connected to B5                                 //// 
.................... ////  *7-14: Data Bus 0 to 7 is connected to port d                  //// 
.................... ////  *15: Chip Select 1 is connected to B0                          //// 
.................... ////  *16: Chip Select 2 is connected to B1                          //// 
.................... ////  *17: Reset is connected to C0                                  //// 
.................... ////  *18: Negative voltage is also connected to the 20k Ohm POT     //// 
.................... ////  *19: Positive voltage for LED backlight is connected to +5V    //// 
.................... ////  *20: Negavtive voltage for LED backlight is connected to GND   //// 
.................... ////                                                                 //// 
.................... ///////////////////////////////////////////////////////////////////////// 
.................... ////                                                                 //// 
.................... ////  glcd_init(mode)                                                //// 
.................... ////     * Must be called before any other function.                 //// 
.................... ////       - mode can be ON or OFF to turn the LCD on or off         //// 
.................... ////                                                                 //// 
.................... ////  glcd_pixel(x,y,color)                                          //// 
.................... ////     * Sets the pixel to the given color.                        //// 
.................... ////       - color can be ON or OFF                                  //// 
.................... ////                                                                 //// 
.................... ////  glcd_fillScreen(color)                                         //// 
.................... ////     * Fills the entire LCD with the given color.                //// 
.................... ////       - color can be ON or OFF                                  //// 
.................... ////                                                                 //// 
.................... ////  glcd_update()                                                  //// 
.................... ////     * Write the display data stored in RAM to the LCD           //// 
.................... ////     * Only available if FAST_GLCD is defined                    //// 
.................... ////                                                                 //// 
.................... ///////////////////////////////////////////////////////////////////////// 
.................... ////        (C) Copyright 1996, 2004 Custom Computer Services        //// 
.................... //// This source code may only be used by licensed users of the CCS  //// 
.................... //// C compiler.  This source code may only be distributed to other  //// 
.................... //// licensed users of the CCS C compiler.  No other use,            //// 
.................... //// reproduction or distribution is permitted without written       //// 
.................... //// permission.  Derivative programs created using this software    //// 
.................... //// in object code form are not restricted in any way.              //// 
.................... ///////////////////////////////////////////////////////////////////////// 
....................  
....................  
....................  
.................... #ifndef HDM64GS12 
.................... #define HDM64GS12 
....................  
.................... #ifndef FAST_GLCD 
.................... #define FAST_GLCD 
....................  
.................... #ifndef GLCD_WIDTH 
.................... #define GLCD_WIDTH   128 
.................... #endif 
....................  
.................... #ifndef GLCD_CS1 
.................... #define GLCD_CS1     PIN_B2   // Chip Selection 1 
.................... #endif 
....................  
.................... #ifndef GLCD_CS2 
.................... #define GLCD_CS2     PIN_B3   // Chip Selection 2 
.................... #endif 
....................  
.................... #ifndef GLCD_DI 
.................... #define GLCD_DI      PIN_B5   // Data or Instruction input 
.................... #endif 
....................  
.................... #ifndef GLCD_RW 
.................... #define GLCD_RW      PIN_B6   // Read/Write 
.................... #endif 
....................  
.................... #ifndef GLCD_E 
.................... #define GLCD_E       PIN_B7   // Enable 
.................... #endif 
....................  
.................... #ifndef GLCD_RST 
.................... #define GLCD_RST     PIN_B4   // Reset 
.................... #endif 
....................  
.................... #define GLCD_LEFT    0 
.................... #define GLCD_RIGHT   1 
....................  
.................... #ifndef ON 
.................... #define ON           1 
.................... #endif 
....................  
.................... #ifndef OFF 
.................... #define OFF          0 
.................... #endif 
....................  
.................... ///////////////////////////////////////////////////////////////////////// 
.................... // Function Prototypes 
.................... ///////////////////////////////////////////////////////////////////////// 
.................... void glcd_init(int1 mode); 
.................... void glcd_pixel(int8 x, int8 y, int1 color); 
.................... void glcd_fillScreen(int1 color); 
.................... void glcd_writeByte(int1 side, BYTE data); 
.................... BYTE glcd_readByte(int1 side); 
.................... void glcd_update(); 
.................... ///////////////////////////////////////////////////////////////////////// 
....................  
.................... #ifdef FAST_GLCD 
.................... struct 
.................... { 
....................    int8 left[512]; 
....................    int8 right[512]; 
.................... } displayData; 
.................... #endif 
....................  
....................  
.................... // Purpose:       Initialize the LCD. 
.................... //                Call before using any other LCD function. 
.................... // Inputs:        OFF - Turns the LCD off 
.................... //                ON  - Turns the LCD on 
.................... void glcd_init(int1 mode) 
.................... { 
....................    // Initialze some pins 
....................    output_high(GLCD_RST); 
*
01694:  BCF    F93.4
01696:  BSF    F8A.4
....................    output_low(GLCD_E); 
01698:  BCF    F93.7
0169A:  BCF    F8A.7
....................    output_low(GLCD_CS1); 
0169C:  BCF    F93.2
0169E:  BCF    F8A.2
....................    output_low(GLCD_CS2); 
016A0:  BCF    F93.3
016A2:  BCF    F8A.3
....................  
....................    output_low(GLCD_DI);                 // Set for instruction 
016A4:  BCF    F93.5
016A6:  BCF    F8A.5
....................    glcd_writeByte(GLCD_LEFT,  0xC0);    // Specify first RAM line at the top 
016A8:  MOVLB  6
016AA:  CLRF   x41
016AC:  MOVLW  C0
016AE:  MOVWF  x42
016B0:  MOVLB  0
016B2:  RCALL  154C
....................    glcd_writeByte(GLCD_RIGHT, 0xC0);    //   of the screen 
016B4:  MOVLW  01
016B6:  MOVLB  6
016B8:  MOVWF  x41
016BA:  MOVLW  C0
016BC:  MOVWF  x42
016BE:  MOVLB  0
016C0:  RCALL  154C
....................    glcd_writeByte(GLCD_LEFT,  0x40);    // Set the column address to 0 
016C2:  MOVLB  6
016C4:  CLRF   x41
016C6:  MOVLW  40
016C8:  MOVWF  x42
016CA:  MOVLB  0
016CC:  RCALL  154C
....................    glcd_writeByte(GLCD_RIGHT, 0x40); 
016CE:  MOVLW  01
016D0:  MOVLB  6
016D2:  MOVWF  x41
016D4:  MOVLW  40
016D6:  MOVWF  x42
016D8:  MOVLB  0
016DA:  RCALL  154C
....................    glcd_writeByte(GLCD_LEFT,  0xB8);    // Set the page address to 0 
016DC:  MOVLB  6
016DE:  CLRF   x41
016E0:  MOVLW  B8
016E2:  MOVWF  x42
016E4:  MOVLB  0
016E6:  RCALL  154C
....................    glcd_writeByte(GLCD_RIGHT, 0xB8); 
016E8:  MOVLW  01
016EA:  MOVLB  6
016EC:  MOVWF  x41
016EE:  MOVLW  B8
016F0:  MOVWF  x42
016F2:  MOVLB  0
016F4:  RCALL  154C
....................  
....................    if(mode == ON) 
016F6:  MOVLB  6
016F8:  DECFSZ x32,W
016FA:  BRA    1718
....................    { 
....................       glcd_writeByte(GLCD_LEFT,  0x3F); // Turn the display on 
016FC:  CLRF   x41
016FE:  MOVLW  3F
01700:  MOVWF  x42
01702:  MOVLB  0
01704:  RCALL  154C
....................       glcd_writeByte(GLCD_RIGHT, 0x3F); 
01706:  MOVLW  01
01708:  MOVLB  6
0170A:  MOVWF  x41
0170C:  MOVLW  3F
0170E:  MOVWF  x42
01710:  MOVLB  0
01712:  RCALL  154C
....................    } 
....................    else 
01714:  BRA    1730
01716:  MOVLB  6
....................    { 
....................       glcd_writeByte(GLCD_LEFT,  0x3E); // Turn the display off 
01718:  CLRF   x41
0171A:  MOVLW  3E
0171C:  MOVWF  x42
0171E:  MOVLB  0
01720:  RCALL  154C
....................       glcd_writeByte(GLCD_RIGHT, 0x3E); 
01722:  MOVLW  01
01724:  MOVLB  6
01726:  MOVWF  x41
01728:  MOVLW  3E
0172A:  MOVWF  x42
0172C:  MOVLB  0
0172E:  RCALL  154C
....................    } 
....................  
....................    glcd_fillScreen(OFF);                // Clear the display 
01730:  MOVLB  6
01732:  CLRF   x3A
01734:  MOVLB  0
01736:  RCALL  1582
....................  
....................    #ifdef FAST_GLCD 
....................    glcd_update(); 
01738:  RCALL  15DC
....................    #endif 
.................... } 
0173A:  RETLW  00
....................  
....................  
.................... // Purpose:    Update the LCD with data from the display arrays 
.................... #ifdef FAST_GLCD 
.................... void glcd_update() 
.................... { 
....................    int8 i, j; 
....................    int8 *p1, *p2; 
....................  
....................    p1 = displayData.left; 
*
015DC:  MOVLB  6
015DE:  CLRF   x3D
015E0:  MOVLW  16
015E2:  MOVWF  x3C
....................    p2 = displayData.right; 
015E4:  MOVLW  02
015E6:  MOVWF  x3F
015E8:  MOVLW  16
015EA:  MOVWF  x3E
....................  
....................    // Loop through the vertical pages 
....................    for(i = 0; i < 8; ++i) 
015EC:  CLRF   x3A
015EE:  MOVF   x3A,W
015F0:  SUBLW  07
015F2:  BNC   1690
....................    { 
....................       output_low(GLCD_DI);                      // Set for instruction 
015F4:  BCF    F93.5
015F6:  BCF    F8A.5
....................       glcd_writeByte(GLCD_LEFT, 0x40);          // Set horizontal address to 0 
015F8:  CLRF   x41
015FA:  MOVLW  40
015FC:  MOVWF  x42
015FE:  MOVLB  0
01600:  RCALL  154C
....................       glcd_writeByte(GLCD_RIGHT, 0x40); 
01602:  MOVLW  01
01604:  MOVLB  6
01606:  MOVWF  x41
01608:  MOVLW  40
0160A:  MOVWF  x42
0160C:  MOVLB  0
0160E:  RCALL  154C
....................       glcd_writeByte(GLCD_LEFT, i | 0xB8);      // Set page address 
01610:  MOVLB  6
01612:  MOVF   x3A,W
01614:  IORLW  B8
01616:  MOVWF  x40
01618:  CLRF   x41
0161A:  MOVWF  x42
0161C:  MOVLB  0
0161E:  RCALL  154C
....................       glcd_writeByte(GLCD_RIGHT, i | 0xB8); 
01620:  MOVLB  6
01622:  MOVF   x3A,W
01624:  IORLW  B8
01626:  MOVWF  x40
01628:  MOVLW  01
0162A:  MOVWF  x41
0162C:  MOVFF  640,642
01630:  MOVLB  0
01632:  RCALL  154C
....................       output_high(GLCD_DI);                     // Set for data 
01634:  BCF    F93.5
01636:  BSF    F8A.5
....................  
....................       // Loop through the horizontal sections 
....................       for(j = 0; j < 64; ++j) 
01638:  MOVLB  6
0163A:  CLRF   x3B
0163C:  MOVF   x3B,W
0163E:  SUBLW  3F
01640:  BNC   168C
....................       { 
....................          glcd_writeByte(GLCD_LEFT, *p1++);      // Turn pixels on or off 
01642:  MOVFF  63D,03
01646:  MOVF   x3C,W
01648:  INCF   x3C,F
0164A:  BTFSC  FD8.2
0164C:  INCF   x3D,F
0164E:  MOVWF  FE9
01650:  MOVFF  03,FEA
01654:  MOVFF  FEF,640
01658:  CLRF   x41
0165A:  MOVFF  640,642
0165E:  MOVLB  0
01660:  RCALL  154C
....................          glcd_writeByte(GLCD_RIGHT, *p2++);     // Turn pixels on or off 
01662:  MOVLB  6
01664:  MOVFF  63F,03
01668:  MOVF   x3E,W
0166A:  INCF   x3E,F
0166C:  BTFSC  FD8.2
0166E:  INCF   x3F,F
01670:  MOVWF  FE9
01672:  MOVFF  03,FEA
01676:  MOVFF  FEF,640
0167A:  MOVLW  01
0167C:  MOVWF  x41
0167E:  MOVFF  640,642
01682:  MOVLB  0
01684:  RCALL  154C
....................       } 
01686:  MOVLB  6
01688:  INCF   x3B,F
0168A:  BRA    163C
....................    } 
0168C:  INCF   x3A,F
0168E:  BRA    15EE
.................... } 
01690:  MOVLB  0
01692:  RETLW  00
.................... #endif 
....................  
....................  
.................... // Purpose:    Turn a pixel on a graphic LCD on or off 
.................... // Inputs:     1) x - the x coordinate of the pixel 
.................... //             2) y - the y coordinate of the pixel 
.................... //             3) color - ON or OFF 
.................... void glcd_pixel(int8 x, int8 y, int1 color) 
.................... #ifdef FAST_GLCD 
.................... { 
....................    int8* p; 
....................    int16 temp; 
....................    temp =  y/8; 
*
04B94:  MOVLB  6
04B96:  CLRF   x6C
04B98:  RRCF   x67,W
04B9A:  MOVWF  x6B
04B9C:  RRCF   x6B,F
04B9E:  RRCF   x6B,F
04BA0:  MOVLW  1F
04BA2:  ANDWF  x6B,F
....................    temp *= 64; 
04BA4:  RLCF   x6B,F
04BA6:  RLCF   x6C,F
04BA8:  RLCF   x6B,F
04BAA:  RLCF   x6C,F
04BAC:  RLCF   x6B,F
04BAE:  RLCF   x6C,F
04BB0:  RLCF   x6B,F
04BB2:  RLCF   x6C,F
04BB4:  RLCF   x6B,F
04BB6:  RLCF   x6C,F
04BB8:  RLCF   x6B,F
04BBA:  RLCF   x6C,F
04BBC:  MOVLW  C0
04BBE:  ANDWF  x6B,F
....................    temp += x; 
04BC0:  MOVF   x66,W
04BC2:  ADDWF  x6B,F
04BC4:  MOVLW  00
04BC6:  ADDWFC x6C,F
....................  
....................    if(x > 63) 
04BC8:  MOVF   x66,W
04BCA:  SUBLW  3F
04BCC:  BC    4BE8
....................    { 
....................       p = displayData.right + temp - 64; 
04BCE:  MOVLW  16
04BD0:  ADDWF  x6B,W
04BD2:  MOVWF  x6D
04BD4:  MOVLW  02
04BD6:  ADDWFC x6C,W
04BD8:  MOVWF  x6E
04BDA:  MOVLW  40
04BDC:  SUBWF  x6D,W
04BDE:  MOVWF  x69
04BE0:  MOVLW  00
04BE2:  SUBWFB x6E,W
04BE4:  MOVWF  x6A
....................    } 
....................    else 
04BE6:  BRA    4BF4
....................    { 
....................       p = displayData.left + temp; 
04BE8:  MOVLW  16
04BEA:  ADDWF  x6B,W
04BEC:  MOVWF  x69
04BEE:  MOVLW  00
04BF0:  ADDWFC x6C,W
04BF2:  MOVWF  x6A
....................    } 
....................  
....................    if(color) 
04BF4:  MOVF   x68,F
04BF6:  BZ    4C22
....................    { 
....................       bit_set(*p, y%8); 
04BF8:  MOVFF  66A,03
04BFC:  MOVFF  669,FE9
04C00:  MOVFF  66A,FEA
04C04:  MOVF   x67,W
04C06:  ANDLW  07
04C08:  MOVWF  x6D
04C0A:  MOVLW  01
04C0C:  MOVWF  00
04C0E:  MOVF   x6D,W
04C10:  MOVWF  01
04C12:  BZ    4C1C
04C14:  BCF    FD8.0
04C16:  RLCF   00,F
04C18:  DECFSZ 01,F
04C1A:  BRA    4C14
04C1C:  MOVF   00,W
04C1E:  IORWF  FEF,F
....................    } 
....................    else 
04C20:  BRA    4C4C
....................    { 
....................       bit_clear(*p, y%8); 
04C22:  MOVFF  66A,03
04C26:  MOVFF  669,FE9
04C2A:  MOVFF  66A,FEA
04C2E:  MOVF   x67,W
04C30:  ANDLW  07
04C32:  MOVWF  x6D
04C34:  MOVLW  01
04C36:  MOVWF  00
04C38:  MOVF   x6D,W
04C3A:  MOVWF  01
04C3C:  BZ    4C46
04C3E:  BCF    FD8.0
04C40:  RLCF   00,F
04C42:  DECFSZ 01,F
04C44:  BRA    4C3E
04C46:  MOVF   00,W
04C48:  XORLW  FF
04C4A:  ANDWF  FEF,F
....................    } 
.................... } 
04C4C:  MOVLB  0
04C4E:  RETLW  00
.................... #else 
.................... { 
....................    BYTE data; 
....................    int1 side = GLCD_LEFT;  // Stores which chip to use on the LCD 
....................  
....................    if(x > 63)              // Check for first or second display area 
....................    { 
....................       x -= 64; 
....................       side = GLCD_RIGHT; 
....................    } 
....................  
....................    output_low(GLCD_DI);                         // Set for instruction 
....................    bit_clear(x,7);                              // Clear the MSB. Part of an instruction code 
....................    bit_set(x,6);                                // Set bit 6. Also part of an instruction code 
....................    glcd_writeByte(side, x);                     // Set the horizontal address 
....................    glcd_writeByte(side, (y/8 & 0xBF) | 0xB8);   // Set the vertical page address 
....................    output_high(GLCD_DI);                        // Set for data 
....................    glcd_readByte(side);                         // Need two reads to get data 
....................    data = glcd_readByte(side);                  //  at new address 
....................  
....................    if(color == ON) 
....................       bit_set(data, y%8);        // Turn the pixel on 
....................    else                          // or 
....................       bit_clear(data, y%8);      // turn the pixel off 
....................  
....................    output_low(GLCD_DI);          // Set for instruction 
....................    glcd_writeByte(side, x);      // Set the horizontal address 
....................    output_high(GLCD_DI);         // Set for data 
....................    glcd_writeByte(side, data);   // Write the pixel data 
.................... } 
.................... #endif 
....................  
....................  
.................... // Purpose:    Fill the LCD screen with the passed in color 
.................... // Inputs:     ON  - turn all the pixels on 
.................... //             OFF - turn all the pixels off 
.................... void glcd_fillScreen(int1 color) 
.................... #ifdef FAST_GLCD 
.................... { 
....................    int8  data; 
....................    int8  *p1, *p2; 
....................    int16 i; 
....................  
....................    p1 = displayData.left; 
*
01582:  MOVLB  6
01584:  CLRF   x3D
01586:  MOVLW  16
01588:  MOVWF  x3C
....................    p2 = displayData.right; 
0158A:  MOVLW  02
0158C:  MOVWF  x3F
0158E:  MOVLW  16
01590:  MOVWF  x3E
....................    data = 0xFF * color; 
01592:  MOVF   x3A,W
01594:  MULLW  FF
01596:  MOVFF  FF3,63B
....................  
....................    for(i=0; i<512; ++i) 
0159A:  CLRF   x41
0159C:  CLRF   x40
0159E:  MOVF   x41,W
015A0:  SUBLW  01
015A2:  BNC   15D8
....................    { 
....................       *p1++ = data; 
015A4:  MOVFF  63D,03
015A8:  MOVF   x3C,W
015AA:  INCF   x3C,F
015AC:  BTFSC  FD8.2
015AE:  INCF   x3D,F
015B0:  MOVWF  FE9
015B2:  MOVFF  03,FEA
015B6:  MOVFF  63B,FEF
....................       *p2++ = data; 
015BA:  MOVFF  63F,03
015BE:  MOVF   x3E,W
015C0:  INCF   x3E,F
015C2:  BTFSC  FD8.2
015C4:  INCF   x3F,F
015C6:  MOVWF  FE9
015C8:  MOVFF  03,FEA
015CC:  MOVFF  63B,FEF
....................    } 
015D0:  INCF   x40,F
015D2:  BTFSC  FD8.2
015D4:  INCF   x41,F
015D6:  BRA    159E
.................... } 
015D8:  MOVLB  0
015DA:  RETLW  00
.................... #else 
.................... { 
....................    int8 i, j; 
....................  
....................    // Loop through the vertical pages 
....................    for(i = 0; i < 8; ++i) 
....................    { 
....................       output_low(GLCD_DI);                      // Set for instruction 
....................       glcd_writeByte(GLCD_LEFT, 0b01000000);    // Set horizontal address to 0 
....................       glcd_writeByte(GLCD_RIGHT, 0b01000000); 
....................       glcd_writeByte(GLCD_LEFT, i | 0b10111000);// Set page address 
....................       glcd_writeByte(GLCD_RIGHT, i | 0b10111000); 
....................       output_high(GLCD_DI);                     // Set for data 
....................  
....................       // Loop through the horizontal sections 
....................       for(j = 0; j < 64; ++j) 
....................       { 
....................          glcd_writeByte(GLCD_LEFT, 0xFF*color);  // Turn pixels on or off 
....................          glcd_writeByte(GLCD_RIGHT, 0xFF*color); // Turn pixels on or off 
....................       } 
....................    } 
.................... } 
.................... #endif 
....................  
....................  
.................... // Purpose:    Write a byte of data to the specified chip 
.................... // Inputs:     1) chipSelect - which chip to write the data to 
.................... //             2) data - the byte of data to write 
.................... void glcd_writeByte(int1 side, BYTE data) 
.................... { 
....................    if(side)                   // Choose which side to write to 
*
0154C:  MOVLB  6
0154E:  MOVF   x41,F
01550:  BZ    1558
....................       output_high(GLCD_CS2); 
01552:  BCF    F93.3
01554:  BSF    F8A.3
....................    else 
01556:  BRA    155C
....................       output_high(GLCD_CS1); 
01558:  BCF    F93.2
0155A:  BSF    F8A.2
....................  
....................    output_low(GLCD_RW);       // Set for writing 
0155C:  BCF    F93.6
0155E:  BCF    F8A.6
....................    output_d(data);            // Put the data on the port 
01560:  CLRF   F95
01562:  MOVFF  642,F8C
....................    delay_cycles(1); 
01566:  NOP   
....................    output_high(GLCD_E);       // Pulse the enable pin 
01568:  BCF    F93.7
0156A:  BSF    F8A.7
....................    delay_cycles(5); 
0156C:  BRA    156E
0156E:  BRA    1570
01570:  NOP   
....................    output_low(GLCD_E); 
01572:  BCF    F93.7
01574:  BCF    F8A.7
....................  
....................    output_low(GLCD_CS1);      // Reset the chip select lines 
01576:  BCF    F93.2
01578:  BCF    F8A.2
....................    output_low(GLCD_CS2); 
0157A:  BCF    F93.3
0157C:  BCF    F8A.3
.................... } 
0157E:  MOVLB  0
01580:  RETLW  00
....................  
....................  
.................... // Purpose:    Reads a byte of data from the specified chip 
.................... // Ouputs:     A byte of data read from the chip 
.................... BYTE glcd_readByte(int1 side) 
.................... { 
....................    BYTE data;                 // Stores the data read from the LCD 
....................  
....................    set_tris_d(0xFF);          // Set port d to input 
....................    output_high(GLCD_RW);      // Set for reading 
....................  
....................    if(side)                   // Choose which side to write to 
....................       output_high(GLCD_CS2); 
....................    else 
....................       output_high(GLCD_CS1); 
....................  
....................    delay_cycles(1); 
....................    output_high(GLCD_E);       // Pulse the enable pin 
....................    delay_cycles(4); 
....................    data = input_d();          // Get the data from the display's output register 
....................    output_low(GLCD_E); 
....................  
....................    output_low(GLCD_CS1);      // Reset the chip select lines 
....................    output_low(GLCD_CS2); 
....................    return data;               // Return the read data 
.................... } 
....................  
.................... #endif 
....................  
.................... #include "GRAPHICS.c" 
.................... ///////////////////////////////////////////////////////////////////////// 
.................... ////                          graphics.c                             //// 
.................... ////                                                                 //// 
.................... ////   This file contains functions to draw lines, rectangles, bars, //// 
.................... ////   circles and text to a display. A function which draws a       //// 
.................... ////   single pixel must be defined before calling the functions in  //// 
.................... ////   this file. Call it glcd_pixel(x, y, color) where x is the     //// 
.................... ////   horizontal coordinate, y is the vertical coordinate, and      //// 
.................... ////   color is 1 bit to turn the pixel on or off.                   //// 
.................... ////                                                                 //// 
.................... ////   * Note: (0, 0) is treated as the upper left corner            //// 
.................... ////                                                                 //// 
.................... ///////////////////////////////////////////////////////////////////////// 
.................... ////                                                                 //// 
.................... ////  glcd_line(x1, y1, x2, y2, color)                               //// 
.................... ////     * Draws a line from the first point to the second point     //// 
.................... ////       with the given color                                      //// 
.................... ////       - color can be ON or OFF                                  //// 
.................... ////                                                                 //// 
.................... ////  glcd_rect(x1, y1, x2, y2, fill, color)                         //// 
.................... ////     * Draws a rectangle with one corner at point (x1,y1) and    //// 
.................... ////       the other corner at point (x2,y2)                         //// 
.................... ////       - fill can be YES or NO                                   //// 
.................... ////       - color can be ON or OFF                                  //// 
.................... ////                                                                 //// 
.................... ////  glcd_bar(x1, y1, x2, y2, width, color)                         //// 
.................... ////     * Draws a bar (wide line) from the first point to the       //// 
.................... ////       second point                                              //// 
.................... ////       - width is the number of pixels wide                      //// 
.................... ////       - color is ON or OFF                                      //// 
.................... ////                                                                 //// 
.................... ////  glcd_circle(x, y, radius, fill, color)                         //// 
.................... ////     * Draws a circle with center at (x,y)                       //// 
.................... ////       - fill can be YES or NO                                   //// 
.................... ////       - color can be ON or OFF                                  //// 
.................... ////                                                                 //// 
.................... ////  glcd_text57(x, y, textptr, size, color)                        //// 
.................... ////     * Write the null terminated text pointed to by textptr with //// 
.................... ////       the upper left coordinate of the first character at (x,y) //// 
.................... ////       Characters are 5 pixels wide and 7 pixels tall            //// 
.................... ////       - size is an integer that scales the size of the text     //// 
.................... ////       - color is ON or OFF                                      //// 
.................... ////     * Note - This function wraps characters to the next line    //// 
.................... ////              use #define GLCD_WIDTH to specify a display width  //// 
.................... ////                                                                 //// 
.................... ///////////////////////////////////////////////////////////////////////// 
.................... ////        (C) Copyright 1996, 2004 Custom Computer Services        //// 
.................... //// This source code may only be used by licensed users of the CCS  //// 
.................... //// C compiler.  This source code may only be distributed to other  //// 
.................... //// licensed users of the CCS C compiler.  No other use,            //// 
.................... //// reproduction or distribution is permitted without written       //// 
.................... //// permission.  Derivative programs created using this software    //// 
.................... //// in object code form are not restricted in any way.              //// 
.................... ///////////////////////////////////////////////////////////////////////// 
....................  
....................  
.................... ///////////////////////////////////////////////////////////////////////// 
.................... #ifndef GRAPHICS_DRAWING_FUNCTIONS 
.................... #define GRAPHICS_DRAWING_FUNCTIONS 
.................... ///////////////////////////////////////////////////////////////////////// 
....................  
....................  
.................... ///////////////////////////////////////////////////////////////////////// 
.................... #ifndef ON 
.................... #define ON  1 
.................... #endif 
....................  
.................... #ifndef OFF 
.................... #define OFF 0 
.................... #endif 
....................  
.................... #ifndef YES 
.................... #define YES 1 
.................... #endif 
....................  
.................... #ifndef NO 
.................... #define NO  0 
.................... #endif 
.................... ///////////////////////////////////////////////////////////////////////// 
....................  
....................  
.................... ///////////////////////////////////////////////////////////////////////// 
.................... //// Defines a 5x7 font 
.................... ///////////////////////////////////////////////////////////////////////// 
.................... const int8 FONT[51][5] ={0x00, 0x00, 0x00, 0x00, 0x00, // SPACE 
....................                          0x00, 0x00, 0x5F, 0x00, 0x00, // ! 
....................                          0x00, 0x03, 0x00, 0x03, 0x00, // " 
....................                          0x14, 0x3E, 0x14, 0x3E, 0x14, // # 
....................                          0x24, 0x2A, 0x7F, 0x2A, 0x12, // $ 
....................                          0x43, 0x33, 0x08, 0x66, 0x61, // % 
....................                          0x36, 0x49, 0x55, 0x22, 0x50, // & 
....................                          0x00, 0x05, 0x03, 0x00, 0x00, // ' 
....................                          0x00, 0x1C, 0x22, 0x41, 0x00, // ( 
....................                          0x00, 0x41, 0x22, 0x1C, 0x00, // ) 
....................                          0x14, 0x08, 0x3E, 0x08, 0x14, // * 
....................                          0x08, 0x08, 0x3E, 0x08, 0x08, // + 
....................                          0x00, 0x50, 0x30, 0x00, 0x00, // , 
....................                          0x08, 0x08, 0x08, 0x08, 0x08, // - 
....................                          0x00, 0x60, 0x60, 0x00, 0x00, // . 
....................                          0x20, 0x10, 0x08, 0x04, 0x02, // / 
....................                          0x3E, 0x51, 0x49, 0x45, 0x3E, // 0 
....................                          0x00, 0x04, 0x02, 0x7F, 0x00, // 1 
....................                          0x42, 0x61, 0x51, 0x49, 0x46, // 2 
....................                          0x22, 0x41, 0x49, 0x49, 0x36, // 3 
....................                          0x18, 0x14, 0x12, 0x7F, 0x10, // 4 
....................                          0x27, 0x45, 0x45, 0x45, 0x39, // 5 
....................                          0x3E, 0x49, 0x49, 0x49, 0x32, // 6 
....................                          0x01, 0x01, 0x71, 0x09, 0x07, // 7 
....................                          0x36, 0x49, 0x49, 0x49, 0x36, // 8 
....................                          0x26, 0x49, 0x49, 0x49, 0x3E, // 9 
....................                          0x00, 0x36, 0x36, 0x00, 0x00, // : 
....................                          0x00, 0x56, 0x36, 0x00, 0x00, // ; 
....................                          0x08, 0x14, 0x22, 0x41, 0x00, // < 
....................                          0x14, 0x14, 0x14, 0x14, 0x14, // = 
....................                          0x00, 0x41, 0x22, 0x14, 0x08, // > 
....................                          0x02, 0x01, 0x51, 0x09, 0x06, // ? 
....................                          0x3E, 0x41, 0x59, 0x55, 0x5E, // @ 
....................                          0x7E, 0x09, 0x09, 0x09, 0x7E, // A 
....................                          0x7F, 0x49, 0x49, 0x49, 0x36, // B 
....................                          0x3E, 0x41, 0x41, 0x41, 0x22, // C 
....................                          0x7F, 0x41, 0x41, 0x41, 0x3E, // D 
....................                          0x7F, 0x49, 0x49, 0x49, 0x41, // E 
....................                          0x7F, 0x09, 0x09, 0x09, 0x01, // F 
....................                          0x3E, 0x41, 0x41, 0x49, 0x3A, // G 
....................                          0x7F, 0x08, 0x08, 0x08, 0x7F, // H 
....................                          0x00, 0x41, 0x7F, 0x41, 0x00, // I 
....................                          0x30, 0x40, 0x40, 0x40, 0x3F, // J 
....................                          0x7F, 0x08, 0x14, 0x22, 0x41, // K 
....................                          0x7F, 0x40, 0x40, 0x40, 0x40, // L 
....................                          0x7F, 0x02, 0x0C, 0x02, 0x7F, // M 
....................                          0x7F, 0x02, 0x04, 0x08, 0x7F, // N 
....................                          0x3E, 0x41, 0x41, 0x41, 0x3E, // O 
....................                          0x7F, 0x09, 0x09, 0x09, 0x06, // P 
....................                          0x1E, 0x21, 0x21, 0x21, 0x5E, // Q 
....................                          0x7F, 0x09, 0x09, 0x09, 0x76};// R 
....................  
.................... const int8 FONT2[44][5]={0x26, 0x49, 0x49, 0x49, 0x32, // S 
....................                          0x01, 0x01, 0x7F, 0x01, 0x01, // T 
....................                          0x3F, 0x40, 0x40, 0x40, 0x3F, // U 
....................                          0x1F, 0x20, 0x40, 0x20, 0x1F, // V 
....................                          0x7F, 0x20, 0x10, 0x20, 0x7F, // W 
....................                          0x41, 0x22, 0x1C, 0x22, 0x41, // X 
....................                          0x07, 0x08, 0x70, 0x08, 0x07, // Y 
....................                          0x61, 0x51, 0x49, 0x45, 0x43, // Z 
....................                          0x00, 0x7F, 0x41, 0x00, 0x00, // [ 
....................                          0x02, 0x04, 0x08, 0x10, 0x20, // \ 
....................                          0x00, 0x00, 0x41, 0x7F, 0x00, // ] 
....................                          0x04, 0x02, 0x01, 0x02, 0x04, // ^ 
....................                          0x40, 0x40, 0x40, 0x40, 0x40, // _ 
....................                          0x00, 0x01, 0x02, 0x04, 0x00, // ` 
....................                          0x20, 0x54, 0x54, 0x54, 0x78, // a 
....................                          0x7F, 0x44, 0x44, 0x44, 0x38, // b 
....................                          0x38, 0x44, 0x44, 0x44, 0x44, // c 
....................                          0x38, 0x44, 0x44, 0x44, 0x7F, // d 
....................                          0x38, 0x54, 0x54, 0x54, 0x18, // e 
....................                          0x04, 0x04, 0x7E, 0x05, 0x05, // f 
....................                          0x08, 0x54, 0x54, 0x54, 0x3C, // g 
....................                          0x7F, 0x08, 0x04, 0x04, 0x78, // h 
....................                          0x00, 0x44, 0x7D, 0x40, 0x00, // i 
....................                          0x20, 0x40, 0x44, 0x3D, 0x00, // j 
....................                          0x7F, 0x10, 0x28, 0x44, 0x00, // k 
....................                          0x00, 0x41, 0x7F, 0x40, 0x00, // l 
....................                          0x7C, 0x04, 0x78, 0x04, 0x78, // m 
....................                          0x7C, 0x08, 0x04, 0x04, 0x78, // n 
....................                          0x38, 0x44, 0x44, 0x44, 0x38, // o 
....................                          0x7C, 0x14, 0x14, 0x14, 0x08, // p 
....................                          0x08, 0x14, 0x14, 0x14, 0x7C, // q 
....................                          0x00, 0x7C, 0x08, 0x04, 0x04, // r 
....................                          0x48, 0x54, 0x54, 0x54, 0x20, // s 
....................                          0x04, 0x04, 0x3F, 0x44, 0x44, // t 
....................                          0x3C, 0x40, 0x40, 0x20, 0x7C, // u 
....................                          0x1C, 0x20, 0x40, 0x20, 0x1C, // v 
....................                          0x3C, 0x40, 0x30, 0x40, 0x3C, // w 
....................                          0x44, 0x28, 0x10, 0x28, 0x44, // x 
....................                          0x0C, 0x50, 0x50, 0x50, 0x3C, // y 
....................                          0x44, 0x64, 0x54, 0x4C, 0x44, // z 
....................                          0x00, 0x08, 0x36, 0x41, 0x41, // { 
....................                          0x00, 0x00, 0x7F, 0x00, 0x00, // | 
....................                          0x41, 0x41, 0x36, 0x08, 0x00, // } 
....................                          0x02, 0x01, 0x02, 0x04, 0x02};// ~ 
.................... ///////////////////////////////////////////////////////////////////////// 
....................  
....................  
.................... ///////////////////////////////////////////////////////////////////////// 
.................... // Purpose:       Draw a line on a graphic LCD using Bresenham's 
.................... //                line drawing algorithm 
.................... // Inputs:        (x1, y1) - the start coordinate 
.................... //                (x2, y2) - the end coordinate 
.................... //                color - ON or OFF 
.................... // Dependencies:  glcd_pixel() 
.................... ///////////////////////////////////////////////////////////////////////// 
.................... #ifdef LARGE_LCD 
.................... void glcd_line(int16 x1, int16 y1, int16 x2, int16 y2, int1 color) 
.................... #else 
.................... void glcd_line(int8 x1, int8 y1, int8 x2, int8 y2, int1 color) 
.................... #endif 
.................... { 
*
04C50:  MOVLW  01
04C52:  MOVLB  6
04C54:  MOVWF  x5F
04C56:  MOVWF  x60
04C58:  CLRF   x65
....................    int16        dy, dx; 
....................    signed int8  addx=1, addy=1; 
....................    signed int16 P, diff; 
....................  
....................    #ifdef LARGE_LCD 
....................    int16 i=0; 
....................    dx = abs((signed int16)(x2 - x1)); 
....................    dy = abs((signed int16)(y2 - y1)); 
....................    #else 
....................    int8 i=0; 
....................    dx = abs((signed int8)(x2 - x1)); 
04C5A:  MOVF   x56,W
04C5C:  SUBWF  x58,W
04C5E:  MOVWF  x66
04C60:  MOVF   x66,W
04C62:  BTFSS  x66.7
04C64:  BRA    4C6C
04C66:  MOVLW  00
04C68:  BSF    FD8.0
04C6A:  SUBFWB x66,W
04C6C:  CLRF   03
04C6E:  MOVWF  x5D
04C70:  MOVFF  03,65E
....................    dy = abs((signed int8)(y2 - y1)); 
04C74:  MOVF   x57,W
04C76:  SUBWF  x59,W
04C78:  MOVWF  x66
04C7A:  MOVF   x66,W
04C7C:  BTFSS  x66.7
04C7E:  BRA    4C86
04C80:  MOVLW  00
04C82:  BSF    FD8.0
04C84:  SUBFWB x66,W
04C86:  CLRF   03
04C88:  MOVWF  x5B
04C8A:  MOVFF  03,65C
....................    #endif 
....................  
....................    if(x1 > x2) 
04C8E:  MOVF   x56,W
04C90:  SUBWF  x58,W
04C92:  BC    4C98
....................       addx = -1; 
04C94:  MOVLW  FF
04C96:  MOVWF  x5F
....................    if(y1 > y2) 
04C98:  MOVF   x57,W
04C9A:  SUBWF  x59,W
04C9C:  BC    4CA2
....................       addy = -1; 
04C9E:  MOVLW  FF
04CA0:  MOVWF  x60
....................  
....................    if(dx >= dy) 
04CA2:  MOVF   x5C,W
04CA4:  SUBWF  x5E,W
04CA6:  BNC   4D1E
04CA8:  BNZ   4CB0
04CAA:  MOVF   x5B,W
04CAC:  SUBWF  x5D,W
04CAE:  BNC   4D1E
....................    { 
....................       dy *= 2; 
04CB0:  BCF    FD8.0
04CB2:  RLCF   x5B,F
04CB4:  RLCF   x5C,F
....................       P = dy - dx; 
04CB6:  MOVF   x5D,W
04CB8:  SUBWF  x5B,W
04CBA:  MOVWF  00
04CBC:  MOVF   x5E,W
04CBE:  SUBWFB x5C,W
04CC0:  MOVFF  00,661
04CC4:  MOVWF  x62
....................       diff = P - dx; 
04CC6:  MOVF   x5D,W
04CC8:  SUBWF  x61,W
04CCA:  MOVWF  x63
04CCC:  MOVF   x5E,W
04CCE:  SUBWFB x62,W
04CD0:  MOVWF  x64
....................  
....................       for(; i<=dx; ++i) 
04CD2:  MOVF   x5E,F
04CD4:  BNZ   4CDC
04CD6:  MOVF   x65,W
04CD8:  SUBWF  x5D,W
04CDA:  BNC   4D1C
....................       { 
....................          glcd_pixel(x1, y1, color); 
04CDC:  MOVFF  656,666
04CE0:  MOVFF  657,667
04CE4:  MOVFF  65A,668
04CE8:  MOVLB  0
04CEA:  RCALL  4B94
....................  
....................          if(P < 0) 
04CEC:  MOVLB  6
04CEE:  BTFSC  x62.7
04CF0:  BRA    4CF4
04CF2:  BRA    4D04
....................          { 
....................             P  += dy; 
04CF4:  MOVF   x5B,W
04CF6:  ADDWF  x61,F
04CF8:  MOVF   x5C,W
04CFA:  ADDWFC x62,F
....................             x1 += addx; 
04CFC:  MOVF   x5F,W
04CFE:  ADDWF  x56,W
04D00:  MOVWF  x56
....................          } 
....................          else 
04D02:  BRA    4D18
....................          { 
....................             P  += diff; 
04D04:  MOVF   x63,W
04D06:  ADDWF  x61,F
04D08:  MOVF   x64,W
04D0A:  ADDWFC x62,F
....................             x1 += addx; 
04D0C:  MOVF   x5F,W
04D0E:  ADDWF  x56,W
04D10:  MOVWF  x56
....................             y1 += addy; 
04D12:  MOVF   x60,W
04D14:  ADDWF  x57,W
04D16:  MOVWF  x57
....................          } 
....................       } 
04D18:  INCF   x65,F
04D1A:  BRA    4CD2
....................    } 
....................    else 
04D1C:  BRA    4D8A
....................    { 
....................       dx *= 2; 
04D1E:  BCF    FD8.0
04D20:  RLCF   x5D,F
04D22:  RLCF   x5E,F
....................       P = dx - dy; 
04D24:  MOVF   x5B,W
04D26:  SUBWF  x5D,W
04D28:  MOVWF  00
04D2A:  MOVF   x5C,W
04D2C:  SUBWFB x5E,W
04D2E:  MOVFF  00,661
04D32:  MOVWF  x62
....................       diff = P - dy; 
04D34:  MOVF   x5B,W
04D36:  SUBWF  x61,W
04D38:  MOVWF  x63
04D3A:  MOVF   x5C,W
04D3C:  SUBWFB x62,W
04D3E:  MOVWF  x64
....................  
....................       for(; i<=dy; ++i) 
04D40:  MOVF   x5C,F
04D42:  BNZ   4D4A
04D44:  MOVF   x65,W
04D46:  SUBWF  x5B,W
04D48:  BNC   4D8A
....................       { 
....................          glcd_pixel(x1, y1, color); 
04D4A:  MOVFF  656,666
04D4E:  MOVFF  657,667
04D52:  MOVFF  65A,668
04D56:  MOVLB  0
04D58:  RCALL  4B94
....................  
....................          if(P < 0) 
04D5A:  MOVLB  6
04D5C:  BTFSC  x62.7
04D5E:  BRA    4D62
04D60:  BRA    4D72
....................          { 
....................             P  += dx; 
04D62:  MOVF   x5D,W
04D64:  ADDWF  x61,F
04D66:  MOVF   x5E,W
04D68:  ADDWFC x62,F
....................             y1 += addy; 
04D6A:  MOVF   x60,W
04D6C:  ADDWF  x57,W
04D6E:  MOVWF  x57
....................          } 
....................          else 
04D70:  BRA    4D86
....................          { 
....................             P  += diff; 
04D72:  MOVF   x63,W
04D74:  ADDWF  x61,F
04D76:  MOVF   x64,W
04D78:  ADDWFC x62,F
....................             x1 += addx; 
04D7A:  MOVF   x5F,W
04D7C:  ADDWF  x56,W
04D7E:  MOVWF  x56
....................             y1 += addy; 
04D80:  MOVF   x60,W
04D82:  ADDWF  x57,W
04D84:  MOVWF  x57
....................          } 
....................       } 
04D86:  INCF   x65,F
04D88:  BRA    4D40
....................    } 
.................... } 
04D8A:  MOVLB  0
04D8C:  RETLW  00
....................  
....................  
.................... ///////////////////////////////////////////////////////////////////////// 
.................... // Purpose:       Draw a rectangle on a graphic LCD 
.................... // Inputs:        (x1, y1) - the start coordinate 
.................... //                (x2, y2) - the end coordinate 
.................... //                fill  - YES or NO 
.................... //                color - ON or OFF 
.................... // Dependencies:  glcd_pixel(), glcd_line() 
.................... ///////////////////////////////////////////////////////////////////////// 
.................... #ifdef LARGE_LCD 
.................... void glcd_rect(int16 x1, int16 y1, int16 x2, int16 y2, int1 fill, int1 color) 
.................... #else 
.................... void glcd_rect(int8 x1, int8 y1, int8 x2, int8 y2, int1 fill, int1 color) 
.................... #endif 
.................... { 
....................    if(fill) 
04D8E:  MOVLB  6
04D90:  MOVF   x4F,F
04D92:  BZ    4DF0
....................    { 
....................       #ifdef LARGE_LCD 
....................       int16 i, xmin, xmax, ymin, ymax; 
....................       #else 
....................       int8  i, xmin, xmax, ymin, ymax; 
....................       #endif 
....................  
....................       if(x1 < x2)                            //  Find x min and max 
04D94:  MOVF   x4D,W
04D96:  SUBWF  x4B,W
04D98:  BC    4DA4
....................       { 
....................          xmin = x1; 
04D9A:  MOVFF  64B,652
....................          xmax = x2; 
04D9E:  MOVFF  64D,653
....................       } 
....................       else 
04DA2:  BRA    4DAC
....................       { 
....................          xmin = x2; 
04DA4:  MOVFF  64D,652
....................          xmax = x1; 
04DA8:  MOVFF  64B,653
....................       } 
....................  
....................       if(y1 < y2)                            // Find the y min and max 
04DAC:  MOVF   x4E,W
04DAE:  SUBWF  x4C,W
04DB0:  BC    4DBC
....................       { 
....................          ymin = y1; 
04DB2:  MOVFF  64C,654
....................          ymax = y2; 
04DB6:  MOVFF  64E,655
....................       } 
....................       else 
04DBA:  BRA    4DC4
....................       { 
....................          ymin = y2; 
04DBC:  MOVFF  64E,654
....................          ymax = y1; 
04DC0:  MOVFF  64C,655
....................       } 
....................  
....................       for(; xmin <= xmax; ++xmin) 
04DC4:  MOVF   x52,W
04DC6:  SUBWF  x53,W
04DC8:  BNC   4DEE
....................       { 
....................          for(i=ymin; i<=ymax; ++i) 
04DCA:  MOVFF  654,651
04DCE:  MOVF   x51,W
04DD0:  SUBWF  x55,W
04DD2:  BNC   4DEA
....................          { 
....................             glcd_pixel(xmin, i, color); 
04DD4:  MOVFF  652,666
04DD8:  MOVFF  651,667
04DDC:  MOVFF  650,668
04DE0:  MOVLB  0
04DE2:  RCALL  4B94
....................          } 
04DE4:  MOVLB  6
04DE6:  INCF   x51,F
04DE8:  BRA    4DCE
....................       } 
04DEA:  INCF   x52,F
04DEC:  BRA    4DC4
....................    } 
....................    else 
04DEE:  BRA    4E4C
....................    { 
....................       glcd_line(x1, y1, x2, y1, color);      // Draw the 4 sides 
04DF0:  MOVFF  64B,656
04DF4:  MOVFF  64C,657
04DF8:  MOVFF  64D,658
04DFC:  MOVFF  64C,659
04E00:  MOVFF  650,65A
04E04:  MOVLB  0
04E06:  RCALL  4C50
....................       glcd_line(x1, y2, x2, y2, color); 
04E08:  MOVFF  64B,656
04E0C:  MOVFF  64E,657
04E10:  MOVFF  64D,658
04E14:  MOVFF  64E,659
04E18:  MOVFF  650,65A
04E1C:  RCALL  4C50
....................       glcd_line(x1, y1, x1, y2, color); 
04E1E:  MOVFF  64B,656
04E22:  MOVFF  64C,657
04E26:  MOVFF  64B,658
04E2A:  MOVFF  64E,659
04E2E:  MOVFF  650,65A
04E32:  RCALL  4C50
....................       glcd_line(x2, y1, x2, y2, color); 
04E34:  MOVFF  64D,656
04E38:  MOVFF  64C,657
04E3C:  MOVFF  64D,658
04E40:  MOVFF  64E,659
04E44:  MOVFF  650,65A
04E48:  RCALL  4C50
04E4A:  MOVLB  6
....................    } 
.................... } 
04E4C:  MOVLB  0
04E4E:  RETLW  00
....................  
.................... ///////////////////////////////////////////////////////////////////////// 
.................... // Purpose:       Draw a bar (wide line) on a graphic LCD 
.................... // Inputs:        (x1, y1) - the start coordinate 
.................... //                (x2, y2) - the end coordinate 
.................... //                width  - The number of pixels wide 
.................... //                color - ON or OFF 
.................... ///////////////////////////////////////////////////////////////////////// 
.................... #ifdef LARGE_LCD 
.................... void glcd_bar(int16 x1, int16 y1, int16 x2, int16 y2, int8 width, int1 color) 
.................... #else 
.................... void glcd_bar(int8 x1, int8 y1, int8 x2, int8 y2, int8 width, int1 color) 
.................... #endif 
.................... { 
....................    int8         half_width; 
....................    signed int16 dy, dx; 
....................    signed int8  addx=1, addy=1, j; 
....................    signed int16 P, diff, c1, c2; 
....................  
....................    #ifdef LARGE_LCD 
....................    int16 i=0; 
....................    dx = abs((signed int16)(x2 - x1)); 
....................    dy = abs((signed int16)(y2 - y1)); 
....................    #else 
....................    int8 i=0; 
....................    dx = abs((signed int8)(x2 - x1)); 
....................    dy = abs((signed int8)(y2 - y1)); 
....................    #endif 
....................  
....................    half_width = width/2; 
....................    c1 = -(dx*x1 + dy*y1); 
....................    c2 = -(dx*x2 + dy*y2); 
....................  
....................    if(x1 > x2) 
....................    { 
....................       signed int16 temp; 
....................       temp = c1; 
....................       c1 = c2; 
....................       c2 = temp; 
....................       addx = -1; 
....................    } 
....................    if(y1 > y2) 
....................    { 
....................       signed int16 temp; 
....................       temp = c1; 
....................       c1 = c2; 
....................       c2 = temp; 
....................       addy = -1; 
....................    } 
....................  
....................    if(dx >= dy) 
....................    { 
....................       P = 2*dy - dx; 
....................       diff = P - dx; 
....................  
....................       for(i=0; i<=dx; ++i) 
....................       { 
....................          for(j=-half_width; j<half_width+width%2; ++j) 
....................          { 
....................             #ifdef LARGE_LCD 
....................             int16 temp; 
....................             #else 
....................             int8 temp; 
....................             #endif 
....................  
....................             temp = dx*x1+dy*(y1+j);    // Use more RAM to increase speed 
....................             if(temp+c1 >= 0 && temp+c2 <=0) 
....................                glcd_pixel(x1, y1+j, color); 
....................          } 
....................          if(P < 0) 
....................          { 
....................             P  += 2*dy; 
....................             x1 += addx; 
....................          } 
....................          else 
....................          { 
....................             P  += diff; 
....................             x1 += addx; 
....................             y1 += addy; 
....................          } 
....................       } 
....................    } 
....................    else 
....................    { 
....................       P = 2*dx - dy; 
....................       diff = P - dy; 
....................  
....................       for(i=0; i<=dy; ++i) 
....................       { 
....................          if(P < 0) 
....................          { 
....................             P  += 2*dx; 
....................             y1 += addy; 
....................          } 
....................          else 
....................          { 
....................             P  += diff; 
....................             x1 += addx; 
....................             y1 += addy; 
....................          } 
....................          for(j=-half_width; j<half_width+width%2; ++j) 
....................          { 
....................             #ifdef LARGE_LCD 
....................             int16 temp; 
....................             #else 
....................             int8 temp; 
....................             #endif 
....................  
....................             temp = dx*x1+dy*(y1+j);    // Use more RAM to increase speed 
....................             if(temp+c1 >= 0 && temp+c2 <=0) 
....................                glcd_pixel(x1+j, y1, color); 
....................          } 
....................       } 
....................    } 
.................... } 
....................  
....................  
.................... ///////////////////////////////////////////////////////////////////////// 
.................... // Purpose:       Draw a circle on a graphic LCD 
.................... // Inputs:        (x,y) - the center of the circle 
.................... //                radius - the radius of the circle 
.................... //                fill - YES or NO 
.................... //                color - ON or OFF 
.................... ///////////////////////////////////////////////////////////////////////// 
.................... #ifdef LARGE_LCD 
.................... void glcd_circle(int16 x, int16 y, int16 radius, int1 fill, int1 color) 
.................... #else 
.................... void glcd_circle(int8 x, int8 y, int8 radius, int1 fill, int1 color) 
.................... #endif 
.................... { 
....................    #ifdef LARGE_LCD 
....................    signed int16 a, b, P; 
....................    #else 
....................    signed int8  a, b, P; 
....................    #endif 
....................  
....................    a = 0; 
....................    b = radius; 
....................    P = 1 - radius; 
....................  
....................    do 
....................    { 
....................       if(fill) 
....................       { 
....................          glcd_line(x-a, y+b, x+a, y+b, color); 
....................          glcd_line(x-a, y-b, x+a, y-b, color); 
....................          glcd_line(x-b, y+a, x+b, y+a, color); 
....................          glcd_line(x-b, y-a, x+b, y-a, color); 
....................       } 
....................       else 
....................       { 
....................          glcd_pixel(a+x, b+y, color); 
....................          glcd_pixel(b+x, a+y, color); 
....................          glcd_pixel(x-a, b+y, color); 
....................          glcd_pixel(x-b, a+y, color); 
....................          glcd_pixel(b+x, y-a, color); 
....................          glcd_pixel(a+x, y-b, color); 
....................          glcd_pixel(x-a, y-b, color); 
....................          glcd_pixel(x-b, y-a, color); 
....................       } 
....................  
....................       if(P < 0) 
....................          P += 3 + 2 * a++; 
....................       else 
....................          P += 5 + 2 * (a++ - b--); 
....................     } while(a <= b); 
.................... } 
....................  
....................  
.................... ///////////////////////////////////////////////////////////////////////// 
.................... // Purpose:       Write text on a graphic LCD 
.................... // Inputs:        (x,y) - The upper left coordinate of the first letter 
.................... //                textptr - A pointer to an array of text to display 
.................... //                size - The size of the text: 1 = 5x7, 2 = 10x14, ... 
.................... //                color - ON or OFF 
.................... ///////////////////////////////////////////////////////////////////////// 
.................... #ifdef LARGE_LCD 
.................... void glcd_text57(int16 x, int16 y, char* textptr, int8 size, int1 color) 
.................... #else 
.................... void glcd_text57(int8 x, int8 y, char* textptr, int8 size, int1 color) 
.................... #endif 
.................... { 
....................    int8 j, k, l, m;                       // Loop counters 
....................    int8 pixelData[5];                     // Stores character data 
....................  
....................    for(; *textptr != '\0'; ++textptr, ++x)// Loop through the passed string 
04E50:  MOVFF  64E,03
04E54:  MOVLB  6
04E56:  MOVFF  64D,FE9
04E5A:  MOVFF  64E,FEA
04E5E:  MOVF   FEF,F
04E60:  BTFSC  FD8.2
04E62:  BRA    5004
....................    { 
....................       if(*textptr < 'S') // Checks if the letter is in the first font array 
04E64:  MOVFF  64E,03
04E68:  MOVFF  64D,FE9
04E6C:  MOVFF  64E,FEA
04E70:  MOVF   FEF,W
04E72:  SUBLW  52
04E74:  BNC   4EC4
....................          memcpy(pixelData, FONT[*textptr - ' '], 5); 
04E76:  MOVFF  64E,03
04E7A:  MOVFF  64D,FE9
04E7E:  MOVFF  64E,FEA
04E82:  MOVLW  20
04E84:  SUBWF  FEF,W
04E86:  MULLW  05
04E88:  MOVF   FF3,W
04E8A:  CLRF   03
04E8C:  MOVWF  x5A
04E8E:  MOVLW  06
04E90:  MOVWF  FEA
04E92:  MOVLW  55
04E94:  MOVWF  FE9
04E96:  CLRF   x5E
04E98:  MOVFF  65A,65D
04E9C:  MOVFF  FF2,65B
04EA0:  BCF    FF2.7
04EA2:  MOVLW  05
04EA4:  MOVWF  01
04EA6:  CLRF   FF7
04EA8:  MOVF   x5A,W
04EAA:  MOVLB  0
04EAC:  CALL   0096
04EB0:  TBLRD*-
04EB2:  TBLRD*+
04EB4:  MOVFF  FF5,FEE
04EB8:  DECFSZ 01,F
04EBA:  BRA    4EB2
04EBC:  MOVLB  6
04EBE:  BTFSC  x5B.7
04EC0:  BSF    FF2.7
....................       else if(*textptr <= '~') // Check if the letter is in the second font array 
04EC2:  BRA    4F2E
04EC4:  MOVFF  64E,03
04EC8:  MOVFF  64D,FE9
04ECC:  MOVFF  64E,FEA
04ED0:  MOVF   FEF,W
04ED2:  SUBLW  7E
04ED4:  BNC   4F24
....................          memcpy(pixelData, FONT2[*textptr - 'S'], 5); 
04ED6:  MOVFF  64E,03
04EDA:  MOVFF  64D,FE9
04EDE:  MOVFF  64E,FEA
04EE2:  MOVLW  53
04EE4:  SUBWF  FEF,W
04EE6:  MULLW  05
04EE8:  MOVF   FF3,W
04EEA:  CLRF   03
04EEC:  MOVWF  x5A
04EEE:  MOVLW  06
04EF0:  MOVWF  FEA
04EF2:  MOVLW  55
04EF4:  MOVWF  FE9
04EF6:  CLRF   x5E
04EF8:  MOVFF  65A,65D
04EFC:  MOVFF  FF2,65B
04F00:  BCF    FF2.7
04F02:  MOVLW  05
04F04:  MOVWF  01
04F06:  CLRF   FF7
04F08:  MOVF   x5A,W
04F0A:  MOVLB  0
04F0C:  CALL   01B0
04F10:  TBLRD*-
04F12:  TBLRD*+
04F14:  MOVFF  FF5,FEE
04F18:  DECFSZ 01,F
04F1A:  BRA    4F12
04F1C:  MOVLB  6
04F1E:  BTFSC  x5B.7
04F20:  BSF    FF2.7
....................       else 
04F22:  BRA    4F2E
....................          memcpy(pixelData, FONT[0], 5);   // Default to space 
04F24:  CLRF   x55
04F26:  CLRF   x56
04F28:  CLRF   x57
04F2A:  CLRF   x58
04F2C:  CLRF   x59
....................  
....................       // Handles newline and carriage returns 
....................       switch(*textptr) 
....................       { 
04F2E:  MOVFF  64E,03
04F32:  MOVF   x4D,W
04F34:  MOVWF  FE9
04F36:  MOVFF  03,FEA
04F3A:  MOVF   FEF,W
04F3C:  XORLW  0A
04F3E:  MOVLB  0
04F40:  BZ    4F48
04F42:  XORLW  07
04F44:  BZ    4F58
04F46:  BRA    4F5E
....................          case '\n': 
....................             y += 7*size + 1; 
04F48:  MOVLB  6
04F4A:  MOVF   x4F,W
04F4C:  MULLW  07
04F4E:  MOVF   FF3,W
04F50:  ADDLW  01
04F52:  ADDWF  x4C,F
....................             continue; 
04F54:  BRA    4FF6
04F56:  MOVLB  0
....................          case '\r': 
....................             x = 0; 
04F58:  MOVLB  6
04F5A:  CLRF   x4B
....................             continue; 
04F5C:  BRA    4FF6
....................       } 
....................  
....................       if(x+5*size >= GLCD_WIDTH)          // Performs character wrapping 
04F5E:  MOVLB  6
04F60:  MOVF   x4F,W
04F62:  MULLW  05
04F64:  MOVF   FF3,W
04F66:  ADDWF  x4B,W
04F68:  SUBLW  7F
04F6A:  BC    4F78
....................       { 
....................          x = 0;                           // Set x at far left position 
04F6C:  CLRF   x4B
....................          y += 7*size + 1;                 // Set y at next position down 
04F6E:  MOVF   x4F,W
04F70:  MULLW  07
04F72:  MOVF   FF3,W
04F74:  ADDLW  01
04F76:  ADDWF  x4C,F
....................       } 
....................       for(j=0; j<5; ++j, x+=size)         // Loop through character byte data 
04F78:  CLRF   x51
04F7A:  MOVF   x51,W
04F7C:  SUBLW  04
04F7E:  BNC   4FF6
....................       { 
....................          for(k=0; k < 7; ++k)             // Loop through the vertical pixels 
04F80:  CLRF   x52
04F82:  MOVF   x52,W
04F84:  SUBLW  06
04F86:  BNC   4FEE
....................          { 
....................             if(bit_test(pixelData[j], k)) // Check if the pixel should be set 
04F88:  CLRF   03
04F8A:  MOVF   x51,W
04F8C:  ADDLW  55
04F8E:  MOVWF  FE9
04F90:  MOVLW  06
04F92:  ADDWFC 03,W
04F94:  MOVWF  FEA
04F96:  MOVFF  FEF,65A
04F9A:  MOVFF  65A,00
04F9E:  MOVF   x52,W
04FA0:  MOVWF  01
04FA2:  BZ    4FAC
04FA4:  BCF    FD8.0
04FA6:  RRCF   00,F
04FA8:  DECFSZ 01,F
04FAA:  BRA    4FA4
04FAC:  BTFSS  00.0
04FAE:  BRA    4FEA
....................             { 
....................                for(l=0; l < size; ++l)    // These two loops change the 
04FB0:  CLRF   x53
04FB2:  MOVF   x4F,W
04FB4:  SUBWF  x53,W
04FB6:  BC    4FEA
....................                {                          // character's size 
....................                   for(m=0; m < size; ++m) 
04FB8:  CLRF   x54
04FBA:  MOVF   x4F,W
04FBC:  SUBWF  x54,W
04FBE:  BC    4FE6
....................                   { 
....................                      glcd_pixel(x+m, y+k*size+l, color); // Draws the pixel 
04FC0:  MOVF   x54,W
04FC2:  ADDWF  x4B,W
04FC4:  MOVWF  x5A
04FC6:  MOVF   x52,W
04FC8:  MULWF  x4F
04FCA:  MOVF   FF3,W
04FCC:  ADDWF  x4C,W
04FCE:  ADDWF  x53,W
04FD0:  MOVWF  x5B
04FD2:  MOVFF  65A,666
04FD6:  MOVWF  x67
04FD8:  MOVFF  650,668
04FDC:  MOVLB  0
04FDE:  RCALL  4B94
....................                   } 
04FE0:  MOVLB  6
04FE2:  INCF   x54,F
04FE4:  BRA    4FBA
....................                } 
04FE6:  INCF   x53,F
04FE8:  BRA    4FB2
....................             } 
....................          } 
04FEA:  INCF   x52,F
04FEC:  BRA    4F82
....................       } 
04FEE:  INCF   x51,F
04FF0:  MOVF   x4F,W
04FF2:  ADDWF  x4B,F
04FF4:  BRA    4F7A
....................    } 
04FF6:  INCF   x4D,F
04FF8:  BTFSC  FD8.2
04FFA:  INCF   x4E,F
04FFC:  INCF   x4B,F
04FFE:  MOVLB  0
05000:  BRA    4E50
05002:  MOVLB  6
.................... } 
05004:  MOVLB  0
05006:  RETLW  00
....................  
.................... #endif 
....................  
.................... #include "imagen.h" 
.................... const int8 Bombillo [64][16] = { 
.................... 0x00, 0x00, 0x00, 0x00, 0x00, 0x00, 0x00, 0x00, 0x00, 0x00, 0x00, 0x00, 0x00, 0x00, 0x00, 0x00, 
.................... 0x00, 0x00, 0x00, 0x00, 0x00, 0x00, 0x00, 0x00, 0x00, 0x00, 0x00, 0x00, 0x00, 0x00, 0x00, 0x00, 
.................... 0x00, 0x00, 0x00, 0x00, 0x00, 0x00, 0x00, 0x00, 0x00, 0x00, 0x00, 0x00, 0x00, 0x00, 0x00, 0x00, 
.................... 0x00, 0x00, 0x00, 0x00, 0x00, 0x00, 0x00, 0x00, 0x00, 0x00, 0x00, 0x00, 0x00, 0x00, 0x00, 0x00, 
.................... 0x00, 0x00, 0x00, 0x00, 0x00, 0x00, 0x00, 0x00, 0x00, 0x00, 0x00, 0x00, 0x00, 0x00, 0x00, 0x00, 
.................... 0x00, 0x00, 0x00, 0x00, 0x00, 0x00, 0x00, 0x00, 0x00, 0x00, 0x00, 0x00, 0x00, 0x00, 0x00, 0x00, 
.................... 0x00, 0x00, 0x00, 0x00, 0x00, 0x00, 0x00, 0x00, 0x00, 0x00, 0x00, 0x00, 0x00, 0x00, 0x00, 0x00, 
.................... 0x00, 0x00, 0x00, 0x00, 0x00, 0x00, 0x00, 0x00, 0x00, 0x00, 0x00, 0x00, 0x00, 0x00, 0x00, 0x00, 
.................... 0x00, 0x00, 0x00, 0x00, 0x00, 0x00, 0x00, 0x00, 0x00, 0x00, 0x00, 0x00, 0x00, 0x00, 0x00, 0x00, 
.................... 0x00, 0x00, 0x00, 0x00, 0x00, 0x00, 0x00, 0x00, 0x00, 0x00, 0x00, 0x00, 0x00, 0x00, 0x00, 0x00, 
.................... 0x00, 0x00, 0x00, 0x00, 0x00, 0x00, 0x00, 0x00, 0x00, 0x00, 0x00, 0x00, 0x00, 0x00, 0x00, 0x00, 
.................... 0x00, 0x00, 0x00, 0x00, 0x00, 0x00, 0x00, 0x00, 0x00, 0x00, 0x00, 0x00, 0x00, 0x00, 0x00, 0x00, 
.................... 0x00, 0x00, 0x00, 0x00, 0x00, 0x00, 0x00, 0x00, 0x00, 0x00, 0x00, 0x00, 0x00, 0x00, 0x00, 0x00, 
.................... 0x00, 0x00, 0x00, 0x00, 0x00, 0x00, 0x00, 0x00, 0x00, 0x00, 0x00, 0x00, 0x00, 0x00, 0x00, 0x00, 
.................... 0x00, 0x00, 0x00, 0x00, 0x00, 0x00, 0x00, 0x00, 0x00, 0x00, 0x00, 0x00, 0x00, 0x00, 0x00, 0x00, 
.................... 0x00, 0x00, 0x00, 0x00, 0x00, 0x00, 0x00, 0x00, 0x00, 0x00, 0x00, 0x00, 0x00, 0x08, 0x00, 0x80, 
.................... 0x00, 0x00, 0x00, 0x00, 0x00, 0x00, 0x00, 0x00, 0x00, 0x00, 0x00, 0x00, 0x00, 0x04, 0x01, 0x00, 
.................... 0x00, 0x00, 0x00, 0x00, 0x00, 0x00, 0x00, 0x00, 0x00, 0x00, 0x00, 0x00, 0x00, 0x02, 0x02, 0x00, 
.................... 0x00, 0x00, 0x00, 0x00, 0x00, 0x00, 0x00, 0x00, 0x00, 0x00, 0x00, 0x00, 0x00, 0x00, 0x78, 0x00, 
.................... 0x00, 0x00, 0x00, 0x00, 0x00, 0x00, 0x00, 0x00, 0x00, 0x00, 0x00, 0x00, 0x00, 0x00, 0x84, 0x00, 
.................... 0x00, 0x00, 0x00, 0x00, 0x00, 0x00, 0x00, 0x00, 0x00, 0x00, 0x00, 0x00, 0x00, 0x01, 0x02, 0x00, 
.................... 0x00, 0x00, 0x00, 0x00, 0x00, 0x00, 0x00, 0x00, 0x00, 0x00, 0x00, 0x00, 0x00, 0xF9, 0x02, 0xF8, 
.................... 0x00, 0x00, 0x00, 0x00, 0x00, 0x00, 0x00, 0x00, 0x00, 0x00, 0x00, 0x00, 0x00, 0x01, 0x02, 0x00, 
.................... 0x00, 0x00, 0x00, 0x00, 0x00, 0x00, 0x00, 0x00, 0x00, 0x00, 0x00, 0x00, 0x00, 0x01, 0x02, 0x00, 
.................... 0x00, 0x00, 0x00, 0x00, 0x00, 0x00, 0x00, 0x00, 0x00, 0x00, 0x00, 0x00, 0x00, 0x04, 0x84, 0x80, 
.................... 0x00, 0x00, 0x00, 0x00, 0x00, 0x00, 0x00, 0x00, 0x00, 0x00, 0x00, 0x00, 0x00, 0x08, 0x78, 0x40, 
.................... 0x00, 0x00, 0x00, 0x00, 0x00, 0x00, 0x00, 0x00, 0x00, 0x00, 0x00, 0x00, 0x00, 0x10, 0x48, 0x20, 
.................... 0x00, 0x00, 0x00, 0x00, 0x00, 0x00, 0x00, 0x00, 0x00, 0x00, 0x00, 0x00, 0x00, 0x20, 0x48, 0x10, 
.................... 0x00, 0x00, 0x00, 0x00, 0x00, 0x00, 0x00, 0x00, 0x00, 0x00, 0x00, 0x00, 0x00, 0x00, 0x78, 0x00, 
.................... 0x00, 0x00, 0x00, 0x00, 0x00, 0x00, 0x00, 0x00, 0x00, 0x00, 0x00, 0x00, 0x00, 0x00, 0x00, 0x00, 
.................... 0x00, 0x00, 0x00, 0x00, 0x00, 0x00, 0x00, 0x00, 0x00, 0x00, 0x00, 0x00, 0x00, 0x00, 0x00, 0x00, 
.................... 0x00, 0x00, 0x00, 0x00, 0x00, 0x00, 0x00, 0x00, 0x00, 0x00, 0x00, 0x00, 0x00, 0x00, 0x00, 0x00, 
.................... 0x00, 0x00, 0x00, 0x00, 0x00, 0x00, 0x00, 0x00, 0x00, 0x00, 0x00, 0x00, 0x00, 0x00, 0x00, 0x00, 
.................... 0x00, 0x00, 0x00, 0x00, 0x00, 0x00, 0x00, 0x00, 0x00, 0x00, 0x00, 0x00, 0x00, 0x00, 0x00, 0x00, 
.................... 0x00, 0x00, 0x00, 0x00, 0x00, 0x00, 0x00, 0x00, 0x00, 0x00, 0x00, 0x00, 0x00, 0x00, 0x00, 0x00, 
.................... 0x00, 0x00, 0x00, 0x00, 0x00, 0x00, 0x00, 0x00, 0x00, 0x00, 0x00, 0x00, 0x00, 0x00, 0x00, 0x00, 
.................... 0x00, 0x00, 0x00, 0x00, 0x00, 0x00, 0x00, 0x00, 0x00, 0x00, 0x00, 0x00, 0x00, 0x00, 0x00, 0x00, 
.................... 0x00, 0x00, 0x00, 0x00, 0x00, 0x00, 0x00, 0x00, 0x00, 0x00, 0x00, 0x00, 0x00, 0x00, 0x00, 0x00, 
.................... 0x00, 0x00, 0x00, 0x00, 0x00, 0x00, 0x00, 0x00, 0x00, 0x00, 0x00, 0x00, 0x00, 0x00, 0x00, 0x00, 
.................... 0x00, 0x00, 0x00, 0x00, 0x00, 0x00, 0x00, 0x00, 0x00, 0x00, 0x00, 0x00, 0x00, 0x00, 0x00, 0x00, 
.................... 0x00, 0x00, 0x00, 0x00, 0x00, 0x00, 0x00, 0x00, 0x00, 0x00, 0x00, 0x00, 0x00, 0x00, 0x00, 0x00, 
.................... 0x00, 0x00, 0x00, 0x00, 0x00, 0x00, 0x00, 0x00, 0x00, 0x00, 0x00, 0x00, 0x00, 0x00, 0x00, 0x00, 
.................... 0x00, 0x00, 0x00, 0x00, 0x00, 0x00, 0x00, 0x00, 0x00, 0x00, 0x00, 0x00, 0x00, 0x00, 0x00, 0x00, 
.................... 0x00, 0x00, 0x00, 0x00, 0x00, 0x00, 0x00, 0x00, 0x00, 0x00, 0x00, 0x00, 0x00, 0x00, 0x00, 0x00, 
.................... 0x00, 0x00, 0x00, 0x00, 0x00, 0x00, 0x00, 0x00, 0x00, 0x00, 0x00, 0x00, 0x00, 0x00, 0x00, 0x00, 
.................... 0x00, 0x00, 0x00, 0x00, 0x00, 0x00, 0x00, 0x00, 0x00, 0x00, 0x00, 0x00, 0x00, 0x00, 0x00, 0x00, 
.................... 0x00, 0x00, 0x00, 0x00, 0x00, 0x00, 0x00, 0x00, 0x00, 0x00, 0x00, 0x00, 0x00, 0x00, 0x00, 0x00, 
.................... 0x00, 0x00, 0x00, 0x00, 0x00, 0x00, 0x00, 0x00, 0x00, 0x00, 0x00, 0x00, 0x00, 0x00, 0x00, 0x00, 
.................... 0x00, 0x00, 0x00, 0x00, 0x00, 0x00, 0x00, 0x00, 0x00, 0x00, 0x00, 0x00, 0x00, 0x00, 0x00, 0x00, 
.................... 0x00, 0x00, 0x00, 0x00, 0x00, 0x00, 0x00, 0x00, 0x00, 0x00, 0x00, 0x00, 0x00, 0x00, 0x00, 0x00, 
.................... 0x00, 0x00, 0x00, 0x00, 0x00, 0x00, 0x00, 0x00, 0x00, 0x00, 0x00, 0x00, 0x00, 0x00, 0x00, 0x00, 
.................... 0x00, 0x00, 0x00, 0x00, 0x00, 0x00, 0x00, 0x00, 0x00, 0x00, 0x00, 0x00, 0x00, 0x00, 0x00, 0x00, 
.................... 0x00, 0x00, 0x00, 0x00, 0x00, 0x00, 0x00, 0x00, 0x00, 0x00, 0x00, 0x00, 0x00, 0x00, 0x00, 0x00, 
.................... 0x00, 0x00, 0x00, 0x00, 0x00, 0x00, 0x00, 0x00, 0x00, 0x00, 0x00, 0x00, 0x00, 0x00, 0x00, 0x00, 
.................... 0x00, 0x00, 0x00, 0x00, 0x00, 0x00, 0x00, 0x00, 0x00, 0x00, 0x00, 0x00, 0x00, 0x00, 0x00, 0x00, 
.................... 0x00, 0x00, 0x00, 0x00, 0x00, 0x00, 0x00, 0x00, 0x00, 0x00, 0x00, 0x00, 0x00, 0x00, 0x00, 0x00, 
.................... 0x00, 0x00, 0x00, 0x00, 0x00, 0x00, 0x00, 0x00, 0x00, 0x00, 0x00, 0x00, 0x00, 0x00, 0x00, 0x00, 
.................... 0x00, 0x00, 0x00, 0x00, 0x00, 0x00, 0x00, 0x00, 0x00, 0x00, 0x00, 0x00, 0x00, 0x00, 0x00, 0x00, 
.................... 0x00, 0x00, 0x00, 0x00, 0x00, 0x00, 0x00, 0x00, 0x00, 0x00, 0x00, 0x00, 0x00, 0x00, 0x00, 0x00, 
.................... 0x00, 0x00, 0x00, 0x00, 0x00, 0x00, 0x00, 0x00, 0x00, 0x00, 0x00, 0x00, 0x00, 0x00, 0x00, 0x00, 
.................... 0x00, 0x00, 0x00, 0x00, 0x00, 0x00, 0x00, 0x00, 0x00, 0x00, 0x00, 0x00, 0x00, 0x00, 0x00, 0x00, 
.................... 0x00, 0x00, 0x00, 0x00, 0x00, 0x00, 0x00, 0x00, 0x00, 0x00, 0x00, 0x00, 0x00, 0x00, 0x00, 0x00, 
.................... 0x00, 0x00, 0x00, 0x00, 0x00, 0x00, 0x00, 0x00, 0x00, 0x00, 0x00, 0x00, 0x00, 0x00, 0x00, 0x00, 
.................... 0x00, 0x00, 0x00, 0x00, 0x00, 0x00, 0x00, 0x00, 0x00, 0x00, 0x00, 0x00, 0x00, 0x00, 0x00, 0x00 
.................... }; 
....................  
.................... const int8 Tomai [64][16] = { 
.................... 0x00, 0x00, 0x00, 0x00, 0x00, 0x00, 0x00, 0x00, 0x00, 0x00, 0x00, 0x00, 0x00, 0x00, 0x00, 0x00, 
.................... 0x00, 0x00, 0x00, 0x00, 0x00, 0x00, 0x00, 0x00, 0x00, 0x00, 0x00, 0x00, 0x00, 0x00, 0x00, 0x00, 
.................... 0x00, 0x00, 0x00, 0x00, 0x00, 0x00, 0x00, 0x00, 0x00, 0x00, 0x00, 0x00, 0x00, 0x00, 0x00, 0x00, 
.................... 0x00, 0x00, 0x00, 0x00, 0x00, 0x00, 0x00, 0x00, 0x00, 0x00, 0x00, 0x00, 0x00, 0x00, 0x00, 0x00, 
.................... 0x00, 0x00, 0x00, 0x00, 0x00, 0x00, 0x00, 0x00, 0x00, 0x00, 0x00, 0x00, 0x00, 0x00, 0x00, 0x00, 
.................... 0x00, 0x00, 0x00, 0x00, 0x00, 0x00, 0x00, 0x00, 0x00, 0x00, 0x00, 0x00, 0x00, 0x00, 0x00, 0x00, 
.................... 0x00, 0x00, 0x00, 0x00, 0x00, 0x00, 0x00, 0x00, 0x00, 0x00, 0x00, 0x00, 0x00, 0x00, 0x00, 0x00, 
.................... 0x00, 0x00, 0x00, 0x00, 0x00, 0x00, 0x00, 0x00, 0x00, 0x00, 0x00, 0x00, 0x00, 0x00, 0x00, 0x00, 
.................... 0x00, 0x00, 0x00, 0x00, 0x00, 0x00, 0x00, 0x00, 0x00, 0x00, 0x00, 0x00, 0x00, 0x00, 0x00, 0x00, 
.................... 0x00, 0x00, 0x00, 0x00, 0x00, 0x00, 0x00, 0x00, 0x00, 0x00, 0x00, 0x00, 0x00, 0x00, 0x00, 0x00, 
.................... 0x00, 0x00, 0x00, 0x00, 0x00, 0x00, 0x00, 0x00, 0x00, 0x00, 0x00, 0x00, 0x00, 0x00, 0x00, 0x00, 
.................... 0x00, 0x00, 0x00, 0x00, 0x00, 0x00, 0x00, 0x00, 0x00, 0x00, 0x00, 0x00, 0x00, 0x00, 0x00, 0x00, 
.................... 0x00, 0x00, 0x00, 0x00, 0x00, 0x00, 0x00, 0x00, 0x00, 0x00, 0x00, 0x00, 0x00, 0x00, 0x00, 0x00, 
.................... 0x00, 0x00, 0x00, 0x00, 0x00, 0x00, 0x00, 0x00, 0x00, 0x00, 0x00, 0x00, 0x00, 0x00, 0x00, 0x00, 
.................... 0x00, 0x00, 0x00, 0x00, 0x00, 0x00, 0x00, 0x00, 0x00, 0x00, 0x00, 0x00, 0x00, 0x00, 0x00, 0x00, 
.................... 0x00, 0x00, 0x00, 0x00, 0x00, 0x00, 0x00, 0x00, 0x00, 0x00, 0x00, 0x00, 0x00, 0x00, 0x00, 0x00, 
.................... 0x00, 0x00, 0x00, 0x00, 0x00, 0x00, 0x00, 0x00, 0x00, 0x00, 0x00, 0x00, 0x00, 0x00, 0x00, 0x00, 
.................... 0x00, 0x00, 0x00, 0x00, 0x00, 0x00, 0x00, 0x00, 0x00, 0x00, 0x00, 0x00, 0x00, 0x00, 0x00, 0x00, 
.................... 0x00, 0x00, 0x00, 0x00, 0x00, 0x00, 0x00, 0x00, 0x00, 0x00, 0x00, 0x00, 0x00, 0x00, 0x00, 0x00, 
.................... 0x00, 0x00, 0x00, 0x00, 0x00, 0x00, 0x00, 0x00, 0x00, 0x00, 0x00, 0x00, 0x00, 0x00, 0x00, 0x00, 
.................... 0x00, 0x00, 0x00, 0x00, 0x00, 0x00, 0x00, 0x00, 0x00, 0x00, 0x00, 0x00, 0x00, 0x00, 0x00, 0x00, 
.................... 0x00, 0x00, 0x00, 0x00, 0x00, 0x00, 0x00, 0x00, 0x00, 0x00, 0x00, 0x00, 0x00, 0x00, 0x00, 0x00, 
.................... 0x00, 0x00, 0x00, 0x00, 0x00, 0x00, 0x00, 0x00, 0x00, 0x00, 0x00, 0x00, 0x00, 0x00, 0x00, 0x00, 
.................... 0x00, 0x00, 0x00, 0x00, 0x00, 0x00, 0x00, 0x00, 0x00, 0x00, 0x00, 0x00, 0x00, 0x00, 0x00, 0x00, 
.................... 0x00, 0x00, 0x00, 0x00, 0x00, 0x00, 0x00, 0x00, 0x00, 0x00, 0x00, 0x00, 0x00, 0x00, 0x00, 0x00, 
.................... 0x00, 0x00, 0x00, 0x00, 0x00, 0x00, 0x00, 0x00, 0x00, 0x00, 0x00, 0x00, 0x00, 0x00, 0x00, 0x00, 
.................... 0x00, 0x00, 0x00, 0x00, 0x00, 0x00, 0x00, 0x00, 0x00, 0x00, 0x00, 0x00, 0x00, 0x00, 0x00, 0x00, 
.................... 0x00, 0x00, 0x00, 0x00, 0x00, 0x00, 0x00, 0x00, 0x00, 0x00, 0x00, 0x00, 0x00, 0x00, 0x00, 0x00, 
.................... 0x00, 0x00, 0x00, 0x00, 0x00, 0x00, 0x00, 0x00, 0x00, 0x00, 0x00, 0x00, 0x00, 0x00, 0x00, 0x00, 
.................... 0x00, 0x00, 0x00, 0x00, 0x00, 0x00, 0x00, 0x00, 0x00, 0x00, 0x00, 0x00, 0x00, 0x00, 0x00, 0x00, 
.................... 0x00, 0x00, 0x00, 0x00, 0x00, 0x00, 0x00, 0x00, 0x00, 0x00, 0x00, 0x00, 0x00, 0x7F, 0xFF, 0xF8, 
.................... 0x00, 0x00, 0x00, 0x00, 0x00, 0x00, 0x00, 0x00, 0x00, 0x00, 0x00, 0x00, 0x00, 0x40, 0x00, 0x08, 
.................... 0x00, 0x00, 0x00, 0x00, 0x00, 0x00, 0x00, 0x00, 0x00, 0x00, 0x00, 0x00, 0x00, 0x47, 0x03, 0x88, 
.................... 0x00, 0x00, 0x00, 0x00, 0x00, 0x00, 0x00, 0x00, 0x00, 0x00, 0x00, 0x00, 0x00, 0x45, 0x02, 0x88, 
.................... 0x00, 0x00, 0x00, 0x00, 0x00, 0x00, 0x00, 0x00, 0x00, 0x00, 0x00, 0x00, 0x00, 0x45, 0x02, 0x88, 
.................... 0x00, 0x00, 0x00, 0x00, 0x00, 0x00, 0x00, 0x00, 0x00, 0x00, 0x00, 0x00, 0x00, 0x45, 0x02, 0x88, 
.................... 0x00, 0x00, 0x00, 0x00, 0x00, 0x00, 0x00, 0x00, 0x00, 0x00, 0x00, 0x00, 0x00, 0x45, 0x02, 0x88, 
.................... 0x00, 0x00, 0x00, 0x00, 0x00, 0x00, 0x00, 0x00, 0x00, 0x00, 0x00, 0x00, 0x00, 0x47, 0x03, 0x88, 
.................... 0x00, 0x00, 0x00, 0x00, 0x00, 0x00, 0x00, 0x00, 0x00, 0x00, 0x00, 0x00, 0x00, 0x40, 0x00, 0x08, 
.................... 0x00, 0x00, 0x00, 0x00, 0x00, 0x00, 0x00, 0x00, 0x00, 0x00, 0x00, 0x00, 0x00, 0x40, 0xFC, 0x08, 
.................... 0x00, 0x00, 0x00, 0x00, 0x00, 0x00, 0x00, 0x00, 0x00, 0x00, 0x00, 0x00, 0x00, 0x40, 0x84, 0x08, 
.................... 0x00, 0x00, 0x00, 0x00, 0x00, 0x00, 0x00, 0x00, 0x00, 0x00, 0x00, 0x00, 0x00, 0x40, 0x84, 0x08, 
.................... 0x00, 0x00, 0x00, 0x00, 0x00, 0x00, 0x00, 0x00, 0x00, 0x00, 0x00, 0x00, 0x00, 0x40, 0xFC, 0x08, 
.................... 0x00, 0x00, 0x00, 0x00, 0x00, 0x00, 0x00, 0x00, 0x00, 0x00, 0x00, 0x00, 0x00, 0x40, 0x00, 0x08, 
.................... 0x00, 0x00, 0x00, 0x00, 0x00, 0x00, 0x00, 0x00, 0x00, 0x00, 0x00, 0x00, 0x00, 0x7F, 0xFF, 0xF8, 
.................... 0x00, 0x00, 0x00, 0x00, 0x00, 0x00, 0x00, 0x00, 0x00, 0x00, 0x00, 0x00, 0x00, 0x00, 0x00, 0x00, 
.................... 0x00, 0x00, 0x00, 0x00, 0x00, 0x00, 0x00, 0x00, 0x00, 0x00, 0x00, 0x00, 0x00, 0x00, 0x00, 0x00, 
.................... 0x00, 0x00, 0x00, 0x00, 0x00, 0x00, 0x00, 0x00, 0x00, 0x00, 0x00, 0x00, 0x00, 0x00, 0x00, 0x00, 
.................... 0x00, 0x00, 0x00, 0x00, 0x00, 0x00, 0x00, 0x00, 0x00, 0x00, 0x00, 0x00, 0x00, 0x00, 0x00, 0x00, 
.................... 0x00, 0x00, 0x00, 0x00, 0x00, 0x00, 0x00, 0x00, 0x00, 0x00, 0x00, 0x00, 0x00, 0x00, 0x00, 0x00, 
.................... 0x00, 0x00, 0x00, 0x00, 0x00, 0x00, 0x00, 0x00, 0x00, 0x00, 0x00, 0x00, 0x00, 0x00, 0x00, 0x00, 
.................... 0x00, 0x00, 0x00, 0x00, 0x00, 0x00, 0x00, 0x00, 0x00, 0x00, 0x00, 0x00, 0x00, 0x00, 0x00, 0x00, 
.................... 0x00, 0x00, 0x00, 0x00, 0x00, 0x00, 0x00, 0x00, 0x00, 0x00, 0x00, 0x00, 0x00, 0x00, 0x00, 0x00, 
.................... 0x00, 0x00, 0x00, 0x00, 0x00, 0x00, 0x00, 0x00, 0x00, 0x00, 0x00, 0x00, 0x00, 0x00, 0x00, 0x00, 
.................... 0x00, 0x00, 0x00, 0x00, 0x00, 0x00, 0x00, 0x00, 0x00, 0x00, 0x00, 0x00, 0x00, 0x00, 0x00, 0x00, 
.................... 0x00, 0x00, 0x00, 0x00, 0x00, 0x00, 0x00, 0x00, 0x00, 0x00, 0x00, 0x00, 0x00, 0x00, 0x00, 0x00, 
.................... 0x00, 0x00, 0x00, 0x00, 0x00, 0x00, 0x00, 0x00, 0x00, 0x00, 0x00, 0x00, 0x00, 0x00, 0x00, 0x00, 
.................... 0x00, 0x00, 0x00, 0x00, 0x00, 0x00, 0x00, 0x00, 0x00, 0x00, 0x00, 0x00, 0x00, 0x00, 0x00, 0x00, 
.................... 0x00, 0x00, 0x00, 0x00, 0x00, 0x00, 0x00, 0x00, 0x00, 0x00, 0x00, 0x00, 0x00, 0x00, 0x00, 0x00, 
.................... 0x00, 0x00, 0x00, 0x00, 0x00, 0x00, 0x00, 0x00, 0x00, 0x00, 0x00, 0x00, 0x00, 0x00, 0x00, 0x00, 
.................... 0x00, 0x00, 0x00, 0x00, 0x00, 0x00, 0x00, 0x00, 0x00, 0x00, 0x00, 0x00, 0x00, 0x00, 0x00, 0x00, 
.................... 0x00, 0x00, 0x00, 0x00, 0x00, 0x00, 0x00, 0x00, 0x00, 0x00, 0x00, 0x00, 0x00, 0x00, 0x00, 0x00, 
.................... 0x00, 0x00, 0x00, 0x00, 0x00, 0x00, 0x00, 0x00, 0x00, 0x00, 0x00, 0x00, 0x00, 0x00, 0x00, 0x00, 
.................... 0x00, 0x00, 0x00, 0x00, 0x00, 0x00, 0x00, 0x00, 0x00, 0x00, 0x00, 0x00, 0x00, 0x00, 0x00, 0x00 
.................... }; 
....................  
.................... const int8 Ventilador [64][16] = { 
.................... 0x00, 0x00, 0x00, 0x00, 0x00, 0x00, 0x00, 0x00, 0x00, 0x00, 0x00, 0x00, 0x00, 0x00, 0x00, 0x00, 
.................... 0x00, 0x00, 0x00, 0x00, 0x00, 0x00, 0x00, 0x00, 0x00, 0x00, 0x00, 0x00, 0x00, 0x00, 0x00, 0x00, 
.................... 0x00, 0x00, 0x00, 0x00, 0x00, 0x00, 0x00, 0x00, 0x00, 0x00, 0x00, 0x00, 0x00, 0x00, 0x00, 0x00, 
.................... 0x00, 0x00, 0x00, 0x00, 0x00, 0x00, 0x00, 0x00, 0x00, 0x00, 0x00, 0x00, 0x00, 0x00, 0x00, 0x00, 
.................... 0x00, 0x00, 0x00, 0x00, 0x00, 0x00, 0x00, 0x00, 0x00, 0x00, 0x00, 0x00, 0x00, 0x00, 0x00, 0x00, 
.................... 0x00, 0x00, 0x00, 0x00, 0x00, 0x00, 0x00, 0x00, 0x00, 0x00, 0x00, 0x00, 0x00, 0x00, 0x00, 0x00, 
.................... 0x00, 0x00, 0x00, 0x00, 0x00, 0x00, 0x00, 0x00, 0x00, 0x00, 0x00, 0x00, 0x00, 0x00, 0x00, 0x00, 
.................... 0x00, 0x00, 0x00, 0x00, 0x00, 0x00, 0x00, 0x00, 0x00, 0x00, 0x00, 0x00, 0x00, 0x00, 0x00, 0x00, 
.................... 0x00, 0x00, 0x00, 0x00, 0x00, 0x00, 0x00, 0x00, 0x00, 0x00, 0x00, 0x00, 0x00, 0x00, 0x00, 0x00, 
.................... 0x00, 0x00, 0x00, 0x00, 0x00, 0x00, 0x00, 0x00, 0x00, 0x00, 0x00, 0x00, 0x00, 0x00, 0x00, 0x00, 
.................... 0x00, 0x00, 0x00, 0x00, 0x00, 0x00, 0x00, 0x00, 0x00, 0x00, 0x00, 0x00, 0x00, 0x00, 0x00, 0x00, 
.................... 0x00, 0x00, 0x00, 0x00, 0x00, 0x00, 0x00, 0x00, 0x00, 0x00, 0x00, 0x00, 0x00, 0x00, 0x00, 0x00, 
.................... 0x00, 0x00, 0x00, 0x00, 0x00, 0x00, 0x00, 0x00, 0x00, 0x00, 0x00, 0x00, 0x00, 0x00, 0x00, 0x00, 
.................... 0x00, 0x00, 0x00, 0x00, 0x00, 0x00, 0x00, 0x00, 0x00, 0x00, 0x00, 0x00, 0x00, 0x00, 0x00, 0x00, 
.................... 0x00, 0x00, 0x00, 0x00, 0x00, 0x00, 0x00, 0x00, 0x00, 0x00, 0x00, 0x00, 0x00, 0x00, 0x00, 0x00, 
.................... 0x00, 0x00, 0x00, 0x00, 0x00, 0x00, 0x00, 0x00, 0x00, 0x00, 0x00, 0x00, 0x00, 0x00, 0x00, 0x00, 
.................... 0x00, 0x00, 0x00, 0x00, 0x00, 0x00, 0x00, 0x00, 0x00, 0x00, 0x00, 0x00, 0x00, 0x00, 0x00, 0x00, 
.................... 0x00, 0x00, 0x00, 0x00, 0x00, 0x00, 0x00, 0x00, 0x00, 0x00, 0x00, 0x00, 0x00, 0x00, 0x00, 0x00, 
.................... 0x00, 0x00, 0x00, 0x00, 0x00, 0x00, 0x00, 0x00, 0x00, 0x00, 0x00, 0x00, 0x00, 0x00, 0x00, 0x00, 
.................... 0x00, 0x00, 0x00, 0x00, 0x00, 0x00, 0x00, 0x00, 0x00, 0x00, 0x00, 0x00, 0x00, 0x00, 0x00, 0x00, 
.................... 0x00, 0x00, 0x00, 0x00, 0x00, 0x00, 0x00, 0x00, 0x00, 0x00, 0x00, 0x00, 0x00, 0x00, 0x00, 0x00, 
.................... 0x00, 0x00, 0x00, 0x00, 0x00, 0x00, 0x00, 0x00, 0x00, 0x00, 0x00, 0x00, 0x00, 0x00, 0x00, 0x00, 
.................... 0x00, 0x00, 0x00, 0x00, 0x00, 0x00, 0x00, 0x00, 0x00, 0x00, 0x00, 0x00, 0x00, 0x00, 0x00, 0x00, 
.................... 0x00, 0x00, 0x00, 0x00, 0x00, 0x00, 0x00, 0x00, 0x00, 0x00, 0x00, 0x00, 0x00, 0x00, 0x00, 0x00, 
.................... 0x00, 0x00, 0x00, 0x00, 0x00, 0x00, 0x00, 0x00, 0x00, 0x00, 0x00, 0x00, 0x00, 0x00, 0x00, 0x00, 
.................... 0x00, 0x00, 0x00, 0x00, 0x00, 0x00, 0x00, 0x00, 0x00, 0x00, 0x00, 0x00, 0x00, 0x00, 0x00, 0x00, 
.................... 0x00, 0x00, 0x00, 0x00, 0x00, 0x00, 0x00, 0x00, 0x00, 0x00, 0x00, 0x00, 0x00, 0x00, 0x00, 0x00, 
.................... 0x00, 0x00, 0x00, 0x00, 0x00, 0x00, 0x00, 0x00, 0x00, 0x00, 0x00, 0x00, 0x00, 0x00, 0x00, 0x00, 
.................... 0x00, 0x00, 0x00, 0x00, 0x00, 0x00, 0x00, 0x00, 0x00, 0x00, 0x00, 0x00, 0x00, 0x00, 0x00, 0x00, 
.................... 0x00, 0x00, 0x00, 0x00, 0x00, 0x00, 0x00, 0x00, 0x00, 0x00, 0x00, 0x00, 0x00, 0x00, 0x00, 0x00, 
.................... 0x00, 0x00, 0x00, 0x00, 0x00, 0x00, 0x00, 0x00, 0x00, 0x00, 0x00, 0x00, 0x00, 0x00, 0x00, 0x00, 
.................... 0x00, 0x00, 0x00, 0x00, 0x00, 0x00, 0x00, 0x00, 0x00, 0x00, 0x00, 0x00, 0x00, 0x00, 0x00, 0x00, 
.................... 0x00, 0x00, 0x00, 0x00, 0x00, 0x00, 0x00, 0x00, 0x00, 0x00, 0x00, 0x00, 0x00, 0x00, 0x00, 0x00, 
.................... 0x00, 0x00, 0x00, 0x00, 0x00, 0x00, 0x00, 0x00, 0x00, 0x00, 0x00, 0x00, 0x00, 0x00, 0x00, 0x00, 
.................... 0x00, 0x00, 0x00, 0x00, 0x00, 0x00, 0x00, 0x00, 0x00, 0x00, 0x00, 0x00, 0x00, 0x00, 0x00, 0x00, 
.................... 0x00, 0x00, 0x00, 0x00, 0x00, 0x00, 0x00, 0x00, 0x00, 0x00, 0x00, 0x00, 0x00, 0x00, 0x00, 0x00, 
.................... 0x00, 0x00, 0x00, 0x00, 0x00, 0x00, 0x00, 0x00, 0x00, 0x00, 0x00, 0x00, 0x00, 0x00, 0x00, 0x00, 
.................... 0x00, 0x00, 0x00, 0x00, 0x00, 0x00, 0x00, 0x00, 0x00, 0x00, 0x00, 0x00, 0x00, 0x00, 0x00, 0x00, 
.................... 0x00, 0x00, 0x00, 0x00, 0x00, 0x00, 0x00, 0x00, 0x00, 0x00, 0x00, 0x00, 0x00, 0x00, 0x00, 0x00, 
.................... 0x00, 0x00, 0x00, 0x00, 0x00, 0x00, 0x00, 0x00, 0x00, 0x00, 0x00, 0x00, 0x00, 0x00, 0x00, 0x00, 
.................... 0x00, 0x00, 0x00, 0x00, 0x00, 0x00, 0x00, 0x00, 0x00, 0x00, 0x00, 0x00, 0x00, 0x00, 0x00, 0x00, 
.................... 0x00, 0x00, 0x00, 0x00, 0x00, 0x00, 0x00, 0x00, 0x00, 0x00, 0x00, 0x00, 0x00, 0x00, 0x00, 0x00, 
.................... 0x00, 0x00, 0x00, 0x00, 0x00, 0x00, 0x00, 0x00, 0x00, 0x00, 0x00, 0x00, 0x00, 0x00, 0x00, 0x00, 
.................... 0x00, 0x00, 0x00, 0x00, 0x00, 0x00, 0x00, 0x00, 0x00, 0x00, 0x00, 0x00, 0x00, 0x00, 0x00, 0x00, 
.................... 0x00, 0x00, 0x00, 0x00, 0x00, 0x00, 0x00, 0x00, 0x00, 0x00, 0x00, 0x00, 0x00, 0x00, 0x00, 0x00, 
.................... 0x00, 0x00, 0x00, 0x00, 0x00, 0x00, 0x00, 0x00, 0x00, 0x00, 0x00, 0x00, 0x00, 0x00, 0x00, 0x00, 
.................... 0x00, 0x00, 0x00, 0x00, 0x00, 0x00, 0x00, 0x00, 0x00, 0x00, 0x00, 0x00, 0x00, 0x00, 0x60, 0x00, 
.................... 0x00, 0x00, 0x00, 0x00, 0x00, 0x00, 0x00, 0x00, 0x00, 0x00, 0x00, 0x00, 0x00, 0x00, 0xF0, 0x00, 
.................... 0x00, 0x00, 0x00, 0x00, 0x00, 0x00, 0x00, 0x00, 0x00, 0x00, 0x00, 0x00, 0x00, 0x01, 0xF8, 0x00, 
.................... 0x00, 0x00, 0x00, 0x00, 0x00, 0x00, 0x00, 0x00, 0x00, 0x00, 0x00, 0x00, 0x00, 0x01, 0xF8, 0x00, 
.................... 0x00, 0x00, 0x00, 0x00, 0x00, 0x00, 0x00, 0x00, 0x00, 0x00, 0x00, 0x00, 0x00, 0x01, 0xF8, 0x00, 
.................... 0x00, 0x00, 0x00, 0x00, 0x00, 0x00, 0x00, 0x00, 0x00, 0x00, 0x00, 0x00, 0x00, 0x00, 0xF0, 0x00, 
.................... 0x00, 0x00, 0x00, 0x00, 0x00, 0x00, 0x00, 0x00, 0x00, 0x00, 0x00, 0x00, 0x00, 0x38, 0x71, 0xC0, 
.................... 0x00, 0x00, 0x00, 0x00, 0x00, 0x00, 0x00, 0x00, 0x00, 0x00, 0x00, 0x00, 0x00, 0x7C, 0x93, 0xE0, 
.................... 0x00, 0x00, 0x00, 0x00, 0x00, 0x00, 0x00, 0x00, 0x00, 0x00, 0x00, 0x00, 0x00, 0xFF, 0x0F, 0xF0, 
.................... 0x00, 0x00, 0x00, 0x00, 0x00, 0x00, 0x00, 0x00, 0x00, 0x00, 0x00, 0x00, 0x00, 0xFF, 0x0F, 0xF0, 
.................... 0x00, 0x00, 0x00, 0x00, 0x00, 0x00, 0x00, 0x00, 0x00, 0x00, 0x00, 0x00, 0x00, 0x7D, 0x93, 0xE0, 
.................... 0x00, 0x00, 0x00, 0x00, 0x00, 0x00, 0x00, 0x00, 0x00, 0x00, 0x00, 0x00, 0x00, 0x38, 0x61, 0xC0, 
.................... 0x00, 0x00, 0x00, 0x00, 0x00, 0x00, 0x00, 0x00, 0x00, 0x00, 0x00, 0x00, 0x00, 0x00, 0xF0, 0x00, 
.................... 0x00, 0x00, 0x00, 0x00, 0x00, 0x00, 0x00, 0x00, 0x00, 0x00, 0x00, 0x00, 0x00, 0x01, 0xF8, 0x00, 
.................... 0x00, 0x00, 0x00, 0x00, 0x00, 0x00, 0x00, 0x00, 0x00, 0x00, 0x00, 0x00, 0x00, 0x01, 0xF8, 0x00, 
.................... 0x00, 0x00, 0x00, 0x00, 0x00, 0x00, 0x00, 0x00, 0x00, 0x00, 0x00, 0x00, 0x00, 0x01, 0xF8, 0x00, 
.................... 0x00, 0x00, 0x00, 0x00, 0x00, 0x00, 0x00, 0x00, 0x00, 0x00, 0x00, 0x00, 0x00, 0x00, 0xF0, 0x00, 
.................... 0x00, 0x00, 0x00, 0x00, 0x00, 0x00, 0x00, 0x00, 0x00, 0x00, 0x00, 0x00, 0x00, 0x00, 0x60, 0x00 
.................... }; 
....................  
.................... #include "FuncionesDisplay.h" 
....................  
.................... typedef struct{ 
....................    char Letra[20]; 
.................... }MENUU; 
....................  
.................... MENUU Menus; 
....................   
.................... void displayContrasena(int digito, int x, int y, int sombreado) 
.................... { 
....................    char voltage[9]; 
....................    sprintf(voltage, "%i", digito); 
05008:  MOVLW  06
0500A:  MOVLB  4
0500C:  MOVWF  x2B
0500E:  MOVLW  40
05010:  MOVWF  x2A
05012:  MOVFF  63C,649
05016:  MOVLW  1F
05018:  MOVLB  6
0501A:  MOVWF  x4A
0501C:  MOVLB  0
0501E:  RCALL  4AB6
....................     
....................    if(sombreado==1) 
05020:  MOVLB  6
05022:  DECFSZ x3F,W
05024:  BRA    5074
....................       {glcd_rect(x, y, x+18, y+24, YES, ON);glcd_text57(x+2, y+1, voltage, 2, OFF);} 
05026:  MOVLW  12
05028:  ADDWF  x3D,W
0502A:  MOVWF  x49
0502C:  MOVLW  18
0502E:  ADDWF  x3E,W
05030:  MOVWF  x4A
05032:  MOVFF  63D,64B
05036:  MOVFF  63E,64C
0503A:  MOVFF  649,64D
0503E:  MOVWF  x4E
05040:  MOVLW  01
05042:  MOVWF  x4F
05044:  MOVWF  x50
05046:  MOVLB  0
05048:  RCALL  4D8E
0504A:  MOVLW  02
0504C:  MOVLB  6
0504E:  ADDWF  x3D,W
05050:  MOVWF  x49
05052:  MOVLW  01
05054:  ADDWF  x3E,W
05056:  MOVWF  x4A
05058:  MOVFF  649,64B
0505C:  MOVWF  x4C
0505E:  MOVLW  06
05060:  MOVWF  x4E
05062:  MOVLW  40
05064:  MOVWF  x4D
05066:  MOVLW  02
05068:  MOVWF  x4F
0506A:  CLRF   x50
0506C:  MOVLB  0
0506E:  RCALL  4E50
....................    else    
05070:  BRA    50BE
05072:  MOVLB  6
....................       {glcd_rect(x, y, x+18, y+24, NO, OFF);glcd_text57(x+2, y+1, voltage, 2, ON);} 
05074:  MOVLW  12
05076:  ADDWF  x3D,W
05078:  MOVWF  x49
0507A:  MOVLW  18
0507C:  ADDWF  x3E,W
0507E:  MOVWF  x4A
05080:  MOVFF  63D,64B
05084:  MOVFF  63E,64C
05088:  MOVFF  649,64D
0508C:  MOVWF  x4E
0508E:  CLRF   x4F
05090:  CLRF   x50
05092:  MOVLB  0
05094:  RCALL  4D8E
05096:  MOVLW  02
05098:  MOVLB  6
0509A:  ADDWF  x3D,W
0509C:  MOVWF  x49
0509E:  MOVLW  01
050A0:  ADDWF  x3E,W
050A2:  MOVWF  x4A
050A4:  MOVFF  649,64B
050A8:  MOVWF  x4C
050AA:  MOVLW  06
050AC:  MOVWF  x4E
050AE:  MOVLW  40
050B0:  MOVWF  x4D
050B2:  MOVLW  02
050B4:  MOVWF  x4F
050B6:  MOVLW  01
050B8:  MOVWF  x50
050BA:  MOVLB  0
050BC:  RCALL  4E50
....................  
.................... } 
050BE:  RETLW  00
....................  
.................... void displayTiempo(int8 digito, int x, int y, int8 sombreado, int8 tamano) 
.................... { 
....................    char voltage[9]; 
....................    sprintf(voltage, "%i", digito); 
*
05890:  MOVLW  06
05892:  MOVLB  4
05894:  MOVWF  x2B
05896:  MOVLW  37
05898:  MOVWF  x2A
0589A:  MOVFF  632,649
0589E:  MOVLW  1F
058A0:  MOVLB  6
058A2:  MOVWF  x4A
058A4:  MOVLB  0
058A6:  CALL   4AB6
....................     
....................    if(sombreado==1) 
058AA:  MOVLB  6
058AC:  DECFSZ x35,W
058AE:  BRA    5908
....................       {glcd_rect(x, y, x+(tamano*6), y+(tamano*8), YES, ON);glcd_text57(x+2, y+1, voltage, tamano, OFF);} 
058B0:  MOVF   x36,W
058B2:  MULLW  06
058B4:  MOVF   FF3,W
058B6:  ADDWF  x33,W
058B8:  MOVWF  x40
058BA:  MOVF   x36,W
058BC:  MULLW  08
058BE:  MOVF   FF3,W
058C0:  ADDWF  x34,W
058C2:  MOVWF  x41
058C4:  MOVFF  633,64B
058C8:  MOVFF  634,64C
058CC:  MOVFF  640,64D
058D0:  MOVWF  x4E
058D2:  MOVLW  01
058D4:  MOVWF  x4F
058D6:  MOVWF  x50
058D8:  MOVLB  0
058DA:  CALL   4D8E
058DE:  MOVLW  02
058E0:  MOVLB  6
058E2:  ADDWF  x33,W
058E4:  MOVWF  x40
058E6:  MOVLW  01
058E8:  ADDWF  x34,W
058EA:  MOVWF  x41
058EC:  MOVFF  640,64B
058F0:  MOVWF  x4C
058F2:  MOVLW  06
058F4:  MOVWF  x4E
058F6:  MOVLW  37
058F8:  MOVWF  x4D
058FA:  MOVFF  636,64F
058FE:  CLRF   x50
05900:  MOVLB  0
05902:  CALL   4E50
05906:  MOVLB  6
....................    if(sombreado==0) 
05908:  MOVF   x35,F
0590A:  BNZ   5966
....................       {glcd_rect(x, y, x+(tamano*6), y+(tamano*8), YES, OFF);glcd_text57(x+2, y+1, voltage, tamano, ON);} 
0590C:  MOVF   x36,W
0590E:  MULLW  06
05910:  MOVF   FF3,W
05912:  ADDWF  x33,W
05914:  MOVWF  x40
05916:  MOVF   x36,W
05918:  MULLW  08
0591A:  MOVF   FF3,W
0591C:  ADDWF  x34,W
0591E:  MOVWF  x41
05920:  MOVFF  633,64B
05924:  MOVFF  634,64C
05928:  MOVFF  640,64D
0592C:  MOVWF  x4E
0592E:  MOVLW  01
05930:  MOVWF  x4F
05932:  CLRF   x50
05934:  MOVLB  0
05936:  CALL   4D8E
0593A:  MOVLW  02
0593C:  MOVLB  6
0593E:  ADDWF  x33,W
05940:  MOVWF  x40
05942:  MOVLW  01
05944:  ADDWF  x34,W
05946:  MOVWF  x41
05948:  MOVFF  640,64B
0594C:  MOVWF  x4C
0594E:  MOVLW  06
05950:  MOVWF  x4E
05952:  MOVLW  37
05954:  MOVWF  x4D
05956:  MOVFF  636,64F
0595A:  MOVLW  01
0595C:  MOVWF  x50
0595E:  MOVLB  0
05960:  CALL   4E50
05964:  MOVLB  6
....................  
.................... } 
05966:  MOVLB  0
05968:  RETLW  00
....................  
.................... void displayTiempo2(int8 digito, int x, int y, int8 sombreado, int8 tamano) 
.................... { 
....................    char voltage[9]; 
....................    sprintf(voltage, "%03u", digito); 
*
05C10:  MOVLW  06
05C12:  MOVLB  4
05C14:  MOVWF  x2B
05C16:  MOVLW  37
05C18:  MOVWF  x2A
05C1A:  MOVFF  632,640
05C1E:  MOVLW  03
05C20:  MOVLB  6
05C22:  MOVWF  x41
05C24:  MOVLB  0
05C26:  RCALL  5B8A
....................     
....................    if(sombreado==1) 
05C28:  MOVLB  6
05C2A:  DECFSZ x35,W
05C2C:  BRA    5C86
....................       {glcd_rect(x, y, x+(tamano*18), y+(tamano*8), YES, ON);glcd_text57(x+2, y+1, voltage, tamano, OFF);} 
05C2E:  MOVF   x36,W
05C30:  MULLW  12
05C32:  MOVF   FF3,W
05C34:  ADDWF  x33,W
05C36:  MOVWF  x40
05C38:  MOVF   x36,W
05C3A:  MULLW  08
05C3C:  MOVF   FF3,W
05C3E:  ADDWF  x34,W
05C40:  MOVWF  x41
05C42:  MOVFF  633,64B
05C46:  MOVFF  634,64C
05C4A:  MOVFF  640,64D
05C4E:  MOVWF  x4E
05C50:  MOVLW  01
05C52:  MOVWF  x4F
05C54:  MOVWF  x50
05C56:  MOVLB  0
05C58:  CALL   4D8E
05C5C:  MOVLW  02
05C5E:  MOVLB  6
05C60:  ADDWF  x33,W
05C62:  MOVWF  x40
05C64:  MOVLW  01
05C66:  ADDWF  x34,W
05C68:  MOVWF  x41
05C6A:  MOVFF  640,64B
05C6E:  MOVWF  x4C
05C70:  MOVLW  06
05C72:  MOVWF  x4E
05C74:  MOVLW  37
05C76:  MOVWF  x4D
05C78:  MOVFF  636,64F
05C7C:  CLRF   x50
05C7E:  MOVLB  0
05C80:  CALL   4E50
05C84:  MOVLB  6
....................    if(sombreado==0) 
05C86:  MOVF   x35,F
05C88:  BNZ   5CE4
....................       {glcd_rect(x, y, x+(tamano*18), y+(tamano*8), YES, OFF);glcd_text57(x+2, y+1, voltage, tamano, ON);} 
05C8A:  MOVF   x36,W
05C8C:  MULLW  12
05C8E:  MOVF   FF3,W
05C90:  ADDWF  x33,W
05C92:  MOVWF  x40
05C94:  MOVF   x36,W
05C96:  MULLW  08
05C98:  MOVF   FF3,W
05C9A:  ADDWF  x34,W
05C9C:  MOVWF  x41
05C9E:  MOVFF  633,64B
05CA2:  MOVFF  634,64C
05CA6:  MOVFF  640,64D
05CAA:  MOVWF  x4E
05CAC:  MOVLW  01
05CAE:  MOVWF  x4F
05CB0:  CLRF   x50
05CB2:  MOVLB  0
05CB4:  CALL   4D8E
05CB8:  MOVLW  02
05CBA:  MOVLB  6
05CBC:  ADDWF  x33,W
05CBE:  MOVWF  x40
05CC0:  MOVLW  01
05CC2:  ADDWF  x34,W
05CC4:  MOVWF  x41
05CC6:  MOVFF  640,64B
05CCA:  MOVWF  x4C
05CCC:  MOVLW  06
05CCE:  MOVWF  x4E
05CD0:  MOVLW  37
05CD2:  MOVWF  x4D
05CD4:  MOVFF  636,64F
05CD8:  MOVLW  01
05CDA:  MOVWF  x50
05CDC:  MOVLB  0
05CDE:  CALL   4E50
05CE2:  MOVLB  6
....................  
.................... } 
05CE4:  MOVLB  0
05CE6:  RETLW  00
....................  
.................... void displayMenu(char palabra[100], int x, int y, int sombreado, int tamano) 
.................... { 
....................    strcpy(Menus.Letra,palabra); 
*
050C0:  MOVLB  6
050C2:  MOVFF  63A,01
050C6:  MOVFF  63B,03
050CA:  MOVFF  63A,640
050CE:  MOVFF  63B,641
050D2:  MOVLW  04
050D4:  MOVWF  FEA
050D6:  MOVLW  16
050D8:  MOVWF  FE9
050DA:  MOVFF  63B,FE2
050DE:  MOVFF  63A,FE1
050E2:  MOVF   FE7,F
050E4:  MOVFF  FE6,FEE
050E8:  BNZ   50E2
....................    if(sombreado==1) 
050EA:  DECFSZ x3E,W
050EC:  BRA    5138
....................       {glcd_rect(0, y, 127, y+(tamano*8), YES, ON);glcd_text57(x+1, y+1, Menus.Letra, tamano, OFF);} 
050EE:  MOVF   x3F,W
050F0:  MULLW  08
050F2:  MOVF   FF3,W
050F4:  ADDWF  x3D,W
050F6:  MOVWF  x40
050F8:  CLRF   x4B
050FA:  MOVFF  63D,64C
050FE:  MOVLW  7F
05100:  MOVWF  x4D
05102:  MOVFF  640,64E
05106:  MOVLW  01
05108:  MOVWF  x4F
0510A:  MOVWF  x50
0510C:  MOVLB  0
0510E:  RCALL  4D8E
05110:  MOVLW  01
05112:  MOVLB  6
05114:  ADDWF  x3C,W
05116:  MOVWF  x40
05118:  MOVLW  01
0511A:  ADDWF  x3D,W
0511C:  MOVWF  x41
0511E:  MOVFF  640,64B
05122:  MOVWF  x4C
05124:  MOVLW  04
05126:  MOVWF  x4E
05128:  MOVLW  16
0512A:  MOVWF  x4D
0512C:  MOVFF  63F,64F
05130:  CLRF   x50
05132:  MOVLB  0
05134:  RCALL  4E50
05136:  MOVLB  6
....................    if(sombreado==0) 
05138:  MOVF   x3E,F
0513A:  BNZ   5188
....................       {glcd_rect(0, y, 127, y+(tamano*8), YES, OFF);glcd_text57(x+1, y+1, Menus.Letra, tamano, ON);} 
0513C:  MOVF   x3F,W
0513E:  MULLW  08
05140:  MOVF   FF3,W
05142:  ADDWF  x3D,W
05144:  MOVWF  x40
05146:  CLRF   x4B
05148:  MOVFF  63D,64C
0514C:  MOVLW  7F
0514E:  MOVWF  x4D
05150:  MOVFF  640,64E
05154:  MOVLW  01
05156:  MOVWF  x4F
05158:  CLRF   x50
0515A:  MOVLB  0
0515C:  RCALL  4D8E
0515E:  MOVLW  01
05160:  MOVLB  6
05162:  ADDWF  x3C,W
05164:  MOVWF  x40
05166:  MOVLW  01
05168:  ADDWF  x3D,W
0516A:  MOVWF  x41
0516C:  MOVFF  640,64B
05170:  MOVWF  x4C
05172:  MOVLW  04
05174:  MOVWF  x4E
05176:  MOVLW  16
05178:  MOVWF  x4D
0517A:  MOVFF  63F,64F
0517E:  MOVLW  01
05180:  MOVWF  x50
05182:  MOVLB  0
05184:  RCALL  4E50
05186:  MOVLB  6
....................  
.................... } 
05188:  MOVLB  0
0518A:  RETLW  00
....................  
.................... void displayfloat(float adc,int x,int y,int sombreado, int tamano) { 
....................    char voltage[9];     
....................       sprintf(voltage, "%2.0fC",adc); // Converts adc to text 
*
05F62:  MOVLW  06
05F64:  MOVLB  4
05F66:  MOVWF  x2B
05F68:  MOVLW  3E
05F6A:  MOVWF  x2A
05F6C:  MOVLW  01
05F6E:  MOVWF  FE9
05F70:  MOVFF  639,64A
05F74:  MOVFF  638,649
05F78:  MOVFF  637,648
05F7C:  MOVFF  636,647
05F80:  MOVLB  6
05F82:  CLRF   x4B
05F84:  MOVLB  0
05F86:  BRA    5DAC
05F88:  MOVLW  B0
05F8A:  MOVLB  6
05F8C:  MOVWF  x54
05F8E:  MOVLB  0
05F90:  CALL   4A94
05F94:  MOVLW  43
05F96:  MOVLB  6
05F98:  MOVWF  x54
05F9A:  MOVLB  0
05F9C:  CALL   4A94
....................        
....................    if(sombreado==1) 
05FA0:  MOVLB  6
05FA2:  DECFSZ x3C,W
05FA4:  BRA    5FFE
....................       {glcd_rect(x, y, x+(tamano*20), y+(tamano*8), YES, ON);glcd_text57(x+2, y+1, voltage, tamano, OFF);} 
05FA6:  MOVF   x3D,W
05FA8:  MULLW  14
05FAA:  MOVF   FF3,W
05FAC:  ADDWF  x3A,W
05FAE:  MOVWF  x47
05FB0:  MOVF   x3D,W
05FB2:  MULLW  08
05FB4:  MOVF   FF3,W
05FB6:  ADDWF  x3B,W
05FB8:  MOVWF  x48
05FBA:  MOVFF  63A,64B
05FBE:  MOVFF  63B,64C
05FC2:  MOVFF  647,64D
05FC6:  MOVWF  x4E
05FC8:  MOVLW  01
05FCA:  MOVWF  x4F
05FCC:  MOVWF  x50
05FCE:  MOVLB  0
05FD0:  CALL   4D8E
05FD4:  MOVLW  02
05FD6:  MOVLB  6
05FD8:  ADDWF  x3A,W
05FDA:  MOVWF  x47
05FDC:  MOVLW  01
05FDE:  ADDWF  x3B,W
05FE0:  MOVWF  x48
05FE2:  MOVFF  647,64B
05FE6:  MOVWF  x4C
05FE8:  MOVLW  06
05FEA:  MOVWF  x4E
05FEC:  MOVLW  3E
05FEE:  MOVWF  x4D
05FF0:  MOVFF  63D,64F
05FF4:  CLRF   x50
05FF6:  MOVLB  0
05FF8:  CALL   4E50
05FFC:  MOVLB  6
....................    if(sombreado==0) 
05FFE:  MOVF   x3C,F
06000:  BNZ   605C
....................       {glcd_rect(x, y, x+(tamano*20), y+(tamano*8), YES, OFF);glcd_text57(x+2, y+1, voltage, tamano, ON);} 
06002:  MOVF   x3D,W
06004:  MULLW  14
06006:  MOVF   FF3,W
06008:  ADDWF  x3A,W
0600A:  MOVWF  x47
0600C:  MOVF   x3D,W
0600E:  MULLW  08
06010:  MOVF   FF3,W
06012:  ADDWF  x3B,W
06014:  MOVWF  x48
06016:  MOVFF  63A,64B
0601A:  MOVFF  63B,64C
0601E:  MOVFF  647,64D
06022:  MOVWF  x4E
06024:  MOVLW  01
06026:  MOVWF  x4F
06028:  CLRF   x50
0602A:  MOVLB  0
0602C:  CALL   4D8E
06030:  MOVLW  02
06032:  MOVLB  6
06034:  ADDWF  x3A,W
06036:  MOVWF  x47
06038:  MOVLW  01
0603A:  ADDWF  x3B,W
0603C:  MOVWF  x48
0603E:  MOVFF  647,64B
06042:  MOVWF  x4C
06044:  MOVLW  06
06046:  MOVWF  x4E
06048:  MOVLW  3E
0604A:  MOVWF  x4D
0604C:  MOVFF  63D,64F
06050:  MOVLW  01
06052:  MOVWF  x50
06054:  MOVLB  0
06056:  CALL   4E50
0605A:  MOVLB  6
....................        
.................... } 
0605C:  MOVLB  0
0605E:  RETLW  00
....................  
.................... // Funcion para conversor analogo-digital 
.................... unsigned int16 sensores(int x){ 
.................... unsigned int16 y;set_adc_channel(x);delay_ms(1);y=read_adc();return (y); 
*
0331E:  MOVLB  6
03320:  RLCF   x43,W
03322:  MOVWF  00
03324:  RLCF   00,F
03326:  MOVLW  FC
03328:  ANDWF  00,F
0332A:  MOVFF  00,01
0332E:  MOVF   FC2,W
03330:  ANDLW  C3
03332:  IORWF  00,W
03334:  MOVWF  FC2
03336:  MOVLW  01
03338:  MOVWF  x46
0333A:  MOVLB  0
0333C:  CALL   1524
03340:  BSF    FC2.1
03342:  BTFSC  FC2.1
03344:  BRA    3342
03346:  MOVFF  FC4,645
0334A:  MOVLB  6
0334C:  MOVFF  FC3,644
03350:  MOVFF  644,01
03354:  MOVFF  645,02
.................... } 
03358:  MOVLB  0
0335A:  RETLW  00
.................... void displayInt16(int16 digito, int x, int y, int sombreado, int tamano) 
.................... { 
....................    char voltage[9]; 
....................     
....................    if(sombreado==2) 
....................    { 
....................       sprintf(voltage, "%05Lu", digito); 
....................       glcd_rect(x, y, x+(tamano*18), y+(tamano*8), YES, ON); 
....................       glcd_text57(x+1, y+1, voltage, tamano, OFF); 
....................    } 
....................    else 
....................    { 
....................       sprintf(voltage, "%05Lu", digito); 
....................     
....................       if(sombreado==4) 
....................       { 
....................          glcd_rect(x, y, x+(tamano*16), y+(tamano*8), YES, OFF); 
....................          glcd_text57(x+1, y+1, voltage, tamano, ON); 
....................       } 
....................       if(sombreado==1) 
....................          {glcd_rect(x, y, x+(tamano*30), y+(tamano*8), YES, ON);glcd_text57(x+1, y+1, voltage, tamano, OFF);} 
....................       if(sombreado==0) 
....................          {glcd_rect(x, y, x+(tamano*30), y+(tamano*8), YES, OFF);glcd_text57(x+1, y+1, voltage, tamano, ON);} 
....................    } 
....................    glcd_update(); 
.................... } 
....................  
....................  
.................... #define   UP               !input(PIN_A5) 
.................... #define   DOWN             !input(PIN_E0) 
.................... #define   RIGHT            !input(PIN_E1) 
.................... #define   LEFT             !input(PIN_E2) 
....................  
.................... #define   Alarma_on           output_bit(PIN_C5,1) 
.................... #define   Alarma_off          output_bit(PIN_C5,0) 
.................... #define   LuzBlanca_on        output_bit(PIN_C2,0) 
.................... #define   LuzBlanca_off       output_bit(PIN_C2,1) 
.................... #define   Aux_on              output_bit(PIN_C0,1) 
.................... #define   Aux_off             output_bit(PIN_C0,0) 
.................... #define   Motor_on            output_bit(PIN_C1,0) 
.................... #define   Motor_off           output_bit(PIN_C1,1) 
.................... #define   Display_on          output_bit(PIN_B1,1) 
.................... #define   Display_off         output_bit(PIN_B1,0) 
....................  
.................... #define RS485 
....................  
.................... short Flanco=0,Flanco1=0,Flanco2=0,Flanco3=0,Flanco4=0,Flanco5=0,imprimir=0,flag_blower=0,flag_toma=0,flag_luz=0,w=0,Alarmas=OFF; 
.................... short tiempo_purga=0,tiempo_trabajo=0,flag_latencia=0,tiempo_postpurga=0,flagError=OFF; 
.................... short guardatrabajo=0,Lectura=0,n=0; 
.................... char  JP[] = "JP Inglobal", Cabina[] = "Cabina Extractora",Dos_puntos[]=":"; 
.................... char  Clase[] = "Sin Ductos", Tiempo[] = "Tiempo de Purga"; 
.................... char  Inflowt[] = "Vel:",Downflowt[] = "Temperatura", ZF[] = "Fabrica:208.0", ZA[] = "Actual:",AJ[]="Ajuste:"; 
.................... char  Vida_Filtro[] = "T. Filtro:",ZFP[] = "Fabrica:235.0"; 
.................... int8 Menu=200, unidad=1, Opcion=1,negativo=10,G_l=0,G_h=0,tiemporeset=0; 
.................... int8 l=0,h=0,Entero=0,Decimal1=0,Alarma=10,instruccion=0,address=0,address2=0,regl=0,regh=0,pwm1l=0,pwm1h=0,pwm2l=0,pwm2h=0,conteoError=0; 
....................  
.................... unsigned int16 Inflow_adc=0,Filtro_Downflow_adc=0,Temporal1=0; 
....................  
.................... int16 t_latencia=0,minutos_uv=0,minutos_trabajo=0,G16=0,tup=0,tdown=0,tright=0,tleft=0,reg=0,pwm1=0,pwm2=0; 
.................... signed int  Tpurga[4]={0,0,0,0};       // Tiempo de Purga transcurrido 
.................... signed int  Tpurgap[4]={9,0,0,0};      // Tiempo de Purga programado 
.................... signed int  Tppurga[4]={0,0,0,0};      // Tiempo de Post-Purga transcurrido 
.................... signed int  Tppurgap[4]={9,0,0,0};     // Tiempo de Post-Purga programado 
.................... signed int  Tuv[4]={0,0,0,0};          // Tiempo de UV transcurrido(en Horas) 
.................... signed int  Tempouvp[4]={0,0,0,0};        // Tiempo de UV transcurrido 
.................... signed int  Ttrabajo[4]={0,0,0,0};        // Tiempo de trabajo transcurrido (en Horas) 
.................... signed int  Contrasena[4]={0,0,0,0};      // Contrasena de 4 digitos 
.................... signed int  Password[4]={0,0,0,0};        // Contrasena Almacenada de 4 digitos 
.................... float Inflow=0.0,Filtro_Downflow=0.0,Diferencia=0.0; 
.................... float Velocidad=0.0,x_uno=0.0,Ajuste1=0.0,Ajuste2=0.0; 
.................... float Temporal=0.0,Temporal2=0.0; 
.................... float a=0.00000957915546738639,b=-0.00727819571978831,c= 1.85375754678451,d= -156.816806902063; 
.................... //float t=378.463968402560,f=-18275.0402762787;//Sensor 2 Posible bueno 
....................  
.................... float promedio[8]={0.0,0.0,0.0,0.0,0.0,0.0,0.0,0.0}; 
.................... float promedio2[8]={0.0,0.0,0.0,0.0,0.0,0.0,0.0,0.0}; 
.................... float Flujo=0.0,zero_fabrica=208.0,zero_actual=0.0; 
.................... float G=2.0; 
....................  
.................... int16 tiempos=0; 
.................... int8 i=0,l2=0,h2=0,Temperatura=0; 
.................... short Purga=OFF; 
.................... int8 VelMotor=0; 
.................... char tempo[20]; 
....................  
.................... //Comunicacion//------------------------ 
.................... byte SlaveA0Tx[0X20]; 
.................... byte txbuf[100]; 
.................... byte dato=0;            //Contendr la informacin a enviar o recibir 
.................... byte direccion=0;       //Contendr la direccin del esclavo en el bus I2C 
.................... byte posicion=0;  
....................  
.................... #include "Funciones.h" 
.................... void Envio_I2C(direccion, posicion, dato){ 
....................  
....................    i2c_start();            // Comienzo comunicacin 
*
01A68:  BSF    F94.4
01A6A:  MOVLW  05
01A6C:  MOVWF  00
01A6E:  DECFSZ 00,F
01A70:  BRA    1A6E
01A72:  BSF    F94.3
01A74:  MOVLW  06
01A76:  MOVWF  00
01A78:  DECFSZ 00,F
01A7A:  BRA    1A78
01A7C:  BCF    F8B.4
01A7E:  BCF    F94.4
01A80:  MOVLW  05
01A82:  MOVWF  00
01A84:  DECFSZ 00,F
01A86:  BRA    1A84
01A88:  BCF    F8B.3
01A8A:  BCF    F94.3
....................    i2c_write(direccion);   // Direccin del esclavo en el bus I2C 
01A8C:  MOVFF  638,63B
01A90:  RCALL  19F2
....................    i2c_write(posicion);    // Posicin donde se guardara el dato transmitido 
01A92:  MOVFF  639,63B
01A96:  RCALL  19F2
....................    i2c_write(dato);        // Dato a transmitir 
01A98:  MOVFF  63A,63B
01A9C:  RCALL  19F2
....................    i2c_stop();             // Fin comunicacin 
01A9E:  BCF    F94.4
01AA0:  NOP   
01AA2:  BSF    F94.3
01AA4:  BTFSS  F82.3
01AA6:  BRA    1AA4
01AA8:  MOVLW  05
01AAA:  MOVWF  00
01AAC:  DECFSZ 00,F
01AAE:  BRA    1AAC
01AB0:  BRA    1AB2
01AB2:  NOP   
01AB4:  BSF    F94.4
01AB6:  MOVLW  05
01AB8:  MOVWF  00
01ABA:  DECFSZ 00,F
01ABC:  BRA    1ABA
....................  } 
01ABE:  GOTO   1AF8 (RETURN)
....................  
.................... void Lectura_I2C (byte direccion, byte posicion, byte &dato) { 
....................  
....................    i2c_start();            // Comienzo de la comunicacin 
*
01B74:  BSF    F94.4
01B76:  MOVLW  05
01B78:  MOVWF  00
01B7A:  DECFSZ 00,F
01B7C:  BRA    1B7A
01B7E:  BSF    F94.3
01B80:  MOVLW  06
01B82:  MOVWF  00
01B84:  DECFSZ 00,F
01B86:  BRA    1B84
01B88:  BCF    F8B.4
01B8A:  BCF    F94.4
01B8C:  MOVLW  05
01B8E:  MOVWF  00
01B90:  DECFSZ 00,F
01B92:  BRA    1B90
01B94:  BCF    F8B.3
01B96:  BCF    F94.3
*
01C12:  BSF    F94.4
01C14:  MOVLW  05
01C16:  MOVWF  00
01C18:  DECFSZ 00,F
01C1A:  BRA    1C18
01C1C:  BSF    F94.3
01C1E:  MOVLW  06
01C20:  MOVWF  00
01C22:  DECFSZ 00,F
01C24:  BRA    1C22
01C26:  BCF    F8B.4
01C28:  BCF    F94.4
01C2A:  MOVLW  05
01C2C:  MOVWF  00
01C2E:  DECFSZ 00,F
01C30:  BRA    1C2E
01C32:  BCF    F8B.3
01C34:  BCF    F94.3
*
01CD0:  BSF    F94.4
01CD2:  MOVLW  05
01CD4:  MOVWF  00
01CD6:  DECFSZ 00,F
01CD8:  BRA    1CD6
01CDA:  BSF    F94.3
01CDC:  MOVLW  06
01CDE:  MOVWF  00
01CE0:  DECFSZ 00,F
01CE2:  BRA    1CE0
01CE4:  BCF    F8B.4
01CE6:  BCF    F94.4
01CE8:  MOVLW  05
01CEA:  MOVWF  00
01CEC:  DECFSZ 00,F
01CEE:  BRA    1CEC
01CF0:  BCF    F8B.3
01CF2:  BCF    F94.3
....................    i2c_write(direccion);   // Direccin del esclavo en el bus I2C 
*
01B98:  MOVFF  637,63B
01B9C:  MOVLB  0
01B9E:  RCALL  19F2
*
01C36:  MOVFF  637,63B
01C3A:  MOVLB  0
01C3C:  RCALL  19F2
*
01CF4:  MOVFF  637,63B
01CF8:  MOVLB  0
01CFA:  RCALL  19F2
....................    i2c_write(posicion);    // Posicin de donde se leer el dato en el esclavo 
*
01BA0:  MOVFF  638,63B
01BA4:  RCALL  19F2
*
01C3E:  MOVFF  638,63B
01C42:  RCALL  19F2
*
01CFC:  MOVFF  638,63B
01D00:  RCALL  19F2
....................    i2c_start();            // Reinicio 
*
01BA6:  BSF    F94.4
01BA8:  MOVLW  05
01BAA:  MOVWF  00
01BAC:  DECFSZ 00,F
01BAE:  BRA    1BAC
01BB0:  BSF    F94.3
01BB2:  MOVLW  06
01BB4:  MOVWF  00
01BB6:  DECFSZ 00,F
01BB8:  BRA    1BB6
01BBA:  BTFSS  F82.3
01BBC:  BRA    1BBA
01BBE:  BCF    F8B.4
01BC0:  BCF    F94.4
01BC2:  MOVLW  05
01BC4:  MOVWF  00
01BC6:  DECFSZ 00,F
01BC8:  BRA    1BC6
01BCA:  BCF    F8B.3
01BCC:  BCF    F94.3
*
01C44:  BSF    F94.4
01C46:  MOVLW  05
01C48:  MOVWF  00
01C4A:  DECFSZ 00,F
01C4C:  BRA    1C4A
01C4E:  BSF    F94.3
01C50:  MOVLW  06
01C52:  MOVWF  00
01C54:  DECFSZ 00,F
01C56:  BRA    1C54
01C58:  BTFSS  F82.3
01C5A:  BRA    1C58
01C5C:  BCF    F8B.4
01C5E:  BCF    F94.4
01C60:  MOVLW  05
01C62:  MOVWF  00
01C64:  DECFSZ 00,F
01C66:  BRA    1C64
01C68:  BCF    F8B.3
01C6A:  BCF    F94.3
*
01D02:  BSF    F94.4
01D04:  MOVLW  05
01D06:  MOVWF  00
01D08:  DECFSZ 00,F
01D0A:  BRA    1D08
01D0C:  BSF    F94.3
01D0E:  MOVLW  06
01D10:  MOVWF  00
01D12:  DECFSZ 00,F
01D14:  BRA    1D12
01D16:  BTFSS  F82.3
01D18:  BRA    1D16
01D1A:  BCF    F8B.4
01D1C:  BCF    F94.4
01D1E:  MOVLW  05
01D20:  MOVWF  00
01D22:  DECFSZ 00,F
01D24:  BRA    1D22
01D26:  BCF    F8B.3
01D28:  BCF    F94.3
....................    i2c_write(direccion+1); // Direccin del esclavo en modo lectura 
*
01BCE:  MOVLW  01
01BD0:  MOVLB  6
01BD2:  ADDWF  x37,W
01BD4:  MOVWF  x39
01BD6:  MOVWF  x3B
01BD8:  MOVLB  0
01BDA:  RCALL  19F2
*
01C6C:  MOVLW  01
01C6E:  MOVLB  6
01C70:  ADDWF  x37,W
01C72:  MOVWF  x39
01C74:  MOVWF  x3B
01C76:  MOVLB  0
01C78:  RCALL  19F2
*
01D2A:  MOVLW  01
01D2C:  MOVLB  6
01D2E:  ADDWF  x37,W
01D30:  MOVWF  x39
01D32:  MOVWF  x3B
01D34:  MOVLB  0
01D36:  RCALL  19F2
....................    dato=i2c_read(0);       // Lectura del dato 
*
01BDC:  CLRF   00
01BDE:  RCALL  1B02
01BE0:  MOVFF  01,62B
*
01C7A:  CLRF   00
01C7C:  RCALL  1B02
01C7E:  MOVFF  01,62B
*
01D38:  CLRF   00
01D3A:  RCALL  1B02
01D3C:  MOVFF  01,62B
....................    i2c_stop();             // Fin comunicacin 
*
01BE4:  BCF    F94.4
01BE6:  NOP   
01BE8:  BSF    F94.3
01BEA:  BTFSS  F82.3
01BEC:  BRA    1BEA
01BEE:  MOVLW  05
01BF0:  MOVWF  00
01BF2:  DECFSZ 00,F
01BF4:  BRA    1BF2
01BF6:  BRA    1BF8
01BF8:  NOP   
01BFA:  BSF    F94.4
01BFC:  MOVLW  05
01BFE:  MOVWF  00
01C00:  DECFSZ 00,F
01C02:  BRA    1C00
*
01C82:  BCF    F94.4
01C84:  NOP   
01C86:  BSF    F94.3
01C88:  BTFSS  F82.3
01C8A:  BRA    1C88
01C8C:  MOVLW  05
01C8E:  MOVWF  00
01C90:  DECFSZ 00,F
01C92:  BRA    1C90
01C94:  BRA    1C96
01C96:  NOP   
01C98:  BSF    F94.4
01C9A:  MOVLW  05
01C9C:  MOVWF  00
01C9E:  DECFSZ 00,F
01CA0:  BRA    1C9E
*
01D40:  BCF    F94.4
01D42:  NOP   
01D44:  BSF    F94.3
01D46:  BTFSS  F82.3
01D48:  BRA    1D46
01D4A:  MOVLW  05
01D4C:  MOVWF  00
01D4E:  DECFSZ 00,F
01D50:  BRA    1D4E
01D52:  BRA    1D54
01D54:  NOP   
01D56:  BSF    F94.4
01D58:  MOVLW  05
01D5A:  MOVWF  00
01D5C:  DECFSZ 00,F
01D5E:  BRA    1D5C
.................... } 
....................  
.................... void Carga_Vector(void){ 
....................    SlaveA0Tx[0]=instruccion; 
*
019C6:  MOVFF  4BE,5A7
....................    SlaveA0Tx[1]=address; 
019CA:  MOVFF  4BF,5A8
....................    SlaveA0Tx[2]=regl; 
019CE:  MOVFF  4C1,5A9
....................    SlaveA0Tx[3]=regh; 
019D2:  MOVFF  4C2,5AA
....................    SlaveA0Tx[4]=pwm1l; 
019D6:  MOVFF  4C3,5AB
....................    SlaveA0Tx[5]=pwm1h; 
019DA:  MOVFF  4C4,5AC
....................    SlaveA0Tx[6]=pwm2l; 
019DE:  MOVFF  4C5,5AD
....................    SlaveA0Tx[7]=pwm2h; 
019E2:  MOVFF  4C6,5AE
....................    SlaveA0Tx[8]=txbuf[0]; 
019E6:  MOVFF  5C7,5AF
....................    SlaveA0Tx[9]=txbuf[19]; 
019EA:  MOVFF  5DA,5B0
.................... } 
019EE:  GOTO   1AC4 (RETURN)
....................  
.................... void Lee_Vector(void){ 
....................     
.................... } 
*
00004:  GOTO   1D7E (RETURN)
....................  
.................... void Envio_Esclavos(void){ 
....................    Carga_Vector();    
*
01AC2:  BRA    19C6
....................    for(i=0;i<10;i++) 
01AC4:  MOVLB  5
01AC6:  CLRF   x8E
01AC8:  MOVF   x8E,W
01ACA:  SUBLW  09
01ACC:  BNC   1AFE
....................    { 
....................       direccion=0xB0; 
01ACE:  MOVLW  B0
01AD0:  MOVLB  6
01AD2:  MOVWF  x2C
....................       Envio_I2C(direccion,i,SlaveA0Tx[i]); 
01AD4:  CLRF   03
01AD6:  MOVLB  5
01AD8:  MOVF   x8E,W
01ADA:  ADDLW  A7
01ADC:  MOVWF  FE9
01ADE:  MOVLW  05
01AE0:  ADDWFC 03,W
01AE2:  MOVWF  FEA
01AE4:  MOVFF  FEF,637
01AE8:  MOVFF  62C,638
01AEC:  MOVFF  58E,639
01AF0:  MOVFF  637,63A
01AF4:  MOVLB  0
01AF6:  BRA    1A68
....................    }  
01AF8:  MOVLB  5
01AFA:  INCF   x8E,F
01AFC:  BRA    1AC8
.................... } 
01AFE:  MOVLB  0
01B00:  RETLW  00
.................... void Lectura_Esclavos(void){ 
....................    Lectura_I2C(0xB0, 0, dato);    //Lectura por I2C 
*
01B6C:  MOVLW  B0
01B6E:  MOVLB  6
01B70:  MOVWF  x37
01B72:  CLRF   x38
....................    txbuf[0]=(int8)dato; 
*
01C04:  MOVFF  62B,5C7
....................    Lectura_I2C(0xB0, 19, dato);    //Lectura por I2C 
01C08:  MOVLW  B0
01C0A:  MOVLB  6
01C0C:  MOVWF  x37
01C0E:  MOVLW  13
01C10:  MOVWF  x38
....................    txbuf[19]=(int8)dato; 
*
01CA2:  MOVFF  62B,5DA
....................    if(txbuf[0]==10 && txbuf[19]==128){ 
01CA6:  MOVLB  5
01CA8:  MOVF   xC7,W
01CAA:  SUBLW  0A
01CAC:  BNZ   1D80
01CAE:  MOVF   xDA,W
01CB0:  SUBLW  80
01CB2:  BNZ   1D80
....................       for(i=1;i<20;i++){ 
01CB4:  MOVLW  01
01CB6:  MOVWF  x8E
01CB8:  MOVF   x8E,W
01CBA:  SUBLW  13
01CBC:  BNC   1D78
....................          direccion=0xB0;                        //Direccin en el bus I2c 
01CBE:  MOVLW  B0
01CC0:  MOVLB  6
01CC2:  MOVWF  x2C
....................          posicion=i;                         //Posicin de memoria a leer 
01CC4:  MOVFF  58E,62D
....................          Lectura_I2C(direccion, posicion, dato);    //Lectura por I2C 
01CC8:  MOVFF  62C,637
01CCC:  MOVFF  62D,638
....................          txbuf[i]=(int8)dato; 
*
01D60:  CLRF   03
01D62:  MOVLB  5
01D64:  MOVF   x8E,W
01D66:  ADDLW  C7
01D68:  MOVWF  FE9
01D6A:  MOVLW  05
01D6C:  ADDWFC 03,W
01D6E:  MOVWF  FEA
01D70:  MOVFF  62B,FEF
....................       } 
01D74:  INCF   x8E,F
01D76:  BRA    1CB8
....................       Lee_Vector();    
01D78:  MOVLB  0
01D7A:  GOTO   0004
01D7E:  MOVLB  5
....................    } 
.................... } 
01D80:  MOVLB  0
01D82:  RETLW  00
....................  
....................  
.................... void readHolding(){ 
....................    instruccion=3; 
01D84:  MOVLW  03
01D86:  MOVLB  4
01D88:  MOVWF  xBE
....................    address=1; 
01D8A:  MOVLW  01
01D8C:  MOVWF  xBF
....................    regl=0; 
01D8E:  CLRF   xC1
....................    regh=0; 
01D90:  CLRF   xC2
....................    Envio_Esclavos(); 
01D92:  MOVLB  0
01D94:  RCALL  1AC2
....................    delay_ms(200); 
01D96:  MOVLW  C8
01D98:  MOVLB  6
01D9A:  MOVWF  x46
01D9C:  MOVLB  0
01D9E:  CALL   1524
....................    Lectura_Esclavos();  
01DA2:  RCALL  1B6C
.................... } 
01DA4:  GOTO   1E7E (RETURN)
....................  
.................... float leeTemperatura(int8 media){ 
*
04888:  MOVLB  6
0488A:  CLRF   x36
0488C:  CLRF   x35
0488E:  CLRF   x34
04890:  CLRF   x33
04892:  CLRF   x3A
04894:  CLRF   x39
04896:  CLRF   x38
04898:  CLRF   x37
0489A:  CLRF   x3E
0489C:  CLRF   x3D
0489E:  CLRF   x3C
048A0:  CLRF   x3B
048A2:  CLRF   x42
048A4:  CLRF   x41
048A6:  CLRF   x40
048A8:  CLRF   x3F
....................    float ADC=0,V=0,T=0,Tempera=0; 
....................    ADC=sensores(2); 
048AA:  MOVLW  02
048AC:  MOVWF  x43
048AE:  MOVLB  0
048B0:  CALL   331E
048B4:  MOVFF  02,668
048B8:  MOVFF  01,667
048BC:  CALL   173C
048C0:  MOVFF  03,636
048C4:  MOVFF  02,635
048C8:  MOVFF  01,634
048CC:  MOVFF  00,633
....................    V=5*ADC/1023; 
048D0:  MOVLB  6
048D2:  CLRF   x66
048D4:  CLRF   x65
048D6:  MOVLW  20
048D8:  MOVWF  x64
048DA:  MOVLW  81
048DC:  MOVWF  x63
048DE:  MOVFF  636,66A
048E2:  MOVFF  635,669
048E6:  MOVFF  634,668
048EA:  MOVFF  633,667
048EE:  MOVLB  0
048F0:  CALL   18D0
048F4:  MOVFF  00,643
048F8:  MOVFF  01,644
048FC:  MOVFF  02,645
04900:  MOVFF  03,646
04904:  MOVFF  03,666
04908:  MOVFF  02,665
0490C:  MOVFF  01,664
04910:  MOVFF  00,663
04914:  MOVLB  6
04916:  CLRF   x6A
04918:  MOVLW  C0
0491A:  MOVWF  x69
0491C:  MOVLW  7F
0491E:  MOVWF  x68
04920:  MOVLW  88
04922:  MOVWF  x67
04924:  MOVLB  0
04926:  CALL   1772
0492A:  MOVFF  03,63A
0492E:  MOVFF  02,639
04932:  MOVFF  01,638
04936:  MOVFF  00,637
....................    T=V/0.01; 
0493A:  MOVFF  63A,666
0493E:  MOVFF  639,665
04942:  MOVFF  638,664
04946:  MOVFF  637,663
0494A:  MOVLW  0A
0494C:  MOVLB  6
0494E:  MOVWF  x6A
04950:  MOVLW  D7
04952:  MOVWF  x69
04954:  MOVLW  23
04956:  MOVWF  x68
04958:  MOVLW  78
0495A:  MOVWF  x67
0495C:  MOVLB  0
0495E:  CALL   1772
04962:  MOVFF  03,63E
04966:  MOVFF  02,63D
0496A:  MOVFF  01,63C
0496E:  MOVFF  00,63B
....................    if(l2>media) 
04972:  MOVLB  5
04974:  MOVF   x8F,W
04976:  MOVLB  6
04978:  SUBWF  x32,W
0497A:  BC    4980
....................       l2=0; 
0497C:  MOVLB  5
0497E:  CLRF   x8F
....................        
....................    promedio2[l2]=T;l2++; 
04980:  MOVLB  5
04982:  MOVF   x8F,W
04984:  MULLW  04
04986:  MOVF   FF3,W
04988:  CLRF   03
0498A:  ADDLW  5C
0498C:  MOVWF  FE9
0498E:  MOVLW  05
04990:  ADDWFC 03,W
04992:  MOVWF  FEA
04994:  MOVFF  63B,FEF
04998:  MOVFF  63C,FEC
0499C:  MOVFF  63D,FEC
049A0:  MOVFF  63E,FEC
049A4:  INCF   x8F,F
....................    Tempera=0; 
049A6:  MOVLB  6
049A8:  CLRF   x42
049AA:  CLRF   x41
049AC:  CLRF   x40
049AE:  CLRF   x3F
....................       
....................      for(h2=0;h2<=(media-1);h2++){ 
049B0:  MOVLB  5
049B2:  CLRF   x90
049B4:  MOVLW  01
049B6:  MOVLB  6
049B8:  SUBWF  x32,W
049BA:  MOVLB  5
049BC:  SUBWF  x90,W
049BE:  BZ    49C2
049C0:  BC    4A32
....................         Tempera+=promedio2[h2]; 
049C2:  MOVF   x90,W
049C4:  MULLW  04
049C6:  MOVF   FF3,W
049C8:  CLRF   03
049CA:  ADDLW  5C
049CC:  MOVWF  FE9
049CE:  MOVLW  05
049D0:  ADDWFC 03,W
049D2:  MOVWF  FEA
049D4:  MOVFF  FEF,00
049D8:  MOVFF  FEC,01
049DC:  MOVFF  FEC,02
049E0:  MOVFF  FEC,03
049E4:  MOVFF  FEA,644
049E8:  MOVFF  FE9,643
049EC:  BCF    FD8.1
049EE:  MOVFF  642,66A
049F2:  MOVFF  641,669
049F6:  MOVFF  640,668
049FA:  MOVFF  63F,667
049FE:  MOVFF  03,66E
04A02:  MOVFF  02,66D
04A06:  MOVFF  01,66C
04A0A:  MOVFF  00,66B
04A0E:  MOVLB  0
04A10:  CALL   1EF0
04A14:  MOVFF  644,FEA
04A18:  MOVFF  643,FE9
04A1C:  MOVFF  03,642
04A20:  MOVFF  02,641
04A24:  MOVFF  01,640
04A28:  MOVFF  00,63F
....................      }       
04A2C:  MOVLB  5
04A2E:  INCF   x90,F
04A30:  BRA    49B4
....................    return Tempera/media; 
04A32:  MOVLB  6
04A34:  CLRF   x68
04A36:  MOVFF  632,667
04A3A:  MOVLB  0
04A3C:  CALL   173C
04A40:  MOVFF  642,666
04A44:  MOVFF  641,665
04A48:  MOVFF  640,664
04A4C:  MOVFF  63F,663
04A50:  MOVFF  03,66A
04A54:  MOVFF  02,669
04A58:  MOVFF  01,668
04A5C:  MOVFF  00,667
04A60:  CALL   1772
.................... } 
04A64:  GOTO   666E (RETURN)
....................  
.................... void LeeEEPROM(void){ 
....................    Password[0]=read_eeprom(0); 
*
02168:  MOVFF  FF2,632
0216C:  BCF    FF2.7
0216E:  CLRF   FAA
02170:  CLRF   FA9
02172:  BCF    FA6.6
02174:  BCF    FA6.7
02176:  BSF    FA6.0
02178:  MOVF   FA8,W
0217A:  MOVLB  6
0217C:  BTFSC  x32.7
0217E:  BSF    FF2.7
02180:  MOVLB  5
02182:  MOVWF  x04
....................    delay_ms(10); 
02184:  MOVLW  0A
02186:  MOVLB  6
02188:  MOVWF  x46
0218A:  MOVLB  0
0218C:  CALL   1524
....................    Password[1]=read_eeprom(1); 
02190:  MOVFF  FF2,632
02194:  BCF    FF2.7
02196:  CLRF   FAA
02198:  MOVLW  01
0219A:  MOVWF  FA9
0219C:  BCF    FA6.6
0219E:  BCF    FA6.7
021A0:  BSF    FA6.0
021A2:  MOVF   FA8,W
021A4:  MOVLB  6
021A6:  BTFSC  x32.7
021A8:  BSF    FF2.7
021AA:  MOVLB  5
021AC:  MOVWF  x05
....................    delay_ms(10); 
021AE:  MOVLW  0A
021B0:  MOVLB  6
021B2:  MOVWF  x46
021B4:  MOVLB  0
021B6:  CALL   1524
....................    Password[2]=read_eeprom(2); 
021BA:  MOVFF  FF2,632
021BE:  BCF    FF2.7
021C0:  CLRF   FAA
021C2:  MOVLW  02
021C4:  MOVWF  FA9
021C6:  BCF    FA6.6
021C8:  BCF    FA6.7
021CA:  BSF    FA6.0
021CC:  MOVF   FA8,W
021CE:  MOVLB  6
021D0:  BTFSC  x32.7
021D2:  BSF    FF2.7
021D4:  MOVLB  5
021D6:  MOVWF  x06
....................    delay_ms(10); 
021D8:  MOVLW  0A
021DA:  MOVLB  6
021DC:  MOVWF  x46
021DE:  MOVLB  0
021E0:  CALL   1524
....................    Password[3]=read_eeprom(3); 
021E4:  MOVFF  FF2,632
021E8:  BCF    FF2.7
021EA:  CLRF   FAA
021EC:  MOVLW  03
021EE:  MOVWF  FA9
021F0:  BCF    FA6.6
021F2:  BCF    FA6.7
021F4:  BSF    FA6.0
021F6:  MOVF   FA8,W
021F8:  MOVLB  6
021FA:  BTFSC  x32.7
021FC:  BSF    FF2.7
021FE:  MOVLB  5
02200:  MOVWF  x07
....................    delay_ms(10); 
02202:  MOVLW  0A
02204:  MOVLB  6
02206:  MOVWF  x46
02208:  MOVLB  0
0220A:  CALL   1524
....................    Tpurgap[0]=read_eeprom(4); 
0220E:  MOVFF  FF2,632
02212:  BCF    FF2.7
02214:  CLRF   FAA
02216:  MOVLW  04
02218:  MOVWF  FA9
0221A:  BCF    FA6.6
0221C:  BCF    FA6.7
0221E:  BSF    FA6.0
02220:  MOVF   FA8,W
02222:  MOVLB  6
02224:  BTFSC  x32.7
02226:  BSF    FF2.7
02228:  MOVLB  4
0222A:  MOVWF  xE8
....................    delay_ms(10); 
0222C:  MOVLW  0A
0222E:  MOVLB  6
02230:  MOVWF  x46
02232:  MOVLB  0
02234:  CALL   1524
....................    Tpurgap[1]=read_eeprom(5); 
02238:  MOVFF  FF2,632
0223C:  BCF    FF2.7
0223E:  CLRF   FAA
02240:  MOVLW  05
02242:  MOVWF  FA9
02244:  BCF    FA6.6
02246:  BCF    FA6.7
02248:  BSF    FA6.0
0224A:  MOVF   FA8,W
0224C:  MOVLB  6
0224E:  BTFSC  x32.7
02250:  BSF    FF2.7
02252:  MOVLB  4
02254:  MOVWF  xE9
....................    delay_ms(10); 
02256:  MOVLW  0A
02258:  MOVLB  6
0225A:  MOVWF  x46
0225C:  MOVLB  0
0225E:  CALL   1524
....................    Tpurgap[2]=read_eeprom(6); 
02262:  MOVFF  FF2,632
02266:  BCF    FF2.7
02268:  CLRF   FAA
0226A:  MOVLW  06
0226C:  MOVWF  FA9
0226E:  BCF    FA6.6
02270:  BCF    FA6.7
02272:  BSF    FA6.0
02274:  MOVF   FA8,W
02276:  MOVLB  6
02278:  BTFSC  x32.7
0227A:  BSF    FF2.7
0227C:  MOVLB  4
0227E:  MOVWF  xEA
....................    delay_ms(10); 
02280:  MOVLW  0A
02282:  MOVLB  6
02284:  MOVWF  x46
02286:  MOVLB  0
02288:  CALL   1524
....................    Tpurgap[3]=read_eeprom(7); 
0228C:  MOVFF  FF2,632
02290:  BCF    FF2.7
02292:  CLRF   FAA
02294:  MOVLW  07
02296:  MOVWF  FA9
02298:  BCF    FA6.6
0229A:  BCF    FA6.7
0229C:  BSF    FA6.0
0229E:  MOVF   FA8,W
022A0:  MOVLB  6
022A2:  BTFSC  x32.7
022A4:  BSF    FF2.7
022A6:  MOVLB  4
022A8:  MOVWF  xEB
....................    delay_ms(10); 
022AA:  MOVLW  0A
022AC:  MOVLB  6
022AE:  MOVWF  x46
022B0:  MOVLB  0
022B2:  CALL   1524
....................    Tppurgap[0]=read_eeprom(8); 
022B6:  MOVFF  FF2,632
022BA:  BCF    FF2.7
022BC:  CLRF   FAA
022BE:  MOVLW  08
022C0:  MOVWF  FA9
022C2:  BCF    FA6.6
022C4:  BCF    FA6.7
022C6:  BSF    FA6.0
022C8:  MOVF   FA8,W
022CA:  MOVLB  6
022CC:  BTFSC  x32.7
022CE:  BSF    FF2.7
022D0:  MOVLB  4
022D2:  MOVWF  xF0
....................    delay_ms(10); 
022D4:  MOVLW  0A
022D6:  MOVLB  6
022D8:  MOVWF  x46
022DA:  MOVLB  0
022DC:  CALL   1524
....................    Tppurgap[1]=read_eeprom(9); 
022E0:  MOVFF  FF2,632
022E4:  BCF    FF2.7
022E6:  CLRF   FAA
022E8:  MOVLW  09
022EA:  MOVWF  FA9
022EC:  BCF    FA6.6
022EE:  BCF    FA6.7
022F0:  BSF    FA6.0
022F2:  MOVF   FA8,W
022F4:  MOVLB  6
022F6:  BTFSC  x32.7
022F8:  BSF    FF2.7
022FA:  MOVLB  4
022FC:  MOVWF  xF1
....................    delay_ms(10); 
022FE:  MOVLW  0A
02300:  MOVLB  6
02302:  MOVWF  x46
02304:  MOVLB  0
02306:  CALL   1524
....................    Tppurgap[2]=read_eeprom(10); 
0230A:  MOVFF  FF2,632
0230E:  BCF    FF2.7
02310:  CLRF   FAA
02312:  MOVLW  0A
02314:  MOVWF  FA9
02316:  BCF    FA6.6
02318:  BCF    FA6.7
0231A:  BSF    FA6.0
0231C:  MOVF   FA8,W
0231E:  MOVLB  6
02320:  BTFSC  x32.7
02322:  BSF    FF2.7
02324:  MOVLB  4
02326:  MOVWF  xF2
....................    delay_ms(10); 
02328:  MOVLW  0A
0232A:  MOVLB  6
0232C:  MOVWF  x46
0232E:  MOVLB  0
02330:  CALL   1524
....................    Tppurgap[3]=read_eeprom(11); 
02334:  MOVFF  FF2,632
02338:  BCF    FF2.7
0233A:  CLRF   FAA
0233C:  MOVLW  0B
0233E:  MOVWF  FA9
02340:  BCF    FA6.6
02342:  BCF    FA6.7
02344:  BSF    FA6.0
02346:  MOVF   FA8,W
02348:  MOVLB  6
0234A:  BTFSC  x32.7
0234C:  BSF    FF2.7
0234E:  MOVLB  4
02350:  MOVWF  xF3
....................    delay_ms(10); 
02352:  MOVLW  0A
02354:  MOVLB  6
02356:  MOVWF  x46
02358:  MOVLB  0
0235A:  CALL   1524
....................    Tuv[0]=read_eeprom(12); 
0235E:  MOVFF  FF2,632
02362:  BCF    FF2.7
02364:  CLRF   FAA
02366:  MOVLW  0C
02368:  MOVWF  FA9
0236A:  BCF    FA6.6
0236C:  BCF    FA6.7
0236E:  BSF    FA6.0
02370:  MOVF   FA8,W
02372:  MOVLB  6
02374:  BTFSC  x32.7
02376:  BSF    FF2.7
02378:  MOVLB  4
0237A:  MOVWF  xF4
....................    delay_ms(10); 
0237C:  MOVLW  0A
0237E:  MOVLB  6
02380:  MOVWF  x46
02382:  MOVLB  0
02384:  CALL   1524
....................    Tuv[1]=read_eeprom(13); 
02388:  MOVFF  FF2,632
0238C:  BCF    FF2.7
0238E:  CLRF   FAA
02390:  MOVLW  0D
02392:  MOVWF  FA9
02394:  BCF    FA6.6
02396:  BCF    FA6.7
02398:  BSF    FA6.0
0239A:  MOVF   FA8,W
0239C:  MOVLB  6
0239E:  BTFSC  x32.7
023A0:  BSF    FF2.7
023A2:  MOVLB  4
023A4:  MOVWF  xF5
....................    delay_ms(10); 
023A6:  MOVLW  0A
023A8:  MOVLB  6
023AA:  MOVWF  x46
023AC:  MOVLB  0
023AE:  CALL   1524
....................    Tuv[2]=read_eeprom(14); 
023B2:  MOVFF  FF2,632
023B6:  BCF    FF2.7
023B8:  CLRF   FAA
023BA:  MOVLW  0E
023BC:  MOVWF  FA9
023BE:  BCF    FA6.6
023C0:  BCF    FA6.7
023C2:  BSF    FA6.0
023C4:  MOVF   FA8,W
023C6:  MOVLB  6
023C8:  BTFSC  x32.7
023CA:  BSF    FF2.7
023CC:  MOVLB  4
023CE:  MOVWF  xF6
....................    delay_ms(10); 
023D0:  MOVLW  0A
023D2:  MOVLB  6
023D4:  MOVWF  x46
023D6:  MOVLB  0
023D8:  CALL   1524
....................    Tuv[3]=read_eeprom(15); 
023DC:  MOVFF  FF2,632
023E0:  BCF    FF2.7
023E2:  CLRF   FAA
023E4:  MOVLW  0F
023E6:  MOVWF  FA9
023E8:  BCF    FA6.6
023EA:  BCF    FA6.7
023EC:  BSF    FA6.0
023EE:  MOVF   FA8,W
023F0:  MOVLB  6
023F2:  BTFSC  x32.7
023F4:  BSF    FF2.7
023F6:  MOVLB  4
023F8:  MOVWF  xF7
....................    delay_ms(10); 
023FA:  MOVLW  0A
023FC:  MOVLB  6
023FE:  MOVWF  x46
02400:  MOVLB  0
02402:  CALL   1524
....................    Ttrabajo[0]=read_eeprom(16); 
02406:  MOVFF  FF2,632
0240A:  BCF    FF2.7
0240C:  CLRF   FAA
0240E:  MOVLW  10
02410:  MOVWF  FA9
02412:  BCF    FA6.6
02414:  BCF    FA6.7
02416:  BSF    FA6.0
02418:  MOVF   FA8,W
0241A:  MOVLB  6
0241C:  BTFSC  x32.7
0241E:  BSF    FF2.7
02420:  MOVLB  4
02422:  MOVWF  xFC
....................    delay_ms(10); 
02424:  MOVLW  0A
02426:  MOVLB  6
02428:  MOVWF  x46
0242A:  MOVLB  0
0242C:  CALL   1524
....................    Ttrabajo[1]=read_eeprom(17); 
02430:  MOVFF  FF2,632
02434:  BCF    FF2.7
02436:  CLRF   FAA
02438:  MOVLW  11
0243A:  MOVWF  FA9
0243C:  BCF    FA6.6
0243E:  BCF    FA6.7
02440:  BSF    FA6.0
02442:  MOVF   FA8,W
02444:  MOVLB  6
02446:  BTFSC  x32.7
02448:  BSF    FF2.7
0244A:  MOVLB  4
0244C:  MOVWF  xFD
....................    delay_ms(10); 
0244E:  MOVLW  0A
02450:  MOVLB  6
02452:  MOVWF  x46
02454:  MOVLB  0
02456:  CALL   1524
....................    Ttrabajo[2]=read_eeprom(18); 
0245A:  MOVFF  FF2,632
0245E:  BCF    FF2.7
02460:  CLRF   FAA
02462:  MOVLW  12
02464:  MOVWF  FA9
02466:  BCF    FA6.6
02468:  BCF    FA6.7
0246A:  BSF    FA6.0
0246C:  MOVF   FA8,W
0246E:  MOVLB  6
02470:  BTFSC  x32.7
02472:  BSF    FF2.7
02474:  MOVLB  4
02476:  MOVWF  xFE
....................    delay_ms(10); 
02478:  MOVLW  0A
0247A:  MOVLB  6
0247C:  MOVWF  x46
0247E:  MOVLB  0
02480:  CALL   1524
....................    Ttrabajo[3]=read_eeprom(19); 
02484:  MOVFF  FF2,632
02488:  BCF    FF2.7
0248A:  CLRF   FAA
0248C:  MOVLW  13
0248E:  MOVWF  FA9
02490:  BCF    FA6.6
02492:  BCF    FA6.7
02494:  BSF    FA6.0
02496:  MOVF   FA8,W
02498:  MOVLB  6
0249A:  BTFSC  x32.7
0249C:  BSF    FF2.7
0249E:  MOVLB  4
024A0:  MOVWF  xFF
....................    delay_ms(10); 
024A2:  MOVLW  0A
024A4:  MOVLB  6
024A6:  MOVWF  x46
024A8:  MOVLB  0
024AA:  CALL   1524
....................    //flag_alarma=read_eeprom(20); 
....................    //delay_ms(10); 
....................    Tempouvp[0]=read_eeprom(21); 
024AE:  MOVFF  FF2,632
024B2:  BCF    FF2.7
024B4:  CLRF   FAA
024B6:  MOVLW  15
024B8:  MOVWF  FA9
024BA:  BCF    FA6.6
024BC:  BCF    FA6.7
024BE:  BSF    FA6.0
024C0:  MOVF   FA8,W
024C2:  MOVLB  6
024C4:  BTFSC  x32.7
024C6:  BSF    FF2.7
024C8:  MOVLB  4
024CA:  MOVWF  xF8
....................    delay_ms(10); 
024CC:  MOVLW  0A
024CE:  MOVLB  6
024D0:  MOVWF  x46
024D2:  MOVLB  0
024D4:  CALL   1524
....................    Tempouvp[1]=read_eeprom(22); 
024D8:  MOVFF  FF2,632
024DC:  BCF    FF2.7
024DE:  CLRF   FAA
024E0:  MOVLW  16
024E2:  MOVWF  FA9
024E4:  BCF    FA6.6
024E6:  BCF    FA6.7
024E8:  BSF    FA6.0
024EA:  MOVF   FA8,W
024EC:  MOVLB  6
024EE:  BTFSC  x32.7
024F0:  BSF    FF2.7
024F2:  MOVLB  4
024F4:  MOVWF  xF9
....................    delay_ms(10); 
024F6:  MOVLW  0A
024F8:  MOVLB  6
024FA:  MOVWF  x46
024FC:  MOVLB  0
024FE:  CALL   1524
....................    Tempouvp[2]=read_eeprom(23); 
02502:  MOVFF  FF2,632
02506:  BCF    FF2.7
02508:  CLRF   FAA
0250A:  MOVLW  17
0250C:  MOVWF  FA9
0250E:  BCF    FA6.6
02510:  BCF    FA6.7
02512:  BSF    FA6.0
02514:  MOVF   FA8,W
02516:  MOVLB  6
02518:  BTFSC  x32.7
0251A:  BSF    FF2.7
0251C:  MOVLB  4
0251E:  MOVWF  xFA
....................    delay_ms(10); 
02520:  MOVLW  0A
02522:  MOVLB  6
02524:  MOVWF  x46
02526:  MOVLB  0
02528:  CALL   1524
....................    Tempouvp[3]=read_eeprom(24); 
0252C:  MOVFF  FF2,632
02530:  BCF    FF2.7
02532:  CLRF   FAA
02534:  MOVLW  18
02536:  MOVWF  FA9
02538:  BCF    FA6.6
0253A:  BCF    FA6.7
0253C:  BSF    FA6.0
0253E:  MOVF   FA8,W
02540:  MOVLB  6
02542:  BTFSC  x32.7
02544:  BSF    FF2.7
02546:  MOVLB  4
02548:  MOVWF  xFB
....................     
....................    delay_ms(10); 
0254A:  MOVLW  0A
0254C:  MOVLB  6
0254E:  MOVWF  x46
02550:  MOVLB  0
02552:  CALL   1524
....................    Entero=read_eeprom(25);//Decimal1=read_eeprom(26); 
02556:  MOVFF  FF2,632
0255A:  BCF    FF2.7
0255C:  CLRF   FAA
0255E:  MOVLW  19
02560:  MOVWF  FA9
02562:  BCF    FA6.6
02564:  BCF    FA6.7
02566:  BSF    FA6.0
02568:  MOVF   FA8,W
0256A:  MOVLB  6
0256C:  BTFSC  x32.7
0256E:  BSF    FF2.7
02570:  MOVLB  4
02572:  MOVWF  xBB
....................    delay_ms(10); 
02574:  MOVLW  0A
02576:  MOVLB  6
02578:  MOVWF  x46
0257A:  MOVLB  0
0257C:  CALL   1524
....................    Temporal=read_eeprom(26); 
02580:  MOVFF  FF2,632
02584:  BCF    FF2.7
02586:  CLRF   FAA
02588:  MOVLW  1A
0258A:  MOVWF  FA9
0258C:  BCF    FA6.6
0258E:  BCF    FA6.7
02590:  BSF    FA6.0
02592:  MOVF   FA8,W
02594:  MOVLB  6
02596:  BTFSC  x32.7
02598:  BSF    FF2.7
0259A:  CLRF   x68
0259C:  MOVWF  x67
0259E:  MOVLB  0
025A0:  CALL   173C
025A4:  MOVFF  03,527
025A8:  MOVFF  02,526
025AC:  MOVFF  01,525
025B0:  MOVFF  00,524
....................    delay_ms(10); 
025B4:  MOVLW  0A
025B6:  MOVLB  6
025B8:  MOVWF  x46
025BA:  MOVLB  0
025BC:  CALL   1524
....................    Temporal=Temporal/10.0; 
025C0:  MOVFF  527,666
025C4:  MOVFF  526,665
025C8:  MOVFF  525,664
025CC:  MOVFF  524,663
025D0:  MOVLB  6
025D2:  CLRF   x6A
025D4:  CLRF   x69
025D6:  MOVLW  20
025D8:  MOVWF  x68
025DA:  MOVLW  82
025DC:  MOVWF  x67
025DE:  MOVLB  0
025E0:  CALL   1772
025E4:  MOVFF  03,527
025E8:  MOVFF  02,526
025EC:  MOVFF  01,525
025F0:  MOVFF  00,524
....................    Ajuste1=Entero+Temporal; 
025F4:  MOVLB  6
025F6:  CLRF   x68
025F8:  MOVFF  4BB,667
025FC:  MOVLB  0
025FE:  CALL   173C
02602:  BCF    FD8.1
02604:  MOVFF  03,66A
02608:  MOVFF  02,669
0260C:  MOVFF  01,668
02610:  MOVFF  00,667
02614:  MOVFF  527,66E
02618:  MOVFF  526,66D
0261C:  MOVFF  525,66C
02620:  MOVFF  524,66B
02624:  RCALL  1EF0
02626:  MOVFF  03,51F
0262A:  MOVFF  02,51E
0262E:  MOVFF  01,51D
02632:  MOVFF  00,51C
....................     
....................     
....................    Entero=read_eeprom(27);//Decimal1=read_eeprom(26); 
02636:  MOVFF  FF2,632
0263A:  BCF    FF2.7
0263C:  CLRF   FAA
0263E:  MOVLW  1B
02640:  MOVWF  FA9
02642:  BCF    FA6.6
02644:  BCF    FA6.7
02646:  BSF    FA6.0
02648:  MOVF   FA8,W
0264A:  MOVLB  6
0264C:  BTFSC  x32.7
0264E:  BSF    FF2.7
02650:  MOVLB  4
02652:  MOVWF  xBB
....................    delay_ms(10); 
02654:  MOVLW  0A
02656:  MOVLB  6
02658:  MOVWF  x46
0265A:  MOVLB  0
0265C:  CALL   1524
....................    Temporal=read_eeprom(28); 
02660:  MOVFF  FF2,632
02664:  BCF    FF2.7
02666:  CLRF   FAA
02668:  MOVLW  1C
0266A:  MOVWF  FA9
0266C:  BCF    FA6.6
0266E:  BCF    FA6.7
02670:  BSF    FA6.0
02672:  MOVF   FA8,W
02674:  MOVLB  6
02676:  BTFSC  x32.7
02678:  BSF    FF2.7
0267A:  CLRF   x68
0267C:  MOVWF  x67
0267E:  MOVLB  0
02680:  CALL   173C
02684:  MOVFF  03,527
02688:  MOVFF  02,526
0268C:  MOVFF  01,525
02690:  MOVFF  00,524
....................    delay_ms(10); 
02694:  MOVLW  0A
02696:  MOVLB  6
02698:  MOVWF  x46
0269A:  MOVLB  0
0269C:  CALL   1524
....................    Temporal=Temporal/10.0; 
026A0:  MOVFF  527,666
026A4:  MOVFF  526,665
026A8:  MOVFF  525,664
026AC:  MOVFF  524,663
026B0:  MOVLB  6
026B2:  CLRF   x6A
026B4:  CLRF   x69
026B6:  MOVLW  20
026B8:  MOVWF  x68
026BA:  MOVLW  82
026BC:  MOVWF  x67
026BE:  MOVLB  0
026C0:  CALL   1772
026C4:  MOVFF  03,527
026C8:  MOVFF  02,526
026CC:  MOVFF  01,525
026D0:  MOVFF  00,524
....................    Ajuste2=Entero+Temporal; 
026D4:  MOVLB  6
026D6:  CLRF   x68
026D8:  MOVFF  4BB,667
026DC:  MOVLB  0
026DE:  CALL   173C
026E2:  BCF    FD8.1
026E4:  MOVFF  03,66A
026E8:  MOVFF  02,669
026EC:  MOVFF  01,668
026F0:  MOVFF  00,667
026F4:  MOVFF  527,66E
026F8:  MOVFF  526,66D
026FC:  MOVFF  525,66C
02700:  MOVFF  524,66B
02704:  CALL   1EF0
02708:  MOVFF  03,523
0270C:  MOVFF  02,522
02710:  MOVFF  01,521
02714:  MOVFF  00,520
....................     
....................    zero_actual=make16(read_eeprom(30),read_eeprom(29)); 
02718:  MOVFF  FF2,632
0271C:  BCF    FF2.7
0271E:  CLRF   FAA
02720:  MOVLW  1E
02722:  MOVWF  FA9
02724:  BCF    FA6.6
02726:  BCF    FA6.7
02728:  BSF    FA6.0
0272A:  MOVF   FA8,W
0272C:  MOVLB  6
0272E:  BTFSC  x32.7
02730:  BSF    FF2.7
02732:  MOVWF  x33
02734:  MOVFF  FF2,634
02738:  BCF    FF2.7
0273A:  CLRF   FAA
0273C:  MOVLW  1D
0273E:  MOVWF  FA9
02740:  BCF    FA6.6
02742:  BCF    FA6.7
02744:  BSF    FA6.0
02746:  MOVF   FA8,W
02748:  BTFSC  x34.7
0274A:  BSF    FF2.7
0274C:  MOVWF  x35
0274E:  MOVFF  633,03
02752:  MOVF   x35,W
02754:  MOVWF  x67
02756:  MOVFF  03,668
0275A:  MOVLB  0
0275C:  CALL   173C
02760:  MOVFF  03,587
02764:  MOVFF  02,586
02768:  MOVFF  01,585
0276C:  MOVFF  00,584
....................    delay_ms(10); 
02770:  MOVLW  0A
02772:  MOVLB  6
02774:  MOVWF  x46
02776:  MOVLB  0
02778:  CALL   1524
....................    minutos_trabajo=make16(read_eeprom(34),read_eeprom(33)); 
0277C:  MOVFF  FF2,632
02780:  BCF    FF2.7
02782:  CLRF   FAA
02784:  MOVLW  22
02786:  MOVWF  FA9
02788:  BCF    FA6.6
0278A:  BCF    FA6.7
0278C:  BSF    FA6.0
0278E:  MOVF   FA8,W
02790:  MOVLB  6
02792:  BTFSC  x32.7
02794:  BSF    FF2.7
02796:  MOVWF  x33
02798:  MOVFF  FF2,634
0279C:  BCF    FF2.7
0279E:  CLRF   FAA
027A0:  MOVLW  21
027A2:  MOVWF  FA9
027A4:  BCF    FA6.6
027A6:  BCF    FA6.7
027A8:  BSF    FA6.0
027AA:  MOVF   FA8,W
027AC:  BTFSC  x34.7
027AE:  BSF    FF2.7
027B0:  MOVWF  x35
027B2:  MOVFF  633,4D3
027B6:  MOVFF  635,4D2
....................    delay_ms(10); 
027BA:  MOVLW  0A
027BC:  MOVWF  x46
027BE:  MOVLB  0
027C0:  CALL   1524
....................    minutos_uv=read_eeprom(31); 
027C4:  MOVFF  FF2,632
027C8:  BCF    FF2.7
027CA:  CLRF   FAA
027CC:  MOVLW  1F
027CE:  MOVWF  FA9
027D0:  BCF    FA6.6
027D2:  BCF    FA6.7
027D4:  BSF    FA6.0
027D6:  MOVF   FA8,W
027D8:  MOVLB  6
027DA:  BTFSC  x32.7
027DC:  BSF    FF2.7
027DE:  MOVLB  4
027E0:  CLRF   xD1
027E2:  MOVWF  xD0
....................    delay_ms(10); 
027E4:  MOVLW  0A
027E6:  MOVLB  6
027E8:  MOVWF  x46
027EA:  MOVLB  0
027EC:  CALL   1524
....................    VelMotor=read_eeprom(32); 
027F0:  MOVFF  FF2,632
027F4:  BCF    FF2.7
027F6:  CLRF   FAA
027F8:  MOVLW  20
027FA:  MOVWF  FA9
027FC:  BCF    FA6.6
027FE:  BCF    FA6.7
02800:  BSF    FA6.0
02802:  MOVF   FA8,W
02804:  MOVLB  6
02806:  BTFSC  x32.7
02808:  BSF    FF2.7
0280A:  MOVLB  5
0280C:  MOVWF  x92
....................    delay_ms(10); 
0280E:  MOVLW  0A
02810:  MOVLB  6
02812:  MOVWF  x46
02814:  MOVLB  0
02816:  CALL   1524
....................     
....................    Diferencia=make16(read_eeprom(61),read_eeprom(60)); 
0281A:  MOVFF  FF2,632
0281E:  BCF    FF2.7
02820:  CLRF   FAA
02822:  MOVLW  3D
02824:  MOVWF  FA9
02826:  BCF    FA6.6
02828:  BCF    FA6.7
0282A:  BSF    FA6.0
0282C:  MOVF   FA8,W
0282E:  MOVLB  6
02830:  BTFSC  x32.7
02832:  BSF    FF2.7
02834:  MOVWF  x33
02836:  MOVFF  FF2,634
0283A:  BCF    FF2.7
0283C:  CLRF   FAA
0283E:  MOVLW  3C
02840:  MOVWF  FA9
02842:  BCF    FA6.6
02844:  BCF    FA6.7
02846:  BSF    FA6.0
02848:  MOVF   FA8,W
0284A:  BTFSC  x34.7
0284C:  BSF    FF2.7
0284E:  MOVWF  x35
02850:  MOVFF  633,03
02854:  MOVF   x35,W
02856:  MOVWF  x67
02858:  MOVFF  03,668
0285C:  MOVLB  0
0285E:  CALL   173C
02862:  MOVFF  03,513
02866:  MOVFF  02,512
0286A:  MOVFF  01,511
0286E:  MOVFF  00,510
....................    delay_ms(10); 
02872:  MOVLW  0A
02874:  MOVLB  6
02876:  MOVWF  x46
02878:  MOVLB  0
0287A:  CALL   1524
....................    G=make16(read_eeprom(63),read_eeprom(62)); 
0287E:  MOVFF  FF2,632
02882:  BCF    FF2.7
02884:  CLRF   FAA
02886:  MOVLW  3F
02888:  MOVWF  FA9
0288A:  BCF    FA6.6
0288C:  BCF    FA6.7
0288E:  BSF    FA6.0
02890:  MOVF   FA8,W
02892:  MOVLB  6
02894:  BTFSC  x32.7
02896:  BSF    FF2.7
02898:  MOVWF  x33
0289A:  MOVFF  FF2,634
0289E:  BCF    FF2.7
028A0:  CLRF   FAA
028A2:  MOVLW  3E
028A4:  MOVWF  FA9
028A6:  BCF    FA6.6
028A8:  BCF    FA6.7
028AA:  BSF    FA6.0
028AC:  MOVF   FA8,W
028AE:  BTFSC  x34.7
028B0:  BSF    FF2.7
028B2:  MOVWF  x35
028B4:  MOVFF  633,03
028B8:  MOVF   x35,W
028BA:  MOVWF  x67
028BC:  MOVFF  03,668
028C0:  MOVLB  0
028C2:  CALL   173C
028C6:  MOVFF  03,58B
028CA:  MOVFF  02,58A
028CE:  MOVFF  01,589
028D2:  MOVFF  00,588
....................    delay_ms(10); 
028D6:  MOVLW  0A
028D8:  MOVLB  6
028DA:  MOVWF  x46
028DC:  MOVLB  0
028DE:  CALL   1524
....................    negativo=read_eeprom(50); 
028E2:  MOVFF  FF2,632
028E6:  BCF    FF2.7
028E8:  CLRF   FAA
028EA:  MOVLW  32
028EC:  MOVWF  FA9
028EE:  BCF    FA6.6
028F0:  BCF    FA6.7
028F2:  BSF    FA6.0
028F4:  MOVF   FA8,W
028F6:  MOVLB  6
028F8:  BTFSC  x32.7
028FA:  BSF    FF2.7
028FC:  MOVLB  4
028FE:  MOVWF  xB5
....................    delay_ms(10); 
02900:  MOVLW  0A
02902:  MOVLB  6
02904:  MOVWF  x46
02906:  MOVLB  0
02908:  CALL   1524
....................  
.................... } 
0290C:  GOTO   6634 (RETURN)
....................  
.................... void LimitaValores(void){ 
....................    if(Password[0]>9 || Password[0]<0){ 
*
0298A:  MOVLB  5
0298C:  BTFSC  x04.7
0298E:  BRA    2996
02990:  MOVF   x04,W
02992:  SUBLW  09
02994:  BNC   299C
02996:  BTFSC  x04.7
02998:  BRA    299C
0299A:  BRA    29C8
....................       Password[0]=0;write_eeprom(0,0); 
0299C:  CLRF   x04
0299E:  CLRF   FAA
029A0:  CLRF   FA9
029A2:  CLRF   FA8
029A4:  BCF    FA6.6
029A6:  BCF    FA6.7
029A8:  BSF    FA6.2
029AA:  MOVF   FF2,W
029AC:  MOVWF  00
029AE:  BCF    FF2.7
029B0:  MOVLB  F
029B2:  MOVLW  55
029B4:  MOVWF  FA7
029B6:  MOVLW  AA
029B8:  MOVWF  FA7
029BA:  BSF    FA6.1
029BC:  BTFSC  FA6.1
029BE:  BRA    29BC
029C0:  BCF    FA6.2
029C2:  MOVF   00,W
029C4:  IORWF  FF2,F
029C6:  MOVLB  5
....................    } 
....................    if(Password[1]>9 || Password[1]<0){ 
029C8:  BTFSC  x05.7
029CA:  BRA    29D2
029CC:  MOVF   x05,W
029CE:  SUBLW  09
029D0:  BNC   29D8
029D2:  BTFSC  x05.7
029D4:  BRA    29D8
029D6:  BRA    2A06
....................       Password[1]=0;write_eeprom(1,0); 
029D8:  CLRF   x05
029DA:  CLRF   FAA
029DC:  MOVLW  01
029DE:  MOVWF  FA9
029E0:  CLRF   FA8
029E2:  BCF    FA6.6
029E4:  BCF    FA6.7
029E6:  BSF    FA6.2
029E8:  MOVF   FF2,W
029EA:  MOVWF  00
029EC:  BCF    FF2.7
029EE:  MOVLB  F
029F0:  MOVLW  55
029F2:  MOVWF  FA7
029F4:  MOVLW  AA
029F6:  MOVWF  FA7
029F8:  BSF    FA6.1
029FA:  BTFSC  FA6.1
029FC:  BRA    29FA
029FE:  BCF    FA6.2
02A00:  MOVF   00,W
02A02:  IORWF  FF2,F
02A04:  MOVLB  5
....................    } 
....................    if(Password[2]>9 || Password[2]<0){ 
02A06:  BTFSC  x06.7
02A08:  BRA    2A10
02A0A:  MOVF   x06,W
02A0C:  SUBLW  09
02A0E:  BNC   2A16
02A10:  BTFSC  x06.7
02A12:  BRA    2A16
02A14:  BRA    2A44
....................       Password[2]=0;write_eeprom(2,0); 
02A16:  CLRF   x06
02A18:  CLRF   FAA
02A1A:  MOVLW  02
02A1C:  MOVWF  FA9
02A1E:  CLRF   FA8
02A20:  BCF    FA6.6
02A22:  BCF    FA6.7
02A24:  BSF    FA6.2
02A26:  MOVF   FF2,W
02A28:  MOVWF  00
02A2A:  BCF    FF2.7
02A2C:  MOVLB  F
02A2E:  MOVLW  55
02A30:  MOVWF  FA7
02A32:  MOVLW  AA
02A34:  MOVWF  FA7
02A36:  BSF    FA6.1
02A38:  BTFSC  FA6.1
02A3A:  BRA    2A38
02A3C:  BCF    FA6.2
02A3E:  MOVF   00,W
02A40:  IORWF  FF2,F
02A42:  MOVLB  5
....................    } 
....................    if(Password[3]>9 || Password[3]<0){ 
02A44:  BTFSC  x07.7
02A46:  BRA    2A4E
02A48:  MOVF   x07,W
02A4A:  SUBLW  09
02A4C:  BNC   2A54
02A4E:  BTFSC  x07.7
02A50:  BRA    2A54
02A52:  BRA    2A80
....................       Password[3]=0;write_eeprom(3,0); 
02A54:  CLRF   x07
02A56:  CLRF   FAA
02A58:  MOVLW  03
02A5A:  MOVWF  FA9
02A5C:  CLRF   FA8
02A5E:  BCF    FA6.6
02A60:  BCF    FA6.7
02A62:  BSF    FA6.2
02A64:  MOVF   FF2,W
02A66:  MOVWF  00
02A68:  BCF    FF2.7
02A6A:  MOVLB  F
02A6C:  MOVLW  55
02A6E:  MOVWF  FA7
02A70:  MOVLW  AA
02A72:  MOVWF  FA7
02A74:  BSF    FA6.1
02A76:  BTFSC  FA6.1
02A78:  BRA    2A76
02A7A:  BCF    FA6.2
02A7C:  MOVF   00,W
02A7E:  IORWF  FF2,F
....................    } 
....................    if(Tpurgap[0]>9 || Tpurgap[0]<0){ 
02A80:  MOVLB  4
02A82:  BTFSC  xE8.7
02A84:  BRA    2A8C
02A86:  MOVF   xE8,W
02A88:  SUBLW  09
02A8A:  BNC   2A92
02A8C:  BTFSC  xE8.7
02A8E:  BRA    2A92
02A90:  BRA    2AC0
....................       Tpurgap[0]=0;write_eeprom(4,0); 
02A92:  CLRF   xE8
02A94:  CLRF   FAA
02A96:  MOVLW  04
02A98:  MOVWF  FA9
02A9A:  CLRF   FA8
02A9C:  BCF    FA6.6
02A9E:  BCF    FA6.7
02AA0:  BSF    FA6.2
02AA2:  MOVF   FF2,W
02AA4:  MOVWF  00
02AA6:  BCF    FF2.7
02AA8:  MOVLB  F
02AAA:  MOVLW  55
02AAC:  MOVWF  FA7
02AAE:  MOVLW  AA
02AB0:  MOVWF  FA7
02AB2:  BSF    FA6.1
02AB4:  BTFSC  FA6.1
02AB6:  BRA    2AB4
02AB8:  BCF    FA6.2
02ABA:  MOVF   00,W
02ABC:  IORWF  FF2,F
02ABE:  MOVLB  4
....................    } 
....................    if(Tpurgap[1]>9 || Tpurgap[1]<0){ 
02AC0:  BTFSC  xE9.7
02AC2:  BRA    2ACA
02AC4:  MOVF   xE9,W
02AC6:  SUBLW  09
02AC8:  BNC   2AD0
02ACA:  BTFSC  xE9.7
02ACC:  BRA    2AD0
02ACE:  BRA    2AFE
....................       Tpurgap[1]=0;write_eeprom(5,0); 
02AD0:  CLRF   xE9
02AD2:  CLRF   FAA
02AD4:  MOVLW  05
02AD6:  MOVWF  FA9
02AD8:  CLRF   FA8
02ADA:  BCF    FA6.6
02ADC:  BCF    FA6.7
02ADE:  BSF    FA6.2
02AE0:  MOVF   FF2,W
02AE2:  MOVWF  00
02AE4:  BCF    FF2.7
02AE6:  MOVLB  F
02AE8:  MOVLW  55
02AEA:  MOVWF  FA7
02AEC:  MOVLW  AA
02AEE:  MOVWF  FA7
02AF0:  BSF    FA6.1
02AF2:  BTFSC  FA6.1
02AF4:  BRA    2AF2
02AF6:  BCF    FA6.2
02AF8:  MOVF   00,W
02AFA:  IORWF  FF2,F
02AFC:  MOVLB  4
....................    } 
....................    if(Tpurgap[2]>9 || Tpurgap[2]<0){ 
02AFE:  BTFSC  xEA.7
02B00:  BRA    2B08
02B02:  MOVF   xEA,W
02B04:  SUBLW  09
02B06:  BNC   2B0E
02B08:  BTFSC  xEA.7
02B0A:  BRA    2B0E
02B0C:  BRA    2B40
....................       Tpurgap[2]=2;write_eeprom(6,2); 
02B0E:  MOVLW  02
02B10:  MOVWF  xEA
02B12:  CLRF   FAA
02B14:  MOVLW  06
02B16:  MOVWF  FA9
02B18:  MOVLW  02
02B1A:  MOVWF  FA8
02B1C:  BCF    FA6.6
02B1E:  BCF    FA6.7
02B20:  BSF    FA6.2
02B22:  MOVF   FF2,W
02B24:  MOVWF  00
02B26:  BCF    FF2.7
02B28:  MOVLB  F
02B2A:  MOVLW  55
02B2C:  MOVWF  FA7
02B2E:  MOVLW  AA
02B30:  MOVWF  FA7
02B32:  BSF    FA6.1
02B34:  BTFSC  FA6.1
02B36:  BRA    2B34
02B38:  BCF    FA6.2
02B3A:  MOVF   00,W
02B3C:  IORWF  FF2,F
02B3E:  MOVLB  4
....................    } 
....................    if(Tpurgap[3]>9 || Tpurgap[3]<0){ 
02B40:  BTFSC  xEB.7
02B42:  BRA    2B4A
02B44:  MOVF   xEB,W
02B46:  SUBLW  09
02B48:  BNC   2B50
02B4A:  BTFSC  xEB.7
02B4C:  BRA    2B50
02B4E:  BRA    2B7E
....................       Tpurgap[3]=0;write_eeprom(7,0); 
02B50:  CLRF   xEB
02B52:  CLRF   FAA
02B54:  MOVLW  07
02B56:  MOVWF  FA9
02B58:  CLRF   FA8
02B5A:  BCF    FA6.6
02B5C:  BCF    FA6.7
02B5E:  BSF    FA6.2
02B60:  MOVF   FF2,W
02B62:  MOVWF  00
02B64:  BCF    FF2.7
02B66:  MOVLB  F
02B68:  MOVLW  55
02B6A:  MOVWF  FA7
02B6C:  MOVLW  AA
02B6E:  MOVWF  FA7
02B70:  BSF    FA6.1
02B72:  BTFSC  FA6.1
02B74:  BRA    2B72
02B76:  BCF    FA6.2
02B78:  MOVF   00,W
02B7A:  IORWF  FF2,F
02B7C:  MOVLB  4
....................    } 
....................    if(Tppurgap[0]>9 || Tppurgap[0]<0){ 
02B7E:  BTFSC  xF0.7
02B80:  BRA    2B88
02B82:  MOVF   xF0,W
02B84:  SUBLW  09
02B86:  BNC   2B8E
02B88:  BTFSC  xF0.7
02B8A:  BRA    2B8E
02B8C:  BRA    2BBC
....................       Tppurgap[0]=0;write_eeprom(8,0); 
02B8E:  CLRF   xF0
02B90:  CLRF   FAA
02B92:  MOVLW  08
02B94:  MOVWF  FA9
02B96:  CLRF   FA8
02B98:  BCF    FA6.6
02B9A:  BCF    FA6.7
02B9C:  BSF    FA6.2
02B9E:  MOVF   FF2,W
02BA0:  MOVWF  00
02BA2:  BCF    FF2.7
02BA4:  MOVLB  F
02BA6:  MOVLW  55
02BA8:  MOVWF  FA7
02BAA:  MOVLW  AA
02BAC:  MOVWF  FA7
02BAE:  BSF    FA6.1
02BB0:  BTFSC  FA6.1
02BB2:  BRA    2BB0
02BB4:  BCF    FA6.2
02BB6:  MOVF   00,W
02BB8:  IORWF  FF2,F
02BBA:  MOVLB  4
....................    } 
....................    if(Tppurgap[1]>9 || Tppurgap[1]<0){ 
02BBC:  BTFSC  xF1.7
02BBE:  BRA    2BC6
02BC0:  MOVF   xF1,W
02BC2:  SUBLW  09
02BC4:  BNC   2BCC
02BC6:  BTFSC  xF1.7
02BC8:  BRA    2BCC
02BCA:  BRA    2BFA
....................       Tppurgap[1]=0;write_eeprom(9,0); 
02BCC:  CLRF   xF1
02BCE:  CLRF   FAA
02BD0:  MOVLW  09
02BD2:  MOVWF  FA9
02BD4:  CLRF   FA8
02BD6:  BCF    FA6.6
02BD8:  BCF    FA6.7
02BDA:  BSF    FA6.2
02BDC:  MOVF   FF2,W
02BDE:  MOVWF  00
02BE0:  BCF    FF2.7
02BE2:  MOVLB  F
02BE4:  MOVLW  55
02BE6:  MOVWF  FA7
02BE8:  MOVLW  AA
02BEA:  MOVWF  FA7
02BEC:  BSF    FA6.1
02BEE:  BTFSC  FA6.1
02BF0:  BRA    2BEE
02BF2:  BCF    FA6.2
02BF4:  MOVF   00,W
02BF6:  IORWF  FF2,F
02BF8:  MOVLB  4
....................    } 
....................    if(Tppurgap[2]>9 || Tppurgap[2]<0){ 
02BFA:  BTFSC  xF2.7
02BFC:  BRA    2C04
02BFE:  MOVF   xF2,W
02C00:  SUBLW  09
02C02:  BNC   2C0A
02C04:  BTFSC  xF2.7
02C06:  BRA    2C0A
02C08:  BRA    2C3C
....................       Tppurgap[2]=2;write_eeprom(10,2); 
02C0A:  MOVLW  02
02C0C:  MOVWF  xF2
02C0E:  CLRF   FAA
02C10:  MOVLW  0A
02C12:  MOVWF  FA9
02C14:  MOVLW  02
02C16:  MOVWF  FA8
02C18:  BCF    FA6.6
02C1A:  BCF    FA6.7
02C1C:  BSF    FA6.2
02C1E:  MOVF   FF2,W
02C20:  MOVWF  00
02C22:  BCF    FF2.7
02C24:  MOVLB  F
02C26:  MOVLW  55
02C28:  MOVWF  FA7
02C2A:  MOVLW  AA
02C2C:  MOVWF  FA7
02C2E:  BSF    FA6.1
02C30:  BTFSC  FA6.1
02C32:  BRA    2C30
02C34:  BCF    FA6.2
02C36:  MOVF   00,W
02C38:  IORWF  FF2,F
02C3A:  MOVLB  4
....................    } 
....................    if(Tppurgap[3]>9 || Tppurgap[3]<0){ 
02C3C:  BTFSC  xF3.7
02C3E:  BRA    2C46
02C40:  MOVF   xF3,W
02C42:  SUBLW  09
02C44:  BNC   2C4C
02C46:  BTFSC  xF3.7
02C48:  BRA    2C4C
02C4A:  BRA    2C7A
....................       Tppurgap[3]=0;write_eeprom(11,0); 
02C4C:  CLRF   xF3
02C4E:  CLRF   FAA
02C50:  MOVLW  0B
02C52:  MOVWF  FA9
02C54:  CLRF   FA8
02C56:  BCF    FA6.6
02C58:  BCF    FA6.7
02C5A:  BSF    FA6.2
02C5C:  MOVF   FF2,W
02C5E:  MOVWF  00
02C60:  BCF    FF2.7
02C62:  MOVLB  F
02C64:  MOVLW  55
02C66:  MOVWF  FA7
02C68:  MOVLW  AA
02C6A:  MOVWF  FA7
02C6C:  BSF    FA6.1
02C6E:  BTFSC  FA6.1
02C70:  BRA    2C6E
02C72:  BCF    FA6.2
02C74:  MOVF   00,W
02C76:  IORWF  FF2,F
02C78:  MOVLB  4
....................    } 
....................    if(Tuv[0]>9 || Tuv[0]<0){ 
02C7A:  BTFSC  xF4.7
02C7C:  BRA    2C84
02C7E:  MOVF   xF4,W
02C80:  SUBLW  09
02C82:  BNC   2C8A
02C84:  BTFSC  xF4.7
02C86:  BRA    2C8A
02C88:  BRA    2CB8
....................       Tuv[0]=0;write_eeprom(12,0); 
02C8A:  CLRF   xF4
02C8C:  CLRF   FAA
02C8E:  MOVLW  0C
02C90:  MOVWF  FA9
02C92:  CLRF   FA8
02C94:  BCF    FA6.6
02C96:  BCF    FA6.7
02C98:  BSF    FA6.2
02C9A:  MOVF   FF2,W
02C9C:  MOVWF  00
02C9E:  BCF    FF2.7
02CA0:  MOVLB  F
02CA2:  MOVLW  55
02CA4:  MOVWF  FA7
02CA6:  MOVLW  AA
02CA8:  MOVWF  FA7
02CAA:  BSF    FA6.1
02CAC:  BTFSC  FA6.1
02CAE:  BRA    2CAC
02CB0:  BCF    FA6.2
02CB2:  MOVF   00,W
02CB4:  IORWF  FF2,F
02CB6:  MOVLB  4
....................    } 
....................    if(Tuv[1]>9 || Tuv[1]<0){ 
02CB8:  BTFSC  xF5.7
02CBA:  BRA    2CC2
02CBC:  MOVF   xF5,W
02CBE:  SUBLW  09
02CC0:  BNC   2CC8
02CC2:  BTFSC  xF5.7
02CC4:  BRA    2CC8
02CC6:  BRA    2CF6
....................       Tuv[1]=0;write_eeprom(13,0); 
02CC8:  CLRF   xF5
02CCA:  CLRF   FAA
02CCC:  MOVLW  0D
02CCE:  MOVWF  FA9
02CD0:  CLRF   FA8
02CD2:  BCF    FA6.6
02CD4:  BCF    FA6.7
02CD6:  BSF    FA6.2
02CD8:  MOVF   FF2,W
02CDA:  MOVWF  00
02CDC:  BCF    FF2.7
02CDE:  MOVLB  F
02CE0:  MOVLW  55
02CE2:  MOVWF  FA7
02CE4:  MOVLW  AA
02CE6:  MOVWF  FA7
02CE8:  BSF    FA6.1
02CEA:  BTFSC  FA6.1
02CEC:  BRA    2CEA
02CEE:  BCF    FA6.2
02CF0:  MOVF   00,W
02CF2:  IORWF  FF2,F
02CF4:  MOVLB  4
....................    } 
....................    if(Tuv[2]>9 || Tuv[2]<0){ 
02CF6:  BTFSC  xF6.7
02CF8:  BRA    2D00
02CFA:  MOVF   xF6,W
02CFC:  SUBLW  09
02CFE:  BNC   2D06
02D00:  BTFSC  xF6.7
02D02:  BRA    2D06
02D04:  BRA    2D34
....................       Tuv[2]=0;write_eeprom(14,0); 
02D06:  CLRF   xF6
02D08:  CLRF   FAA
02D0A:  MOVLW  0E
02D0C:  MOVWF  FA9
02D0E:  CLRF   FA8
02D10:  BCF    FA6.6
02D12:  BCF    FA6.7
02D14:  BSF    FA6.2
02D16:  MOVF   FF2,W
02D18:  MOVWF  00
02D1A:  BCF    FF2.7
02D1C:  MOVLB  F
02D1E:  MOVLW  55
02D20:  MOVWF  FA7
02D22:  MOVLW  AA
02D24:  MOVWF  FA7
02D26:  BSF    FA6.1
02D28:  BTFSC  FA6.1
02D2A:  BRA    2D28
02D2C:  BCF    FA6.2
02D2E:  MOVF   00,W
02D30:  IORWF  FF2,F
02D32:  MOVLB  4
....................    } 
....................    if(Tuv[3]>9 || Tuv[3]<0){ 
02D34:  BTFSC  xF7.7
02D36:  BRA    2D3E
02D38:  MOVF   xF7,W
02D3A:  SUBLW  09
02D3C:  BNC   2D44
02D3E:  BTFSC  xF7.7
02D40:  BRA    2D44
02D42:  BRA    2D72
....................       Tuv[3]=0;write_eeprom(15,0); 
02D44:  CLRF   xF7
02D46:  CLRF   FAA
02D48:  MOVLW  0F
02D4A:  MOVWF  FA9
02D4C:  CLRF   FA8
02D4E:  BCF    FA6.6
02D50:  BCF    FA6.7
02D52:  BSF    FA6.2
02D54:  MOVF   FF2,W
02D56:  MOVWF  00
02D58:  BCF    FF2.7
02D5A:  MOVLB  F
02D5C:  MOVLW  55
02D5E:  MOVWF  FA7
02D60:  MOVLW  AA
02D62:  MOVWF  FA7
02D64:  BSF    FA6.1
02D66:  BTFSC  FA6.1
02D68:  BRA    2D66
02D6A:  BCF    FA6.2
02D6C:  MOVF   00,W
02D6E:  IORWF  FF2,F
02D70:  MOVLB  4
....................    } 
....................    if(Ttrabajo[0]>9 || Ttrabajo[0]<0){ 
02D72:  BTFSC  xFC.7
02D74:  BRA    2D7C
02D76:  MOVF   xFC,W
02D78:  SUBLW  09
02D7A:  BNC   2D82
02D7C:  BTFSC  xFC.7
02D7E:  BRA    2D82
02D80:  BRA    2DB0
....................       Ttrabajo[0]=0;write_eeprom(16,0); 
02D82:  CLRF   xFC
02D84:  CLRF   FAA
02D86:  MOVLW  10
02D88:  MOVWF  FA9
02D8A:  CLRF   FA8
02D8C:  BCF    FA6.6
02D8E:  BCF    FA6.7
02D90:  BSF    FA6.2
02D92:  MOVF   FF2,W
02D94:  MOVWF  00
02D96:  BCF    FF2.7
02D98:  MOVLB  F
02D9A:  MOVLW  55
02D9C:  MOVWF  FA7
02D9E:  MOVLW  AA
02DA0:  MOVWF  FA7
02DA2:  BSF    FA6.1
02DA4:  BTFSC  FA6.1
02DA6:  BRA    2DA4
02DA8:  BCF    FA6.2
02DAA:  MOVF   00,W
02DAC:  IORWF  FF2,F
02DAE:  MOVLB  4
....................    } 
....................    if(Ttrabajo[1]>9 || Ttrabajo[1]<0){ 
02DB0:  BTFSC  xFD.7
02DB2:  BRA    2DBA
02DB4:  MOVF   xFD,W
02DB6:  SUBLW  09
02DB8:  BNC   2DC0
02DBA:  BTFSC  xFD.7
02DBC:  BRA    2DC0
02DBE:  BRA    2DEE
....................       Ttrabajo[1]=0;write_eeprom(17,0); 
02DC0:  CLRF   xFD
02DC2:  CLRF   FAA
02DC4:  MOVLW  11
02DC6:  MOVWF  FA9
02DC8:  CLRF   FA8
02DCA:  BCF    FA6.6
02DCC:  BCF    FA6.7
02DCE:  BSF    FA6.2
02DD0:  MOVF   FF2,W
02DD2:  MOVWF  00
02DD4:  BCF    FF2.7
02DD6:  MOVLB  F
02DD8:  MOVLW  55
02DDA:  MOVWF  FA7
02DDC:  MOVLW  AA
02DDE:  MOVWF  FA7
02DE0:  BSF    FA6.1
02DE2:  BTFSC  FA6.1
02DE4:  BRA    2DE2
02DE6:  BCF    FA6.2
02DE8:  MOVF   00,W
02DEA:  IORWF  FF2,F
02DEC:  MOVLB  4
....................    } 
....................    if(Ttrabajo[2]>9 || Ttrabajo[2]<0){ 
02DEE:  BTFSC  xFE.7
02DF0:  BRA    2DF8
02DF2:  MOVF   xFE,W
02DF4:  SUBLW  09
02DF6:  BNC   2DFE
02DF8:  BTFSC  xFE.7
02DFA:  BRA    2DFE
02DFC:  BRA    2E2C
....................       Ttrabajo[2]=0;write_eeprom(18,0); 
02DFE:  CLRF   xFE
02E00:  CLRF   FAA
02E02:  MOVLW  12
02E04:  MOVWF  FA9
02E06:  CLRF   FA8
02E08:  BCF    FA6.6
02E0A:  BCF    FA6.7
02E0C:  BSF    FA6.2
02E0E:  MOVF   FF2,W
02E10:  MOVWF  00
02E12:  BCF    FF2.7
02E14:  MOVLB  F
02E16:  MOVLW  55
02E18:  MOVWF  FA7
02E1A:  MOVLW  AA
02E1C:  MOVWF  FA7
02E1E:  BSF    FA6.1
02E20:  BTFSC  FA6.1
02E22:  BRA    2E20
02E24:  BCF    FA6.2
02E26:  MOVF   00,W
02E28:  IORWF  FF2,F
02E2A:  MOVLB  4
....................    } 
....................    if(Ttrabajo[3]>9 || Ttrabajo[3]<0){ 
02E2C:  BTFSC  xFF.7
02E2E:  BRA    2E36
02E30:  MOVF   xFF,W
02E32:  SUBLW  09
02E34:  BNC   2E3C
02E36:  BTFSC  xFF.7
02E38:  BRA    2E3C
02E3A:  BRA    2E6A
....................       Ttrabajo[3]=0;write_eeprom(19,0); 
02E3C:  CLRF   xFF
02E3E:  CLRF   FAA
02E40:  MOVLW  13
02E42:  MOVWF  FA9
02E44:  CLRF   FA8
02E46:  BCF    FA6.6
02E48:  BCF    FA6.7
02E4A:  BSF    FA6.2
02E4C:  MOVF   FF2,W
02E4E:  MOVWF  00
02E50:  BCF    FF2.7
02E52:  MOVLB  F
02E54:  MOVLW  55
02E56:  MOVWF  FA7
02E58:  MOVLW  AA
02E5A:  MOVWF  FA7
02E5C:  BSF    FA6.1
02E5E:  BTFSC  FA6.1
02E60:  BRA    2E5E
02E62:  BCF    FA6.2
02E64:  MOVF   00,W
02E66:  IORWF  FF2,F
02E68:  MOVLB  4
....................    } 
....................    if(Tempouvp[0]>9 || Tempouvp[0]<0){ 
02E6A:  BTFSC  xF8.7
02E6C:  BRA    2E74
02E6E:  MOVF   xF8,W
02E70:  SUBLW  09
02E72:  BNC   2E7A
02E74:  BTFSC  xF8.7
02E76:  BRA    2E7A
02E78:  BRA    2EA8
....................       Tempouvp[0]=0;write_eeprom(21,0); 
02E7A:  CLRF   xF8
02E7C:  CLRF   FAA
02E7E:  MOVLW  15
02E80:  MOVWF  FA9
02E82:  CLRF   FA8
02E84:  BCF    FA6.6
02E86:  BCF    FA6.7
02E88:  BSF    FA6.2
02E8A:  MOVF   FF2,W
02E8C:  MOVWF  00
02E8E:  BCF    FF2.7
02E90:  MOVLB  F
02E92:  MOVLW  55
02E94:  MOVWF  FA7
02E96:  MOVLW  AA
02E98:  MOVWF  FA7
02E9A:  BSF    FA6.1
02E9C:  BTFSC  FA6.1
02E9E:  BRA    2E9C
02EA0:  BCF    FA6.2
02EA2:  MOVF   00,W
02EA4:  IORWF  FF2,F
02EA6:  MOVLB  4
....................    } 
....................    if(Tempouvp[1]>9 || Tempouvp[1]<0){ 
02EA8:  BTFSC  xF9.7
02EAA:  BRA    2EB2
02EAC:  MOVF   xF9,W
02EAE:  SUBLW  09
02EB0:  BNC   2EB8
02EB2:  BTFSC  xF9.7
02EB4:  BRA    2EB8
02EB6:  BRA    2EE6
....................       Tempouvp[1]=0;write_eeprom(22,0); 
02EB8:  CLRF   xF9
02EBA:  CLRF   FAA
02EBC:  MOVLW  16
02EBE:  MOVWF  FA9
02EC0:  CLRF   FA8
02EC2:  BCF    FA6.6
02EC4:  BCF    FA6.7
02EC6:  BSF    FA6.2
02EC8:  MOVF   FF2,W
02ECA:  MOVWF  00
02ECC:  BCF    FF2.7
02ECE:  MOVLB  F
02ED0:  MOVLW  55
02ED2:  MOVWF  FA7
02ED4:  MOVLW  AA
02ED6:  MOVWF  FA7
02ED8:  BSF    FA6.1
02EDA:  BTFSC  FA6.1
02EDC:  BRA    2EDA
02EDE:  BCF    FA6.2
02EE0:  MOVF   00,W
02EE2:  IORWF  FF2,F
02EE4:  MOVLB  4
....................    } 
....................    if(Tempouvp[2]>9 || Tempouvp[2]<0){ 
02EE6:  BTFSC  xFA.7
02EE8:  BRA    2EF0
02EEA:  MOVF   xFA,W
02EEC:  SUBLW  09
02EEE:  BNC   2EF6
02EF0:  BTFSC  xFA.7
02EF2:  BRA    2EF6
02EF4:  BRA    2F24
....................       Tempouvp[2]=0;write_eeprom(23,0); 
02EF6:  CLRF   xFA
02EF8:  CLRF   FAA
02EFA:  MOVLW  17
02EFC:  MOVWF  FA9
02EFE:  CLRF   FA8
02F00:  BCF    FA6.6
02F02:  BCF    FA6.7
02F04:  BSF    FA6.2
02F06:  MOVF   FF2,W
02F08:  MOVWF  00
02F0A:  BCF    FF2.7
02F0C:  MOVLB  F
02F0E:  MOVLW  55
02F10:  MOVWF  FA7
02F12:  MOVLW  AA
02F14:  MOVWF  FA7
02F16:  BSF    FA6.1
02F18:  BTFSC  FA6.1
02F1A:  BRA    2F18
02F1C:  BCF    FA6.2
02F1E:  MOVF   00,W
02F20:  IORWF  FF2,F
02F22:  MOVLB  4
....................    } 
....................    if(Tempouvp[3]>9 || Tempouvp[3]<0){ 
02F24:  BTFSC  xFB.7
02F26:  BRA    2F2E
02F28:  MOVF   xFB,W
02F2A:  SUBLW  09
02F2C:  BNC   2F34
02F2E:  BTFSC  xFB.7
02F30:  BRA    2F34
02F32:  BRA    2F64
....................       Tempouvp[3]=1;write_eeprom(24,1); 
02F34:  MOVLW  01
02F36:  MOVWF  xFB
02F38:  CLRF   FAA
02F3A:  MOVLW  18
02F3C:  MOVWF  FA9
02F3E:  MOVLW  01
02F40:  MOVWF  FA8
02F42:  BCF    FA6.6
02F44:  BCF    FA6.7
02F46:  BSF    FA6.2
02F48:  MOVF   FF2,W
02F4A:  MOVWF  00
02F4C:  BCF    FF2.7
02F4E:  MOVLB  F
02F50:  MOVLW  55
02F52:  MOVWF  FA7
02F54:  MOVLW  AA
02F56:  MOVWF  FA7
02F58:  BSF    FA6.1
02F5A:  BTFSC  FA6.1
02F5C:  BRA    2F5A
02F5E:  BCF    FA6.2
02F60:  MOVF   00,W
02F62:  IORWF  FF2,F
....................    } 
....................    if(Ajuste1>25.0){ 
02F64:  MOVLB  6
02F66:  CLRF   x66
02F68:  CLRF   x65
02F6A:  MOVLW  48
02F6C:  MOVWF  x64
02F6E:  MOVLW  83
02F70:  MOVWF  x63
02F72:  MOVFF  51F,66A
02F76:  MOVFF  51E,669
02F7A:  MOVFF  51D,668
02F7E:  MOVFF  51C,667
02F82:  MOVLB  0
02F84:  RCALL  2910
02F86:  BNC   2FEC
....................       Ajuste1=1.5;write_eeprom(25,1);write_eeprom(26,5); 
02F88:  MOVLB  5
02F8A:  CLRF   x1F
02F8C:  CLRF   x1E
02F8E:  MOVLW  40
02F90:  MOVWF  x1D
02F92:  MOVLW  7F
02F94:  MOVWF  x1C
02F96:  CLRF   FAA
02F98:  MOVLW  19
02F9A:  MOVWF  FA9
02F9C:  MOVLW  01
02F9E:  MOVWF  FA8
02FA0:  BCF    FA6.6
02FA2:  BCF    FA6.7
02FA4:  BSF    FA6.2
02FA6:  MOVF   FF2,W
02FA8:  MOVWF  00
02FAA:  BCF    FF2.7
02FAC:  MOVLB  F
02FAE:  MOVLW  55
02FB0:  MOVWF  FA7
02FB2:  MOVLW  AA
02FB4:  MOVWF  FA7
02FB6:  BSF    FA6.1
02FB8:  BTFSC  FA6.1
02FBA:  BRA    2FB8
02FBC:  BCF    FA6.2
02FBE:  MOVF   00,W
02FC0:  IORWF  FF2,F
02FC2:  CLRF   FAA
02FC4:  MOVLW  1A
02FC6:  MOVWF  FA9
02FC8:  MOVLW  05
02FCA:  MOVWF  FA8
02FCC:  BCF    FA6.6
02FCE:  BCF    FA6.7
02FD0:  BSF    FA6.2
02FD2:  MOVF   FF2,W
02FD4:  MOVWF  00
02FD6:  BCF    FF2.7
02FD8:  MOVLW  55
02FDA:  MOVWF  FA7
02FDC:  MOVLW  AA
02FDE:  MOVWF  FA7
02FE0:  BSF    FA6.1
02FE2:  BTFSC  FA6.1
02FE4:  BRA    2FE2
02FE6:  BCF    FA6.2
02FE8:  MOVF   00,W
02FEA:  IORWF  FF2,F
....................    } 
....................    if(Ajuste2>25.0){ 
02FEC:  MOVLB  6
02FEE:  CLRF   x66
02FF0:  CLRF   x65
02FF2:  MOVLW  48
02FF4:  MOVWF  x64
02FF6:  MOVLW  83
02FF8:  MOVWF  x63
02FFA:  MOVFF  523,66A
02FFE:  MOVFF  522,669
03002:  MOVFF  521,668
03006:  MOVFF  520,667
0300A:  MOVLB  0
0300C:  RCALL  2910
0300E:  BNC   3070
....................       Ajuste2=1.0;write_eeprom(27,1);write_eeprom(28,0); 
03010:  MOVLB  5
03012:  CLRF   x23
03014:  CLRF   x22
03016:  CLRF   x21
03018:  MOVLW  7F
0301A:  MOVWF  x20
0301C:  CLRF   FAA
0301E:  MOVLW  1B
03020:  MOVWF  FA9
03022:  MOVLW  01
03024:  MOVWF  FA8
03026:  BCF    FA6.6
03028:  BCF    FA6.7
0302A:  BSF    FA6.2
0302C:  MOVF   FF2,W
0302E:  MOVWF  00
03030:  BCF    FF2.7
03032:  MOVLB  F
03034:  MOVLW  55
03036:  MOVWF  FA7
03038:  MOVLW  AA
0303A:  MOVWF  FA7
0303C:  BSF    FA6.1
0303E:  BTFSC  FA6.1
03040:  BRA    303E
03042:  BCF    FA6.2
03044:  MOVF   00,W
03046:  IORWF  FF2,F
03048:  CLRF   FAA
0304A:  MOVLW  1C
0304C:  MOVWF  FA9
0304E:  CLRF   FA8
03050:  BCF    FA6.6
03052:  BCF    FA6.7
03054:  BSF    FA6.2
03056:  MOVF   FF2,W
03058:  MOVWF  00
0305A:  BCF    FF2.7
0305C:  MOVLW  55
0305E:  MOVWF  FA7
03060:  MOVLW  AA
03062:  MOVWF  FA7
03064:  BSF    FA6.1
03066:  BTFSC  FA6.1
03068:  BRA    3066
0306A:  BCF    FA6.2
0306C:  MOVF   00,W
0306E:  IORWF  FF2,F
....................    } 
....................    if(zero_actual>300){ 
03070:  MOVLB  6
03072:  CLRF   x66
03074:  CLRF   x65
03076:  MOVLW  16
03078:  MOVWF  x64
0307A:  MOVLW  87
0307C:  MOVWF  x63
0307E:  MOVFF  587,66A
03082:  MOVFF  586,669
03086:  MOVFF  585,668
0308A:  MOVFF  584,667
0308E:  MOVLB  0
03090:  RCALL  2910
03092:  BNC   30F6
....................       zero_actual=203;write_eeprom(29,203);write_eeprom(30,0); 
03094:  MOVLB  5
03096:  CLRF   x87
03098:  CLRF   x86
0309A:  MOVLW  4B
0309C:  MOVWF  x85
0309E:  MOVLW  86
030A0:  MOVWF  x84
030A2:  CLRF   FAA
030A4:  MOVLW  1D
030A6:  MOVWF  FA9
030A8:  MOVLW  CB
030AA:  MOVWF  FA8
030AC:  BCF    FA6.6
030AE:  BCF    FA6.7
030B0:  BSF    FA6.2
030B2:  MOVF   FF2,W
030B4:  MOVWF  00
030B6:  BCF    FF2.7
030B8:  MOVLB  F
030BA:  MOVLW  55
030BC:  MOVWF  FA7
030BE:  MOVLW  AA
030C0:  MOVWF  FA7
030C2:  BSF    FA6.1
030C4:  BTFSC  FA6.1
030C6:  BRA    30C4
030C8:  BCF    FA6.2
030CA:  MOVF   00,W
030CC:  IORWF  FF2,F
030CE:  CLRF   FAA
030D0:  MOVLW  1E
030D2:  MOVWF  FA9
030D4:  CLRF   FA8
030D6:  BCF    FA6.6
030D8:  BCF    FA6.7
030DA:  BSF    FA6.2
030DC:  MOVF   FF2,W
030DE:  MOVWF  00
030E0:  BCF    FF2.7
030E2:  MOVLW  55
030E4:  MOVWF  FA7
030E6:  MOVLW  AA
030E8:  MOVWF  FA7
030EA:  BSF    FA6.1
030EC:  BTFSC  FA6.1
030EE:  BRA    30EC
030F0:  BCF    FA6.2
030F2:  MOVF   00,W
030F4:  IORWF  FF2,F
....................    } 
....................    if(minutos_uv>60){ 
030F6:  MOVLB  4
030F8:  MOVF   xD1,F
030FA:  BNZ   3102
030FC:  MOVF   xD0,W
030FE:  SUBLW  3C
03100:  BC    3130
....................       minutos_uv=0;write_eeprom(31,0); 
03102:  CLRF   xD1
03104:  CLRF   xD0
03106:  CLRF   FAA
03108:  MOVLW  1F
0310A:  MOVWF  FA9
0310C:  CLRF   FA8
0310E:  BCF    FA6.6
03110:  BCF    FA6.7
03112:  BSF    FA6.2
03114:  MOVF   FF2,W
03116:  MOVWF  00
03118:  BCF    FF2.7
0311A:  MOVLB  F
0311C:  MOVLW  55
0311E:  MOVWF  FA7
03120:  MOVLW  AA
03122:  MOVWF  FA7
03124:  BSF    FA6.1
03126:  BTFSC  FA6.1
03128:  BRA    3126
0312A:  BCF    FA6.2
0312C:  MOVF   00,W
0312E:  IORWF  FF2,F
....................    } 
....................    if(VelMotor>100 || VelMotor==0){ 
03130:  MOVLB  5
03132:  MOVF   x92,W
03134:  SUBLW  64
03136:  BNC   313C
03138:  MOVF   x92,F
0313A:  BNZ   316C
....................       VelMotor=50;write_eeprom(32,50); 
0313C:  MOVLW  32
0313E:  MOVWF  x92
03140:  CLRF   FAA
03142:  MOVLW  20
03144:  MOVWF  FA9
03146:  MOVLW  32
03148:  MOVWF  FA8
0314A:  BCF    FA6.6
0314C:  BCF    FA6.7
0314E:  BSF    FA6.2
03150:  MOVF   FF2,W
03152:  MOVWF  00
03154:  BCF    FF2.7
03156:  MOVLB  F
03158:  MOVLW  55
0315A:  MOVWF  FA7
0315C:  MOVLW  AA
0315E:  MOVWF  FA7
03160:  BSF    FA6.1
03162:  BTFSC  FA6.1
03164:  BRA    3162
03166:  BCF    FA6.2
03168:  MOVF   00,W
0316A:  IORWF  FF2,F
....................    }    
....................    if(minutos_trabajo>3600){ 
0316C:  MOVLB  4
0316E:  MOVF   xD3,W
03170:  SUBLW  0D
03172:  BC    31D4
03174:  XORLW  FF
03176:  BNZ   317E
03178:  MOVF   xD2,W
0317A:  SUBLW  10
0317C:  BC    31D4
....................       minutos_trabajo=0;write_eeprom(33,0);write_eeprom(34,0); 
0317E:  CLRF   xD3
03180:  CLRF   xD2
03182:  CLRF   FAA
03184:  MOVLW  21
03186:  MOVWF  FA9
03188:  CLRF   FA8
0318A:  BCF    FA6.6
0318C:  BCF    FA6.7
0318E:  BSF    FA6.2
03190:  MOVF   FF2,W
03192:  MOVWF  00
03194:  BCF    FF2.7
03196:  MOVLB  F
03198:  MOVLW  55
0319A:  MOVWF  FA7
0319C:  MOVLW  AA
0319E:  MOVWF  FA7
031A0:  BSF    FA6.1
031A2:  BTFSC  FA6.1
031A4:  BRA    31A2
031A6:  BCF    FA6.2
031A8:  MOVF   00,W
031AA:  IORWF  FF2,F
031AC:  CLRF   FAA
031AE:  MOVLW  22
031B0:  MOVWF  FA9
031B2:  CLRF   FA8
031B4:  BCF    FA6.6
031B6:  BCF    FA6.7
031B8:  BSF    FA6.2
031BA:  MOVF   FF2,W
031BC:  MOVWF  00
031BE:  BCF    FF2.7
031C0:  MOVLW  55
031C2:  MOVWF  FA7
031C4:  MOVLW  AA
031C6:  MOVWF  FA7
031C8:  BSF    FA6.1
031CA:  BTFSC  FA6.1
031CC:  BRA    31CA
031CE:  BCF    FA6.2
031D0:  MOVF   00,W
031D2:  IORWF  FF2,F
....................    } 
....................    //if(Relacion>2.0){ 
....................       //Relacion=0.57;write_eeprom(35,0);write_eeprom(36,57); 
....................    //} 
....................    if(Diferencia>200){ 
031D4:  MOVLB  6
031D6:  CLRF   x66
031D8:  CLRF   x65
031DA:  MOVLW  48
031DC:  MOVWF  x64
031DE:  MOVLW  86
031E0:  MOVWF  x63
031E2:  MOVFF  513,66A
031E6:  MOVFF  512,669
031EA:  MOVFF  511,668
031EE:  MOVFF  510,667
031F2:  MOVLB  0
031F4:  CALL   2910
031F8:  BNC   3256
....................       Diferencia=0;write_eeprom(60,0);write_eeprom(61,0); 
031FA:  MOVLB  5
031FC:  CLRF   x13
031FE:  CLRF   x12
03200:  CLRF   x11
03202:  CLRF   x10
03204:  CLRF   FAA
03206:  MOVLW  3C
03208:  MOVWF  FA9
0320A:  CLRF   FA8
0320C:  BCF    FA6.6
0320E:  BCF    FA6.7
03210:  BSF    FA6.2
03212:  MOVF   FF2,W
03214:  MOVWF  00
03216:  BCF    FF2.7
03218:  MOVLB  F
0321A:  MOVLW  55
0321C:  MOVWF  FA7
0321E:  MOVLW  AA
03220:  MOVWF  FA7
03222:  BSF    FA6.1
03224:  BTFSC  FA6.1
03226:  BRA    3224
03228:  BCF    FA6.2
0322A:  MOVF   00,W
0322C:  IORWF  FF2,F
0322E:  CLRF   FAA
03230:  MOVLW  3D
03232:  MOVWF  FA9
03234:  CLRF   FA8
03236:  BCF    FA6.6
03238:  BCF    FA6.7
0323A:  BSF    FA6.2
0323C:  MOVF   FF2,W
0323E:  MOVWF  00
03240:  BCF    FF2.7
03242:  MOVLW  55
03244:  MOVWF  FA7
03246:  MOVLW  AA
03248:  MOVWF  FA7
0324A:  BSF    FA6.1
0324C:  BTFSC  FA6.1
0324E:  BRA    324C
03250:  BCF    FA6.2
03252:  MOVF   00,W
03254:  IORWF  FF2,F
....................    } 
....................    if(G>900){ 
03256:  MOVLB  6
03258:  CLRF   x66
0325A:  CLRF   x65
0325C:  MOVLW  61
0325E:  MOVWF  x64
03260:  MOVLW  88
03262:  MOVWF  x63
03264:  MOVFF  58B,66A
03268:  MOVFF  58A,669
0326C:  MOVFF  589,668
03270:  MOVFF  588,667
03274:  MOVLB  0
03276:  CALL   2910
0327A:  BNC   32DE
....................       G=240;write_eeprom(62,240);write_eeprom(63,0); 
0327C:  MOVLB  5
0327E:  CLRF   x8B
03280:  CLRF   x8A
03282:  MOVLW  70
03284:  MOVWF  x89
03286:  MOVLW  86
03288:  MOVWF  x88
0328A:  CLRF   FAA
0328C:  MOVLW  3E
0328E:  MOVWF  FA9
03290:  MOVLW  F0
03292:  MOVWF  FA8
03294:  BCF    FA6.6
03296:  BCF    FA6.7
03298:  BSF    FA6.2
0329A:  MOVF   FF2,W
0329C:  MOVWF  00
0329E:  BCF    FF2.7
032A0:  MOVLB  F
032A2:  MOVLW  55
032A4:  MOVWF  FA7
032A6:  MOVLW  AA
032A8:  MOVWF  FA7
032AA:  BSF    FA6.1
032AC:  BTFSC  FA6.1
032AE:  BRA    32AC
032B0:  BCF    FA6.2
032B2:  MOVF   00,W
032B4:  IORWF  FF2,F
032B6:  CLRF   FAA
032B8:  MOVLW  3F
032BA:  MOVWF  FA9
032BC:  CLRF   FA8
032BE:  BCF    FA6.6
032C0:  BCF    FA6.7
032C2:  BSF    FA6.2
032C4:  MOVF   FF2,W
032C6:  MOVWF  00
032C8:  BCF    FF2.7
032CA:  MOVLW  55
032CC:  MOVWF  FA7
032CE:  MOVLW  AA
032D0:  MOVWF  FA7
032D2:  BSF    FA6.1
032D4:  BTFSC  FA6.1
032D6:  BRA    32D4
032D8:  BCF    FA6.2
032DA:  MOVF   00,W
032DC:  IORWF  FF2,F
....................    } 
....................    if(negativo>20){ 
032DE:  MOVLB  4
032E0:  MOVF   xB5,W
032E2:  SUBLW  14
032E4:  BC    3318
....................       negativo=10;write_eeprom(50,10); 
032E6:  MOVLW  0A
032E8:  MOVWF  xB5
032EA:  CLRF   FAA
032EC:  MOVLW  32
032EE:  MOVWF  FA9
032F0:  MOVLW  0A
032F2:  MOVWF  FA8
032F4:  BCF    FA6.6
032F6:  BCF    FA6.7
032F8:  BSF    FA6.2
032FA:  MOVF   FF2,W
032FC:  MOVWF  00
032FE:  BCF    FF2.7
03300:  MOVLB  F
03302:  MOVLW  55
03304:  MOVWF  FA7
03306:  MOVLW  AA
03308:  MOVWF  FA7
0330A:  BSF    FA6.1
0330C:  BTFSC  FA6.1
0330E:  BRA    330C
03310:  BCF    FA6.2
03312:  MOVF   00,W
03314:  IORWF  FF2,F
03316:  MOVLB  4
....................    } 
.................... } 
03318:  MOVLB  0
0331A:  GOTO   6638 (RETURN)
....................  
.................... void VelocidadMotor(int8 Vel){ 
....................    float tmp; 
....................    if(Vel==0){ 
*
01DE4:  MOVLB  6
01DE6:  MOVF   x32,F
01DE8:  BNZ   1DFA
....................       Motor_off; 
01DEA:  BSF    F8B.1
01DEC:  BCF    F94.1
....................       Alarmas=OFF; 
01DEE:  MOVLB  4
01DF0:  BCF    x2D.3
....................       flagError=OFF; 
01DF2:  BCF    x2E.0
....................       conteoError=0; 
01DF4:  CLRF   xC7
....................    }else{ 
01DF6:  BRA    1EEC
01DF8:  MOVLB  6
....................       #ifdef RS485 
....................       Motor_on; 
01DFA:  BCF    F8B.1
01DFC:  BCF    F94.1
....................       tmp=((float)Vel/(1.6666666))*10.0; 
01DFE:  CLRF   x68
01E00:  MOVFF  632,667
01E04:  MOVLB  0
01E06:  RCALL  173C
01E08:  MOVFF  00,637
01E0C:  MOVFF  01,638
01E10:  MOVFF  02,639
01E14:  MOVFF  03,63A
01E18:  MOVFF  03,666
01E1C:  MOVFF  02,665
01E20:  MOVFF  01,664
01E24:  MOVFF  00,663
01E28:  MOVLW  55
01E2A:  MOVLB  6
01E2C:  MOVWF  x6A
01E2E:  MOVWF  x69
01E30:  MOVWF  x68
01E32:  MOVLW  7F
01E34:  MOVWF  x67
01E36:  MOVLB  0
01E38:  RCALL  1772
01E3A:  MOVFF  00,637
01E3E:  MOVFF  01,638
01E42:  MOVFF  02,639
01E46:  MOVFF  03,63A
01E4A:  MOVFF  03,666
01E4E:  MOVFF  02,665
01E52:  MOVFF  01,664
01E56:  MOVFF  00,663
01E5A:  MOVLB  6
01E5C:  CLRF   x6A
01E5E:  CLRF   x69
01E60:  MOVLW  20
01E62:  MOVWF  x68
01E64:  MOVLW  82
01E66:  MOVWF  x67
01E68:  MOVLB  0
01E6A:  RCALL  18D0
01E6C:  MOVFF  03,636
01E70:  MOVFF  02,635
01E74:  MOVFF  01,634
01E78:  MOVFF  00,633
....................       readHolding();  
01E7C:  BRA    1D84
....................       reg=(int16)tmp; 
01E7E:  MOVFF  636,666
01E82:  MOVFF  635,665
01E86:  MOVFF  634,664
01E8A:  MOVFF  633,663
01E8E:  RCALL  1DA8
01E90:  MOVFF  02,4DF
01E94:  MOVFF  01,4DE
....................       if(reg!=make16(txbuf[3],txbuf[4])){ 
01E98:  MOVFF  5CA,03
01E9C:  MOVLB  5
01E9E:  MOVF   xCB,W
01EA0:  MOVLB  4
01EA2:  SUBWF  xDE,W
01EA4:  BNZ   1EAC
01EA6:  MOVF   03,W
01EA8:  SUBWF  xDF,W
01EAA:  BZ    1ED0
....................       //if(tmp!=inst){  
....................          instruccion=5; 
01EAC:  MOVLW  05
01EAE:  MOVWF  xBE
....................          address=100; 
01EB0:  MOVLW  64
01EB2:  MOVWF  xBF
....................          //reg=(int16)tmp; 
....................          regl=make8(reg,0); 
01EB4:  MOVFF  4DE,4C1
....................          regh=make8(reg,1); 
01EB8:  MOVFF  4DF,4C2
....................          Envio_Esclavos(); 
01EBC:  MOVLB  0
01EBE:  RCALL  1AC2
....................          conteoError++; 
01EC0:  MOVLB  4
01EC2:  INCF   xC7,F
....................          flagError=ON; 
01EC4:  BSF    x2E.0
....................          if(conteoError>10) 
01EC6:  MOVF   xC7,W
01EC8:  SUBLW  0A
01ECA:  BC    1ECE
....................             Alarmas=ON; 
01ECC:  BSF    x2D.3
....................       //} 
....................       }else{ 
01ECE:  BRA    1EEC
....................          if(flagError){ 
01ED0:  BTFSS  x2E.0
01ED2:  BRA    1EE8
....................             flagError=OFF; 
01ED4:  BCF    x2E.0
....................             conteoError=0; 
01ED6:  CLRF   xC7
....................             Alarmas=OFF; 
01ED8:  BCF    x2D.3
....................             instruccion=0; 
01EDA:  CLRF   xBE
....................             address=0; 
01EDC:  CLRF   xBF
....................             regl=0; 
01EDE:  CLRF   xC1
....................             regh=0; 
01EE0:  CLRF   xC2
....................             Envio_Esclavos(); 
01EE2:  MOVLB  0
01EE4:  RCALL  1AC2
01EE6:  MOVLB  4
....................          } 
....................          Display_on; 
01EE8:  BSF    F8A.1
01EEA:  BCF    F93.1
....................       } 
....................       #else 
....................          Motor_on; 
....................          tmp=((float)Vel*1023.0)/100.0; 
....................          pwm1=1023-((int16)tmp); 
....................          pwm2=pwm1; 
....................          pwm1l=make8(pwm1,0); 
....................          pwm1h=make8(pwm1,1); 
....................          pwm2l=make8(pwm2,0); 
....................          pwm2h=make8(pwm2,1); 
....................          Envio_Esclavos(); 
....................       #endif 
....................    } 
.................... } 
01EEC:  MOVLB  0
01EEE:  RETLW  00
....................  
.................... short PidePassword(int8 MenuAnt, int8 MenuActual, int8 MenuPost, int8 clave0,int8 clave1, int8 clave2,int8 clave3){ 
....................       if(n==0) 
*
0518C:  MOVLB  4
0518E:  BTFSC  x2E.3
05190:  BRA    5228
....................       { 
....................          displayContrasena(Contrasena[0],20,30,1);displayContrasena(Contrasena[1],40,30,0); 
05192:  MOVFF  500,63C
05196:  MOVLW  14
05198:  MOVLB  6
0519A:  MOVWF  x3D
0519C:  MOVLW  1E
0519E:  MOVWF  x3E
051A0:  MOVLW  01
051A2:  MOVWF  x3F
051A4:  MOVLB  0
051A6:  RCALL  5008
051A8:  MOVFF  501,63C
051AC:  MOVLW  28
051AE:  MOVLB  6
051B0:  MOVWF  x3D
051B2:  MOVLW  1E
051B4:  MOVWF  x3E
051B6:  CLRF   x3F
051B8:  MOVLB  0
051BA:  RCALL  5008
....................          displayContrasena(Contrasena[2],60,30,0);displayContrasena(Contrasena[0],80,30,0); 
051BC:  MOVFF  502,63C
051C0:  MOVLW  3C
051C2:  MOVLB  6
051C4:  MOVWF  x3D
051C6:  MOVLW  1E
051C8:  MOVWF  x3E
051CA:  CLRF   x3F
051CC:  MOVLB  0
051CE:  RCALL  5008
051D0:  MOVFF  500,63C
051D4:  MOVLW  50
051D6:  MOVLB  6
051D8:  MOVWF  x3D
051DA:  MOVLW  1E
051DC:  MOVWF  x3E
051DE:  CLRF   x3F
051E0:  MOVLB  0
051E2:  RCALL  5008
....................          strcpy(Menus.Letra,"Clave"); 
051E4:  MOVLW  04
051E6:  MOVWF  FEA
051E8:  MOVLW  16
051EA:  MOVWF  FE9
051EC:  MOVFF  FF2,63A
051F0:  BCF    FF2.7
051F2:  MOVLW  00
051F4:  CALL   0EEE
051F8:  TBLRD*-
051FA:  TBLRD*+
051FC:  MOVF   FF5,W
051FE:  MOVWF  FEE
05200:  IORLW  00
05202:  BNZ   51FA
05204:  MOVLB  6
05206:  BTFSC  x3A.7
05208:  BSF    FF2.7
....................          displayMenu(Menus.Letra,20,0,1,3); 
0520A:  MOVLW  04
0520C:  MOVWF  x3B
0520E:  MOVLW  16
05210:  MOVWF  x3A
05212:  MOVLW  14
05214:  MOVWF  x3C
05216:  CLRF   x3D
05218:  MOVLW  01
0521A:  MOVWF  x3E
0521C:  MOVLW  03
0521E:  MOVWF  x3F
05220:  MOVLB  0
05222:  RCALL  50C0
....................          n=1; 
05224:  MOVLB  4
05226:  BSF    x2E.3
....................       } 
....................        
....................       if(tup>=30){ 
05228:  MOVF   xD7,F
0522A:  BNZ   5232
0522C:  MOVF   xD6,W
0522E:  SUBLW  1D
05230:  BC    5306
....................          flag_latencia=0;t_latencia=0; 
05232:  BCF    x2D.6
05234:  CLRF   xCF
05236:  CLRF   xCE
....................          if(Flanco == 0){ 
05238:  BTFSC  x2C.0
0523A:  BRA    5304
....................             Flanco = 1;delay_ms(5); 
0523C:  BSF    x2C.0
0523E:  MOVLW  05
05240:  MOVLB  6
05242:  MOVWF  x46
05244:  MOVLB  0
05246:  CALL   1524
....................             for(i=1;i<=4;i++){ 
0524A:  MOVLW  01
0524C:  MOVLB  5
0524E:  MOVWF  x8E
05250:  MOVF   x8E,W
05252:  SUBLW  04
05254:  BNC   5302
....................                if(unidad==i){ 
05256:  MOVF   x8E,W
05258:  MOVLB  4
0525A:  SUBWF  xB3,W
0525C:  BNZ   52CC
....................                   Contrasena[i-1]++; 
0525E:  MOVLW  01
05260:  MOVLB  5
05262:  SUBWF  x8E,W
05264:  CLRF   03
05266:  MOVWF  FE9
05268:  MOVLW  05
0526A:  ADDWF  03,W
0526C:  MOVWF  FEA
0526E:  INCF   FEF,F
....................                   if(Contrasena[i-1]>9){ 
05270:  MOVLW  01
05272:  SUBWF  x8E,W
05274:  CLRF   03
05276:  MOVWF  FE9
05278:  MOVLW  05
0527A:  ADDWF  03,W
0527C:  MOVWF  FEA
0527E:  BTFSC  FEF.7
05280:  BRA    5298
05282:  MOVF   FEF,W
05284:  SUBLW  09
05286:  BC    5298
....................                      Contrasena[i-1]=0; 
05288:  MOVLW  01
0528A:  SUBWF  x8E,W
0528C:  CLRF   03
0528E:  MOVWF  FE9
05290:  MOVLW  05
05292:  ADDWF  03,W
05294:  MOVWF  FEA
05296:  CLRF   FEF
....................                   } 
....................                   displayContrasena(Contrasena[i-1],i*20,30,1); 
05298:  MOVLW  01
0529A:  SUBWF  x8E,W
0529C:  CLRF   03
0529E:  MOVWF  FE9
052A0:  MOVLW  05
052A2:  ADDWF  03,W
052A4:  MOVWF  FEA
052A6:  MOVFF  FEF,63A
052AA:  MOVF   x8E,W
052AC:  MULLW  14
052AE:  MOVFF  FF3,63B
052B2:  MOVLB  6
052B4:  MOVFF  63A,63C
052B8:  MOVFF  63B,63D
052BC:  MOVLW  1E
052BE:  MOVWF  x3E
052C0:  MOVLW  01
052C2:  MOVWF  x3F
052C4:  MOVLB  0
052C6:  RCALL  5008
....................                }else{ 
052C8:  BRA    52FC
052CA:  MOVLB  4
....................                   displayContrasena(Contrasena[i-1],i*20,30,0); 
052CC:  MOVLW  01
052CE:  MOVLB  5
052D0:  SUBWF  x8E,W
052D2:  CLRF   03
052D4:  MOVWF  FE9
052D6:  MOVLW  05
052D8:  ADDWF  03,W
052DA:  MOVWF  FEA
052DC:  MOVFF  FEF,63A
052E0:  MOVF   x8E,W
052E2:  MULLW  14
052E4:  MOVFF  FF3,63B
052E8:  MOVLB  6
052EA:  MOVFF  63A,63C
052EE:  MOVFF  63B,63D
052F2:  MOVLW  1E
052F4:  MOVWF  x3E
052F6:  CLRF   x3F
052F8:  MOVLB  0
052FA:  RCALL  5008
....................                } 
....................             } 
052FC:  MOVLB  5
052FE:  INCF   x8E,F
05300:  BRA    5250
05302:  MOVLB  4
....................          } 
....................       }else{ 
05304:  BRA    5308
....................          Flanco = 0; 
05306:  BCF    x2C.0
....................       } 
....................              
....................       if(tdown>=30){ 
05308:  MOVF   xD9,F
0530A:  BNZ   5312
0530C:  MOVF   xD8,W
0530E:  SUBLW  1D
05310:  BC    53E4
....................          flag_latencia=0;t_latencia=0; 
05312:  BCF    x2D.6
05314:  CLRF   xCF
05316:  CLRF   xCE
....................          if(Flanco2 == 0){ 
05318:  BTFSC  x2C.2
0531A:  BRA    53E2
....................             Flanco2 = 1;delay_ms(5); 
0531C:  BSF    x2C.2
0531E:  MOVLW  05
05320:  MOVLB  6
05322:  MOVWF  x46
05324:  MOVLB  0
05326:  CALL   1524
....................             for(i=1;i<=4;i++){ 
0532A:  MOVLW  01
0532C:  MOVLB  5
0532E:  MOVWF  x8E
05330:  MOVF   x8E,W
05332:  SUBLW  04
05334:  BNC   53E0
....................                if(unidad==i){ 
05336:  MOVF   x8E,W
05338:  MOVLB  4
0533A:  SUBWF  xB3,W
0533C:  BNZ   53AA
....................                   Contrasena[i-1]--; 
0533E:  MOVLW  01
05340:  MOVLB  5
05342:  SUBWF  x8E,W
05344:  CLRF   03
05346:  MOVWF  FE9
05348:  MOVLW  05
0534A:  ADDWF  03,W
0534C:  MOVWF  FEA
0534E:  DECF   FEF,F
....................                   if(Contrasena[i-1]<0){ 
05350:  MOVLW  01
05352:  SUBWF  x8E,W
05354:  CLRF   03
05356:  MOVWF  FE9
05358:  MOVLW  05
0535A:  ADDWF  03,W
0535C:  MOVWF  FEA
0535E:  BTFSC  FEF.7
05360:  BRA    5364
05362:  BRA    5376
....................                      Contrasena[i-1]=9; 
05364:  MOVLW  01
05366:  SUBWF  x8E,W
05368:  CLRF   03
0536A:  MOVWF  FE9
0536C:  MOVLW  05
0536E:  ADDWF  03,W
05370:  MOVWF  FEA
05372:  MOVLW  09
05374:  MOVWF  FEF
....................                   } 
....................                   displayContrasena(Contrasena[i-1],i*20,30,1); 
05376:  MOVLW  01
05378:  SUBWF  x8E,W
0537A:  CLRF   03
0537C:  MOVWF  FE9
0537E:  MOVLW  05
05380:  ADDWF  03,W
05382:  MOVWF  FEA
05384:  MOVFF  FEF,63A
05388:  MOVF   x8E,W
0538A:  MULLW  14
0538C:  MOVFF  FF3,63B
05390:  MOVLB  6
05392:  MOVFF  63A,63C
05396:  MOVFF  63B,63D
0539A:  MOVLW  1E
0539C:  MOVWF  x3E
0539E:  MOVLW  01
053A0:  MOVWF  x3F
053A2:  MOVLB  0
053A4:  RCALL  5008
....................                }else{ 
053A6:  BRA    53DA
053A8:  MOVLB  4
....................                   displayContrasena(Contrasena[i-1],i*20,30,0); 
053AA:  MOVLW  01
053AC:  MOVLB  5
053AE:  SUBWF  x8E,W
053B0:  CLRF   03
053B2:  MOVWF  FE9
053B4:  MOVLW  05
053B6:  ADDWF  03,W
053B8:  MOVWF  FEA
053BA:  MOVFF  FEF,63A
053BE:  MOVF   x8E,W
053C0:  MULLW  14
053C2:  MOVFF  FF3,63B
053C6:  MOVLB  6
053C8:  MOVFF  63A,63C
053CC:  MOVFF  63B,63D
053D0:  MOVLW  1E
053D2:  MOVWF  x3E
053D4:  CLRF   x3F
053D6:  MOVLB  0
053D8:  RCALL  5008
....................                } 
....................             }       
053DA:  MOVLB  5
053DC:  INCF   x8E,F
053DE:  BRA    5330
053E0:  MOVLB  4
....................          }      
....................       }else{ 
053E2:  BRA    53E6
....................          Flanco2 = 0; 
053E4:  BCF    x2C.2
....................       } 
....................              
....................       if(tright>=30){ 
053E6:  MOVF   xDB,F
053E8:  BNZ   53F0
053EA:  MOVF   xDA,W
053EC:  SUBLW  1D
053EE:  BC    5490
....................          flag_latencia=0;t_latencia=0; 
053F0:  BCF    x2D.6
053F2:  CLRF   xCF
053F4:  CLRF   xCE
....................          if(Flanco1 == 0){ 
053F6:  BTFSC  x2C.1
053F8:  BRA    548E
....................             Flanco1 = 1;delay_ms(5);unidad++; 
053FA:  BSF    x2C.1
053FC:  MOVLW  05
053FE:  MOVLB  6
05400:  MOVWF  x46
05402:  MOVLB  0
05404:  CALL   1524
05408:  MOVLB  4
0540A:  INCF   xB3,F
....................             for(i=1;i<=4;i++){ 
0540C:  MOVLW  01
0540E:  MOVLB  5
05410:  MOVWF  x8E
05412:  MOVF   x8E,W
05414:  SUBLW  04
05416:  BNC   548C
....................                if(unidad==i){ 
05418:  MOVF   x8E,W
0541A:  MOVLB  4
0541C:  SUBWF  xB3,W
0541E:  BNZ   5456
....................                   displayContrasena(Contrasena[i-1],i*20,30,1); 
05420:  MOVLW  01
05422:  MOVLB  5
05424:  SUBWF  x8E,W
05426:  CLRF   03
05428:  MOVWF  FE9
0542A:  MOVLW  05
0542C:  ADDWF  03,W
0542E:  MOVWF  FEA
05430:  MOVFF  FEF,63A
05434:  MOVF   x8E,W
05436:  MULLW  14
05438:  MOVFF  FF3,63B
0543C:  MOVLB  6
0543E:  MOVFF  63A,63C
05442:  MOVFF  63B,63D
05446:  MOVLW  1E
05448:  MOVWF  x3E
0544A:  MOVLW  01
0544C:  MOVWF  x3F
0544E:  MOVLB  0
05450:  RCALL  5008
....................                }else{ 
05452:  BRA    5486
05454:  MOVLB  4
....................                   displayContrasena(Contrasena[i-1],i*20,30,0); 
05456:  MOVLW  01
05458:  MOVLB  5
0545A:  SUBWF  x8E,W
0545C:  CLRF   03
0545E:  MOVWF  FE9
05460:  MOVLW  05
05462:  ADDWF  03,W
05464:  MOVWF  FEA
05466:  MOVFF  FEF,63A
0546A:  MOVF   x8E,W
0546C:  MULLW  14
0546E:  MOVFF  FF3,63B
05472:  MOVLB  6
05474:  MOVFF  63A,63C
05478:  MOVFF  63B,63D
0547C:  MOVLW  1E
0547E:  MOVWF  x3E
05480:  CLRF   x3F
05482:  MOVLB  0
05484:  RCALL  5008
....................                } 
....................             } 
05486:  MOVLB  5
05488:  INCF   x8E,F
0548A:  BRA    5412
0548C:  MOVLB  4
....................          } 
....................       }else{ 
0548E:  BRA    5492
....................          Flanco1 = 0; 
05490:  BCF    x2C.1
....................       } 
....................        
....................       if(tleft>=30){ 
05492:  MOVF   xDD,F
05494:  BNZ   549C
05496:  MOVF   xDC,W
05498:  SUBLW  1D
0549A:  BC    54E0
....................          delay_ms(100); 
0549C:  MOVLW  64
0549E:  MOVLB  6
054A0:  MOVWF  x46
054A2:  MOVLB  0
054A4:  CALL   1524
....................          //if(LEFT){ 
....................             Menu=MenuAnt;glcd_fillScreen(OFF);n=0;Opcion=1;unidad=1; 
054A8:  MOVFF  633,4B2
054AC:  MOVLB  6
054AE:  CLRF   x3A
054B0:  MOVLB  0
054B2:  CALL   1582
054B6:  MOVLB  4
054B8:  BCF    x2E.3
054BA:  MOVLW  01
054BC:  MOVWF  xB4
054BE:  MOVWF  xB3
....................             Contrasena[0]=0;Contrasena[1]=0;Contrasena[2]=0;Contrasena[3]=0; 
054C0:  MOVLB  5
054C2:  CLRF   x00
054C4:  CLRF   x01
054C6:  CLRF   x02
054C8:  CLRF   x03
....................             glcd_fillScreen(OFF);glcd_update(); 
054CA:  MOVLB  6
054CC:  CLRF   x3A
054CE:  MOVLB  0
054D0:  CALL   1582
054D4:  CALL   15DC
....................             return 1; 
054D8:  MOVLW  01
054DA:  MOVWF  01
054DC:  BRA    588A
054DE:  MOVLB  4
....................          //} 
....................       } 
....................      
....................       if(unidad>4){ 
054E0:  MOVF   xB3,W
054E2:  SUBLW  04
054E4:  BTFSC  FD8.0
054E6:  BRA    588C
....................          glcd_fillScreen(OFF);unidad=1;flag_latencia=0;t_latencia=0; 
054E8:  MOVLB  6
054EA:  CLRF   x3A
054EC:  MOVLB  0
054EE:  CALL   1582
054F2:  MOVLW  01
054F4:  MOVLB  4
054F6:  MOVWF  xB3
054F8:  BCF    x2D.6
054FA:  CLRF   xCF
054FC:  CLRF   xCE
....................           
....................          if(Contrasena[0]==3&&Contrasena[1]==8&&Contrasena[2]==9&&Contrasena[3]==2 && MenuActual==0){ // Si Ingresa clave para reset general del sistema. 
054FE:  MOVLB  5
05500:  MOVF   x00,W
05502:  SUBLW  03
05504:  BTFSS  FD8.2
05506:  BRA    5600
05508:  MOVF   x01,W
0550A:  SUBLW  08
0550C:  BTFSS  FD8.2
0550E:  BRA    5600
05510:  MOVF   x02,W
05512:  SUBLW  09
05514:  BNZ   5600
05516:  MOVF   x03,W
05518:  SUBLW  02
0551A:  BNZ   5600
0551C:  MOVLB  6
0551E:  MOVF   x34,F
05520:  BTFSC  FD8.2
05522:  BRA    5528
05524:  MOVLB  5
05526:  BRA    5600
....................             write_eeprom(0,0);delay_ms(20);write_eeprom(1,0);delay_ms(20);// Reestablece a contrasea de Fabrica y reinicia Programa. 
05528:  CLRF   FAA
0552A:  CLRF   FA9
0552C:  CLRF   FA8
0552E:  BCF    FA6.6
05530:  BCF    FA6.7
05532:  BSF    FA6.2
05534:  MOVF   FF2,W
05536:  MOVWF  00
05538:  BCF    FF2.7
0553A:  MOVLB  F
0553C:  MOVLW  55
0553E:  MOVWF  FA7
05540:  MOVLW  AA
05542:  MOVWF  FA7
05544:  BSF    FA6.1
05546:  BTFSC  FA6.1
05548:  BRA    5546
0554A:  BCF    FA6.2
0554C:  MOVF   00,W
0554E:  IORWF  FF2,F
05550:  MOVLW  14
05552:  MOVLB  6
05554:  MOVWF  x46
05556:  MOVLB  0
05558:  CALL   1524
0555C:  CLRF   FAA
0555E:  MOVLW  01
05560:  MOVWF  FA9
05562:  CLRF   FA8
05564:  BCF    FA6.6
05566:  BCF    FA6.7
05568:  BSF    FA6.2
0556A:  MOVF   FF2,W
0556C:  MOVWF  00
0556E:  BCF    FF2.7
05570:  MOVLB  F
05572:  MOVLW  55
05574:  MOVWF  FA7
05576:  MOVLW  AA
05578:  MOVWF  FA7
0557A:  BSF    FA6.1
0557C:  BTFSC  FA6.1
0557E:  BRA    557C
05580:  BCF    FA6.2
05582:  MOVF   00,W
05584:  IORWF  FF2,F
05586:  MOVLW  14
05588:  MOVLB  6
0558A:  MOVWF  x46
0558C:  MOVLB  0
0558E:  CALL   1524
....................             write_eeprom(2,0);delay_ms(20);write_eeprom(3,0);delay_ms(20); 
05592:  CLRF   FAA
05594:  MOVLW  02
05596:  MOVWF  FA9
05598:  CLRF   FA8
0559A:  BCF    FA6.6
0559C:  BCF    FA6.7
0559E:  BSF    FA6.2
055A0:  MOVF   FF2,W
055A2:  MOVWF  00
055A4:  BCF    FF2.7
055A6:  MOVLB  F
055A8:  MOVLW  55
055AA:  MOVWF  FA7
055AC:  MOVLW  AA
055AE:  MOVWF  FA7
055B0:  BSF    FA6.1
055B2:  BTFSC  FA6.1
055B4:  BRA    55B2
055B6:  BCF    FA6.2
055B8:  MOVF   00,W
055BA:  IORWF  FF2,F
055BC:  MOVLW  14
055BE:  MOVLB  6
055C0:  MOVWF  x46
055C2:  MOVLB  0
055C4:  CALL   1524
055C8:  CLRF   FAA
055CA:  MOVLW  03
055CC:  MOVWF  FA9
055CE:  CLRF   FA8
055D0:  BCF    FA6.6
055D2:  BCF    FA6.7
055D4:  BSF    FA6.2
055D6:  MOVF   FF2,W
055D8:  MOVWF  00
055DA:  BCF    FF2.7
055DC:  MOVLB  F
055DE:  MOVLW  55
055E0:  MOVWF  FA7
055E2:  MOVLW  AA
055E4:  MOVWF  FA7
055E6:  BSF    FA6.1
055E8:  BTFSC  FA6.1
055EA:  BRA    55E8
055EC:  BCF    FA6.2
055EE:  MOVF   00,W
055F0:  IORWF  FF2,F
055F2:  MOVLW  14
055F4:  MOVLB  6
055F6:  MOVWF  x46
055F8:  MOVLB  0
055FA:  CALL   1524
....................             reset_cpu(); 
055FE:  RESET
....................          } 
....................        
....................          if((Contrasena[0]==clave0)&&(Contrasena[1]==clave1)&&(Contrasena[2]==clave2)&&(Contrasena[3]==clave3)){ 
05600:  MOVLB  6
05602:  MOVF   x36,W
05604:  MOVLB  5
05606:  SUBWF  x00,W
05608:  BTFSS  FD8.2
0560A:  BRA    56FE
0560C:  MOVLB  6
0560E:  MOVF   x37,W
05610:  MOVLB  5
05612:  SUBWF  x01,W
05614:  BTFSS  FD8.2
05616:  BRA    56FE
05618:  MOVLB  6
0561A:  MOVF   x38,W
0561C:  MOVLB  5
0561E:  SUBWF  x02,W
05620:  BNZ   56FE
05622:  MOVLB  6
05624:  MOVF   x39,W
05626:  MOVLB  5
05628:  SUBWF  x03,W
0562A:  BNZ   56FE
....................             glcd_fillScreen(OFF); 
0562C:  MOVLB  6
0562E:  CLRF   x3A
05630:  MOVLB  0
05632:  CALL   1582
....................             strcpy(Menus.Letra,"Clave"); 
05636:  MOVLW  04
05638:  MOVWF  FEA
0563A:  MOVLW  16
0563C:  MOVWF  FE9
0563E:  MOVFF  FF2,63A
05642:  BCF    FF2.7
05644:  MOVLW  00
05646:  CALL   0EEE
0564A:  TBLRD*-
0564C:  TBLRD*+
0564E:  MOVF   FF5,W
05650:  MOVWF  FEE
05652:  IORLW  00
05654:  BNZ   564C
05656:  MOVLB  6
05658:  BTFSC  x3A.7
0565A:  BSF    FF2.7
....................             displayMenu(Menus.Letra,30,0,0,2); 
0565C:  MOVLW  04
0565E:  MOVWF  x3B
05660:  MOVLW  16
05662:  MOVWF  x3A
05664:  MOVLW  1E
05666:  MOVWF  x3C
05668:  CLRF   x3D
0566A:  CLRF   x3E
0566C:  MOVLW  02
0566E:  MOVWF  x3F
05670:  MOVLB  0
05672:  RCALL  50C0
....................             strcpy(Menus.Letra,"Correcta"); 
05674:  MOVLW  04
05676:  MOVWF  FEA
05678:  MOVLW  16
0567A:  MOVWF  FE9
0567C:  MOVFF  FF2,63A
05680:  BCF    FF2.7
05682:  MOVLW  00
05684:  CALL   0F0E
05688:  TBLRD*-
0568A:  TBLRD*+
0568C:  MOVF   FF5,W
0568E:  MOVWF  FEE
05690:  IORLW  00
05692:  BNZ   568A
05694:  MOVLB  6
05696:  BTFSC  x3A.7
05698:  BSF    FF2.7
....................             displayMenu(Menus.Letra,15,30,0,2); 
0569A:  MOVLW  04
0569C:  MOVWF  x3B
0569E:  MOVLW  16
056A0:  MOVWF  x3A
056A2:  MOVLW  0F
056A4:  MOVWF  x3C
056A6:  MOVLW  1E
056A8:  MOVWF  x3D
056AA:  CLRF   x3E
056AC:  MOVLW  02
056AE:  MOVWF  x3F
056B0:  MOVLB  0
056B2:  RCALL  50C0
....................             Menu=MenuPost;glcd_update();delay_ms(1000);glcd_fillScreen(OFF); 
056B4:  MOVFF  635,4B2
056B8:  CALL   15DC
056BC:  MOVLW  04
056BE:  MOVLB  6
056C0:  MOVWF  x3A
056C2:  MOVLW  FA
056C4:  MOVWF  x46
056C6:  MOVLB  0
056C8:  CALL   1524
056CC:  MOVLB  6
056CE:  DECFSZ x3A,F
056D0:  BRA    56C2
056D2:  CLRF   x3A
056D4:  MOVLB  0
056D6:  CALL   1582
....................             Contrasena[0]=0;Contrasena[1]=0;Contrasena[2]=0;Contrasena[3]=0; 
056DA:  MOVLB  5
056DC:  CLRF   x00
056DE:  CLRF   x01
056E0:  CLRF   x02
056E2:  CLRF   x03
....................             if(MenuActual==0)tiempo_purga=1;n=0; 
056E4:  MOVLB  6
056E6:  MOVF   x34,F
056E8:  BNZ   56EE
056EA:  MOVLB  4
056EC:  BSF    x2D.4
056EE:  MOVLB  4
056F0:  BCF    x2E.3
....................             return 1; 
056F2:  MOVLW  01
056F4:  MOVWF  01
056F6:  MOVLB  0
056F8:  BRA    588A
....................          }else{ 
056FA:  BRA    588A
056FC:  MOVLB  5
....................             glcd_fillScreen(OFF); 
056FE:  MOVLB  6
05700:  CLRF   x3A
05702:  MOVLB  0
05704:  CALL   1582
....................             strcpy(Menus.Letra,"Clave"); 
05708:  MOVLW  04
0570A:  MOVWF  FEA
0570C:  MOVLW  16
0570E:  MOVWF  FE9
05710:  MOVFF  FF2,63A
05714:  BCF    FF2.7
05716:  MOVLW  00
05718:  CALL   0EEE
0571C:  TBLRD*-
0571E:  TBLRD*+
05720:  MOVF   FF5,W
05722:  MOVWF  FEE
05724:  IORLW  00
05726:  BNZ   571E
05728:  MOVLB  6
0572A:  BTFSC  x3A.7
0572C:  BSF    FF2.7
....................             displayMenu(Menus.Letra,30,0,0,2); 
0572E:  MOVLW  04
05730:  MOVWF  x3B
05732:  MOVLW  16
05734:  MOVWF  x3A
05736:  MOVLW  1E
05738:  MOVWF  x3C
0573A:  CLRF   x3D
0573C:  CLRF   x3E
0573E:  MOVLW  02
05740:  MOVWF  x3F
05742:  MOVLB  0
05744:  RCALL  50C0
....................             strcpy(Menus.Letra,"Incorrecta"); 
05746:  MOVLW  04
05748:  MOVWF  FEA
0574A:  MOVLW  16
0574C:  MOVWF  FE9
0574E:  MOVFF  FF2,63A
05752:  BCF    FF2.7
05754:  MOVLW  00
05756:  CALL   0F32
0575A:  TBLRD*-
0575C:  TBLRD*+
0575E:  MOVF   FF5,W
05760:  MOVWF  FEE
05762:  IORLW  00
05764:  BNZ   575C
05766:  MOVLB  6
05768:  BTFSC  x3A.7
0576A:  BSF    FF2.7
....................             displayMenu(Menus.Letra,0,30,0,2); 
0576C:  MOVLW  04
0576E:  MOVWF  x3B
05770:  MOVLW  16
05772:  MOVWF  x3A
05774:  CLRF   x3C
05776:  MOVLW  1E
05778:  MOVWF  x3D
0577A:  CLRF   x3E
0577C:  MOVLW  02
0577E:  MOVWF  x3F
05780:  MOVLB  0
05782:  RCALL  50C0
....................             unidad=1;glcd_update();delay_ms(1000);Contrasena[0]=0;Contrasena[1]=0;Contrasena[2]=0;Contrasena[3]=0;glcd_fillScreen(OFF); 
05784:  MOVLW  01
05786:  MOVLB  4
05788:  MOVWF  xB3
0578A:  MOVLB  0
0578C:  CALL   15DC
05790:  MOVLW  04
05792:  MOVLB  6
05794:  MOVWF  x3A
05796:  MOVLW  FA
05798:  MOVWF  x46
0579A:  MOVLB  0
0579C:  CALL   1524
057A0:  MOVLB  6
057A2:  DECFSZ x3A,F
057A4:  BRA    5796
057A6:  MOVLB  5
057A8:  CLRF   x00
057AA:  CLRF   x01
057AC:  CLRF   x02
057AE:  CLRF   x03
057B0:  MOVLB  6
057B2:  CLRF   x3A
057B4:  MOVLB  0
057B6:  CALL   1582
....................             glcd_rect(0, 0, 127, 25, YES, ON);strcpy(Menus.Letra,"Clave");glcd_text57(25, 1, Menus.Letra, 3, OFF);displayContrasena(Contrasena[0],20,30,1); 
057BA:  MOVLB  6
057BC:  CLRF   x4B
057BE:  CLRF   x4C
057C0:  MOVLW  7F
057C2:  MOVWF  x4D
057C4:  MOVLW  19
057C6:  MOVWF  x4E
057C8:  MOVLW  01
057CA:  MOVWF  x4F
057CC:  MOVWF  x50
057CE:  MOVLB  0
057D0:  CALL   4D8E
057D4:  MOVLW  04
057D6:  MOVWF  FEA
057D8:  MOVLW  16
057DA:  MOVWF  FE9
057DC:  MOVFF  FF2,63A
057E0:  BCF    FF2.7
057E2:  MOVLW  00
057E4:  CALL   0EEE
057E8:  TBLRD*-
057EA:  TBLRD*+
057EC:  MOVF   FF5,W
057EE:  MOVWF  FEE
057F0:  IORLW  00
057F2:  BNZ   57EA
057F4:  MOVLB  6
057F6:  BTFSC  x3A.7
057F8:  BSF    FF2.7
057FA:  MOVLW  19
057FC:  MOVWF  x4B
057FE:  MOVLW  01
05800:  MOVWF  x4C
05802:  MOVLW  04
05804:  MOVWF  x4E
05806:  MOVLW  16
05808:  MOVWF  x4D
0580A:  MOVLW  03
0580C:  MOVWF  x4F
0580E:  CLRF   x50
05810:  MOVLB  0
05812:  CALL   4E50
05816:  MOVFF  500,63C
0581A:  MOVLW  14
0581C:  MOVLB  6
0581E:  MOVWF  x3D
05820:  MOVLW  1E
05822:  MOVWF  x3E
05824:  MOVLW  01
05826:  MOVWF  x3F
05828:  MOVLB  0
0582A:  CALL   5008
....................             displayContrasena(Contrasena[1],40,30,0);displayContrasena(Contrasena[2],60,30,0);displayContrasena(Contrasena[0],80,30,0); 
0582E:  MOVFF  501,63C
05832:  MOVLW  28
05834:  MOVLB  6
05836:  MOVWF  x3D
05838:  MOVLW  1E
0583A:  MOVWF  x3E
0583C:  CLRF   x3F
0583E:  MOVLB  0
05840:  CALL   5008
05844:  MOVFF  502,63C
05848:  MOVLW  3C
0584A:  MOVLB  6
0584C:  MOVWF  x3D
0584E:  MOVLW  1E
05850:  MOVWF  x3E
05852:  CLRF   x3F
05854:  MOVLB  0
05856:  CALL   5008
0585A:  MOVFF  500,63C
0585E:  MOVLW  50
05860:  MOVLB  6
05862:  MOVWF  x3D
05864:  MOVLW  1E
05866:  MOVWF  x3E
05868:  CLRF   x3F
0586A:  MOVLB  0
0586C:  CALL   5008
....................             Menu=MenuAnt;glcd_fillScreen(OFF);n=0; 
05870:  MOVFF  633,4B2
05874:  MOVLB  6
05876:  CLRF   x3A
05878:  MOVLB  0
0587A:  CALL   1582
0587E:  MOVLB  4
05880:  BCF    x2E.3
....................             return 0; 
05882:  MOVLW  00
05884:  MOVWF  01
05886:  MOVLB  0
05888:  BRA    588A
0588A:  MOVLB  4
....................          } 
....................       } 
.................... } 
0588C:  MOVLB  0
0588E:  RETLW  00
....................  
.................... void glcd_imagen(int8 x) 
.................... { 
....................    char i,j; 
....................    signed char k;  
....................       
....................    if(x==3){ 
*
0598C:  MOVLB  6
0598E:  MOVF   x32,W
05990:  SUBLW  03
05992:  BNZ   5A36
....................    for( i = 0 ; i < 64 ; i ++ ) 
05994:  CLRF   x33
05996:  MOVF   x33,W
05998:  SUBLW  3F
0599A:  BNC   5A36
....................    {  for( j = 0 ; j < 16 ; j ++) 
0599C:  CLRF   x34
0599E:  MOVF   x34,W
059A0:  SUBLW  0F
059A2:  BNC   5A32
....................       {  for(k=7;k>-1;k--) 
059A4:  MOVLW  07
059A6:  MOVWF  x35
059A8:  MOVF   x35,W
059AA:  XORLW  80
059AC:  SUBLW  7F
059AE:  BC    5A2E
....................          {       
....................             if( bit_test(Bombillo[i][j] ,7-k ))  
059B0:  CLRF   x37
059B2:  MOVFF  633,636
059B6:  CLRF   x39
059B8:  MOVLW  10
059BA:  MOVWF  x38
059BC:  MOVLB  0
059BE:  RCALL  596A
059C0:  MOVFF  02,637
059C4:  MOVFF  01,636
059C8:  MOVLB  6
059CA:  MOVF   x34,W
059CC:  ADDWF  01,W
059CE:  MOVWF  01
059D0:  MOVLW  00
059D2:  ADDWFC 02,W
059D4:  MOVWF  03
059D6:  MOVF   01,W
059D8:  MOVFF  FF2,636
059DC:  BCF    FF2.7
059DE:  MOVFF  03,FF7
059E2:  MOVLB  0
059E4:  CALL   02A6
059E8:  MOVLB  6
059EA:  BTFSC  x36.7
059EC:  BSF    FF2.7
059EE:  MOVWF  x36
059F0:  MOVLW  07
059F2:  BSF    FD8.0
059F4:  SUBFWB x35,W
059F6:  MOVWF  x37
059F8:  MOVFF  636,00
059FC:  MOVF   x37,W
059FE:  MOVWF  01
05A00:  BZ    5A0A
05A02:  BCF    FD8.0
05A04:  RRCF   00,F
05A06:  DECFSZ 01,F
05A08:  BRA    5A02
05A0A:  BTFSS  00.0
05A0C:  BRA    5A2A
....................                glcd_pixel( j*8+k,i, ON ); 
05A0E:  MOVF   x34,W
05A10:  MULLW  08
05A12:  MOVF   FF3,W
05A14:  ADDWF  x35,W
05A16:  MOVWF  x36
05A18:  MOVWF  x66
05A1A:  MOVFF  633,667
05A1E:  MOVLW  01
05A20:  MOVWF  x68
05A22:  MOVLB  0
05A24:  CALL   4B94
05A28:  MOVLB  6
....................          }   
05A2A:  DECF   x35,F
05A2C:  BRA    59A8
....................       } 
05A2E:  INCF   x34,F
05A30:  BRA    599E
....................    } 
05A32:  INCF   x33,F
05A34:  BRA    5996
....................    } 
....................     
....................    if(x==4){ 
05A36:  MOVF   x32,W
05A38:  SUBLW  04
05A3A:  BNZ   5ADE
....................    for( i = 0 ; i < 64 ; i ++ ) 
05A3C:  CLRF   x33
05A3E:  MOVF   x33,W
05A40:  SUBLW  3F
05A42:  BNC   5ADE
....................    {  for( j = 0 ; j < 16 ; j ++) 
05A44:  CLRF   x34
05A46:  MOVF   x34,W
05A48:  SUBLW  0F
05A4A:  BNC   5ADA
....................       {  for(k=7;k>-1;k--) 
05A4C:  MOVLW  07
05A4E:  MOVWF  x35
05A50:  MOVF   x35,W
05A52:  XORLW  80
05A54:  SUBLW  7F
05A56:  BC    5AD6
....................          {       
....................             if( bit_test(Tomai[i][j] ,7-k ))  
05A58:  CLRF   x37
05A5A:  MOVFF  633,636
05A5E:  CLRF   x39
05A60:  MOVLW  10
05A62:  MOVWF  x38
05A64:  MOVLB  0
05A66:  RCALL  596A
05A68:  MOVFF  02,637
05A6C:  MOVFF  01,636
05A70:  MOVLB  6
05A72:  MOVF   x34,W
05A74:  ADDWF  01,W
05A76:  MOVWF  01
05A78:  MOVLW  00
05A7A:  ADDWFC 02,W
05A7C:  MOVWF  03
05A7E:  MOVF   01,W
05A80:  MOVFF  FF2,636
05A84:  BCF    FF2.7
05A86:  MOVFF  03,FF7
05A8A:  MOVLB  0
05A8C:  CALL   06BE
05A90:  MOVLB  6
05A92:  BTFSC  x36.7
05A94:  BSF    FF2.7
05A96:  MOVWF  x36
05A98:  MOVLW  07
05A9A:  BSF    FD8.0
05A9C:  SUBFWB x35,W
05A9E:  MOVWF  x37
05AA0:  MOVFF  636,00
05AA4:  MOVF   x37,W
05AA6:  MOVWF  01
05AA8:  BZ    5AB2
05AAA:  BCF    FD8.0
05AAC:  RRCF   00,F
05AAE:  DECFSZ 01,F
05AB0:  BRA    5AAA
05AB2:  BTFSS  00.0
05AB4:  BRA    5AD2
....................                glcd_pixel( j*8+k,i, ON ); 
05AB6:  MOVF   x34,W
05AB8:  MULLW  08
05ABA:  MOVF   FF3,W
05ABC:  ADDWF  x35,W
05ABE:  MOVWF  x36
05AC0:  MOVWF  x66
05AC2:  MOVFF  633,667
05AC6:  MOVLW  01
05AC8:  MOVWF  x68
05ACA:  MOVLB  0
05ACC:  CALL   4B94
05AD0:  MOVLB  6
....................          }   
05AD2:  DECF   x35,F
05AD4:  BRA    5A50
....................       } 
05AD6:  INCF   x34,F
05AD8:  BRA    5A46
....................    } 
05ADA:  INCF   x33,F
05ADC:  BRA    5A3E
....................    } 
....................     
....................    if(x==5){ 
05ADE:  MOVF   x32,W
05AE0:  SUBLW  05
05AE2:  BNZ   5B86
....................    for( i = 0 ; i < 64 ; i ++ ) 
05AE4:  CLRF   x33
05AE6:  MOVF   x33,W
05AE8:  SUBLW  3F
05AEA:  BNC   5B86
....................    {  for( j = 0 ; j < 16 ; j ++) 
05AEC:  CLRF   x34
05AEE:  MOVF   x34,W
05AF0:  SUBLW  0F
05AF2:  BNC   5B82
....................       {  for(k=7;k>-1;k--) 
05AF4:  MOVLW  07
05AF6:  MOVWF  x35
05AF8:  MOVF   x35,W
05AFA:  XORLW  80
05AFC:  SUBLW  7F
05AFE:  BC    5B7E
....................          {       
....................             if( bit_test(Ventilador[i][j] ,7-k ))  
05B00:  CLRF   x37
05B02:  MOVFF  633,636
05B06:  CLRF   x39
05B08:  MOVLW  10
05B0A:  MOVWF  x38
05B0C:  MOVLB  0
05B0E:  RCALL  596A
05B10:  MOVFF  02,637
05B14:  MOVFF  01,636
05B18:  MOVLB  6
05B1A:  MOVF   x34,W
05B1C:  ADDWF  01,W
05B1E:  MOVWF  01
05B20:  MOVLW  00
05B22:  ADDWFC 02,W
05B24:  MOVWF  03
05B26:  MOVF   01,W
05B28:  MOVFF  FF2,636
05B2C:  BCF    FF2.7
05B2E:  MOVFF  03,FF7
05B32:  MOVLB  0
05B34:  CALL   0AD6
05B38:  MOVLB  6
05B3A:  BTFSC  x36.7
05B3C:  BSF    FF2.7
05B3E:  MOVWF  x36
05B40:  MOVLW  07
05B42:  BSF    FD8.0
05B44:  SUBFWB x35,W
05B46:  MOVWF  x37
05B48:  MOVFF  636,00
05B4C:  MOVF   x37,W
05B4E:  MOVWF  01
05B50:  BZ    5B5A
05B52:  BCF    FD8.0
05B54:  RRCF   00,F
05B56:  DECFSZ 01,F
05B58:  BRA    5B52
05B5A:  BTFSS  00.0
05B5C:  BRA    5B7A
....................                glcd_pixel( j*8+k,i, ON ); 
05B5E:  MOVF   x34,W
05B60:  MULLW  08
05B62:  MOVF   FF3,W
05B64:  ADDWF  x35,W
05B66:  MOVWF  x36
05B68:  MOVWF  x66
05B6A:  MOVFF  633,667
05B6E:  MOVLW  01
05B70:  MOVWF  x68
05B72:  MOVLB  0
05B74:  CALL   4B94
05B78:  MOVLB  6
....................          }   
05B7A:  DECF   x35,F
05B7C:  BRA    5AF8
....................       } 
05B7E:  INCF   x34,F
05B80:  BRA    5AEE
....................    } 
05B82:  INCF   x33,F
05B84:  BRA    5AE6
....................    } 
.................... } 
05B86:  MOVLB  0
05B88:  RETLW  00
....................  
.................... Float LeerFlujoInFlow(int media) 
.................... { 
....................     InFlow_adc=sensores(1); 
*
044BA:  MOVLW  01
044BC:  MOVLB  6
044BE:  MOVWF  x43
044C0:  MOVLB  0
044C2:  CALL   331E
044C6:  MOVFF  02,4C9
044CA:  MOVFF  01,4C8
....................        
....................     if(negativo==10) 
044CE:  MOVLB  4
044D0:  MOVF   xB5,W
044D2:  SUBLW  0A
044D4:  BNZ   451C
....................     { 
....................       x_uno=Inflow_adc+Diferencia; 
044D6:  MOVFF  4C9,668
044DA:  MOVFF  4C8,667
044DE:  MOVLB  0
044E0:  CALL   173C
044E4:  BCF    FD8.1
044E6:  MOVFF  03,66A
044EA:  MOVFF  02,669
044EE:  MOVFF  01,668
044F2:  MOVFF  00,667
044F6:  MOVFF  513,66E
044FA:  MOVFF  512,66D
044FE:  MOVFF  511,66C
04502:  MOVFF  510,66B
04506:  CALL   1EF0
0450A:  MOVFF  03,51B
0450E:  MOVFF  02,51A
04512:  MOVFF  01,519
04516:  MOVFF  00,518
0451A:  MOVLB  4
....................     } 
....................     if(negativo==20) 
0451C:  MOVF   xB5,W
0451E:  SUBLW  14
04520:  BNZ   4566
....................     { 
....................       x_uno=Inflow_adc-Diferencia; 
04522:  MOVFF  4C9,668
04526:  MOVFF  4C8,667
0452A:  MOVLB  0
0452C:  CALL   173C
04530:  BSF    FD8.1
04532:  MOVFF  03,66A
04536:  MOVFF  02,669
0453A:  MOVFF  01,668
0453E:  MOVFF  00,667
04542:  MOVFF  513,66E
04546:  MOVFF  512,66D
0454A:  MOVFF  511,66C
0454E:  MOVFF  510,66B
04552:  CALL   1EF0
04556:  MOVFF  03,51B
0455A:  MOVFF  02,51A
0455E:  MOVFF  01,519
04562:  MOVFF  00,518
....................     } 
....................     Velocidad=(pow(x_uno,3)*a)+(pow(x_uno,2)*b)+(x_uno*c)+(d); 
04566:  MOVFF  51B,63A
0456A:  MOVFF  51A,639
0456E:  MOVFF  519,638
04572:  MOVFF  518,637
04576:  MOVLB  6
04578:  CLRF   x3E
0457A:  CLRF   x3D
0457C:  MOVLW  40
0457E:  MOVWF  x3C
04580:  MOVLW  80
04582:  MOVWF  x3B
04584:  MOVLB  0
04586:  RCALL  41AE
04588:  MOVFF  00,633
0458C:  MOVFF  01,634
04590:  MOVFF  02,635
04594:  MOVFF  03,636
04598:  MOVFF  03,666
0459C:  MOVFF  02,665
045A0:  MOVFF  01,664
045A4:  MOVFF  00,663
045A8:  MOVFF  52F,66A
045AC:  MOVFF  52E,669
045B0:  MOVFF  52D,668
045B4:  MOVFF  52C,667
045B8:  CALL   18D0
045BC:  MOVFF  00,633
045C0:  MOVFF  01,634
045C4:  MOVFF  02,635
045C8:  MOVFF  03,636
045CC:  MOVFF  51B,63A
045D0:  MOVFF  51A,639
045D4:  MOVFF  519,638
045D8:  MOVFF  518,637
045DC:  MOVLB  6
045DE:  CLRF   x3E
045E0:  CLRF   x3D
045E2:  CLRF   x3C
045E4:  MOVLW  80
045E6:  MOVWF  x3B
045E8:  MOVLB  0
045EA:  RCALL  41AE
045EC:  MOVFF  00,637
045F0:  MOVFF  01,638
045F4:  MOVFF  02,639
045F8:  MOVFF  03,63A
045FC:  MOVFF  03,666
04600:  MOVFF  02,665
04604:  MOVFF  01,664
04608:  MOVFF  00,663
0460C:  MOVFF  533,66A
04610:  MOVFF  532,669
04614:  MOVFF  531,668
04618:  MOVFF  530,667
0461C:  CALL   18D0
04620:  MOVFF  FEA,638
04624:  MOVFF  FE9,637
04628:  BCF    FD8.1
0462A:  MOVFF  636,66A
0462E:  MOVFF  635,669
04632:  MOVFF  634,668
04636:  MOVFF  633,667
0463A:  MOVFF  03,66E
0463E:  MOVFF  02,66D
04642:  MOVFF  01,66C
04646:  MOVFF  00,66B
0464A:  CALL   1EF0
0464E:  MOVFF  638,FEA
04652:  MOVFF  637,FE9
04656:  MOVFF  00,633
0465A:  MOVFF  01,634
0465E:  MOVFF  02,635
04662:  MOVFF  03,636
04666:  MOVFF  51B,666
0466A:  MOVFF  51A,665
0466E:  MOVFF  519,664
04672:  MOVFF  518,663
04676:  MOVFF  537,66A
0467A:  MOVFF  536,669
0467E:  MOVFF  535,668
04682:  MOVFF  534,667
04686:  CALL   18D0
0468A:  MOVFF  FEA,63A
0468E:  MOVFF  FE9,639
04692:  BCF    FD8.1
04694:  MOVFF  636,66A
04698:  MOVFF  635,669
0469C:  MOVFF  634,668
046A0:  MOVFF  633,667
046A4:  MOVFF  03,66E
046A8:  MOVFF  02,66D
046AC:  MOVFF  01,66C
046B0:  MOVFF  00,66B
046B4:  CALL   1EF0
046B8:  MOVFF  63A,FEA
046BC:  MOVFF  639,FE9
046C0:  MOVFF  00,633
046C4:  MOVFF  01,634
046C8:  MOVFF  02,635
046CC:  MOVFF  03,636
046D0:  MOVFF  FEA,63C
046D4:  MOVFF  FE9,63B
046D8:  BCF    FD8.1
046DA:  MOVFF  03,66A
046DE:  MOVFF  02,669
046E2:  MOVFF  01,668
046E6:  MOVFF  00,667
046EA:  MOVFF  53B,66E
046EE:  MOVFF  53A,66D
046F2:  MOVFF  539,66C
046F6:  MOVFF  538,66B
046FA:  CALL   1EF0
046FE:  MOVFF  63C,FEA
04702:  MOVFF  63B,FE9
04706:  MOVFF  03,517
0470A:  MOVFF  02,516
0470E:  MOVFF  01,515
04712:  MOVFF  00,514
....................     //Velocidad=Velocidad*correccion;//Ajuste de Temperatura 
....................      
....................     if(Velocidad<0.0) 
04716:  MOVFF  517,666
0471A:  MOVFF  516,665
0471E:  MOVFF  515,664
04722:  MOVFF  514,663
04726:  MOVLB  6
04728:  CLRF   x6A
0472A:  CLRF   x69
0472C:  CLRF   x68
0472E:  CLRF   x67
04730:  MOVLB  0
04732:  CALL   2910
04736:  BNC   4742
....................      {Velocidad=0.0;} 
04738:  MOVLB  5
0473A:  CLRF   x17
0473C:  CLRF   x16
0473E:  CLRF   x15
04740:  CLRF   x14
....................       
....................      if(l>=media) 
04742:  MOVLB  6
04744:  MOVF   x32,W
04746:  MOVLB  4
04748:  SUBWF  xB9,W
0474A:  BNC   474E
....................        {l=0;} 
0474C:  CLRF   xB9
....................       
....................      promedio[l]=Velocidad;l++; 
0474E:  MOVF   xB9,W
04750:  MULLW  04
04752:  MOVF   FF3,W
04754:  CLRF   03
04756:  ADDLW  3C
04758:  MOVWF  FE9
0475A:  MOVLW  05
0475C:  ADDWFC 03,W
0475E:  MOVWF  FEA
04760:  MOVFF  514,FEF
04764:  MOVFF  515,FEC
04768:  MOVFF  516,FEC
0476C:  MOVFF  517,FEC
04770:  INCF   xB9,F
....................      Flujo=0; 
04772:  MOVLB  5
04774:  CLRF   x7F
04776:  CLRF   x7E
04778:  CLRF   x7D
0477A:  CLRF   x7C
....................         for(h=0;h<=(media-1);h++) 
0477C:  MOVLB  4
0477E:  CLRF   xBA
04780:  MOVLW  01
04782:  MOVLB  6
04784:  SUBWF  x32,W
04786:  MOVLB  4
04788:  SUBWF  xBA,W
0478A:  BZ    478E
0478C:  BC    47FE
....................         { 
....................            Flujo+=promedio[h]; 
0478E:  MOVF   xBA,W
04790:  MULLW  04
04792:  MOVF   FF3,W
04794:  CLRF   03
04796:  ADDLW  3C
04798:  MOVWF  FE9
0479A:  MOVLW  05
0479C:  ADDWFC 03,W
0479E:  MOVWF  FEA
047A0:  MOVFF  FEF,00
047A4:  MOVFF  FEC,01
047A8:  MOVFF  FEC,02
047AC:  MOVFF  FEC,03
047B0:  MOVFF  FEA,634
047B4:  MOVFF  FE9,633
047B8:  BCF    FD8.1
047BA:  MOVFF  57F,66A
047BE:  MOVFF  57E,669
047C2:  MOVFF  57D,668
047C6:  MOVFF  57C,667
047CA:  MOVFF  03,66E
047CE:  MOVFF  02,66D
047D2:  MOVFF  01,66C
047D6:  MOVFF  00,66B
047DA:  MOVLB  0
047DC:  CALL   1EF0
047E0:  MOVFF  634,FEA
047E4:  MOVFF  633,FE9
047E8:  MOVFF  03,57F
047EC:  MOVFF  02,57E
047F0:  MOVFF  01,57D
047F4:  MOVFF  00,57C
....................         }  
047F8:  MOVLB  4
047FA:  INCF   xBA,F
047FC:  BRA    4780
....................            Flujo=(Flujo/media)*Ajuste1;  
047FE:  MOVLB  6
04800:  CLRF   x68
04802:  MOVFF  632,667
04806:  MOVLB  0
04808:  CALL   173C
0480C:  MOVFF  57F,666
04810:  MOVFF  57E,665
04814:  MOVFF  57D,664
04818:  MOVFF  57C,663
0481C:  MOVFF  03,66A
04820:  MOVFF  02,669
04824:  MOVFF  01,668
04828:  MOVFF  00,667
0482C:  CALL   1772
04830:  MOVFF  00,633
04834:  MOVFF  01,634
04838:  MOVFF  02,635
0483C:  MOVFF  03,636
04840:  MOVFF  03,666
04844:  MOVFF  02,665
04848:  MOVFF  01,664
0484C:  MOVFF  00,663
04850:  MOVFF  51F,66A
04854:  MOVFF  51E,669
04858:  MOVFF  51D,668
0485C:  MOVFF  51C,667
04860:  CALL   18D0
04864:  MOVFF  03,57F
04868:  MOVFF  02,57E
0486C:  MOVFF  01,57D
04870:  MOVFF  00,57C
....................            return Flujo; 
04874:  MOVFF  57C,00
04878:  MOVFF  57D,01
0487C:  MOVFF  57E,02
04880:  MOVFF  57F,03
.................... } 
04884:  GOTO   6652 (RETURN)
....................  
....................  
....................  
.................... #int_TIMER1 
.................... void temp1s(void){ 
....................    //set_timer1(45612);  // 5 ms 5536 , Posiblemente cargar con 22144 debido a F=12MHz 
....................    set_timer1(40536); 
*
0136A:  MOVLW  9E
0136C:  MOVWF  FCF
0136E:  MOVLW  58
01370:  MOVWF  FCE
....................    tiempos++; 
01372:  MOVLB  5
01374:  INCF   x8C,F
01376:  BTFSC  FD8.2
01378:  INCF   x8D,F
....................    if(UP) 
0137A:  BSF    F92.5
0137C:  BTFSC  F80.5
0137E:  BRA    138A
....................       tup++; 
01380:  MOVLB  4
01382:  INCF   xD6,F
01384:  BTFSC  FD8.2
01386:  INCF   xD7,F
....................    else 
01388:  BRA    1390
....................       tup=0; 
0138A:  MOVLB  4
0138C:  CLRF   xD7
0138E:  CLRF   xD6
....................         
....................    if(DOWN) 
01390:  BSF    F96.0
01392:  BTFSC  F84.0
01394:  BRA    139E
....................       tdown++; 
01396:  INCF   xD8,F
01398:  BTFSC  FD8.2
0139A:  INCF   xD9,F
....................    else 
0139C:  BRA    13A2
....................       tdown=0; 
0139E:  CLRF   xD9
013A0:  CLRF   xD8
....................        
....................    if(RIGHT) 
013A2:  BSF    F96.1
013A4:  BTFSC  F84.1
013A6:  BRA    13B0
....................       tright++; 
013A8:  INCF   xDA,F
013AA:  BTFSC  FD8.2
013AC:  INCF   xDB,F
....................    else 
013AE:  BRA    13B4
....................       tright=0; 
013B0:  CLRF   xDB
013B2:  CLRF   xDA
....................      
....................    if(LEFT) 
013B4:  BSF    F96.2
013B6:  BTFSC  F84.2
013B8:  BRA    13C2
....................       tleft++; 
013BA:  INCF   xDC,F
013BC:  BTFSC  FD8.2
013BE:  INCF   xDD,F
....................    else 
013C0:  BRA    13C6
....................       tleft=0; 
013C2:  CLRF   xDD
013C4:  CLRF   xDC
....................           
....................    if(tiempos>=200){ 
013C6:  MOVLB  5
013C8:  MOVF   x8D,F
013CA:  BNZ   13D2
013CC:  MOVF   x8C,W
013CE:  SUBLW  C7
013D0:  BC    147A
....................       tiempos=0; 
013D2:  CLRF   x8D
013D4:  CLRF   x8C
....................       if(Alarmas){ 
013D6:  MOVLB  4
013D8:  BTFSS  x2D.3
013DA:  BRA    13E2
....................          output_toggle(PIN_B1); 
013DC:  BCF    F93.1
013DE:  BTG    F8A.1
....................       }else{ 
013E0:  BRA    13EC
....................          if(Menu!=200) 
013E2:  MOVF   xB2,W
013E4:  SUBLW  C8
013E6:  BZ    13EC
....................             Display_on; 
013E8:  BSF    F8A.1
013EA:  BCF    F93.1
....................       } 
....................           
....................       imprimir=1;Lectura=1;tiemporeset++; 
013EC:  BSF    x2C.6
013EE:  BSF    x2E.2
013F0:  INCF   xB8,F
....................     
....................       if(flag_blower==1) 
013F2:  BTFSS  x2C.7
013F4:  BRA    13FC
....................          minutos_trabajo++;  
013F6:  INCF   xD2,F
013F8:  BTFSC  FD8.2
013FA:  INCF   xD3,F
....................    
....................       if(tiempo_purga==1 || Purga){                   
013FC:  BTFSC  x2D.4
013FE:  BRA    1404
01400:  BTFSS  x2E.4
01402:  BRA    143C
....................          Tpurga[0]++; 
01404:  INCF   xE4,F
....................          if(Tpurga[0]>9){ 
01406:  BTFSC  xE4.7
01408:  BRA    1414
0140A:  MOVF   xE4,W
0140C:  SUBLW  09
0140E:  BC    1414
....................             Tpurga[0]=0; 
01410:  CLRF   xE4
....................             Tpurga[1]++; 
01412:  INCF   xE5,F
....................          } 
....................          if(Tpurga[1]>5){ 
01414:  BTFSC  xE5.7
01416:  BRA    1422
01418:  MOVF   xE5,W
0141A:  SUBLW  05
0141C:  BC    1422
....................             Tpurga[1]=0; 
0141E:  CLRF   xE5
....................             Tpurga[2]++; 
01420:  INCF   xE6,F
....................          } 
....................          if(Tpurga[2]>9){ 
01422:  BTFSC  xE6.7
01424:  BRA    1430
01426:  MOVF   xE6,W
01428:  SUBLW  09
0142A:  BC    1430
....................             Tpurga[2]=0; 
0142C:  CLRF   xE6
....................             Tpurga[3]++; 
0142E:  INCF   xE7,F
....................          } 
....................          if(Tpurga[3]>5){ 
01430:  BTFSC  xE7.7
01432:  BRA    143C
01434:  MOVF   xE7,W
01436:  SUBLW  05
01438:  BC    143C
....................             Tpurga[3]=0; 
0143A:  CLRF   xE7
....................          } 
....................       } 
....................        
....................       if(tiempo_postpurga){ 
0143C:  BTFSS  x2D.7
0143E:  BRA    1478
....................          Tppurga[0]++; 
01440:  INCF   xEC,F
....................          if(Tppurga[0]>9){ 
01442:  BTFSC  xEC.7
01444:  BRA    1450
01446:  MOVF   xEC,W
01448:  SUBLW  09
0144A:  BC    1450
....................             Tppurga[0]=0; 
0144C:  CLRF   xEC
....................             Tppurga[1]++; 
0144E:  INCF   xED,F
....................          } 
....................          if(Tppurga[1]>5){   
01450:  BTFSC  xED.7
01452:  BRA    145E
01454:  MOVF   xED,W
01456:  SUBLW  05
01458:  BC    145E
....................             Tppurga[1]=0; 
0145A:  CLRF   xED
....................             Tppurga[2]++; 
0145C:  INCF   xEE,F
....................          } 
....................          if(Tppurga[2]>9){ 
0145E:  BTFSC  xEE.7
01460:  BRA    146C
01462:  MOVF   xEE,W
01464:  SUBLW  09
01466:  BC    146C
....................             Tppurga[2]=0; 
01468:  CLRF   xEE
....................             Tppurga[3]++; 
0146A:  INCF   xEF,F
....................          } 
....................          if(Tppurga[3]>5){ 
0146C:  BTFSC  xEF.7
0146E:  BRA    1478
01470:  MOVF   xEF,W
01472:  SUBLW  05
01474:  BC    1478
....................             Tppurga[3]=0; 
01476:  CLRF   xEF
01478:  MOVLB  5
....................          } 
....................       } 
....................    } 
.................... } 
....................  
0147A:  BCF    F9E.0
0147C:  MOVLB  0
0147E:  GOTO   0054
.................... void main(){ 
*
0616C:  CLRF   FF8
0616E:  BCF    FD0.7
06170:  BSF    07.7
06172:  CLRF   FEA
06174:  CLRF   FE9
06176:  MOVLB  4
06178:  BCF    x2C.0
0617A:  BCF    x2C.1
0617C:  BCF    x2C.2
0617E:  BCF    x2C.3
06180:  BCF    x2C.4
06182:  BCF    x2C.5
06184:  BCF    x2C.6
06186:  BCF    x2C.7
06188:  BCF    x2D.0
0618A:  BCF    x2D.1
0618C:  BCF    x2D.2
0618E:  BCF    x2D.3
06190:  BCF    x2D.4
06192:  BCF    x2D.5
06194:  BCF    x2D.6
06196:  BCF    x2D.7
06198:  BCF    x2E.0
0619A:  BCF    x2E.1
0619C:  BCF    x2E.2
0619E:  BCF    x2E.3
061A0:  MOVLW  C8
061A2:  MOVWF  xB2
061A4:  MOVLW  01
061A6:  MOVWF  xB3
061A8:  MOVWF  xB4
061AA:  MOVLW  0A
061AC:  MOVWF  xB5
061AE:  CLRF   xB6
061B0:  CLRF   xB7
061B2:  CLRF   xB8
061B4:  CLRF   xB9
061B6:  CLRF   xBA
061B8:  CLRF   xBB
061BA:  CLRF   xBC
061BC:  MOVWF  xBD
061BE:  CLRF   xBE
061C0:  CLRF   xBF
061C2:  CLRF   xC0
061C4:  CLRF   xC1
061C6:  CLRF   xC2
061C8:  CLRF   xC3
061CA:  CLRF   xC4
061CC:  CLRF   xC5
061CE:  CLRF   xC6
061D0:  CLRF   xC7
061D2:  CLRF   xC9
061D4:  CLRF   xC8
061D6:  CLRF   xCB
061D8:  CLRF   xCA
061DA:  CLRF   xCD
061DC:  CLRF   xCC
061DE:  CLRF   xCF
061E0:  CLRF   xCE
061E2:  CLRF   xD1
061E4:  CLRF   xD0
061E6:  CLRF   xD3
061E8:  CLRF   xD2
061EA:  CLRF   xD5
061EC:  CLRF   xD4
061EE:  CLRF   xD7
061F0:  CLRF   xD6
061F2:  CLRF   xD9
061F4:  CLRF   xD8
061F6:  CLRF   xDB
061F8:  CLRF   xDA
061FA:  CLRF   xDD
061FC:  CLRF   xDC
061FE:  CLRF   xDF
06200:  CLRF   xDE
06202:  CLRF   xE1
06204:  CLRF   xE0
06206:  CLRF   xE3
06208:  CLRF   xE2
0620A:  MOVLB  5
0620C:  CLRF   x0B
0620E:  CLRF   x0A
06210:  CLRF   x09
06212:  CLRF   x08
06214:  CLRF   x0F
06216:  CLRF   x0E
06218:  CLRF   x0D
0621A:  CLRF   x0C
0621C:  CLRF   x13
0621E:  CLRF   x12
06220:  CLRF   x11
06222:  CLRF   x10
06224:  CLRF   x17
06226:  CLRF   x16
06228:  CLRF   x15
0622A:  CLRF   x14
0622C:  CLRF   x1B
0622E:  CLRF   x1A
06230:  CLRF   x19
06232:  CLRF   x18
06234:  CLRF   x1F
06236:  CLRF   x1E
06238:  CLRF   x1D
0623A:  CLRF   x1C
0623C:  CLRF   x23
0623E:  CLRF   x22
06240:  CLRF   x21
06242:  CLRF   x20
06244:  CLRF   x27
06246:  CLRF   x26
06248:  CLRF   x25
0624A:  CLRF   x24
0624C:  CLRF   x2B
0624E:  CLRF   x2A
06250:  CLRF   x29
06252:  CLRF   x28
06254:  MOVLW  29
06256:  MOVWF  x2F
06258:  MOVLW  B6
0625A:  MOVWF  x2E
0625C:  MOVLW  20
0625E:  MOVWF  x2D
06260:  MOVLW  6E
06262:  MOVWF  x2C
06264:  MOVLW  EE
06266:  MOVWF  x33
06268:  MOVLW  7D
0626A:  MOVWF  x32
0626C:  MOVLW  EE
0626E:  MOVWF  x31
06270:  MOVLW  77
06272:  MOVWF  x30
06274:  MOVLW  ED
06276:  MOVWF  x37
06278:  MOVLW  47
0627A:  MOVWF  x36
0627C:  MOVLW  6D
0627E:  MOVWF  x35
06280:  MOVLW  7F
06282:  MOVWF  x34
06284:  MOVLW  1A
06286:  MOVWF  x3B
06288:  MOVLW  D1
0628A:  MOVWF  x3A
0628C:  MOVLW  9C
0628E:  MOVWF  x39
06290:  MOVLW  86
06292:  MOVWF  x38
06294:  CLRF   x7F
06296:  CLRF   x7E
06298:  CLRF   x7D
0629A:  CLRF   x7C
0629C:  CLRF   x83
0629E:  CLRF   x82
062A0:  MOVLW  50
062A2:  MOVWF  x81
062A4:  MOVLW  86
062A6:  MOVWF  x80
062A8:  CLRF   x87
062AA:  CLRF   x86
062AC:  CLRF   x85
062AE:  CLRF   x84
062B0:  CLRF   x8B
062B2:  CLRF   x8A
062B4:  CLRF   x89
062B6:  MOVLW  80
062B8:  MOVWF  x88
062BA:  CLRF   x8D
062BC:  CLRF   x8C
062BE:  CLRF   x8E
062C0:  CLRF   x8F
062C2:  CLRF   x90
062C4:  CLRF   x91
062C6:  MOVLB  4
062C8:  BCF    x2E.4
062CA:  MOVLB  5
062CC:  CLRF   x92
062CE:  MOVLB  6
062D0:  CLRF   x2B
062D2:  CLRF   x2C
062D4:  CLRF   x2D
062D6:  MOVF   FC1,W
062D8:  ANDLW  C0
062DA:  IORLW  0F
062DC:  MOVWF  FC1
062DE:  MOVLW  07
062E0:  MOVWF  FB4
062E2:  MOVLB  4
062E4:  CLRF   x2A
062E6:  CLRF   x2B
062E8:  MOVLW  4A
062EA:  MOVWF  x2F
062EC:  MOVLW  50
062EE:  MOVWF  x30
062F0:  MOVLW  20
062F2:  MOVWF  x31
062F4:  MOVLW  49
062F6:  MOVWF  x32
062F8:  MOVLW  6E
062FA:  MOVWF  x33
062FC:  MOVLW  67
062FE:  MOVWF  x34
06300:  MOVLW  6C
06302:  MOVWF  x35
06304:  MOVLW  6F
06306:  MOVWF  x36
06308:  MOVLW  62
0630A:  MOVWF  x37
0630C:  MOVLW  61
0630E:  MOVWF  x38
06310:  MOVLW  6C
06312:  MOVWF  x39
06314:  CLRF   x3A
06316:  MOVLW  43
06318:  MOVWF  x3B
0631A:  MOVLW  61
0631C:  MOVWF  x3C
0631E:  MOVLW  62
06320:  MOVWF  x3D
06322:  MOVLW  69
06324:  MOVWF  x3E
06326:  MOVLW  6E
06328:  MOVWF  x3F
0632A:  MOVLW  61
0632C:  MOVWF  x40
0632E:  MOVLW  20
06330:  MOVWF  x41
06332:  MOVLW  45
06334:  MOVWF  x42
06336:  MOVLW  78
06338:  MOVWF  x43
0633A:  MOVLW  74
0633C:  MOVWF  x44
0633E:  MOVLW  72
06340:  MOVWF  x45
06342:  MOVLW  61
06344:  MOVWF  x46
06346:  MOVLW  63
06348:  MOVWF  x47
0634A:  MOVLW  74
0634C:  MOVWF  x48
0634E:  MOVLW  6F
06350:  MOVWF  x49
06352:  MOVLW  72
06354:  MOVWF  x4A
06356:  MOVLW  61
06358:  MOVWF  x4B
0635A:  CLRF   x4C
0635C:  MOVLW  3A
0635E:  MOVWF  x4D
06360:  CLRF   x4E
06362:  MOVLW  53
06364:  MOVWF  x4F
06366:  MOVLW  69
06368:  MOVWF  x50
0636A:  MOVLW  6E
0636C:  MOVWF  x51
0636E:  MOVLW  20
06370:  MOVWF  x52
06372:  MOVLW  44
06374:  MOVWF  x53
06376:  MOVLW  75
06378:  MOVWF  x54
0637A:  MOVLW  63
0637C:  MOVWF  x55
0637E:  MOVLW  74
06380:  MOVWF  x56
06382:  MOVLW  6F
06384:  MOVWF  x57
06386:  MOVLW  73
06388:  MOVWF  x58
0638A:  CLRF   x59
0638C:  MOVLW  54
0638E:  MOVWF  x5A
06390:  MOVLW  69
06392:  MOVWF  x5B
06394:  MOVLW  65
06396:  MOVWF  x5C
06398:  MOVLW  6D
0639A:  MOVWF  x5D
0639C:  MOVLW  70
0639E:  MOVWF  x5E
063A0:  MOVLW  6F
063A2:  MOVWF  x5F
063A4:  MOVLW  20
063A6:  MOVWF  x60
063A8:  MOVLW  64
063AA:  MOVWF  x61
063AC:  MOVLW  65
063AE:  MOVWF  x62
063B0:  MOVLW  20
063B2:  MOVWF  x63
063B4:  MOVLW  50
063B6:  MOVWF  x64
063B8:  MOVLW  75
063BA:  MOVWF  x65
063BC:  MOVLW  72
063BE:  MOVWF  x66
063C0:  MOVLW  67
063C2:  MOVWF  x67
063C4:  MOVLW  61
063C6:  MOVWF  x68
063C8:  CLRF   x69
063CA:  MOVLW  56
063CC:  MOVWF  x6A
063CE:  MOVLW  65
063D0:  MOVWF  x6B
063D2:  MOVLW  6C
063D4:  MOVWF  x6C
063D6:  MOVLW  3A
063D8:  MOVWF  x6D
063DA:  CLRF   x6E
063DC:  MOVLW  54
063DE:  MOVWF  x6F
063E0:  MOVLW  65
063E2:  MOVWF  x70
063E4:  MOVLW  6D
063E6:  MOVWF  x71
063E8:  MOVLW  70
063EA:  MOVWF  x72
063EC:  MOVLW  65
063EE:  MOVWF  x73
063F0:  MOVLW  72
063F2:  MOVWF  x74
063F4:  MOVLW  61
063F6:  MOVWF  x75
063F8:  MOVLW  74
063FA:  MOVWF  x76
063FC:  MOVLW  75
063FE:  MOVWF  x77
06400:  MOVLW  72
06402:  MOVWF  x78
06404:  MOVLW  61
06406:  MOVWF  x79
06408:  CLRF   x7A
0640A:  MOVLW  46
0640C:  MOVWF  x7B
0640E:  MOVLW  61
06410:  MOVWF  x7C
06412:  MOVLW  62
06414:  MOVWF  x7D
06416:  MOVLW  72
06418:  MOVWF  x7E
0641A:  MOVLW  69
0641C:  MOVWF  x7F
0641E:  MOVLW  63
06420:  MOVWF  x80
06422:  MOVLW  61
06424:  MOVWF  x81
06426:  MOVLW  3A
06428:  MOVWF  x82
0642A:  MOVLW  32
0642C:  MOVWF  x83
0642E:  MOVLW  30
06430:  MOVWF  x84
06432:  MOVLW  38
06434:  MOVWF  x85
06436:  MOVLW  2E
06438:  MOVWF  x86
0643A:  MOVLW  30
0643C:  MOVWF  x87
0643E:  CLRF   x88
06440:  MOVLW  41
06442:  MOVWF  x89
06444:  MOVLW  63
06446:  MOVWF  x8A
06448:  MOVLW  74
0644A:  MOVWF  x8B
0644C:  MOVLW  75
0644E:  MOVWF  x8C
06450:  MOVLW  61
06452:  MOVWF  x8D
06454:  MOVLW  6C
06456:  MOVWF  x8E
06458:  MOVLW  3A
0645A:  MOVWF  x8F
0645C:  CLRF   x90
0645E:  MOVLW  41
06460:  MOVWF  x91
06462:  MOVLW  6A
06464:  MOVWF  x92
06466:  MOVLW  75
06468:  MOVWF  x93
0646A:  MOVLW  73
0646C:  MOVWF  x94
0646E:  MOVLW  74
06470:  MOVWF  x95
06472:  MOVLW  65
06474:  MOVWF  x96
06476:  MOVLW  3A
06478:  MOVWF  x97
0647A:  CLRF   x98
0647C:  MOVLW  54
0647E:  MOVWF  x99
06480:  MOVLW  2E
06482:  MOVWF  x9A
06484:  MOVLW  20
06486:  MOVWF  x9B
06488:  MOVLW  46
0648A:  MOVWF  x9C
0648C:  MOVLW  69
0648E:  MOVWF  x9D
06490:  MOVLW  6C
06492:  MOVWF  x9E
06494:  MOVLW  74
06496:  MOVWF  x9F
06498:  MOVLW  72
0649A:  MOVWF  xA0
0649C:  MOVLW  6F
0649E:  MOVWF  xA1
064A0:  MOVLW  3A
064A2:  MOVWF  xA2
064A4:  CLRF   xA3
064A6:  MOVLW  46
064A8:  MOVWF  xA4
064AA:  MOVLW  61
064AC:  MOVWF  xA5
064AE:  MOVLW  62
064B0:  MOVWF  xA6
064B2:  MOVLW  72
064B4:  MOVWF  xA7
064B6:  MOVLW  69
064B8:  MOVWF  xA8
064BA:  MOVLW  63
064BC:  MOVWF  xA9
064BE:  MOVLW  61
064C0:  MOVWF  xAA
064C2:  MOVLW  3A
064C4:  MOVWF  xAB
064C6:  MOVLW  32
064C8:  MOVWF  xAC
064CA:  MOVLW  33
064CC:  MOVWF  xAD
064CE:  MOVLW  35
064D0:  MOVWF  xAE
064D2:  MOVLW  2E
064D4:  MOVWF  xAF
064D6:  MOVLW  30
064D8:  MOVWF  xB0
064DA:  CLRF   xB1
064DC:  CLRF   xE4
064DE:  CLRF   xE5
064E0:  CLRF   xE6
064E2:  CLRF   xE7
064E4:  MOVLW  09
064E6:  MOVWF  xE8
064E8:  CLRF   xE9
064EA:  CLRF   xEA
064EC:  CLRF   xEB
064EE:  CLRF   xEC
064F0:  CLRF   xED
064F2:  CLRF   xEE
064F4:  CLRF   xEF
064F6:  MOVWF  xF0
064F8:  CLRF   xF1
064FA:  CLRF   xF2
064FC:  CLRF   xF3
064FE:  CLRF   xF4
06500:  CLRF   xF5
06502:  CLRF   xF6
06504:  CLRF   xF7
06506:  CLRF   xF8
06508:  CLRF   xF9
0650A:  CLRF   xFA
0650C:  CLRF   xFB
0650E:  CLRF   xFC
06510:  CLRF   xFD
06512:  CLRF   xFE
06514:  CLRF   xFF
06516:  MOVLB  5
06518:  CLRF   x00
0651A:  CLRF   x01
0651C:  CLRF   x02
0651E:  CLRF   x03
06520:  CLRF   x04
06522:  CLRF   x05
06524:  CLRF   x06
06526:  CLRF   x07
06528:  CLRF   x3C
0652A:  CLRF   x3D
0652C:  CLRF   x3E
0652E:  CLRF   x3F
06530:  CLRF   x40
06532:  CLRF   x41
06534:  CLRF   x42
06536:  CLRF   x43
06538:  CLRF   x44
0653A:  CLRF   x45
0653C:  CLRF   x46
0653E:  CLRF   x47
06540:  CLRF   x48
06542:  CLRF   x49
06544:  CLRF   x4A
06546:  CLRF   x4B
06548:  CLRF   x4C
0654A:  CLRF   x4D
0654C:  CLRF   x4E
0654E:  CLRF   x4F
06550:  CLRF   x50
06552:  CLRF   x51
06554:  CLRF   x52
06556:  CLRF   x53
06558:  CLRF   x54
0655A:  CLRF   x55
0655C:  CLRF   x56
0655E:  CLRF   x57
06560:  CLRF   x58
06562:  CLRF   x59
06564:  CLRF   x5A
06566:  CLRF   x5B
06568:  CLRF   x5C
0656A:  CLRF   x5D
0656C:  CLRF   x5E
0656E:  CLRF   x5F
06570:  CLRF   x60
06572:  CLRF   x61
06574:  CLRF   x62
06576:  CLRF   x63
06578:  CLRF   x64
0657A:  CLRF   x65
0657C:  CLRF   x66
0657E:  CLRF   x67
06580:  CLRF   x68
06582:  CLRF   x69
06584:  CLRF   x6A
06586:  CLRF   x6B
06588:  CLRF   x6C
0658A:  CLRF   x6D
0658C:  CLRF   x6E
0658E:  CLRF   x6F
06590:  CLRF   x70
06592:  CLRF   x71
06594:  CLRF   x72
06596:  CLRF   x73
06598:  CLRF   x74
0659A:  CLRF   x75
0659C:  CLRF   x76
0659E:  CLRF   x77
065A0:  CLRF   x78
065A2:  CLRF   x79
065A4:  CLRF   x7A
065A6:  CLRF   x7B
....................    delay_ms(1000); 
065A8:  MOVLW  04
065AA:  MOVLB  6
065AC:  MOVWF  x32
065AE:  MOVLW  FA
065B0:  MOVWF  x46
065B2:  MOVLB  0
065B4:  CALL   1524
065B8:  MOVLB  6
065BA:  DECFSZ x32,F
065BC:  BRA    65AE
....................    for (posicion=0;posicion<0x10;posicion++){ 
065BE:  CLRF   x2D
065C0:  MOVF   x2D,W
065C2:  SUBLW  0F
065C4:  BNC   65DA
....................       SlaveA0Tx[posicion] = 0x00; 
065C6:  CLRF   03
065C8:  MOVF   x2D,W
065CA:  ADDLW  A7
065CC:  MOVWF  FE9
065CE:  MOVLW  05
065D0:  ADDWFC 03,W
065D2:  MOVWF  FEA
065D4:  CLRF   FEF
....................    } 
065D6:  INCF   x2D,F
065D8:  BRA    65C0
....................    Motor_off; 
065DA:  BSF    F8B.1
065DC:  BCF    F94.1
....................    LuzBlanca_off; 
065DE:  BSF    F8B.2
065E0:  BCF    F94.2
....................    setup_timer_1(T1_INTERNAL|T1_DIV_BY_1); 
065E2:  MOVLW  85
065E4:  MOVWF  FCD
....................    enable_interrupts(INT_TIMER1); 
065E6:  BSF    F9D.0
....................    setup_adc_ports(AN0_TO_AN2); 
065E8:  MOVF   FC1,W
065EA:  ANDLW  C0
065EC:  IORLW  0C
065EE:  MOVWF  FC1
....................    setup_adc(ADC_CLOCK_DIV_64); 
065F0:  MOVF   FC0,W
065F2:  ANDLW  C0
065F4:  IORLW  06
065F6:  MOVWF  FC0
065F8:  BSF    FC0.7
065FA:  BSF    FC2.0
....................    setup_wdt(WDT_ON); 
065FC:  BSF    FD1.0
....................    enable_interrupts(global);   
065FE:  MOVLW  C0
06600:  IORWF  FF2,F
....................    Motor_off; 
06602:  BSF    F8B.1
06604:  BCF    F94.1
....................    glcd_init(ON); 
06606:  MOVLW  01
06608:  MOVWF  x32
0660A:  MOVLB  0
0660C:  CALL   1694
....................    Menu=200; 
06610:  MOVLW  C8
06612:  MOVLB  4
06614:  MOVWF  xB2
....................    LuzBlanca_off;Alarma_off;Aux_off; 
06616:  BSF    F8B.2
06618:  BCF    F94.2
0661A:  BCF    F8B.5
0661C:  BCF    F94.5
0661E:  BCF    F8B.0
06620:  BCF    F94.0
....................    VelocidadMotor(0); 
06622:  MOVLB  6
06624:  CLRF   x32
06626:  MOVLB  0
06628:  CALL   1DE4
....................    Motor_off; 
0662C:  BSF    F8B.1
0662E:  BCF    F94.1
....................    LeeEEPROM(); // Lectura de variables almacenadas en la EEPROM  
06630:  GOTO   2168
....................    LimitaValores(); 
06634:  GOTO   298A
....................     
....................    while(true){  
....................    restart_wdt(); 
06638:  CLRWDT
....................    glcd_update(); 
0663A:  CALL   15DC
.................... //**Actualizacin de Lectura de Sensores**//    
....................    if(Lectura==1){ 
0663E:  MOVLB  4
06640:  BTFSS  x2E.2
06642:  BRA    6688
....................       Lectura=0; 
06644:  BCF    x2E.2
....................       InFlow=LeerFlujoInFlow(8); 
06646:  MOVLW  08
06648:  MOVLB  6
0664A:  MOVWF  x32
0664C:  MOVLB  0
0664E:  GOTO   44BA
06652:  MOVFF  03,50B
06656:  MOVFF  02,50A
0665A:  MOVFF  01,509
0665E:  MOVFF  00,508
....................       Temperatura=leeTemperatura(5); 
06662:  MOVLW  05
06664:  MOVLB  6
06666:  MOVWF  x32
06668:  MOVLB  0
0666A:  GOTO   4888
0666E:  MOVFF  03,666
06672:  MOVFF  02,665
06676:  MOVFF  01,664
0667A:  MOVFF  00,663
0667E:  CALL   1DA8
06682:  MOVFF  01,591
06686:  MOVLB  4
....................    } 
.................... //----------------------------------------// 
....................  
.................... //**Contador de Tiempo de Trabajo del filtro**// 
....................    if(minutos_trabajo>=3600){ // Tiempo de Trabajo 
06688:  MOVF   xD3,W
0668A:  SUBLW  0D
0668C:  BTFSC  FD8.0
0668E:  BRA    6836
06690:  XORLW  FF
06692:  BNZ   669C
06694:  MOVF   xD2,W
06696:  SUBLW  0F
06698:  BTFSC  FD8.0
0669A:  BRA    6836
....................       minutos_trabajo=0; //Minutos Trabajo realmente son segundos. 
0669C:  CLRF   xD3
0669E:  CLRF   xD2
....................       write_eeprom(33,make8(minutos_trabajo,0)); 
066A0:  MOVFF  4D2,632
066A4:  CLRF   FAA
066A6:  MOVLW  21
066A8:  MOVWF  FA9
066AA:  MOVFF  632,FA8
066AE:  BCF    FA6.6
066B0:  BCF    FA6.7
066B2:  BSF    FA6.2
066B4:  MOVF   FF2,W
066B6:  MOVWF  00
066B8:  BCF    FF2.7
066BA:  MOVLB  F
066BC:  MOVLW  55
066BE:  MOVWF  FA7
066C0:  MOVLW  AA
066C2:  MOVWF  FA7
066C4:  BSF    FA6.1
066C6:  BTFSC  FA6.1
066C8:  BRA    66C6
066CA:  BCF    FA6.2
066CC:  MOVF   00,W
066CE:  IORWF  FF2,F
....................       delay_ms(20); 
066D0:  MOVLW  14
066D2:  MOVLB  6
066D4:  MOVWF  x46
066D6:  MOVLB  0
066D8:  CALL   1524
....................       write_eeprom(34,make8(minutos_trabajo,1)); 
066DC:  MOVFF  4D3,632
066E0:  CLRF   FAA
066E2:  MOVLW  22
066E4:  MOVWF  FA9
066E6:  MOVFF  632,FA8
066EA:  BCF    FA6.6
066EC:  BCF    FA6.7
066EE:  BSF    FA6.2
066F0:  MOVF   FF2,W
066F2:  MOVWF  00
066F4:  BCF    FF2.7
066F6:  MOVLB  F
066F8:  MOVLW  55
066FA:  MOVWF  FA7
066FC:  MOVLW  AA
066FE:  MOVWF  FA7
06700:  BSF    FA6.1
06702:  BTFSC  FA6.1
06704:  BRA    6702
06706:  BCF    FA6.2
06708:  MOVF   00,W
0670A:  IORWF  FF2,F
....................       delay_ms(20); 
0670C:  MOVLW  14
0670E:  MOVLB  6
06710:  MOVWF  x46
06712:  MOVLB  0
06714:  CALL   1524
....................       Ttrabajo[0]++; 
06718:  MOVLB  4
0671A:  INCF   xFC,F
....................       if(Ttrabajo[0]>9){ 
0671C:  BTFSC  xFC.7
0671E:  BRA    672A
06720:  MOVF   xFC,W
06722:  SUBLW  09
06724:  BC    672A
....................          Ttrabajo[0]=0; 
06726:  CLRF   xFC
....................          Ttrabajo[1]++; 
06728:  INCF   xFD,F
....................       } 
....................       if(Ttrabajo[1]>9){ 
0672A:  BTFSC  xFD.7
0672C:  BRA    6738
0672E:  MOVF   xFD,W
06730:  SUBLW  09
06732:  BC    6738
....................          Ttrabajo[1]=0; 
06734:  CLRF   xFD
....................          Ttrabajo[2]++; 
06736:  INCF   xFE,F
....................       } 
....................       if(Ttrabajo[2]>9){ 
06738:  BTFSC  xFE.7
0673A:  BRA    6746
0673C:  MOVF   xFE,W
0673E:  SUBLW  09
06740:  BC    6746
....................          Ttrabajo[2]=0; 
06742:  CLRF   xFE
....................          Ttrabajo[3]++; 
06744:  INCF   xFF,F
....................       } 
....................       if(Ttrabajo[3]>9){ 
06746:  BTFSC  xFF.7
06748:  BRA    6752
0674A:  MOVF   xFF,W
0674C:  SUBLW  09
0674E:  BC    6752
....................          Ttrabajo[3]=0; 
06750:  CLRF   xFF
....................       } 
....................       write_eeprom(16,Ttrabajo[0]); 
06752:  CLRF   FAA
06754:  MOVLW  10
06756:  MOVWF  FA9
06758:  MOVFF  4FC,FA8
0675C:  BCF    FA6.6
0675E:  BCF    FA6.7
06760:  BSF    FA6.2
06762:  MOVF   FF2,W
06764:  MOVWF  00
06766:  BCF    FF2.7
06768:  MOVLB  F
0676A:  MOVLW  55
0676C:  MOVWF  FA7
0676E:  MOVLW  AA
06770:  MOVWF  FA7
06772:  BSF    FA6.1
06774:  BTFSC  FA6.1
06776:  BRA    6774
06778:  BCF    FA6.2
0677A:  MOVF   00,W
0677C:  IORWF  FF2,F
....................       delay_ms(20); 
0677E:  MOVLW  14
06780:  MOVLB  6
06782:  MOVWF  x46
06784:  MOVLB  0
06786:  CALL   1524
....................       write_eeprom(17,Ttrabajo[1]); 
0678A:  CLRF   FAA
0678C:  MOVLW  11
0678E:  MOVWF  FA9
06790:  MOVFF  4FD,FA8
06794:  BCF    FA6.6
06796:  BCF    FA6.7
06798:  BSF    FA6.2
0679A:  MOVF   FF2,W
0679C:  MOVWF  00
0679E:  BCF    FF2.7
067A0:  MOVLB  F
067A2:  MOVLW  55
067A4:  MOVWF  FA7
067A6:  MOVLW  AA
067A8:  MOVWF  FA7
067AA:  BSF    FA6.1
067AC:  BTFSC  FA6.1
067AE:  BRA    67AC
067B0:  BCF    FA6.2
067B2:  MOVF   00,W
067B4:  IORWF  FF2,F
....................       delay_ms(20); 
067B6:  MOVLW  14
067B8:  MOVLB  6
067BA:  MOVWF  x46
067BC:  MOVLB  0
067BE:  CALL   1524
....................       write_eeprom(18,Ttrabajo[2]); 
067C2:  CLRF   FAA
067C4:  MOVLW  12
067C6:  MOVWF  FA9
067C8:  MOVFF  4FE,FA8
067CC:  BCF    FA6.6
067CE:  BCF    FA6.7
067D0:  BSF    FA6.2
067D2:  MOVF   FF2,W
067D4:  MOVWF  00
067D6:  BCF    FF2.7
067D8:  MOVLB  F
067DA:  MOVLW  55
067DC:  MOVWF  FA7
067DE:  MOVLW  AA
067E0:  MOVWF  FA7
067E2:  BSF    FA6.1
067E4:  BTFSC  FA6.1
067E6:  BRA    67E4
067E8:  BCF    FA6.2
067EA:  MOVF   00,W
067EC:  IORWF  FF2,F
....................       delay_ms(20); 
067EE:  MOVLW  14
067F0:  MOVLB  6
067F2:  MOVWF  x46
067F4:  MOVLB  0
067F6:  CALL   1524
....................       write_eeprom(19,Ttrabajo[3]); 
067FA:  CLRF   FAA
067FC:  MOVLW  13
067FE:  MOVWF  FA9
06800:  MOVFF  4FF,FA8
06804:  BCF    FA6.6
06806:  BCF    FA6.7
06808:  BSF    FA6.2
0680A:  MOVF   FF2,W
0680C:  MOVWF  00
0680E:  BCF    FF2.7
06810:  MOVLB  F
06812:  MOVLW  55
06814:  MOVWF  FA7
06816:  MOVLW  AA
06818:  MOVWF  FA7
0681A:  BSF    FA6.1
0681C:  BTFSC  FA6.1
0681E:  BRA    681C
06820:  BCF    FA6.2
06822:  MOVF   00,W
06824:  IORWF  FF2,F
....................       delay_ms(20); 
06826:  MOVLW  14
06828:  MOVLB  6
0682A:  MOVWF  x46
0682C:  MOVLB  0
0682E:  CALL   1524
....................    }else if(minutos_trabajo==900 || minutos_trabajo==1800 || minutos_trabajo==2700 ){ 
06832:  BRA    68D2
06834:  MOVLB  4
06836:  MOVF   xD2,W
06838:  SUBLW  84
0683A:  BNZ   6842
0683C:  MOVF   xD3,W
0683E:  SUBLW  03
06840:  BZ    685A
06842:  MOVF   xD2,W
06844:  SUBLW  08
06846:  BNZ   684E
06848:  MOVF   xD3,W
0684A:  SUBLW  07
0684C:  BZ    685A
0684E:  MOVF   xD2,W
06850:  SUBLW  8C
06852:  BNZ   68D4
06854:  MOVF   xD3,W
06856:  SUBLW  0A
06858:  BNZ   68D4
....................       write_eeprom(33,make8(minutos_trabajo,0)); 
0685A:  MOVFF  4D2,632
0685E:  CLRF   FAA
06860:  MOVLW  21
06862:  MOVWF  FA9
06864:  MOVFF  632,FA8
06868:  BCF    FA6.6
0686A:  BCF    FA6.7
0686C:  BSF    FA6.2
0686E:  MOVF   FF2,W
06870:  MOVWF  00
06872:  BCF    FF2.7
06874:  MOVLB  F
06876:  MOVLW  55
06878:  MOVWF  FA7
0687A:  MOVLW  AA
0687C:  MOVWF  FA7
0687E:  BSF    FA6.1
06880:  BTFSC  FA6.1
06882:  BRA    6880
06884:  BCF    FA6.2
06886:  MOVF   00,W
06888:  IORWF  FF2,F
....................       delay_ms(20); 
0688A:  MOVLW  14
0688C:  MOVLB  6
0688E:  MOVWF  x46
06890:  MOVLB  0
06892:  CALL   1524
....................       write_eeprom(34,make8(minutos_trabajo,1)); 
06896:  MOVFF  4D3,632
0689A:  CLRF   FAA
0689C:  MOVLW  22
0689E:  MOVWF  FA9
068A0:  MOVFF  632,FA8
068A4:  BCF    FA6.6
068A6:  BCF    FA6.7
068A8:  BSF    FA6.2
068AA:  MOVF   FF2,W
068AC:  MOVWF  00
068AE:  BCF    FF2.7
068B0:  MOVLB  F
068B2:  MOVLW  55
068B4:  MOVWF  FA7
068B6:  MOVLW  AA
068B8:  MOVWF  FA7
068BA:  BSF    FA6.1
068BC:  BTFSC  FA6.1
068BE:  BRA    68BC
068C0:  BCF    FA6.2
068C2:  MOVF   00,W
068C4:  IORWF  FF2,F
....................       delay_ms(20); 
068C6:  MOVLW  14
068C8:  MOVLB  6
068CA:  MOVWF  x46
068CC:  MOVLB  0
068CE:  CALL   1524
068D2:  MOVLB  4
....................    } 
.................... //----------------------------------------//       
....................     
....................    if(Menu!=2){// Si no esta en el menu de estados apaga la alarma 
068D4:  MOVF   xB2,W
068D6:  SUBLW  02
068D8:  BZ    68E2
....................       Alarma_off; 
068DA:  BCF    F8B.5
068DC:  BCF    F94.5
....................       Alarma=10; 
068DE:  MOVLW  0A
068E0:  MOVWF  xBD
....................    } 
....................     
.................... //_-------------------------------------------------------------------------------------------------------------------------------------------------------- 
....................    if(Menu==0){ //Menu de Contrasea. 
068E2:  MOVF   xB2,F
068E4:  BNZ   691C
....................       while(PidePassword(0,0,1,Password[0],Password[1],Password[2],Password[3])==0){ 
068E6:  MOVLB  6
068E8:  CLRF   x33
068EA:  CLRF   x34
068EC:  MOVLW  01
068EE:  MOVWF  x35
068F0:  MOVFF  504,636
068F4:  MOVFF  505,637
068F8:  MOVFF  506,638
068FC:  MOVFF  507,639
06900:  MOVLB  0
06902:  CALL   518C
06906:  MOVF   01,F
06908:  BNZ   691E
....................          VelocidadMotor(0); 
0690A:  MOVLB  6
0690C:  CLRF   x32
0690E:  MOVLB  0
06910:  CALL   1DE4
....................          glcd_update(); 
06914:  CALL   15DC
....................       }        
06918:  MOVLB  4
0691A:  BRA    68E6
0691C:  MOVLB  0
....................    } 
.................... //_--------------------------------------------------------------------------------------------------------------------------------------------------------        
....................  
.................... //_-------------------------------------------------------------------------------------------------------------------------------------------------------- 
....................       if(Menu==1){//Menu de Purga. 
0691E:  MOVLB  4
06920:  DECFSZ xB2,W
06922:  BRA    6A8C
....................          Purga=ON; 
06924:  BSF    x2E.4
....................          glcd_text57(15, 1, Tiempo, 1, ON); 
06926:  MOVLW  0F
06928:  MOVLB  6
0692A:  MOVWF  x4B
0692C:  MOVLW  01
0692E:  MOVWF  x4C
06930:  MOVLW  04
06932:  MOVWF  x4E
06934:  MOVLW  5A
06936:  MOVWF  x4D
06938:  MOVLW  01
0693A:  MOVWF  x4F
0693C:  MOVWF  x50
0693E:  MOVLB  0
06940:  CALL   4E50
....................          tiempo_purga=1;LuzBlanca_off;//Alarma_off; 
06944:  MOVLB  4
06946:  BSF    x2D.4
06948:  BSF    F8B.2
0694A:  BCF    F94.2
....................          glcd_rect(9, 54, 120, 64, YES, OFF);          
0694C:  MOVLW  09
0694E:  MOVLB  6
06950:  MOVWF  x4B
06952:  MOVLW  36
06954:  MOVWF  x4C
06956:  MOVLW  78
06958:  MOVWF  x4D
0695A:  MOVLW  40
0695C:  MOVWF  x4E
0695E:  MOVLW  01
06960:  MOVWF  x4F
06962:  CLRF   x50
06964:  MOVLB  0
06966:  CALL   4D8E
....................          displayTiempo(Tpurga[3],20,20,0,2);displayTiempo(Tpurga[2],40,20,0,2);glcd_text57(60, 22, Dos_puntos, 2, ON); 
0696A:  MOVFF  4E7,632
0696E:  MOVLW  14
06970:  MOVLB  6
06972:  MOVWF  x33
06974:  MOVWF  x34
06976:  CLRF   x35
06978:  MOVLW  02
0697A:  MOVWF  x36
0697C:  MOVLB  0
0697E:  CALL   5890
06982:  MOVFF  4E6,632
06986:  MOVLW  28
06988:  MOVLB  6
0698A:  MOVWF  x33
0698C:  MOVLW  14
0698E:  MOVWF  x34
06990:  CLRF   x35
06992:  MOVLW  02
06994:  MOVWF  x36
06996:  MOVLB  0
06998:  CALL   5890
0699C:  MOVLW  3C
0699E:  MOVLB  6
069A0:  MOVWF  x4B
069A2:  MOVLW  16
069A4:  MOVWF  x4C
069A6:  MOVLW  04
069A8:  MOVWF  x4E
069AA:  MOVLW  4D
069AC:  MOVWF  x4D
069AE:  MOVLW  02
069B0:  MOVWF  x4F
069B2:  MOVLW  01
069B4:  MOVWF  x50
069B6:  MOVLB  0
069B8:  CALL   4E50
....................          displayTiempo(Tpurga[1],70,20,0,2);displayTiempo(Tpurga[0],90,20,0,2);         
069BC:  MOVFF  4E5,632
069C0:  MOVLW  46
069C2:  MOVLB  6
069C4:  MOVWF  x33
069C6:  MOVLW  14
069C8:  MOVWF  x34
069CA:  CLRF   x35
069CC:  MOVLW  02
069CE:  MOVWF  x36
069D0:  MOVLB  0
069D2:  CALL   5890
069D6:  MOVFF  4E4,632
069DA:  MOVLW  5A
069DC:  MOVLB  6
069DE:  MOVWF  x33
069E0:  MOVLW  14
069E2:  MOVWF  x34
069E4:  CLRF   x35
069E6:  MOVLW  02
069E8:  MOVWF  x36
069EA:  MOVLB  0
069EC:  CALL   5890
....................           
....................          VelocidadMotor(VelMotor); 
069F0:  MOVFF  592,632
069F4:  CALL   1DE4
....................           
....................          if(RIGHT){ 
069F8:  BSF    F96.1
069FA:  BTFSC  F84.1
069FC:  BRA    6A32
....................             delay_ms(500); 
069FE:  MOVLW  02
06A00:  MOVLB  6
06A02:  MOVWF  x32
06A04:  MOVLW  FA
06A06:  MOVWF  x46
06A08:  MOVLB  0
06A0A:  CALL   1524
06A0E:  MOVLB  6
06A10:  DECFSZ x32,F
06A12:  BRA    6A04
....................             if(RIGHT){ 
06A14:  BSF    F96.1
06A16:  BTFSC  F84.1
06A18:  BRA    6A32
....................                tiempo_purga=0;Menu=2;glcd_fillScreen(OFF);Flanco3=1; 
06A1A:  MOVLB  4
06A1C:  BCF    x2D.4
06A1E:  MOVLW  02
06A20:  MOVWF  xB2
06A22:  MOVLB  6
06A24:  CLRF   x3A
06A26:  MOVLB  0
06A28:  CALL   1582
06A2C:  MOVLB  4
06A2E:  BSF    x2C.3
06A30:  MOVLB  6
....................             } 
....................          } 
....................         
....................          if((Tpurga[0]>=Tpurgap[0])&&(Tpurga[1]>=Tpurgap[1])&&(Tpurga[2]>=Tpurgap[2])&&(Tpurga[3]>=Tpurgap[3])){ 
06A32:  MOVLB  4
06A34:  MOVF   xE8,W
06A36:  XORLW  80
06A38:  MOVWF  00
06A3A:  MOVF   xE4,W
06A3C:  XORLW  80
06A3E:  SUBWF  00,W
06A40:  BZ    6A44
06A42:  BC    6A8C
06A44:  MOVF   xE9,W
06A46:  XORLW  80
06A48:  MOVWF  00
06A4A:  MOVF   xE5,W
06A4C:  XORLW  80
06A4E:  SUBWF  00,W
06A50:  BZ    6A54
06A52:  BC    6A8C
06A54:  MOVF   xEA,W
06A56:  XORLW  80
06A58:  MOVWF  00
06A5A:  MOVF   xE6,W
06A5C:  XORLW  80
06A5E:  SUBWF  00,W
06A60:  BZ    6A64
06A62:  BC    6A8C
06A64:  MOVF   xEB,W
06A66:  XORLW  80
06A68:  MOVWF  00
06A6A:  MOVF   xE7,W
06A6C:  XORLW  80
06A6E:  SUBWF  00,W
06A70:  BZ    6A74
06A72:  BC    6A8C
....................             tiempo_purga=0;Menu=2;glcd_fillScreen(OFF);flag_luz=!flag_luz;flag_blower=1;flag_toma=1; 
06A74:  BCF    x2D.4
06A76:  MOVLW  02
06A78:  MOVWF  xB2
06A7A:  MOVLB  6
06A7C:  CLRF   x3A
06A7E:  MOVLB  0
06A80:  CALL   1582
06A84:  MOVLB  4
06A86:  BTG    x2D.1
06A88:  BSF    x2C.7
06A8A:  BSF    x2D.0
....................          }       
....................       } 
.................... //_--------------------------------------------------------------------------------------------------------------------------------------------------------        
....................  
.................... //_-------------------------------------------------------------------------------------------------------------------------------------------------------- 
....................       if(Menu==2){ //Menu General. 
06A8C:  MOVF   xB2,W
06A8E:  SUBLW  02
06A90:  BTFSS  FD8.2
06A92:  GOTO   752A
....................          Purga=OFF; 
06A96:  BCF    x2E.4
....................          w=0; 
06A98:  BCF    x2D.2
....................          glcd_imagen(4); 
06A9A:  MOVLW  04
06A9C:  MOVLB  6
06A9E:  MOVWF  x32
06AA0:  MOVLB  0
06AA2:  CALL   598C
....................           
....................          if(VelMotor<32 && VelMotor>0){ 
06AA6:  MOVLB  5
06AA8:  MOVF   x92,W
06AAA:  SUBLW  1F
06AAC:  BNC   6B68
06AAE:  MOVF   x92,F
06AB0:  BZ    6B68
....................             glcd_rect(0, 29, 13, 39, YES, ON); 
06AB2:  MOVLB  6
06AB4:  CLRF   x4B
06AB6:  MOVLW  1D
06AB8:  MOVWF  x4C
06ABA:  MOVLW  0D
06ABC:  MOVWF  x4D
06ABE:  MOVLW  27
06AC0:  MOVWF  x4E
06AC2:  MOVLW  01
06AC4:  MOVWF  x4F
06AC6:  MOVWF  x50
06AC8:  MOVLB  0
06ACA:  CALL   4D8E
....................             glcd_rect(15, 26, 28, 39, NO, ON); 
06ACE:  MOVLW  0F
06AD0:  MOVLB  6
06AD2:  MOVWF  x4B
06AD4:  MOVLW  1A
06AD6:  MOVWF  x4C
06AD8:  MOVLW  1C
06ADA:  MOVWF  x4D
06ADC:  MOVLW  27
06ADE:  MOVWF  x4E
06AE0:  CLRF   x4F
06AE2:  MOVLW  01
06AE4:  MOVWF  x50
06AE6:  MOVLB  0
06AE8:  CALL   4D8E
....................             glcd_rect(30, 23, 43, 39, NO, ON); 
06AEC:  MOVLW  1E
06AEE:  MOVLB  6
06AF0:  MOVWF  x4B
06AF2:  MOVLW  17
06AF4:  MOVWF  x4C
06AF6:  MOVLW  2B
06AF8:  MOVWF  x4D
06AFA:  MOVLW  27
06AFC:  MOVWF  x4E
06AFE:  CLRF   x4F
06B00:  MOVLW  01
06B02:  MOVWF  x50
06B04:  MOVLB  0
06B06:  CALL   4D8E
....................             glcd_rect(45, 20, 58, 39, NO, ON); 
06B0A:  MOVLW  2D
06B0C:  MOVLB  6
06B0E:  MOVWF  x4B
06B10:  MOVLW  14
06B12:  MOVWF  x4C
06B14:  MOVLW  3A
06B16:  MOVWF  x4D
06B18:  MOVLW  27
06B1A:  MOVWF  x4E
06B1C:  CLRF   x4F
06B1E:  MOVLW  01
06B20:  MOVWF  x50
06B22:  MOVLB  0
06B24:  CALL   4D8E
....................             glcd_rect(60, 17, 73, 39, NO, ON); 
06B28:  MOVLW  3C
06B2A:  MOVLB  6
06B2C:  MOVWF  x4B
06B2E:  MOVLW  11
06B30:  MOVWF  x4C
06B32:  MOVLW  49
06B34:  MOVWF  x4D
06B36:  MOVLW  27
06B38:  MOVWF  x4E
06B3A:  CLRF   x4F
06B3C:  MOVLW  01
06B3E:  MOVWF  x50
06B40:  MOVLB  0
06B42:  CALL   4D8E
....................             glcd_rect(75, 14, 88, 39, NO, ON); 
06B46:  MOVLW  4B
06B48:  MOVLB  6
06B4A:  MOVWF  x4B
06B4C:  MOVLW  0E
06B4E:  MOVWF  x4C
06B50:  MOVLW  58
06B52:  MOVWF  x4D
06B54:  MOVLW  27
06B56:  MOVWF  x4E
06B58:  CLRF   x4F
06B5A:  MOVLW  01
06B5C:  MOVWF  x50
06B5E:  MOVLB  0
06B60:  CALL   4D8E
....................          }else if(VelMotor<48 && VelMotor>=32){ 
06B64:  BRA    6F28
06B66:  MOVLB  5
06B68:  MOVF   x92,W
06B6A:  SUBLW  2F
06B6C:  BNC   6C2A
06B6E:  MOVF   x92,W
06B70:  SUBLW  1F
06B72:  BC    6C2A
....................             glcd_rect(0, 29, 13, 39, YES, ON); 
06B74:  MOVLB  6
06B76:  CLRF   x4B
06B78:  MOVLW  1D
06B7A:  MOVWF  x4C
06B7C:  MOVLW  0D
06B7E:  MOVWF  x4D
06B80:  MOVLW  27
06B82:  MOVWF  x4E
06B84:  MOVLW  01
06B86:  MOVWF  x4F
06B88:  MOVWF  x50
06B8A:  MOVLB  0
06B8C:  CALL   4D8E
....................             glcd_rect(15, 26, 28, 39, YES, ON); 
06B90:  MOVLW  0F
06B92:  MOVLB  6
06B94:  MOVWF  x4B
06B96:  MOVLW  1A
06B98:  MOVWF  x4C
06B9A:  MOVLW  1C
06B9C:  MOVWF  x4D
06B9E:  MOVLW  27
06BA0:  MOVWF  x4E
06BA2:  MOVLW  01
06BA4:  MOVWF  x4F
06BA6:  MOVWF  x50
06BA8:  MOVLB  0
06BAA:  CALL   4D8E
....................             glcd_rect(30, 23, 43, 39, NO, ON); 
06BAE:  MOVLW  1E
06BB0:  MOVLB  6
06BB2:  MOVWF  x4B
06BB4:  MOVLW  17
06BB6:  MOVWF  x4C
06BB8:  MOVLW  2B
06BBA:  MOVWF  x4D
06BBC:  MOVLW  27
06BBE:  MOVWF  x4E
06BC0:  CLRF   x4F
06BC2:  MOVLW  01
06BC4:  MOVWF  x50
06BC6:  MOVLB  0
06BC8:  CALL   4D8E
....................             glcd_rect(45, 20, 58, 39, NO, ON); 
06BCC:  MOVLW  2D
06BCE:  MOVLB  6
06BD0:  MOVWF  x4B
06BD2:  MOVLW  14
06BD4:  MOVWF  x4C
06BD6:  MOVLW  3A
06BD8:  MOVWF  x4D
06BDA:  MOVLW  27
06BDC:  MOVWF  x4E
06BDE:  CLRF   x4F
06BE0:  MOVLW  01
06BE2:  MOVWF  x50
06BE4:  MOVLB  0
06BE6:  CALL   4D8E
....................             glcd_rect(60, 17, 73, 39, NO, ON); 
06BEA:  MOVLW  3C
06BEC:  MOVLB  6
06BEE:  MOVWF  x4B
06BF0:  MOVLW  11
06BF2:  MOVWF  x4C
06BF4:  MOVLW  49
06BF6:  MOVWF  x4D
06BF8:  MOVLW  27
06BFA:  MOVWF  x4E
06BFC:  CLRF   x4F
06BFE:  MOVLW  01
06C00:  MOVWF  x50
06C02:  MOVLB  0
06C04:  CALL   4D8E
....................             glcd_rect(75, 14, 88, 39, NO, ON); 
06C08:  MOVLW  4B
06C0A:  MOVLB  6
06C0C:  MOVWF  x4B
06C0E:  MOVLW  0E
06C10:  MOVWF  x4C
06C12:  MOVLW  58
06C14:  MOVWF  x4D
06C16:  MOVLW  27
06C18:  MOVWF  x4E
06C1A:  CLRF   x4F
06C1C:  MOVLW  01
06C1E:  MOVWF  x50
06C20:  MOVLB  0
06C22:  CALL   4D8E
....................          }else if(VelMotor<64 && VelMotor>=48){ 
06C26:  BRA    6F28
06C28:  MOVLB  5
06C2A:  MOVF   x92,W
06C2C:  SUBLW  3F
06C2E:  BNC   6CEC
06C30:  MOVF   x92,W
06C32:  SUBLW  2F
06C34:  BC    6CEC
....................             glcd_rect(0, 29, 13, 39, YES, ON); 
06C36:  MOVLB  6
06C38:  CLRF   x4B
06C3A:  MOVLW  1D
06C3C:  MOVWF  x4C
06C3E:  MOVLW  0D
06C40:  MOVWF  x4D
06C42:  MOVLW  27
06C44:  MOVWF  x4E
06C46:  MOVLW  01
06C48:  MOVWF  x4F
06C4A:  MOVWF  x50
06C4C:  MOVLB  0
06C4E:  CALL   4D8E
....................             glcd_rect(15, 26, 28, 39, YES, ON); 
06C52:  MOVLW  0F
06C54:  MOVLB  6
06C56:  MOVWF  x4B
06C58:  MOVLW  1A
06C5A:  MOVWF  x4C
06C5C:  MOVLW  1C
06C5E:  MOVWF  x4D
06C60:  MOVLW  27
06C62:  MOVWF  x4E
06C64:  MOVLW  01
06C66:  MOVWF  x4F
06C68:  MOVWF  x50
06C6A:  MOVLB  0
06C6C:  CALL   4D8E
....................             glcd_rect(30, 23, 43, 39, YES, ON); 
06C70:  MOVLW  1E
06C72:  MOVLB  6
06C74:  MOVWF  x4B
06C76:  MOVLW  17
06C78:  MOVWF  x4C
06C7A:  MOVLW  2B
06C7C:  MOVWF  x4D
06C7E:  MOVLW  27
06C80:  MOVWF  x4E
06C82:  MOVLW  01
06C84:  MOVWF  x4F
06C86:  MOVWF  x50
06C88:  MOVLB  0
06C8A:  CALL   4D8E
....................             glcd_rect(45, 20, 58, 39, NO, ON); 
06C8E:  MOVLW  2D
06C90:  MOVLB  6
06C92:  MOVWF  x4B
06C94:  MOVLW  14
06C96:  MOVWF  x4C
06C98:  MOVLW  3A
06C9A:  MOVWF  x4D
06C9C:  MOVLW  27
06C9E:  MOVWF  x4E
06CA0:  CLRF   x4F
06CA2:  MOVLW  01
06CA4:  MOVWF  x50
06CA6:  MOVLB  0
06CA8:  CALL   4D8E
....................             glcd_rect(60, 17, 73, 39, NO, ON); 
06CAC:  MOVLW  3C
06CAE:  MOVLB  6
06CB0:  MOVWF  x4B
06CB2:  MOVLW  11
06CB4:  MOVWF  x4C
06CB6:  MOVLW  49
06CB8:  MOVWF  x4D
06CBA:  MOVLW  27
06CBC:  MOVWF  x4E
06CBE:  CLRF   x4F
06CC0:  MOVLW  01
06CC2:  MOVWF  x50
06CC4:  MOVLB  0
06CC6:  CALL   4D8E
....................             glcd_rect(75, 14, 88, 39, NO, ON); 
06CCA:  MOVLW  4B
06CCC:  MOVLB  6
06CCE:  MOVWF  x4B
06CD0:  MOVLW  0E
06CD2:  MOVWF  x4C
06CD4:  MOVLW  58
06CD6:  MOVWF  x4D
06CD8:  MOVLW  27
06CDA:  MOVWF  x4E
06CDC:  CLRF   x4F
06CDE:  MOVLW  01
06CE0:  MOVWF  x50
06CE2:  MOVLB  0
06CE4:  CALL   4D8E
....................          }else if(VelMotor<80 && VelMotor>=64){ 
06CE8:  BRA    6F28
06CEA:  MOVLB  5
06CEC:  MOVF   x92,W
06CEE:  SUBLW  4F
06CF0:  BNC   6DAE
06CF2:  MOVF   x92,W
06CF4:  SUBLW  3F
06CF6:  BC    6DAE
....................             glcd_rect(0, 29, 13, 39, YES, ON); 
06CF8:  MOVLB  6
06CFA:  CLRF   x4B
06CFC:  MOVLW  1D
06CFE:  MOVWF  x4C
06D00:  MOVLW  0D
06D02:  MOVWF  x4D
06D04:  MOVLW  27
06D06:  MOVWF  x4E
06D08:  MOVLW  01
06D0A:  MOVWF  x4F
06D0C:  MOVWF  x50
06D0E:  MOVLB  0
06D10:  CALL   4D8E
....................             glcd_rect(15, 26, 28, 39, YES, ON); 
06D14:  MOVLW  0F
06D16:  MOVLB  6
06D18:  MOVWF  x4B
06D1A:  MOVLW  1A
06D1C:  MOVWF  x4C
06D1E:  MOVLW  1C
06D20:  MOVWF  x4D
06D22:  MOVLW  27
06D24:  MOVWF  x4E
06D26:  MOVLW  01
06D28:  MOVWF  x4F
06D2A:  MOVWF  x50
06D2C:  MOVLB  0
06D2E:  CALL   4D8E
....................             glcd_rect(30, 23, 43, 39, YES, ON); 
06D32:  MOVLW  1E
06D34:  MOVLB  6
06D36:  MOVWF  x4B
06D38:  MOVLW  17
06D3A:  MOVWF  x4C
06D3C:  MOVLW  2B
06D3E:  MOVWF  x4D
06D40:  MOVLW  27
06D42:  MOVWF  x4E
06D44:  MOVLW  01
06D46:  MOVWF  x4F
06D48:  MOVWF  x50
06D4A:  MOVLB  0
06D4C:  CALL   4D8E
....................             glcd_rect(45, 20, 58, 39, YES, ON); 
06D50:  MOVLW  2D
06D52:  MOVLB  6
06D54:  MOVWF  x4B
06D56:  MOVLW  14
06D58:  MOVWF  x4C
06D5A:  MOVLW  3A
06D5C:  MOVWF  x4D
06D5E:  MOVLW  27
06D60:  MOVWF  x4E
06D62:  MOVLW  01
06D64:  MOVWF  x4F
06D66:  MOVWF  x50
06D68:  MOVLB  0
06D6A:  CALL   4D8E
....................             glcd_rect(60, 17, 73, 39, NO, ON); 
06D6E:  MOVLW  3C
06D70:  MOVLB  6
06D72:  MOVWF  x4B
06D74:  MOVLW  11
06D76:  MOVWF  x4C
06D78:  MOVLW  49
06D7A:  MOVWF  x4D
06D7C:  MOVLW  27
06D7E:  MOVWF  x4E
06D80:  CLRF   x4F
06D82:  MOVLW  01
06D84:  MOVWF  x50
06D86:  MOVLB  0
06D88:  CALL   4D8E
....................             glcd_rect(75, 14, 88, 39, NO, ON); 
06D8C:  MOVLW  4B
06D8E:  MOVLB  6
06D90:  MOVWF  x4B
06D92:  MOVLW  0E
06D94:  MOVWF  x4C
06D96:  MOVLW  58
06D98:  MOVWF  x4D
06D9A:  MOVLW  27
06D9C:  MOVWF  x4E
06D9E:  CLRF   x4F
06DA0:  MOVLW  01
06DA2:  MOVWF  x50
06DA4:  MOVLB  0
06DA6:  CALL   4D8E
....................          }else if(VelMotor<96 && VelMotor>=80){ 
06DAA:  BRA    6F28
06DAC:  MOVLB  5
06DAE:  MOVF   x92,W
06DB0:  SUBLW  5F
06DB2:  BNC   6E70
06DB4:  MOVF   x92,W
06DB6:  SUBLW  4F
06DB8:  BC    6E70
....................             glcd_rect(0, 29, 13, 39, YES, ON); 
06DBA:  MOVLB  6
06DBC:  CLRF   x4B
06DBE:  MOVLW  1D
06DC0:  MOVWF  x4C
06DC2:  MOVLW  0D
06DC4:  MOVWF  x4D
06DC6:  MOVLW  27
06DC8:  MOVWF  x4E
06DCA:  MOVLW  01
06DCC:  MOVWF  x4F
06DCE:  MOVWF  x50
06DD0:  MOVLB  0
06DD2:  CALL   4D8E
....................             glcd_rect(15, 26, 28, 39, YES, ON); 
06DD6:  MOVLW  0F
06DD8:  MOVLB  6
06DDA:  MOVWF  x4B
06DDC:  MOVLW  1A
06DDE:  MOVWF  x4C
06DE0:  MOVLW  1C
06DE2:  MOVWF  x4D
06DE4:  MOVLW  27
06DE6:  MOVWF  x4E
06DE8:  MOVLW  01
06DEA:  MOVWF  x4F
06DEC:  MOVWF  x50
06DEE:  MOVLB  0
06DF0:  CALL   4D8E
....................             glcd_rect(30, 23, 43, 39, YES, ON); 
06DF4:  MOVLW  1E
06DF6:  MOVLB  6
06DF8:  MOVWF  x4B
06DFA:  MOVLW  17
06DFC:  MOVWF  x4C
06DFE:  MOVLW  2B
06E00:  MOVWF  x4D
06E02:  MOVLW  27
06E04:  MOVWF  x4E
06E06:  MOVLW  01
06E08:  MOVWF  x4F
06E0A:  MOVWF  x50
06E0C:  MOVLB  0
06E0E:  CALL   4D8E
....................             glcd_rect(45, 20, 58, 39, YES, ON); 
06E12:  MOVLW  2D
06E14:  MOVLB  6
06E16:  MOVWF  x4B
06E18:  MOVLW  14
06E1A:  MOVWF  x4C
06E1C:  MOVLW  3A
06E1E:  MOVWF  x4D
06E20:  MOVLW  27
06E22:  MOVWF  x4E
06E24:  MOVLW  01
06E26:  MOVWF  x4F
06E28:  MOVWF  x50
06E2A:  MOVLB  0
06E2C:  CALL   4D8E
....................             glcd_rect(60, 17, 73, 39, YES, ON); 
06E30:  MOVLW  3C
06E32:  MOVLB  6
06E34:  MOVWF  x4B
06E36:  MOVLW  11
06E38:  MOVWF  x4C
06E3A:  MOVLW  49
06E3C:  MOVWF  x4D
06E3E:  MOVLW  27
06E40:  MOVWF  x4E
06E42:  MOVLW  01
06E44:  MOVWF  x4F
06E46:  MOVWF  x50
06E48:  MOVLB  0
06E4A:  CALL   4D8E
....................             glcd_rect(75, 14, 88, 39, NO, ON); 
06E4E:  MOVLW  4B
06E50:  MOVLB  6
06E52:  MOVWF  x4B
06E54:  MOVLW  0E
06E56:  MOVWF  x4C
06E58:  MOVLW  58
06E5A:  MOVWF  x4D
06E5C:  MOVLW  27
06E5E:  MOVWF  x4E
06E60:  CLRF   x4F
06E62:  MOVLW  01
06E64:  MOVWF  x50
06E66:  MOVLB  0
06E68:  CALL   4D8E
....................          }else if(VelMotor>=96){ 
06E6C:  BRA    6F28
06E6E:  MOVLB  5
06E70:  MOVF   x92,W
06E72:  SUBLW  5F
06E74:  BC    6F28
....................             glcd_rect(0, 29, 13, 39, YES, ON); 
06E76:  MOVLB  6
06E78:  CLRF   x4B
06E7A:  MOVLW  1D
06E7C:  MOVWF  x4C
06E7E:  MOVLW  0D
06E80:  MOVWF  x4D
06E82:  MOVLW  27
06E84:  MOVWF  x4E
06E86:  MOVLW  01
06E88:  MOVWF  x4F
06E8A:  MOVWF  x50
06E8C:  MOVLB  0
06E8E:  CALL   4D8E
....................             glcd_rect(15, 26, 28, 39, YES, ON); 
06E92:  MOVLW  0F
06E94:  MOVLB  6
06E96:  MOVWF  x4B
06E98:  MOVLW  1A
06E9A:  MOVWF  x4C
06E9C:  MOVLW  1C
06E9E:  MOVWF  x4D
06EA0:  MOVLW  27
06EA2:  MOVWF  x4E
06EA4:  MOVLW  01
06EA6:  MOVWF  x4F
06EA8:  MOVWF  x50
06EAA:  MOVLB  0
06EAC:  CALL   4D8E
....................             glcd_rect(30, 23, 43, 39, YES, ON); 
06EB0:  MOVLW  1E
06EB2:  MOVLB  6
06EB4:  MOVWF  x4B
06EB6:  MOVLW  17
06EB8:  MOVWF  x4C
06EBA:  MOVLW  2B
06EBC:  MOVWF  x4D
06EBE:  MOVLW  27
06EC0:  MOVWF  x4E
06EC2:  MOVLW  01
06EC4:  MOVWF  x4F
06EC6:  MOVWF  x50
06EC8:  MOVLB  0
06ECA:  CALL   4D8E
....................             glcd_rect(45, 20, 58, 39, YES, ON); 
06ECE:  MOVLW  2D
06ED0:  MOVLB  6
06ED2:  MOVWF  x4B
06ED4:  MOVLW  14
06ED6:  MOVWF  x4C
06ED8:  MOVLW  3A
06EDA:  MOVWF  x4D
06EDC:  MOVLW  27
06EDE:  MOVWF  x4E
06EE0:  MOVLW  01
06EE2:  MOVWF  x4F
06EE4:  MOVWF  x50
06EE6:  MOVLB  0
06EE8:  CALL   4D8E
....................             glcd_rect(60, 17, 73, 39, YES, ON); 
06EEC:  MOVLW  3C
06EEE:  MOVLB  6
06EF0:  MOVWF  x4B
06EF2:  MOVLW  11
06EF4:  MOVWF  x4C
06EF6:  MOVLW  49
06EF8:  MOVWF  x4D
06EFA:  MOVLW  27
06EFC:  MOVWF  x4E
06EFE:  MOVLW  01
06F00:  MOVWF  x4F
06F02:  MOVWF  x50
06F04:  MOVLB  0
06F06:  CALL   4D8E
....................             glcd_rect(75, 14, 88, 39, YES, ON); 
06F0A:  MOVLW  4B
06F0C:  MOVLB  6
06F0E:  MOVWF  x4B
06F10:  MOVLW  0E
06F12:  MOVWF  x4C
06F14:  MOVLW  58
06F16:  MOVWF  x4D
06F18:  MOVLW  27
06F1A:  MOVWF  x4E
06F1C:  MOVLW  01
06F1E:  MOVWF  x4F
06F20:  MOVWF  x50
06F22:  MOVLB  0
06F24:  CALL   4D8E
....................          } 
....................           
....................          if(imprimir==1){ 
06F28:  MOVLB  4
06F2A:  BTFSS  x2C.6
06F2C:  BRA    7118
....................             glcd_text57(2, 12, Inflowt, 1, ON); 
06F2E:  MOVLW  02
06F30:  MOVLB  6
06F32:  MOVWF  x4B
06F34:  MOVLW  0C
06F36:  MOVWF  x4C
06F38:  MOVLW  04
06F3A:  MOVWF  x4E
06F3C:  MOVLW  6A
06F3E:  MOVWF  x4D
06F40:  MOVLW  01
06F42:  MOVWF  x4F
06F44:  MOVWF  x50
06F46:  MOVLB  0
06F48:  CALL   4E50
....................             displayTiempo2(VelMotor,25,11,0,1);   
06F4C:  MOVFF  592,632
06F50:  MOVLW  19
06F52:  MOVLB  6
06F54:  MOVWF  x33
06F56:  MOVLW  0B
06F58:  MOVWF  x34
06F5A:  CLRF   x35
06F5C:  MOVLW  01
06F5E:  MOVWF  x36
06F60:  MOVLB  0
06F62:  CALL   5C10
....................             glcd_rect(0, 10, 95, 63, NO, ON); 
06F66:  MOVLB  6
06F68:  CLRF   x4B
06F6A:  MOVLW  0A
06F6C:  MOVWF  x4C
06F6E:  MOVLW  5F
06F70:  MOVWF  x4D
06F72:  MOVLW  3F
06F74:  MOVWF  x4E
06F76:  CLRF   x4F
06F78:  MOVLW  01
06F7A:  MOVWF  x50
06F7C:  MOVLB  0
06F7E:  CALL   4D8E
....................             glcd_rect(100, 10, 127, 63, NO, ON); 
06F82:  MOVLW  64
06F84:  MOVLB  6
06F86:  MOVWF  x4B
06F88:  MOVLW  0A
06F8A:  MOVWF  x4C
06F8C:  MOVLW  7F
06F8E:  MOVWF  x4D
06F90:  MOVLW  3F
06F92:  MOVWF  x4E
06F94:  CLRF   x4F
06F96:  MOVLW  01
06F98:  MOVWF  x50
06F9A:  MOVLB  0
06F9C:  CALL   4D8E
....................             glcd_text57(2, 51, Downflowt, 1, ON); 
06FA0:  MOVLW  02
06FA2:  MOVLB  6
06FA4:  MOVWF  x4B
06FA6:  MOVLW  33
06FA8:  MOVWF  x4C
06FAA:  MOVLW  04
06FAC:  MOVWF  x4E
06FAE:  MOVLW  6F
06FB0:  MOVWF  x4D
06FB2:  MOVLW  01
06FB4:  MOVWF  x4F
06FB6:  MOVWF  x50
06FB8:  MOVLB  0
06FBA:  CALL   4E50
....................             glcd_text57(2, 41, Vida_Filtro, 1, ON); 
06FBE:  MOVLW  02
06FC0:  MOVLB  6
06FC2:  MOVWF  x4B
06FC4:  MOVLW  29
06FC6:  MOVWF  x4C
06FC8:  MOVLW  04
06FCA:  MOVWF  x4E
06FCC:  MOVLW  99
06FCE:  MOVWF  x4D
06FD0:  MOVLW  01
06FD2:  MOVWF  x4F
06FD4:  MOVWF  x50
06FD6:  MOVLB  0
06FD8:  CALL   4E50
....................             displayTiempo(Ttrabajo[3],60,41,0,1);displayTiempo(Ttrabajo[2],67,41,0,1);displayTiempo(Ttrabajo[1],74,41,0,1);displayTiempo(Ttrabajo[0],82,41,0,1); 
06FDC:  MOVFF  4FF,632
06FE0:  MOVLW  3C
06FE2:  MOVLB  6
06FE4:  MOVWF  x33
06FE6:  MOVLW  29
06FE8:  MOVWF  x34
06FEA:  CLRF   x35
06FEC:  MOVLW  01
06FEE:  MOVWF  x36
06FF0:  MOVLB  0
06FF2:  CALL   5890
06FF6:  MOVFF  4FE,632
06FFA:  MOVLW  43
06FFC:  MOVLB  6
06FFE:  MOVWF  x33
07000:  MOVLW  29
07002:  MOVWF  x34
07004:  CLRF   x35
07006:  MOVLW  01
07008:  MOVWF  x36
0700A:  MOVLB  0
0700C:  CALL   5890
07010:  MOVFF  4FD,632
07014:  MOVLW  4A
07016:  MOVLB  6
07018:  MOVWF  x33
0701A:  MOVLW  29
0701C:  MOVWF  x34
0701E:  CLRF   x35
07020:  MOVLW  01
07022:  MOVWF  x36
07024:  MOVLB  0
07026:  CALL   5890
0702A:  MOVFF  4FC,632
0702E:  MOVLW  52
07030:  MOVLB  6
07032:  MOVWF  x33
07034:  MOVLW  29
07036:  MOVWF  x34
07038:  CLRF   x35
0703A:  MOVLW  01
0703C:  MOVWF  x36
0703E:  MOVLB  0
07040:  CALL   5890
....................             if(!Alarmas){ 
07044:  MOVLB  4
07046:  BTFSC  x2D.3
07048:  BRA    7090
....................                strcpy(Menus.Letra,"JPCEGH90PPTOPA-EXPP"); 
0704A:  MOVLW  04
0704C:  MOVWF  FEA
0704E:  MOVLW  16
07050:  MOVWF  FE9
07052:  MOVFF  FF2,632
07056:  BCF    FF2.7
07058:  MOVLW  00
0705A:  MOVLB  0
0705C:  CALL   0F58
07060:  TBLRD*-
07062:  TBLRD*+
07064:  MOVF   FF5,W
07066:  MOVWF  FEE
07068:  IORLW  00
0706A:  BNZ   7062
0706C:  MOVLB  6
0706E:  BTFSC  x32.7
07070:  BSF    FF2.7
....................                displayMenu(Menus.Letra,5,0,1,1); 
07072:  MOVLW  04
07074:  MOVWF  x3B
07076:  MOVLW  16
07078:  MOVWF  x3A
0707A:  MOVLW  05
0707C:  MOVWF  x3C
0707E:  CLRF   x3D
07080:  MOVLW  01
07082:  MOVWF  x3E
07084:  MOVWF  x3F
07086:  MOVLB  0
07088:  CALL   50C0
....................             }else{ 
0708C:  BRA    70D0
0708E:  MOVLB  4
....................                strcpy(Menus.Letra,"!Verifique Variador!"); 
07090:  MOVLW  04
07092:  MOVWF  FEA
07094:  MOVLW  16
07096:  MOVWF  FE9
07098:  MOVFF  FF2,632
0709C:  BCF    FF2.7
0709E:  MOVLW  00
070A0:  MOVLB  0
070A2:  CALL   0F86
070A6:  TBLRD*-
070A8:  TBLRD*+
070AA:  MOVF   FF5,W
070AC:  MOVWF  FEE
070AE:  IORLW  00
070B0:  BNZ   70A8
070B2:  MOVLB  6
070B4:  BTFSC  x32.7
070B6:  BSF    FF2.7
....................                displayMenu(Menus.Letra,0,0,1,1); 
070B8:  MOVLW  04
070BA:  MOVWF  x3B
070BC:  MOVLW  16
070BE:  MOVWF  x3A
070C0:  CLRF   x3C
070C2:  CLRF   x3D
070C4:  MOVLW  01
070C6:  MOVWF  x3E
070C8:  MOVWF  x3F
070CA:  MOVLB  0
070CC:  CALL   50C0
....................             } 
....................             displayfloat(Temperatura,69,50,0,1); 
070D0:  MOVLB  6
070D2:  CLRF   x68
070D4:  MOVFF  591,667
070D8:  MOVLB  0
070DA:  CALL   173C
070DE:  MOVFF  00,632
070E2:  MOVFF  01,633
070E6:  MOVFF  02,634
070EA:  MOVFF  03,635
070EE:  MOVFF  03,639
070F2:  MOVFF  02,638
070F6:  MOVFF  01,637
070FA:  MOVFF  00,636
070FE:  MOVLW  45
07100:  MOVLB  6
07102:  MOVWF  x3A
07104:  MOVLW  32
07106:  MOVWF  x3B
07108:  CLRF   x3C
0710A:  MOVLW  01
0710C:  MOVWF  x3D
0710E:  MOVLB  0
07110:  CALL   5F62
....................             imprimir=0; 
07114:  MOVLB  4
07116:  BCF    x2C.6
....................          } 
....................                    
....................          if(flag_blower==1){ 
07118:  BTFSS  x2C.7
0711A:  BRA    72C0
....................             glcd_imagen(5);tiempo_trabajo=1; 
0711C:  MOVLW  05
0711E:  MOVLB  6
07120:  MOVWF  x32
07122:  MOVLB  0
07124:  CALL   598C
07128:  MOVLB  4
0712A:  BSF    x2D.5
....................             if(guardatrabajo==1){ 
0712C:  BTFSS  x2E.1
0712E:  BRA    72B2
....................                VelocidadMotor(6); 
07130:  MOVLW  06
07132:  MOVLB  6
07134:  MOVWF  x32
07136:  MOVLB  0
07138:  CALL   1DE4
....................                guardatrabajo=0; 
0713C:  MOVLB  4
0713E:  BCF    x2E.1
....................                write_eeprom(33,make8(minutos_trabajo,0)); 
07140:  MOVFF  4D2,632
07144:  CLRF   FAA
07146:  MOVLW  21
07148:  MOVWF  FA9
0714A:  MOVFF  632,FA8
0714E:  BCF    FA6.6
07150:  BCF    FA6.7
07152:  BSF    FA6.2
07154:  MOVF   FF2,W
07156:  MOVWF  00
07158:  BCF    FF2.7
0715A:  MOVLB  F
0715C:  MOVLW  55
0715E:  MOVWF  FA7
07160:  MOVLW  AA
07162:  MOVWF  FA7
07164:  BSF    FA6.1
07166:  BTFSC  FA6.1
07168:  BRA    7166
0716A:  BCF    FA6.2
0716C:  MOVF   00,W
0716E:  IORWF  FF2,F
....................                delay_ms(20); 
07170:  MOVLW  14
07172:  MOVLB  6
07174:  MOVWF  x46
07176:  MOVLB  0
07178:  CALL   1524
....................                write_eeprom(34,make8(minutos_trabajo,1)); 
0717C:  MOVFF  4D3,632
07180:  CLRF   FAA
07182:  MOVLW  22
07184:  MOVWF  FA9
07186:  MOVFF  632,FA8
0718A:  BCF    FA6.6
0718C:  BCF    FA6.7
0718E:  BSF    FA6.2
07190:  MOVF   FF2,W
07192:  MOVWF  00
07194:  BCF    FF2.7
07196:  MOVLB  F
07198:  MOVLW  55
0719A:  MOVWF  FA7
0719C:  MOVLW  AA
0719E:  MOVWF  FA7
071A0:  BSF    FA6.1
071A2:  BTFSC  FA6.1
071A4:  BRA    71A2
071A6:  BCF    FA6.2
071A8:  MOVF   00,W
071AA:  IORWF  FF2,F
....................                delay_ms(20); 
071AC:  MOVLW  14
071AE:  MOVLB  6
071B0:  MOVWF  x46
071B2:  MOVLB  0
071B4:  CALL   1524
....................                write_eeprom(16,Ttrabajo[0]); 
071B8:  CLRF   FAA
071BA:  MOVLW  10
071BC:  MOVWF  FA9
071BE:  MOVFF  4FC,FA8
071C2:  BCF    FA6.6
071C4:  BCF    FA6.7
071C6:  BSF    FA6.2
071C8:  MOVF   FF2,W
071CA:  MOVWF  00
071CC:  BCF    FF2.7
071CE:  MOVLB  F
071D0:  MOVLW  55
071D2:  MOVWF  FA7
071D4:  MOVLW  AA
071D6:  MOVWF  FA7
071D8:  BSF    FA6.1
071DA:  BTFSC  FA6.1
071DC:  BRA    71DA
071DE:  BCF    FA6.2
071E0:  MOVF   00,W
071E2:  IORWF  FF2,F
....................                delay_ms(20); 
071E4:  MOVLW  14
071E6:  MOVLB  6
071E8:  MOVWF  x46
071EA:  MOVLB  0
071EC:  CALL   1524
....................                write_eeprom(17,Ttrabajo[1]); 
071F0:  CLRF   FAA
071F2:  MOVLW  11
071F4:  MOVWF  FA9
071F6:  MOVFF  4FD,FA8
071FA:  BCF    FA6.6
071FC:  BCF    FA6.7
071FE:  BSF    FA6.2
07200:  MOVF   FF2,W
07202:  MOVWF  00
07204:  BCF    FF2.7
07206:  MOVLB  F
07208:  MOVLW  55
0720A:  MOVWF  FA7
0720C:  MOVLW  AA
0720E:  MOVWF  FA7
07210:  BSF    FA6.1
07212:  BTFSC  FA6.1
07214:  BRA    7212
07216:  BCF    FA6.2
07218:  MOVF   00,W
0721A:  IORWF  FF2,F
....................                delay_ms(20); 
0721C:  MOVLW  14
0721E:  MOVLB  6
07220:  MOVWF  x46
07222:  MOVLB  0
07224:  CALL   1524
....................                write_eeprom(18,Ttrabajo[2]); 
07228:  CLRF   FAA
0722A:  MOVLW  12
0722C:  MOVWF  FA9
0722E:  MOVFF  4FE,FA8
07232:  BCF    FA6.6
07234:  BCF    FA6.7
07236:  BSF    FA6.2
07238:  MOVF   FF2,W
0723A:  MOVWF  00
0723C:  BCF    FF2.7
0723E:  MOVLB  F
07240:  MOVLW  55
07242:  MOVWF  FA7
07244:  MOVLW  AA
07246:  MOVWF  FA7
07248:  BSF    FA6.1
0724A:  BTFSC  FA6.1
0724C:  BRA    724A
0724E:  BCF    FA6.2
07250:  MOVF   00,W
07252:  IORWF  FF2,F
....................                delay_ms(20); 
07254:  MOVLW  14
07256:  MOVLB  6
07258:  MOVWF  x46
0725A:  MOVLB  0
0725C:  CALL   1524
....................                write_eeprom(19,Ttrabajo[3]); 
07260:  CLRF   FAA
07262:  MOVLW  13
07264:  MOVWF  FA9
07266:  MOVFF  4FF,FA8
0726A:  BCF    FA6.6
0726C:  BCF    FA6.7
0726E:  BSF    FA6.2
07270:  MOVF   FF2,W
07272:  MOVWF  00
07274:  BCF    FF2.7
07276:  MOVLB  F
07278:  MOVLW  55
0727A:  MOVWF  FA7
0727C:  MOVLW  AA
0727E:  MOVWF  FA7
07280:  BSF    FA6.1
07282:  BTFSC  FA6.1
07284:  BRA    7282
07286:  BCF    FA6.2
07288:  MOVF   00,W
0728A:  IORWF  FF2,F
....................                delay_ms(20); 
0728C:  MOVLW  14
0728E:  MOVLB  6
07290:  MOVWF  x46
07292:  MOVLB  0
07294:  CALL   1524
....................                glcd_init(ON);             //Inicializa la glcd 
07298:  MOVLW  01
0729A:  MOVLB  6
0729C:  MOVWF  x32
0729E:  MOVLB  0
072A0:  CALL   1694
....................                glcd_fillScreen(OFF);      //Limpia la pantalla 
072A4:  MOVLB  6
072A6:  CLRF   x3A
072A8:  MOVLB  0
072AA:  CALL   1582
....................                glcd_update();   
072AE:  CALL   15DC
....................             } 
....................             VelocidadMotor(VelMotor); 
072B2:  MOVFF  592,632
072B6:  MOVLB  0
072B8:  CALL   1DE4
....................          }else{ 
072BC:  BRA    745A
072BE:  MOVLB  4
....................             Filtro_Downflow=0; 
072C0:  MOVLB  5
072C2:  CLRF   x0F
072C4:  CLRF   x0E
072C6:  CLRF   x0D
072C8:  CLRF   x0C
....................             glcd_rect(102, 45, 126, 62, YES, OFF);tiempo_trabajo=0;VelocidadMotor(0); 
072CA:  MOVLW  66
072CC:  MOVLB  6
072CE:  MOVWF  x4B
072D0:  MOVLW  2D
072D2:  MOVWF  x4C
072D4:  MOVLW  7E
072D6:  MOVWF  x4D
072D8:  MOVLW  3E
072DA:  MOVWF  x4E
072DC:  MOVLW  01
072DE:  MOVWF  x4F
072E0:  CLRF   x50
072E2:  MOVLB  0
072E4:  CALL   4D8E
072E8:  MOVLB  4
072EA:  BCF    x2D.5
072EC:  MOVLB  6
072EE:  CLRF   x32
072F0:  MOVLB  0
072F2:  CALL   1DE4
....................             if(guardatrabajo==0){ 
072F6:  MOVLB  4
072F8:  BTFSC  x2E.1
072FA:  BRA    745C
....................                guardatrabajo=1; 
072FC:  BSF    x2E.1
....................                write_eeprom(33,make8(minutos_trabajo,0)); 
072FE:  MOVFF  4D2,632
07302:  CLRF   FAA
07304:  MOVLW  21
07306:  MOVWF  FA9
07308:  MOVFF  632,FA8
0730C:  BCF    FA6.6
0730E:  BCF    FA6.7
07310:  BSF    FA6.2
07312:  MOVF   FF2,W
07314:  MOVWF  00
07316:  BCF    FF2.7
07318:  MOVLB  F
0731A:  MOVLW  55
0731C:  MOVWF  FA7
0731E:  MOVLW  AA
07320:  MOVWF  FA7
07322:  BSF    FA6.1
07324:  BTFSC  FA6.1
07326:  BRA    7324
07328:  BCF    FA6.2
0732A:  MOVF   00,W
0732C:  IORWF  FF2,F
....................                delay_ms(20); 
0732E:  MOVLW  14
07330:  MOVLB  6
07332:  MOVWF  x46
07334:  MOVLB  0
07336:  CALL   1524
....................                write_eeprom(34,make8(minutos_trabajo,1)); 
0733A:  MOVFF  4D3,632
0733E:  CLRF   FAA
07340:  MOVLW  22
07342:  MOVWF  FA9
07344:  MOVFF  632,FA8
07348:  BCF    FA6.6
0734A:  BCF    FA6.7
0734C:  BSF    FA6.2
0734E:  MOVF   FF2,W
07350:  MOVWF  00
07352:  BCF    FF2.7
07354:  MOVLB  F
07356:  MOVLW  55
07358:  MOVWF  FA7
0735A:  MOVLW  AA
0735C:  MOVWF  FA7
0735E:  BSF    FA6.1
07360:  BTFSC  FA6.1
07362:  BRA    7360
07364:  BCF    FA6.2
07366:  MOVF   00,W
07368:  IORWF  FF2,F
....................                delay_ms(20); 
0736A:  MOVLW  14
0736C:  MOVLB  6
0736E:  MOVWF  x46
07370:  MOVLB  0
07372:  CALL   1524
....................                write_eeprom(16,Ttrabajo[0]); 
07376:  CLRF   FAA
07378:  MOVLW  10
0737A:  MOVWF  FA9
0737C:  MOVFF  4FC,FA8
07380:  BCF    FA6.6
07382:  BCF    FA6.7
07384:  BSF    FA6.2
07386:  MOVF   FF2,W
07388:  MOVWF  00
0738A:  BCF    FF2.7
0738C:  MOVLB  F
0738E:  MOVLW  55
07390:  MOVWF  FA7
07392:  MOVLW  AA
07394:  MOVWF  FA7
07396:  BSF    FA6.1
07398:  BTFSC  FA6.1
0739A:  BRA    7398
0739C:  BCF    FA6.2
0739E:  MOVF   00,W
073A0:  IORWF  FF2,F
....................                delay_ms(20); 
073A2:  MOVLW  14
073A4:  MOVLB  6
073A6:  MOVWF  x46
073A8:  MOVLB  0
073AA:  CALL   1524
....................                write_eeprom(17,Ttrabajo[1]); 
073AE:  CLRF   FAA
073B0:  MOVLW  11
073B2:  MOVWF  FA9
073B4:  MOVFF  4FD,FA8
073B8:  BCF    FA6.6
073BA:  BCF    FA6.7
073BC:  BSF    FA6.2
073BE:  MOVF   FF2,W
073C0:  MOVWF  00
073C2:  BCF    FF2.7
073C4:  MOVLB  F
073C6:  MOVLW  55
073C8:  MOVWF  FA7
073CA:  MOVLW  AA
073CC:  MOVWF  FA7
073CE:  BSF    FA6.1
073D0:  BTFSC  FA6.1
073D2:  BRA    73D0
073D4:  BCF    FA6.2
073D6:  MOVF   00,W
073D8:  IORWF  FF2,F
....................                delay_ms(20); 
073DA:  MOVLW  14
073DC:  MOVLB  6
073DE:  MOVWF  x46
073E0:  MOVLB  0
073E2:  CALL   1524
....................                write_eeprom(18,Ttrabajo[2]); 
073E6:  CLRF   FAA
073E8:  MOVLW  12
073EA:  MOVWF  FA9
073EC:  MOVFF  4FE,FA8
073F0:  BCF    FA6.6
073F2:  BCF    FA6.7
073F4:  BSF    FA6.2
073F6:  MOVF   FF2,W
073F8:  MOVWF  00
073FA:  BCF    FF2.7
073FC:  MOVLB  F
073FE:  MOVLW  55
07400:  MOVWF  FA7
07402:  MOVLW  AA
07404:  MOVWF  FA7
07406:  BSF    FA6.1
07408:  BTFSC  FA6.1
0740A:  BRA    7408
0740C:  BCF    FA6.2
0740E:  MOVF   00,W
07410:  IORWF  FF2,F
....................                delay_ms(20); 
07412:  MOVLW  14
07414:  MOVLB  6
07416:  MOVWF  x46
07418:  MOVLB  0
0741A:  CALL   1524
....................                write_eeprom(19,Ttrabajo[3]); 
0741E:  CLRF   FAA
07420:  MOVLW  13
07422:  MOVWF  FA9
07424:  MOVFF  4FF,FA8
07428:  BCF    FA6.6
0742A:  BCF    FA6.7
0742C:  BSF    FA6.2
0742E:  MOVF   FF2,W
07430:  MOVWF  00
07432:  BCF    FF2.7
07434:  MOVLB  F
07436:  MOVLW  55
07438:  MOVWF  FA7
0743A:  MOVLW  AA
0743C:  MOVWF  FA7
0743E:  BSF    FA6.1
07440:  BTFSC  FA6.1
07442:  BRA    7440
07444:  BCF    FA6.2
07446:  MOVF   00,W
07448:  IORWF  FF2,F
....................                delay_ms(20); 
0744A:  MOVLW  14
0744C:  MOVLB  6
0744E:  MOVWF  x46
07450:  MOVLB  0
07452:  CALL   1524
....................                //glcd_init(ON);             //Inicializa la glcd 
....................                //glcd_fillScreen(OFF);      //Limpia la pantalla 
....................                glcd_update();   
07456:  CALL   15DC
0745A:  MOVLB  4
....................             } 
....................          } 
....................           
....................          if(flag_luz==1){ 
0745C:  BTFSS  x2D.1
0745E:  BRA    7474
....................             glcd_imagen(3);LuzBlanca_on; 
07460:  MOVLW  03
07462:  MOVLB  6
07464:  MOVWF  x32
07466:  MOVLB  0
07468:  CALL   598C
0746C:  BCF    F8B.2
0746E:  BCF    F94.2
....................          }else{ 
07470:  BRA    7496
07472:  MOVLB  4
....................             glcd_rect(102, 14, 126, 28, YES, OFF);LuzBlanca_off; 
07474:  MOVLW  66
07476:  MOVLB  6
07478:  MOVWF  x4B
0747A:  MOVLW  0E
0747C:  MOVWF  x4C
0747E:  MOVLW  7E
07480:  MOVWF  x4D
07482:  MOVLW  1C
07484:  MOVWF  x4E
07486:  MOVLW  01
07488:  MOVWF  x4F
0748A:  CLRF   x50
0748C:  MOVLB  0
0748E:  CALL   4D8E
07492:  BSF    F8B.2
07494:  BCF    F94.2
....................          } 
....................           
....................       if(tright>=30){ 
07496:  MOVLB  4
07498:  MOVF   xDB,F
0749A:  BNZ   74A2
0749C:  MOVF   xDA,W
0749E:  SUBLW  1D
074A0:  BC    74AC
....................          if(Flanco4 == 0){ 
074A2:  BTFSC  x2C.4
074A4:  BRA    74AA
....................             Flanco4 = 1;flag_blower=!flag_blower; 
074A6:  BSF    x2C.4
074A8:  BTG    x2C.7
....................          } 
....................       }else{ 
074AA:  BRA    74AE
....................          Flanco4 = 0; 
074AC:  BCF    x2C.4
....................       } 
....................           
....................       if(tleft>=30){//Si oprime boton de Blower. 
074AE:  MOVF   xDD,F
074B0:  BNZ   74B8
074B2:  MOVF   xDC,W
074B4:  SUBLW  1D
074B6:  BC    74D0
....................          if(Flanco3 == 0){ 
074B8:  BTFSC  x2C.3
074BA:  BRA    74CE
....................             Flanco3 = 1;Menu=33;glcd_fillScreen(OFF);      //Limpia la pantalla 
074BC:  BSF    x2C.3
074BE:  MOVLW  21
074C0:  MOVWF  xB2
074C2:  MOVLB  6
074C4:  CLRF   x3A
074C6:  MOVLB  0
074C8:  CALL   1582
074CC:  MOVLB  4
....................          } 
....................       }else{ 
074CE:  BRA    74D2
....................          Flanco3 = 0; 
074D0:  BCF    x2C.3
....................       } 
....................              
....................       if(tdown>=30){//Si oprime boton de Luz Blanca. 
074D2:  MOVF   xD9,F
074D4:  BNZ   74DC
074D6:  MOVF   xD8,W
074D8:  SUBLW  1D
074DA:  BC    74E6
....................          if(Flanco5 == 0){ 
074DC:  BTFSC  x2C.5
074DE:  BRA    74E4
....................             Flanco5 = 1;flag_luz=!flag_luz; 
074E0:  BSF    x2C.5
074E2:  BTG    x2D.1
....................          } 
....................       }else{ 
074E4:  BRA    74E8
....................          Flanco5 = 0; 
074E6:  BCF    x2C.5
....................       } 
....................        
....................       if(tup>=400){//Si oprime boton de Toma. 
074E8:  MOVF   xD7,W
074EA:  SUBLW  00
074EC:  BC    752A
074EE:  XORLW  FF
074F0:  BNZ   74F8
074F2:  MOVF   xD6,W
074F4:  SUBLW  8F
074F6:  BC    752A
....................          delay_ms(5);Menu=3;//glcd_fillScreen(OFF); 
074F8:  MOVLW  05
074FA:  MOVLB  6
074FC:  MOVWF  x46
074FE:  MOVLB  0
07500:  CALL   1524
07504:  MOVLW  03
07506:  MOVLB  4
07508:  MOVWF  xB2
....................          glcd_init(ON);             //Inicializa la glcd 
0750A:  MOVLW  01
0750C:  MOVLB  6
0750E:  MOVWF  x32
07510:  MOVLB  0
07512:  CALL   1694
....................          glcd_fillScreen(OFF);      //Limpia la pantalla 
07516:  MOVLB  6
07518:  CLRF   x3A
0751A:  MOVLB  0
0751C:  CALL   1582
....................          glcd_update();   
07520:  CALL   15DC
....................          LuzBlanca_off; 
07524:  BSF    F8B.2
07526:  BCF    F94.2
07528:  MOVLB  4
....................       } 
....................              
....................     } 
.................... //_--------------------------------------------------------------------------------------------------------------------------------------------------------        
....................  
.................... //_-------------------------------------------------------------------------------------------------------------------------------------------------------- 
....................       if(Menu==3){ //Menu Principal. 
0752A:  MOVF   xB2,W
0752C:  SUBLW  03
0752E:  BTFSS  FD8.2
07530:  BRA    7828
....................              
....................       strcpy(Menus.Letra,"Menu"); 
07532:  MOVLW  04
07534:  MOVWF  FEA
07536:  MOVLW  16
07538:  MOVWF  FE9
0753A:  MOVFF  FF2,632
0753E:  BCF    FF2.7
07540:  MOVLW  00
07542:  MOVLB  0
07544:  CALL   0FB6
07548:  TBLRD*-
0754A:  TBLRD*+
0754C:  MOVF   FF5,W
0754E:  MOVWF  FEE
07550:  IORLW  00
07552:  BNZ   754A
07554:  MOVLB  6
07556:  BTFSC  x32.7
07558:  BSF    FF2.7
....................       displayMenu(Menus.Letra,40,0,1,2); 
0755A:  MOVLW  04
0755C:  MOVWF  x3B
0755E:  MOVLW  16
07560:  MOVWF  x3A
07562:  MOVLW  28
07564:  MOVWF  x3C
07566:  CLRF   x3D
07568:  MOVLW  01
0756A:  MOVWF  x3E
0756C:  MOVLW  02
0756E:  MOVWF  x3F
07570:  MOVLB  0
07572:  CALL   50C0
....................        
....................       if(Opcion==1){ 
07576:  MOVLB  4
07578:  DECFSZ xB4,W
0757A:  BRA    75C2
....................          strcpy(Menus.Letra,"Ajustes"); 
0757C:  MOVLW  04
0757E:  MOVWF  FEA
07580:  MOVLW  16
07582:  MOVWF  FE9
07584:  MOVFF  FF2,632
07588:  BCF    FF2.7
0758A:  MOVLW  00
0758C:  MOVLB  0
0758E:  CALL   0FD6
07592:  TBLRD*-
07594:  TBLRD*+
07596:  MOVF   FF5,W
07598:  MOVWF  FEE
0759A:  IORLW  00
0759C:  BNZ   7594
0759E:  MOVLB  6
075A0:  BTFSC  x32.7
075A2:  BSF    FF2.7
....................          displayMenu(Menus.Letra,0,19,1,1); 
075A4:  MOVLW  04
075A6:  MOVWF  x3B
075A8:  MOVLW  16
075AA:  MOVWF  x3A
075AC:  CLRF   x3C
075AE:  MOVLW  13
075B0:  MOVWF  x3D
075B2:  MOVLW  01
075B4:  MOVWF  x3E
075B6:  MOVWF  x3F
075B8:  MOVLB  0
075BA:  CALL   50C0
....................       }else{ 
075BE:  BRA    7604
075C0:  MOVLB  4
....................          strcpy(Menus.Letra,"Ajustes"); 
075C2:  MOVLW  04
075C4:  MOVWF  FEA
075C6:  MOVLW  16
075C8:  MOVWF  FE9
075CA:  MOVFF  FF2,632
075CE:  BCF    FF2.7
075D0:  MOVLW  00
075D2:  MOVLB  0
075D4:  CALL   0FD6
075D8:  TBLRD*-
075DA:  TBLRD*+
075DC:  MOVF   FF5,W
075DE:  MOVWF  FEE
075E0:  IORLW  00
075E2:  BNZ   75DA
075E4:  MOVLB  6
075E6:  BTFSC  x32.7
075E8:  BSF    FF2.7
....................          displayMenu(Menus.Letra,0,19,0,1); 
075EA:  MOVLW  04
075EC:  MOVWF  x3B
075EE:  MOVLW  16
075F0:  MOVWF  x3A
075F2:  CLRF   x3C
075F4:  MOVLW  13
075F6:  MOVWF  x3D
075F8:  CLRF   x3E
075FA:  MOVLW  01
075FC:  MOVWF  x3F
075FE:  MOVLB  0
07600:  CALL   50C0
....................       } 
....................           
....................       if(Opcion==2){ 
07604:  MOVLB  4
07606:  MOVF   xB4,W
07608:  SUBLW  02
0760A:  BNZ   7652
....................          strcpy(Menus.Letra,"Cambio de Clave"); 
0760C:  MOVLW  04
0760E:  MOVWF  FEA
07610:  MOVLW  16
07612:  MOVWF  FE9
07614:  MOVFF  FF2,632
07618:  BCF    FF2.7
0761A:  MOVLW  00
0761C:  MOVLB  0
0761E:  CALL   0FF8
07622:  TBLRD*-
07624:  TBLRD*+
07626:  MOVF   FF5,W
07628:  MOVWF  FEE
0762A:  IORLW  00
0762C:  BNZ   7624
0762E:  MOVLB  6
07630:  BTFSC  x32.7
07632:  BSF    FF2.7
....................          displayMenu(Menus.Letra,0,35,1,1); 
07634:  MOVLW  04
07636:  MOVWF  x3B
07638:  MOVLW  16
0763A:  MOVWF  x3A
0763C:  CLRF   x3C
0763E:  MOVLW  23
07640:  MOVWF  x3D
07642:  MOVLW  01
07644:  MOVWF  x3E
07646:  MOVWF  x3F
07648:  MOVLB  0
0764A:  CALL   50C0
....................       }else{ 
0764E:  BRA    7694
07650:  MOVLB  4
....................          strcpy(Menus.Letra,"Cambio de Clave"); 
07652:  MOVLW  04
07654:  MOVWF  FEA
07656:  MOVLW  16
07658:  MOVWF  FE9
0765A:  MOVFF  FF2,632
0765E:  BCF    FF2.7
07660:  MOVLW  00
07662:  MOVLB  0
07664:  CALL   0FF8
07668:  TBLRD*-
0766A:  TBLRD*+
0766C:  MOVF   FF5,W
0766E:  MOVWF  FEE
07670:  IORLW  00
07672:  BNZ   766A
07674:  MOVLB  6
07676:  BTFSC  x32.7
07678:  BSF    FF2.7
....................          displayMenu(Menus.Letra,0,35,0,1); 
0767A:  MOVLW  04
0767C:  MOVWF  x3B
0767E:  MOVLW  16
07680:  MOVWF  x3A
07682:  CLRF   x3C
07684:  MOVLW  23
07686:  MOVWF  x3D
07688:  CLRF   x3E
0768A:  MOVLW  01
0768C:  MOVWF  x3F
0768E:  MOVLB  0
07690:  CALL   50C0
....................       } 
....................           
....................       if(Opcion==3){ 
07694:  MOVLB  4
07696:  MOVF   xB4,W
07698:  SUBLW  03
0769A:  BNZ   76E2
....................          strcpy(Menus.Letra,"Modo"); 
0769C:  MOVLW  04
0769E:  MOVWF  FEA
076A0:  MOVLW  16
076A2:  MOVWF  FE9
076A4:  MOVFF  FF2,632
076A8:  BCF    FF2.7
076AA:  MOVLW  00
076AC:  MOVLB  0
076AE:  CALL   1022
076B2:  TBLRD*-
076B4:  TBLRD*+
076B6:  MOVF   FF5,W
076B8:  MOVWF  FEE
076BA:  IORLW  00
076BC:  BNZ   76B4
076BE:  MOVLB  6
076C0:  BTFSC  x32.7
076C2:  BSF    FF2.7
....................          displayMenu(Menus.Letra,0,51,1,1); 
076C4:  MOVLW  04
076C6:  MOVWF  x3B
076C8:  MOVLW  16
076CA:  MOVWF  x3A
076CC:  CLRF   x3C
076CE:  MOVLW  33
076D0:  MOVWF  x3D
076D2:  MOVLW  01
076D4:  MOVWF  x3E
076D6:  MOVWF  x3F
076D8:  MOVLB  0
076DA:  CALL   50C0
....................       }else{ 
076DE:  BRA    7724
076E0:  MOVLB  4
....................          strcpy(Menus.Letra,"Modo"); 
076E2:  MOVLW  04
076E4:  MOVWF  FEA
076E6:  MOVLW  16
076E8:  MOVWF  FE9
076EA:  MOVFF  FF2,632
076EE:  BCF    FF2.7
076F0:  MOVLW  00
076F2:  MOVLB  0
076F4:  CALL   1022
076F8:  TBLRD*-
076FA:  TBLRD*+
076FC:  MOVF   FF5,W
076FE:  MOVWF  FEE
07700:  IORLW  00
07702:  BNZ   76FA
07704:  MOVLB  6
07706:  BTFSC  x32.7
07708:  BSF    FF2.7
....................          displayMenu(Menus.Letra,0,51,0,1); 
0770A:  MOVLW  04
0770C:  MOVWF  x3B
0770E:  MOVLW  16
07710:  MOVWF  x3A
07712:  CLRF   x3C
07714:  MOVLW  33
07716:  MOVWF  x3D
07718:  CLRF   x3E
0771A:  MOVLW  01
0771C:  MOVWF  x3F
0771E:  MOVLB  0
07720:  CALL   50C0
....................       } 
....................       glcd_update();  
07724:  CALL   15DC
....................        
....................       if(w==0){ 
07728:  MOVLB  4
0772A:  BTFSC  x2D.2
0772C:  BRA    7748
....................          delay_ms(500);w=1; 
0772E:  MOVLW  02
07730:  MOVLB  6
07732:  MOVWF  x32
07734:  MOVLW  FA
07736:  MOVWF  x46
07738:  MOVLB  0
0773A:  CALL   1524
0773E:  MOVLB  6
07740:  DECFSZ x32,F
07742:  BRA    7734
07744:  MOVLB  4
07746:  BSF    x2D.2
....................       } 
....................           
....................       if(tup>=30){//Si oprime hacia arriba         
07748:  MOVF   xD7,F
0774A:  BNZ   7752
0774C:  MOVF   xD6,W
0774E:  SUBLW  1D
07750:  BC    776A
....................          if(Flanco == 0){ 
07752:  BTFSC  x2C.0
07754:  BRA    7768
....................             Flanco = 1;delay_ms(30);Opcion--; 
07756:  BSF    x2C.0
07758:  MOVLW  1E
0775A:  MOVLB  6
0775C:  MOVWF  x46
0775E:  MOVLB  0
07760:  CALL   1524
07764:  MOVLB  4
07766:  DECF   xB4,F
....................          } 
....................       }else{ 
07768:  BRA    776C
....................          Flanco = 0; 
0776A:  BCF    x2C.0
....................       } 
....................              
....................       if(tdown>=30){//Si oprime hacia abajo 
0776C:  MOVF   xD9,F
0776E:  BNZ   7776
07770:  MOVF   xD8,W
07772:  SUBLW  1D
07774:  BC    778E
....................          if(Flanco2 == 0){ 
07776:  BTFSC  x2C.2
07778:  BRA    778C
....................             Flanco2 = 1;delay_ms(30);Opcion++; 
0777A:  BSF    x2C.2
0777C:  MOVLW  1E
0777E:  MOVLB  6
07780:  MOVWF  x46
07782:  MOVLB  0
07784:  CALL   1524
07788:  MOVLB  4
0778A:  INCF   xB4,F
....................          } 
....................       }else{ 
0778C:  BRA    7790
....................          Flanco2 = 0; 
0778E:  BCF    x2C.2
....................       } 
....................              
....................       if(tright>=30){//Si oprime SET 
07790:  MOVF   xDB,F
07792:  BNZ   779A
07794:  MOVF   xDA,W
07796:  SUBLW  1D
07798:  BC    77E2
....................          if(Flanco1 == 0){ 
0779A:  BTFSC  x2C.1
0779C:  BRA    77E0
....................             Flanco1 = 1;delay_ms(500);Menu=Opcion+3;Opcion=1;glcd_fillscreen(OFF);unidad=1; 
0779E:  BSF    x2C.1
077A0:  MOVLW  02
077A2:  MOVLB  6
077A4:  MOVWF  x32
077A6:  MOVLW  FA
077A8:  MOVWF  x46
077AA:  MOVLB  0
077AC:  CALL   1524
077B0:  MOVLB  6
077B2:  DECFSZ x32,F
077B4:  BRA    77A6
077B6:  MOVLW  03
077B8:  MOVLB  4
077BA:  ADDWF  xB4,W
077BC:  MOVWF  xB2
077BE:  MOVLW  01
077C0:  MOVWF  xB4
077C2:  MOVLB  6
077C4:  CLRF   x3A
077C6:  MOVLB  0
077C8:  CALL   1582
077CC:  MOVLW  01
077CE:  MOVLB  4
077D0:  MOVWF  xB3
....................             Contrasena[0]=0;Contrasena[1]=0;Contrasena[2]=0;Contrasena[3]=0;n=0; 
077D2:  MOVLB  5
077D4:  CLRF   x00
077D6:  CLRF   x01
077D8:  CLRF   x02
077DA:  CLRF   x03
077DC:  MOVLB  4
077DE:  BCF    x2E.3
....................          } 
....................       }else{ 
077E0:  BRA    77E4
....................          Flanco1 = 0; 
077E2:  BCF    x2C.1
....................       } 
....................              
....................       if(tleft>=30){//Si oprime boton de Toma. 
077E4:  MOVF   xDD,F
077E6:  BNZ   77EE
077E8:  MOVF   xDC,W
077EA:  SUBLW  1D
077EC:  BC    7816
....................          delay_ms(700);Menu=2;glcd_fillscreen(OFF); 
077EE:  MOVLW  04
077F0:  MOVLB  6
077F2:  MOVWF  x32
077F4:  MOVLW  AF
077F6:  MOVWF  x46
077F8:  MOVLB  0
077FA:  CALL   1524
077FE:  MOVLB  6
07800:  DECFSZ x32,F
07802:  BRA    77F4
07804:  MOVLW  02
07806:  MOVLB  4
07808:  MOVWF  xB2
0780A:  MOVLB  6
0780C:  CLRF   x3A
0780E:  MOVLB  0
07810:  CALL   1582
07814:  MOVLB  4
....................       } 
....................              
....................       if(Opcion>3) 
07816:  MOVF   xB4,W
07818:  SUBLW  03
0781A:  BC    7820
....................          Opcion=1; 
0781C:  MOVLW  01
0781E:  MOVWF  xB4
....................       if(Opcion<1) 
07820:  MOVF   xB4,F
07822:  BNZ   7828
....................          Opcion=3; 
07824:  MOVLW  03
07826:  MOVWF  xB4
....................     } 
.................... //_--------------------------------------------------------------------------------------------------------------------------------------------------------        
....................  
.................... //_-------------------------------------------------------------------------------------------------------------------------------------------------------- 
....................       if(Menu==4){ //Menu de Ajustes. 
07828:  MOVF   xB2,W
0782A:  SUBLW  04
0782C:  BTFSS  FD8.2
0782E:  BRA    7A5C
....................        
....................       strcpy(Menus.Letra,"Ajustes"); 
07830:  MOVLW  04
07832:  MOVWF  FEA
07834:  MOVLW  16
07836:  MOVWF  FE9
07838:  MOVFF  FF2,632
0783C:  BCF    FF2.7
0783E:  MOVLW  00
07840:  MOVLB  0
07842:  CALL   0FD6
07846:  TBLRD*-
07848:  TBLRD*+
0784A:  MOVF   FF5,W
0784C:  MOVWF  FEE
0784E:  IORLW  00
07850:  BNZ   7848
07852:  MOVLB  6
07854:  BTFSC  x32.7
07856:  BSF    FF2.7
....................       displayMenu(Menus.Letra,0,0,1,2); 
07858:  MOVLW  04
0785A:  MOVWF  x3B
0785C:  MOVLW  16
0785E:  MOVWF  x3A
07860:  CLRF   x3C
07862:  CLRF   x3D
07864:  MOVLW  01
07866:  MOVWF  x3E
07868:  MOVLW  02
0786A:  MOVWF  x3F
0786C:  MOVLB  0
0786E:  CALL   50C0
....................        
....................       if(Opcion==1)    
07872:  MOVLB  4
07874:  DECFSZ xB4,W
07876:  BRA    78BE
....................          {strcpy(Menus.Letra,"Tiempo Purga"); 
07878:  MOVLW  04
0787A:  MOVWF  FEA
0787C:  MOVLW  16
0787E:  MOVWF  FE9
07880:  MOVFF  FF2,632
07884:  BCF    FF2.7
07886:  MOVLW  00
07888:  MOVLB  0
0788A:  CALL   1042
0788E:  TBLRD*-
07890:  TBLRD*+
07892:  MOVF   FF5,W
07894:  MOVWF  FEE
07896:  IORLW  00
07898:  BNZ   7890
0789A:  MOVLB  6
0789C:  BTFSC  x32.7
0789E:  BSF    FF2.7
....................          displayMenu(Menus.Letra,0,20,1,1);} 
078A0:  MOVLW  04
078A2:  MOVWF  x3B
078A4:  MOVLW  16
078A6:  MOVWF  x3A
078A8:  CLRF   x3C
078AA:  MOVLW  14
078AC:  MOVWF  x3D
078AE:  MOVLW  01
078B0:  MOVWF  x3E
078B2:  MOVWF  x3F
078B4:  MOVLB  0
078B6:  CALL   50C0
....................       else 
078BA:  BRA    7900
078BC:  MOVLB  4
....................          {strcpy(Menus.Letra,"Tiempo Purga"); 
078BE:  MOVLW  04
078C0:  MOVWF  FEA
078C2:  MOVLW  16
078C4:  MOVWF  FE9
078C6:  MOVFF  FF2,632
078CA:  BCF    FF2.7
078CC:  MOVLW  00
078CE:  MOVLB  0
078D0:  CALL   1042
078D4:  TBLRD*-
078D6:  TBLRD*+
078D8:  MOVF   FF5,W
078DA:  MOVWF  FEE
078DC:  IORLW  00
078DE:  BNZ   78D6
078E0:  MOVLB  6
078E2:  BTFSC  x32.7
078E4:  BSF    FF2.7
....................          displayMenu(Menus.Letra,0,20,0,1);}              
078E6:  MOVLW  04
078E8:  MOVWF  x3B
078EA:  MOVLW  16
078EC:  MOVWF  x3A
078EE:  CLRF   x3C
078F0:  MOVLW  14
078F2:  MOVWF  x3D
078F4:  CLRF   x3E
078F6:  MOVLW  01
078F8:  MOVWF  x3F
078FA:  MOVLB  0
078FC:  CALL   50C0
....................        
....................       if(Opcion==2)    
07900:  MOVLB  4
07902:  MOVF   xB4,W
07904:  SUBLW  02
07906:  BNZ   794E
....................          {strcpy(Menus.Letra,"Tiempo Post-Purga"); 
07908:  MOVLW  04
0790A:  MOVWF  FEA
0790C:  MOVLW  16
0790E:  MOVWF  FE9
07910:  MOVFF  FF2,632
07914:  BCF    FF2.7
07916:  MOVLW  00
07918:  MOVLB  0
0791A:  CALL   106A
0791E:  TBLRD*-
07920:  TBLRD*+
07922:  MOVF   FF5,W
07924:  MOVWF  FEE
07926:  IORLW  00
07928:  BNZ   7920
0792A:  MOVLB  6
0792C:  BTFSC  x32.7
0792E:  BSF    FF2.7
....................          displayMenu(Menus.Letra,0,35,1,1);} 
07930:  MOVLW  04
07932:  MOVWF  x3B
07934:  MOVLW  16
07936:  MOVWF  x3A
07938:  CLRF   x3C
0793A:  MOVLW  23
0793C:  MOVWF  x3D
0793E:  MOVLW  01
07940:  MOVWF  x3E
07942:  MOVWF  x3F
07944:  MOVLB  0
07946:  CALL   50C0
....................       else 
0794A:  BRA    7990
0794C:  MOVLB  4
....................          {strcpy(Menus.Letra,"Tiempo Post-Purga"); 
0794E:  MOVLW  04
07950:  MOVWF  FEA
07952:  MOVLW  16
07954:  MOVWF  FE9
07956:  MOVFF  FF2,632
0795A:  BCF    FF2.7
0795C:  MOVLW  00
0795E:  MOVLB  0
07960:  CALL   106A
07964:  TBLRD*-
07966:  TBLRD*+
07968:  MOVF   FF5,W
0796A:  MOVWF  FEE
0796C:  IORLW  00
0796E:  BNZ   7966
07970:  MOVLB  6
07972:  BTFSC  x32.7
07974:  BSF    FF2.7
....................          displayMenu(Menus.Letra,0,35,0,1);}  
07976:  MOVLW  04
07978:  MOVWF  x3B
0797A:  MOVLW  16
0797C:  MOVWF  x3A
0797E:  CLRF   x3C
07980:  MOVLW  23
07982:  MOVWF  x3D
07984:  CLRF   x3E
07986:  MOVLW  01
07988:  MOVWF  x3F
0798A:  MOVLB  0
0798C:  CALL   50C0
....................           
....................       if(tup>=30)//Si oprime hacia arriba 
07990:  MOVLB  4
07992:  MOVF   xD7,F
07994:  BNZ   799C
07996:  MOVF   xD6,W
07998:  SUBLW  1D
0799A:  BC    79B4
....................       {  if(Flanco == 0)  
0799C:  BTFSC  x2C.0
0799E:  BRA    79B2
....................             {Flanco = 1;delay_ms(30);Opcion--; 
079A0:  BSF    x2C.0
079A2:  MOVLW  1E
079A4:  MOVLB  6
079A6:  MOVWF  x46
079A8:  MOVLB  0
079AA:  CALL   1524
079AE:  MOVLB  4
079B0:  DECF   xB4,F
....................             } 
....................       } 
....................          else 
079B2:  BRA    79B6
....................             {Flanco = 0;} 
079B4:  BCF    x2C.0
....................              
....................       if(tdown>=30)//Si oprime hacia abajo 
079B6:  MOVF   xD9,F
079B8:  BNZ   79C0
079BA:  MOVF   xD8,W
079BC:  SUBLW  1D
079BE:  BC    79D8
....................       {  if(Flanco2 == 0)  
079C0:  BTFSC  x2C.2
079C2:  BRA    79D6
....................             {Flanco2 = 1;delay_ms(30);Opcion++; 
079C4:  BSF    x2C.2
079C6:  MOVLW  1E
079C8:  MOVLB  6
079CA:  MOVWF  x46
079CC:  MOVLB  0
079CE:  CALL   1524
079D2:  MOVLB  4
079D4:  INCF   xB4,F
....................             }      
....................       } 
....................          else 
079D6:  BRA    79DA
....................             {Flanco2 = 0;}   
079D8:  BCF    x2C.2
....................              
....................       if(tright>=30)//Si oprime SET 
079DA:  MOVF   xDB,F
079DC:  BNZ   79E4
079DE:  MOVF   xDA,W
079E0:  SUBLW  1D
079E2:  BC    7A16
....................       {  if(Flanco1 == 0)  
079E4:  BTFSC  x2C.1
079E6:  BRA    7A14
....................             {Flanco1 = 1;delay_ms(500);Menu=Opcion+10;glcd_fillScreen(OFF); 
079E8:  BSF    x2C.1
079EA:  MOVLW  02
079EC:  MOVLB  6
079EE:  MOVWF  x32
079F0:  MOVLW  FA
079F2:  MOVWF  x46
079F4:  MOVLB  0
079F6:  CALL   1524
079FA:  MOVLB  6
079FC:  DECFSZ x32,F
079FE:  BRA    79F0
07A00:  MOVLW  0A
07A02:  MOVLB  4
07A04:  ADDWF  xB4,W
07A06:  MOVWF  xB2
07A08:  MOVLB  6
07A0A:  CLRF   x3A
07A0C:  MOVLB  0
07A0E:  CALL   1582
07A12:  MOVLB  4
....................             } 
....................       } 
....................          else 
07A14:  BRA    7A18
....................             {Flanco1 = 0;}   
07A16:  BCF    x2C.1
....................              
....................       if(tleft>=30)//Si oprime boton de Toma. 
07A18:  MOVF   xDD,F
07A1A:  BNZ   7A22
07A1C:  MOVF   xDC,W
07A1E:  SUBLW  1D
07A20:  BC    7A4A
....................         {delay_ms(700);Menu=3;glcd_fillscreen(OFF);} 
07A22:  MOVLW  04
07A24:  MOVLB  6
07A26:  MOVWF  x32
07A28:  MOVLW  AF
07A2A:  MOVWF  x46
07A2C:  MOVLB  0
07A2E:  CALL   1524
07A32:  MOVLB  6
07A34:  DECFSZ x32,F
07A36:  BRA    7A28
07A38:  MOVLW  03
07A3A:  MOVLB  4
07A3C:  MOVWF  xB2
07A3E:  MOVLB  6
07A40:  CLRF   x3A
07A42:  MOVLB  0
07A44:  CALL   1582
07A48:  MOVLB  4
....................        
....................       if(Opcion>2) 
07A4A:  MOVF   xB4,W
07A4C:  SUBLW  02
07A4E:  BC    7A54
....................       {Opcion=1;} 
07A50:  MOVLW  01
07A52:  MOVWF  xB4
....................       if(Opcion<1) 
07A54:  MOVF   xB4,F
07A56:  BNZ   7A5C
....................       {Opcion=2;} 
07A58:  MOVLW  02
07A5A:  MOVWF  xB4
....................      
....................     } 
.................... //_--------------------------------------------------------------------------------------------------------------------------------------------------------        
....................  
.................... //_-------------------------------------------------------------------------------------------------------------------------------------------------------- 
....................       if(Menu==6){ //Menu de Modo. 
07A5C:  MOVF   xB2,W
07A5E:  SUBLW  06
07A60:  BTFSS  FD8.2
07A62:  BRA    7C98
....................        
....................       strcpy(Menus.Letra,"Modo"); 
07A64:  MOVLW  04
07A66:  MOVWF  FEA
07A68:  MOVLW  16
07A6A:  MOVWF  FE9
07A6C:  MOVFF  FF2,632
07A70:  BCF    FF2.7
07A72:  MOVLW  00
07A74:  MOVLB  0
07A76:  CALL   1022
07A7A:  TBLRD*-
07A7C:  TBLRD*+
07A7E:  MOVF   FF5,W
07A80:  MOVWF  FEE
07A82:  IORLW  00
07A84:  BNZ   7A7C
07A86:  MOVLB  6
07A88:  BTFSC  x32.7
07A8A:  BSF    FF2.7
....................       displayMenu(Menus.Letra,40,0,1,2); 
07A8C:  MOVLW  04
07A8E:  MOVWF  x3B
07A90:  MOVLW  16
07A92:  MOVWF  x3A
07A94:  MOVLW  28
07A96:  MOVWF  x3C
07A98:  CLRF   x3D
07A9A:  MOVLW  01
07A9C:  MOVWF  x3E
07A9E:  MOVLW  02
07AA0:  MOVWF  x3F
07AA2:  MOVLB  0
07AA4:  CALL   50C0
....................           
....................       if(Opcion==1)    
07AA8:  MOVLB  4
07AAA:  DECFSZ xB4,W
07AAC:  BRA    7AF4
....................          {strcpy(Menus.Letra,"Mantenimiento"); 
07AAE:  MOVLW  04
07AB0:  MOVWF  FEA
07AB2:  MOVLW  16
07AB4:  MOVWF  FE9
07AB6:  MOVFF  FF2,632
07ABA:  BCF    FF2.7
07ABC:  MOVLW  00
07ABE:  MOVLB  0
07AC0:  CALL   1096
07AC4:  TBLRD*-
07AC6:  TBLRD*+
07AC8:  MOVF   FF5,W
07ACA:  MOVWF  FEE
07ACC:  IORLW  00
07ACE:  BNZ   7AC6
07AD0:  MOVLB  6
07AD2:  BTFSC  x32.7
07AD4:  BSF    FF2.7
....................          displayMenu(Menus.Letra,0,19,1,1);} 
07AD6:  MOVLW  04
07AD8:  MOVWF  x3B
07ADA:  MOVLW  16
07ADC:  MOVWF  x3A
07ADE:  CLRF   x3C
07AE0:  MOVLW  13
07AE2:  MOVWF  x3D
07AE4:  MOVLW  01
07AE6:  MOVWF  x3E
07AE8:  MOVWF  x3F
07AEA:  MOVLB  0
07AEC:  CALL   50C0
....................       else 
07AF0:  BRA    7B36
07AF2:  MOVLB  4
....................          {strcpy(Menus.Letra,"Mantenimiento"); 
07AF4:  MOVLW  04
07AF6:  MOVWF  FEA
07AF8:  MOVLW  16
07AFA:  MOVWF  FE9
07AFC:  MOVFF  FF2,632
07B00:  BCF    FF2.7
07B02:  MOVLW  00
07B04:  MOVLB  0
07B06:  CALL   1096
07B0A:  TBLRD*-
07B0C:  TBLRD*+
07B0E:  MOVF   FF5,W
07B10:  MOVWF  FEE
07B12:  IORLW  00
07B14:  BNZ   7B0C
07B16:  MOVLB  6
07B18:  BTFSC  x32.7
07B1A:  BSF    FF2.7
....................          displayMenu(Menus.Letra,0,19,0,1);}    
07B1C:  MOVLW  04
07B1E:  MOVWF  x3B
07B20:  MOVLW  16
07B22:  MOVWF  x3A
07B24:  CLRF   x3C
07B26:  MOVLW  13
07B28:  MOVWF  x3D
07B2A:  CLRF   x3E
07B2C:  MOVLW  01
07B2E:  MOVWF  x3F
07B30:  MOVLB  0
07B32:  CALL   50C0
....................           
....................       if(Opcion==2)    
07B36:  MOVLB  4
07B38:  MOVF   xB4,W
07B3A:  SUBLW  02
07B3C:  BNZ   7B84
....................          {strcpy(Menus.Letra,"Servicio"); 
07B3E:  MOVLW  04
07B40:  MOVWF  FEA
07B42:  MOVLW  16
07B44:  MOVWF  FE9
07B46:  MOVFF  FF2,632
07B4A:  BCF    FF2.7
07B4C:  MOVLW  00
07B4E:  MOVLB  0
07B50:  CALL   10BE
07B54:  TBLRD*-
07B56:  TBLRD*+
07B58:  MOVF   FF5,W
07B5A:  MOVWF  FEE
07B5C:  IORLW  00
07B5E:  BNZ   7B56
07B60:  MOVLB  6
07B62:  BTFSC  x32.7
07B64:  BSF    FF2.7
....................          displayMenu(Menus.Letra,0,35,1,1);} 
07B66:  MOVLW  04
07B68:  MOVWF  x3B
07B6A:  MOVLW  16
07B6C:  MOVWF  x3A
07B6E:  CLRF   x3C
07B70:  MOVLW  23
07B72:  MOVWF  x3D
07B74:  MOVLW  01
07B76:  MOVWF  x3E
07B78:  MOVWF  x3F
07B7A:  MOVLB  0
07B7C:  CALL   50C0
....................       else 
07B80:  BRA    7BC6
07B82:  MOVLB  4
....................          {strcpy(Menus.Letra,"Servicio"); 
07B84:  MOVLW  04
07B86:  MOVWF  FEA
07B88:  MOVLW  16
07B8A:  MOVWF  FE9
07B8C:  MOVFF  FF2,632
07B90:  BCF    FF2.7
07B92:  MOVLW  00
07B94:  MOVLB  0
07B96:  CALL   10BE
07B9A:  TBLRD*-
07B9C:  TBLRD*+
07B9E:  MOVF   FF5,W
07BA0:  MOVWF  FEE
07BA2:  IORLW  00
07BA4:  BNZ   7B9C
07BA6:  MOVLB  6
07BA8:  BTFSC  x32.7
07BAA:  BSF    FF2.7
....................          displayMenu(Menus.Letra,0,35,0,1);} 
07BAC:  MOVLW  04
07BAE:  MOVWF  x3B
07BB0:  MOVLW  16
07BB2:  MOVWF  x3A
07BB4:  CLRF   x3C
07BB6:  MOVLW  23
07BB8:  MOVWF  x3D
07BBA:  CLRF   x3E
07BBC:  MOVLW  01
07BBE:  MOVWF  x3F
07BC0:  MOVLB  0
07BC2:  CALL   50C0
....................           
....................       if(tup>=30)//Si oprime hacia arriba 
07BC6:  MOVLB  4
07BC8:  MOVF   xD7,F
07BCA:  BNZ   7BD2
07BCC:  MOVF   xD6,W
07BCE:  SUBLW  1D
07BD0:  BC    7BEA
....................       {  if(Flanco == 0)  
07BD2:  BTFSC  x2C.0
07BD4:  BRA    7BE8
....................             {Flanco = 1;delay_ms(30);Opcion--; 
07BD6:  BSF    x2C.0
07BD8:  MOVLW  1E
07BDA:  MOVLB  6
07BDC:  MOVWF  x46
07BDE:  MOVLB  0
07BE0:  CALL   1524
07BE4:  MOVLB  4
07BE6:  DECF   xB4,F
....................             } 
....................       } 
....................          else 
07BE8:  BRA    7BEC
....................             {Flanco = 0;} 
07BEA:  BCF    x2C.0
....................              
....................       if(tdown>=30)//Si oprime hacia abajo 
07BEC:  MOVF   xD9,F
07BEE:  BNZ   7BF6
07BF0:  MOVF   xD8,W
07BF2:  SUBLW  1D
07BF4:  BC    7C0E
....................       {  if(Flanco2 == 0)  
07BF6:  BTFSC  x2C.2
07BF8:  BRA    7C0C
....................             {Flanco2 = 1;delay_ms(30);Opcion++; 
07BFA:  BSF    x2C.2
07BFC:  MOVLW  1E
07BFE:  MOVLB  6
07C00:  MOVWF  x46
07C02:  MOVLB  0
07C04:  CALL   1524
07C08:  MOVLB  4
07C0A:  INCF   xB4,F
....................             }      
....................       } 
....................          else 
07C0C:  BRA    7C10
....................             {Flanco2 = 0;}   
07C0E:  BCF    x2C.2
....................              
....................       if(tright>=30)//Si oprime SET 
07C10:  MOVF   xDB,F
07C12:  BNZ   7C1A
07C14:  MOVF   xDA,W
07C16:  SUBLW  1D
07C18:  BC    7C52
....................       {  if(Flanco1 == 0)  
07C1A:  BTFSC  x2C.1
07C1C:  BRA    7C50
....................             {Flanco1 = 1;delay_ms(500);Menu=Opcion+30;glcd_fillScreen(OFF);Opcion=1;unidad=1; 
07C1E:  BSF    x2C.1
07C20:  MOVLW  02
07C22:  MOVLB  6
07C24:  MOVWF  x32
07C26:  MOVLW  FA
07C28:  MOVWF  x46
07C2A:  MOVLB  0
07C2C:  CALL   1524
07C30:  MOVLB  6
07C32:  DECFSZ x32,F
07C34:  BRA    7C26
07C36:  MOVLW  1E
07C38:  MOVLB  4
07C3A:  ADDWF  xB4,W
07C3C:  MOVWF  xB2
07C3E:  MOVLB  6
07C40:  CLRF   x3A
07C42:  MOVLB  0
07C44:  CALL   1582
07C48:  MOVLW  01
07C4A:  MOVLB  4
07C4C:  MOVWF  xB4
07C4E:  MOVWF  xB3
....................             } 
....................       } 
....................          else 
07C50:  BRA    7C54
....................             {Flanco1 = 0;}   
07C52:  BCF    x2C.1
....................              
....................       if(tleft>=30)//Si oprime boton de Toma. 
07C54:  MOVF   xDD,F
07C56:  BNZ   7C5E
07C58:  MOVF   xDC,W
07C5A:  SUBLW  1D
07C5C:  BC    7C86
....................         {delay_ms(700);Menu=3;glcd_fillscreen(OFF);} 
07C5E:  MOVLW  04
07C60:  MOVLB  6
07C62:  MOVWF  x32
07C64:  MOVLW  AF
07C66:  MOVWF  x46
07C68:  MOVLB  0
07C6A:  CALL   1524
07C6E:  MOVLB  6
07C70:  DECFSZ x32,F
07C72:  BRA    7C64
07C74:  MOVLW  03
07C76:  MOVLB  4
07C78:  MOVWF  xB2
07C7A:  MOVLB  6
07C7C:  CLRF   x3A
07C7E:  MOVLB  0
07C80:  CALL   1582
07C84:  MOVLB  4
....................       if(Opcion>2) 
07C86:  MOVF   xB4,W
07C88:  SUBLW  02
07C8A:  BC    7C90
....................       {Opcion=1;} 
07C8C:  MOVLW  01
07C8E:  MOVWF  xB4
....................       if(Opcion<1) 
07C90:  MOVF   xB4,F
07C92:  BNZ   7C98
....................       {Opcion=2;} 
07C94:  MOVLW  02
07C96:  MOVWF  xB4
....................      
....................     } 
.................... //_--------------------------------------------------------------------------------------------------------------------------------------------------------        
....................  
.................... //_-------------------------------------------------------------------------------------------------------------------------------------------------------- 
....................       if(Menu==11){ //Menu de Purga. 
07C98:  MOVF   xB2,W
07C9A:  SUBLW  0B
07C9C:  BTFSS  FD8.2
07C9E:  BRA    8072
....................        
....................       strcpy(Menus.Letra,"T. Purga"); 
07CA0:  MOVLW  04
07CA2:  MOVWF  FEA
07CA4:  MOVLW  16
07CA6:  MOVWF  FE9
07CA8:  MOVFF  FF2,632
07CAC:  BCF    FF2.7
07CAE:  MOVLW  00
07CB0:  MOVLB  0
07CB2:  CALL   10E2
07CB6:  TBLRD*-
07CB8:  TBLRD*+
07CBA:  MOVF   FF5,W
07CBC:  MOVWF  FEE
07CBE:  IORLW  00
07CC0:  BNZ   7CB8
07CC2:  MOVLB  6
07CC4:  BTFSC  x32.7
07CC6:  BSF    FF2.7
....................       displayMenu(Menus.Letra,10,0,1,2); 
07CC8:  MOVLW  04
07CCA:  MOVWF  x3B
07CCC:  MOVLW  16
07CCE:  MOVWF  x3A
07CD0:  MOVLW  0A
07CD2:  MOVWF  x3C
07CD4:  CLRF   x3D
07CD6:  MOVLW  01
07CD8:  MOVWF  x3E
07CDA:  MOVLW  02
07CDC:  MOVWF  x3F
07CDE:  MOVLB  0
07CE0:  CALL   50C0
....................        
....................       if(unidad==4) 
07CE4:  MOVLB  4
07CE6:  MOVF   xB3,W
07CE8:  SUBLW  04
07CEA:  BNZ   7D0A
....................       {displayTiempo(Tpurgap[3],20,40,1,2);} 
07CEC:  MOVFF  4EB,632
07CF0:  MOVLW  14
07CF2:  MOVLB  6
07CF4:  MOVWF  x33
07CF6:  MOVLW  28
07CF8:  MOVWF  x34
07CFA:  MOVLW  01
07CFC:  MOVWF  x35
07CFE:  MOVLW  02
07D00:  MOVWF  x36
07D02:  MOVLB  0
07D04:  CALL   5890
....................       else 
07D08:  BRA    7D24
....................       {displayTiempo(Tpurgap[3],20,40,0,2);} 
07D0A:  MOVFF  4EB,632
07D0E:  MOVLW  14
07D10:  MOVLB  6
07D12:  MOVWF  x33
07D14:  MOVLW  28
07D16:  MOVWF  x34
07D18:  CLRF   x35
07D1A:  MOVLW  02
07D1C:  MOVWF  x36
07D1E:  MOVLB  0
07D20:  CALL   5890
....................        
....................       if(unidad==3) 
07D24:  MOVLB  4
07D26:  MOVF   xB3,W
07D28:  SUBLW  03
07D2A:  BNZ   7D48
....................       {displayTiempo(Tpurgap[2],40,40,1,2);} 
07D2C:  MOVFF  4EA,632
07D30:  MOVLW  28
07D32:  MOVLB  6
07D34:  MOVWF  x33
07D36:  MOVWF  x34
07D38:  MOVLW  01
07D3A:  MOVWF  x35
07D3C:  MOVLW  02
07D3E:  MOVWF  x36
07D40:  MOVLB  0
07D42:  CALL   5890
....................       else 
07D46:  BRA    7D60
....................       {displayTiempo(Tpurgap[2],40,40,0,2);} 
07D48:  MOVFF  4EA,632
07D4C:  MOVLW  28
07D4E:  MOVLB  6
07D50:  MOVWF  x33
07D52:  MOVWF  x34
07D54:  CLRF   x35
07D56:  MOVLW  02
07D58:  MOVWF  x36
07D5A:  MOVLB  0
07D5C:  CALL   5890
....................        
....................       if(unidad==2) 
07D60:  MOVLB  4
07D62:  MOVF   xB3,W
07D64:  SUBLW  02
07D66:  BNZ   7D86
....................       {displayTiempo(Tpurgap[1],70,40,1,2);} 
07D68:  MOVFF  4E9,632
07D6C:  MOVLW  46
07D6E:  MOVLB  6
07D70:  MOVWF  x33
07D72:  MOVLW  28
07D74:  MOVWF  x34
07D76:  MOVLW  01
07D78:  MOVWF  x35
07D7A:  MOVLW  02
07D7C:  MOVWF  x36
07D7E:  MOVLB  0
07D80:  CALL   5890
....................       else 
07D84:  BRA    7DA0
....................       {displayTiempo(Tpurgap[1],70,40,0,2);} 
07D86:  MOVFF  4E9,632
07D8A:  MOVLW  46
07D8C:  MOVLB  6
07D8E:  MOVWF  x33
07D90:  MOVLW  28
07D92:  MOVWF  x34
07D94:  CLRF   x35
07D96:  MOVLW  02
07D98:  MOVWF  x36
07D9A:  MOVLB  0
07D9C:  CALL   5890
....................        
....................       if(unidad==1) 
07DA0:  MOVLB  4
07DA2:  DECFSZ xB3,W
07DA4:  BRA    7DC4
....................       {displayTiempo(Tpurgap[0],90,40,1,2);} 
07DA6:  MOVFF  4E8,632
07DAA:  MOVLW  5A
07DAC:  MOVLB  6
07DAE:  MOVWF  x33
07DB0:  MOVLW  28
07DB2:  MOVWF  x34
07DB4:  MOVLW  01
07DB6:  MOVWF  x35
07DB8:  MOVLW  02
07DBA:  MOVWF  x36
07DBC:  MOVLB  0
07DBE:  CALL   5890
....................       else 
07DC2:  BRA    7DDE
....................       {displayTiempo(Tpurgap[0],90,40,0,2);} 
07DC4:  MOVFF  4E8,632
07DC8:  MOVLW  5A
07DCA:  MOVLB  6
07DCC:  MOVWF  x33
07DCE:  MOVLW  28
07DD0:  MOVWF  x34
07DD2:  CLRF   x35
07DD4:  MOVLW  02
07DD6:  MOVWF  x36
07DD8:  MOVLB  0
07DDA:  CALL   5890
....................        
....................       glcd_text57(60, 42, Dos_puntos, 2, ON); 
07DDE:  MOVLW  3C
07DE0:  MOVLB  6
07DE2:  MOVWF  x4B
07DE4:  MOVLW  2A
07DE6:  MOVWF  x4C
07DE8:  MOVLW  04
07DEA:  MOVWF  x4E
07DEC:  MOVLW  4D
07DEE:  MOVWF  x4D
07DF0:  MOVLW  02
07DF2:  MOVWF  x4F
07DF4:  MOVLW  01
07DF6:  MOVWF  x50
07DF8:  MOVLB  0
07DFA:  CALL   4E50
....................           
....................          
....................       if(tup>=30)//Si oprime hacia arriba 
07DFE:  MOVLB  4
07E00:  MOVF   xD7,F
07E02:  BNZ   7E0A
07E04:  MOVF   xD6,W
07E06:  SUBLW  1D
07E08:  BC    7E32
....................       {  if(Flanco == 0)  
07E0A:  BTFSC  x2C.0
07E0C:  BRA    7E30
....................             {Flanco = 1;delay_ms(30);Tpurgap[unidad-1]++; 
07E0E:  BSF    x2C.0
07E10:  MOVLW  1E
07E12:  MOVLB  6
07E14:  MOVWF  x46
07E16:  MOVLB  0
07E18:  CALL   1524
07E1C:  MOVLW  01
07E1E:  MOVLB  4
07E20:  SUBWF  xB3,W
07E22:  CLRF   03
07E24:  ADDLW  E8
07E26:  MOVWF  FE9
07E28:  MOVLW  04
07E2A:  ADDWFC 03,W
07E2C:  MOVWF  FEA
07E2E:  INCF   FEF,F
....................             } 
....................       } 
....................          else 
07E30:  BRA    7E34
....................             {Flanco = 0;} 
07E32:  BCF    x2C.0
....................              
....................       if(tdown>=30)//Si oprime hacia abajo 
07E34:  MOVF   xD9,F
07E36:  BNZ   7E3E
07E38:  MOVF   xD8,W
07E3A:  SUBLW  1D
07E3C:  BC    7E66
....................       {  if(Flanco2 == 0)  
07E3E:  BTFSC  x2C.2
07E40:  BRA    7E64
....................             {Flanco2 = 1;delay_ms(30);Tpurgap[unidad-1]--; 
07E42:  BSF    x2C.2
07E44:  MOVLW  1E
07E46:  MOVLB  6
07E48:  MOVWF  x46
07E4A:  MOVLB  0
07E4C:  CALL   1524
07E50:  MOVLW  01
07E52:  MOVLB  4
07E54:  SUBWF  xB3,W
07E56:  CLRF   03
07E58:  ADDLW  E8
07E5A:  MOVWF  FE9
07E5C:  MOVLW  04
07E5E:  ADDWFC 03,W
07E60:  MOVWF  FEA
07E62:  DECF   FEF,F
....................             }      
....................       } 
....................          else 
07E64:  BRA    7E68
....................             {Flanco2 = 0;}   
07E66:  BCF    x2C.2
....................              
....................       if(tright>=30)//Si oprime SET 
07E68:  MOVF   xDB,F
07E6A:  BNZ   7E72
07E6C:  MOVF   xDA,W
07E6E:  SUBLW  1D
07E70:  BC    7E8A
....................       {  if(Flanco1 == 0)  
07E72:  BTFSC  x2C.1
07E74:  BRA    7E88
....................             {Flanco1 = 1;delay_ms(30);unidad--; 
07E76:  BSF    x2C.1
07E78:  MOVLW  1E
07E7A:  MOVLB  6
07E7C:  MOVWF  x46
07E7E:  MOVLB  0
07E80:  CALL   1524
07E84:  MOVLB  4
07E86:  DECF   xB3,F
....................             } 
....................       } 
....................          else 
07E88:  BRA    7E8C
....................             {Flanco1 = 0;}   
07E8A:  BCF    x2C.1
....................              
....................       if(tleft>=30)//Si oprime boton de Toma. 
07E8C:  MOVF   xDD,F
07E8E:  BNZ   7E98
07E90:  MOVF   xDC,W
07E92:  SUBLW  1D
07E94:  BTFSC  FD8.0
07E96:  BRA    7FA6
....................       { 
....................          delay_ms(700);Menu=4;glcd_fillscreen(OFF);Opcion=1;unidad=1; 
07E98:  MOVLW  04
07E9A:  MOVLB  6
07E9C:  MOVWF  x32
07E9E:  MOVLW  AF
07EA0:  MOVWF  x46
07EA2:  MOVLB  0
07EA4:  CALL   1524
07EA8:  MOVLB  6
07EAA:  DECFSZ x32,F
07EAC:  BRA    7E9E
07EAE:  MOVLW  04
07EB0:  MOVLB  4
07EB2:  MOVWF  xB2
07EB4:  MOVLB  6
07EB6:  CLRF   x3A
07EB8:  MOVLB  0
07EBA:  CALL   1582
07EBE:  MOVLW  01
07EC0:  MOVLB  4
07EC2:  MOVWF  xB4
07EC4:  MOVWF  xB3
....................          write_eeprom(4,Tpurgap[0]); 
07EC6:  CLRF   FAA
07EC8:  MOVLW  04
07ECA:  MOVWF  FA9
07ECC:  MOVFF  4E8,FA8
07ED0:  BCF    FA6.6
07ED2:  BCF    FA6.7
07ED4:  BSF    FA6.2
07ED6:  MOVF   FF2,W
07ED8:  MOVWF  00
07EDA:  BCF    FF2.7
07EDC:  MOVLB  F
07EDE:  MOVLW  55
07EE0:  MOVWF  FA7
07EE2:  MOVLW  AA
07EE4:  MOVWF  FA7
07EE6:  BSF    FA6.1
07EE8:  BTFSC  FA6.1
07EEA:  BRA    7EE8
07EEC:  BCF    FA6.2
07EEE:  MOVF   00,W
07EF0:  IORWF  FF2,F
....................          delay_ms(20); 
07EF2:  MOVLW  14
07EF4:  MOVLB  6
07EF6:  MOVWF  x46
07EF8:  MOVLB  0
07EFA:  CALL   1524
....................          write_eeprom(5,Tpurgap[1]); 
07EFE:  CLRF   FAA
07F00:  MOVLW  05
07F02:  MOVWF  FA9
07F04:  MOVFF  4E9,FA8
07F08:  BCF    FA6.6
07F0A:  BCF    FA6.7
07F0C:  BSF    FA6.2
07F0E:  MOVF   FF2,W
07F10:  MOVWF  00
07F12:  BCF    FF2.7
07F14:  MOVLB  F
07F16:  MOVLW  55
07F18:  MOVWF  FA7
07F1A:  MOVLW  AA
07F1C:  MOVWF  FA7
07F1E:  BSF    FA6.1
07F20:  BTFSC  FA6.1
07F22:  BRA    7F20
07F24:  BCF    FA6.2
07F26:  MOVF   00,W
07F28:  IORWF  FF2,F
....................          delay_ms(20); 
07F2A:  MOVLW  14
07F2C:  MOVLB  6
07F2E:  MOVWF  x46
07F30:  MOVLB  0
07F32:  CALL   1524
....................          write_eeprom(6,Tpurgap[2]); 
07F36:  CLRF   FAA
07F38:  MOVLW  06
07F3A:  MOVWF  FA9
07F3C:  MOVFF  4EA,FA8
07F40:  BCF    FA6.6
07F42:  BCF    FA6.7
07F44:  BSF    FA6.2
07F46:  MOVF   FF2,W
07F48:  MOVWF  00
07F4A:  BCF    FF2.7
07F4C:  MOVLB  F
07F4E:  MOVLW  55
07F50:  MOVWF  FA7
07F52:  MOVLW  AA
07F54:  MOVWF  FA7
07F56:  BSF    FA6.1
07F58:  BTFSC  FA6.1
07F5A:  BRA    7F58
07F5C:  BCF    FA6.2
07F5E:  MOVF   00,W
07F60:  IORWF  FF2,F
....................          delay_ms(20); 
07F62:  MOVLW  14
07F64:  MOVLB  6
07F66:  MOVWF  x46
07F68:  MOVLB  0
07F6A:  CALL   1524
....................          write_eeprom(7,Tpurgap[3]); 
07F6E:  CLRF   FAA
07F70:  MOVLW  07
07F72:  MOVWF  FA9
07F74:  MOVFF  4EB,FA8
07F78:  BCF    FA6.6
07F7A:  BCF    FA6.7
07F7C:  BSF    FA6.2
07F7E:  MOVF   FF2,W
07F80:  MOVWF  00
07F82:  BCF    FF2.7
07F84:  MOVLB  F
07F86:  MOVLW  55
07F88:  MOVWF  FA7
07F8A:  MOVLW  AA
07F8C:  MOVWF  FA7
07F8E:  BSF    FA6.1
07F90:  BTFSC  FA6.1
07F92:  BRA    7F90
07F94:  BCF    FA6.2
07F96:  MOVF   00,W
07F98:  IORWF  FF2,F
....................          delay_ms(20); 
07F9A:  MOVLW  14
07F9C:  MOVLB  6
07F9E:  MOVWF  x46
07FA0:  MOVLB  0
07FA2:  CALL   1524
....................       } 
....................        
....................       for(i=0;i<4;i++) 
07FA6:  MOVLB  5
07FA8:  CLRF   x8E
07FAA:  MOVF   x8E,W
07FAC:  SUBLW  03
07FAE:  BNC   8002
....................       { 
....................          if(Tpurgap[i]>9) 
07FB0:  CLRF   03
07FB2:  MOVF   x8E,W
07FB4:  ADDLW  E8
07FB6:  MOVWF  FE9
07FB8:  MOVLW  04
07FBA:  ADDWFC 03,W
07FBC:  MOVWF  FEA
07FBE:  BTFSC  FEF.7
07FC0:  BRA    7FD8
07FC2:  MOVF   FEF,W
07FC4:  SUBLW  09
07FC6:  BC    7FD8
....................          {Tpurgap[i]=0;} 
07FC8:  CLRF   03
07FCA:  MOVF   x8E,W
07FCC:  ADDLW  E8
07FCE:  MOVWF  FE9
07FD0:  MOVLW  04
07FD2:  ADDWFC 03,W
07FD4:  MOVWF  FEA
07FD6:  CLRF   FEF
....................           
....................          if(Tpurgap[i]<0) 
07FD8:  CLRF   03
07FDA:  MOVF   x8E,W
07FDC:  ADDLW  E8
07FDE:  MOVWF  FE9
07FE0:  MOVLW  04
07FE2:  ADDWFC 03,W
07FE4:  MOVWF  FEA
07FE6:  BTFSC  FEF.7
07FE8:  BRA    7FEC
07FEA:  BRA    7FFE
....................          {Tpurgap[i]=9;} 
07FEC:  CLRF   03
07FEE:  MOVF   x8E,W
07FF0:  ADDLW  E8
07FF2:  MOVWF  FE9
07FF4:  MOVLW  04
07FF6:  ADDWFC 03,W
07FF8:  MOVWF  FEA
07FFA:  MOVLW  09
07FFC:  MOVWF  FEF
....................       }       
07FFE:  INCF   x8E,F
08000:  BRA    7FAA
....................       for(i=1;i<4;i++) 
08002:  MOVLW  01
08004:  MOVWF  x8E
08006:  MOVF   x8E,W
08008:  SUBLW  03
0800A:  BNC   8060
....................       { 
....................          if(Tpurgap[i]>5) 
0800C:  CLRF   03
0800E:  MOVF   x8E,W
08010:  ADDLW  E8
08012:  MOVWF  FE9
08014:  MOVLW  04
08016:  ADDWFC 03,W
08018:  MOVWF  FEA
0801A:  BTFSC  FEF.7
0801C:  BRA    8034
0801E:  MOVF   FEF,W
08020:  SUBLW  05
08022:  BC    8034
....................          {Tpurgap[i]=0;} 
08024:  CLRF   03
08026:  MOVF   x8E,W
08028:  ADDLW  E8
0802A:  MOVWF  FE9
0802C:  MOVLW  04
0802E:  ADDWFC 03,W
08030:  MOVWF  FEA
08032:  CLRF   FEF
....................           
....................          if(Tpurgap[i]<0) 
08034:  CLRF   03
08036:  MOVF   x8E,W
08038:  ADDLW  E8
0803A:  MOVWF  FE9
0803C:  MOVLW  04
0803E:  ADDWFC 03,W
08040:  MOVWF  FEA
08042:  BTFSC  FEF.7
08044:  BRA    8048
08046:  BRA    805A
....................          {Tpurgap[i]=5;} 
08048:  CLRF   03
0804A:  MOVF   x8E,W
0804C:  ADDLW  E8
0804E:  MOVWF  FE9
08050:  MOVLW  04
08052:  ADDWFC 03,W
08054:  MOVWF  FEA
08056:  MOVLW  05
08058:  MOVWF  FEF
....................         i++;  
0805A:  INCF   x8E,F
....................       } 
0805C:  INCF   x8E,F
0805E:  BRA    8006
....................       if(unidad<1) 
08060:  MOVLB  4
08062:  MOVF   xB3,F
08064:  BNZ   806A
....................       {unidad=4;} 
08066:  MOVLW  04
08068:  MOVWF  xB3
....................       if(Opcion<1) 
0806A:  MOVF   xB4,F
0806C:  BNZ   8072
....................       {Opcion=4;} 
0806E:  MOVLW  04
08070:  MOVWF  xB4
....................      
....................     } 
.................... //_--------------------------------------------------------------------------------------------------------------------------------------------------------        
....................  
.................... //_-------------------------------------------------------------------------------------------------------------------------------------------------------- 
....................       if(Menu==12){ //Menu de Post-Purga. 
08072:  MOVF   xB2,W
08074:  SUBLW  0C
08076:  BTFSS  FD8.2
08078:  BRA    844A
....................        
....................       strcpy(Menus.Letra,"T. Post-Purga"); 
0807A:  MOVLW  04
0807C:  MOVWF  FEA
0807E:  MOVLW  16
08080:  MOVWF  FE9
08082:  MOVFF  FF2,632
08086:  BCF    FF2.7
08088:  MOVLW  00
0808A:  MOVLB  0
0808C:  CALL   1106
08090:  TBLRD*-
08092:  TBLRD*+
08094:  MOVF   FF5,W
08096:  MOVWF  FEE
08098:  IORLW  00
0809A:  BNZ   8092
0809C:  MOVLB  6
0809E:  BTFSC  x32.7
080A0:  BSF    FF2.7
....................       displayMenu(Menus.Letra,0,0,1,2); 
080A2:  MOVLW  04
080A4:  MOVWF  x3B
080A6:  MOVLW  16
080A8:  MOVWF  x3A
080AA:  CLRF   x3C
080AC:  CLRF   x3D
080AE:  MOVLW  01
080B0:  MOVWF  x3E
080B2:  MOVLW  02
080B4:  MOVWF  x3F
080B6:  MOVLB  0
080B8:  CALL   50C0
....................        
....................       if(unidad==4) 
080BC:  MOVLB  4
080BE:  MOVF   xB3,W
080C0:  SUBLW  04
080C2:  BNZ   80E2
....................       {displayTiempo(Tppurgap[3],20,40,1,2);} 
080C4:  MOVFF  4F3,632
080C8:  MOVLW  14
080CA:  MOVLB  6
080CC:  MOVWF  x33
080CE:  MOVLW  28
080D0:  MOVWF  x34
080D2:  MOVLW  01
080D4:  MOVWF  x35
080D6:  MOVLW  02
080D8:  MOVWF  x36
080DA:  MOVLB  0
080DC:  CALL   5890
....................       else 
080E0:  BRA    80FC
....................       {displayTiempo(Tppurgap[3],20,40,0,2);} 
080E2:  MOVFF  4F3,632
080E6:  MOVLW  14
080E8:  MOVLB  6
080EA:  MOVWF  x33
080EC:  MOVLW  28
080EE:  MOVWF  x34
080F0:  CLRF   x35
080F2:  MOVLW  02
080F4:  MOVWF  x36
080F6:  MOVLB  0
080F8:  CALL   5890
....................        
....................       if(unidad==3) 
080FC:  MOVLB  4
080FE:  MOVF   xB3,W
08100:  SUBLW  03
08102:  BNZ   8120
....................       {displayTiempo(Tppurgap[2],40,40,1,2);} 
08104:  MOVFF  4F2,632
08108:  MOVLW  28
0810A:  MOVLB  6
0810C:  MOVWF  x33
0810E:  MOVWF  x34
08110:  MOVLW  01
08112:  MOVWF  x35
08114:  MOVLW  02
08116:  MOVWF  x36
08118:  MOVLB  0
0811A:  CALL   5890
....................       else 
0811E:  BRA    8138
....................       {displayTiempo(Tppurgap[2],40,40,0,2);} 
08120:  MOVFF  4F2,632
08124:  MOVLW  28
08126:  MOVLB  6
08128:  MOVWF  x33
0812A:  MOVWF  x34
0812C:  CLRF   x35
0812E:  MOVLW  02
08130:  MOVWF  x36
08132:  MOVLB  0
08134:  CALL   5890
....................        
....................       if(unidad==2) 
08138:  MOVLB  4
0813A:  MOVF   xB3,W
0813C:  SUBLW  02
0813E:  BNZ   815E
....................       {displayTiempo(Tppurgap[1],70,40,1,2);} 
08140:  MOVFF  4F1,632
08144:  MOVLW  46
08146:  MOVLB  6
08148:  MOVWF  x33
0814A:  MOVLW  28
0814C:  MOVWF  x34
0814E:  MOVLW  01
08150:  MOVWF  x35
08152:  MOVLW  02
08154:  MOVWF  x36
08156:  MOVLB  0
08158:  CALL   5890
....................       else 
0815C:  BRA    8178
....................       {displayTiempo(Tppurgap[1],70,40,0,2);} 
0815E:  MOVFF  4F1,632
08162:  MOVLW  46
08164:  MOVLB  6
08166:  MOVWF  x33
08168:  MOVLW  28
0816A:  MOVWF  x34
0816C:  CLRF   x35
0816E:  MOVLW  02
08170:  MOVWF  x36
08172:  MOVLB  0
08174:  CALL   5890
....................        
....................       if(unidad==1) 
08178:  MOVLB  4
0817A:  DECFSZ xB3,W
0817C:  BRA    819C
....................       {displayTiempo(Tppurgap[0],90,40,1,2);} 
0817E:  MOVFF  4F0,632
08182:  MOVLW  5A
08184:  MOVLB  6
08186:  MOVWF  x33
08188:  MOVLW  28
0818A:  MOVWF  x34
0818C:  MOVLW  01
0818E:  MOVWF  x35
08190:  MOVLW  02
08192:  MOVWF  x36
08194:  MOVLB  0
08196:  CALL   5890
....................       else 
0819A:  BRA    81B6
....................       {displayTiempo(Tppurgap[0],90,40,0,2);} 
0819C:  MOVFF  4F0,632
081A0:  MOVLW  5A
081A2:  MOVLB  6
081A4:  MOVWF  x33
081A6:  MOVLW  28
081A8:  MOVWF  x34
081AA:  CLRF   x35
081AC:  MOVLW  02
081AE:  MOVWF  x36
081B0:  MOVLB  0
081B2:  CALL   5890
....................        
....................       glcd_text57(60, 42, Dos_puntos, 2, ON); 
081B6:  MOVLW  3C
081B8:  MOVLB  6
081BA:  MOVWF  x4B
081BC:  MOVLW  2A
081BE:  MOVWF  x4C
081C0:  MOVLW  04
081C2:  MOVWF  x4E
081C4:  MOVLW  4D
081C6:  MOVWF  x4D
081C8:  MOVLW  02
081CA:  MOVWF  x4F
081CC:  MOVLW  01
081CE:  MOVWF  x50
081D0:  MOVLB  0
081D2:  CALL   4E50
....................           
....................          
....................       if(tup>=30)//Si oprime hacia arriba 
081D6:  MOVLB  4
081D8:  MOVF   xD7,F
081DA:  BNZ   81E2
081DC:  MOVF   xD6,W
081DE:  SUBLW  1D
081E0:  BC    820A
....................       {  if(Flanco == 0)  
081E2:  BTFSC  x2C.0
081E4:  BRA    8208
....................             {Flanco = 1;delay_ms(30);Tppurgap[unidad-1]++; 
081E6:  BSF    x2C.0
081E8:  MOVLW  1E
081EA:  MOVLB  6
081EC:  MOVWF  x46
081EE:  MOVLB  0
081F0:  CALL   1524
081F4:  MOVLW  01
081F6:  MOVLB  4
081F8:  SUBWF  xB3,W
081FA:  CLRF   03
081FC:  ADDLW  F0
081FE:  MOVWF  FE9
08200:  MOVLW  04
08202:  ADDWFC 03,W
08204:  MOVWF  FEA
08206:  INCF   FEF,F
....................             } 
....................       } 
....................          else 
08208:  BRA    820C
....................             {Flanco = 0;} 
0820A:  BCF    x2C.0
....................              
....................       if(tdown>=30)//Si oprime hacia abajo 
0820C:  MOVF   xD9,F
0820E:  BNZ   8216
08210:  MOVF   xD8,W
08212:  SUBLW  1D
08214:  BC    823E
....................       {  if(Flanco2 == 0)  
08216:  BTFSC  x2C.2
08218:  BRA    823C
....................             {Flanco2 = 1;delay_ms(30);Tppurgap[unidad-1]--; 
0821A:  BSF    x2C.2
0821C:  MOVLW  1E
0821E:  MOVLB  6
08220:  MOVWF  x46
08222:  MOVLB  0
08224:  CALL   1524
08228:  MOVLW  01
0822A:  MOVLB  4
0822C:  SUBWF  xB3,W
0822E:  CLRF   03
08230:  ADDLW  F0
08232:  MOVWF  FE9
08234:  MOVLW  04
08236:  ADDWFC 03,W
08238:  MOVWF  FEA
0823A:  DECF   FEF,F
....................             }      
....................       } 
....................          else 
0823C:  BRA    8240
....................             {Flanco2 = 0;}   
0823E:  BCF    x2C.2
....................              
....................       if(tright>=30)//Si oprime SET 
08240:  MOVF   xDB,F
08242:  BNZ   824A
08244:  MOVF   xDA,W
08246:  SUBLW  1D
08248:  BC    8262
....................       {  if(Flanco1 == 0)  
0824A:  BTFSC  x2C.1
0824C:  BRA    8260
....................             {Flanco1 = 1;delay_ms(30);unidad--; 
0824E:  BSF    x2C.1
08250:  MOVLW  1E
08252:  MOVLB  6
08254:  MOVWF  x46
08256:  MOVLB  0
08258:  CALL   1524
0825C:  MOVLB  4
0825E:  DECF   xB3,F
....................             } 
....................       } 
....................          else 
08260:  BRA    8264
....................             {Flanco1 = 0;}   
08262:  BCF    x2C.1
....................              
....................       if(tleft>=30)//Si oprime boton de Toma. 
08264:  MOVF   xDD,F
08266:  BNZ   8270
08268:  MOVF   xDC,W
0826A:  SUBLW  1D
0826C:  BTFSC  FD8.0
0826E:  BRA    837E
....................       { 
....................          delay_ms(700);Menu=4;glcd_fillscreen(OFF);Opcion=1;unidad=1; 
08270:  MOVLW  04
08272:  MOVLB  6
08274:  MOVWF  x32
08276:  MOVLW  AF
08278:  MOVWF  x46
0827A:  MOVLB  0
0827C:  CALL   1524
08280:  MOVLB  6
08282:  DECFSZ x32,F
08284:  BRA    8276
08286:  MOVLW  04
08288:  MOVLB  4
0828A:  MOVWF  xB2
0828C:  MOVLB  6
0828E:  CLRF   x3A
08290:  MOVLB  0
08292:  CALL   1582
08296:  MOVLW  01
08298:  MOVLB  4
0829A:  MOVWF  xB4
0829C:  MOVWF  xB3
....................          write_eeprom(8,Tppurgap[0]); 
0829E:  CLRF   FAA
082A0:  MOVLW  08
082A2:  MOVWF  FA9
082A4:  MOVFF  4F0,FA8
082A8:  BCF    FA6.6
082AA:  BCF    FA6.7
082AC:  BSF    FA6.2
082AE:  MOVF   FF2,W
082B0:  MOVWF  00
082B2:  BCF    FF2.7
082B4:  MOVLB  F
082B6:  MOVLW  55
082B8:  MOVWF  FA7
082BA:  MOVLW  AA
082BC:  MOVWF  FA7
082BE:  BSF    FA6.1
082C0:  BTFSC  FA6.1
082C2:  BRA    82C0
082C4:  BCF    FA6.2
082C6:  MOVF   00,W
082C8:  IORWF  FF2,F
....................          delay_ms(20); 
082CA:  MOVLW  14
082CC:  MOVLB  6
082CE:  MOVWF  x46
082D0:  MOVLB  0
082D2:  CALL   1524
....................          write_eeprom(9,Tppurgap[1]); 
082D6:  CLRF   FAA
082D8:  MOVLW  09
082DA:  MOVWF  FA9
082DC:  MOVFF  4F1,FA8
082E0:  BCF    FA6.6
082E2:  BCF    FA6.7
082E4:  BSF    FA6.2
082E6:  MOVF   FF2,W
082E8:  MOVWF  00
082EA:  BCF    FF2.7
082EC:  MOVLB  F
082EE:  MOVLW  55
082F0:  MOVWF  FA7
082F2:  MOVLW  AA
082F4:  MOVWF  FA7
082F6:  BSF    FA6.1
082F8:  BTFSC  FA6.1
082FA:  BRA    82F8
082FC:  BCF    FA6.2
082FE:  MOVF   00,W
08300:  IORWF  FF2,F
....................          delay_ms(20); 
08302:  MOVLW  14
08304:  MOVLB  6
08306:  MOVWF  x46
08308:  MOVLB  0
0830A:  CALL   1524
....................          write_eeprom(10,Tppurgap[2]); 
0830E:  CLRF   FAA
08310:  MOVLW  0A
08312:  MOVWF  FA9
08314:  MOVFF  4F2,FA8
08318:  BCF    FA6.6
0831A:  BCF    FA6.7
0831C:  BSF    FA6.2
0831E:  MOVF   FF2,W
08320:  MOVWF  00
08322:  BCF    FF2.7
08324:  MOVLB  F
08326:  MOVLW  55
08328:  MOVWF  FA7
0832A:  MOVLW  AA
0832C:  MOVWF  FA7
0832E:  BSF    FA6.1
08330:  BTFSC  FA6.1
08332:  BRA    8330
08334:  BCF    FA6.2
08336:  MOVF   00,W
08338:  IORWF  FF2,F
....................          delay_ms(20); 
0833A:  MOVLW  14
0833C:  MOVLB  6
0833E:  MOVWF  x46
08340:  MOVLB  0
08342:  CALL   1524
....................          write_eeprom(11,Tppurgap[3]); 
08346:  CLRF   FAA
08348:  MOVLW  0B
0834A:  MOVWF  FA9
0834C:  MOVFF  4F3,FA8
08350:  BCF    FA6.6
08352:  BCF    FA6.7
08354:  BSF    FA6.2
08356:  MOVF   FF2,W
08358:  MOVWF  00
0835A:  BCF    FF2.7
0835C:  MOVLB  F
0835E:  MOVLW  55
08360:  MOVWF  FA7
08362:  MOVLW  AA
08364:  MOVWF  FA7
08366:  BSF    FA6.1
08368:  BTFSC  FA6.1
0836A:  BRA    8368
0836C:  BCF    FA6.2
0836E:  MOVF   00,W
08370:  IORWF  FF2,F
....................          delay_ms(20); 
08372:  MOVLW  14
08374:  MOVLB  6
08376:  MOVWF  x46
08378:  MOVLB  0
0837A:  CALL   1524
....................       } 
....................              
....................       for(i=0;i<4;i++) 
0837E:  MOVLB  5
08380:  CLRF   x8E
08382:  MOVF   x8E,W
08384:  SUBLW  03
08386:  BNC   83DA
....................       { 
....................          if(Tppurgap[i]>9) 
08388:  CLRF   03
0838A:  MOVF   x8E,W
0838C:  ADDLW  F0
0838E:  MOVWF  FE9
08390:  MOVLW  04
08392:  ADDWFC 03,W
08394:  MOVWF  FEA
08396:  BTFSC  FEF.7
08398:  BRA    83B0
0839A:  MOVF   FEF,W
0839C:  SUBLW  09
0839E:  BC    83B0
....................          {Tppurgap[i]=0;} 
083A0:  CLRF   03
083A2:  MOVF   x8E,W
083A4:  ADDLW  F0
083A6:  MOVWF  FE9
083A8:  MOVLW  04
083AA:  ADDWFC 03,W
083AC:  MOVWF  FEA
083AE:  CLRF   FEF
....................           
....................          if(Tppurgap[i]<0) 
083B0:  CLRF   03
083B2:  MOVF   x8E,W
083B4:  ADDLW  F0
083B6:  MOVWF  FE9
083B8:  MOVLW  04
083BA:  ADDWFC 03,W
083BC:  MOVWF  FEA
083BE:  BTFSC  FEF.7
083C0:  BRA    83C4
083C2:  BRA    83D6
....................          {Tppurgap[i]=9;} 
083C4:  CLRF   03
083C6:  MOVF   x8E,W
083C8:  ADDLW  F0
083CA:  MOVWF  FE9
083CC:  MOVLW  04
083CE:  ADDWFC 03,W
083D0:  MOVWF  FEA
083D2:  MOVLW  09
083D4:  MOVWF  FEF
....................       } 
083D6:  INCF   x8E,F
083D8:  BRA    8382
....................        
....................       for(i=1;i<4;i++) 
083DA:  MOVLW  01
083DC:  MOVWF  x8E
083DE:  MOVF   x8E,W
083E0:  SUBLW  03
083E2:  BNC   8438
....................       { 
....................          if(Tppurgap[i]>5) 
083E4:  CLRF   03
083E6:  MOVF   x8E,W
083E8:  ADDLW  F0
083EA:  MOVWF  FE9
083EC:  MOVLW  04
083EE:  ADDWFC 03,W
083F0:  MOVWF  FEA
083F2:  BTFSC  FEF.7
083F4:  BRA    840C
083F6:  MOVF   FEF,W
083F8:  SUBLW  05
083FA:  BC    840C
....................          {Tppurgap[i]=0;} 
083FC:  CLRF   03
083FE:  MOVF   x8E,W
08400:  ADDLW  F0
08402:  MOVWF  FE9
08404:  MOVLW  04
08406:  ADDWFC 03,W
08408:  MOVWF  FEA
0840A:  CLRF   FEF
....................           
....................          if(Tppurgap[i]<0) 
0840C:  CLRF   03
0840E:  MOVF   x8E,W
08410:  ADDLW  F0
08412:  MOVWF  FE9
08414:  MOVLW  04
08416:  ADDWFC 03,W
08418:  MOVWF  FEA
0841A:  BTFSC  FEF.7
0841C:  BRA    8420
0841E:  BRA    8432
....................          {Tppurgap[i]=5;} 
08420:  CLRF   03
08422:  MOVF   x8E,W
08424:  ADDLW  F0
08426:  MOVWF  FE9
08428:  MOVLW  04
0842A:  ADDWFC 03,W
0842C:  MOVWF  FEA
0842E:  MOVLW  05
08430:  MOVWF  FEF
....................         i++;  
08432:  INCF   x8E,F
....................       } 
08434:  INCF   x8E,F
08436:  BRA    83DE
....................       if(unidad<1) 
08438:  MOVLB  4
0843A:  MOVF   xB3,F
0843C:  BNZ   8442
....................       {unidad=4;} 
0843E:  MOVLW  04
08440:  MOVWF  xB3
....................       if(Opcion<1) 
08442:  MOVF   xB4,F
08444:  BNZ   844A
....................       {Opcion=4;} 
08446:  MOVLW  04
08448:  MOVWF  xB4
....................      
....................     } 
.................... //_--------------------------------------------------------------------------------------------------------------------------------------------------------        
....................  
.................... //_-------------------------------------------------------------------------------------------------------------------------------------------------------- 
....................       if(Menu==5){ //Menu de Clave. 
0844A:  MOVF   xB2,W
0844C:  SUBLW  05
0844E:  BNZ   84B4
....................  
....................       PidePassword(3,5,211,Password[0],Password[1],Password[2],Password[3]); 
08450:  MOVLW  03
08452:  MOVLB  6
08454:  MOVWF  x33
08456:  MOVLW  05
08458:  MOVWF  x34
0845A:  MOVLW  D3
0845C:  MOVWF  x35
0845E:  MOVFF  504,636
08462:  MOVFF  505,637
08466:  MOVFF  506,638
0846A:  MOVFF  507,639
0846E:  MOVLB  0
08470:  CALL   518C
....................              
....................       if(tleft>=30)//Si oprime boton de Toma. 
08474:  MOVLB  4
08476:  MOVF   xDD,F
08478:  BNZ   8480
0847A:  MOVF   xDC,W
0847C:  SUBLW  1D
0847E:  BC    84B4
....................       { 
....................          delay_ms(200); 
08480:  MOVLW  C8
08482:  MOVLB  6
08484:  MOVWF  x46
08486:  MOVLB  0
08488:  CALL   1524
....................          if(unidad==1){ 
0848C:  MOVLB  4
0848E:  DECFSZ xB3,W
08490:  BRA    84B4
....................             Menu=3;glcd_fillscreen(OFF);Opcion=1;unidad=1;Contrasena[0]=0;Contrasena[1]=0;Contrasena[2]=0;Contrasena[3]=0; 
08492:  MOVLW  03
08494:  MOVWF  xB2
08496:  MOVLB  6
08498:  CLRF   x3A
0849A:  MOVLB  0
0849C:  CALL   1582
084A0:  MOVLW  01
084A2:  MOVLB  4
084A4:  MOVWF  xB4
084A6:  MOVWF  xB3
084A8:  MOVLB  5
084AA:  CLRF   x00
084AC:  CLRF   x01
084AE:  CLRF   x02
084B0:  CLRF   x03
084B2:  MOVLB  4
....................          } 
....................       }  
....................     } 
.................... //_--------------------------------------------------------------------------------------------------------------------------------------------------------        
....................  
.................... //_-------------------------------------------------------------------------------------------------------------------------------------------------------- 
....................       if(Menu==211){ //Menu de Cambio Clave. 
084B4:  MOVF   xB2,W
084B6:  SUBLW  D3
084B8:  BTFSS  FD8.2
084BA:  BRA    895C
....................        
....................       if(n==0) 
084BC:  BTFSC  x2E.3
084BE:  BRA    851E
....................       { 
....................          displayContrasena(Contrasena[0],20,30,1);displayContrasena(Contrasena[1],40,30,0); 
084C0:  MOVFF  500,63C
084C4:  MOVLW  14
084C6:  MOVLB  6
084C8:  MOVWF  x3D
084CA:  MOVLW  1E
084CC:  MOVWF  x3E
084CE:  MOVLW  01
084D0:  MOVWF  x3F
084D2:  MOVLB  0
084D4:  CALL   5008
084D8:  MOVFF  501,63C
084DC:  MOVLW  28
084DE:  MOVLB  6
084E0:  MOVWF  x3D
084E2:  MOVLW  1E
084E4:  MOVWF  x3E
084E6:  CLRF   x3F
084E8:  MOVLB  0
084EA:  CALL   5008
....................          displayContrasena(Contrasena[2],60,30,0);displayContrasena(Contrasena[0],80,30,0); 
084EE:  MOVFF  502,63C
084F2:  MOVLW  3C
084F4:  MOVLB  6
084F6:  MOVWF  x3D
084F8:  MOVLW  1E
084FA:  MOVWF  x3E
084FC:  CLRF   x3F
084FE:  MOVLB  0
08500:  CALL   5008
08504:  MOVFF  500,63C
08508:  MOVLW  50
0850A:  MOVLB  6
0850C:  MOVWF  x3D
0850E:  MOVLW  1E
08510:  MOVWF  x3E
08512:  CLRF   x3F
08514:  MOVLB  0
08516:  CALL   5008
....................          n=1; 
0851A:  MOVLB  4
0851C:  BSF    x2E.3
....................       } 
....................       strcpy(Menus.Letra,"Clave Nueva"); 
0851E:  MOVLW  04
08520:  MOVWF  FEA
08522:  MOVLW  16
08524:  MOVWF  FE9
08526:  MOVFF  FF2,632
0852A:  BCF    FF2.7
0852C:  MOVLW  00
0852E:  MOVLB  0
08530:  CALL   112E
08534:  TBLRD*-
08536:  TBLRD*+
08538:  MOVF   FF5,W
0853A:  MOVWF  FEE
0853C:  IORLW  00
0853E:  BNZ   8536
08540:  MOVLB  6
08542:  BTFSC  x32.7
08544:  BSF    FF2.7
....................       displayMenu(Menus.Letra,0,0,1,2); 
08546:  MOVLW  04
08548:  MOVWF  x3B
0854A:  MOVLW  16
0854C:  MOVWF  x3A
0854E:  CLRF   x3C
08550:  CLRF   x3D
08552:  MOVLW  01
08554:  MOVWF  x3E
08556:  MOVLW  02
08558:  MOVWF  x3F
0855A:  MOVLB  0
0855C:  CALL   50C0
....................          
....................        
....................       if(tup>=30)//Si oprime hacia arriba 
08560:  MOVLB  4
08562:  MOVF   xD7,F
08564:  BNZ   856C
08566:  MOVF   xD6,W
08568:  SUBLW  1D
0856A:  BC    863C
....................       {  if(Flanco == 0)  
0856C:  BTFSC  x2C.0
0856E:  BRA    863A
....................             {Flanco = 1;delay_ms(30); 
08570:  BSF    x2C.0
08572:  MOVLW  1E
08574:  MOVLB  6
08576:  MOVWF  x46
08578:  MOVLB  0
0857A:  CALL   1524
....................             for(i=1;i<=4;i++) 
0857E:  MOVLW  01
08580:  MOVLB  5
08582:  MOVWF  x8E
08584:  MOVF   x8E,W
08586:  SUBLW  04
08588:  BNC   8638
....................                { 
....................                   if(unidad==i) 
0858A:  MOVF   x8E,W
0858C:  MOVLB  4
0858E:  SUBWF  xB3,W
08590:  BNZ   8600
....................                   {Contrasena[i-1]++; 
08592:  MOVLW  01
08594:  MOVLB  5
08596:  SUBWF  x8E,W
08598:  CLRF   03
0859A:  MOVWF  FE9
0859C:  MOVLW  05
0859E:  ADDWF  03,W
085A0:  MOVWF  FEA
085A2:  INCF   FEF,F
....................                   if(Contrasena[i-1]>9) 
085A4:  MOVLW  01
085A6:  SUBWF  x8E,W
085A8:  CLRF   03
085AA:  MOVWF  FE9
085AC:  MOVLW  05
085AE:  ADDWF  03,W
085B0:  MOVWF  FEA
085B2:  BTFSC  FEF.7
085B4:  BRA    85CC
085B6:  MOVF   FEF,W
085B8:  SUBLW  09
085BA:  BC    85CC
....................                         {Contrasena[i-1]=0;} 
085BC:  MOVLW  01
085BE:  SUBWF  x8E,W
085C0:  CLRF   03
085C2:  MOVWF  FE9
085C4:  MOVLW  05
085C6:  ADDWF  03,W
085C8:  MOVWF  FEA
085CA:  CLRF   FEF
....................                   displayContrasena(Contrasena[i-1],i*20,30,1);} 
085CC:  MOVLW  01
085CE:  SUBWF  x8E,W
085D0:  CLRF   03
085D2:  MOVWF  FE9
085D4:  MOVLW  05
085D6:  ADDWF  03,W
085D8:  MOVWF  FEA
085DA:  MOVFF  FEF,632
085DE:  MOVF   x8E,W
085E0:  MULLW  14
085E2:  MOVFF  FF3,633
085E6:  MOVLB  6
085E8:  MOVFF  632,63C
085EC:  MOVFF  633,63D
085F0:  MOVLW  1E
085F2:  MOVWF  x3E
085F4:  MOVLW  01
085F6:  MOVWF  x3F
085F8:  MOVLB  0
085FA:  CALL   5008
....................                   else 
085FE:  BRA    8632
....................                   {displayContrasena(Contrasena[i-1],i*20,30,0);} 
08600:  MOVLW  01
08602:  MOVLB  5
08604:  SUBWF  x8E,W
08606:  CLRF   03
08608:  MOVWF  FE9
0860A:  MOVLW  05
0860C:  ADDWF  03,W
0860E:  MOVWF  FEA
08610:  MOVFF  FEF,632
08614:  MOVF   x8E,W
08616:  MULLW  14
08618:  MOVFF  FF3,633
0861C:  MOVLB  6
0861E:  MOVFF  632,63C
08622:  MOVFF  633,63D
08626:  MOVLW  1E
08628:  MOVWF  x3E
0862A:  CLRF   x3F
0862C:  MOVLB  0
0862E:  CALL   5008
....................                } 
08632:  MOVLB  5
08634:  INCF   x8E,F
08636:  BRA    8584
08638:  MOVLB  4
....................             } 
....................       } 
....................          else 
0863A:  BRA    863E
....................             {Flanco = 0;} 
0863C:  BCF    x2C.0
....................              
....................       if(tdown>=30)//Si oprime hacia abajo 
0863E:  MOVF   xD9,F
08640:  BNZ   8648
08642:  MOVF   xD8,W
08644:  SUBLW  1D
08646:  BC    8716
....................       {  if(Flanco2 == 0)  
08648:  BTFSC  x2C.2
0864A:  BRA    8714
....................             {Flanco2 = 1;delay_ms(30); 
0864C:  BSF    x2C.2
0864E:  MOVLW  1E
08650:  MOVLB  6
08652:  MOVWF  x46
08654:  MOVLB  0
08656:  CALL   1524
....................                for(i=1;i<=4;i++) 
0865A:  MOVLW  01
0865C:  MOVLB  5
0865E:  MOVWF  x8E
08660:  MOVF   x8E,W
08662:  SUBLW  04
08664:  BNC   8712
....................                { 
....................                   if(unidad==i) 
08666:  MOVF   x8E,W
08668:  MOVLB  4
0866A:  SUBWF  xB3,W
0866C:  BNZ   86DA
....................                   {Contrasena[i-1]--;  
0866E:  MOVLW  01
08670:  MOVLB  5
08672:  SUBWF  x8E,W
08674:  CLRF   03
08676:  MOVWF  FE9
08678:  MOVLW  05
0867A:  ADDWF  03,W
0867C:  MOVWF  FEA
0867E:  DECF   FEF,F
....................                      if(Contrasena[i-1]<0) 
08680:  MOVLW  01
08682:  SUBWF  x8E,W
08684:  CLRF   03
08686:  MOVWF  FE9
08688:  MOVLW  05
0868A:  ADDWF  03,W
0868C:  MOVWF  FEA
0868E:  BTFSC  FEF.7
08690:  BRA    8694
08692:  BRA    86A6
....................                         {Contrasena[i-1]=9;} 
08694:  MOVLW  01
08696:  SUBWF  x8E,W
08698:  CLRF   03
0869A:  MOVWF  FE9
0869C:  MOVLW  05
0869E:  ADDWF  03,W
086A0:  MOVWF  FEA
086A2:  MOVLW  09
086A4:  MOVWF  FEF
....................                    displayContrasena(Contrasena[i-1],i*20,30,1);} 
086A6:  MOVLW  01
086A8:  SUBWF  x8E,W
086AA:  CLRF   03
086AC:  MOVWF  FE9
086AE:  MOVLW  05
086B0:  ADDWF  03,W
086B2:  MOVWF  FEA
086B4:  MOVFF  FEF,632
086B8:  MOVF   x8E,W
086BA:  MULLW  14
086BC:  MOVFF  FF3,633
086C0:  MOVLB  6
086C2:  MOVFF  632,63C
086C6:  MOVFF  633,63D
086CA:  MOVLW  1E
086CC:  MOVWF  x3E
086CE:  MOVLW  01
086D0:  MOVWF  x3F
086D2:  MOVLB  0
086D4:  CALL   5008
....................                   else 
086D8:  BRA    870C
....................                   {displayContrasena(Contrasena[i-1],i*20,30,0);} 
086DA:  MOVLW  01
086DC:  MOVLB  5
086DE:  SUBWF  x8E,W
086E0:  CLRF   03
086E2:  MOVWF  FE9
086E4:  MOVLW  05
086E6:  ADDWF  03,W
086E8:  MOVWF  FEA
086EA:  MOVFF  FEF,632
086EE:  MOVF   x8E,W
086F0:  MULLW  14
086F2:  MOVFF  FF3,633
086F6:  MOVLB  6
086F8:  MOVFF  632,63C
086FC:  MOVFF  633,63D
08700:  MOVLW  1E
08702:  MOVWF  x3E
08704:  CLRF   x3F
08706:  MOVLB  0
08708:  CALL   5008
....................                }       
0870C:  MOVLB  5
0870E:  INCF   x8E,F
08710:  BRA    8660
08712:  MOVLB  4
....................             }      
....................       } 
....................          else 
08714:  BRA    8718
....................             {Flanco2 = 0;}   
08716:  BCF    x2C.2
....................              
....................       if(tright>=30)//Si oprime SET 
08718:  MOVF   xDB,F
0871A:  BNZ   8722
0871C:  MOVF   xDA,W
0871E:  SUBLW  1D
08720:  BC    87BE
....................       {  if(Flanco1 == 0)  
08722:  BTFSC  x2C.1
08724:  BRA    87BC
....................             {Flanco1 = 1;delay_ms(30);unidad++; 
08726:  BSF    x2C.1
08728:  MOVLW  1E
0872A:  MOVLB  6
0872C:  MOVWF  x46
0872E:  MOVLB  0
08730:  CALL   1524
08734:  MOVLB  4
08736:  INCF   xB3,F
....................                for(i=1;i<=4;i++) 
08738:  MOVLW  01
0873A:  MOVLB  5
0873C:  MOVWF  x8E
0873E:  MOVF   x8E,W
08740:  SUBLW  04
08742:  BNC   87BA
....................                { 
....................                   if(unidad==i) 
08744:  MOVF   x8E,W
08746:  MOVLB  4
08748:  SUBWF  xB3,W
0874A:  BNZ   8782
....................                   {displayContrasena(Contrasena[i-1],i*20,30,1);} 
0874C:  MOVLW  01
0874E:  MOVLB  5
08750:  SUBWF  x8E,W
08752:  CLRF   03
08754:  MOVWF  FE9
08756:  MOVLW  05
08758:  ADDWF  03,W
0875A:  MOVWF  FEA
0875C:  MOVFF  FEF,632
08760:  MOVF   x8E,W
08762:  MULLW  14
08764:  MOVFF  FF3,633
08768:  MOVLB  6
0876A:  MOVFF  632,63C
0876E:  MOVFF  633,63D
08772:  MOVLW  1E
08774:  MOVWF  x3E
08776:  MOVLW  01
08778:  MOVWF  x3F
0877A:  MOVLB  0
0877C:  CALL   5008
....................                   else 
08780:  BRA    87B4
....................                   {displayContrasena(Contrasena[i-1],i*20,30,0);} 
08782:  MOVLW  01
08784:  MOVLB  5
08786:  SUBWF  x8E,W
08788:  CLRF   03
0878A:  MOVWF  FE9
0878C:  MOVLW  05
0878E:  ADDWF  03,W
08790:  MOVWF  FEA
08792:  MOVFF  FEF,632
08796:  MOVF   x8E,W
08798:  MULLW  14
0879A:  MOVFF  FF3,633
0879E:  MOVLB  6
087A0:  MOVFF  632,63C
087A4:  MOVFF  633,63D
087A8:  MOVLW  1E
087AA:  MOVWF  x3E
087AC:  CLRF   x3F
087AE:  MOVLB  0
087B0:  CALL   5008
....................                } 
087B4:  MOVLB  5
087B6:  INCF   x8E,F
087B8:  BRA    873E
087BA:  MOVLB  4
....................             } 
....................       } 
....................          else 
087BC:  BRA    87C0
....................             {Flanco1 = 0;}   
087BE:  BCF    x2C.1
....................              
....................       if(tleft>=30)//Si oprime boton de Toma. 
087C0:  MOVF   xDD,F
087C2:  BNZ   87CA
087C4:  MOVF   xDC,W
087C6:  SUBLW  1D
087C8:  BC    8808
....................       { 
....................          delay_ms(700); 
087CA:  MOVLW  04
087CC:  MOVLB  6
087CE:  MOVWF  x32
087D0:  MOVLW  AF
087D2:  MOVWF  x46
087D4:  MOVLB  0
087D6:  CALL   1524
087DA:  MOVLB  6
087DC:  DECFSZ x32,F
087DE:  BRA    87D0
....................          if(unidad==1){ 
087E0:  MOVLB  4
087E2:  DECFSZ xB3,W
087E4:  BRA    8808
....................             Menu=3;glcd_fillscreen(OFF);Opcion=1;unidad=1;Contrasena[0]=0;Contrasena[1]=0;Contrasena[2]=0;Contrasena[3]=0; 
087E6:  MOVLW  03
087E8:  MOVWF  xB2
087EA:  MOVLB  6
087EC:  CLRF   x3A
087EE:  MOVLB  0
087F0:  CALL   1582
087F4:  MOVLW  01
087F6:  MOVLB  4
087F8:  MOVWF  xB4
087FA:  MOVWF  xB3
087FC:  MOVLB  5
087FE:  CLRF   x00
08800:  CLRF   x01
08802:  CLRF   x02
08804:  CLRF   x03
08806:  MOVLB  4
....................          } 
....................       } 
....................        
....................       if(unidad>4) 
08808:  MOVF   xB3,W
0880A:  SUBLW  04
0880C:  BTFSC  FD8.0
0880E:  BRA    895C
....................       { 
....................          Opcion=1;glcd_fillscreen(OFF);unidad=1;n=0; 
08810:  MOVLW  01
08812:  MOVWF  xB4
08814:  MOVLB  6
08816:  CLRF   x3A
08818:  MOVLB  0
0881A:  CALL   1582
0881E:  MOVLW  01
08820:  MOVLB  4
08822:  MOVWF  xB3
08824:  BCF    x2E.3
....................          Password[0]=Contrasena[0];Password[1]=Contrasena[1];Password[2]=Contrasena[2];Password[3]=Contrasena[3]; 
08826:  MOVFF  500,504
0882A:  MOVFF  501,505
0882E:  MOVFF  502,506
08832:  MOVFF  503,507
....................          write_eeprom(0,Password[0]); 
08836:  CLRF   FAA
08838:  CLRF   FA9
0883A:  MOVFF  504,FA8
0883E:  BCF    FA6.6
08840:  BCF    FA6.7
08842:  BSF    FA6.2
08844:  MOVF   FF2,W
08846:  MOVWF  00
08848:  BCF    FF2.7
0884A:  MOVLB  F
0884C:  MOVLW  55
0884E:  MOVWF  FA7
08850:  MOVLW  AA
08852:  MOVWF  FA7
08854:  BSF    FA6.1
08856:  BTFSC  FA6.1
08858:  BRA    8856
0885A:  BCF    FA6.2
0885C:  MOVF   00,W
0885E:  IORWF  FF2,F
....................          delay_ms(20); 
08860:  MOVLW  14
08862:  MOVLB  6
08864:  MOVWF  x46
08866:  MOVLB  0
08868:  CALL   1524
....................          write_eeprom(1,Password[1]); 
0886C:  CLRF   FAA
0886E:  MOVLW  01
08870:  MOVWF  FA9
08872:  MOVFF  505,FA8
08876:  BCF    FA6.6
08878:  BCF    FA6.7
0887A:  BSF    FA6.2
0887C:  MOVF   FF2,W
0887E:  MOVWF  00
08880:  BCF    FF2.7
08882:  MOVLB  F
08884:  MOVLW  55
08886:  MOVWF  FA7
08888:  MOVLW  AA
0888A:  MOVWF  FA7
0888C:  BSF    FA6.1
0888E:  BTFSC  FA6.1
08890:  BRA    888E
08892:  BCF    FA6.2
08894:  MOVF   00,W
08896:  IORWF  FF2,F
....................          delay_ms(20); 
08898:  MOVLW  14
0889A:  MOVLB  6
0889C:  MOVWF  x46
0889E:  MOVLB  0
088A0:  CALL   1524
....................          write_eeprom(2,Password[2]); 
088A4:  CLRF   FAA
088A6:  MOVLW  02
088A8:  MOVWF  FA9
088AA:  MOVFF  506,FA8
088AE:  BCF    FA6.6
088B0:  BCF    FA6.7
088B2:  BSF    FA6.2
088B4:  MOVF   FF2,W
088B6:  MOVWF  00
088B8:  BCF    FF2.7
088BA:  MOVLB  F
088BC:  MOVLW  55
088BE:  MOVWF  FA7
088C0:  MOVLW  AA
088C2:  MOVWF  FA7
088C4:  BSF    FA6.1
088C6:  BTFSC  FA6.1
088C8:  BRA    88C6
088CA:  BCF    FA6.2
088CC:  MOVF   00,W
088CE:  IORWF  FF2,F
....................          delay_ms(20); 
088D0:  MOVLW  14
088D2:  MOVLB  6
088D4:  MOVWF  x46
088D6:  MOVLB  0
088D8:  CALL   1524
....................          write_eeprom(3,Password[3]); 
088DC:  CLRF   FAA
088DE:  MOVLW  03
088E0:  MOVWF  FA9
088E2:  MOVFF  507,FA8
088E6:  BCF    FA6.6
088E8:  BCF    FA6.7
088EA:  BSF    FA6.2
088EC:  MOVF   FF2,W
088EE:  MOVWF  00
088F0:  BCF    FF2.7
088F2:  MOVLB  F
088F4:  MOVLW  55
088F6:  MOVWF  FA7
088F8:  MOVLW  AA
088FA:  MOVWF  FA7
088FC:  BSF    FA6.1
088FE:  BTFSC  FA6.1
08900:  BRA    88FE
08902:  BCF    FA6.2
08904:  MOVF   00,W
08906:  IORWF  FF2,F
....................          delay_ms(20); 
08908:  MOVLW  14
0890A:  MOVLB  6
0890C:  MOVWF  x46
0890E:  MOVLB  0
08910:  CALL   1524
....................          glcd_imagen(1);glcd_update();Menu=211;delay_ms(1000);glcd_fillScreen(OFF);Menu=3; 
08914:  MOVLW  01
08916:  MOVLB  6
08918:  MOVWF  x32
0891A:  MOVLB  0
0891C:  CALL   598C
08920:  CALL   15DC
08924:  MOVLW  D3
08926:  MOVLB  4
08928:  MOVWF  xB2
0892A:  MOVLW  04
0892C:  MOVLB  6
0892E:  MOVWF  x32
08930:  MOVLW  FA
08932:  MOVWF  x46
08934:  MOVLB  0
08936:  CALL   1524
0893A:  MOVLB  6
0893C:  DECFSZ x32,F
0893E:  BRA    8930
08940:  CLRF   x3A
08942:  MOVLB  0
08944:  CALL   1582
08948:  MOVLW  03
0894A:  MOVLB  4
0894C:  MOVWF  xB2
....................          n=0; 
0894E:  BCF    x2E.3
....................          Contrasena[0]=0;Contrasena[1]=0;Contrasena[2]=0;Contrasena[3]=0; 
08950:  MOVLB  5
08952:  CLRF   x00
08954:  CLRF   x01
08956:  CLRF   x02
08958:  CLRF   x03
0895A:  MOVLB  4
....................       } 
....................      
....................     } 
.................... //_--------------------------------------------------------------------------------------------------------------------------------------------------------        
....................  
.................... //_-------------------------------------------------------------------------------------------------------------------------------------------------------- 
....................       if(Menu==31){ //Menu de Mantenimiento. 
0895C:  MOVF   xB2,W
0895E:  SUBLW  1F
08960:  BTFSS  FD8.2
08962:  BRA    8CDE
....................        
....................          strcpy(Menus.Letra,"Manteniento"); 
08964:  MOVLW  04
08966:  MOVWF  FEA
08968:  MOVLW  16
0896A:  MOVWF  FE9
0896C:  MOVFF  FF2,632
08970:  BCF    FF2.7
08972:  MOVLW  00
08974:  MOVLB  0
08976:  CALL   1154
0897A:  TBLRD*-
0897C:  TBLRD*+
0897E:  MOVF   FF5,W
08980:  MOVWF  FEE
08982:  IORLW  00
08984:  BNZ   897C
08986:  MOVLB  6
08988:  BTFSC  x32.7
0898A:  BSF    FF2.7
....................          displayMenu(Menus.Letra,0,0,1,2); 
0898C:  MOVLW  04
0898E:  MOVWF  x3B
08990:  MOVLW  16
08992:  MOVWF  x3A
08994:  CLRF   x3C
08996:  CLRF   x3D
08998:  MOVLW  01
0899A:  MOVWF  x3E
0899C:  MOVLW  02
0899E:  MOVWF  x3F
089A0:  MOVLB  0
089A2:  CALL   50C0
....................           
....................          strcpy(Menus.Letra,"Trabajo Filtro(h):"); 
089A6:  MOVLW  04
089A8:  MOVWF  FEA
089AA:  MOVLW  16
089AC:  MOVWF  FE9
089AE:  MOVFF  FF2,632
089B2:  BCF    FF2.7
089B4:  MOVLW  00
089B6:  CALL   117A
089BA:  TBLRD*-
089BC:  TBLRD*+
089BE:  MOVF   FF5,W
089C0:  MOVWF  FEE
089C2:  IORLW  00
089C4:  BNZ   89BC
089C6:  MOVLB  6
089C8:  BTFSC  x32.7
089CA:  BSF    FF2.7
....................          displayMenu(Menus.Letra,10,20,1,1); 
089CC:  MOVLW  04
089CE:  MOVWF  x3B
089D0:  MOVLW  16
089D2:  MOVWF  x3A
089D4:  MOVLW  0A
089D6:  MOVWF  x3C
089D8:  MOVLW  14
089DA:  MOVWF  x3D
089DC:  MOVLW  01
089DE:  MOVWF  x3E
089E0:  MOVWF  x3F
089E2:  MOVLB  0
089E4:  CALL   50C0
....................          glcd_text57(0, 31, Vida_Filtro, 1, ON); 
089E8:  MOVLB  6
089EA:  CLRF   x4B
089EC:  MOVLW  1F
089EE:  MOVWF  x4C
089F0:  MOVLW  04
089F2:  MOVWF  x4E
089F4:  MOVLW  99
089F6:  MOVWF  x4D
089F8:  MOVLW  01
089FA:  MOVWF  x4F
089FC:  MOVWF  x50
089FE:  MOVLB  0
08A00:  CALL   4E50
....................          displayTiempo(Ttrabajo[3],60,30,0,1);displayTiempo(Ttrabajo[2],67,30,0,1);displayTiempo(Ttrabajo[1],74,30,0,1);displayTiempo(Ttrabajo[0],82,30,0,1); 
08A04:  MOVFF  4FF,632
08A08:  MOVLW  3C
08A0A:  MOVLB  6
08A0C:  MOVWF  x33
08A0E:  MOVLW  1E
08A10:  MOVWF  x34
08A12:  CLRF   x35
08A14:  MOVLW  01
08A16:  MOVWF  x36
08A18:  MOVLB  0
08A1A:  CALL   5890
08A1E:  MOVFF  4FE,632
08A22:  MOVLW  43
08A24:  MOVLB  6
08A26:  MOVWF  x33
08A28:  MOVLW  1E
08A2A:  MOVWF  x34
08A2C:  CLRF   x35
08A2E:  MOVLW  01
08A30:  MOVWF  x36
08A32:  MOVLB  0
08A34:  CALL   5890
08A38:  MOVFF  4FD,632
08A3C:  MOVLW  4A
08A3E:  MOVLB  6
08A40:  MOVWF  x33
08A42:  MOVLW  1E
08A44:  MOVWF  x34
08A46:  CLRF   x35
08A48:  MOVLW  01
08A4A:  MOVWF  x36
08A4C:  MOVLB  0
08A4E:  CALL   5890
08A52:  MOVFF  4FC,632
08A56:  MOVLW  52
08A58:  MOVLB  6
08A5A:  MOVWF  x33
08A5C:  MOVLW  1E
08A5E:  MOVWF  x34
08A60:  CLRF   x35
08A62:  MOVLW  01
08A64:  MOVWF  x36
08A66:  MOVLB  0
08A68:  CALL   5890
....................           
....................          LuzBlanca_on; 
08A6C:  BCF    F8B.2
08A6E:  BCF    F94.2
....................           
....................             if(tup>=30 && tright>=30) // Reinicia Tiempo de Luz UV 
08A70:  MOVLB  4
08A72:  MOVF   xD7,F
08A74:  BNZ   8A7E
08A76:  MOVF   xD6,W
08A78:  SUBLW  1D
08A7A:  BTFSC  FD8.0
08A7C:  BRA    8B96
08A7E:  MOVF   xDB,F
08A80:  BNZ   8A8A
08A82:  MOVF   xDA,W
08A84:  SUBLW  1D
08A86:  BTFSC  FD8.0
08A88:  BRA    8B96
....................             { 
....................                   delay_ms(2000); 
08A8A:  MOVLW  08
08A8C:  MOVLB  6
08A8E:  MOVWF  x32
08A90:  MOVLW  FA
08A92:  MOVWF  x46
08A94:  MOVLB  0
08A96:  CALL   1524
08A9A:  MOVLB  6
08A9C:  DECFSZ x32,F
08A9E:  BRA    8A90
....................                   write_eeprom(12,0); 
08AA0:  CLRF   FAA
08AA2:  MOVLW  0C
08AA4:  MOVWF  FA9
08AA6:  CLRF   FA8
08AA8:  BCF    FA6.6
08AAA:  BCF    FA6.7
08AAC:  BSF    FA6.2
08AAE:  MOVF   FF2,W
08AB0:  MOVWF  00
08AB2:  BCF    FF2.7
08AB4:  MOVLB  F
08AB6:  MOVLW  55
08AB8:  MOVWF  FA7
08ABA:  MOVLW  AA
08ABC:  MOVWF  FA7
08ABE:  BSF    FA6.1
08AC0:  BTFSC  FA6.1
08AC2:  BRA    8AC0
08AC4:  BCF    FA6.2
08AC6:  MOVF   00,W
08AC8:  IORWF  FF2,F
....................                   delay_ms(20); 
08ACA:  MOVLW  14
08ACC:  MOVLB  6
08ACE:  MOVWF  x46
08AD0:  MOVLB  0
08AD2:  CALL   1524
....................                   write_eeprom(13,0); 
08AD6:  CLRF   FAA
08AD8:  MOVLW  0D
08ADA:  MOVWF  FA9
08ADC:  CLRF   FA8
08ADE:  BCF    FA6.6
08AE0:  BCF    FA6.7
08AE2:  BSF    FA6.2
08AE4:  MOVF   FF2,W
08AE6:  MOVWF  00
08AE8:  BCF    FF2.7
08AEA:  MOVLB  F
08AEC:  MOVLW  55
08AEE:  MOVWF  FA7
08AF0:  MOVLW  AA
08AF2:  MOVWF  FA7
08AF4:  BSF    FA6.1
08AF6:  BTFSC  FA6.1
08AF8:  BRA    8AF6
08AFA:  BCF    FA6.2
08AFC:  MOVF   00,W
08AFE:  IORWF  FF2,F
....................                   delay_ms(20); 
08B00:  MOVLW  14
08B02:  MOVLB  6
08B04:  MOVWF  x46
08B06:  MOVLB  0
08B08:  CALL   1524
....................                   write_eeprom(14,0); 
08B0C:  CLRF   FAA
08B0E:  MOVLW  0E
08B10:  MOVWF  FA9
08B12:  CLRF   FA8
08B14:  BCF    FA6.6
08B16:  BCF    FA6.7
08B18:  BSF    FA6.2
08B1A:  MOVF   FF2,W
08B1C:  MOVWF  00
08B1E:  BCF    FF2.7
08B20:  MOVLB  F
08B22:  MOVLW  55
08B24:  MOVWF  FA7
08B26:  MOVLW  AA
08B28:  MOVWF  FA7
08B2A:  BSF    FA6.1
08B2C:  BTFSC  FA6.1
08B2E:  BRA    8B2C
08B30:  BCF    FA6.2
08B32:  MOVF   00,W
08B34:  IORWF  FF2,F
....................                   delay_ms(20); 
08B36:  MOVLW  14
08B38:  MOVLB  6
08B3A:  MOVWF  x46
08B3C:  MOVLB  0
08B3E:  CALL   1524
....................                   write_eeprom(15,0); 
08B42:  CLRF   FAA
08B44:  MOVLW  0F
08B46:  MOVWF  FA9
08B48:  CLRF   FA8
08B4A:  BCF    FA6.6
08B4C:  BCF    FA6.7
08B4E:  BSF    FA6.2
08B50:  MOVF   FF2,W
08B52:  MOVWF  00
08B54:  BCF    FF2.7
08B56:  MOVLB  F
08B58:  MOVLW  55
08B5A:  MOVWF  FA7
08B5C:  MOVLW  AA
08B5E:  MOVWF  FA7
08B60:  BSF    FA6.1
08B62:  BTFSC  FA6.1
08B64:  BRA    8B62
08B66:  BCF    FA6.2
08B68:  MOVF   00,W
08B6A:  IORWF  FF2,F
....................                   delay_ms(20); 
08B6C:  MOVLW  14
08B6E:  MOVLB  6
08B70:  MOVWF  x46
08B72:  MOVLB  0
08B74:  CALL   1524
....................                   Tuv[3]=0;Tuv[2]=0;Tuv[1]=0;Tuv[0]=0; 
08B78:  MOVLB  4
08B7A:  CLRF   xF7
08B7C:  CLRF   xF6
08B7E:  CLRF   xF5
08B80:  CLRF   xF4
....................                   Menu=3;glcd_fillscreen(OFF);LuzBlanca_off; 
08B82:  MOVLW  03
08B84:  MOVWF  xB2
08B86:  MOVLB  6
08B88:  CLRF   x3A
08B8A:  MOVLB  0
08B8C:  CALL   1582
08B90:  BSF    F8B.2
08B92:  BCF    F94.2
08B94:  MOVLB  4
....................                 
....................             } 
....................             if(tdown>=30 && tright>=30) // Reinicia Tiempo de Trabajo 
08B96:  MOVF   xD9,F
08B98:  BNZ   8BA2
08B9A:  MOVF   xD8,W
08B9C:  SUBLW  1D
08B9E:  BTFSC  FD8.0
08BA0:  BRA    8CBA
08BA2:  MOVF   xDB,F
08BA4:  BNZ   8BAE
08BA6:  MOVF   xDA,W
08BA8:  SUBLW  1D
08BAA:  BTFSC  FD8.0
08BAC:  BRA    8CBA
....................             { 
....................                   delay_ms(2000); 
08BAE:  MOVLW  08
08BB0:  MOVLB  6
08BB2:  MOVWF  x32
08BB4:  MOVLW  FA
08BB6:  MOVWF  x46
08BB8:  MOVLB  0
08BBA:  CALL   1524
08BBE:  MOVLB  6
08BC0:  DECFSZ x32,F
08BC2:  BRA    8BB4
....................                   write_eeprom(16,0); 
08BC4:  CLRF   FAA
08BC6:  MOVLW  10
08BC8:  MOVWF  FA9
08BCA:  CLRF   FA8
08BCC:  BCF    FA6.6
08BCE:  BCF    FA6.7
08BD0:  BSF    FA6.2
08BD2:  MOVF   FF2,W
08BD4:  MOVWF  00
08BD6:  BCF    FF2.7
08BD8:  MOVLB  F
08BDA:  MOVLW  55
08BDC:  MOVWF  FA7
08BDE:  MOVLW  AA
08BE0:  MOVWF  FA7
08BE2:  BSF    FA6.1
08BE4:  BTFSC  FA6.1
08BE6:  BRA    8BE4
08BE8:  BCF    FA6.2
08BEA:  MOVF   00,W
08BEC:  IORWF  FF2,F
....................                   delay_ms(20); 
08BEE:  MOVLW  14
08BF0:  MOVLB  6
08BF2:  MOVWF  x46
08BF4:  MOVLB  0
08BF6:  CALL   1524
....................                   write_eeprom(17,0); 
08BFA:  CLRF   FAA
08BFC:  MOVLW  11
08BFE:  MOVWF  FA9
08C00:  CLRF   FA8
08C02:  BCF    FA6.6
08C04:  BCF    FA6.7
08C06:  BSF    FA6.2
08C08:  MOVF   FF2,W
08C0A:  MOVWF  00
08C0C:  BCF    FF2.7
08C0E:  MOVLB  F
08C10:  MOVLW  55
08C12:  MOVWF  FA7
08C14:  MOVLW  AA
08C16:  MOVWF  FA7
08C18:  BSF    FA6.1
08C1A:  BTFSC  FA6.1
08C1C:  BRA    8C1A
08C1E:  BCF    FA6.2
08C20:  MOVF   00,W
08C22:  IORWF  FF2,F
....................                   delay_ms(20); 
08C24:  MOVLW  14
08C26:  MOVLB  6
08C28:  MOVWF  x46
08C2A:  MOVLB  0
08C2C:  CALL   1524
....................                   write_eeprom(18,0); 
08C30:  CLRF   FAA
08C32:  MOVLW  12
08C34:  MOVWF  FA9
08C36:  CLRF   FA8
08C38:  BCF    FA6.6
08C3A:  BCF    FA6.7
08C3C:  BSF    FA6.2
08C3E:  MOVF   FF2,W
08C40:  MOVWF  00
08C42:  BCF    FF2.7
08C44:  MOVLB  F
08C46:  MOVLW  55
08C48:  MOVWF  FA7
08C4A:  MOVLW  AA
08C4C:  MOVWF  FA7
08C4E:  BSF    FA6.1
08C50:  BTFSC  FA6.1
08C52:  BRA    8C50
08C54:  BCF    FA6.2
08C56:  MOVF   00,W
08C58:  IORWF  FF2,F
....................                   delay_ms(20); 
08C5A:  MOVLW  14
08C5C:  MOVLB  6
08C5E:  MOVWF  x46
08C60:  MOVLB  0
08C62:  CALL   1524
....................                   write_eeprom(19,0); 
08C66:  CLRF   FAA
08C68:  MOVLW  13
08C6A:  MOVWF  FA9
08C6C:  CLRF   FA8
08C6E:  BCF    FA6.6
08C70:  BCF    FA6.7
08C72:  BSF    FA6.2
08C74:  MOVF   FF2,W
08C76:  MOVWF  00
08C78:  BCF    FF2.7
08C7A:  MOVLB  F
08C7C:  MOVLW  55
08C7E:  MOVWF  FA7
08C80:  MOVLW  AA
08C82:  MOVWF  FA7
08C84:  BSF    FA6.1
08C86:  BTFSC  FA6.1
08C88:  BRA    8C86
08C8A:  BCF    FA6.2
08C8C:  MOVF   00,W
08C8E:  IORWF  FF2,F
....................                   delay_ms(20); 
08C90:  MOVLW  14
08C92:  MOVLB  6
08C94:  MOVWF  x46
08C96:  MOVLB  0
08C98:  CALL   1524
....................                   Ttrabajo[3]=0;Ttrabajo[2]=0;Ttrabajo[1]=0;Ttrabajo[0]=0; 
08C9C:  MOVLB  4
08C9E:  CLRF   xFF
08CA0:  CLRF   xFE
08CA2:  CLRF   xFD
08CA4:  CLRF   xFC
....................                   Menu=3;glcd_fillscreen(OFF);LuzBlanca_off; 
08CA6:  MOVLW  03
08CA8:  MOVWF  xB2
08CAA:  MOVLB  6
08CAC:  CLRF   x3A
08CAE:  MOVLB  0
08CB0:  CALL   1582
08CB4:  BSF    F8B.2
08CB6:  BCF    F94.2
08CB8:  MOVLB  4
....................             } 
....................              
....................             if(tleft>=30) 
08CBA:  MOVF   xDD,F
08CBC:  BNZ   8CC4
08CBE:  MOVF   xDC,W
08CC0:  SUBLW  1D
08CC2:  BC    8CDE
....................             { 
....................                Menu=6;glcd_fillscreen(OFF);LuzBlanca_off;Opcion=1;unidad=1; 
08CC4:  MOVLW  06
08CC6:  MOVWF  xB2
08CC8:  MOVLB  6
08CCA:  CLRF   x3A
08CCC:  MOVLB  0
08CCE:  CALL   1582
08CD2:  BSF    F8B.2
08CD4:  BCF    F94.2
08CD6:  MOVLW  01
08CD8:  MOVLB  4
08CDA:  MOVWF  xB4
08CDC:  MOVWF  xB3
....................             } 
....................     } 
.................... //_--------------------------------------------------------------------------------------------------------------------------------------------------------        
....................  
.................... //_-------------------------------------------------------------------------------------------------------------------------------------------------------- 
....................       if(Menu==32){ //Menu de Servicio 
08CDE:  MOVF   xB2,W
08CE0:  SUBLW  20
08CE2:  BTFSS  FD8.2
08CE4:  BRA    90A2
....................        
....................       strcpy(Menus.Letra,"Servicio"); 
08CE6:  MOVLW  04
08CE8:  MOVWF  FEA
08CEA:  MOVLW  16
08CEC:  MOVWF  FE9
08CEE:  MOVFF  FF2,632
08CF2:  BCF    FF2.7
08CF4:  MOVLW  00
08CF6:  MOVLB  0
08CF8:  CALL   10BE
08CFC:  TBLRD*-
08CFE:  TBLRD*+
08D00:  MOVF   FF5,W
08D02:  MOVWF  FEE
08D04:  IORLW  00
08D06:  BNZ   8CFE
08D08:  MOVLB  6
08D0A:  BTFSC  x32.7
08D0C:  BSF    FF2.7
....................       displayMenu(Menus.Letra,10,0,1,2); 
08D0E:  MOVLW  04
08D10:  MOVWF  x3B
08D12:  MOVLW  16
08D14:  MOVWF  x3A
08D16:  MOVLW  0A
08D18:  MOVWF  x3C
08D1A:  CLRF   x3D
08D1C:  MOVLW  01
08D1E:  MOVWF  x3E
08D20:  MOVLW  02
08D22:  MOVWF  x3F
08D24:  MOVLB  0
08D26:  CALL   50C0
....................        
....................       if(Opcion==1)    
08D2A:  MOVLB  4
08D2C:  DECFSZ xB4,W
08D2E:  BRA    8D76
....................          {strcpy(Menus.Letra,"Sensor de Flujo"); 
08D30:  MOVLW  04
08D32:  MOVWF  FEA
08D34:  MOVLW  16
08D36:  MOVWF  FE9
08D38:  MOVFF  FF2,632
08D3C:  BCF    FF2.7
08D3E:  MOVLW  00
08D40:  MOVLB  0
08D42:  CALL   11A8
08D46:  TBLRD*-
08D48:  TBLRD*+
08D4A:  MOVF   FF5,W
08D4C:  MOVWF  FEE
08D4E:  IORLW  00
08D50:  BNZ   8D48
08D52:  MOVLB  6
08D54:  BTFSC  x32.7
08D56:  BSF    FF2.7
....................          displayMenu(Menus.Letra,0,18,1,1);} 
08D58:  MOVLW  04
08D5A:  MOVWF  x3B
08D5C:  MOVLW  16
08D5E:  MOVWF  x3A
08D60:  CLRF   x3C
08D62:  MOVLW  12
08D64:  MOVWF  x3D
08D66:  MOVLW  01
08D68:  MOVWF  x3E
08D6A:  MOVWF  x3F
08D6C:  MOVLB  0
08D6E:  CALL   50C0
....................       else 
08D72:  BRA    8DB8
08D74:  MOVLB  4
....................          {strcpy(Menus.Letra,"Sensor de Flujo"); 
08D76:  MOVLW  04
08D78:  MOVWF  FEA
08D7A:  MOVLW  16
08D7C:  MOVWF  FE9
08D7E:  MOVFF  FF2,632
08D82:  BCF    FF2.7
08D84:  MOVLW  00
08D86:  MOVLB  0
08D88:  CALL   11A8
08D8C:  TBLRD*-
08D8E:  TBLRD*+
08D90:  MOVF   FF5,W
08D92:  MOVWF  FEE
08D94:  IORLW  00
08D96:  BNZ   8D8E
08D98:  MOVLB  6
08D9A:  BTFSC  x32.7
08D9C:  BSF    FF2.7
....................          displayMenu(Menus.Letra,0,18,0,1);}  
08D9E:  MOVLW  04
08DA0:  MOVWF  x3B
08DA2:  MOVLW  16
08DA4:  MOVWF  x3A
08DA6:  CLRF   x3C
08DA8:  MOVLW  12
08DAA:  MOVWF  x3D
08DAC:  CLRF   x3E
08DAE:  MOVLW  01
08DB0:  MOVWF  x3F
08DB2:  MOVLB  0
08DB4:  CALL   50C0
....................           
....................       if(Opcion==2)    
08DB8:  MOVLB  4
08DBA:  MOVF   xB4,W
08DBC:  SUBLW  02
08DBE:  BNZ   8E06
....................          {strcpy(Menus.Letra,"Sensor de Presion"); 
08DC0:  MOVLW  04
08DC2:  MOVWF  FEA
08DC4:  MOVLW  16
08DC6:  MOVWF  FE9
08DC8:  MOVFF  FF2,632
08DCC:  BCF    FF2.7
08DCE:  MOVLW  00
08DD0:  MOVLB  0
08DD2:  CALL   11D2
08DD6:  TBLRD*-
08DD8:  TBLRD*+
08DDA:  MOVF   FF5,W
08DDC:  MOVWF  FEE
08DDE:  IORLW  00
08DE0:  BNZ   8DD8
08DE2:  MOVLB  6
08DE4:  BTFSC  x32.7
08DE6:  BSF    FF2.7
....................          displayMenu(Menus.Letra,0,29,1,1);} 
08DE8:  MOVLW  04
08DEA:  MOVWF  x3B
08DEC:  MOVLW  16
08DEE:  MOVWF  x3A
08DF0:  CLRF   x3C
08DF2:  MOVLW  1D
08DF4:  MOVWF  x3D
08DF6:  MOVLW  01
08DF8:  MOVWF  x3E
08DFA:  MOVWF  x3F
08DFC:  MOVLB  0
08DFE:  CALL   50C0
....................       else 
08E02:  BRA    8E48
08E04:  MOVLB  4
....................          {strcpy(Menus.Letra,"Sensor de Presion"); 
08E06:  MOVLW  04
08E08:  MOVWF  FEA
08E0A:  MOVLW  16
08E0C:  MOVWF  FE9
08E0E:  MOVFF  FF2,632
08E12:  BCF    FF2.7
08E14:  MOVLW  00
08E16:  MOVLB  0
08E18:  CALL   11D2
08E1C:  TBLRD*-
08E1E:  TBLRD*+
08E20:  MOVF   FF5,W
08E22:  MOVWF  FEE
08E24:  IORLW  00
08E26:  BNZ   8E1E
08E28:  MOVLB  6
08E2A:  BTFSC  x32.7
08E2C:  BSF    FF2.7
....................          displayMenu(Menus.Letra,0,29,0,1);}   
08E2E:  MOVLW  04
08E30:  MOVWF  x3B
08E32:  MOVLW  16
08E34:  MOVWF  x3A
08E36:  CLRF   x3C
08E38:  MOVLW  1D
08E3A:  MOVWF  x3D
08E3C:  CLRF   x3E
08E3E:  MOVLW  01
08E40:  MOVWF  x3F
08E42:  MOVLB  0
08E44:  CALL   50C0
....................        
....................       if(Opcion==3)    
08E48:  MOVLB  4
08E4A:  MOVF   xB4,W
08E4C:  SUBLW  03
08E4E:  BNZ   8E96
....................          {strcpy(Menus.Letra,"Velocidad Ventilador"); 
08E50:  MOVLW  04
08E52:  MOVWF  FEA
08E54:  MOVLW  16
08E56:  MOVWF  FE9
08E58:  MOVFF  FF2,632
08E5C:  BCF    FF2.7
08E5E:  MOVLW  00
08E60:  MOVLB  0
08E62:  CALL   11FE
08E66:  TBLRD*-
08E68:  TBLRD*+
08E6A:  MOVF   FF5,W
08E6C:  MOVWF  FEE
08E6E:  IORLW  00
08E70:  BNZ   8E68
08E72:  MOVLB  6
08E74:  BTFSC  x32.7
08E76:  BSF    FF2.7
....................          displayMenu(Menus.Letra,0,40,1,1);} 
08E78:  MOVLW  04
08E7A:  MOVWF  x3B
08E7C:  MOVLW  16
08E7E:  MOVWF  x3A
08E80:  CLRF   x3C
08E82:  MOVLW  28
08E84:  MOVWF  x3D
08E86:  MOVLW  01
08E88:  MOVWF  x3E
08E8A:  MOVWF  x3F
08E8C:  MOVLB  0
08E8E:  CALL   50C0
....................       else 
08E92:  BRA    8ED8
08E94:  MOVLB  4
....................          {strcpy(Menus.Letra,"Velocidad Ventilador"); 
08E96:  MOVLW  04
08E98:  MOVWF  FEA
08E9A:  MOVLW  16
08E9C:  MOVWF  FE9
08E9E:  MOVFF  FF2,632
08EA2:  BCF    FF2.7
08EA4:  MOVLW  00
08EA6:  MOVLB  0
08EA8:  CALL   11FE
08EAC:  TBLRD*-
08EAE:  TBLRD*+
08EB0:  MOVF   FF5,W
08EB2:  MOVWF  FEE
08EB4:  IORLW  00
08EB6:  BNZ   8EAE
08EB8:  MOVLB  6
08EBA:  BTFSC  x32.7
08EBC:  BSF    FF2.7
....................          displayMenu(Menus.Letra,0,40,0,1);}  
08EBE:  MOVLW  04
08EC0:  MOVWF  x3B
08EC2:  MOVLW  16
08EC4:  MOVWF  x3A
08EC6:  CLRF   x3C
08EC8:  MOVLW  28
08ECA:  MOVWF  x3D
08ECC:  CLRF   x3E
08ECE:  MOVLW  01
08ED0:  MOVWF  x3F
08ED2:  MOVLB  0
08ED4:  CALL   50C0
....................           
....................       if(Opcion==4)    
08ED8:  MOVLB  4
08EDA:  MOVF   xB4,W
08EDC:  SUBLW  04
08EDE:  BNZ   8F26
....................          {strcpy(Menus.Letra,"Variador"); 
08EE0:  MOVLW  04
08EE2:  MOVWF  FEA
08EE4:  MOVLW  16
08EE6:  MOVWF  FE9
08EE8:  MOVFF  FF2,632
08EEC:  BCF    FF2.7
08EEE:  MOVLW  00
08EF0:  MOVLB  0
08EF2:  CALL   122E
08EF6:  TBLRD*-
08EF8:  TBLRD*+
08EFA:  MOVF   FF5,W
08EFC:  MOVWF  FEE
08EFE:  IORLW  00
08F00:  BNZ   8EF8
08F02:  MOVLB  6
08F04:  BTFSC  x32.7
08F06:  BSF    FF2.7
....................          displayMenu(Menus.Letra,0,50,1,1);} 
08F08:  MOVLW  04
08F0A:  MOVWF  x3B
08F0C:  MOVLW  16
08F0E:  MOVWF  x3A
08F10:  CLRF   x3C
08F12:  MOVLW  32
08F14:  MOVWF  x3D
08F16:  MOVLW  01
08F18:  MOVWF  x3E
08F1A:  MOVWF  x3F
08F1C:  MOVLB  0
08F1E:  CALL   50C0
....................       else 
08F22:  BRA    8F68
08F24:  MOVLB  4
....................          {strcpy(Menus.Letra,"Variador"); 
08F26:  MOVLW  04
08F28:  MOVWF  FEA
08F2A:  MOVLW  16
08F2C:  MOVWF  FE9
08F2E:  MOVFF  FF2,632
08F32:  BCF    FF2.7
08F34:  MOVLW  00
08F36:  MOVLB  0
08F38:  CALL   122E
08F3C:  TBLRD*-
08F3E:  TBLRD*+
08F40:  MOVF   FF5,W
08F42:  MOVWF  FEE
08F44:  IORLW  00
08F46:  BNZ   8F3E
08F48:  MOVLB  6
08F4A:  BTFSC  x32.7
08F4C:  BSF    FF2.7
....................          displayMenu(Menus.Letra,0,50,0,1);}    
08F4E:  MOVLW  04
08F50:  MOVWF  x3B
08F52:  MOVLW  16
08F54:  MOVWF  x3A
08F56:  CLRF   x3C
08F58:  MOVLW  32
08F5A:  MOVWF  x3D
08F5C:  CLRF   x3E
08F5E:  MOVLW  01
08F60:  MOVWF  x3F
08F62:  MOVLB  0
08F64:  CALL   50C0
....................        
....................          
....................       if(tup>=30)//Si oprime hacia arriba 
08F68:  MOVLB  4
08F6A:  MOVF   xD7,F
08F6C:  BNZ   8F74
08F6E:  MOVF   xD6,W
08F70:  SUBLW  1D
08F72:  BC    8F8C
....................       {  if(Flanco == 0)  
08F74:  BTFSC  x2C.0
08F76:  BRA    8F8A
....................             {Flanco = 1;delay_ms(30);Opcion--; 
08F78:  BSF    x2C.0
08F7A:  MOVLW  1E
08F7C:  MOVLB  6
08F7E:  MOVWF  x46
08F80:  MOVLB  0
08F82:  CALL   1524
08F86:  MOVLB  4
08F88:  DECF   xB4,F
....................             } 
....................       } 
....................          else 
08F8A:  BRA    8F8E
....................             {Flanco = 0;} 
08F8C:  BCF    x2C.0
....................              
....................       if(tdown>=30)//Si oprime hacia abajo 
08F8E:  MOVF   xD9,F
08F90:  BNZ   8F98
08F92:  MOVF   xD8,W
08F94:  SUBLW  1D
08F96:  BC    8FB0
....................       {  if(Flanco2 == 0)  
08F98:  BTFSC  x2C.2
08F9A:  BRA    8FAE
....................             {Flanco2 = 1;delay_ms(30);Opcion++; 
08F9C:  BSF    x2C.2
08F9E:  MOVLW  1E
08FA0:  MOVLB  6
08FA2:  MOVWF  x46
08FA4:  MOVLB  0
08FA6:  CALL   1524
08FAA:  MOVLB  4
08FAC:  INCF   xB4,F
....................             }      
....................       } 
....................          else 
08FAE:  BRA    8FB2
....................             {Flanco2 = 0;}   
08FB0:  BCF    x2C.2
....................              
....................       if(tright>=30)//Si oprime SET 
08FB2:  MOVF   xDB,F
08FB4:  BNZ   8FBC
08FB6:  MOVF   xDA,W
08FB8:  SUBLW  1D
08FBA:  BC    9054
....................       {   
....................          delay_ms(20); 
08FBC:  MOVLW  14
08FBE:  MOVLB  6
08FC0:  MOVWF  x46
08FC2:  MOVLB  0
08FC4:  CALL   1524
....................          if(RIGHT){ 
08FC8:  BSF    F96.1
08FCA:  BTFSC  F84.1
08FCC:  BRA    9056
....................             delay_ms(100); 
08FCE:  MOVLW  64
08FD0:  MOVLB  6
08FD2:  MOVWF  x46
08FD4:  MOVLB  0
08FD6:  CALL   1524
....................             glcd_fillScreen(OFF); 
08FDA:  MOVLB  6
08FDC:  CLRF   x3A
08FDE:  MOVLB  0
08FE0:  CALL   1582
....................              
....................             while(!PidePassword(6,32,Opcion+40,4,4,4,4)){ 
08FE4:  MOVLW  28
08FE6:  MOVLB  4
08FE8:  ADDWF  xB4,W
08FEA:  MOVLB  6
08FEC:  MOVWF  x32
08FEE:  MOVLW  06
08FF0:  MOVWF  x33
08FF2:  MOVLW  20
08FF4:  MOVWF  x34
08FF6:  MOVFF  632,635
08FFA:  MOVLW  04
08FFC:  MOVWF  x36
08FFE:  MOVWF  x37
09000:  MOVWF  x38
09002:  MOVWF  x39
09004:  MOVLB  0
09006:  CALL   518C
0900A:  MOVF   01,F
0900C:  BNZ   903A
....................                PidePassword(6,32,Opcion+40,4,4,4,4);glcd_update(); 
0900E:  MOVLW  28
09010:  MOVLB  4
09012:  ADDWF  xB4,W
09014:  MOVLB  6
09016:  MOVWF  x32
09018:  MOVLW  06
0901A:  MOVWF  x33
0901C:  MOVLW  20
0901E:  MOVWF  x34
09020:  MOVFF  632,635
09024:  MOVLW  04
09026:  MOVWF  x36
09028:  MOVWF  x37
0902A:  MOVWF  x38
0902C:  MOVWF  x39
0902E:  MOVLB  0
09030:  CALL   518C
09034:  CALL   15DC
....................             }  
09038:  BRA    8FE4
....................              
....................             Menu=Opcion+40; 
0903A:  MOVLW  28
0903C:  MOVLB  4
0903E:  ADDWF  xB4,W
09040:  MOVWF  xB2
....................             glcd_fillScreen(OFF);Opcion=1;unidad=1; 
09042:  MOVLB  6
09044:  CLRF   x3A
09046:  MOVLB  0
09048:  CALL   1582
0904C:  MOVLW  01
0904E:  MOVLB  4
09050:  MOVWF  xB4
09052:  MOVWF  xB3
09054:  MOVLB  0
....................          } 
....................       } 
....................              
....................       if(tleft>=30)//Si oprime boton de Toma. 
09056:  MOVLB  4
09058:  MOVF   xDD,F
0905A:  BNZ   9062
0905C:  MOVF   xDC,W
0905E:  SUBLW  1D
09060:  BC    9090
....................         {delay_ms(700);Menu=6;glcd_fillscreen(OFF);Opcion=1;unidad=1;} 
09062:  MOVLW  04
09064:  MOVLB  6
09066:  MOVWF  x32
09068:  MOVLW  AF
0906A:  MOVWF  x46
0906C:  MOVLB  0
0906E:  CALL   1524
09072:  MOVLB  6
09074:  DECFSZ x32,F
09076:  BRA    9068
09078:  MOVLW  06
0907A:  MOVLB  4
0907C:  MOVWF  xB2
0907E:  MOVLB  6
09080:  CLRF   x3A
09082:  MOVLB  0
09084:  CALL   1582
09088:  MOVLW  01
0908A:  MOVLB  4
0908C:  MOVWF  xB4
0908E:  MOVWF  xB3
....................          
....................       if(Opcion>4) 
09090:  MOVF   xB4,W
09092:  SUBLW  04
09094:  BC    909A
....................       {Opcion=1;} 
09096:  MOVLW  01
09098:  MOVWF  xB4
....................       if(Opcion<1) 
0909A:  MOVF   xB4,F
0909C:  BNZ   90A2
....................       {Opcion=4;} 
0909E:  MOVLW  04
090A0:  MOVWF  xB4
....................     } 
.................... //_--------------------------------------------------------------------------------------------------------------------------------------------------------        
....................  
.................... //_-------------------------------------------------------------------------------------------------------------------------------------------------------- 
....................       if(Menu==33){ //Menu de Apagado de Cabina. 
090A2:  MOVF   xB2,W
090A4:  SUBLW  21
090A6:  BTFSS  FD8.2
090A8:  BRA    942A
....................        
....................       strcpy(Menus.Letra,"  Apagar?"); 
090AA:  MOVLW  04
090AC:  MOVWF  FEA
090AE:  MOVLW  16
090B0:  MOVWF  FE9
090B2:  MOVFF  FF2,632
090B6:  BCF    FF2.7
090B8:  MOVLW  00
090BA:  MOVLB  0
090BC:  CALL   1252
090C0:  TBLRD*-
090C2:  TBLRD*+
090C4:  MOVF   FF5,W
090C6:  MOVWF  FEE
090C8:  IORLW  00
090CA:  BNZ   90C2
090CC:  MOVLB  6
090CE:  BTFSC  x32.7
090D0:  BSF    FF2.7
....................       displayMenu(Menus.Letra,10,0,1,2); 
090D2:  MOVLW  04
090D4:  MOVWF  x3B
090D6:  MOVLW  16
090D8:  MOVWF  x3A
090DA:  MOVLW  0A
090DC:  MOVWF  x3C
090DE:  CLRF   x3D
090E0:  MOVLW  01
090E2:  MOVWF  x3E
090E4:  MOVLW  02
090E6:  MOVWF  x3F
090E8:  MOVLB  0
090EA:  CALL   50C0
....................        
....................       if(unidad==1) 
090EE:  MOVLB  4
090F0:  DECFSZ xB3,W
090F2:  BRA    9180
....................       {strcpy(Menus.Letra,"SI"); 
090F4:  MOVLW  04
090F6:  MOVWF  FEA
090F8:  MOVLW  16
090FA:  MOVWF  FE9
090FC:  MOVFF  FF2,632
09100:  BCF    FF2.7
09102:  MOVLW  00
09104:  MOVLB  0
09106:  CALL   1276
0910A:  TBLRD*-
0910C:  TBLRD*+
0910E:  MOVF   FF5,W
09110:  MOVWF  FEE
09112:  IORLW  00
09114:  BNZ   910C
09116:  MOVLB  6
09118:  BTFSC  x32.7
0911A:  BSF    FF2.7
....................       displayMenu(Menus.Letra,50,25,1,2); 
0911C:  MOVLW  04
0911E:  MOVWF  x3B
09120:  MOVLW  16
09122:  MOVWF  x3A
09124:  MOVLW  32
09126:  MOVWF  x3C
09128:  MOVLW  19
0912A:  MOVWF  x3D
0912C:  MOVLW  01
0912E:  MOVWF  x3E
09130:  MOVLW  02
09132:  MOVWF  x3F
09134:  MOVLB  0
09136:  CALL   50C0
....................       strcpy(Menus.Letra,"NO"); 
0913A:  MOVLW  04
0913C:  MOVWF  FEA
0913E:  MOVLW  16
09140:  MOVWF  FE9
09142:  MOVFF  FF2,632
09146:  BCF    FF2.7
09148:  MOVLW  00
0914A:  CALL   1294
0914E:  TBLRD*-
09150:  TBLRD*+
09152:  MOVF   FF5,W
09154:  MOVWF  FEE
09156:  IORLW  00
09158:  BNZ   9150
0915A:  MOVLB  6
0915C:  BTFSC  x32.7
0915E:  BSF    FF2.7
....................       displayMenu(Menus.Letra,50,45,0,2);} 
09160:  MOVLW  04
09162:  MOVWF  x3B
09164:  MOVLW  16
09166:  MOVWF  x3A
09168:  MOVLW  32
0916A:  MOVWF  x3C
0916C:  MOVLW  2D
0916E:  MOVWF  x3D
09170:  CLRF   x3E
09172:  MOVLW  02
09174:  MOVWF  x3F
09176:  MOVLB  0
09178:  CALL   50C0
....................       else 
0917C:  BRA    9208
0917E:  MOVLB  4
....................       {strcpy(Menus.Letra,"SI"); 
09180:  MOVLW  04
09182:  MOVWF  FEA
09184:  MOVLW  16
09186:  MOVWF  FE9
09188:  MOVFF  FF2,632
0918C:  BCF    FF2.7
0918E:  MOVLW  00
09190:  MOVLB  0
09192:  CALL   1276
09196:  TBLRD*-
09198:  TBLRD*+
0919A:  MOVF   FF5,W
0919C:  MOVWF  FEE
0919E:  IORLW  00
091A0:  BNZ   9198
091A2:  MOVLB  6
091A4:  BTFSC  x32.7
091A6:  BSF    FF2.7
....................       displayMenu(Menus.Letra,50,25,0,2); 
091A8:  MOVLW  04
091AA:  MOVWF  x3B
091AC:  MOVLW  16
091AE:  MOVWF  x3A
091B0:  MOVLW  32
091B2:  MOVWF  x3C
091B4:  MOVLW  19
091B6:  MOVWF  x3D
091B8:  CLRF   x3E
091BA:  MOVLW  02
091BC:  MOVWF  x3F
091BE:  MOVLB  0
091C0:  CALL   50C0
....................       strcpy(Menus.Letra,"NO"); 
091C4:  MOVLW  04
091C6:  MOVWF  FEA
091C8:  MOVLW  16
091CA:  MOVWF  FE9
091CC:  MOVFF  FF2,632
091D0:  BCF    FF2.7
091D2:  MOVLW  00
091D4:  CALL   1294
091D8:  TBLRD*-
091DA:  TBLRD*+
091DC:  MOVF   FF5,W
091DE:  MOVWF  FEE
091E0:  IORLW  00
091E2:  BNZ   91DA
091E4:  MOVLB  6
091E6:  BTFSC  x32.7
091E8:  BSF    FF2.7
....................       displayMenu(Menus.Letra,50,45,1,2);} 
091EA:  MOVLW  04
091EC:  MOVWF  x3B
091EE:  MOVLW  16
091F0:  MOVWF  x3A
091F2:  MOVLW  32
091F4:  MOVWF  x3C
091F6:  MOVLW  2D
091F8:  MOVWF  x3D
091FA:  MOVLW  01
091FC:  MOVWF  x3E
091FE:  MOVLW  02
09200:  MOVWF  x3F
09202:  MOVLB  0
09204:  CALL   50C0
....................        
....................        
....................          
....................       if(tup>=30)//Si oprime hacia arriba 
09208:  MOVLB  4
0920A:  MOVF   xD7,F
0920C:  BNZ   9214
0920E:  MOVF   xD6,W
09210:  SUBLW  1D
09212:  BC    9224
....................       {   
....................          delay_ms(90);unidad++; 
09214:  MOVLW  5A
09216:  MOVLB  6
09218:  MOVWF  x46
0921A:  MOVLB  0
0921C:  CALL   1524
09220:  MOVLB  4
09222:  INCF   xB3,F
....................       } 
....................              
....................       if(tdown>=30)//Si oprime hacia abajo 
09224:  MOVF   xD9,F
09226:  BNZ   922E
09228:  MOVF   xD8,W
0922A:  SUBLW  1D
0922C:  BC    923E
....................       { 
....................          delay_ms(90);unidad--; 
0922E:  MOVLW  5A
09230:  MOVLB  6
09232:  MOVWF  x46
09234:  MOVLB  0
09236:  CALL   1524
0923A:  MOVLB  4
0923C:  DECF   xB3,F
....................       } 
....................              
....................       if(tright>=30){//Si oprime SET 
0923E:  MOVF   xDB,F
09240:  BNZ   924A
09242:  MOVF   xDA,W
09244:  SUBLW  1D
09246:  BTFSC  FD8.0
09248:  BRA    93DE
....................          delay_ms(30); 
0924A:  MOVLW  1E
0924C:  MOVLB  6
0924E:  MOVWF  x46
09250:  MOVLB  0
09252:  CALL   1524
....................          if(Flanco4==0){ 
09256:  MOVLB  4
09258:  BTFSC  x2C.4
0925A:  BRA    93DC
....................             if(unidad==1){ 
0925C:  DECFSZ xB3,W
0925E:  BRA    93CA
....................                glcd_fillscreen(OFF); 
09260:  MOVLB  6
09262:  CLRF   x3A
09264:  MOVLB  0
09266:  CALL   1582
....................                write_eeprom(33,make8(minutos_trabajo,0)); 
0926A:  MOVFF  4D2,632
0926E:  CLRF   FAA
09270:  MOVLW  21
09272:  MOVWF  FA9
09274:  MOVFF  632,FA8
09278:  BCF    FA6.6
0927A:  BCF    FA6.7
0927C:  BSF    FA6.2
0927E:  MOVF   FF2,W
09280:  MOVWF  00
09282:  BCF    FF2.7
09284:  MOVLB  F
09286:  MOVLW  55
09288:  MOVWF  FA7
0928A:  MOVLW  AA
0928C:  MOVWF  FA7
0928E:  BSF    FA6.1
09290:  BTFSC  FA6.1
09292:  BRA    9290
09294:  BCF    FA6.2
09296:  MOVF   00,W
09298:  IORWF  FF2,F
....................                delay_ms(20); 
0929A:  MOVLW  14
0929C:  MOVLB  6
0929E:  MOVWF  x46
092A0:  MOVLB  0
092A2:  CALL   1524
....................                write_eeprom(34,make8(minutos_trabajo,1)); 
092A6:  MOVFF  4D3,632
092AA:  CLRF   FAA
092AC:  MOVLW  22
092AE:  MOVWF  FA9
092B0:  MOVFF  632,FA8
092B4:  BCF    FA6.6
092B6:  BCF    FA6.7
092B8:  BSF    FA6.2
092BA:  MOVF   FF2,W
092BC:  MOVWF  00
092BE:  BCF    FF2.7
092C0:  MOVLB  F
092C2:  MOVLW  55
092C4:  MOVWF  FA7
092C6:  MOVLW  AA
092C8:  MOVWF  FA7
092CA:  BSF    FA6.1
092CC:  BTFSC  FA6.1
092CE:  BRA    92CC
092D0:  BCF    FA6.2
092D2:  MOVF   00,W
092D4:  IORWF  FF2,F
....................                delay_ms(20); 
092D6:  MOVLW  14
092D8:  MOVLB  6
092DA:  MOVWF  x46
092DC:  MOVLB  0
092DE:  CALL   1524
....................                write_eeprom(16,Ttrabajo[0]); 
092E2:  CLRF   FAA
092E4:  MOVLW  10
092E6:  MOVWF  FA9
092E8:  MOVFF  4FC,FA8
092EC:  BCF    FA6.6
092EE:  BCF    FA6.7
092F0:  BSF    FA6.2
092F2:  MOVF   FF2,W
092F4:  MOVWF  00
092F6:  BCF    FF2.7
092F8:  MOVLB  F
092FA:  MOVLW  55
092FC:  MOVWF  FA7
092FE:  MOVLW  AA
09300:  MOVWF  FA7
09302:  BSF    FA6.1
09304:  BTFSC  FA6.1
09306:  BRA    9304
09308:  BCF    FA6.2
0930A:  MOVF   00,W
0930C:  IORWF  FF2,F
....................                delay_ms(20); 
0930E:  MOVLW  14
09310:  MOVLB  6
09312:  MOVWF  x46
09314:  MOVLB  0
09316:  CALL   1524
....................                write_eeprom(17,Ttrabajo[1]); 
0931A:  CLRF   FAA
0931C:  MOVLW  11
0931E:  MOVWF  FA9
09320:  MOVFF  4FD,FA8
09324:  BCF    FA6.6
09326:  BCF    FA6.7
09328:  BSF    FA6.2
0932A:  MOVF   FF2,W
0932C:  MOVWF  00
0932E:  BCF    FF2.7
09330:  MOVLB  F
09332:  MOVLW  55
09334:  MOVWF  FA7
09336:  MOVLW  AA
09338:  MOVWF  FA7
0933A:  BSF    FA6.1
0933C:  BTFSC  FA6.1
0933E:  BRA    933C
09340:  BCF    FA6.2
09342:  MOVF   00,W
09344:  IORWF  FF2,F
....................                delay_ms(20); 
09346:  MOVLW  14
09348:  MOVLB  6
0934A:  MOVWF  x46
0934C:  MOVLB  0
0934E:  CALL   1524
....................                write_eeprom(18,Ttrabajo[2]); 
09352:  CLRF   FAA
09354:  MOVLW  12
09356:  MOVWF  FA9
09358:  MOVFF  4FE,FA8
0935C:  BCF    FA6.6
0935E:  BCF    FA6.7
09360:  BSF    FA6.2
09362:  MOVF   FF2,W
09364:  MOVWF  00
09366:  BCF    FF2.7
09368:  MOVLB  F
0936A:  MOVLW  55
0936C:  MOVWF  FA7
0936E:  MOVLW  AA
09370:  MOVWF  FA7
09372:  BSF    FA6.1
09374:  BTFSC  FA6.1
09376:  BRA    9374
09378:  BCF    FA6.2
0937A:  MOVF   00,W
0937C:  IORWF  FF2,F
....................                delay_ms(20); 
0937E:  MOVLW  14
09380:  MOVLB  6
09382:  MOVWF  x46
09384:  MOVLB  0
09386:  CALL   1524
....................                write_eeprom(19,Ttrabajo[3]); 
0938A:  CLRF   FAA
0938C:  MOVLW  13
0938E:  MOVWF  FA9
09390:  MOVFF  4FF,FA8
09394:  BCF    FA6.6
09396:  BCF    FA6.7
09398:  BSF    FA6.2
0939A:  MOVF   FF2,W
0939C:  MOVWF  00
0939E:  BCF    FF2.7
093A0:  MOVLB  F
093A2:  MOVLW  55
093A4:  MOVWF  FA7
093A6:  MOVLW  AA
093A8:  MOVWF  FA7
093AA:  BSF    FA6.1
093AC:  BTFSC  FA6.1
093AE:  BRA    93AC
093B0:  BCF    FA6.2
093B2:  MOVF   00,W
093B4:  IORWF  FF2,F
....................                delay_ms(20); 
093B6:  MOVLW  14
093B8:  MOVLB  6
093BA:  MOVWF  x46
093BC:  MOVLB  0
093BE:  CALL   1524
....................                Menu=120; 
093C2:  MOVLW  78
093C4:  MOVLB  4
093C6:  MOVWF  xB2
....................                //reset_cpu(); 
....................             } 
....................             else{ 
093C8:  BRA    93DA
....................                Menu=2;glcd_fillscreen(OFF); 
093CA:  MOVLW  02
093CC:  MOVWF  xB2
093CE:  MOVLB  6
093D0:  CLRF   x3A
093D2:  MOVLB  0
093D4:  CALL   1582
093D8:  MOVLB  4
....................             } 
....................             Flanco4=1; 
093DA:  BSF    x2C.4
....................          } 
....................       }else{ 
093DC:  BRA    93E0
....................          Flanco4=0; 
093DE:  BCF    x2C.4
....................       } 
....................              
....................       if(tleft>=30)//Si oprime boton de Toma. 
093E0:  MOVF   xDD,F
093E2:  BNZ   93EA
093E4:  MOVF   xDC,W
093E6:  SUBLW  1D
093E8:  BC    9416
....................       { 
....................          if(Flanco3==0){ 
093EA:  BTFSC  x2C.3
093EC:  BRA    9414
....................             delay_ms(30);Menu=2;glcd_fillscreen(OFF);Opcion=1;unidad=1; 
093EE:  MOVLW  1E
093F0:  MOVLB  6
093F2:  MOVWF  x46
093F4:  MOVLB  0
093F6:  CALL   1524
093FA:  MOVLW  02
093FC:  MOVLB  4
093FE:  MOVWF  xB2
09400:  MOVLB  6
09402:  CLRF   x3A
09404:  MOVLB  0
09406:  CALL   1582
0940A:  MOVLW  01
0940C:  MOVLB  4
0940E:  MOVWF  xB4
09410:  MOVWF  xB3
....................             Flanco3=1; 
09412:  BSF    x2C.3
....................          } 
....................       }else{ 
09414:  BRA    9418
....................          Flanco3=0; 
09416:  BCF    x2C.3
....................       } 
....................        
....................       if(unidad>2) 
09418:  MOVF   xB3,W
0941A:  SUBLW  02
0941C:  BC    9422
....................       {unidad=1;} 
0941E:  MOVLW  01
09420:  MOVWF  xB3
....................       if(unidad<1) 
09422:  MOVF   xB3,F
09424:  BNZ   942A
....................       {unidad=2;} 
09426:  MOVLW  02
09428:  MOVWF  xB3
....................      
....................     } 
.................... //_--------------------------------------------------------------------------------------------------------------------------------------------------------        
....................  
.................... //_-------------------------------------------------------------------------------------------------------------------------------------------------------- 
....................       if(Menu==41){ //Menu de Sensor de Flujo. 
0942A:  MOVF   xB2,W
0942C:  SUBLW  29
0942E:  BTFSS  FD8.2
09430:  BRA    9A10
....................        
....................       if(Ajuste1>10.0) 
09432:  MOVLB  6
09434:  CLRF   x66
09436:  CLRF   x65
09438:  MOVLW  20
0943A:  MOVWF  x64
0943C:  MOVLW  82
0943E:  MOVWF  x63
09440:  MOVFF  51F,66A
09444:  MOVFF  51E,669
09448:  MOVFF  51D,668
0944C:  MOVFF  51C,667
09450:  MOVLB  0
09452:  CALL   2910
09456:  BNC   9464
....................          Ajuste1=0.0; 
09458:  MOVLB  5
0945A:  CLRF   x1F
0945C:  CLRF   x1E
0945E:  CLRF   x1D
09460:  CLRF   x1C
09462:  MOVLB  0
....................        
....................       strcpy(Menus.Letra,"Sensor de Flujo"); 
09464:  MOVLW  04
09466:  MOVWF  FEA
09468:  MOVLW  16
0946A:  MOVWF  FE9
0946C:  MOVFF  FF2,632
09470:  BCF    FF2.7
09472:  MOVLW  00
09474:  CALL   11A8
09478:  TBLRD*-
0947A:  TBLRD*+
0947C:  MOVF   FF5,W
0947E:  MOVWF  FEE
09480:  IORLW  00
09482:  BNZ   947A
09484:  MOVLB  6
09486:  BTFSC  x32.7
09488:  BSF    FF2.7
....................       displayMenu(Menus.Letra,10,0,1,1); 
0948A:  MOVLW  04
0948C:  MOVWF  x3B
0948E:  MOVLW  16
09490:  MOVWF  x3A
09492:  MOVLW  0A
09494:  MOVWF  x3C
09496:  CLRF   x3D
09498:  MOVLW  01
0949A:  MOVWF  x3E
0949C:  MOVWF  x3F
0949E:  MOVLB  0
094A0:  CALL   50C0
....................        
....................       glcd_text57(0, 12, ZF, 1, ON); 
094A4:  MOVLB  6
094A6:  CLRF   x4B
094A8:  MOVLW  0C
094AA:  MOVWF  x4C
094AC:  MOVLW  04
094AE:  MOVWF  x4E
094B0:  MOVLW  7B
094B2:  MOVWF  x4D
094B4:  MOVLW  01
094B6:  MOVWF  x4F
094B8:  MOVWF  x50
094BA:  MOVLB  0
094BC:  CALL   4E50
....................        
....................       glcd_text57(0, 20, ZA, 1, ON); 
094C0:  MOVLB  6
094C2:  CLRF   x4B
094C4:  MOVLW  14
094C6:  MOVWF  x4C
094C8:  MOVLW  04
094CA:  MOVWF  x4E
094CC:  MOVLW  89
094CE:  MOVWF  x4D
094D0:  MOVLW  01
094D2:  MOVWF  x4F
094D4:  MOVWF  x50
094D6:  MOVLB  0
094D8:  CALL   4E50
....................        
....................       glcd_text57(0, 30, AJ, 1, ON);            
094DC:  MOVLB  6
094DE:  CLRF   x4B
094E0:  MOVLW  1E
094E2:  MOVWF  x4C
094E4:  MOVLW  04
094E6:  MOVWF  x4E
094E8:  MOVLW  91
094EA:  MOVWF  x4D
094EC:  MOVLW  01
094EE:  MOVWF  x4F
094F0:  MOVWF  x50
094F2:  MOVLB  0
094F4:  CALL   4E50
....................        
....................       displayfloat(zero_actual,44,20,0,1); 
094F8:  MOVFF  587,639
094FC:  MOVFF  586,638
09500:  MOVFF  585,637
09504:  MOVFF  584,636
09508:  MOVLW  2C
0950A:  MOVLB  6
0950C:  MOVWF  x3A
0950E:  MOVLW  14
09510:  MOVWF  x3B
09512:  CLRF   x3C
09514:  MOVLW  01
09516:  MOVWF  x3D
09518:  MOVLB  0
0951A:  CALL   5F62
....................       displayfloat(Ajuste1,44,30,0,1); 
0951E:  MOVFF  51F,639
09522:  MOVFF  51E,638
09526:  MOVFF  51D,637
0952A:  MOVFF  51C,636
0952E:  MOVLW  2C
09530:  MOVLB  6
09532:  MOVWF  x3A
09534:  MOVLW  1E
09536:  MOVWF  x3B
09538:  CLRF   x3C
0953A:  MOVLW  01
0953C:  MOVWF  x3D
0953E:  MOVLB  0
09540:  CALL   5F62
....................       displayfloat(Inflow_adc,0,40,0,1); 
09544:  MOVFF  4C9,668
09548:  MOVFF  4C8,667
0954C:  CALL   173C
09550:  MOVFF  00,632
09554:  MOVFF  01,633
09558:  MOVFF  02,634
0955C:  MOVFF  03,635
09560:  MOVFF  03,639
09564:  MOVFF  02,638
09568:  MOVFF  01,637
0956C:  MOVFF  00,636
09570:  MOVLB  6
09572:  CLRF   x3A
09574:  MOVLW  28
09576:  MOVWF  x3B
09578:  CLRF   x3C
0957A:  MOVLW  01
0957C:  MOVWF  x3D
0957E:  MOVLB  0
09580:  CALL   5F62
.................... //      displayfloat(Diferencia,0,50,0,1); 
....................        
....................       if(tup>=30)//Si oprime hacia arriba 
09584:  MOVLB  4
09586:  MOVF   xD7,F
09588:  BNZ   9590
0958A:  MOVF   xD6,W
0958C:  SUBLW  1D
0958E:  BC    95D8
....................       {   
....................          delay_ms(30);Ajuste1+=0.01; 
09590:  MOVLW  1E
09592:  MOVLB  6
09594:  MOVWF  x46
09596:  MOVLB  0
09598:  CALL   1524
0959C:  BCF    FD8.1
0959E:  MOVFF  51F,66A
095A2:  MOVFF  51E,669
095A6:  MOVFF  51D,668
095AA:  MOVFF  51C,667
095AE:  MOVLW  0A
095B0:  MOVLB  6
095B2:  MOVWF  x6E
095B4:  MOVLW  D7
095B6:  MOVWF  x6D
095B8:  MOVLW  23
095BA:  MOVWF  x6C
095BC:  MOVLW  78
095BE:  MOVWF  x6B
095C0:  MOVLB  0
095C2:  CALL   1EF0
095C6:  MOVFF  03,51F
095CA:  MOVFF  02,51E
095CE:  MOVFF  01,51D
095D2:  MOVFF  00,51C
095D6:  MOVLB  4
....................       } 
....................              
....................       if(tdown>=30)//Si oprime hacia abajo 
095D8:  MOVF   xD9,F
095DA:  BNZ   95E2
095DC:  MOVF   xD8,W
095DE:  SUBLW  1D
095E0:  BC    962A
....................       {    
....................          delay_ms(30);Ajuste1-=0.01; 
095E2:  MOVLW  1E
095E4:  MOVLB  6
095E6:  MOVWF  x46
095E8:  MOVLB  0
095EA:  CALL   1524
095EE:  BSF    FD8.1
095F0:  MOVFF  51F,66A
095F4:  MOVFF  51E,669
095F8:  MOVFF  51D,668
095FC:  MOVFF  51C,667
09600:  MOVLW  0A
09602:  MOVLB  6
09604:  MOVWF  x6E
09606:  MOVLW  D7
09608:  MOVWF  x6D
0960A:  MOVLW  23
0960C:  MOVWF  x6C
0960E:  MOVLW  78
09610:  MOVWF  x6B
09612:  MOVLB  0
09614:  CALL   1EF0
09618:  MOVFF  03,51F
0961C:  MOVFF  02,51E
09620:  MOVFF  01,51D
09624:  MOVFF  00,51C
09628:  MOVLB  4
....................       } 
....................              
....................       if(tright>=30)//Si oprime SET 
0962A:  MOVF   xDB,F
0962C:  BNZ   9636
0962E:  MOVF   xDA,W
09630:  SUBLW  1D
09632:  BTFSC  FD8.0
09634:  BRA    98A6
....................       {   
....................          zero_actual=Inflow_adc; 
09636:  MOVFF  4C9,668
0963A:  MOVFF  4C8,667
0963E:  MOVLB  0
09640:  CALL   173C
09644:  MOVFF  03,587
09648:  MOVFF  02,586
0964C:  MOVFF  01,585
09650:  MOVFF  00,584
....................          Diferencia=zero_fabrica-Inflow_adc; 
09654:  MOVFF  4C9,668
09658:  MOVFF  4C8,667
0965C:  CALL   173C
09660:  BSF    FD8.1
09662:  MOVFF  583,66A
09666:  MOVFF  582,669
0966A:  MOVFF  581,668
0966E:  MOVFF  580,667
09672:  MOVFF  03,66E
09676:  MOVFF  02,66D
0967A:  MOVFF  01,66C
0967E:  MOVFF  00,66B
09682:  CALL   1EF0
09686:  MOVFF  03,513
0968A:  MOVFF  02,512
0968E:  MOVFF  01,511
09692:  MOVFF  00,510
....................              
....................          if(Diferencia>=0) 
09696:  MOVLB  6
09698:  CLRF   x66
0969A:  CLRF   x65
0969C:  CLRF   x64
0969E:  CLRF   x63
096A0:  MOVFF  513,66A
096A4:  MOVFF  512,669
096A8:  MOVFF  511,668
096AC:  MOVFF  510,667
096B0:  MOVLB  0
096B2:  CALL   2910
096B6:  BC    96BA
096B8:  BNZ   96F8
....................          { 
....................             negativo=10;write_eeprom(50,negativo);delay_ms(20); 
096BA:  MOVLW  0A
096BC:  MOVLB  4
096BE:  MOVWF  xB5
096C0:  CLRF   FAA
096C2:  MOVLW  32
096C4:  MOVWF  FA9
096C6:  MOVFF  4B5,FA8
096CA:  BCF    FA6.6
096CC:  BCF    FA6.7
096CE:  BSF    FA6.2
096D0:  MOVF   FF2,W
096D2:  MOVWF  00
096D4:  BCF    FF2.7
096D6:  MOVLB  F
096D8:  MOVLW  55
096DA:  MOVWF  FA7
096DC:  MOVLW  AA
096DE:  MOVWF  FA7
096E0:  BSF    FA6.1
096E2:  BTFSC  FA6.1
096E4:  BRA    96E2
096E6:  BCF    FA6.2
096E8:  MOVF   00,W
096EA:  IORWF  FF2,F
096EC:  MOVLW  14
096EE:  MOVLB  6
096F0:  MOVWF  x46
096F2:  MOVLB  0
096F4:  CALL   1524
....................          } 
....................          if(Diferencia<0) 
096F8:  MOVFF  513,666
096FC:  MOVFF  512,665
09700:  MOVFF  511,664
09704:  MOVFF  510,663
09708:  MOVLB  6
0970A:  CLRF   x6A
0970C:  CLRF   x69
0970E:  CLRF   x68
09710:  CLRF   x67
09712:  MOVLB  0
09714:  CALL   2910
09718:  BNC   9758
....................          { 
....................             negativo=20;write_eeprom(50,negativo);delay_ms(20); 
0971A:  MOVLW  14
0971C:  MOVLB  4
0971E:  MOVWF  xB5
09720:  CLRF   FAA
09722:  MOVLW  32
09724:  MOVWF  FA9
09726:  MOVFF  4B5,FA8
0972A:  BCF    FA6.6
0972C:  BCF    FA6.7
0972E:  BSF    FA6.2
09730:  MOVF   FF2,W
09732:  MOVWF  00
09734:  BCF    FF2.7
09736:  MOVLB  F
09738:  MOVLW  55
0973A:  MOVWF  FA7
0973C:  MOVLW  AA
0973E:  MOVWF  FA7
09740:  BSF    FA6.1
09742:  BTFSC  FA6.1
09744:  BRA    9742
09746:  BCF    FA6.2
09748:  MOVF   00,W
0974A:  IORWF  FF2,F
0974C:  MOVLW  14
0974E:  MOVLB  6
09750:  MOVWF  x46
09752:  MOVLB  0
09754:  CALL   1524
....................          } 
....................          Diferencia=abs(Diferencia); 
09758:  MOVFF  510,00
0975C:  MOVFF  511,01
09760:  MOVFF  512,02
09764:  MOVFF  513,03
09768:  BCF    01.7
0976A:  MOVFF  513,513
0976E:  MOVFF  512,512
09772:  MOVFF  01,511
09776:  MOVFF  510,510
....................          Temporal1=(int16)Diferencia; 
0977A:  MOVFF  513,666
0977E:  MOVFF  512,665
09782:  MOVFF  511,664
09786:  MOVFF  510,663
0978A:  CALL   1DA8
0978E:  MOVFF  02,4CD
09792:  MOVFF  01,4CC
....................          write_eeprom(60,make8(Temporal1,0)); 
09796:  MOVFF  4CC,632
0979A:  CLRF   FAA
0979C:  MOVLW  3C
0979E:  MOVWF  FA9
097A0:  MOVFF  632,FA8
097A4:  BCF    FA6.6
097A6:  BCF    FA6.7
097A8:  BSF    FA6.2
097AA:  MOVF   FF2,W
097AC:  MOVWF  00
097AE:  BCF    FF2.7
097B0:  MOVLB  F
097B2:  MOVLW  55
097B4:  MOVWF  FA7
097B6:  MOVLW  AA
097B8:  MOVWF  FA7
097BA:  BSF    FA6.1
097BC:  BTFSC  FA6.1
097BE:  BRA    97BC
097C0:  BCF    FA6.2
097C2:  MOVF   00,W
097C4:  IORWF  FF2,F
....................          delay_ms(20); 
097C6:  MOVLW  14
097C8:  MOVLB  6
097CA:  MOVWF  x46
097CC:  MOVLB  0
097CE:  CALL   1524
....................          write_eeprom(61,make8(Temporal1,1));//Guardar valor de Setpoint en eeprom 
097D2:  MOVFF  4CD,632
097D6:  CLRF   FAA
097D8:  MOVLW  3D
097DA:  MOVWF  FA9
097DC:  MOVFF  632,FA8
097E0:  BCF    FA6.6
097E2:  BCF    FA6.7
097E4:  BSF    FA6.2
097E6:  MOVF   FF2,W
097E8:  MOVWF  00
097EA:  BCF    FF2.7
097EC:  MOVLB  F
097EE:  MOVLW  55
097F0:  MOVWF  FA7
097F2:  MOVLW  AA
097F4:  MOVWF  FA7
097F6:  BSF    FA6.1
097F8:  BTFSC  FA6.1
097FA:  BRA    97F8
097FC:  BCF    FA6.2
097FE:  MOVF   00,W
09800:  IORWF  FF2,F
....................          delay_ms(20); 
09802:  MOVLW  14
09804:  MOVLB  6
09806:  MOVWF  x46
09808:  MOVLB  0
0980A:  CALL   1524
....................  
....................          Temporal1=(int16)zero_actual; 
0980E:  MOVFF  587,666
09812:  MOVFF  586,665
09816:  MOVFF  585,664
0981A:  MOVFF  584,663
0981E:  CALL   1DA8
09822:  MOVFF  02,4CD
09826:  MOVFF  01,4CC
....................          write_eeprom(29,make8(Temporal1,0)); 
0982A:  MOVFF  4CC,632
0982E:  CLRF   FAA
09830:  MOVLW  1D
09832:  MOVWF  FA9
09834:  MOVFF  632,FA8
09838:  BCF    FA6.6
0983A:  BCF    FA6.7
0983C:  BSF    FA6.2
0983E:  MOVF   FF2,W
09840:  MOVWF  00
09842:  BCF    FF2.7
09844:  MOVLB  F
09846:  MOVLW  55
09848:  MOVWF  FA7
0984A:  MOVLW  AA
0984C:  MOVWF  FA7
0984E:  BSF    FA6.1
09850:  BTFSC  FA6.1
09852:  BRA    9850
09854:  BCF    FA6.2
09856:  MOVF   00,W
09858:  IORWF  FF2,F
....................          delay_ms(20); 
0985A:  MOVLW  14
0985C:  MOVLB  6
0985E:  MOVWF  x46
09860:  MOVLB  0
09862:  CALL   1524
....................          write_eeprom(30,make8(Temporal1,1));//Guardar valor de Setpoint en eeprom 
09866:  MOVFF  4CD,632
0986A:  CLRF   FAA
0986C:  MOVLW  1E
0986E:  MOVWF  FA9
09870:  MOVFF  632,FA8
09874:  BCF    FA6.6
09876:  BCF    FA6.7
09878:  BSF    FA6.2
0987A:  MOVF   FF2,W
0987C:  MOVWF  00
0987E:  BCF    FF2.7
09880:  MOVLB  F
09882:  MOVLW  55
09884:  MOVWF  FA7
09886:  MOVLW  AA
09888:  MOVWF  FA7
0988A:  BSF    FA6.1
0988C:  BTFSC  FA6.1
0988E:  BRA    988C
09890:  BCF    FA6.2
09892:  MOVF   00,W
09894:  IORWF  FF2,F
....................          delay_ms(20); 
09896:  MOVLW  14
09898:  MOVLB  6
0989A:  MOVWF  x46
0989C:  MOVLB  0
0989E:  CALL   1524
....................       } 
....................          else 
098A2:  BRA    98A8
098A4:  MOVLB  4
....................             {Flanco1 = 0;}   
098A6:  BCF    x2C.1
....................              
....................       if(tleft>=30)//Si oprime boton de Toma. 
098A8:  MOVLB  4
098AA:  MOVF   xDD,F
098AC:  BNZ   98B6
098AE:  MOVF   xDC,W
098B0:  SUBLW  1D
098B2:  BTFSC  FD8.0
098B4:  BRA    9A10
....................       { 
....................          delay_ms(700);Menu=32;glcd_fillscreen(OFF);Opcion=1;unidad=1; 
098B6:  MOVLW  04
098B8:  MOVLB  6
098BA:  MOVWF  x32
098BC:  MOVLW  AF
098BE:  MOVWF  x46
098C0:  MOVLB  0
098C2:  CALL   1524
098C6:  MOVLB  6
098C8:  DECFSZ x32,F
098CA:  BRA    98BC
098CC:  MOVLW  20
098CE:  MOVLB  4
098D0:  MOVWF  xB2
098D2:  MOVLB  6
098D4:  CLRF   x3A
098D6:  MOVLB  0
098D8:  CALL   1582
098DC:  MOVLW  01
098DE:  MOVLB  4
098E0:  MOVWF  xB4
098E2:  MOVWF  xB3
....................          Temporal=Ajuste1; 
098E4:  MOVFF  51F,527
098E8:  MOVFF  51E,526
098EC:  MOVFF  51D,525
098F0:  MOVFF  51C,524
....................          Entero=(int)Ajuste1; 
098F4:  MOVFF  51F,666
098F8:  MOVFF  51E,665
098FC:  MOVFF  51D,664
09900:  MOVFF  51C,663
09904:  MOVLB  0
09906:  CALL   1DA8
0990A:  MOVFF  01,4BB
....................          Temporal=Temporal-Entero; 
0990E:  MOVLB  6
09910:  CLRF   x68
09912:  MOVFF  4BB,667
09916:  MOVLB  0
09918:  CALL   173C
0991C:  BSF    FD8.1
0991E:  MOVFF  527,66A
09922:  MOVFF  526,669
09926:  MOVFF  525,668
0992A:  MOVFF  524,667
0992E:  MOVFF  03,66E
09932:  MOVFF  02,66D
09936:  MOVFF  01,66C
0993A:  MOVFF  00,66B
0993E:  CALL   1EF0
09942:  MOVFF  03,527
09946:  MOVFF  02,526
0994A:  MOVFF  01,525
0994E:  MOVFF  00,524
....................          Temporal2=Temporal*10.0; 
09952:  MOVFF  527,666
09956:  MOVFF  526,665
0995A:  MOVFF  525,664
0995E:  MOVFF  524,663
09962:  MOVLB  6
09964:  CLRF   x6A
09966:  CLRF   x69
09968:  MOVLW  20
0996A:  MOVWF  x68
0996C:  MOVLW  82
0996E:  MOVWF  x67
09970:  MOVLB  0
09972:  CALL   18D0
09976:  MOVFF  03,52B
0997A:  MOVFF  02,52A
0997E:  MOVFF  01,529
09982:  MOVFF  00,528
....................          Decimal1=(int8)Temporal2; 
09986:  MOVFF  52B,666
0998A:  MOVFF  52A,665
0998E:  MOVFF  529,664
09992:  MOVFF  528,663
09996:  CALL   1DA8
0999A:  MOVFF  01,4BC
....................          write_eeprom(25,Entero); 
0999E:  CLRF   FAA
099A0:  MOVLW  19
099A2:  MOVWF  FA9
099A4:  MOVFF  4BB,FA8
099A8:  BCF    FA6.6
099AA:  BCF    FA6.7
099AC:  BSF    FA6.2
099AE:  MOVF   FF2,W
099B0:  MOVWF  00
099B2:  BCF    FF2.7
099B4:  MOVLB  F
099B6:  MOVLW  55
099B8:  MOVWF  FA7
099BA:  MOVLW  AA
099BC:  MOVWF  FA7
099BE:  BSF    FA6.1
099C0:  BTFSC  FA6.1
099C2:  BRA    99C0
099C4:  BCF    FA6.2
099C6:  MOVF   00,W
099C8:  IORWF  FF2,F
....................          delay_ms(20); 
099CA:  MOVLW  14
099CC:  MOVLB  6
099CE:  MOVWF  x46
099D0:  MOVLB  0
099D2:  CALL   1524
....................          write_eeprom(26,Decimal1); 
099D6:  CLRF   FAA
099D8:  MOVLW  1A
099DA:  MOVWF  FA9
099DC:  MOVFF  4BC,FA8
099E0:  BCF    FA6.6
099E2:  BCF    FA6.7
099E4:  BSF    FA6.2
099E6:  MOVF   FF2,W
099E8:  MOVWF  00
099EA:  BCF    FF2.7
099EC:  MOVLB  F
099EE:  MOVLW  55
099F0:  MOVWF  FA7
099F2:  MOVLW  AA
099F4:  MOVWF  FA7
099F6:  BSF    FA6.1
099F8:  BTFSC  FA6.1
099FA:  BRA    99F8
099FC:  BCF    FA6.2
099FE:  MOVF   00,W
09A00:  IORWF  FF2,F
....................          delay_ms(20); 
09A02:  MOVLW  14
09A04:  MOVLB  6
09A06:  MOVWF  x46
09A08:  MOVLB  0
09A0A:  CALL   1524
09A0E:  MOVLB  4
....................       } 
....................     } 
.................... //_--------------------------------------------------------------------------------------------------------------------------------------------------------        
....................  
.................... //_-------------------------------------------------------------------------------------------------------------------------------------------------------- 
....................       if(Menu==42){ //Menu de Sensor de Presin. 
09A10:  MOVF   xB2,W
09A12:  SUBLW  2A
09A14:  BTFSS  FD8.2
09A16:  BRA    9E5E
....................        
....................       if(Ajuste2>10.0) 
09A18:  MOVLB  6
09A1A:  CLRF   x66
09A1C:  CLRF   x65
09A1E:  MOVLW  20
09A20:  MOVWF  x64
09A22:  MOVLW  82
09A24:  MOVWF  x63
09A26:  MOVFF  523,66A
09A2A:  MOVFF  522,669
09A2E:  MOVFF  521,668
09A32:  MOVFF  520,667
09A36:  MOVLB  0
09A38:  CALL   2910
09A3C:  BNC   9A4A
....................          Ajuste2=0.0; 
09A3E:  MOVLB  5
09A40:  CLRF   x23
09A42:  CLRF   x22
09A44:  CLRF   x21
09A46:  CLRF   x20
09A48:  MOVLB  0
....................        
....................       strcpy(Menus.Letra,"Sensor de Presion"); 
09A4A:  MOVLW  04
09A4C:  MOVWF  FEA
09A4E:  MOVLW  16
09A50:  MOVWF  FE9
09A52:  MOVFF  FF2,632
09A56:  BCF    FF2.7
09A58:  MOVLW  00
09A5A:  CALL   11D2
09A5E:  TBLRD*-
09A60:  TBLRD*+
09A62:  MOVF   FF5,W
09A64:  MOVWF  FEE
09A66:  IORLW  00
09A68:  BNZ   9A60
09A6A:  MOVLB  6
09A6C:  BTFSC  x32.7
09A6E:  BSF    FF2.7
....................       displayMenu(Menus.Letra,10,0,1,1); 
09A70:  MOVLW  04
09A72:  MOVWF  x3B
09A74:  MOVLW  16
09A76:  MOVWF  x3A
09A78:  MOVLW  0A
09A7A:  MOVWF  x3C
09A7C:  CLRF   x3D
09A7E:  MOVLW  01
09A80:  MOVWF  x3E
09A82:  MOVWF  x3F
09A84:  MOVLB  0
09A86:  CALL   50C0
....................        
....................       glcd_text57(0, 12, ZFP, 1, ON); 
09A8A:  MOVLB  6
09A8C:  CLRF   x4B
09A8E:  MOVLW  0C
09A90:  MOVWF  x4C
09A92:  MOVLW  04
09A94:  MOVWF  x4E
09A96:  MOVLW  A4
09A98:  MOVWF  x4D
09A9A:  MOVLW  01
09A9C:  MOVWF  x4F
09A9E:  MOVWF  x50
09AA0:  MOVLB  0
09AA2:  CALL   4E50
....................        
....................       glcd_text57(0, 20, ZA, 1, ON); 
09AA6:  MOVLB  6
09AA8:  CLRF   x4B
09AAA:  MOVLW  14
09AAC:  MOVWF  x4C
09AAE:  MOVLW  04
09AB0:  MOVWF  x4E
09AB2:  MOVLW  89
09AB4:  MOVWF  x4D
09AB6:  MOVLW  01
09AB8:  MOVWF  x4F
09ABA:  MOVWF  x50
09ABC:  MOVLB  0
09ABE:  CALL   4E50
....................        
....................       glcd_text57(0, 30, AJ, 1, ON);            
09AC2:  MOVLB  6
09AC4:  CLRF   x4B
09AC6:  MOVLW  1E
09AC8:  MOVWF  x4C
09ACA:  MOVLW  04
09ACC:  MOVWF  x4E
09ACE:  MOVLW  91
09AD0:  MOVWF  x4D
09AD2:  MOVLW  01
09AD4:  MOVWF  x4F
09AD6:  MOVWF  x50
09AD8:  MOVLB  0
09ADA:  CALL   4E50
....................        
....................       displayfloat(G,44,20,0,1); 
09ADE:  MOVFF  58B,639
09AE2:  MOVFF  58A,638
09AE6:  MOVFF  589,637
09AEA:  MOVFF  588,636
09AEE:  MOVLW  2C
09AF0:  MOVLB  6
09AF2:  MOVWF  x3A
09AF4:  MOVLW  14
09AF6:  MOVWF  x3B
09AF8:  CLRF   x3C
09AFA:  MOVLW  01
09AFC:  MOVWF  x3D
09AFE:  MOVLB  0
09B00:  CALL   5F62
....................       displayfloat(Ajuste2,44,30,0,1); 
09B04:  MOVFF  523,639
09B08:  MOVFF  522,638
09B0C:  MOVFF  521,637
09B10:  MOVFF  520,636
09B14:  MOVLW  2C
09B16:  MOVLB  6
09B18:  MOVWF  x3A
09B1A:  MOVLW  1E
09B1C:  MOVWF  x3B
09B1E:  CLRF   x3C
09B20:  MOVLW  01
09B22:  MOVWF  x3D
09B24:  MOVLB  0
09B26:  CALL   5F62
....................       displayfloat(Filtro_DownFlow_adc,0,40,0,1); 
09B2A:  MOVFF  4CB,668
09B2E:  MOVFF  4CA,667
09B32:  CALL   173C
09B36:  MOVFF  00,632
09B3A:  MOVFF  01,633
09B3E:  MOVFF  02,634
09B42:  MOVFF  03,635
09B46:  MOVFF  03,639
09B4A:  MOVFF  02,638
09B4E:  MOVFF  01,637
09B52:  MOVFF  00,636
09B56:  MOVLB  6
09B58:  CLRF   x3A
09B5A:  MOVLW  28
09B5C:  MOVWF  x3B
09B5E:  CLRF   x3C
09B60:  MOVLW  01
09B62:  MOVWF  x3D
09B64:  MOVLB  0
09B66:  CALL   5F62
....................       displayfloat(Filtro_DownFlow,0,50,0,1); 
09B6A:  MOVFF  50F,639
09B6E:  MOVFF  50E,638
09B72:  MOVFF  50D,637
09B76:  MOVFF  50C,636
09B7A:  MOVLB  6
09B7C:  CLRF   x3A
09B7E:  MOVLW  32
09B80:  MOVWF  x3B
09B82:  CLRF   x3C
09B84:  MOVLW  01
09B86:  MOVWF  x3D
09B88:  MOVLB  0
09B8A:  CALL   5F62
....................        
....................       if(tup>=30)//Si oprime hacia arriba 
09B8E:  MOVLB  4
09B90:  MOVF   xD7,F
09B92:  BNZ   9B9A
09B94:  MOVF   xD6,W
09B96:  SUBLW  1D
09B98:  BC    9BE2
....................       {   
....................          delay_ms(30);Ajuste2+=0.01; 
09B9A:  MOVLW  1E
09B9C:  MOVLB  6
09B9E:  MOVWF  x46
09BA0:  MOVLB  0
09BA2:  CALL   1524
09BA6:  BCF    FD8.1
09BA8:  MOVFF  523,66A
09BAC:  MOVFF  522,669
09BB0:  MOVFF  521,668
09BB4:  MOVFF  520,667
09BB8:  MOVLW  0A
09BBA:  MOVLB  6
09BBC:  MOVWF  x6E
09BBE:  MOVLW  D7
09BC0:  MOVWF  x6D
09BC2:  MOVLW  23
09BC4:  MOVWF  x6C
09BC6:  MOVLW  78
09BC8:  MOVWF  x6B
09BCA:  MOVLB  0
09BCC:  CALL   1EF0
09BD0:  MOVFF  03,523
09BD4:  MOVFF  02,522
09BD8:  MOVFF  01,521
09BDC:  MOVFF  00,520
09BE0:  MOVLB  4
....................       } 
....................              
....................       if(tdown>=30)//Si oprime hacia abajo 
09BE2:  MOVF   xD9,F
09BE4:  BNZ   9BEC
09BE6:  MOVF   xD8,W
09BE8:  SUBLW  1D
09BEA:  BC    9C34
....................       { 
....................          delay_ms(30);Ajuste2-=0.01; 
09BEC:  MOVLW  1E
09BEE:  MOVLB  6
09BF0:  MOVWF  x46
09BF2:  MOVLB  0
09BF4:  CALL   1524
09BF8:  BSF    FD8.1
09BFA:  MOVFF  523,66A
09BFE:  MOVFF  522,669
09C02:  MOVFF  521,668
09C06:  MOVFF  520,667
09C0A:  MOVLW  0A
09C0C:  MOVLB  6
09C0E:  MOVWF  x6E
09C10:  MOVLW  D7
09C12:  MOVWF  x6D
09C14:  MOVLW  23
09C16:  MOVWF  x6C
09C18:  MOVLW  78
09C1A:  MOVWF  x6B
09C1C:  MOVLB  0
09C1E:  CALL   1EF0
09C22:  MOVFF  03,523
09C26:  MOVFF  02,522
09C2A:  MOVFF  01,521
09C2E:  MOVFF  00,520
09C32:  MOVLB  4
....................       } 
....................              
....................       if(tright>=30)//Si oprime SET 
09C34:  MOVF   xDB,F
09C36:  BNZ   9C3E
09C38:  MOVF   xDA,W
09C3A:  SUBLW  1D
09C3C:  BC    9CF4
....................       {            
....................          G=Filtro_Downflow_adc; 
09C3E:  MOVFF  4CB,668
09C42:  MOVFF  4CA,667
09C46:  MOVLB  0
09C48:  CALL   173C
09C4C:  MOVFF  03,58B
09C50:  MOVFF  02,58A
09C54:  MOVFF  01,589
09C58:  MOVFF  00,588
....................          G16=(int16)G; 
09C5C:  MOVFF  58B,666
09C60:  MOVFF  58A,665
09C64:  MOVFF  589,664
09C68:  MOVFF  588,663
09C6C:  CALL   1DA8
09C70:  MOVFF  02,4D5
09C74:  MOVFF  01,4D4
....................          G_l=G16; G_h=(G16>>8); 
09C78:  MOVFF  4D4,4B6
09C7C:  MOVFF  4D5,4B7
....................              
....................          write_eeprom(62,G_l); 
09C80:  CLRF   FAA
09C82:  MOVLW  3E
09C84:  MOVWF  FA9
09C86:  MOVFF  4B6,FA8
09C8A:  BCF    FA6.6
09C8C:  BCF    FA6.7
09C8E:  BSF    FA6.2
09C90:  MOVF   FF2,W
09C92:  MOVWF  00
09C94:  BCF    FF2.7
09C96:  MOVLB  F
09C98:  MOVLW  55
09C9A:  MOVWF  FA7
09C9C:  MOVLW  AA
09C9E:  MOVWF  FA7
09CA0:  BSF    FA6.1
09CA2:  BTFSC  FA6.1
09CA4:  BRA    9CA2
09CA6:  BCF    FA6.2
09CA8:  MOVF   00,W
09CAA:  IORWF  FF2,F
....................          delay_ms(20); 
09CAC:  MOVLW  14
09CAE:  MOVLB  6
09CB0:  MOVWF  x46
09CB2:  MOVLB  0
09CB4:  CALL   1524
....................          write_eeprom(63,G_h);//Guardar valor de Setpoint en eeprom 
09CB8:  CLRF   FAA
09CBA:  MOVLW  3F
09CBC:  MOVWF  FA9
09CBE:  MOVFF  4B7,FA8
09CC2:  BCF    FA6.6
09CC4:  BCF    FA6.7
09CC6:  BSF    FA6.2
09CC8:  MOVF   FF2,W
09CCA:  MOVWF  00
09CCC:  BCF    FF2.7
09CCE:  MOVLB  F
09CD0:  MOVLW  55
09CD2:  MOVWF  FA7
09CD4:  MOVLW  AA
09CD6:  MOVWF  FA7
09CD8:  BSF    FA6.1
09CDA:  BTFSC  FA6.1
09CDC:  BRA    9CDA
09CDE:  BCF    FA6.2
09CE0:  MOVF   00,W
09CE2:  IORWF  FF2,F
....................          delay_ms(20); 
09CE4:  MOVLW  14
09CE6:  MOVLB  6
09CE8:  MOVWF  x46
09CEA:  MOVLB  0
09CEC:  CALL   1524
....................       } 
....................          else 
09CF0:  BRA    9CF6
09CF2:  MOVLB  4
....................             {Flanco1 = 0;}   
09CF4:  BCF    x2C.1
....................              
....................       if(tleft>=30)//Si oprime boton de Toma. 
09CF6:  MOVLB  4
09CF8:  MOVF   xDD,F
09CFA:  BNZ   9D04
09CFC:  MOVF   xDC,W
09CFE:  SUBLW  1D
09D00:  BTFSC  FD8.0
09D02:  BRA    9E5E
....................       {                   
....................          delay_ms(700);Menu=32;glcd_fillscreen(OFF);Opcion=1;unidad=1; 
09D04:  MOVLW  04
09D06:  MOVLB  6
09D08:  MOVWF  x32
09D0A:  MOVLW  AF
09D0C:  MOVWF  x46
09D0E:  MOVLB  0
09D10:  CALL   1524
09D14:  MOVLB  6
09D16:  DECFSZ x32,F
09D18:  BRA    9D0A
09D1A:  MOVLW  20
09D1C:  MOVLB  4
09D1E:  MOVWF  xB2
09D20:  MOVLB  6
09D22:  CLRF   x3A
09D24:  MOVLB  0
09D26:  CALL   1582
09D2A:  MOVLW  01
09D2C:  MOVLB  4
09D2E:  MOVWF  xB4
09D30:  MOVWF  xB3
....................          Temporal=Ajuste2; 
09D32:  MOVFF  523,527
09D36:  MOVFF  522,526
09D3A:  MOVFF  521,525
09D3E:  MOVFF  520,524
....................          Entero=(int)Ajuste2; 
09D42:  MOVFF  523,666
09D46:  MOVFF  522,665
09D4A:  MOVFF  521,664
09D4E:  MOVFF  520,663
09D52:  MOVLB  0
09D54:  CALL   1DA8
09D58:  MOVFF  01,4BB
....................          Temporal=Temporal-Entero; 
09D5C:  MOVLB  6
09D5E:  CLRF   x68
09D60:  MOVFF  4BB,667
09D64:  MOVLB  0
09D66:  CALL   173C
09D6A:  BSF    FD8.1
09D6C:  MOVFF  527,66A
09D70:  MOVFF  526,669
09D74:  MOVFF  525,668
09D78:  MOVFF  524,667
09D7C:  MOVFF  03,66E
09D80:  MOVFF  02,66D
09D84:  MOVFF  01,66C
09D88:  MOVFF  00,66B
09D8C:  CALL   1EF0
09D90:  MOVFF  03,527
09D94:  MOVFF  02,526
09D98:  MOVFF  01,525
09D9C:  MOVFF  00,524
....................          Temporal2=Temporal*10.0; 
09DA0:  MOVFF  527,666
09DA4:  MOVFF  526,665
09DA8:  MOVFF  525,664
09DAC:  MOVFF  524,663
09DB0:  MOVLB  6
09DB2:  CLRF   x6A
09DB4:  CLRF   x69
09DB6:  MOVLW  20
09DB8:  MOVWF  x68
09DBA:  MOVLW  82
09DBC:  MOVWF  x67
09DBE:  MOVLB  0
09DC0:  CALL   18D0
09DC4:  MOVFF  03,52B
09DC8:  MOVFF  02,52A
09DCC:  MOVFF  01,529
09DD0:  MOVFF  00,528
....................          Decimal1=(int8)Temporal2; 
09DD4:  MOVFF  52B,666
09DD8:  MOVFF  52A,665
09DDC:  MOVFF  529,664
09DE0:  MOVFF  528,663
09DE4:  CALL   1DA8
09DE8:  MOVFF  01,4BC
....................          write_eeprom(27,Entero); 
09DEC:  CLRF   FAA
09DEE:  MOVLW  1B
09DF0:  MOVWF  FA9
09DF2:  MOVFF  4BB,FA8
09DF6:  BCF    FA6.6
09DF8:  BCF    FA6.7
09DFA:  BSF    FA6.2
09DFC:  MOVF   FF2,W
09DFE:  MOVWF  00
09E00:  BCF    FF2.7
09E02:  MOVLB  F
09E04:  MOVLW  55
09E06:  MOVWF  FA7
09E08:  MOVLW  AA
09E0A:  MOVWF  FA7
09E0C:  BSF    FA6.1
09E0E:  BTFSC  FA6.1
09E10:  BRA    9E0E
09E12:  BCF    FA6.2
09E14:  MOVF   00,W
09E16:  IORWF  FF2,F
....................          delay_ms(20); 
09E18:  MOVLW  14
09E1A:  MOVLB  6
09E1C:  MOVWF  x46
09E1E:  MOVLB  0
09E20:  CALL   1524
....................          write_eeprom(28,Decimal1); 
09E24:  CLRF   FAA
09E26:  MOVLW  1C
09E28:  MOVWF  FA9
09E2A:  MOVFF  4BC,FA8
09E2E:  BCF    FA6.6
09E30:  BCF    FA6.7
09E32:  BSF    FA6.2
09E34:  MOVF   FF2,W
09E36:  MOVWF  00
09E38:  BCF    FF2.7
09E3A:  MOVLB  F
09E3C:  MOVLW  55
09E3E:  MOVWF  FA7
09E40:  MOVLW  AA
09E42:  MOVWF  FA7
09E44:  BSF    FA6.1
09E46:  BTFSC  FA6.1
09E48:  BRA    9E46
09E4A:  BCF    FA6.2
09E4C:  MOVF   00,W
09E4E:  IORWF  FF2,F
....................          delay_ms(20); 
09E50:  MOVLW  14
09E52:  MOVLB  6
09E54:  MOVWF  x46
09E56:  MOVLB  0
09E58:  CALL   1524
09E5C:  MOVLB  4
....................       } 
....................     } 
.................... //_--------------------------------------------------------------------------------------------------------------------------------------------------------        
....................  
.................... //_-------------------------------------------------------------------------------------------------------------------------------------------------------- 
....................       if(Menu==43){ //Menu de Velocidad de Motor 
09E5E:  MOVF   xB2,W
09E60:  SUBLW  2B
09E62:  BTFSS  FD8.2
09E64:  BRA    A15C
....................        
....................       float temporales; 
....................       if(VelMotor>100)VelMotor=1; 
09E66:  MOVLB  5
09E68:  MOVF   x92,W
09E6A:  SUBLW  64
09E6C:  BC    9E72
09E6E:  MOVLW  01
09E70:  MOVWF  x92
....................       if(VelMotor<1)VelMotor=100; 
09E72:  MOVF   x92,F
09E74:  BNZ   9E7A
09E76:  MOVLW  64
09E78:  MOVWF  x92
....................        
....................       temporales=((float)VelMotor/(1.6666666))*10.0; 
09E7A:  MOVLB  6
09E7C:  CLRF   x68
09E7E:  MOVFF  592,667
09E82:  MOVLB  0
09E84:  CALL   173C
09E88:  MOVFF  00,632
09E8C:  MOVFF  01,633
09E90:  MOVFF  02,634
09E94:  MOVFF  03,635
09E98:  MOVFF  03,666
09E9C:  MOVFF  02,665
09EA0:  MOVFF  01,664
09EA4:  MOVFF  00,663
09EA8:  MOVLW  55
09EAA:  MOVLB  6
09EAC:  MOVWF  x6A
09EAE:  MOVWF  x69
09EB0:  MOVWF  x68
09EB2:  MOVLW  7F
09EB4:  MOVWF  x67
09EB6:  MOVLB  0
09EB8:  CALL   1772
09EBC:  MOVFF  00,632
09EC0:  MOVFF  01,633
09EC4:  MOVFF  02,634
09EC8:  MOVFF  03,635
09ECC:  MOVFF  03,666
09ED0:  MOVFF  02,665
09ED4:  MOVFF  01,664
09ED8:  MOVFF  00,663
09EDC:  MOVLB  6
09EDE:  CLRF   x6A
09EE0:  CLRF   x69
09EE2:  MOVLW  20
09EE4:  MOVWF  x68
09EE6:  MOVLW  82
09EE8:  MOVWF  x67
09EEA:  MOVLB  0
09EEC:  CALL   18D0
09EF0:  MOVFF  03,631
09EF4:  MOVFF  02,630
09EF8:  MOVFF  01,62F
09EFC:  MOVFF  00,62E
....................       strcpy(Menus.Letra,"Seleccion Vel"); 
09F00:  MOVLW  04
09F02:  MOVWF  FEA
09F04:  MOVLW  16
09F06:  MOVWF  FE9
09F08:  MOVFF  FF2,632
09F0C:  BCF    FF2.7
09F0E:  MOVLW  00
09F10:  CALL   12B2
09F14:  TBLRD*-
09F16:  TBLRD*+
09F18:  MOVF   FF5,W
09F1A:  MOVWF  FEE
09F1C:  IORLW  00
09F1E:  BNZ   9F16
09F20:  MOVLB  6
09F22:  BTFSC  x32.7
09F24:  BSF    FF2.7
....................       displayMenu(Menus.Letra,10,0,1,1); 
09F26:  MOVLW  04
09F28:  MOVWF  x3B
09F2A:  MOVLW  16
09F2C:  MOVWF  x3A
09F2E:  MOVLW  0A
09F30:  MOVWF  x3C
09F32:  CLRF   x3D
09F34:  MOVLW  01
09F36:  MOVWF  x3E
09F38:  MOVWF  x3F
09F3A:  MOVLB  0
09F3C:  CALL   50C0
....................       sprintf(tempo, "Reg:%05Lu  R1:%05Lu",(int16)temporales,make16(txbuf[3],txbuf[4])); 
09F40:  MOVFF  631,666
09F44:  MOVFF  630,665
09F48:  MOVFF  62F,664
09F4C:  MOVFF  62E,663
09F50:  CALL   1DA8
09F54:  MOVFF  02,633
09F58:  MOVFF  01,632
09F5C:  MOVFF  5CA,635
09F60:  MOVFF  5CB,634
09F64:  MOVLW  05
09F66:  MOVLB  4
09F68:  MOVWF  x2B
09F6A:  MOVLW  93
09F6C:  MOVWF  x2A
09F6E:  MOVLW  82
09F70:  MOVWF  FF6
09F72:  MOVLW  14
09F74:  MOVWF  FF7
09F76:  MOVLW  04
09F78:  MOVLB  6
09F7A:  MOVWF  x36
09F7C:  MOVLB  0
09F7E:  CALL   6060
09F82:  MOVLW  08
09F84:  MOVWF  FE9
09F86:  MOVFF  633,637
09F8A:  MOVFF  632,636
09F8E:  CALL   608A
09F92:  MOVLW  8B
09F94:  MOVWF  FF6
09F96:  MOVLW  14
09F98:  MOVWF  FF7
09F9A:  MOVLW  05
09F9C:  MOVLB  6
09F9E:  MOVWF  x36
09FA0:  MOVLB  0
09FA2:  CALL   6060
09FA6:  MOVLW  08
09FA8:  MOVWF  FE9
09FAA:  MOVFF  635,637
09FAE:  MOVFF  634,636
09FB2:  CALL   608A
....................       displayMenu(tempo,0,20,0,1); 
09FB6:  MOVLW  05
09FB8:  MOVLB  6
09FBA:  MOVWF  x3B
09FBC:  MOVLW  93
09FBE:  MOVWF  x3A
09FC0:  CLRF   x3C
09FC2:  MOVLW  14
09FC4:  MOVWF  x3D
09FC6:  CLRF   x3E
09FC8:  MOVLW  01
09FCA:  MOVWF  x3F
09FCC:  MOVLB  0
09FCE:  CALL   50C0
....................        
....................       displayTiempo2(VelMotor,40,40,1,2); 
09FD2:  MOVFF  592,632
09FD6:  MOVLW  28
09FD8:  MOVLB  6
09FDA:  MOVWF  x33
09FDC:  MOVWF  x34
09FDE:  MOVLW  01
09FE0:  MOVWF  x35
09FE2:  MOVLW  02
09FE4:  MOVWF  x36
09FE6:  MOVLB  0
09FE8:  CALL   5C10
....................        
....................       if(tup>=30)//Si oprime hacia arriba 
09FEC:  MOVLB  4
09FEE:  MOVF   xD7,F
09FF0:  BNZ   9FF8
09FF2:  MOVF   xD6,W
09FF4:  SUBLW  1D
09FF6:  BC    A00A
....................       {   
....................          delay_ms(200);VelMotor++; 
09FF8:  MOVLW  C8
09FFA:  MOVLB  6
09FFC:  MOVWF  x46
09FFE:  MOVLB  0
0A000:  CALL   1524
0A004:  MOVLB  5
0A006:  INCF   x92,F
0A008:  MOVLB  4
....................       } 
....................              
....................       if(tdown>=30)//Si oprime hacia abajo 
0A00A:  MOVF   xD9,F
0A00C:  BNZ   A014
0A00E:  MOVF   xD8,W
0A010:  SUBLW  1D
0A012:  BC    A026
....................       {   
....................          delay_ms(200);VelMotor--; 
0A014:  MOVLW  C8
0A016:  MOVLB  6
0A018:  MOVWF  x46
0A01A:  MOVLB  0
0A01C:  CALL   1524
0A020:  MOVLB  5
0A022:  DECF   x92,F
0A024:  MOVLB  4
....................       } 
....................              
....................       if(tright>=30)//Si oprime SET 
0A026:  MOVF   xDB,F
0A028:  BNZ   A030
0A02A:  MOVF   xDA,W
0A02C:  SUBLW  1D
0A02E:  BC    A03C
....................       {            
....................          VelocidadMotor(VelMotor); 
0A030:  MOVFF  592,632
0A034:  MOVLB  0
0A036:  CALL   1DE4
0A03A:  MOVLB  4
....................       }  
....................              
....................       if(tleft>=30)//Si oprime boton de Toma. 
0A03C:  MOVF   xDD,F
0A03E:  BNZ   A048
0A040:  MOVF   xDC,W
0A042:  SUBLW  1D
0A044:  BTFSC  FD8.0
0A046:  BRA    A15C
....................       {            
....................          instruccion=0; 
0A048:  CLRF   xBE
....................          address=0; 
0A04A:  CLRF   xBF
....................          regl=0; 
0A04C:  CLRF   xC1
....................          regh=0; 
0A04E:  CLRF   xC2
....................          Envio_Esclavos(); 
0A050:  MOVLB  0
0A052:  CALL   1AC2
....................          delay_ms(100);glcd_fillscreen(OFF);Opcion=1;unidad=1; 
0A056:  MOVLW  64
0A058:  MOVLB  6
0A05A:  MOVWF  x46
0A05C:  MOVLB  0
0A05E:  CALL   1524
0A062:  MOVLB  6
0A064:  CLRF   x3A
0A066:  MOVLB  0
0A068:  CALL   1582
0A06C:  MOVLW  01
0A06E:  MOVLB  4
0A070:  MOVWF  xB4
0A072:  MOVWF  xB3
....................          write_eeprom(32,VelMotor);//Guardar valor de Setpoint en eeprom 
0A074:  CLRF   FAA
0A076:  MOVLW  20
0A078:  MOVWF  FA9
0A07A:  MOVFF  592,FA8
0A07E:  BCF    FA6.6
0A080:  BCF    FA6.7
0A082:  BSF    FA6.2
0A084:  MOVF   FF2,W
0A086:  MOVWF  00
0A088:  BCF    FF2.7
0A08A:  MOVLB  F
0A08C:  MOVLW  55
0A08E:  MOVWF  FA7
0A090:  MOVLW  AA
0A092:  MOVWF  FA7
0A094:  BSF    FA6.1
0A096:  BTFSC  FA6.1
0A098:  BRA    A096
0A09A:  BCF    FA6.2
0A09C:  MOVF   00,W
0A09E:  IORWF  FF2,F
....................          delay_ms(20); 
0A0A0:  MOVLW  14
0A0A2:  MOVLB  6
0A0A4:  MOVWF  x46
0A0A6:  MOVLB  0
0A0A8:  CALL   1524
....................          glcd_fillScreen(OFF); 
0A0AC:  MOVLB  6
0A0AE:  CLRF   x3A
0A0B0:  MOVLB  0
0A0B2:  CALL   1582
....................          strcpy(Menus.Letra,"Velocidad"); 
0A0B6:  MOVLW  04
0A0B8:  MOVWF  FEA
0A0BA:  MOVLW  16
0A0BC:  MOVWF  FE9
0A0BE:  MOVFF  FF2,632
0A0C2:  BCF    FF2.7
0A0C4:  MOVLW  00
0A0C6:  CALL   12DA
0A0CA:  TBLRD*-
0A0CC:  TBLRD*+
0A0CE:  MOVF   FF5,W
0A0D0:  MOVWF  FEE
0A0D2:  IORLW  00
0A0D4:  BNZ   A0CC
0A0D6:  MOVLB  6
0A0D8:  BTFSC  x32.7
0A0DA:  BSF    FF2.7
....................          displayMenu(Menus.Letra,0,0,0,2); 
0A0DC:  MOVLW  04
0A0DE:  MOVWF  x3B
0A0E0:  MOVLW  16
0A0E2:  MOVWF  x3A
0A0E4:  CLRF   x3C
0A0E6:  CLRF   x3D
0A0E8:  CLRF   x3E
0A0EA:  MOVLW  02
0A0EC:  MOVWF  x3F
0A0EE:  MOVLB  0
0A0F0:  CALL   50C0
....................          strcpy(Menus.Letra,"Guardada"); 
0A0F4:  MOVLW  04
0A0F6:  MOVWF  FEA
0A0F8:  MOVLW  16
0A0FA:  MOVWF  FE9
0A0FC:  MOVFF  FF2,632
0A100:  BCF    FF2.7
0A102:  MOVLW  00
0A104:  CALL   12FE
0A108:  TBLRD*-
0A10A:  TBLRD*+
0A10C:  MOVF   FF5,W
0A10E:  MOVWF  FEE
0A110:  IORLW  00
0A112:  BNZ   A10A
0A114:  MOVLB  6
0A116:  BTFSC  x32.7
0A118:  BSF    FF2.7
....................          displayMenu(Menus.Letra,0,30,0,2); 
0A11A:  MOVLW  04
0A11C:  MOVWF  x3B
0A11E:  MOVLW  16
0A120:  MOVWF  x3A
0A122:  CLRF   x3C
0A124:  MOVLW  1E
0A126:  MOVWF  x3D
0A128:  CLRF   x3E
0A12A:  MOVLW  02
0A12C:  MOVWF  x3F
0A12E:  MOVLB  0
0A130:  CALL   50C0
....................          glcd_update(); 
0A134:  CALL   15DC
....................          delay_ms(1000); 
0A138:  MOVLW  04
0A13A:  MOVLB  6
0A13C:  MOVWF  x32
0A13E:  MOVLW  FA
0A140:  MOVWF  x46
0A142:  MOVLB  0
0A144:  CALL   1524
0A148:  MOVLB  6
0A14A:  DECFSZ x32,F
0A14C:  BRA    A13E
....................          glcd_fillScreen(OFF); 
0A14E:  CLRF   x3A
0A150:  MOVLB  0
0A152:  CALL   1582
....................          Menu=32; 
0A156:  MOVLW  20
0A158:  MOVLB  4
0A15A:  MOVWF  xB2
....................       } 
....................     } 
.................... //_--------------------------------------------------------------------------------------------------------------------------------------------------------        
....................  
.................... //_-------------------------------------------------------------------------------------------------------------------------------------------------------- 
....................       if(Menu==44){ //Menu de Parametros Variador          
0A15C:  MOVF   xB2,W
0A15E:  SUBLW  2C
0A160:  BTFSS  FD8.2
0A162:  BRA    A574
....................          instruccion=3; 
0A164:  MOVLW  03
0A166:  MOVWF  xBE
....................          address=1; 
0A168:  MOVLW  01
0A16A:  MOVWF  xBF
....................          pwm1++; 
0A16C:  INCF   xE0,F
0A16E:  BTFSC  FD8.2
0A170:  INCF   xE1,F
....................          pwm2++; 
0A172:  INCF   xE2,F
0A174:  BTFSC  FD8.2
0A176:  INCF   xE3,F
....................          pwm1l=make8(pwm1,0); 
0A178:  MOVFF  4E0,4C3
....................          pwm1h=make8(pwm1,1); 
0A17C:  MOVFF  4E1,4C4
....................          pwm2l=make8(pwm2,0); 
0A180:  MOVFF  4E2,4C5
....................          pwm2h=make8(pwm2,1); 
0A184:  MOVFF  4E3,4C6
....................          regl=0; 
0A188:  CLRF   xC1
....................          regh=0; 
0A18A:  CLRF   xC2
....................          Envio_Esclavos(); 
0A18C:  MOVLB  0
0A18E:  CALL   1AC2
....................          delay_ms(200); 
0A192:  MOVLW  C8
0A194:  MOVLB  6
0A196:  MOVWF  x46
0A198:  MOVLB  0
0A19A:  CALL   1524
....................          Lectura_Esclavos();          
0A19E:  CALL   1B6C
....................        
....................          sprintf(tempo, "R0:%05Lu  R1:%05Lu", make16(txbuf[1],txbuf[2]),make16(txbuf[3],txbuf[4])); 
0A1A2:  MOVFF  5C8,633
0A1A6:  MOVFF  5C9,632
0A1AA:  MOVFF  5CA,635
0A1AE:  MOVFF  5CB,634
0A1B2:  MOVLW  05
0A1B4:  MOVLB  4
0A1B6:  MOVWF  x2B
0A1B8:  MOVLW  93
0A1BA:  MOVWF  x2A
0A1BC:  MOVLW  52
0A1BE:  MOVLB  6
0A1C0:  MOVWF  x54
0A1C2:  MOVLB  0
0A1C4:  CALL   4A94
0A1C8:  MOVLW  30
0A1CA:  MOVLB  6
0A1CC:  MOVWF  x54
0A1CE:  MOVLB  0
0A1D0:  CALL   4A94
0A1D4:  MOVLW  3A
0A1D6:  MOVLB  6
0A1D8:  MOVWF  x54
0A1DA:  MOVLB  0
0A1DC:  CALL   4A94
0A1E0:  MOVLW  08
0A1E2:  MOVWF  FE9
0A1E4:  MOVFF  633,637
0A1E8:  MOVFF  632,636
0A1EC:  CALL   608A
0A1F0:  MOVLW  9E
0A1F2:  MOVWF  FF6
0A1F4:  MOVLW  14
0A1F6:  MOVWF  FF7
0A1F8:  MOVLW  05
0A1FA:  MOVLB  6
0A1FC:  MOVWF  x36
0A1FE:  MOVLB  0
0A200:  CALL   6060
0A204:  MOVLW  08
0A206:  MOVWF  FE9
0A208:  MOVFF  635,637
0A20C:  MOVFF  634,636
0A210:  CALL   608A
....................          displayMenu(tempo,0,9,0,1); 
0A214:  MOVLW  05
0A216:  MOVLB  6
0A218:  MOVWF  x3B
0A21A:  MOVLW  93
0A21C:  MOVWF  x3A
0A21E:  CLRF   x3C
0A220:  MOVLW  09
0A222:  MOVWF  x3D
0A224:  CLRF   x3E
0A226:  MOVLW  01
0A228:  MOVWF  x3F
0A22A:  MOVLB  0
0A22C:  CALL   50C0
....................          sprintf(tempo, "R2:%05Lu  R3:%05Lu", make16(txbuf[5],txbuf[6]),make16(txbuf[7],txbuf[8])); 
0A230:  MOVFF  5CC,633
0A234:  MOVFF  5CD,632
0A238:  MOVFF  5CE,635
0A23C:  MOVFF  5CF,634
0A240:  MOVLW  05
0A242:  MOVLB  4
0A244:  MOVWF  x2B
0A246:  MOVLW  93
0A248:  MOVWF  x2A
0A24A:  MOVLW  52
0A24C:  MOVLB  6
0A24E:  MOVWF  x54
0A250:  MOVLB  0
0A252:  CALL   4A94
0A256:  MOVLW  32
0A258:  MOVLB  6
0A25A:  MOVWF  x54
0A25C:  MOVLB  0
0A25E:  CALL   4A94
0A262:  MOVLW  3A
0A264:  MOVLB  6
0A266:  MOVWF  x54
0A268:  MOVLB  0
0A26A:  CALL   4A94
0A26E:  MOVLW  08
0A270:  MOVWF  FE9
0A272:  MOVFF  633,637
0A276:  MOVFF  632,636
0A27A:  CALL   608A
0A27E:  MOVLW  B2
0A280:  MOVWF  FF6
0A282:  MOVLW  14
0A284:  MOVWF  FF7
0A286:  MOVLW  05
0A288:  MOVLB  6
0A28A:  MOVWF  x36
0A28C:  MOVLB  0
0A28E:  CALL   6060
0A292:  MOVLW  08
0A294:  MOVWF  FE9
0A296:  MOVFF  635,637
0A29A:  MOVFF  634,636
0A29E:  CALL   608A
....................          displayMenu(tempo,0,18,0,1); 
0A2A2:  MOVLW  05
0A2A4:  MOVLB  6
0A2A6:  MOVWF  x3B
0A2A8:  MOVLW  93
0A2AA:  MOVWF  x3A
0A2AC:  CLRF   x3C
0A2AE:  MOVLW  12
0A2B0:  MOVWF  x3D
0A2B2:  CLRF   x3E
0A2B4:  MOVLW  01
0A2B6:  MOVWF  x3F
0A2B8:  MOVLB  0
0A2BA:  CALL   50C0
....................          sprintf(tempo, "R4:%05Lu  R5:%05Lu", make16(txbuf[9],txbuf[10]),make16(txbuf[11],txbuf[12])); 
0A2BE:  MOVFF  5D0,633
0A2C2:  MOVFF  5D1,632
0A2C6:  MOVFF  5D2,635
0A2CA:  MOVFF  5D3,634
0A2CE:  MOVLW  05
0A2D0:  MOVLB  4
0A2D2:  MOVWF  x2B
0A2D4:  MOVLW  93
0A2D6:  MOVWF  x2A
0A2D8:  MOVLW  52
0A2DA:  MOVLB  6
0A2DC:  MOVWF  x54
0A2DE:  MOVLB  0
0A2E0:  CALL   4A94
0A2E4:  MOVLW  34
0A2E6:  MOVLB  6
0A2E8:  MOVWF  x54
0A2EA:  MOVLB  0
0A2EC:  CALL   4A94
0A2F0:  MOVLW  3A
0A2F2:  MOVLB  6
0A2F4:  MOVWF  x54
0A2F6:  MOVLB  0
0A2F8:  CALL   4A94
0A2FC:  MOVLW  08
0A2FE:  MOVWF  FE9
0A300:  MOVFF  633,637
0A304:  MOVFF  632,636
0A308:  CALL   608A
0A30C:  MOVLW  C6
0A30E:  MOVWF  FF6
0A310:  MOVLW  14
0A312:  MOVWF  FF7
0A314:  MOVLW  05
0A316:  MOVLB  6
0A318:  MOVWF  x36
0A31A:  MOVLB  0
0A31C:  CALL   6060
0A320:  MOVLW  08
0A322:  MOVWF  FE9
0A324:  MOVFF  635,637
0A328:  MOVFF  634,636
0A32C:  CALL   608A
....................          displayMenu(tempo,0,27,0,1); 
0A330:  MOVLW  05
0A332:  MOVLB  6
0A334:  MOVWF  x3B
0A336:  MOVLW  93
0A338:  MOVWF  x3A
0A33A:  CLRF   x3C
0A33C:  MOVLW  1B
0A33E:  MOVWF  x3D
0A340:  CLRF   x3E
0A342:  MOVLW  01
0A344:  MOVWF  x3F
0A346:  MOVLB  0
0A348:  CALL   50C0
....................          sprintf(tempo, "R6:%05Lu  R7:%05Lu", make16(txbuf[13],txbuf[14]),make16(txbuf[15],txbuf[16])); 
0A34C:  MOVFF  5D4,633
0A350:  MOVFF  5D5,632
0A354:  MOVFF  5D6,635
0A358:  MOVFF  5D7,634
0A35C:  MOVLW  05
0A35E:  MOVLB  4
0A360:  MOVWF  x2B
0A362:  MOVLW  93
0A364:  MOVWF  x2A
0A366:  MOVLW  52
0A368:  MOVLB  6
0A36A:  MOVWF  x54
0A36C:  MOVLB  0
0A36E:  CALL   4A94
0A372:  MOVLW  36
0A374:  MOVLB  6
0A376:  MOVWF  x54
0A378:  MOVLB  0
0A37A:  CALL   4A94
0A37E:  MOVLW  3A
0A380:  MOVLB  6
0A382:  MOVWF  x54
0A384:  MOVLB  0
0A386:  CALL   4A94
0A38A:  MOVLW  08
0A38C:  MOVWF  FE9
0A38E:  MOVFF  633,637
0A392:  MOVFF  632,636
0A396:  CALL   608A
0A39A:  MOVLW  DA
0A39C:  MOVWF  FF6
0A39E:  MOVLW  14
0A3A0:  MOVWF  FF7
0A3A2:  MOVLW  05
0A3A4:  MOVLB  6
0A3A6:  MOVWF  x36
0A3A8:  MOVLB  0
0A3AA:  CALL   6060
0A3AE:  MOVLW  08
0A3B0:  MOVWF  FE9
0A3B2:  MOVFF  635,637
0A3B6:  MOVFF  634,636
0A3BA:  CALL   608A
....................          displayMenu(tempo,0,36,0,1); 
0A3BE:  MOVLW  05
0A3C0:  MOVLB  6
0A3C2:  MOVWF  x3B
0A3C4:  MOVLW  93
0A3C6:  MOVWF  x3A
0A3C8:  CLRF   x3C
0A3CA:  MOVLW  24
0A3CC:  MOVWF  x3D
0A3CE:  CLRF   x3E
0A3D0:  MOVLW  01
0A3D2:  MOVWF  x3F
0A3D4:  MOVLB  0
0A3D6:  CALL   50C0
....................          sprintf(tempo, "PWM1:%05Lu  Add:%03u", make16(pwm1h,pwm1l),address2); 
0A3DA:  MOVFF  4C4,633
0A3DE:  MOVFF  4C3,632
0A3E2:  MOVLW  05
0A3E4:  MOVLB  4
0A3E6:  MOVWF  x2B
0A3E8:  MOVLW  93
0A3EA:  MOVWF  x2A
0A3EC:  MOVLW  E6
0A3EE:  MOVWF  FF6
0A3F0:  MOVLW  14
0A3F2:  MOVWF  FF7
0A3F4:  MOVLW  05
0A3F6:  MOVLB  6
0A3F8:  MOVWF  x36
0A3FA:  MOVLB  0
0A3FC:  CALL   6060
0A400:  MOVLW  08
0A402:  MOVWF  FE9
0A404:  MOVFF  633,637
0A408:  MOVFF  632,636
0A40C:  CALL   608A
0A410:  MOVLW  F0
0A412:  MOVWF  FF6
0A414:  MOVLW  14
0A416:  MOVWF  FF7
0A418:  MOVLW  06
0A41A:  MOVLB  6
0A41C:  MOVWF  x36
0A41E:  MOVLB  0
0A420:  CALL   6060
0A424:  MOVFF  4C0,640
0A428:  MOVLW  03
0A42A:  MOVLB  6
0A42C:  MOVWF  x41
0A42E:  MOVLB  0
0A430:  CALL   5B8A
....................          displayMenu(tempo,0,45,0,1); 
0A434:  MOVLW  05
0A436:  MOVLB  6
0A438:  MOVWF  x3B
0A43A:  MOVLW  93
0A43C:  MOVWF  x3A
0A43E:  CLRF   x3C
0A440:  MOVLW  2D
0A442:  MOVWF  x3D
0A444:  CLRF   x3E
0A446:  MOVLW  01
0A448:  MOVWF  x3F
0A44A:  MOVLB  0
0A44C:  CALL   50C0
....................          sprintf(tempo, "tx[0]:%03u tx[19]:%03u", txbuf[0],txbuf[19]); 
0A450:  MOVLW  05
0A452:  MOVLB  4
0A454:  MOVWF  x2B
0A456:  MOVLW  93
0A458:  MOVWF  x2A
0A45A:  MOVLW  FC
0A45C:  MOVWF  FF6
0A45E:  MOVLW  14
0A460:  MOVWF  FF7
0A462:  MOVLW  06
0A464:  MOVLB  6
0A466:  MOVWF  x36
0A468:  MOVLB  0
0A46A:  CALL   6060
0A46E:  MOVFF  5C7,640
0A472:  MOVLW  03
0A474:  MOVLB  6
0A476:  MOVWF  x41
0A478:  MOVLB  0
0A47A:  CALL   5B8A
0A47E:  MOVLW  06
0A480:  MOVWF  FF6
0A482:  MOVLW  15
0A484:  MOVWF  FF7
0A486:  MOVLW  08
0A488:  MOVLB  6
0A48A:  MOVWF  x36
0A48C:  MOVLB  0
0A48E:  CALL   6060
0A492:  MOVFF  5DA,640
0A496:  MOVLW  03
0A498:  MOVLB  6
0A49A:  MOVWF  x41
0A49C:  MOVLB  0
0A49E:  CALL   5B8A
....................          displayMenu(tempo,0,54,0,1); 
0A4A2:  MOVLW  05
0A4A4:  MOVLB  6
0A4A6:  MOVWF  x3B
0A4A8:  MOVLW  93
0A4AA:  MOVWF  x3A
0A4AC:  CLRF   x3C
0A4AE:  MOVLW  36
0A4B0:  MOVWF  x3D
0A4B2:  CLRF   x3E
0A4B4:  MOVLW  01
0A4B6:  MOVWF  x3F
0A4B8:  MOVLB  0
0A4BA:  CALL   50C0
....................          sprintf(tempo, "Lectura MODBUS"); 
0A4BE:  MOVLW  05
0A4C0:  MOVLB  4
0A4C2:  MOVWF  x2B
0A4C4:  MOVLW  93
0A4C6:  MOVWF  x2A
0A4C8:  MOVLW  14
0A4CA:  MOVWF  FF6
0A4CC:  MOVLW  15
0A4CE:  MOVWF  FF7
0A4D0:  MOVLB  0
0A4D2:  GOTO   6148
....................          displayMenu(tempo,0,0,1,1); 
0A4D6:  MOVLW  05
0A4D8:  MOVLB  6
0A4DA:  MOVWF  x3B
0A4DC:  MOVLW  93
0A4DE:  MOVWF  x3A
0A4E0:  CLRF   x3C
0A4E2:  CLRF   x3D
0A4E4:  MOVLW  01
0A4E6:  MOVWF  x3E
0A4E8:  MOVWF  x3F
0A4EA:  MOVLB  0
0A4EC:  CALL   50C0
....................        
....................       if(tup>=30){ 
0A4F0:  MOVLB  4
0A4F2:  MOVF   xD7,F
0A4F4:  BNZ   A4FC
0A4F6:  MOVF   xD6,W
0A4F8:  SUBLW  1D
0A4FA:  BC    A4FE
....................          address2++; 
0A4FC:  INCF   xC0,F
....................       } 
....................        
....................       if(tdown>=30){ 
0A4FE:  MOVF   xD9,F
0A500:  BNZ   A508
0A502:  MOVF   xD8,W
0A504:  SUBLW  1D
0A506:  BC    A50A
....................          address2--; 
0A508:  DECF   xC0,F
....................       } 
....................        
....................       if(tright>=30){ 
0A50A:  MOVF   xDB,F
0A50C:  BNZ   A514
0A50E:  MOVF   xDA,W
0A510:  SUBLW  1D
0A512:  BC    A534
....................          instruccion=5; 
0A514:  MOVLW  05
0A516:  MOVWF  xBE
....................          address=address2; 
0A518:  MOVFF  4C0,4BF
....................          reg=pwm1; 
0A51C:  MOVFF  4E1,4DF
0A520:  MOVFF  4E0,4DE
....................          regl=make8(reg,0); 
0A524:  MOVFF  4DE,4C1
....................          regh=make8(reg,1); 
0A528:  MOVFF  4DF,4C2
....................          Envio_Esclavos(); 
0A52C:  MOVLB  0
0A52E:  CALL   1AC2
0A532:  MOVLB  4
....................       } 
....................                    
....................       if(tleft>=30)//Si oprime boton de Toma. 
0A534:  MOVF   xDD,F
0A536:  BNZ   A53E
0A538:  MOVF   xDC,W
0A53A:  SUBLW  1D
0A53C:  BC    A574
....................       {        
....................          instruccion=0; 
0A53E:  CLRF   xBE
....................          address=0; 
0A540:  CLRF   xBF
....................          regl=0; 
0A542:  CLRF   xC1
....................          regh=0; 
0A544:  CLRF   xC2
....................          Envio_Esclavos(); 
0A546:  MOVLB  0
0A548:  CALL   1AC2
....................          delay_ms(200); 
0A54C:  MOVLW  C8
0A54E:  MOVLB  6
0A550:  MOVWF  x46
0A552:  MOVLB  0
0A554:  CALL   1524
....................          Opcion=1;unidad=1; 
0A558:  MOVLW  01
0A55A:  MOVLB  4
0A55C:  MOVWF  xB4
0A55E:  MOVWF  xB3
....................          glcd_fillScreen(OFF); 
0A560:  MOVLB  6
0A562:  CLRF   x3A
0A564:  MOVLB  0
0A566:  CALL   1582
....................          glcd_update(); 
0A56A:  CALL   15DC
....................          Menu=32; 
0A56E:  MOVLW  20
0A570:  MOVLB  4
0A572:  MOVWF  xB2
....................       } 
....................     } 
.................... //_--------------------------------------------------------------------------------------------------------------------------------------------------------        
....................  
.................... //_-------------------------------------------------------------------------------------------------------------------------------------------------------- 
....................       if(Menu==120){ //Menu de Post-Purga. 
0A574:  MOVF   xB2,W
0A576:  SUBLW  78
0A578:  BTFSS  FD8.2
0A57A:  BRA    A6E0
....................        
....................       // Para que inicie el tiempo de Post-Purga se debe oprimir el boton de encendido en el Microcontrolador esclavo. 
....................       strcpy(Menus.Letra,"Tiempo"); 
0A57C:  MOVLW  04
0A57E:  MOVWF  FEA
0A580:  MOVLW  16
0A582:  MOVWF  FE9
0A584:  MOVFF  FF2,632
0A588:  BCF    FF2.7
0A58A:  MOVLW  00
0A58C:  MOVLB  0
0A58E:  CALL   1322
0A592:  TBLRD*-
0A594:  TBLRD*+
0A596:  MOVF   FF5,W
0A598:  MOVWF  FEE
0A59A:  IORLW  00
0A59C:  BNZ   A594
0A59E:  MOVLB  6
0A5A0:  BTFSC  x32.7
0A5A2:  BSF    FF2.7
....................       displayMenu(Menus.Letra,30,0,1,2); 
0A5A4:  MOVLW  04
0A5A6:  MOVWF  x3B
0A5A8:  MOVLW  16
0A5AA:  MOVWF  x3A
0A5AC:  MOVLW  1E
0A5AE:  MOVWF  x3C
0A5B0:  CLRF   x3D
0A5B2:  MOVLW  01
0A5B4:  MOVWF  x3E
0A5B6:  MOVLW  02
0A5B8:  MOVWF  x3F
0A5BA:  MOVLB  0
0A5BC:  CALL   50C0
....................       strcpy(Menus.Letra,"Post-Purga"); 
0A5C0:  MOVLW  04
0A5C2:  MOVWF  FEA
0A5C4:  MOVLW  16
0A5C6:  MOVWF  FE9
0A5C8:  MOVFF  FF2,632
0A5CC:  BCF    FF2.7
0A5CE:  MOVLW  00
0A5D0:  CALL   1344
0A5D4:  TBLRD*-
0A5D6:  TBLRD*+
0A5D8:  MOVF   FF5,W
0A5DA:  MOVWF  FEE
0A5DC:  IORLW  00
0A5DE:  BNZ   A5D6
0A5E0:  MOVLB  6
0A5E2:  BTFSC  x32.7
0A5E4:  BSF    FF2.7
....................       displayMenu(Menus.Letra,10,17,1,2); 
0A5E6:  MOVLW  04
0A5E8:  MOVWF  x3B
0A5EA:  MOVLW  16
0A5EC:  MOVWF  x3A
0A5EE:  MOVLW  0A
0A5F0:  MOVWF  x3C
0A5F2:  MOVLW  11
0A5F4:  MOVWF  x3D
0A5F6:  MOVLW  01
0A5F8:  MOVWF  x3E
0A5FA:  MOVLW  02
0A5FC:  MOVWF  x3F
0A5FE:  MOVLB  0
0A600:  CALL   50C0
....................        
....................       tiempo_postpurga=1; 
0A604:  MOVLB  4
0A606:  BSF    x2D.7
....................       LuzBlanca_off;  
0A608:  BSF    F8B.2
0A60A:  BCF    F94.2
....................       Aux_off; 
0A60C:  BCF    F8B.0
0A60E:  BCF    F94.0
....................       VelocidadMotor(VelMotor); 
0A610:  MOVFF  592,632
0A614:  MOVLB  0
0A616:  CALL   1DE4
....................       flag_blower=1; 
0A61A:  MOVLB  4
0A61C:  BSF    x2C.7
....................        
....................        displayTiempo(Tppurga[3],20,40,0,2);displayTiempo(Tppurga[2],40,40,0,2);glcd_text57(60, 42, Dos_puntos, 2, ON); 
0A61E:  MOVFF  4EF,632
0A622:  MOVLW  14
0A624:  MOVLB  6
0A626:  MOVWF  x33
0A628:  MOVLW  28
0A62A:  MOVWF  x34
0A62C:  CLRF   x35
0A62E:  MOVLW  02
0A630:  MOVWF  x36
0A632:  MOVLB  0
0A634:  CALL   5890
0A638:  MOVFF  4EE,632
0A63C:  MOVLW  28
0A63E:  MOVLB  6
0A640:  MOVWF  x33
0A642:  MOVWF  x34
0A644:  CLRF   x35
0A646:  MOVLW  02
0A648:  MOVWF  x36
0A64A:  MOVLB  0
0A64C:  CALL   5890
0A650:  MOVLW  3C
0A652:  MOVLB  6
0A654:  MOVWF  x4B
0A656:  MOVLW  2A
0A658:  MOVWF  x4C
0A65A:  MOVLW  04
0A65C:  MOVWF  x4E
0A65E:  MOVLW  4D
0A660:  MOVWF  x4D
0A662:  MOVLW  02
0A664:  MOVWF  x4F
0A666:  MOVLW  01
0A668:  MOVWF  x50
0A66A:  MOVLB  0
0A66C:  CALL   4E50
....................        displayTiempo(Tppurga[1],70,40,0,2);displayTiempo(Tppurga[0],90,40,0,2);  
0A670:  MOVFF  4ED,632
0A674:  MOVLW  46
0A676:  MOVLB  6
0A678:  MOVWF  x33
0A67A:  MOVLW  28
0A67C:  MOVWF  x34
0A67E:  CLRF   x35
0A680:  MOVLW  02
0A682:  MOVWF  x36
0A684:  MOVLB  0
0A686:  CALL   5890
0A68A:  MOVFF  4EC,632
0A68E:  MOVLW  5A
0A690:  MOVLB  6
0A692:  MOVWF  x33
0A694:  MOVLW  28
0A696:  MOVWF  x34
0A698:  CLRF   x35
0A69A:  MOVLW  02
0A69C:  MOVWF  x36
0A69E:  MOVLB  0
0A6A0:  CALL   5890
....................        
....................       if(tup>=400){ 
0A6A4:  MOVLB  4
0A6A6:  MOVF   xD7,W
0A6A8:  SUBLW  00
0A6AA:  BC    A6B8
0A6AC:  XORLW  FF
0A6AE:  BNZ   A6B6
0A6B0:  MOVF   xD6,W
0A6B2:  SUBLW  8F
0A6B4:  BC    A6B8
....................          reset_cpu(); 
0A6B6:  RESET
....................       } 
....................        
....................       if((Tppurga[0]==Tppurgap[0])&&(Tppurga[1]==Tppurgap[1])&&(Tppurga[2]==Tppurgap[2])&&(Tppurga[3]==Tppurgap[3])) 
0A6B8:  MOVF   xF0,W
0A6BA:  SUBWF  xEC,W
0A6BC:  BNZ   A6E0
0A6BE:  MOVF   xF1,W
0A6C0:  SUBWF  xED,W
0A6C2:  BNZ   A6E0
0A6C4:  MOVF   xF2,W
0A6C6:  SUBWF  xEE,W
0A6C8:  BNZ   A6E0
0A6CA:  MOVF   xF3,W
0A6CC:  SUBWF  xEF,W
0A6CE:  BNZ   A6E0
....................       {tiempo_postpurga=0;glcd_fillScreen(OFF);reset_cpu();} 
0A6D0:  BCF    x2D.7
0A6D2:  MOVLB  6
0A6D4:  CLRF   x3A
0A6D6:  MOVLB  0
0A6D8:  CALL   1582
0A6DC:  RESET
0A6DE:  MOVLB  4
....................       
....................     } 
.................... //_--------------------------------------------------------------------------------------------------------------------------------------------------------        
....................  
.................... //_-------------------------------------------------------------------------------------------------------------------------------------------------------- 
....................       if(Menu==200){ //Menu de Inicio. 
0A6E0:  MOVF   xB2,W
0A6E2:  SUBLW  C8
0A6E4:  BTFSS  FD8.2
0A6E6:  BRA    A87C
....................       if(tright>=400){ 
0A6E8:  MOVF   xDB,W
0A6EA:  SUBLW  00
0A6EC:  BTFSC  FD8.0
0A6EE:  BRA    A85A
0A6F0:  XORLW  FF
0A6F2:  BNZ   A6FC
0A6F4:  MOVF   xDA,W
0A6F6:  SUBLW  8F
0A6F8:  BTFSC  FD8.0
0A6FA:  BRA    A85A
....................             Display_on; 
0A6FC:  BSF    F8A.1
0A6FE:  BCF    F93.1
....................             glcd_init(ON);             //Inicializa la glcd 
0A700:  MOVLW  01
0A702:  MOVLB  6
0A704:  MOVWF  x32
0A706:  MOVLB  0
0A708:  CALL   1694
....................             glcd_fillScreen(OFF);      //Limpia la pantalla 
0A70C:  MOVLB  6
0A70E:  CLRF   x3A
0A710:  MOVLB  0
0A712:  CALL   1582
....................             glcd_text57(0, 0, JP, 2, ON);glcd_text57(5, 20, Cabina, 1, ON);glcd_text57(10, 40, Clase, 2, ON);              
0A716:  MOVLB  6
0A718:  CLRF   x4B
0A71A:  CLRF   x4C
0A71C:  MOVLW  04
0A71E:  MOVWF  x4E
0A720:  MOVLW  2F
0A722:  MOVWF  x4D
0A724:  MOVLW  02
0A726:  MOVWF  x4F
0A728:  MOVLW  01
0A72A:  MOVWF  x50
0A72C:  MOVLB  0
0A72E:  CALL   4E50
0A732:  MOVLW  05
0A734:  MOVLB  6
0A736:  MOVWF  x4B
0A738:  MOVLW  14
0A73A:  MOVWF  x4C
0A73C:  MOVLW  04
0A73E:  MOVWF  x4E
0A740:  MOVLW  3B
0A742:  MOVWF  x4D
0A744:  MOVLW  01
0A746:  MOVWF  x4F
0A748:  MOVWF  x50
0A74A:  MOVLB  0
0A74C:  CALL   4E50
0A750:  MOVLW  0A
0A752:  MOVLB  6
0A754:  MOVWF  x4B
0A756:  MOVLW  28
0A758:  MOVWF  x4C
0A75A:  MOVLW  04
0A75C:  MOVWF  x4E
0A75E:  MOVLW  4F
0A760:  MOVWF  x4D
0A762:  MOVLW  02
0A764:  MOVWF  x4F
0A766:  MOVLW  01
0A768:  MOVWF  x50
0A76A:  MOVLB  0
0A76C:  CALL   4E50
....................             glcd_update();    
0A770:  CALL   15DC
....................             delay_ms(3000); 
0A774:  MOVLW  0C
0A776:  MOVLB  6
0A778:  MOVWF  x32
0A77A:  MOVLW  FA
0A77C:  MOVWF  x46
0A77E:  MOVLB  0
0A780:  CALL   1524
0A784:  MOVLB  6
0A786:  DECFSZ x32,F
0A788:  BRA    A77A
....................                         
....................             glcd_fillScreen(OFF);      //Limpia la pantalla 
0A78A:  CLRF   x3A
0A78C:  MOVLB  0
0A78E:  CALL   1582
....................             displayContrasena(Contrasena[0],20,30,1);displayContrasena(Contrasena[1],40,30,0); 
0A792:  MOVFF  500,63C
0A796:  MOVLW  14
0A798:  MOVLB  6
0A79A:  MOVWF  x3D
0A79C:  MOVLW  1E
0A79E:  MOVWF  x3E
0A7A0:  MOVLW  01
0A7A2:  MOVWF  x3F
0A7A4:  MOVLB  0
0A7A6:  CALL   5008
0A7AA:  MOVFF  501,63C
0A7AE:  MOVLW  28
0A7B0:  MOVLB  6
0A7B2:  MOVWF  x3D
0A7B4:  MOVLW  1E
0A7B6:  MOVWF  x3E
0A7B8:  CLRF   x3F
0A7BA:  MOVLB  0
0A7BC:  CALL   5008
....................             displayContrasena(Contrasena[2],60,30,0);displayContrasena(Contrasena[0],80,30,0); 
0A7C0:  MOVFF  502,63C
0A7C4:  MOVLW  3C
0A7C6:  MOVLB  6
0A7C8:  MOVWF  x3D
0A7CA:  MOVLW  1E
0A7CC:  MOVWF  x3E
0A7CE:  CLRF   x3F
0A7D0:  MOVLB  0
0A7D2:  CALL   5008
0A7D6:  MOVFF  500,63C
0A7DA:  MOVLW  50
0A7DC:  MOVLB  6
0A7DE:  MOVWF  x3D
0A7E0:  MOVLW  1E
0A7E2:  MOVWF  x3E
0A7E4:  CLRF   x3F
0A7E6:  MOVLB  0
0A7E8:  CALL   5008
....................             glcd_rect(0, 0, 127, 25, YES, ON);strcpy(Menus.Letra,"Clave");glcd_text57(25, 1, Menus.Letra, 3, OFF);    
0A7EC:  MOVLB  6
0A7EE:  CLRF   x4B
0A7F0:  CLRF   x4C
0A7F2:  MOVLW  7F
0A7F4:  MOVWF  x4D
0A7F6:  MOVLW  19
0A7F8:  MOVWF  x4E
0A7FA:  MOVLW  01
0A7FC:  MOVWF  x4F
0A7FE:  MOVWF  x50
0A800:  MOVLB  0
0A802:  CALL   4D8E
0A806:  MOVLW  04
0A808:  MOVWF  FEA
0A80A:  MOVLW  16
0A80C:  MOVWF  FE9
0A80E:  MOVFF  FF2,632
0A812:  BCF    FF2.7
0A814:  MOVLW  00
0A816:  CALL   0EEE
0A81A:  TBLRD*-
0A81C:  TBLRD*+
0A81E:  MOVF   FF5,W
0A820:  MOVWF  FEE
0A822:  IORLW  00
0A824:  BNZ   A81C
0A826:  MOVLB  6
0A828:  BTFSC  x32.7
0A82A:  BSF    FF2.7
0A82C:  MOVLW  19
0A82E:  MOVWF  x4B
0A830:  MOVLW  01
0A832:  MOVWF  x4C
0A834:  MOVLW  04
0A836:  MOVWF  x4E
0A838:  MOVLW  16
0A83A:  MOVWF  x4D
0A83C:  MOVLW  03
0A83E:  MOVWF  x4F
0A840:  CLRF   x50
0A842:  MOVLB  0
0A844:  CALL   4E50
....................             Menu=0; 
0A848:  MOVLB  4
0A84A:  CLRF   xB2
....................             glcd_fillScreen(OFF);            
0A84C:  MOVLB  6
0A84E:  CLRF   x3A
0A850:  MOVLB  0
0A852:  CALL   1582
....................       } 
....................       else 
0A856:  BRA    A87A
0A858:  MOVLB  4
....................       { 
....................          Display_off;VelocidadMotor(0);LuzBlanca_off;Aux_off;glcd_fillScreen(OFF);      //Limpia la pantalla 
0A85A:  BCF    F8A.1
0A85C:  BCF    F93.1
0A85E:  MOVLB  6
0A860:  CLRF   x32
0A862:  MOVLB  0
0A864:  CALL   1DE4
0A868:  BSF    F8B.2
0A86A:  BCF    F94.2
0A86C:  BCF    F8B.0
0A86E:  BCF    F94.0
0A870:  MOVLB  6
0A872:  CLRF   x3A
0A874:  MOVLB  0
0A876:  CALL   1582
0A87A:  MOVLB  4
....................       } 
....................     } 
.................... //_--------------------------------------------------------------------------------------------------------------------------------------------------------        
....................    if(tiemporeset>=60) 
0A87C:  MOVF   xB8,W
0A87E:  SUBLW  3B
0A880:  BC    A898
....................    { 
....................       if(Menu!=200){ 
0A882:  MOVF   xB2,W
0A884:  SUBLW  C8
0A886:  BZ    A898
....................          glcd_init(ON); 
0A888:  MOVLW  01
0A88A:  MOVLB  6
0A88C:  MOVWF  x32
0A88E:  MOVLB  0
0A890:  CALL   1694
....................          tiemporeset=0; 
0A894:  MOVLB  4
0A896:  CLRF   xB8
....................       } 
....................    }  
.................... } 
0A898:  MOVLB  0
0A89A:  GOTO   6638
....................  
.................... } 
....................  
0A89E:  SLEEP 

Configuration Fuses:
   Word  1: 0200   HS NOIESO NOFCMEN
   Word  2: 1B19   NOBROWNOUT WDT BORV21 NOPUT WDT8192
   Word  3: 0100   CCP2C1 NOPBADEN NOLPT1OSC NOMCLR
   Word  4: 0080   NOSTVREN NODEBUG NOLVP NOXINST
   Word  5: C00F   NOPROTECT NOCPD NOCPB
   Word  6: E00F   NOWRT NOWRTD NOWRTC NOWRTB
   Word  7: 400F   NOEBTR NOEBTRB
