CCS PCH C Compiler, Version 4.104, 5967               24-nov.-17 11:25

               Filename: H:\JP\JP\Laboratorio\Cabina de Bioseguridad\A2\2017\90\CBA2 Control Remoto Avantika #004587676\Firmware V1.1\Maestro_v2.lst

               ROM used: 35794 bytes (36%)
                         Largest free fragment is 32768
               RAM used: 1622 (49%) at main() level
                         1677 (50%) worst case
               Stack:    6 worst case (4 in main + 2 for interrupts)

*
00000:  GOTO   338A
*
00008:  MOVWF  04
0000A:  MOVFF  FD8,05
0000E:  MOVFF  FE0,06
00012:  MOVLB  0
00014:  MOVFF  FE9,0C
00018:  MOVFF  FEA,07
0001C:  MOVFF  FE1,08
00020:  MOVFF  FE2,09
00024:  MOVFF  FD9,0A
00028:  MOVFF  FDA,0B
0002C:  MOVFF  FF3,12
00030:  MOVFF  FF4,13
00034:  MOVFF  FFA,14
00038:  MOVFF  FFB,15
0003C:  MOVFF  00,0E
00040:  MOVFF  01,0F
00044:  MOVFF  02,10
00048:  MOVFF  03,11
0004C:  BTFSS  FF2.5
0004E:  GOTO   0058
00052:  BTFSC  FF2.2
00054:  GOTO   13F6
00058:  BTFSS  FF2.4
0005A:  GOTO   0064
0005E:  BTFSC  FF2.1
00060:  GOTO   12FC
00064:  MOVFF  0E,00
00068:  MOVFF  0F,01
0006C:  MOVFF  10,02
00070:  MOVFF  11,03
00074:  MOVFF  0C,FE9
00078:  MOVFF  07,FEA
0007C:  BSF    07.7
0007E:  MOVFF  08,FE1
00082:  MOVFF  09,FE2
00086:  MOVFF  0A,FD9
0008A:  MOVFF  0B,FDA
0008E:  MOVFF  12,FF3
00092:  MOVFF  13,FF4
00096:  MOVFF  14,FFA
0009A:  MOVFF  15,FFB
0009E:  MOVF   04,W
000A0:  MOVFF  06,FE0
000A4:  MOVFF  05,FD8
000A8:  RETFIE 0
.................... //Programa para Cabina de Bioseguridad 
....................  
.................... #include <18F4685.h> 
.................... //////// Standard Header file for the PIC18F4685 device //////////////// 
.................... #device PIC18F4685 
.................... #list 
....................  
.................... #device adc=10 
.................... #fuses HS,NOWDT,NOPROTECT,NOLVP,NODEBUG,NOSTVREN,NOPUT,NOCPD,NOWRT,NOIESO,NOFCMEN,NOPBADEN,NOWRTC,NOWRTB,NOEBTR,NOEBTRB,NOCPB,NOXINST,,NOLPT1OSC,MCLR 
.................... #use delay(clock=20000000) 
*
01576:  MOVLW  06
01578:  MOVWF  FEA
0157A:  MOVLW  56
0157C:  MOVWF  FE9
0157E:  MOVF   FEF,W
01580:  BZ    159C
01582:  MOVLW  06
01584:  MOVWF  01
01586:  CLRF   00
01588:  DECFSZ 00,F
0158A:  BRA    1588
0158C:  DECFSZ 01,F
0158E:  BRA    1586
01590:  MOVLW  7B
01592:  MOVWF  00
01594:  DECFSZ 00,F
01596:  BRA    1594
01598:  DECFSZ FEF,F
0159A:  BRA    1582
0159C:  RETLW  00
.................... #include "HDM64GS12.c" 
.................... ///////////////////////////////////////////////////////////////////////// 
.................... ////                           HDM64GS12.c                           //// 
.................... ////                                                                 //// 
.................... //// This file contains drivers for using a Hantronix HDM64GS12 with //// 
.................... //// a KS0108 display controller. The HDM64GS12 is 128 by 64 pixels. //// 
.................... //// The driver treats the upper left pixel as (0,0).                //// 
.................... ////                                                                 //// 
.................... //// Use #define FAST_GLCD if the target chip has at least 1k of RAM //// 
.................... //// to decrease the time it takes to update the display.            //// 
.................... //// glcd_update() must then be called to update the display after   //// 
.................... //// changing the pixel information.                                 //// 
.................... //// See ex_glcd.c for suggested usage.                              //// 
.................... //// See KS0108.c for controlling a single 64 by 64 display          //// 
.................... ///////////////////////////////////////////////////////////////////////// 
.................... ////                                                                 //// 
.................... //// LCD Pin connections:                                            //// 
.................... //// (These can be changed as needed in the following defines).      //// 
.................... ////  * 1: VSS is connected to GND                                   //// 
.................... ////  * 2: VDD is connected to +5V                                   //// 
.................... ////  * 3: V0  - LCD operating voltage (Constrast adjustment)        //// 
.................... ////  * 4: D/I - Data or Instruction is connected to B2              //// 
.................... ////  * 5: R/W - Read or Write is connected to B4                    //// 
.................... ////  * 6: Enable is connected to B5                                 //// 
.................... ////  *7-14: Data Bus 0 to 7 is connected to port d                  //// 
.................... ////  *15: Chip Select 1 is connected to B0                          //// 
.................... ////  *16: Chip Select 2 is connected to B1                          //// 
.................... ////  *17: Reset is connected to C0                                  //// 
.................... ////  *18: Negative voltage is also connected to the 20k Ohm POT     //// 
.................... ////  *19: Positive voltage for LED backlight is connected to +5V    //// 
.................... ////  *20: Negavtive voltage for LED backlight is connected to GND   //// 
.................... ////                                                                 //// 
.................... ///////////////////////////////////////////////////////////////////////// 
.................... ////                                                                 //// 
.................... ////  glcd_init(mode)                                                //// 
.................... ////     * Must be called before any other function.                 //// 
.................... ////       - mode can be ON or OFF to turn the LCD on or off         //// 
.................... ////                                                                 //// 
.................... ////  glcd_pixel(x,y,color)                                          //// 
.................... ////     * Sets the pixel to the given color.                        //// 
.................... ////       - color can be ON or OFF                                  //// 
.................... ////                                                                 //// 
.................... ////  glcd_fillScreen(color)                                         //// 
.................... ////     * Fills the entire LCD with the given color.                //// 
.................... ////       - color can be ON or OFF                                  //// 
.................... ////                                                                 //// 
.................... ////  glcd_update()                                                  //// 
.................... ////     * Write the display data stored in RAM to the LCD           //// 
.................... ////     * Only available if FAST_GLCD is defined                    //// 
.................... ////                                                                 //// 
.................... ///////////////////////////////////////////////////////////////////////// 
.................... ////        (C) Copyright 1996, 2004 Custom Computer Services        //// 
.................... //// This source code may only be used by licensed users of the CCS  //// 
.................... //// C compiler.  This source code may only be distributed to other  //// 
.................... //// licensed users of the CCS C compiler.  No other use,            //// 
.................... //// reproduction or distribution is permitted without written       //// 
.................... //// permission.  Derivative programs created using this software    //// 
.................... //// in object code form are not restricted in any way.              //// 
.................... ///////////////////////////////////////////////////////////////////////// 
....................  
....................  
....................  
.................... #ifndef HDM64GS12 
.................... #define HDM64GS12 
....................  
.................... #ifndef FAST_GLCD 
.................... #define FAST_GLCD 
....................  
.................... #ifndef GLCD_WIDTH 
.................... #define GLCD_WIDTH   128 
.................... #endif 
....................  
.................... #ifndef GLCD_CS1 
.................... #define GLCD_CS1     PIN_B2   // Chip Selection 1 
.................... #endif 
....................  
.................... #ifndef GLCD_CS2 
.................... #define GLCD_CS2     PIN_B3   // Chip Selection 2 
.................... #endif 
....................  
.................... #ifndef GLCD_DI 
.................... #define GLCD_DI      PIN_B5   // Data or Instruction input 
.................... #endif 
....................  
.................... #ifndef GLCD_RW 
.................... #define GLCD_RW      PIN_B6   // Read/Write 
.................... #endif 
....................  
.................... #ifndef GLCD_E 
.................... #define GLCD_E       PIN_B7   // Enable 
.................... #endif 
....................  
.................... #ifndef GLCD_RST 
.................... #define GLCD_RST     PIN_B4   // Reset 
.................... #endif 
....................  
.................... #define GLCD_LEFT    0 
.................... #define GLCD_RIGHT   1 
....................  
.................... #ifndef ON 
.................... #define ON           1 
.................... #endif 
....................  
.................... #ifndef OFF 
.................... #define OFF          0 
.................... #endif 
....................  
.................... ///////////////////////////////////////////////////////////////////////// 
.................... // Function Prototypes 
.................... ///////////////////////////////////////////////////////////////////////// 
.................... void glcd_init(int1 mode); 
.................... void glcd_pixel(int8 x, int8 y, int1 color); 
.................... void glcd_fillScreen(int1 color); 
.................... void glcd_writeByte(int1 side, BYTE data); 
.................... BYTE glcd_readByte(int1 side); 
.................... void glcd_update(); 
.................... ///////////////////////////////////////////////////////////////////////// 
....................  
.................... #ifdef FAST_GLCD 
.................... struct 
.................... { 
....................    int8 left[512]; 
....................    int8 right[512]; 
.................... } displayData; 
.................... #endif 
....................  
....................  
.................... // Purpose:       Initialize the LCD. 
.................... //                Call before using any other LCD function. 
.................... // Inputs:        OFF - Turns the LCD off 
.................... //                ON  - Turns the LCD on 
.................... void glcd_init(int1 mode) 
.................... { 
....................    // Initialze some pins 
....................    output_high(GLCD_RST); 
*
022B6:  BCF    F93.4
022B8:  BSF    F8A.4
....................    output_low(GLCD_E); 
022BA:  BCF    F93.7
022BC:  BCF    F8A.7
....................    output_low(GLCD_CS1); 
022BE:  BCF    F93.2
022C0:  BCF    F8A.2
....................    output_low(GLCD_CS2); 
022C2:  BCF    F93.3
022C4:  BCF    F8A.3
....................  
....................    output_low(GLCD_DI);                 // Set for instruction 
022C6:  BCF    F93.5
022C8:  BCF    F8A.5
....................    glcd_writeByte(GLCD_LEFT,  0xC0);    // Specify first RAM line at the top 
022CA:  MOVLB  6
022CC:  CLRF   x56
022CE:  MOVLW  C0
022D0:  MOVWF  x57
022D2:  MOVLB  0
022D4:  CALL   1A0C
....................    glcd_writeByte(GLCD_RIGHT, 0xC0);    //   of the screen 
022D8:  MOVLW  01
022DA:  MOVLB  6
022DC:  MOVWF  x56
022DE:  MOVLW  C0
022E0:  MOVWF  x57
022E2:  MOVLB  0
022E4:  CALL   1A0C
....................    glcd_writeByte(GLCD_LEFT,  0x40);    // Set the column address to 0 
022E8:  MOVLB  6
022EA:  CLRF   x56
022EC:  MOVLW  40
022EE:  MOVWF  x57
022F0:  MOVLB  0
022F2:  CALL   1A0C
....................    glcd_writeByte(GLCD_RIGHT, 0x40); 
022F6:  MOVLW  01
022F8:  MOVLB  6
022FA:  MOVWF  x56
022FC:  MOVLW  40
022FE:  MOVWF  x57
02300:  MOVLB  0
02302:  CALL   1A0C
....................    glcd_writeByte(GLCD_LEFT,  0xB8);    // Set the page address to 0 
02306:  MOVLB  6
02308:  CLRF   x56
0230A:  MOVLW  B8
0230C:  MOVWF  x57
0230E:  MOVLB  0
02310:  CALL   1A0C
....................    glcd_writeByte(GLCD_RIGHT, 0xB8); 
02314:  MOVLW  01
02316:  MOVLB  6
02318:  MOVWF  x56
0231A:  MOVLW  B8
0231C:  MOVWF  x57
0231E:  MOVLB  0
02320:  CALL   1A0C
....................  
....................    if(mode == ON) 
02324:  MOVLB  6
02326:  DECFSZ x4E,W
02328:  BRA    234A
....................    { 
....................       glcd_writeByte(GLCD_LEFT,  0x3F); // Turn the display on 
0232A:  CLRF   x56
0232C:  MOVLW  3F
0232E:  MOVWF  x57
02330:  MOVLB  0
02332:  CALL   1A0C
....................       glcd_writeByte(GLCD_RIGHT, 0x3F); 
02336:  MOVLW  01
02338:  MOVLB  6
0233A:  MOVWF  x56
0233C:  MOVLW  3F
0233E:  MOVWF  x57
02340:  MOVLB  0
02342:  CALL   1A0C
....................    } 
....................    else 
02346:  BRA    2366
02348:  MOVLB  6
....................    { 
....................       glcd_writeByte(GLCD_LEFT,  0x3E); // Turn the display off 
0234A:  CLRF   x56
0234C:  MOVLW  3E
0234E:  MOVWF  x57
02350:  MOVLB  0
02352:  CALL   1A0C
....................       glcd_writeByte(GLCD_RIGHT, 0x3E); 
02356:  MOVLW  01
02358:  MOVLB  6
0235A:  MOVWF  x56
0235C:  MOVLW  3E
0235E:  MOVWF  x57
02360:  MOVLB  0
02362:  CALL   1A0C
....................    } 
....................  
....................    glcd_fillScreen(OFF);                // Clear the display 
02366:  MOVLB  6
02368:  CLRF   x4F
0236A:  MOVLB  0
0236C:  RCALL  225C
....................  
....................    #ifdef FAST_GLCD 
....................    glcd_update(); 
0236E:  CALL   1A42
....................    #endif 
.................... } 
02372:  RETLW  00
....................  
....................  
.................... // Purpose:    Update the LCD with data from the display arrays 
.................... #ifdef FAST_GLCD 
.................... void glcd_update() 
.................... { 
....................    int8 i, j; 
....................    int8 *p1, *p2; 
....................  
....................    p1 = displayData.left; 
*
01A42:  MOVLB  6
01A44:  CLRF   x52
01A46:  MOVLW  17
01A48:  MOVWF  x51
....................    p2 = displayData.right; 
01A4A:  MOVLW  02
01A4C:  MOVWF  x54
01A4E:  MOVLW  17
01A50:  MOVWF  x53
....................  
....................    // Loop through the vertical pages 
....................    for(i = 0; i < 8; ++i) 
01A52:  CLRF   x4F
01A54:  MOVF   x4F,W
01A56:  SUBLW  07
01A58:  BNC   1AF6
....................    { 
....................       output_low(GLCD_DI);                      // Set for instruction 
01A5A:  BCF    F93.5
01A5C:  BCF    F8A.5
....................       glcd_writeByte(GLCD_LEFT, 0x40);          // Set horizontal address to 0 
01A5E:  CLRF   x56
01A60:  MOVLW  40
01A62:  MOVWF  x57
01A64:  MOVLB  0
01A66:  RCALL  1A0C
....................       glcd_writeByte(GLCD_RIGHT, 0x40); 
01A68:  MOVLW  01
01A6A:  MOVLB  6
01A6C:  MOVWF  x56
01A6E:  MOVLW  40
01A70:  MOVWF  x57
01A72:  MOVLB  0
01A74:  RCALL  1A0C
....................       glcd_writeByte(GLCD_LEFT, i | 0xB8);      // Set page address 
01A76:  MOVLB  6
01A78:  MOVF   x4F,W
01A7A:  IORLW  B8
01A7C:  MOVWF  x55
01A7E:  CLRF   x56
01A80:  MOVWF  x57
01A82:  MOVLB  0
01A84:  RCALL  1A0C
....................       glcd_writeByte(GLCD_RIGHT, i | 0xB8); 
01A86:  MOVLB  6
01A88:  MOVF   x4F,W
01A8A:  IORLW  B8
01A8C:  MOVWF  x55
01A8E:  MOVLW  01
01A90:  MOVWF  x56
01A92:  MOVFF  655,657
01A96:  MOVLB  0
01A98:  RCALL  1A0C
....................       output_high(GLCD_DI);                     // Set for data 
01A9A:  BCF    F93.5
01A9C:  BSF    F8A.5
....................  
....................       // Loop through the horizontal sections 
....................       for(j = 0; j < 64; ++j) 
01A9E:  MOVLB  6
01AA0:  CLRF   x50
01AA2:  MOVF   x50,W
01AA4:  SUBLW  3F
01AA6:  BNC   1AF2
....................       { 
....................          glcd_writeByte(GLCD_LEFT, *p1++);      // Turn pixels on or off 
01AA8:  MOVFF  652,03
01AAC:  MOVF   x51,W
01AAE:  INCF   x51,F
01AB0:  BTFSC  FD8.2
01AB2:  INCF   x52,F
01AB4:  MOVWF  FE9
01AB6:  MOVFF  03,FEA
01ABA:  MOVFF  FEF,655
01ABE:  CLRF   x56
01AC0:  MOVFF  655,657
01AC4:  MOVLB  0
01AC6:  RCALL  1A0C
....................          glcd_writeByte(GLCD_RIGHT, *p2++);     // Turn pixels on or off 
01AC8:  MOVLB  6
01ACA:  MOVFF  654,03
01ACE:  MOVF   x53,W
01AD0:  INCF   x53,F
01AD2:  BTFSC  FD8.2
01AD4:  INCF   x54,F
01AD6:  MOVWF  FE9
01AD8:  MOVFF  03,FEA
01ADC:  MOVFF  FEF,655
01AE0:  MOVLW  01
01AE2:  MOVWF  x56
01AE4:  MOVFF  655,657
01AE8:  MOVLB  0
01AEA:  RCALL  1A0C
....................       } 
01AEC:  MOVLB  6
01AEE:  INCF   x50,F
01AF0:  BRA    1AA2
....................    } 
01AF2:  INCF   x4F,F
01AF4:  BRA    1A54
.................... } 
01AF6:  MOVLB  0
01AF8:  RETLW  00
.................... #endif 
....................  
....................  
.................... // Purpose:    Turn a pixel on a graphic LCD on or off 
.................... // Inputs:     1) x - the x coordinate of the pixel 
.................... //             2) y - the y coordinate of the pixel 
.................... //             3) color - ON or OFF 
.................... void glcd_pixel(int8 x, int8 y, int1 color) 
.................... #ifdef FAST_GLCD 
.................... { 
....................    int8* p; 
....................    int16 temp; 
....................    temp =  y/8; 
*
0249E:  MOVLB  6
024A0:  CLRF   x86
024A2:  RRCF   x81,W
024A4:  MOVWF  x85
024A6:  RRCF   x85,F
024A8:  RRCF   x85,F
024AA:  MOVLW  1F
024AC:  ANDWF  x85,F
....................    temp *= 64; 
024AE:  RLCF   x85,F
024B0:  RLCF   x86,F
024B2:  RLCF   x85,F
024B4:  RLCF   x86,F
024B6:  RLCF   x85,F
024B8:  RLCF   x86,F
024BA:  RLCF   x85,F
024BC:  RLCF   x86,F
024BE:  RLCF   x85,F
024C0:  RLCF   x86,F
024C2:  RLCF   x85,F
024C4:  RLCF   x86,F
024C6:  MOVLW  C0
024C8:  ANDWF  x85,F
....................    temp += x; 
024CA:  MOVF   x80,W
024CC:  ADDWF  x85,F
024CE:  MOVLW  00
024D0:  ADDWFC x86,F
....................  
....................    if(x > 63) 
024D2:  MOVF   x80,W
024D4:  SUBLW  3F
024D6:  BC    24F2
....................    { 
....................       p = displayData.right + temp - 64; 
024D8:  MOVLW  17
024DA:  ADDWF  x85,W
024DC:  MOVWF  x87
024DE:  MOVLW  02
024E0:  ADDWFC x86,W
024E2:  MOVWF  x88
024E4:  MOVLW  40
024E6:  SUBWF  x87,W
024E8:  MOVWF  x83
024EA:  MOVLW  00
024EC:  SUBWFB x88,W
024EE:  MOVWF  x84
....................    } 
....................    else 
024F0:  BRA    24FE
....................    { 
....................       p = displayData.left + temp; 
024F2:  MOVLW  17
024F4:  ADDWF  x85,W
024F6:  MOVWF  x83
024F8:  MOVLW  00
024FA:  ADDWFC x86,W
024FC:  MOVWF  x84
....................    } 
....................  
....................    if(color) 
024FE:  MOVF   x82,F
02500:  BZ    252C
....................    { 
....................       bit_set(*p, y%8); 
02502:  MOVFF  684,03
02506:  MOVFF  683,FE9
0250A:  MOVFF  684,FEA
0250E:  MOVF   x81,W
02510:  ANDLW  07
02512:  MOVWF  x87
02514:  MOVLW  01
02516:  MOVWF  00
02518:  MOVF   x87,W
0251A:  MOVWF  01
0251C:  BZ    2526
0251E:  BCF    FD8.0
02520:  RLCF   00,F
02522:  DECFSZ 01,F
02524:  BRA    251E
02526:  MOVF   00,W
02528:  IORWF  FEF,F
....................    } 
....................    else 
0252A:  BRA    2556
....................    { 
....................       bit_clear(*p, y%8); 
0252C:  MOVFF  684,03
02530:  MOVFF  683,FE9
02534:  MOVFF  684,FEA
02538:  MOVF   x81,W
0253A:  ANDLW  07
0253C:  MOVWF  x87
0253E:  MOVLW  01
02540:  MOVWF  00
02542:  MOVF   x87,W
02544:  MOVWF  01
02546:  BZ    2550
02548:  BCF    FD8.0
0254A:  RLCF   00,F
0254C:  DECFSZ 01,F
0254E:  BRA    2548
02550:  MOVF   00,W
02552:  XORLW  FF
02554:  ANDWF  FEF,F
....................    } 
.................... } 
02556:  MOVLB  0
02558:  RETLW  00
.................... #else 
.................... { 
....................    BYTE data; 
....................    int1 side = GLCD_LEFT;  // Stores which chip to use on the LCD 
....................  
....................    if(x > 63)              // Check for first or second display area 
....................    { 
....................       x -= 64; 
....................       side = GLCD_RIGHT; 
....................    } 
....................  
....................    output_low(GLCD_DI);                         // Set for instruction 
....................    bit_clear(x,7);                              // Clear the MSB. Part of an instruction code 
....................    bit_set(x,6);                                // Set bit 6. Also part of an instruction code 
....................    glcd_writeByte(side, x);                     // Set the horizontal address 
....................    glcd_writeByte(side, (y/8 & 0xBF) | 0xB8);   // Set the vertical page address 
....................    output_high(GLCD_DI);                        // Set for data 
....................    glcd_readByte(side);                         // Need two reads to get data 
....................    data = glcd_readByte(side);                  //  at new address 
....................  
....................    if(color == ON) 
....................       bit_set(data, y%8);        // Turn the pixel on 
....................    else                          // or 
....................       bit_clear(data, y%8);      // turn the pixel off 
....................  
....................    output_low(GLCD_DI);          // Set for instruction 
....................    glcd_writeByte(side, x);      // Set the horizontal address 
....................    output_high(GLCD_DI);         // Set for data 
....................    glcd_writeByte(side, data);   // Write the pixel data 
.................... } 
.................... #endif 
....................  
....................  
.................... // Purpose:    Fill the LCD screen with the passed in color 
.................... // Inputs:     ON  - turn all the pixels on 
.................... //             OFF - turn all the pixels off 
.................... void glcd_fillScreen(int1 color) 
.................... #ifdef FAST_GLCD 
.................... { 
....................    int8  data; 
....................    int8  *p1, *p2; 
....................    int16 i; 
....................  
....................    p1 = displayData.left; 
*
0225C:  MOVLB  6
0225E:  CLRF   x52
02260:  MOVLW  17
02262:  MOVWF  x51
....................    p2 = displayData.right; 
02264:  MOVLW  02
02266:  MOVWF  x54
02268:  MOVLW  17
0226A:  MOVWF  x53
....................    data = 0xFF * color; 
0226C:  MOVF   x4F,W
0226E:  MULLW  FF
02270:  MOVFF  FF3,650
....................  
....................    for(i=0; i<512; ++i) 
02274:  CLRF   x56
02276:  CLRF   x55
02278:  MOVF   x56,W
0227A:  SUBLW  01
0227C:  BNC   22B2
....................    { 
....................       *p1++ = data; 
0227E:  MOVFF  652,03
02282:  MOVF   x51,W
02284:  INCF   x51,F
02286:  BTFSC  FD8.2
02288:  INCF   x52,F
0228A:  MOVWF  FE9
0228C:  MOVFF  03,FEA
02290:  MOVFF  650,FEF
....................       *p2++ = data; 
02294:  MOVFF  654,03
02298:  MOVF   x53,W
0229A:  INCF   x53,F
0229C:  BTFSC  FD8.2
0229E:  INCF   x54,F
022A0:  MOVWF  FE9
022A2:  MOVFF  03,FEA
022A6:  MOVFF  650,FEF
....................    } 
022AA:  INCF   x55,F
022AC:  BTFSC  FD8.2
022AE:  INCF   x56,F
022B0:  BRA    2278
.................... } 
022B2:  MOVLB  0
022B4:  RETLW  00
.................... #else 
.................... { 
....................    int8 i, j; 
....................  
....................    // Loop through the vertical pages 
....................    for(i = 0; i < 8; ++i) 
....................    { 
....................       output_low(GLCD_DI);                      // Set for instruction 
....................       glcd_writeByte(GLCD_LEFT, 0b01000000);    // Set horizontal address to 0 
....................       glcd_writeByte(GLCD_RIGHT, 0b01000000); 
....................       glcd_writeByte(GLCD_LEFT, i | 0b10111000);// Set page address 
....................       glcd_writeByte(GLCD_RIGHT, i | 0b10111000); 
....................       output_high(GLCD_DI);                     // Set for data 
....................  
....................       // Loop through the horizontal sections 
....................       for(j = 0; j < 64; ++j) 
....................       { 
....................          glcd_writeByte(GLCD_LEFT, 0xFF*color);  // Turn pixels on or off 
....................          glcd_writeByte(GLCD_RIGHT, 0xFF*color); // Turn pixels on or off 
....................       } 
....................    } 
.................... } 
.................... #endif 
....................  
....................  
.................... // Purpose:    Write a byte of data to the specified chip 
.................... // Inputs:     1) chipSelect - which chip to write the data to 
.................... //             2) data - the byte of data to write 
.................... void glcd_writeByte(int1 side, BYTE data) 
.................... { 
....................    if(side)                   // Choose which side to write to 
*
01A0C:  MOVLB  6
01A0E:  MOVF   x56,F
01A10:  BZ    1A18
....................       output_high(GLCD_CS2); 
01A12:  BCF    F93.3
01A14:  BSF    F8A.3
....................    else 
01A16:  BRA    1A1C
....................       output_high(GLCD_CS1); 
01A18:  BCF    F93.2
01A1A:  BSF    F8A.2
....................  
....................    output_low(GLCD_RW);       // Set for writing 
01A1C:  BCF    F93.6
01A1E:  BCF    F8A.6
....................    output_d(data);            // Put the data on the port 
01A20:  CLRF   F95
01A22:  MOVFF  657,F8C
....................    delay_cycles(1); 
01A26:  NOP   
....................    output_high(GLCD_E);       // Pulse the enable pin 
01A28:  BCF    F93.7
01A2A:  BSF    F8A.7
....................    delay_cycles(5); 
01A2C:  BRA    1A2E
01A2E:  BRA    1A30
01A30:  NOP   
....................    output_low(GLCD_E); 
01A32:  BCF    F93.7
01A34:  BCF    F8A.7
....................  
....................    output_low(GLCD_CS1);      // Reset the chip select lines 
01A36:  BCF    F93.2
01A38:  BCF    F8A.2
....................    output_low(GLCD_CS2); 
01A3A:  BCF    F93.3
01A3C:  BCF    F8A.3
.................... } 
01A3E:  MOVLB  0
01A40:  RETLW  00
....................  
....................  
.................... // Purpose:    Reads a byte of data from the specified chip 
.................... // Ouputs:     A byte of data read from the chip 
.................... BYTE glcd_readByte(int1 side) 
.................... { 
....................    BYTE data;                 // Stores the data read from the LCD 
....................  
....................    set_tris_d(0xFF);          // Set port d to input 
....................    output_high(GLCD_RW);      // Set for reading 
....................  
....................    if(side)                   // Choose which side to write to 
....................       output_high(GLCD_CS2); 
....................    else 
....................       output_high(GLCD_CS1); 
....................  
....................    delay_cycles(1); 
....................    output_high(GLCD_E);       // Pulse the enable pin 
....................    delay_cycles(4); 
....................    data = input_d();          // Get the data from the display's output register 
....................    output_low(GLCD_E); 
....................  
....................    output_low(GLCD_CS1);      // Reset the chip select lines 
....................    output_low(GLCD_CS2); 
....................    return data;               // Return the read data 
.................... } 
....................  
.................... #endif 
....................  
.................... #include "GRAPHICS.c" 
.................... ///////////////////////////////////////////////////////////////////////// 
.................... ////                          graphics.c                             //// 
.................... ////                                                                 //// 
.................... ////   This file contains functions to draw lines, rectangles, bars, //// 
.................... ////   circles and text to a display. A function which draws a       //// 
.................... ////   single pixel must be defined before calling the functions in  //// 
.................... ////   this file. Call it glcd_pixel(x, y, color) where x is the     //// 
.................... ////   horizontal coordinate, y is the vertical coordinate, and      //// 
.................... ////   color is 1 bit to turn the pixel on or off.                   //// 
.................... ////                                                                 //// 
.................... ////   * Note: (0, 0) is treated as the upper left corner            //// 
.................... ////                                                                 //// 
.................... ///////////////////////////////////////////////////////////////////////// 
.................... ////                                                                 //// 
.................... ////  glcd_line(x1, y1, x2, y2, color)                               //// 
.................... ////     * Draws a line from the first point to the second point     //// 
.................... ////       with the given color                                      //// 
.................... ////       - color can be ON or OFF                                  //// 
.................... ////                                                                 //// 
.................... ////  glcd_rect(x1, y1, x2, y2, fill, color)                         //// 
.................... ////     * Draws a rectangle with one corner at point (x1,y1) and    //// 
.................... ////       the other corner at point (x2,y2)                         //// 
.................... ////       - fill can be YES or NO                                   //// 
.................... ////       - color can be ON or OFF                                  //// 
.................... ////                                                                 //// 
.................... ////  glcd_bar(x1, y1, x2, y2, width, color)                         //// 
.................... ////     * Draws a bar (wide line) from the first point to the       //// 
.................... ////       second point                                              //// 
.................... ////       - width is the number of pixels wide                      //// 
.................... ////       - color is ON or OFF                                      //// 
.................... ////                                                                 //// 
.................... ////  glcd_circle(x, y, radius, fill, color)                         //// 
.................... ////     * Draws a circle with center at (x,y)                       //// 
.................... ////       - fill can be YES or NO                                   //// 
.................... ////       - color can be ON or OFF                                  //// 
.................... ////                                                                 //// 
.................... ////  glcd_text57(x, y, textptr, size, color)                        //// 
.................... ////     * Write the null terminated text pointed to by textptr with //// 
.................... ////       the upper left coordinate of the first character at (x,y) //// 
.................... ////       Characters are 5 pixels wide and 7 pixels tall            //// 
.................... ////       - size is an integer that scales the size of the text     //// 
.................... ////       - color is ON or OFF                                      //// 
.................... ////     * Note - This function wraps characters to the next line    //// 
.................... ////              use #define GLCD_WIDTH to specify a display width  //// 
.................... ////                                                                 //// 
.................... ///////////////////////////////////////////////////////////////////////// 
.................... ////        (C) Copyright 1996, 2004 Custom Computer Services        //// 
.................... //// This source code may only be used by licensed users of the CCS  //// 
.................... //// C compiler.  This source code may only be distributed to other  //// 
.................... //// licensed users of the CCS C compiler.  No other use,            //// 
.................... //// reproduction or distribution is permitted without written       //// 
.................... //// permission.  Derivative programs created using this software    //// 
.................... //// in object code form are not restricted in any way.              //// 
.................... ///////////////////////////////////////////////////////////////////////// 
....................  
....................  
.................... ///////////////////////////////////////////////////////////////////////// 
.................... #ifndef GRAPHICS_DRAWING_FUNCTIONS 
.................... #define GRAPHICS_DRAWING_FUNCTIONS 
.................... ///////////////////////////////////////////////////////////////////////// 
....................  
....................  
.................... ///////////////////////////////////////////////////////////////////////// 
.................... #ifndef ON 
.................... #define ON  1 
.................... #endif 
....................  
.................... #ifndef OFF 
.................... #define OFF 0 
.................... #endif 
....................  
.................... #ifndef YES 
.................... #define YES 1 
.................... #endif 
....................  
.................... #ifndef NO 
.................... #define NO  0 
.................... #endif 
.................... ///////////////////////////////////////////////////////////////////////// 
....................  
....................  
.................... ///////////////////////////////////////////////////////////////////////// 
.................... //// Defines a 5x7 font 
.................... ///////////////////////////////////////////////////////////////////////// 
.................... const int8 FONT[51][5] ={0x00, 0x00, 0x00, 0x00, 0x00, // SPACE 
....................                          0x00, 0x00, 0x5F, 0x00, 0x00, // ! 
....................                          0x00, 0x03, 0x00, 0x03, 0x00, // " 
....................                          0x14, 0x3E, 0x14, 0x3E, 0x14, // # 
....................                          0x24, 0x2A, 0x7F, 0x2A, 0x12, // $ 
....................                          0x43, 0x33, 0x08, 0x66, 0x61, // % 
....................                          0x36, 0x49, 0x55, 0x22, 0x50, // & 
....................                          0x00, 0x05, 0x03, 0x00, 0x00, // ' 
....................                          0x00, 0x1C, 0x22, 0x41, 0x00, // ( 
....................                          0x00, 0x41, 0x22, 0x1C, 0x00, // ) 
....................                          0x14, 0x08, 0x3E, 0x08, 0x14, // * 
....................                          0x08, 0x08, 0x3E, 0x08, 0x08, // + 
....................                          0x00, 0x50, 0x30, 0x00, 0x00, // , 
....................                          0x08, 0x08, 0x08, 0x08, 0x08, // - 
....................                          0x00, 0x60, 0x60, 0x00, 0x00, // . 
....................                          0x20, 0x10, 0x08, 0x04, 0x02, // / 
....................                          0x3E, 0x51, 0x49, 0x45, 0x3E, // 0 
....................                          0x00, 0x04, 0x02, 0x7F, 0x00, // 1 
....................                          0x42, 0x61, 0x51, 0x49, 0x46, // 2 
....................                          0x22, 0x41, 0x49, 0x49, 0x36, // 3 
....................                          0x18, 0x14, 0x12, 0x7F, 0x10, // 4 
....................                          0x27, 0x45, 0x45, 0x45, 0x39, // 5 
....................                          0x3E, 0x49, 0x49, 0x49, 0x32, // 6 
....................                          0x01, 0x01, 0x71, 0x09, 0x07, // 7 
....................                          0x36, 0x49, 0x49, 0x49, 0x36, // 8 
....................                          0x26, 0x49, 0x49, 0x49, 0x3E, // 9 
....................                          0x00, 0x36, 0x36, 0x00, 0x00, // : 
....................                          0x00, 0x56, 0x36, 0x00, 0x00, // ; 
....................                          0x08, 0x14, 0x22, 0x41, 0x00, // < 
....................                          0x14, 0x14, 0x14, 0x14, 0x14, // = 
....................                          0x00, 0x41, 0x22, 0x14, 0x08, // > 
....................                          0x02, 0x01, 0x51, 0x09, 0x06, // ? 
....................                          0x3E, 0x41, 0x59, 0x55, 0x5E, // @ 
....................                          0x7E, 0x09, 0x09, 0x09, 0x7E, // A 
....................                          0x7F, 0x49, 0x49, 0x49, 0x36, // B 
....................                          0x3E, 0x41, 0x41, 0x41, 0x22, // C 
....................                          0x7F, 0x41, 0x41, 0x41, 0x3E, // D 
....................                          0x7F, 0x49, 0x49, 0x49, 0x41, // E 
....................                          0x7F, 0x09, 0x09, 0x09, 0x01, // F 
....................                          0x3E, 0x41, 0x41, 0x49, 0x3A, // G 
....................                          0x7F, 0x08, 0x08, 0x08, 0x7F, // H 
....................                          0x00, 0x41, 0x7F, 0x41, 0x00, // I 
....................                          0x30, 0x40, 0x40, 0x40, 0x3F, // J 
....................                          0x7F, 0x08, 0x14, 0x22, 0x41, // K 
....................                          0x7F, 0x40, 0x40, 0x40, 0x40, // L 
....................                          0x7F, 0x02, 0x0C, 0x02, 0x7F, // M 
....................                          0x7F, 0x02, 0x04, 0x08, 0x7F, // N 
....................                          0x3E, 0x41, 0x41, 0x41, 0x3E, // O 
....................                          0x7F, 0x09, 0x09, 0x09, 0x06, // P 
....................                          0x1E, 0x21, 0x21, 0x21, 0x5E, // Q 
....................                          0x7F, 0x09, 0x09, 0x09, 0x76};// R 
....................  
.................... const int8 FONT2[44][5]={0x26, 0x49, 0x49, 0x49, 0x32, // S 
....................                          0x01, 0x01, 0x7F, 0x01, 0x01, // T 
....................                          0x3F, 0x40, 0x40, 0x40, 0x3F, // U 
....................                          0x1F, 0x20, 0x40, 0x20, 0x1F, // V 
....................                          0x7F, 0x20, 0x10, 0x20, 0x7F, // W 
....................                          0x41, 0x22, 0x1C, 0x22, 0x41, // X 
....................                          0x07, 0x08, 0x70, 0x08, 0x07, // Y 
....................                          0x61, 0x51, 0x49, 0x45, 0x43, // Z 
....................                          0x00, 0x7F, 0x41, 0x00, 0x00, // [ 
....................                          0x02, 0x04, 0x08, 0x10, 0x20, // \ 
....................                          0x00, 0x00, 0x41, 0x7F, 0x00, // ] 
....................                          0x04, 0x02, 0x01, 0x02, 0x04, // ^ 
....................                          0x40, 0x40, 0x40, 0x40, 0x40, // _ 
....................                          0x00, 0x01, 0x02, 0x04, 0x00, // ` 
....................                          0x20, 0x54, 0x54, 0x54, 0x78, // a 
....................                          0x7F, 0x44, 0x44, 0x44, 0x38, // b 
....................                          0x38, 0x44, 0x44, 0x44, 0x44, // c 
....................                          0x38, 0x44, 0x44, 0x44, 0x7F, // d 
....................                          0x38, 0x54, 0x54, 0x54, 0x18, // e 
....................                          0x04, 0x04, 0x7E, 0x05, 0x05, // f 
....................                          0x08, 0x54, 0x54, 0x54, 0x3C, // g 
....................                          0x7F, 0x08, 0x04, 0x04, 0x78, // h 
....................                          0x00, 0x44, 0x7D, 0x40, 0x00, // i 
....................                          0x20, 0x40, 0x44, 0x3D, 0x00, // j 
....................                          0x7F, 0x10, 0x28, 0x44, 0x00, // k 
....................                          0x00, 0x41, 0x7F, 0x40, 0x00, // l 
....................                          0x7C, 0x04, 0x78, 0x04, 0x78, // m 
....................                          0x7C, 0x08, 0x04, 0x04, 0x78, // n 
....................                          0x38, 0x44, 0x44, 0x44, 0x38, // o 
....................                          0x7C, 0x14, 0x14, 0x14, 0x08, // p 
....................                          0x08, 0x14, 0x14, 0x14, 0x7C, // q 
....................                          0x00, 0x7C, 0x08, 0x04, 0x04, // r 
....................                          0x48, 0x54, 0x54, 0x54, 0x20, // s 
....................                          0x04, 0x04, 0x3F, 0x44, 0x44, // t 
....................                          0x3C, 0x40, 0x40, 0x20, 0x7C, // u 
....................                          0x1C, 0x20, 0x40, 0x20, 0x1C, // v 
....................                          0x3C, 0x40, 0x30, 0x40, 0x3C, // w 
....................                          0x44, 0x28, 0x10, 0x28, 0x44, // x 
....................                          0x0C, 0x50, 0x50, 0x50, 0x3C, // y 
....................                          0x44, 0x64, 0x54, 0x4C, 0x44, // z 
....................                          0x00, 0x08, 0x36, 0x41, 0x41, // { 
....................                          0x00, 0x00, 0x7F, 0x00, 0x00, // | 
....................                          0x41, 0x41, 0x36, 0x08, 0x00, // } 
....................                          0x02, 0x01, 0x02, 0x04, 0x02};// ~ 
.................... ///////////////////////////////////////////////////////////////////////// 
....................  
....................  
.................... ///////////////////////////////////////////////////////////////////////// 
.................... // Purpose:       Draw a line on a graphic LCD using Bresenham's 
.................... //                line drawing algorithm 
.................... // Inputs:        (x1, y1) - the start coordinate 
.................... //                (x2, y2) - the end coordinate 
.................... //                color - ON or OFF 
.................... // Dependencies:  glcd_pixel() 
.................... ///////////////////////////////////////////////////////////////////////// 
.................... #ifdef LARGE_LCD 
.................... void glcd_line(int16 x1, int16 y1, int16 x2, int16 y2, int1 color) 
.................... #else 
.................... void glcd_line(int8 x1, int8 y1, int8 x2, int8 y2, int1 color) 
.................... #endif 
.................... { 
*
0255A:  MOVLW  01
0255C:  MOVLB  6
0255E:  MOVWF  x79
02560:  MOVWF  x7A
02562:  CLRF   x7F
....................    int16        dy, dx; 
....................    signed int8  addx=1, addy=1; 
....................    signed int16 P, diff; 
....................  
....................    #ifdef LARGE_LCD 
....................    int16 i=0; 
....................    dx = abs((signed int16)(x2 - x1)); 
....................    dy = abs((signed int16)(y2 - y1)); 
....................    #else 
....................    int8 i=0; 
....................    dx = abs((signed int8)(x2 - x1)); 
02564:  MOVF   x70,W
02566:  SUBWF  x72,W
02568:  MOVWF  x80
0256A:  MOVF   x80,W
0256C:  BTFSS  x80.7
0256E:  BRA    2576
02570:  MOVLW  00
02572:  BSF    FD8.0
02574:  SUBFWB x80,W
02576:  CLRF   03
02578:  MOVWF  x77
0257A:  MOVFF  03,678
....................    dy = abs((signed int8)(y2 - y1)); 
0257E:  MOVF   x71,W
02580:  SUBWF  x73,W
02582:  MOVWF  x80
02584:  MOVF   x80,W
02586:  BTFSS  x80.7
02588:  BRA    2590
0258A:  MOVLW  00
0258C:  BSF    FD8.0
0258E:  SUBFWB x80,W
02590:  CLRF   03
02592:  MOVWF  x75
02594:  MOVFF  03,676
....................    #endif 
....................  
....................    if(x1 > x2) 
02598:  MOVF   x70,W
0259A:  SUBWF  x72,W
0259C:  BC    25A2
....................       addx = -1; 
0259E:  MOVLW  FF
025A0:  MOVWF  x79
....................    if(y1 > y2) 
025A2:  MOVF   x71,W
025A4:  SUBWF  x73,W
025A6:  BC    25AC
....................       addy = -1; 
025A8:  MOVLW  FF
025AA:  MOVWF  x7A
....................  
....................    if(dx >= dy) 
025AC:  MOVF   x76,W
025AE:  SUBWF  x78,W
025B0:  BNC   2628
025B2:  BNZ   25BA
025B4:  MOVF   x75,W
025B6:  SUBWF  x77,W
025B8:  BNC   2628
....................    { 
....................       dy *= 2; 
025BA:  BCF    FD8.0
025BC:  RLCF   x75,F
025BE:  RLCF   x76,F
....................       P = dy - dx; 
025C0:  MOVF   x77,W
025C2:  SUBWF  x75,W
025C4:  MOVWF  00
025C6:  MOVF   x78,W
025C8:  SUBWFB x76,W
025CA:  MOVFF  00,67B
025CE:  MOVWF  x7C
....................       diff = P - dx; 
025D0:  MOVF   x77,W
025D2:  SUBWF  x7B,W
025D4:  MOVWF  x7D
025D6:  MOVF   x78,W
025D8:  SUBWFB x7C,W
025DA:  MOVWF  x7E
....................  
....................       for(; i<=dx; ++i) 
025DC:  MOVF   x78,F
025DE:  BNZ   25E6
025E0:  MOVF   x7F,W
025E2:  SUBWF  x77,W
025E4:  BNC   2626
....................       { 
....................          glcd_pixel(x1, y1, color); 
025E6:  MOVFF  670,680
025EA:  MOVFF  671,681
025EE:  MOVFF  674,682
025F2:  MOVLB  0
025F4:  RCALL  249E
....................  
....................          if(P < 0) 
025F6:  MOVLB  6
025F8:  BTFSC  x7C.7
025FA:  BRA    25FE
025FC:  BRA    260E
....................          { 
....................             P  += dy; 
025FE:  MOVF   x75,W
02600:  ADDWF  x7B,F
02602:  MOVF   x76,W
02604:  ADDWFC x7C,F
....................             x1 += addx; 
02606:  MOVF   x79,W
02608:  ADDWF  x70,W
0260A:  MOVWF  x70
....................          } 
....................          else 
0260C:  BRA    2622
....................          { 
....................             P  += diff; 
0260E:  MOVF   x7D,W
02610:  ADDWF  x7B,F
02612:  MOVF   x7E,W
02614:  ADDWFC x7C,F
....................             x1 += addx; 
02616:  MOVF   x79,W
02618:  ADDWF  x70,W
0261A:  MOVWF  x70
....................             y1 += addy; 
0261C:  MOVF   x7A,W
0261E:  ADDWF  x71,W
02620:  MOVWF  x71
....................          } 
....................       } 
02622:  INCF   x7F,F
02624:  BRA    25DC
....................    } 
....................    else 
02626:  BRA    2694
....................    { 
....................       dx *= 2; 
02628:  BCF    FD8.0
0262A:  RLCF   x77,F
0262C:  RLCF   x78,F
....................       P = dx - dy; 
0262E:  MOVF   x75,W
02630:  SUBWF  x77,W
02632:  MOVWF  00
02634:  MOVF   x76,W
02636:  SUBWFB x78,W
02638:  MOVFF  00,67B
0263C:  MOVWF  x7C
....................       diff = P - dy; 
0263E:  MOVF   x75,W
02640:  SUBWF  x7B,W
02642:  MOVWF  x7D
02644:  MOVF   x76,W
02646:  SUBWFB x7C,W
02648:  MOVWF  x7E
....................  
....................       for(; i<=dy; ++i) 
0264A:  MOVF   x76,F
0264C:  BNZ   2654
0264E:  MOVF   x7F,W
02650:  SUBWF  x75,W
02652:  BNC   2694
....................       { 
....................          glcd_pixel(x1, y1, color); 
02654:  MOVFF  670,680
02658:  MOVFF  671,681
0265C:  MOVFF  674,682
02660:  MOVLB  0
02662:  RCALL  249E
....................  
....................          if(P < 0) 
02664:  MOVLB  6
02666:  BTFSC  x7C.7
02668:  BRA    266C
0266A:  BRA    267C
....................          { 
....................             P  += dx; 
0266C:  MOVF   x77,W
0266E:  ADDWF  x7B,F
02670:  MOVF   x78,W
02672:  ADDWFC x7C,F
....................             y1 += addy; 
02674:  MOVF   x7A,W
02676:  ADDWF  x71,W
02678:  MOVWF  x71
....................          } 
....................          else 
0267A:  BRA    2690
....................          { 
....................             P  += diff; 
0267C:  MOVF   x7D,W
0267E:  ADDWF  x7B,F
02680:  MOVF   x7E,W
02682:  ADDWFC x7C,F
....................             x1 += addx; 
02684:  MOVF   x79,W
02686:  ADDWF  x70,W
02688:  MOVWF  x70
....................             y1 += addy; 
0268A:  MOVF   x7A,W
0268C:  ADDWF  x71,W
0268E:  MOVWF  x71
....................          } 
....................       } 
02690:  INCF   x7F,F
02692:  BRA    264A
....................    } 
.................... } 
02694:  MOVLB  0
02696:  RETLW  00
....................  
....................  
.................... ///////////////////////////////////////////////////////////////////////// 
.................... // Purpose:       Draw a rectangle on a graphic LCD 
.................... // Inputs:        (x1, y1) - the start coordinate 
.................... //                (x2, y2) - the end coordinate 
.................... //                fill  - YES or NO 
.................... //                color - ON or OFF 
.................... // Dependencies:  glcd_pixel(), glcd_line() 
.................... ///////////////////////////////////////////////////////////////////////// 
.................... #ifdef LARGE_LCD 
.................... void glcd_rect(int16 x1, int16 y1, int16 x2, int16 y2, int1 fill, int1 color) 
.................... #else 
.................... void glcd_rect(int8 x1, int8 y1, int8 x2, int8 y2, int1 fill, int1 color) 
.................... #endif 
.................... { 
....................    if(fill) 
02698:  MOVLB  6
0269A:  MOVF   x69,F
0269C:  BZ    26FA
....................    { 
....................       #ifdef LARGE_LCD 
....................       int16 i, xmin, xmax, ymin, ymax; 
....................       #else 
....................       int8  i, xmin, xmax, ymin, ymax; 
....................       #endif 
....................  
....................       if(x1 < x2)                            //  Find x min and max 
0269E:  MOVF   x67,W
026A0:  SUBWF  x65,W
026A2:  BC    26AE
....................       { 
....................          xmin = x1; 
026A4:  MOVFF  665,66C
....................          xmax = x2; 
026A8:  MOVFF  667,66D
....................       } 
....................       else 
026AC:  BRA    26B6
....................       { 
....................          xmin = x2; 
026AE:  MOVFF  667,66C
....................          xmax = x1; 
026B2:  MOVFF  665,66D
....................       } 
....................  
....................       if(y1 < y2)                            // Find the y min and max 
026B6:  MOVF   x68,W
026B8:  SUBWF  x66,W
026BA:  BC    26C6
....................       { 
....................          ymin = y1; 
026BC:  MOVFF  666,66E
....................          ymax = y2; 
026C0:  MOVFF  668,66F
....................       } 
....................       else 
026C4:  BRA    26CE
....................       { 
....................          ymin = y2; 
026C6:  MOVFF  668,66E
....................          ymax = y1; 
026CA:  MOVFF  666,66F
....................       } 
....................  
....................       for(; xmin <= xmax; ++xmin) 
026CE:  MOVF   x6C,W
026D0:  SUBWF  x6D,W
026D2:  BNC   26F8
....................       { 
....................          for(i=ymin; i<=ymax; ++i) 
026D4:  MOVFF  66E,66B
026D8:  MOVF   x6B,W
026DA:  SUBWF  x6F,W
026DC:  BNC   26F4
....................          { 
....................             glcd_pixel(xmin, i, color); 
026DE:  MOVFF  66C,680
026E2:  MOVFF  66B,681
026E6:  MOVFF  66A,682
026EA:  MOVLB  0
026EC:  RCALL  249E
....................          } 
026EE:  MOVLB  6
026F0:  INCF   x6B,F
026F2:  BRA    26D8
....................       } 
026F4:  INCF   x6C,F
026F6:  BRA    26CE
....................    } 
....................    else 
026F8:  BRA    2756
....................    { 
....................       glcd_line(x1, y1, x2, y1, color);      // Draw the 4 sides 
026FA:  MOVFF  665,670
026FE:  MOVFF  666,671
02702:  MOVFF  667,672
02706:  MOVFF  666,673
0270A:  MOVFF  66A,674
0270E:  MOVLB  0
02710:  RCALL  255A
....................       glcd_line(x1, y2, x2, y2, color); 
02712:  MOVFF  665,670
02716:  MOVFF  668,671
0271A:  MOVFF  667,672
0271E:  MOVFF  668,673
02722:  MOVFF  66A,674
02726:  RCALL  255A
....................       glcd_line(x1, y1, x1, y2, color); 
02728:  MOVFF  665,670
0272C:  MOVFF  666,671
02730:  MOVFF  665,672
02734:  MOVFF  668,673
02738:  MOVFF  66A,674
0273C:  RCALL  255A
....................       glcd_line(x2, y1, x2, y2, color); 
0273E:  MOVFF  667,670
02742:  MOVFF  666,671
02746:  MOVFF  667,672
0274A:  MOVFF  668,673
0274E:  MOVFF  66A,674
02752:  RCALL  255A
02754:  MOVLB  6
....................    } 
.................... } 
02756:  MOVLB  0
02758:  RETLW  00
....................  
.................... ///////////////////////////////////////////////////////////////////////// 
.................... // Purpose:       Draw a bar (wide line) on a graphic LCD 
.................... // Inputs:        (x1, y1) - the start coordinate 
.................... //                (x2, y2) - the end coordinate 
.................... //                width  - The number of pixels wide 
.................... //                color - ON or OFF 
.................... ///////////////////////////////////////////////////////////////////////// 
.................... #ifdef LARGE_LCD 
.................... void glcd_bar(int16 x1, int16 y1, int16 x2, int16 y2, int8 width, int1 color) 
.................... #else 
.................... void glcd_bar(int8 x1, int8 y1, int8 x2, int8 y2, int8 width, int1 color) 
.................... #endif 
.................... { 
....................    int8         half_width; 
....................    signed int16 dy, dx; 
....................    signed int8  addx=1, addy=1, j; 
....................    signed int16 P, diff, c1, c2; 
....................  
....................    #ifdef LARGE_LCD 
....................    int16 i=0; 
....................    dx = abs((signed int16)(x2 - x1)); 
....................    dy = abs((signed int16)(y2 - y1)); 
....................    #else 
....................    int8 i=0; 
....................    dx = abs((signed int8)(x2 - x1)); 
....................    dy = abs((signed int8)(y2 - y1)); 
....................    #endif 
....................  
....................    half_width = width/2; 
....................    c1 = -(dx*x1 + dy*y1); 
....................    c2 = -(dx*x2 + dy*y2); 
....................  
....................    if(x1 > x2) 
....................    { 
....................       signed int16 temp; 
....................       temp = c1; 
....................       c1 = c2; 
....................       c2 = temp; 
....................       addx = -1; 
....................    } 
....................    if(y1 > y2) 
....................    { 
....................       signed int16 temp; 
....................       temp = c1; 
....................       c1 = c2; 
....................       c2 = temp; 
....................       addy = -1; 
....................    } 
....................  
....................    if(dx >= dy) 
....................    { 
....................       P = 2*dy - dx; 
....................       diff = P - dx; 
....................  
....................       for(i=0; i<=dx; ++i) 
....................       { 
....................          for(j=-half_width; j<half_width+width%2; ++j) 
....................          { 
....................             #ifdef LARGE_LCD 
....................             int16 temp; 
....................             #else 
....................             int8 temp; 
....................             #endif 
....................  
....................             temp = dx*x1+dy*(y1+j);    // Use more RAM to increase speed 
....................             if(temp+c1 >= 0 && temp+c2 <=0) 
....................                glcd_pixel(x1, y1+j, color); 
....................          } 
....................          if(P < 0) 
....................          { 
....................             P  += 2*dy; 
....................             x1 += addx; 
....................          } 
....................          else 
....................          { 
....................             P  += diff; 
....................             x1 += addx; 
....................             y1 += addy; 
....................          } 
....................       } 
....................    } 
....................    else 
....................    { 
....................       P = 2*dx - dy; 
....................       diff = P - dy; 
....................  
....................       for(i=0; i<=dy; ++i) 
....................       { 
....................          if(P < 0) 
....................          { 
....................             P  += 2*dx; 
....................             y1 += addy; 
....................          } 
....................          else 
....................          { 
....................             P  += diff; 
....................             x1 += addx; 
....................             y1 += addy; 
....................          } 
....................          for(j=-half_width; j<half_width+width%2; ++j) 
....................          { 
....................             #ifdef LARGE_LCD 
....................             int16 temp; 
....................             #else 
....................             int8 temp; 
....................             #endif 
....................  
....................             temp = dx*x1+dy*(y1+j);    // Use more RAM to increase speed 
....................             if(temp+c1 >= 0 && temp+c2 <=0) 
....................                glcd_pixel(x1+j, y1, color); 
....................          } 
....................       } 
....................    } 
.................... } 
....................  
....................  
.................... ///////////////////////////////////////////////////////////////////////// 
.................... // Purpose:       Draw a circle on a graphic LCD 
.................... // Inputs:        (x,y) - the center of the circle 
.................... //                radius - the radius of the circle 
.................... //                fill - YES or NO 
.................... //                color - ON or OFF 
.................... ///////////////////////////////////////////////////////////////////////// 
.................... #ifdef LARGE_LCD 
.................... void glcd_circle(int16 x, int16 y, int16 radius, int1 fill, int1 color) 
.................... #else 
.................... void glcd_circle(int8 x, int8 y, int8 radius, int1 fill, int1 color) 
.................... #endif 
.................... { 
....................    #ifdef LARGE_LCD 
....................    signed int16 a, b, P; 
....................    #else 
....................    signed int8  a, b, P; 
....................    #endif 
....................  
....................    a = 0; 
....................    b = radius; 
....................    P = 1 - radius; 
....................  
....................    do 
....................    { 
....................       if(fill) 
....................       { 
....................          glcd_line(x-a, y+b, x+a, y+b, color); 
....................          glcd_line(x-a, y-b, x+a, y-b, color); 
....................          glcd_line(x-b, y+a, x+b, y+a, color); 
....................          glcd_line(x-b, y-a, x+b, y-a, color); 
....................       } 
....................       else 
....................       { 
....................          glcd_pixel(a+x, b+y, color); 
....................          glcd_pixel(b+x, a+y, color); 
....................          glcd_pixel(x-a, b+y, color); 
....................          glcd_pixel(x-b, a+y, color); 
....................          glcd_pixel(b+x, y-a, color); 
....................          glcd_pixel(a+x, y-b, color); 
....................          glcd_pixel(x-a, y-b, color); 
....................          glcd_pixel(x-b, y-a, color); 
....................       } 
....................  
....................       if(P < 0) 
....................          P += 3 + 2 * a++; 
....................       else 
....................          P += 5 + 2 * (a++ - b--); 
....................     } while(a <= b); 
.................... } 
....................  
....................  
.................... ///////////////////////////////////////////////////////////////////////// 
.................... // Purpose:       Write text on a graphic LCD 
.................... // Inputs:        (x,y) - The upper left coordinate of the first letter 
.................... //                textptr - A pointer to an array of text to display 
.................... //                size - The size of the text: 1 = 5x7, 2 = 10x14, ... 
.................... //                color - ON or OFF 
.................... ///////////////////////////////////////////////////////////////////////// 
.................... #ifdef LARGE_LCD 
.................... void glcd_text57(int16 x, int16 y, char* textptr, int8 size, int1 color) 
.................... #else 
.................... void glcd_text57(int8 x, int8 y, char* textptr, int8 size, int1 color) 
.................... #endif 
.................... { 
....................    int8 j, k, l, m;                       // Loop counters 
....................    int8 pixelData[5];                     // Stores character data 
....................  
....................    for(; *textptr != '\0'; ++textptr, ++x)// Loop through the passed string 
0275A:  MOVFF  668,03
0275E:  MOVLB  6
02760:  MOVFF  667,FE9
02764:  MOVFF  668,FEA
02768:  MOVF   FEF,F
0276A:  BTFSC  FD8.2
0276C:  BRA    290E
....................    { 
....................       if(*textptr < 'S') // Checks if the letter is in the first font array 
0276E:  MOVFF  668,03
02772:  MOVFF  667,FE9
02776:  MOVFF  668,FEA
0277A:  MOVF   FEF,W
0277C:  SUBLW  52
0277E:  BNC   27CE
....................          memcpy(pixelData, FONT[*textptr - ' '], 5); 
02780:  MOVFF  668,03
02784:  MOVFF  667,FE9
02788:  MOVFF  668,FEA
0278C:  MOVLW  20
0278E:  SUBWF  FEF,W
02790:  MULLW  05
02792:  MOVF   FF3,W
02794:  CLRF   03
02796:  MOVWF  x74
02798:  MOVLW  06
0279A:  MOVWF  FEA
0279C:  MOVLW  6F
0279E:  MOVWF  FE9
027A0:  CLRF   x78
027A2:  MOVFF  674,677
027A6:  MOVFF  FF2,675
027AA:  BCF    FF2.7
027AC:  MOVLW  05
027AE:  MOVWF  01
027B0:  CLRF   FF7
027B2:  MOVF   x74,W
027B4:  MOVLB  0
027B6:  CALL   00AA
027BA:  TBLRD*-
027BC:  TBLRD*+
027BE:  MOVFF  FF5,FEE
027C2:  DECFSZ 01,F
027C4:  BRA    27BC
027C6:  MOVLB  6
027C8:  BTFSC  x75.7
027CA:  BSF    FF2.7
....................       else if(*textptr <= '~') // Check if the letter is in the second font array 
027CC:  BRA    2838
027CE:  MOVFF  668,03
027D2:  MOVFF  667,FE9
027D6:  MOVFF  668,FEA
027DA:  MOVF   FEF,W
027DC:  SUBLW  7E
027DE:  BNC   282E
....................          memcpy(pixelData, FONT2[*textptr - 'S'], 5); 
027E0:  MOVFF  668,03
027E4:  MOVFF  667,FE9
027E8:  MOVFF  668,FEA
027EC:  MOVLW  53
027EE:  SUBWF  FEF,W
027F0:  MULLW  05
027F2:  MOVF   FF3,W
027F4:  CLRF   03
027F6:  MOVWF  x74
027F8:  MOVLW  06
027FA:  MOVWF  FEA
027FC:  MOVLW  6F
027FE:  MOVWF  FE9
02800:  CLRF   x78
02802:  MOVFF  674,677
02806:  MOVFF  FF2,675
0280A:  BCF    FF2.7
0280C:  MOVLW  05
0280E:  MOVWF  01
02810:  CLRF   FF7
02812:  MOVF   x74,W
02814:  MOVLB  0
02816:  CALL   01C8
0281A:  TBLRD*-
0281C:  TBLRD*+
0281E:  MOVFF  FF5,FEE
02822:  DECFSZ 01,F
02824:  BRA    281C
02826:  MOVLB  6
02828:  BTFSC  x75.7
0282A:  BSF    FF2.7
....................       else 
0282C:  BRA    2838
....................          memcpy(pixelData, FONT[0], 5);   // Default to space 
0282E:  CLRF   x6F
02830:  CLRF   x70
02832:  CLRF   x71
02834:  CLRF   x72
02836:  CLRF   x73
....................  
....................       // Handles newline and carriage returns 
....................       switch(*textptr) 
....................       { 
02838:  MOVFF  668,03
0283C:  MOVF   x67,W
0283E:  MOVWF  FE9
02840:  MOVFF  03,FEA
02844:  MOVF   FEF,W
02846:  XORLW  0A
02848:  MOVLB  0
0284A:  BZ    2852
0284C:  XORLW  07
0284E:  BZ    2862
02850:  BRA    2868
....................          case '\n': 
....................             y += 7*size + 1; 
02852:  MOVLB  6
02854:  MOVF   x69,W
02856:  MULLW  07
02858:  MOVF   FF3,W
0285A:  ADDLW  01
0285C:  ADDWF  x66,F
....................             continue; 
0285E:  BRA    2900
02860:  MOVLB  0
....................          case '\r': 
....................             x = 0; 
02862:  MOVLB  6
02864:  CLRF   x65
....................             continue; 
02866:  BRA    2900
....................       } 
....................  
....................       if(x+5*size >= GLCD_WIDTH)          // Performs character wrapping 
02868:  MOVLB  6
0286A:  MOVF   x69,W
0286C:  MULLW  05
0286E:  MOVF   FF3,W
02870:  ADDWF  x65,W
02872:  SUBLW  7F
02874:  BC    2882
....................       { 
....................          x = 0;                           // Set x at far left position 
02876:  CLRF   x65
....................          y += 7*size + 1;                 // Set y at next position down 
02878:  MOVF   x69,W
0287A:  MULLW  07
0287C:  MOVF   FF3,W
0287E:  ADDLW  01
02880:  ADDWF  x66,F
....................       } 
....................       for(j=0; j<5; ++j, x+=size)         // Loop through character byte data 
02882:  CLRF   x6B
02884:  MOVF   x6B,W
02886:  SUBLW  04
02888:  BNC   2900
....................       { 
....................          for(k=0; k < 7; ++k)             // Loop through the vertical pixels 
0288A:  CLRF   x6C
0288C:  MOVF   x6C,W
0288E:  SUBLW  06
02890:  BNC   28F8
....................          { 
....................             if(bit_test(pixelData[j], k)) // Check if the pixel should be set 
02892:  CLRF   03
02894:  MOVF   x6B,W
02896:  ADDLW  6F
02898:  MOVWF  FE9
0289A:  MOVLW  06
0289C:  ADDWFC 03,W
0289E:  MOVWF  FEA
028A0:  MOVFF  FEF,674
028A4:  MOVFF  674,00
028A8:  MOVF   x6C,W
028AA:  MOVWF  01
028AC:  BZ    28B6
028AE:  BCF    FD8.0
028B0:  RRCF   00,F
028B2:  DECFSZ 01,F
028B4:  BRA    28AE
028B6:  BTFSS  00.0
028B8:  BRA    28F4
....................             { 
....................                for(l=0; l < size; ++l)    // These two loops change the 
028BA:  CLRF   x6D
028BC:  MOVF   x69,W
028BE:  SUBWF  x6D,W
028C0:  BC    28F4
....................                {                          // character's size 
....................                   for(m=0; m < size; ++m) 
028C2:  CLRF   x6E
028C4:  MOVF   x69,W
028C6:  SUBWF  x6E,W
028C8:  BC    28F0
....................                   { 
....................                      glcd_pixel(x+m, y+k*size+l, color); // Draws the pixel 
028CA:  MOVF   x6E,W
028CC:  ADDWF  x65,W
028CE:  MOVWF  x74
028D0:  MOVF   x6C,W
028D2:  MULWF  x69
028D4:  MOVF   FF3,W
028D6:  ADDWF  x66,W
028D8:  ADDWF  x6D,W
028DA:  MOVWF  x75
028DC:  MOVFF  674,680
028E0:  MOVWF  x81
028E2:  MOVFF  66A,682
028E6:  MOVLB  0
028E8:  RCALL  249E
....................                   } 
028EA:  MOVLB  6
028EC:  INCF   x6E,F
028EE:  BRA    28C4
....................                } 
028F0:  INCF   x6D,F
028F2:  BRA    28BC
....................             } 
....................          } 
028F4:  INCF   x6C,F
028F6:  BRA    288C
....................       } 
028F8:  INCF   x6B,F
028FA:  MOVF   x69,W
028FC:  ADDWF  x65,F
028FE:  BRA    2884
....................    } 
02900:  INCF   x67,F
02902:  BTFSC  FD8.2
02904:  INCF   x68,F
02906:  INCF   x65,F
02908:  MOVLB  0
0290A:  BRA    275A
0290C:  MOVLB  6
.................... } 
0290E:  MOVLB  0
02910:  RETLW  00
....................  
.................... #endif 
....................  
.................... #include "imagen.h" 
.................... const int8 Bombillo [64][16] = { 
.................... 0x00, 0x00, 0x00, 0x00, 0x00, 0x00, 0x00, 0x00, 0x00, 0x00, 0x00, 0x00, 0x00, 0x00, 0x00, 0x00, 
.................... 0x00, 0x00, 0x00, 0x00, 0x00, 0x00, 0x00, 0x00, 0x00, 0x00, 0x00, 0x00, 0x00, 0x00, 0x00, 0x00, 
.................... 0x00, 0x00, 0x00, 0x00, 0x00, 0x00, 0x00, 0x00, 0x00, 0x00, 0x00, 0x00, 0x00, 0x00, 0x00, 0x00, 
.................... 0x00, 0x00, 0x00, 0x00, 0x00, 0x00, 0x00, 0x00, 0x00, 0x00, 0x00, 0x00, 0x00, 0x00, 0x00, 0x00, 
.................... 0x00, 0x00, 0x00, 0x00, 0x00, 0x00, 0x00, 0x00, 0x00, 0x00, 0x00, 0x00, 0x00, 0x00, 0x00, 0x00, 
.................... 0x00, 0x00, 0x00, 0x00, 0x00, 0x00, 0x00, 0x00, 0x00, 0x00, 0x00, 0x00, 0x00, 0x00, 0x00, 0x00, 
.................... 0x00, 0x00, 0x00, 0x00, 0x00, 0x00, 0x00, 0x00, 0x00, 0x00, 0x00, 0x00, 0x00, 0x00, 0x00, 0x00, 
.................... 0x00, 0x00, 0x00, 0x00, 0x00, 0x00, 0x00, 0x00, 0x00, 0x00, 0x00, 0x00, 0x00, 0x00, 0x00, 0x00, 
.................... 0x00, 0x00, 0x00, 0x00, 0x00, 0x00, 0x00, 0x00, 0x00, 0x00, 0x00, 0x00, 0x00, 0x00, 0x00, 0x00, 
.................... 0x00, 0x00, 0x00, 0x00, 0x00, 0x00, 0x00, 0x00, 0x00, 0x00, 0x00, 0x00, 0x00, 0x00, 0x00, 0x00, 
.................... 0x00, 0x00, 0x00, 0x00, 0x00, 0x00, 0x00, 0x00, 0x00, 0x00, 0x00, 0x00, 0x00, 0x00, 0x00, 0x00, 
.................... 0x00, 0x00, 0x00, 0x00, 0x00, 0x00, 0x00, 0x00, 0x00, 0x00, 0x00, 0x00, 0x00, 0x00, 0x00, 0x00, 
.................... 0x00, 0x00, 0x00, 0x00, 0x00, 0x00, 0x00, 0x00, 0x00, 0x00, 0x00, 0x00, 0x00, 0x00, 0x00, 0x00, 
.................... 0x00, 0x00, 0x00, 0x00, 0x00, 0x00, 0x00, 0x00, 0x00, 0x00, 0x00, 0x00, 0x00, 0x00, 0x00, 0x00, 
.................... 0x00, 0x00, 0x00, 0x00, 0x00, 0x00, 0x00, 0x00, 0x00, 0x00, 0x00, 0x00, 0x00, 0x00, 0x00, 0x00, 
.................... 0x00, 0x00, 0x00, 0x00, 0x00, 0x00, 0x00, 0x00, 0x00, 0x00, 0x00, 0x00, 0x00, 0x08, 0x00, 0x80, 
.................... 0x00, 0x00, 0x00, 0x00, 0x00, 0x00, 0x00, 0x00, 0x00, 0x00, 0x00, 0x00, 0x00, 0x04, 0x01, 0x00, 
.................... 0x00, 0x00, 0x00, 0x00, 0x00, 0x00, 0x00, 0x00, 0x00, 0x00, 0x00, 0x00, 0x00, 0x02, 0x02, 0x00, 
.................... 0x00, 0x00, 0x00, 0x00, 0x00, 0x00, 0x00, 0x00, 0x00, 0x00, 0x00, 0x00, 0x00, 0x00, 0x78, 0x00, 
.................... 0x00, 0x00, 0x00, 0x00, 0x00, 0x00, 0x00, 0x00, 0x00, 0x00, 0x00, 0x00, 0x00, 0x00, 0x84, 0x00, 
.................... 0x00, 0x00, 0x00, 0x00, 0x00, 0x00, 0x00, 0x00, 0x00, 0x00, 0x00, 0x00, 0x00, 0x01, 0x02, 0x00, 
.................... 0x00, 0x00, 0x00, 0x00, 0x00, 0x00, 0x00, 0x00, 0x00, 0x00, 0x00, 0x00, 0x00, 0xF9, 0x02, 0xF8, 
.................... 0x00, 0x00, 0x00, 0x00, 0x00, 0x00, 0x00, 0x00, 0x00, 0x00, 0x00, 0x00, 0x00, 0x01, 0x02, 0x00, 
.................... 0x00, 0x00, 0x00, 0x00, 0x00, 0x00, 0x00, 0x00, 0x00, 0x00, 0x00, 0x00, 0x00, 0x01, 0x02, 0x00, 
.................... 0x00, 0x00, 0x00, 0x00, 0x00, 0x00, 0x00, 0x00, 0x00, 0x00, 0x00, 0x00, 0x00, 0x04, 0x84, 0x80, 
.................... 0x00, 0x00, 0x00, 0x00, 0x00, 0x00, 0x00, 0x00, 0x00, 0x00, 0x00, 0x00, 0x00, 0x08, 0x78, 0x40, 
.................... 0x00, 0x00, 0x00, 0x00, 0x00, 0x00, 0x00, 0x00, 0x00, 0x00, 0x00, 0x00, 0x00, 0x10, 0x48, 0x20, 
.................... 0x00, 0x00, 0x00, 0x00, 0x00, 0x00, 0x00, 0x00, 0x00, 0x00, 0x00, 0x00, 0x00, 0x20, 0x48, 0x10, 
.................... 0x00, 0x00, 0x00, 0x00, 0x00, 0x00, 0x00, 0x00, 0x00, 0x00, 0x00, 0x00, 0x00, 0x00, 0x78, 0x00, 
.................... 0x00, 0x00, 0x00, 0x00, 0x00, 0x00, 0x00, 0x00, 0x00, 0x00, 0x00, 0x00, 0x00, 0x00, 0x00, 0x00, 
.................... 0x00, 0x00, 0x00, 0x00, 0x00, 0x00, 0x00, 0x00, 0x00, 0x00, 0x00, 0x00, 0x00, 0x00, 0x00, 0x00, 
.................... 0x00, 0x00, 0x00, 0x00, 0x00, 0x00, 0x00, 0x00, 0x00, 0x00, 0x00, 0x00, 0x00, 0x00, 0x00, 0x00, 
.................... 0x00, 0x00, 0x00, 0x00, 0x00, 0x00, 0x00, 0x00, 0x00, 0x00, 0x00, 0x00, 0x00, 0x00, 0x00, 0x00, 
.................... 0x00, 0x00, 0x00, 0x00, 0x00, 0x00, 0x00, 0x00, 0x00, 0x00, 0x00, 0x00, 0x00, 0x00, 0x00, 0x00, 
.................... 0x00, 0x00, 0x00, 0x00, 0x00, 0x00, 0x00, 0x00, 0x00, 0x00, 0x00, 0x00, 0x00, 0x00, 0x00, 0x00, 
.................... 0x00, 0x00, 0x00, 0x00, 0x00, 0x00, 0x00, 0x00, 0x00, 0x00, 0x00, 0x00, 0x00, 0x00, 0x00, 0x00, 
.................... 0x00, 0x00, 0x00, 0x00, 0x00, 0x00, 0x00, 0x00, 0x00, 0x00, 0x00, 0x00, 0x00, 0x00, 0x00, 0x00, 
.................... 0x00, 0x00, 0x00, 0x00, 0x00, 0x00, 0x00, 0x00, 0x00, 0x00, 0x00, 0x00, 0x00, 0x00, 0x00, 0x00, 
.................... 0x00, 0x00, 0x00, 0x00, 0x00, 0x00, 0x00, 0x00, 0x00, 0x00, 0x00, 0x00, 0x00, 0x00, 0x00, 0x00, 
.................... 0x00, 0x00, 0x00, 0x00, 0x00, 0x00, 0x00, 0x00, 0x00, 0x00, 0x00, 0x00, 0x00, 0x00, 0x00, 0x00, 
.................... 0x00, 0x00, 0x00, 0x00, 0x00, 0x00, 0x00, 0x00, 0x00, 0x00, 0x00, 0x00, 0x00, 0x00, 0x00, 0x00, 
.................... 0x00, 0x00, 0x00, 0x00, 0x00, 0x00, 0x00, 0x00, 0x00, 0x00, 0x00, 0x00, 0x00, 0x00, 0x00, 0x00, 
.................... 0x00, 0x00, 0x00, 0x00, 0x00, 0x00, 0x00, 0x00, 0x00, 0x00, 0x00, 0x00, 0x00, 0x00, 0x00, 0x00, 
.................... 0x00, 0x00, 0x00, 0x00, 0x00, 0x00, 0x00, 0x00, 0x00, 0x00, 0x00, 0x00, 0x00, 0x00, 0x00, 0x00, 
.................... 0x00, 0x00, 0x00, 0x00, 0x00, 0x00, 0x00, 0x00, 0x00, 0x00, 0x00, 0x00, 0x00, 0x00, 0x00, 0x00, 
.................... 0x00, 0x00, 0x00, 0x00, 0x00, 0x00, 0x00, 0x00, 0x00, 0x00, 0x00, 0x00, 0x00, 0x00, 0x00, 0x00, 
.................... 0x00, 0x00, 0x00, 0x00, 0x00, 0x00, 0x00, 0x00, 0x00, 0x00, 0x00, 0x00, 0x00, 0x00, 0x00, 0x00, 
.................... 0x00, 0x00, 0x00, 0x00, 0x00, 0x00, 0x00, 0x00, 0x00, 0x00, 0x00, 0x00, 0x00, 0x00, 0x00, 0x00, 
.................... 0x00, 0x00, 0x00, 0x00, 0x00, 0x00, 0x00, 0x00, 0x00, 0x00, 0x00, 0x00, 0x00, 0x00, 0x00, 0x00, 
.................... 0x00, 0x00, 0x00, 0x00, 0x00, 0x00, 0x00, 0x00, 0x00, 0x00, 0x00, 0x00, 0x00, 0x00, 0x00, 0x00, 
.................... 0x00, 0x00, 0x00, 0x00, 0x00, 0x00, 0x00, 0x00, 0x00, 0x00, 0x00, 0x00, 0x00, 0x00, 0x00, 0x00, 
.................... 0x00, 0x00, 0x00, 0x00, 0x00, 0x00, 0x00, 0x00, 0x00, 0x00, 0x00, 0x00, 0x00, 0x00, 0x00, 0x00, 
.................... 0x00, 0x00, 0x00, 0x00, 0x00, 0x00, 0x00, 0x00, 0x00, 0x00, 0x00, 0x00, 0x00, 0x00, 0x00, 0x00, 
.................... 0x00, 0x00, 0x00, 0x00, 0x00, 0x00, 0x00, 0x00, 0x00, 0x00, 0x00, 0x00, 0x00, 0x00, 0x00, 0x00, 
.................... 0x00, 0x00, 0x00, 0x00, 0x00, 0x00, 0x00, 0x00, 0x00, 0x00, 0x00, 0x00, 0x00, 0x00, 0x00, 0x00, 
.................... 0x00, 0x00, 0x00, 0x00, 0x00, 0x00, 0x00, 0x00, 0x00, 0x00, 0x00, 0x00, 0x00, 0x00, 0x00, 0x00, 
.................... 0x00, 0x00, 0x00, 0x00, 0x00, 0x00, 0x00, 0x00, 0x00, 0x00, 0x00, 0x00, 0x00, 0x00, 0x00, 0x00, 
.................... 0x00, 0x00, 0x00, 0x00, 0x00, 0x00, 0x00, 0x00, 0x00, 0x00, 0x00, 0x00, 0x00, 0x00, 0x00, 0x00, 
.................... 0x00, 0x00, 0x00, 0x00, 0x00, 0x00, 0x00, 0x00, 0x00, 0x00, 0x00, 0x00, 0x00, 0x00, 0x00, 0x00, 
.................... 0x00, 0x00, 0x00, 0x00, 0x00, 0x00, 0x00, 0x00, 0x00, 0x00, 0x00, 0x00, 0x00, 0x00, 0x00, 0x00, 
.................... 0x00, 0x00, 0x00, 0x00, 0x00, 0x00, 0x00, 0x00, 0x00, 0x00, 0x00, 0x00, 0x00, 0x00, 0x00, 0x00, 
.................... 0x00, 0x00, 0x00, 0x00, 0x00, 0x00, 0x00, 0x00, 0x00, 0x00, 0x00, 0x00, 0x00, 0x00, 0x00, 0x00, 
.................... 0x00, 0x00, 0x00, 0x00, 0x00, 0x00, 0x00, 0x00, 0x00, 0x00, 0x00, 0x00, 0x00, 0x00, 0x00, 0x00, 
.................... 0x00, 0x00, 0x00, 0x00, 0x00, 0x00, 0x00, 0x00, 0x00, 0x00, 0x00, 0x00, 0x00, 0x00, 0x00, 0x00 
.................... }; 
....................  
.................... const int8 Tomai [64][16] = { 
.................... 0x00, 0x00, 0x00, 0x00, 0x00, 0x00, 0x00, 0x00, 0x00, 0x00, 0x00, 0x00, 0x00, 0x00, 0x00, 0x00, 
.................... 0x00, 0x00, 0x00, 0x00, 0x00, 0x00, 0x00, 0x00, 0x00, 0x00, 0x00, 0x00, 0x00, 0x00, 0x00, 0x00, 
.................... 0x00, 0x00, 0x00, 0x00, 0x00, 0x00, 0x00, 0x00, 0x00, 0x00, 0x00, 0x00, 0x00, 0x00, 0x00, 0x00, 
.................... 0x00, 0x00, 0x00, 0x00, 0x00, 0x00, 0x00, 0x00, 0x00, 0x00, 0x00, 0x00, 0x00, 0x00, 0x00, 0x00, 
.................... 0x00, 0x00, 0x00, 0x00, 0x00, 0x00, 0x00, 0x00, 0x00, 0x00, 0x00, 0x00, 0x00, 0x00, 0x00, 0x00, 
.................... 0x00, 0x00, 0x00, 0x00, 0x00, 0x00, 0x00, 0x00, 0x00, 0x00, 0x00, 0x00, 0x00, 0x00, 0x00, 0x00, 
.................... 0x00, 0x00, 0x00, 0x00, 0x00, 0x00, 0x00, 0x00, 0x00, 0x00, 0x00, 0x00, 0x00, 0x00, 0x00, 0x00, 
.................... 0x00, 0x00, 0x00, 0x00, 0x00, 0x00, 0x00, 0x00, 0x00, 0x00, 0x00, 0x00, 0x00, 0x00, 0x00, 0x00, 
.................... 0x00, 0x00, 0x00, 0x00, 0x00, 0x00, 0x00, 0x00, 0x00, 0x00, 0x00, 0x00, 0x00, 0x00, 0x00, 0x00, 
.................... 0x00, 0x00, 0x00, 0x00, 0x00, 0x00, 0x00, 0x00, 0x00, 0x00, 0x00, 0x00, 0x00, 0x00, 0x00, 0x00, 
.................... 0x00, 0x00, 0x00, 0x00, 0x00, 0x00, 0x00, 0x00, 0x00, 0x00, 0x00, 0x00, 0x00, 0x00, 0x00, 0x00, 
.................... 0x00, 0x00, 0x00, 0x00, 0x00, 0x00, 0x00, 0x00, 0x00, 0x00, 0x00, 0x00, 0x00, 0x00, 0x00, 0x00, 
.................... 0x00, 0x00, 0x00, 0x00, 0x00, 0x00, 0x00, 0x00, 0x00, 0x00, 0x00, 0x00, 0x00, 0x00, 0x00, 0x00, 
.................... 0x00, 0x00, 0x00, 0x00, 0x00, 0x00, 0x00, 0x00, 0x00, 0x00, 0x00, 0x00, 0x00, 0x00, 0x00, 0x00, 
.................... 0x00, 0x00, 0x00, 0x00, 0x00, 0x00, 0x00, 0x00, 0x00, 0x00, 0x00, 0x00, 0x00, 0x00, 0x00, 0x00, 
.................... 0x00, 0x00, 0x00, 0x00, 0x00, 0x00, 0x00, 0x00, 0x00, 0x00, 0x00, 0x00, 0x00, 0x00, 0x00, 0x00, 
.................... 0x00, 0x00, 0x00, 0x00, 0x00, 0x00, 0x00, 0x00, 0x00, 0x00, 0x00, 0x00, 0x00, 0x00, 0x00, 0x00, 
.................... 0x00, 0x00, 0x00, 0x00, 0x00, 0x00, 0x00, 0x00, 0x00, 0x00, 0x00, 0x00, 0x00, 0x00, 0x00, 0x00, 
.................... 0x00, 0x00, 0x00, 0x00, 0x00, 0x00, 0x00, 0x00, 0x00, 0x00, 0x00, 0x00, 0x00, 0x00, 0x00, 0x00, 
.................... 0x00, 0x00, 0x00, 0x00, 0x00, 0x00, 0x00, 0x00, 0x00, 0x00, 0x00, 0x00, 0x00, 0x00, 0x00, 0x00, 
.................... 0x00, 0x00, 0x00, 0x00, 0x00, 0x00, 0x00, 0x00, 0x00, 0x00, 0x00, 0x00, 0x00, 0x00, 0x00, 0x00, 
.................... 0x00, 0x00, 0x00, 0x00, 0x00, 0x00, 0x00, 0x00, 0x00, 0x00, 0x00, 0x00, 0x00, 0x00, 0x00, 0x00, 
.................... 0x00, 0x00, 0x00, 0x00, 0x00, 0x00, 0x00, 0x00, 0x00, 0x00, 0x00, 0x00, 0x00, 0x00, 0x00, 0x00, 
.................... 0x00, 0x00, 0x00, 0x00, 0x00, 0x00, 0x00, 0x00, 0x00, 0x00, 0x00, 0x00, 0x00, 0x00, 0x00, 0x00, 
.................... 0x00, 0x00, 0x00, 0x00, 0x00, 0x00, 0x00, 0x00, 0x00, 0x00, 0x00, 0x00, 0x00, 0x00, 0x00, 0x00, 
.................... 0x00, 0x00, 0x00, 0x00, 0x00, 0x00, 0x00, 0x00, 0x00, 0x00, 0x00, 0x00, 0x00, 0x00, 0x00, 0x00, 
.................... 0x00, 0x00, 0x00, 0x00, 0x00, 0x00, 0x00, 0x00, 0x00, 0x00, 0x00, 0x00, 0x00, 0x00, 0x00, 0x00, 
.................... 0x00, 0x00, 0x00, 0x00, 0x00, 0x00, 0x00, 0x00, 0x00, 0x00, 0x00, 0x00, 0x00, 0x00, 0x00, 0x00, 
.................... 0x00, 0x00, 0x00, 0x00, 0x00, 0x00, 0x00, 0x00, 0x00, 0x00, 0x00, 0x00, 0x00, 0x00, 0x00, 0x00, 
.................... 0x00, 0x00, 0x00, 0x00, 0x00, 0x00, 0x00, 0x00, 0x00, 0x00, 0x00, 0x00, 0x00, 0x00, 0x00, 0x00, 
.................... 0x00, 0x00, 0x00, 0x00, 0x00, 0x00, 0x00, 0x00, 0x00, 0x00, 0x00, 0x00, 0x00, 0x7F, 0xFF, 0xF8, 
.................... 0x00, 0x00, 0x00, 0x00, 0x00, 0x00, 0x00, 0x00, 0x00, 0x00, 0x00, 0x00, 0x00, 0x40, 0x00, 0x08, 
.................... 0x00, 0x00, 0x00, 0x00, 0x00, 0x00, 0x00, 0x00, 0x00, 0x00, 0x00, 0x00, 0x00, 0x47, 0x03, 0x88, 
.................... 0x00, 0x00, 0x00, 0x00, 0x00, 0x00, 0x00, 0x00, 0x00, 0x00, 0x00, 0x00, 0x00, 0x45, 0x02, 0x88, 
.................... 0x00, 0x00, 0x00, 0x00, 0x00, 0x00, 0x00, 0x00, 0x00, 0x00, 0x00, 0x00, 0x00, 0x45, 0x02, 0x88, 
.................... 0x00, 0x00, 0x00, 0x00, 0x00, 0x00, 0x00, 0x00, 0x00, 0x00, 0x00, 0x00, 0x00, 0x45, 0x02, 0x88, 
.................... 0x00, 0x00, 0x00, 0x00, 0x00, 0x00, 0x00, 0x00, 0x00, 0x00, 0x00, 0x00, 0x00, 0x45, 0x02, 0x88, 
.................... 0x00, 0x00, 0x00, 0x00, 0x00, 0x00, 0x00, 0x00, 0x00, 0x00, 0x00, 0x00, 0x00, 0x47, 0x03, 0x88, 
.................... 0x00, 0x00, 0x00, 0x00, 0x00, 0x00, 0x00, 0x00, 0x00, 0x00, 0x00, 0x00, 0x00, 0x40, 0x00, 0x08, 
.................... 0x00, 0x00, 0x00, 0x00, 0x00, 0x00, 0x00, 0x00, 0x00, 0x00, 0x00, 0x00, 0x00, 0x40, 0xFC, 0x08, 
.................... 0x00, 0x00, 0x00, 0x00, 0x00, 0x00, 0x00, 0x00, 0x00, 0x00, 0x00, 0x00, 0x00, 0x40, 0x84, 0x08, 
.................... 0x00, 0x00, 0x00, 0x00, 0x00, 0x00, 0x00, 0x00, 0x00, 0x00, 0x00, 0x00, 0x00, 0x40, 0x84, 0x08, 
.................... 0x00, 0x00, 0x00, 0x00, 0x00, 0x00, 0x00, 0x00, 0x00, 0x00, 0x00, 0x00, 0x00, 0x40, 0xFC, 0x08, 
.................... 0x00, 0x00, 0x00, 0x00, 0x00, 0x00, 0x00, 0x00, 0x00, 0x00, 0x00, 0x00, 0x00, 0x40, 0x00, 0x08, 
.................... 0x00, 0x00, 0x00, 0x00, 0x00, 0x00, 0x00, 0x00, 0x00, 0x00, 0x00, 0x00, 0x00, 0x7F, 0xFF, 0xF8, 
.................... 0x00, 0x00, 0x00, 0x00, 0x00, 0x00, 0x00, 0x00, 0x00, 0x00, 0x00, 0x00, 0x00, 0x00, 0x00, 0x00, 
.................... 0x00, 0x00, 0x00, 0x00, 0x00, 0x00, 0x00, 0x00, 0x00, 0x00, 0x00, 0x00, 0x00, 0x00, 0x00, 0x00, 
.................... 0x00, 0x00, 0x00, 0x00, 0x00, 0x00, 0x00, 0x00, 0x00, 0x00, 0x00, 0x00, 0x00, 0x00, 0x00, 0x00, 
.................... 0x00, 0x00, 0x00, 0x00, 0x00, 0x00, 0x00, 0x00, 0x00, 0x00, 0x00, 0x00, 0x00, 0x00, 0x00, 0x00, 
.................... 0x00, 0x00, 0x00, 0x00, 0x00, 0x00, 0x00, 0x00, 0x00, 0x00, 0x00, 0x00, 0x00, 0x00, 0x00, 0x00, 
.................... 0x00, 0x00, 0x00, 0x00, 0x00, 0x00, 0x00, 0x00, 0x00, 0x00, 0x00, 0x00, 0x00, 0x00, 0x00, 0x00, 
.................... 0x00, 0x00, 0x00, 0x00, 0x00, 0x00, 0x00, 0x00, 0x00, 0x00, 0x00, 0x00, 0x00, 0x00, 0x00, 0x00, 
.................... 0x00, 0x00, 0x00, 0x00, 0x00, 0x00, 0x00, 0x00, 0x00, 0x00, 0x00, 0x00, 0x00, 0x00, 0x00, 0x00, 
.................... 0x00, 0x00, 0x00, 0x00, 0x00, 0x00, 0x00, 0x00, 0x00, 0x00, 0x00, 0x00, 0x00, 0x00, 0x00, 0x00, 
.................... 0x00, 0x00, 0x00, 0x00, 0x00, 0x00, 0x00, 0x00, 0x00, 0x00, 0x00, 0x00, 0x00, 0x00, 0x00, 0x00, 
.................... 0x00, 0x00, 0x00, 0x00, 0x00, 0x00, 0x00, 0x00, 0x00, 0x00, 0x00, 0x00, 0x00, 0x00, 0x00, 0x00, 
.................... 0x00, 0x00, 0x00, 0x00, 0x00, 0x00, 0x00, 0x00, 0x00, 0x00, 0x00, 0x00, 0x00, 0x00, 0x00, 0x00, 
.................... 0x00, 0x00, 0x00, 0x00, 0x00, 0x00, 0x00, 0x00, 0x00, 0x00, 0x00, 0x00, 0x00, 0x00, 0x00, 0x00, 
.................... 0x00, 0x00, 0x00, 0x00, 0x00, 0x00, 0x00, 0x00, 0x00, 0x00, 0x00, 0x00, 0x00, 0x00, 0x00, 0x00, 
.................... 0x00, 0x00, 0x00, 0x00, 0x00, 0x00, 0x00, 0x00, 0x00, 0x00, 0x00, 0x00, 0x00, 0x00, 0x00, 0x00, 
.................... 0x00, 0x00, 0x00, 0x00, 0x00, 0x00, 0x00, 0x00, 0x00, 0x00, 0x00, 0x00, 0x00, 0x00, 0x00, 0x00, 
.................... 0x00, 0x00, 0x00, 0x00, 0x00, 0x00, 0x00, 0x00, 0x00, 0x00, 0x00, 0x00, 0x00, 0x00, 0x00, 0x00, 
.................... 0x00, 0x00, 0x00, 0x00, 0x00, 0x00, 0x00, 0x00, 0x00, 0x00, 0x00, 0x00, 0x00, 0x00, 0x00, 0x00, 
.................... 0x00, 0x00, 0x00, 0x00, 0x00, 0x00, 0x00, 0x00, 0x00, 0x00, 0x00, 0x00, 0x00, 0x00, 0x00, 0x00 
.................... }; 
....................  
.................... const int8 Ventilador [64][16] = { 
.................... 0x00, 0x00, 0x00, 0x00, 0x00, 0x00, 0x00, 0x00, 0x00, 0x00, 0x00, 0x00, 0x00, 0x00, 0x00, 0x00, 
.................... 0x00, 0x00, 0x00, 0x00, 0x00, 0x00, 0x00, 0x00, 0x00, 0x00, 0x00, 0x00, 0x00, 0x00, 0x00, 0x00, 
.................... 0x00, 0x00, 0x00, 0x00, 0x00, 0x00, 0x00, 0x00, 0x00, 0x00, 0x00, 0x00, 0x00, 0x00, 0x00, 0x00, 
.................... 0x00, 0x00, 0x00, 0x00, 0x00, 0x00, 0x00, 0x00, 0x00, 0x00, 0x00, 0x00, 0x00, 0x00, 0x00, 0x00, 
.................... 0x00, 0x00, 0x00, 0x00, 0x00, 0x00, 0x00, 0x00, 0x00, 0x00, 0x00, 0x00, 0x00, 0x00, 0x00, 0x00, 
.................... 0x00, 0x00, 0x00, 0x00, 0x00, 0x00, 0x00, 0x00, 0x00, 0x00, 0x00, 0x00, 0x00, 0x00, 0x00, 0x00, 
.................... 0x00, 0x00, 0x00, 0x00, 0x00, 0x00, 0x00, 0x00, 0x00, 0x00, 0x00, 0x00, 0x00, 0x00, 0x00, 0x00, 
.................... 0x00, 0x00, 0x00, 0x00, 0x00, 0x00, 0x00, 0x00, 0x00, 0x00, 0x00, 0x00, 0x00, 0x00, 0x00, 0x00, 
.................... 0x00, 0x00, 0x00, 0x00, 0x00, 0x00, 0x00, 0x00, 0x00, 0x00, 0x00, 0x00, 0x00, 0x00, 0x00, 0x00, 
.................... 0x00, 0x00, 0x00, 0x00, 0x00, 0x00, 0x00, 0x00, 0x00, 0x00, 0x00, 0x00, 0x00, 0x00, 0x00, 0x00, 
.................... 0x00, 0x00, 0x00, 0x00, 0x00, 0x00, 0x00, 0x00, 0x00, 0x00, 0x00, 0x00, 0x00, 0x00, 0x00, 0x00, 
.................... 0x00, 0x00, 0x00, 0x00, 0x00, 0x00, 0x00, 0x00, 0x00, 0x00, 0x00, 0x00, 0x00, 0x00, 0x00, 0x00, 
.................... 0x00, 0x00, 0x00, 0x00, 0x00, 0x00, 0x00, 0x00, 0x00, 0x00, 0x00, 0x00, 0x00, 0x00, 0x00, 0x00, 
.................... 0x00, 0x00, 0x00, 0x00, 0x00, 0x00, 0x00, 0x00, 0x00, 0x00, 0x00, 0x00, 0x00, 0x00, 0x00, 0x00, 
.................... 0x00, 0x00, 0x00, 0x00, 0x00, 0x00, 0x00, 0x00, 0x00, 0x00, 0x00, 0x00, 0x00, 0x00, 0x00, 0x00, 
.................... 0x00, 0x00, 0x00, 0x00, 0x00, 0x00, 0x00, 0x00, 0x00, 0x00, 0x00, 0x00, 0x00, 0x00, 0x00, 0x00, 
.................... 0x00, 0x00, 0x00, 0x00, 0x00, 0x00, 0x00, 0x00, 0x00, 0x00, 0x00, 0x00, 0x00, 0x00, 0x00, 0x00, 
.................... 0x00, 0x00, 0x00, 0x00, 0x00, 0x00, 0x00, 0x00, 0x00, 0x00, 0x00, 0x00, 0x00, 0x00, 0x00, 0x00, 
.................... 0x00, 0x00, 0x00, 0x00, 0x00, 0x00, 0x00, 0x00, 0x00, 0x00, 0x00, 0x00, 0x00, 0x00, 0x00, 0x00, 
.................... 0x00, 0x00, 0x00, 0x00, 0x00, 0x00, 0x00, 0x00, 0x00, 0x00, 0x00, 0x00, 0x00, 0x00, 0x00, 0x00, 
.................... 0x00, 0x00, 0x00, 0x00, 0x00, 0x00, 0x00, 0x00, 0x00, 0x00, 0x00, 0x00, 0x00, 0x00, 0x00, 0x00, 
.................... 0x00, 0x00, 0x00, 0x00, 0x00, 0x00, 0x00, 0x00, 0x00, 0x00, 0x00, 0x00, 0x00, 0x00, 0x00, 0x00, 
.................... 0x00, 0x00, 0x00, 0x00, 0x00, 0x00, 0x00, 0x00, 0x00, 0x00, 0x00, 0x00, 0x00, 0x00, 0x00, 0x00, 
.................... 0x00, 0x00, 0x00, 0x00, 0x00, 0x00, 0x00, 0x00, 0x00, 0x00, 0x00, 0x00, 0x00, 0x00, 0x00, 0x00, 
.................... 0x00, 0x00, 0x00, 0x00, 0x00, 0x00, 0x00, 0x00, 0x00, 0x00, 0x00, 0x00, 0x00, 0x00, 0x00, 0x00, 
.................... 0x00, 0x00, 0x00, 0x00, 0x00, 0x00, 0x00, 0x00, 0x00, 0x00, 0x00, 0x00, 0x00, 0x00, 0x00, 0x00, 
.................... 0x00, 0x00, 0x00, 0x00, 0x00, 0x00, 0x00, 0x00, 0x00, 0x00, 0x00, 0x00, 0x00, 0x00, 0x00, 0x00, 
.................... 0x00, 0x00, 0x00, 0x00, 0x00, 0x00, 0x00, 0x00, 0x00, 0x00, 0x00, 0x00, 0x00, 0x00, 0x00, 0x00, 
.................... 0x00, 0x00, 0x00, 0x00, 0x00, 0x00, 0x00, 0x00, 0x00, 0x00, 0x00, 0x00, 0x00, 0x00, 0x00, 0x00, 
.................... 0x00, 0x00, 0x00, 0x00, 0x00, 0x00, 0x00, 0x00, 0x00, 0x00, 0x00, 0x00, 0x00, 0x00, 0x00, 0x00, 
.................... 0x00, 0x00, 0x00, 0x00, 0x00, 0x00, 0x00, 0x00, 0x00, 0x00, 0x00, 0x00, 0x00, 0x00, 0x00, 0x00, 
.................... 0x00, 0x00, 0x00, 0x00, 0x00, 0x00, 0x00, 0x00, 0x00, 0x00, 0x00, 0x00, 0x00, 0x00, 0x00, 0x00, 
.................... 0x00, 0x00, 0x00, 0x00, 0x00, 0x00, 0x00, 0x00, 0x00, 0x00, 0x00, 0x00, 0x00, 0x00, 0x00, 0x00, 
.................... 0x00, 0x00, 0x00, 0x00, 0x00, 0x00, 0x00, 0x00, 0x00, 0x00, 0x00, 0x00, 0x00, 0x00, 0x00, 0x00, 
.................... 0x00, 0x00, 0x00, 0x00, 0x00, 0x00, 0x00, 0x00, 0x00, 0x00, 0x00, 0x00, 0x00, 0x00, 0x00, 0x00, 
.................... 0x00, 0x00, 0x00, 0x00, 0x00, 0x00, 0x00, 0x00, 0x00, 0x00, 0x00, 0x00, 0x00, 0x00, 0x00, 0x00, 
.................... 0x00, 0x00, 0x00, 0x00, 0x00, 0x00, 0x00, 0x00, 0x00, 0x00, 0x00, 0x00, 0x00, 0x00, 0x00, 0x00, 
.................... 0x00, 0x00, 0x00, 0x00, 0x00, 0x00, 0x00, 0x00, 0x00, 0x00, 0x00, 0x00, 0x00, 0x00, 0x00, 0x00, 
.................... 0x00, 0x00, 0x00, 0x00, 0x00, 0x00, 0x00, 0x00, 0x00, 0x00, 0x00, 0x00, 0x00, 0x00, 0x00, 0x00, 
.................... 0x00, 0x00, 0x00, 0x00, 0x00, 0x00, 0x00, 0x00, 0x00, 0x00, 0x00, 0x00, 0x00, 0x00, 0x00, 0x00, 
.................... 0x00, 0x00, 0x00, 0x00, 0x00, 0x00, 0x00, 0x00, 0x00, 0x00, 0x00, 0x00, 0x00, 0x00, 0x00, 0x00, 
.................... 0x00, 0x00, 0x00, 0x00, 0x00, 0x00, 0x00, 0x00, 0x00, 0x00, 0x00, 0x00, 0x00, 0x00, 0x00, 0x00, 
.................... 0x00, 0x00, 0x00, 0x00, 0x00, 0x00, 0x00, 0x00, 0x00, 0x00, 0x00, 0x00, 0x00, 0x00, 0x00, 0x00, 
.................... 0x00, 0x00, 0x00, 0x00, 0x00, 0x00, 0x00, 0x00, 0x00, 0x00, 0x00, 0x00, 0x00, 0x00, 0x00, 0x00, 
.................... 0x00, 0x00, 0x00, 0x00, 0x00, 0x00, 0x00, 0x00, 0x00, 0x00, 0x00, 0x00, 0x00, 0x00, 0x00, 0x00, 
.................... 0x00, 0x00, 0x00, 0x00, 0x00, 0x00, 0x00, 0x00, 0x00, 0x00, 0x00, 0x00, 0x00, 0x00, 0x00, 0x00, 
.................... 0x00, 0x00, 0x00, 0x00, 0x00, 0x00, 0x00, 0x00, 0x00, 0x00, 0x00, 0x00, 0x00, 0x00, 0x60, 0x00, 
.................... 0x00, 0x00, 0x00, 0x00, 0x00, 0x00, 0x00, 0x00, 0x00, 0x00, 0x00, 0x00, 0x00, 0x00, 0xF0, 0x00, 
.................... 0x00, 0x00, 0x00, 0x00, 0x00, 0x00, 0x00, 0x00, 0x00, 0x00, 0x00, 0x00, 0x00, 0x01, 0xF8, 0x00, 
.................... 0x00, 0x00, 0x00, 0x00, 0x00, 0x00, 0x00, 0x00, 0x00, 0x00, 0x00, 0x00, 0x00, 0x01, 0xF8, 0x00, 
.................... 0x00, 0x00, 0x00, 0x00, 0x00, 0x00, 0x00, 0x00, 0x00, 0x00, 0x00, 0x00, 0x00, 0x01, 0xF8, 0x00, 
.................... 0x00, 0x00, 0x00, 0x00, 0x00, 0x00, 0x00, 0x00, 0x00, 0x00, 0x00, 0x00, 0x00, 0x00, 0xF0, 0x00, 
.................... 0x00, 0x00, 0x00, 0x00, 0x00, 0x00, 0x00, 0x00, 0x00, 0x00, 0x00, 0x00, 0x00, 0x38, 0x71, 0xC0, 
.................... 0x00, 0x00, 0x00, 0x00, 0x00, 0x00, 0x00, 0x00, 0x00, 0x00, 0x00, 0x00, 0x00, 0x7C, 0x93, 0xE0, 
.................... 0x00, 0x00, 0x00, 0x00, 0x00, 0x00, 0x00, 0x00, 0x00, 0x00, 0x00, 0x00, 0x00, 0xFF, 0x0F, 0xF0, 
.................... 0x00, 0x00, 0x00, 0x00, 0x00, 0x00, 0x00, 0x00, 0x00, 0x00, 0x00, 0x00, 0x00, 0xFF, 0x0F, 0xF0, 
.................... 0x00, 0x00, 0x00, 0x00, 0x00, 0x00, 0x00, 0x00, 0x00, 0x00, 0x00, 0x00, 0x00, 0x7D, 0x93, 0xE0, 
.................... 0x00, 0x00, 0x00, 0x00, 0x00, 0x00, 0x00, 0x00, 0x00, 0x00, 0x00, 0x00, 0x00, 0x38, 0x61, 0xC0, 
.................... 0x00, 0x00, 0x00, 0x00, 0x00, 0x00, 0x00, 0x00, 0x00, 0x00, 0x00, 0x00, 0x00, 0x00, 0xF0, 0x00, 
.................... 0x00, 0x00, 0x00, 0x00, 0x00, 0x00, 0x00, 0x00, 0x00, 0x00, 0x00, 0x00, 0x00, 0x01, 0xF8, 0x00, 
.................... 0x00, 0x00, 0x00, 0x00, 0x00, 0x00, 0x00, 0x00, 0x00, 0x00, 0x00, 0x00, 0x00, 0x01, 0xF8, 0x00, 
.................... 0x00, 0x00, 0x00, 0x00, 0x00, 0x00, 0x00, 0x00, 0x00, 0x00, 0x00, 0x00, 0x00, 0x01, 0xF8, 0x00, 
.................... 0x00, 0x00, 0x00, 0x00, 0x00, 0x00, 0x00, 0x00, 0x00, 0x00, 0x00, 0x00, 0x00, 0x00, 0xF0, 0x00, 
.................... 0x00, 0x00, 0x00, 0x00, 0x00, 0x00, 0x00, 0x00, 0x00, 0x00, 0x00, 0x00, 0x00, 0x00, 0x60, 0x00 
.................... }; 
....................  
....................  
.................... #define   UP               input(PIN_E0) 
.................... #define   DOWN             input(PIN_E1) 
.................... #define   RIGHT            input(PIN_E2) 
.................... #define   LEFT             input(PIN_C0) 
.................... #define   VIDRIOUP         input(PIN_A5) 
.................... #define   VIDRIODN         input(PIN_A4) 
.................... #define   VIDRIOOK         input(PIN_A3) 
....................  
.................... #define   Alarma_on           output_bit(PIN_C3,1) 
.................... #define   Alarma_off          output_bit(PIN_C3,0) 
.................... #define   LuzBlanca_on        output_bit(PIN_C4,1) 
.................... #define   LuzBlanca_off       output_bit(PIN_C4,0) 
.................... #define   LuzUV_on            output_bit(PIN_C5,1) 
.................... #define   LuzUV_off           output_bit(PIN_C5,0) 
.................... #define   Motor_on            output_bit(PIN_C6,1) 
.................... #define   Motor_off           output_bit(PIN_C6,0) 
.................... #define   Toma_on             output_bit(PIN_C7,1) 
.................... #define   Toma_off            output_bit(PIN_C7,0) 
.................... #define   Display_on          output_bit(PIN_B1,1) 
.................... #define   Display_off         output_bit(PIN_B1,0) 
.................... #define   O1_on               output_bit(PIN_C1,1) 
.................... #define   O1_off              output_bit(PIN_C1,0) 
.................... #define   O2_on               output_bit(PIN_C2,1) 
.................... #define   O2_off              output_bit(PIN_C2,0) 
....................  
.................... int16 tiempos=0; 
.................... int8 i=0,AjustarOK=10,AjustarUV=10,AjustarUP=10,flagbajo=10,flagsubio=10; 
....................  
.................... short Flanco=0,Flanco1=0,Flanco2=0,Flanco3=0,Flanco4=0,Flanco5=0,Flanco6=0,imprimir=0,flag_uv=0,flag_blower=0,flag_toma=0,flag_luz=0,flag_alarma=0,w=0; 
.................... short tiempo_purga=0,tiempo_uv=0,tiempo_trabajo=0,tiempo_postpurga=0,Latencia=0,flag_latencia=0; 
.................... short guardauv=0,guardatrabajo=0,Lectura=0,n=0,flag_alarma2=0; 
.................... char  JP[] = "JP Inglobal", Cabina[] = "Cabina Bioseguridad",tiempo_est[]="T est=", Dos_puntos[]=":"; 
.................... char  Clase[] = "Clase A2", Tiempo[] = "Tiempo de Purga", UV[]="UV"; 
.................... char  Baje_Vidrio[] = "!!Ubique Vidrio!!",Inflowt[] = "Inflow(m/s):",Downflowt[] = "Dnflow(m/s):", ZF[] = "Fabrica:203.0", ZA[] = "Actual:",AJ[]="Ajuste:"; 
.................... char  Vida_UV[] = "UVLife:",Vida_Filtro[] = "Filter:",ZFP[] = "Fabrica:235.0", Perdida[]="!Perdida Flujo!"; 
.................... int8 Menu=200, unidad=1, Opcion=1,inicie=0,negativo=10,G_l=0,G_h=0,tiemporeset=0; 
.................... int8 q=0,r=0,l=0,h=0,Entero=0,Decimal1=0,LuzUV=10,Motor=10,Alarma=10,UV2=0,e=0,m=0; 
....................  
.................... unsigned int16 Inflow_adc=0,Filtro_Downflow_adc=0,Temporal1=0; 
....................  
.................... int16 t_latencia=0,minutos_uv=0,minutos_trabajo=0,G16=0; 
.................... signed int  Tpurga[4]={0,0,0,0};       // Tiempo de Purga transcurrido 
.................... signed int  Tpurgap[4]={9,0,0,0};      // Tiempo de Purga programado 
.................... signed int  Tppurga[4]={0,0,0,0};      // Tiempo de Post-Purga transcurrido 
.................... signed int  Tppurgap[4]={9,0,0,0};     // Tiempo de Post-Purga programado 
.................... signed int  Tuv[4]={0,0,0,0};          // Tiempo de UV transcurrido(en Horas) 
.................... signed int  Tempouv[4]={0,0,0,0};         // Tiempo de UV transcurrido 
.................... signed int  Tempouvp[4]={0,0,0,0};        // Tiempo de UV transcurrido 
.................... signed int  Ttrabajo[4]={0,0,0,0};        // Tiempo de trabajo transcurrido (en Horas) 
.................... signed int  Contrasena[4]={0,0,0,0};      // Contrasena de 4 digitos 
.................... signed int  Password[4]={0,0,0,0};        // Contrasena Almacenada de 4 digitos 
.................... float Inflow=0.0,Downflow=0.0,Filtro_Downflow=0.0,Diferencia=0.0,barra=0.0,barra_old=0.0,barra2=0.0,barra_old2=0.0; 
.................... float Velocidad=0.0,x_uno=0.0,x_cuadrado=0.0,x_cubo=0.0,Ajuste1=0.0,Ajuste2=0.0; 
.................... float ADC=0,Temporal=0.0,Temporal2=0.0; 
.................... float a=0.0000001418633343546420,b=-0.00009476749001431169,c= 0.040182822903506,d= -5.354852229527197;//Sensor 2 Posible bueno 
.................... float promedio[8]={0.0,0.0,0.0,0.0,0.0,0.0,0.0,0.0}; 
.................... float PromPresion[8]={0.0,0.0,0.0,0.0,0.0,0.0,0.0,0.0}; 
.................... float Flujo=0.0,zero_fabrica=203.0,zero_actual=0.0; 
.................... float V1=0.0,Presion=0.0,G=2.0,UVTime=0.0; 
....................  
.................... int16 Vector[40]; 
....................  
.................... int1 BITS[32]; 
.................... int16 Ta,Tb,TICK=0; 
.................... Int1 BIT_START, NUEVO_DATO=0; 
.................... int BYTE_IR[4]; 
.................... int8 BIT_BYTE(int1 D7, int1 D6, int1 D5, int1 D4, int1 D3, int1 D2, int1 D1, int1 D0); 
....................  
.................... typedef struct{ 
....................    char Letra[20]; 
.................... }MENUU; 
....................  
.................... MENUU Menus; 
....................  
.................... void glcd_imagen(int8 x) 
.................... { 
....................    char i,j; 
....................    signed char k;  
....................       
....................    if(x==3){ 
*
03150:  MOVLB  6
03152:  MOVF   x4E,W
03154:  SUBLW  03
03156:  BNZ   31FA
....................    for( i = 0 ; i < 64 ; i ++ ) 
03158:  CLRF   x4F
0315A:  MOVF   x4F,W
0315C:  SUBLW  3F
0315E:  BNC   31FA
....................    {  for( j = 0 ; j < 16 ; j ++) 
03160:  CLRF   x50
03162:  MOVF   x50,W
03164:  SUBLW  0F
03166:  BNC   31F6
....................       {  for(k=7;k>-1;k--) 
03168:  MOVLW  07
0316A:  MOVWF  x51
0316C:  MOVF   x51,W
0316E:  XORLW  80
03170:  SUBLW  7F
03172:  BC    31F2
....................          {       
....................             if( bit_test(Bombillo[i][j] ,7-k ))  
03174:  CLRF   x53
03176:  MOVFF  64F,652
0317A:  CLRF   x55
0317C:  MOVLW  10
0317E:  MOVWF  x54
03180:  MOVLB  0
03182:  RCALL  312E
03184:  MOVFF  02,653
03188:  MOVFF  01,652
0318C:  MOVLB  6
0318E:  MOVF   x50,W
03190:  ADDWF  01,W
03192:  MOVWF  01
03194:  MOVLW  00
03196:  ADDWFC 02,W
03198:  MOVWF  03
0319A:  MOVF   01,W
0319C:  MOVFF  FF2,652
031A0:  BCF    FF2.7
031A2:  MOVFF  03,FF7
031A6:  MOVLB  0
031A8:  CALL   02C2
031AC:  MOVLB  6
031AE:  BTFSC  x52.7
031B0:  BSF    FF2.7
031B2:  MOVWF  x52
031B4:  MOVLW  07
031B6:  BSF    FD8.0
031B8:  SUBFWB x51,W
031BA:  MOVWF  x53
031BC:  MOVFF  652,00
031C0:  MOVF   x53,W
031C2:  MOVWF  01
031C4:  BZ    31CE
031C6:  BCF    FD8.0
031C8:  RRCF   00,F
031CA:  DECFSZ 01,F
031CC:  BRA    31C6
031CE:  BTFSS  00.0
031D0:  BRA    31EE
....................                glcd_pixel( j*8+k,i, ON ); 
031D2:  MOVF   x50,W
031D4:  MULLW  08
031D6:  MOVF   FF3,W
031D8:  ADDWF  x51,W
031DA:  MOVWF  x52
031DC:  MOVWF  x80
031DE:  MOVFF  64F,681
031E2:  MOVLW  01
031E4:  MOVWF  x82
031E6:  MOVLB  0
031E8:  CALL   249E
031EC:  MOVLB  6
....................          }   
031EE:  DECF   x51,F
031F0:  BRA    316C
....................       } 
031F2:  INCF   x50,F
031F4:  BRA    3162
....................    } 
031F6:  INCF   x4F,F
031F8:  BRA    315A
....................    } 
....................     
....................    if(x==4){ 
031FA:  MOVF   x4E,W
031FC:  SUBLW  04
031FE:  BNZ   32A2
....................    for( i = 0 ; i < 64 ; i ++ ) 
03200:  CLRF   x4F
03202:  MOVF   x4F,W
03204:  SUBLW  3F
03206:  BNC   32A2
....................    {  for( j = 0 ; j < 16 ; j ++) 
03208:  CLRF   x50
0320A:  MOVF   x50,W
0320C:  SUBLW  0F
0320E:  BNC   329E
....................       {  for(k=7;k>-1;k--) 
03210:  MOVLW  07
03212:  MOVWF  x51
03214:  MOVF   x51,W
03216:  XORLW  80
03218:  SUBLW  7F
0321A:  BC    329A
....................          {       
....................             if( bit_test(Tomai[i][j] ,7-k ))  
0321C:  CLRF   x53
0321E:  MOVFF  64F,652
03222:  CLRF   x55
03224:  MOVLW  10
03226:  MOVWF  x54
03228:  MOVLB  0
0322A:  RCALL  312E
0322C:  MOVFF  02,653
03230:  MOVFF  01,652
03234:  MOVLB  6
03236:  MOVF   x50,W
03238:  ADDWF  01,W
0323A:  MOVWF  01
0323C:  MOVLW  00
0323E:  ADDWFC 02,W
03240:  MOVWF  03
03242:  MOVF   01,W
03244:  MOVFF  FF2,652
03248:  BCF    FF2.7
0324A:  MOVFF  03,FF7
0324E:  MOVLB  0
03250:  CALL   06DE
03254:  MOVLB  6
03256:  BTFSC  x52.7
03258:  BSF    FF2.7
0325A:  MOVWF  x52
0325C:  MOVLW  07
0325E:  BSF    FD8.0
03260:  SUBFWB x51,W
03262:  MOVWF  x53
03264:  MOVFF  652,00
03268:  MOVF   x53,W
0326A:  MOVWF  01
0326C:  BZ    3276
0326E:  BCF    FD8.0
03270:  RRCF   00,F
03272:  DECFSZ 01,F
03274:  BRA    326E
03276:  BTFSS  00.0
03278:  BRA    3296
....................                glcd_pixel( j*8+k,i, ON ); 
0327A:  MOVF   x50,W
0327C:  MULLW  08
0327E:  MOVF   FF3,W
03280:  ADDWF  x51,W
03282:  MOVWF  x52
03284:  MOVWF  x80
03286:  MOVFF  64F,681
0328A:  MOVLW  01
0328C:  MOVWF  x82
0328E:  MOVLB  0
03290:  CALL   249E
03294:  MOVLB  6
....................          }   
03296:  DECF   x51,F
03298:  BRA    3214
....................       } 
0329A:  INCF   x50,F
0329C:  BRA    320A
....................    } 
0329E:  INCF   x4F,F
032A0:  BRA    3202
....................    } 
....................     
....................    if(x==5){ 
032A2:  MOVF   x4E,W
032A4:  SUBLW  05
032A6:  BNZ   334A
....................    for( i = 0 ; i < 64 ; i ++ ) 
032A8:  CLRF   x4F
032AA:  MOVF   x4F,W
032AC:  SUBLW  3F
032AE:  BNC   334A
....................    {  for( j = 0 ; j < 16 ; j ++) 
032B0:  CLRF   x50
032B2:  MOVF   x50,W
032B4:  SUBLW  0F
032B6:  BNC   3346
....................       {  for(k=7;k>-1;k--) 
032B8:  MOVLW  07
032BA:  MOVWF  x51
032BC:  MOVF   x51,W
032BE:  XORLW  80
032C0:  SUBLW  7F
032C2:  BC    3342
....................          {       
....................             if( bit_test(Ventilador[i][j] ,7-k ))  
032C4:  CLRF   x53
032C6:  MOVFF  64F,652
032CA:  CLRF   x55
032CC:  MOVLW  10
032CE:  MOVWF  x54
032D0:  MOVLB  0
032D2:  RCALL  312E
032D4:  MOVFF  02,653
032D8:  MOVFF  01,652
032DC:  MOVLB  6
032DE:  MOVF   x50,W
032E0:  ADDWF  01,W
032E2:  MOVWF  01
032E4:  MOVLW  00
032E6:  ADDWFC 02,W
032E8:  MOVWF  03
032EA:  MOVF   01,W
032EC:  MOVFF  FF2,652
032F0:  BCF    FF2.7
032F2:  MOVFF  03,FF7
032F6:  MOVLB  0
032F8:  CALL   0AFA
032FC:  MOVLB  6
032FE:  BTFSC  x52.7
03300:  BSF    FF2.7
03302:  MOVWF  x52
03304:  MOVLW  07
03306:  BSF    FD8.0
03308:  SUBFWB x51,W
0330A:  MOVWF  x53
0330C:  MOVFF  652,00
03310:  MOVF   x53,W
03312:  MOVWF  01
03314:  BZ    331E
03316:  BCF    FD8.0
03318:  RRCF   00,F
0331A:  DECFSZ 01,F
0331C:  BRA    3316
0331E:  BTFSS  00.0
03320:  BRA    333E
....................                glcd_pixel( j*8+k,i, ON ); 
03322:  MOVF   x50,W
03324:  MULLW  08
03326:  MOVF   FF3,W
03328:  ADDWF  x51,W
0332A:  MOVWF  x52
0332C:  MOVWF  x80
0332E:  MOVFF  64F,681
03332:  MOVLW  01
03334:  MOVWF  x82
03336:  MOVLB  0
03338:  CALL   249E
0333C:  MOVLB  6
....................          }   
0333E:  DECF   x51,F
03340:  BRA    32BC
....................       } 
03342:  INCF   x50,F
03344:  BRA    32B2
....................    } 
03346:  INCF   x4F,F
03348:  BRA    32AA
....................    } 
.................... } 
0334A:  MOVLB  0
0334C:  RETLW  00
....................  
.................... #int_EXT 
.................... void RB0(){ 
....................    Ta=get_timer1(); 
*
012FC:  MOVF   FCE,W
012FE:  MOVLB  6
01300:  MOVWF  x2E
01302:  MOVFF  FCF,62F
....................    set_timer1(0); 
01306:  CLRF   FCF
01308:  CLRF   FCE
....................    TICK = Ta; 
0130A:  MOVFF  62F,633
0130E:  MOVFF  62E,632
....................    //TICK = Ta-tb; 
....................    Tb = Ta; 
01312:  MOVFF  62F,631
01316:  MOVFF  62E,630
....................     
....................    Vector[e]=TICK; 
0131A:  BCF    FD8.0
0131C:  MOVLB  4
0131E:  RLCF   xF2,W
01320:  CLRF   03
01322:  ADDLW  DA
01324:  MOVWF  FE9
01326:  MOVLW  05
01328:  ADDWFC 03,W
0132A:  MOVWF  FEA
0132C:  MOVFF  633,FEC
01330:  MOVF   FED,F
01332:  MOVFF  632,FEF
....................    e++; 
01336:  INCF   xF2,F
....................    if(e>39) 
01338:  MOVF   xF2,W
0133A:  SUBLW  27
0133C:  BC    1340
....................       e=0; 
0133E:  CLRF   xF2
....................     
....................    if(BIT_START==1){ 
01340:  BTFSS  x22.1
01342:  BRA    13BE
....................        //BIT 1 
....................        if(TICK>1300 && TICK < 1500)  // 700 con Pres 4 y 20MHz  
01344:  MOVLB  6
01346:  MOVF   x33,W
01348:  SUBLW  04
0134A:  BC    137E
0134C:  XORLW  FF
0134E:  BNZ   1356
01350:  MOVF   x32,W
01352:  SUBLW  14
01354:  BC    137E
01356:  MOVF   x33,W
01358:  SUBLW  05
0135A:  BNC   137E
0135C:  BNZ   1364
0135E:  MOVF   x32,W
01360:  SUBLW  DB
01362:  BNC   137E
....................       { 
....................          BITS[m]=1; m++;    
01364:  MOVFF  4F3,689
01368:  MOVLW  01
0136A:  MOVWF  x8A
0136C:  MOVLW  06
0136E:  MOVWF  x8C
01370:  MOVLW  2A
01372:  MOVWF  x8B
01374:  MOVLB  0
01376:  RCALL  12BA
01378:  MOVLB  4
0137A:  INCF   xF3,F
0137C:  MOVLB  6
....................       } 
....................       //BIT 0 
....................        if(TICK>600 && TICK < 800)  // 350 con Pres 4 y 20MHz  
0137E:  MOVF   x33,W
01380:  SUBLW  01
01382:  BC    13B2
01384:  XORLW  FF
01386:  BNZ   138E
01388:  MOVF   x32,W
0138A:  SUBLW  58
0138C:  BC    13B2
0138E:  MOVF   x33,W
01390:  SUBLW  03
01392:  BNC   13B2
01394:  BNZ   139C
01396:  MOVF   x32,W
01398:  SUBLW  1F
0139A:  BNC   13B2
....................       { 
....................          BITS[m]=0; m++; 
0139C:  MOVFF  4F3,689
013A0:  CLRF   x8A
013A2:  MOVLW  06
013A4:  MOVWF  x8C
013A6:  MOVLW  2A
013A8:  MOVWF  x8B
013AA:  MOVLB  0
013AC:  RCALL  12BA
013AE:  MOVLB  4
013B0:  INCF   xF3,F
....................       } 
....................       if(m>=32){ 
013B2:  MOVLB  4
013B4:  MOVF   xF3,W
013B6:  SUBLW  1F
013B8:  BC    13BE
....................          NUEVO_DATO=1; 
013BA:  BSF    x22.2
....................          BIT_START=0;    
013BC:  BCF    x22.1
....................       } 
....................     
....................    } 
....................    //BIT STAR 
....................    if(TICK>5000 && TICK < 8000 && BIT_START==0 )  //3500 con Pres 4 y 20MHz  
013BE:  MOVLB  6
013C0:  MOVF   x33,W
013C2:  SUBLW  12
013C4:  BC    13EE
013C6:  XORLW  FF
013C8:  BNZ   13D0
013CA:  MOVF   x32,W
013CC:  SUBLW  88
013CE:  BC    13EE
013D0:  MOVF   x33,W
013D2:  SUBLW  1F
013D4:  BNC   13EE
013D6:  BNZ   13DE
013D8:  MOVF   x32,W
013DA:  SUBLW  3F
013DC:  BNC   13EE
013DE:  MOVLB  4
013E0:  BTFSS  x22.1
013E2:  BRA    13E8
013E4:  MOVLB  6
013E6:  BRA    13EE
....................    { 
....................       BIT_START=1; 
013E8:  BSF    x22.1
....................       m=0;  
013EA:  CLRF   xF3
013EC:  MOVLB  6
....................       //Alarma_on; 
....................    } 
.................... } 
....................  
.................... // Funcion para conversor analogo-digital 
013EE:  BCF    FF2.1
013F0:  MOVLB  0
013F2:  GOTO   0064
.................... unsigned int16 sensores(int x){ 
.................... unsigned int16 y;set_adc_channel(x);delay_ms(1);y=read_adc();return (y); 
*
01AFA:  MOVLB  6
01AFC:  RLCF   x53,W
01AFE:  MOVWF  00
01B00:  RLCF   00,F
01B02:  MOVLW  FC
01B04:  ANDWF  00,F
01B06:  MOVFF  00,01
01B0A:  MOVF   FC2,W
01B0C:  ANDLW  C3
01B0E:  IORWF  00,W
01B10:  MOVWF  FC2
01B12:  MOVLW  01
01B14:  MOVWF  x56
01B16:  MOVLB  0
01B18:  RCALL  1576
01B1A:  BSF    FC2.1
01B1C:  BTFSC  FC2.1
01B1E:  BRA    1B1C
01B20:  MOVFF  FC4,655
01B24:  MOVLB  6
01B26:  MOVFF  FC3,654
01B2A:  MOVFF  654,01
01B2E:  MOVFF  655,02
.................... } 
01B32:  MOVLB  0
01B34:  RETLW  00
....................  
.................... void mensajes(int8 x,y){// Funcion para imprimir mensajes de Menu Principal. 
....................   if(x==1) 
....................    {glcd_text57(7, y, tiempo_est, 1, ON);} 
.................... } 
....................   
.................... void displayContrasena(int digito, int x, int y, int sombreado) 
.................... { 
....................    char voltage[9]; 
....................    sprintf(voltage, "%i", digito); 
*
02912:  MOVLW  06
02914:  MOVLB  6
02916:  MOVWF  x4D
02918:  MOVLW  54
0291A:  MOVWF  x4C
0291C:  MOVFF  650,65D
02920:  MOVLW  1F
02922:  MOVWF  x5E
02924:  MOVLB  0
02926:  RCALL  23C0
....................     
....................    if(sombreado==1) 
02928:  MOVLB  6
0292A:  DECFSZ x53,W
0292C:  BRA    297C
....................       {glcd_rect(x, y, x+18, y+24, YES, ON);glcd_text57(x+2, y+1, voltage, 2, OFF);} 
0292E:  MOVLW  12
02930:  ADDWF  x51,W
02932:  MOVWF  x5D
02934:  MOVLW  18
02936:  ADDWF  x52,W
02938:  MOVWF  x5E
0293A:  MOVFF  651,665
0293E:  MOVFF  652,666
02942:  MOVFF  65D,667
02946:  MOVWF  x68
02948:  MOVLW  01
0294A:  MOVWF  x69
0294C:  MOVWF  x6A
0294E:  MOVLB  0
02950:  RCALL  2698
02952:  MOVLW  02
02954:  MOVLB  6
02956:  ADDWF  x51,W
02958:  MOVWF  x5D
0295A:  MOVLW  01
0295C:  ADDWF  x52,W
0295E:  MOVWF  x5E
02960:  MOVFF  65D,665
02964:  MOVWF  x66
02966:  MOVLW  06
02968:  MOVWF  x68
0296A:  MOVLW  54
0296C:  MOVWF  x67
0296E:  MOVLW  02
02970:  MOVWF  x69
02972:  CLRF   x6A
02974:  MOVLB  0
02976:  RCALL  275A
....................    else    
02978:  BRA    29C6
0297A:  MOVLB  6
....................       {glcd_rect(x, y, x+18, y+24, NO, OFF);glcd_text57(x+2, y+1, voltage, 2, ON);} 
0297C:  MOVLW  12
0297E:  ADDWF  x51,W
02980:  MOVWF  x5D
02982:  MOVLW  18
02984:  ADDWF  x52,W
02986:  MOVWF  x5E
02988:  MOVFF  651,665
0298C:  MOVFF  652,666
02990:  MOVFF  65D,667
02994:  MOVWF  x68
02996:  CLRF   x69
02998:  CLRF   x6A
0299A:  MOVLB  0
0299C:  RCALL  2698
0299E:  MOVLW  02
029A0:  MOVLB  6
029A2:  ADDWF  x51,W
029A4:  MOVWF  x5D
029A6:  MOVLW  01
029A8:  ADDWF  x52,W
029AA:  MOVWF  x5E
029AC:  MOVFF  65D,665
029B0:  MOVWF  x66
029B2:  MOVLW  06
029B4:  MOVWF  x68
029B6:  MOVLW  54
029B8:  MOVWF  x67
029BA:  MOVLW  02
029BC:  MOVWF  x69
029BE:  MOVLW  01
029C0:  MOVWF  x6A
029C2:  MOVLB  0
029C4:  RCALL  275A
....................  
.................... } 
029C6:  RETLW  00
....................  
.................... void displayTiempo(int digito, int x, int y, int sombreado, int tamano) 
.................... { 
....................    char voltage[9]; 
....................    sprintf(voltage, "%i", digito); 
*
02A94:  MOVLW  06
02A96:  MOVLB  6
02A98:  MOVWF  x4D
02A9A:  MOVLW  53
02A9C:  MOVWF  x4C
02A9E:  MOVFF  64E,65D
02AA2:  MOVLW  1F
02AA4:  MOVWF  x5E
02AA6:  MOVLB  0
02AA8:  RCALL  23C0
....................     
....................    if(sombreado==1) 
02AAA:  MOVLB  6
02AAC:  DECFSZ x51,W
02AAE:  BRA    2B04
....................       {glcd_rect(x, y, x+(tamano*6), y+(tamano*8), YES, ON);glcd_text57(x+2, y+1, voltage, tamano, OFF);} 
02AB0:  MOVF   x52,W
02AB2:  MULLW  06
02AB4:  MOVF   FF3,W
02AB6:  ADDWF  x4F,W
02AB8:  MOVWF  x5C
02ABA:  MOVF   x52,W
02ABC:  MULLW  08
02ABE:  MOVF   FF3,W
02AC0:  ADDWF  x50,W
02AC2:  MOVWF  x5D
02AC4:  MOVFF  64F,665
02AC8:  MOVFF  650,666
02ACC:  MOVFF  65C,667
02AD0:  MOVWF  x68
02AD2:  MOVLW  01
02AD4:  MOVWF  x69
02AD6:  MOVWF  x6A
02AD8:  MOVLB  0
02ADA:  RCALL  2698
02ADC:  MOVLW  02
02ADE:  MOVLB  6
02AE0:  ADDWF  x4F,W
02AE2:  MOVWF  x5C
02AE4:  MOVLW  01
02AE6:  ADDWF  x50,W
02AE8:  MOVWF  x5D
02AEA:  MOVFF  65C,665
02AEE:  MOVWF  x66
02AF0:  MOVLW  06
02AF2:  MOVWF  x68
02AF4:  MOVLW  53
02AF6:  MOVWF  x67
02AF8:  MOVFF  652,669
02AFC:  CLRF   x6A
02AFE:  MOVLB  0
02B00:  RCALL  275A
02B02:  MOVLB  6
....................    if(sombreado==0) 
02B04:  MOVF   x51,F
02B06:  BNZ   2B5E
....................       {glcd_rect(x, y, x+(tamano*6), y+(tamano*8), YES, OFF);glcd_text57(x+2, y+1, voltage, tamano, ON);} 
02B08:  MOVF   x52,W
02B0A:  MULLW  06
02B0C:  MOVF   FF3,W
02B0E:  ADDWF  x4F,W
02B10:  MOVWF  x5C
02B12:  MOVF   x52,W
02B14:  MULLW  08
02B16:  MOVF   FF3,W
02B18:  ADDWF  x50,W
02B1A:  MOVWF  x5D
02B1C:  MOVFF  64F,665
02B20:  MOVFF  650,666
02B24:  MOVFF  65C,667
02B28:  MOVWF  x68
02B2A:  MOVLW  01
02B2C:  MOVWF  x69
02B2E:  CLRF   x6A
02B30:  MOVLB  0
02B32:  RCALL  2698
02B34:  MOVLW  02
02B36:  MOVLB  6
02B38:  ADDWF  x4F,W
02B3A:  MOVWF  x5C
02B3C:  MOVLW  01
02B3E:  ADDWF  x50,W
02B40:  MOVWF  x5D
02B42:  MOVFF  65C,665
02B46:  MOVWF  x66
02B48:  MOVLW  06
02B4A:  MOVWF  x68
02B4C:  MOVLW  53
02B4E:  MOVWF  x67
02B50:  MOVFF  652,669
02B54:  MOVLW  01
02B56:  MOVWF  x6A
02B58:  MOVLB  0
02B5A:  RCALL  275A
02B5C:  MOVLB  6
....................  
.................... } 
02B5E:  MOVLB  0
02B60:  RETLW  00
....................  
.................... void displayMenu(char palabra[100], int x, int y, int sombreado, int tamano) 
.................... { 
....................    strcpy(Menus.Letra,palabra); 
*
029C8:  MOVLB  6
029CA:  MOVFF  64E,01
029CE:  MOVFF  64F,03
029D2:  MOVFF  64E,654
029D6:  MOVFF  64F,655
029DA:  MOVLW  06
029DC:  MOVWF  FEA
029DE:  MOVLW  38
029E0:  MOVWF  FE9
029E2:  MOVFF  64F,FE2
029E6:  MOVFF  64E,FE1
029EA:  MOVF   FE7,F
029EC:  MOVFF  FE6,FEE
029F0:  BNZ   29EA
....................    if(sombreado==1) 
029F2:  DECFSZ x52,W
029F4:  BRA    2A40
....................       {glcd_rect(0, y, 127, y+(tamano*8), YES, ON);glcd_text57(x+1, y+1, Menus.Letra, tamano, OFF);} 
029F6:  MOVF   x53,W
029F8:  MULLW  08
029FA:  MOVF   FF3,W
029FC:  ADDWF  x51,W
029FE:  MOVWF  x54
02A00:  CLRF   x65
02A02:  MOVFF  651,666
02A06:  MOVLW  7F
02A08:  MOVWF  x67
02A0A:  MOVFF  654,668
02A0E:  MOVLW  01
02A10:  MOVWF  x69
02A12:  MOVWF  x6A
02A14:  MOVLB  0
02A16:  RCALL  2698
02A18:  MOVLW  01
02A1A:  MOVLB  6
02A1C:  ADDWF  x50,W
02A1E:  MOVWF  x54
02A20:  MOVLW  01
02A22:  ADDWF  x51,W
02A24:  MOVWF  x55
02A26:  MOVFF  654,665
02A2A:  MOVWF  x66
02A2C:  MOVLW  06
02A2E:  MOVWF  x68
02A30:  MOVLW  38
02A32:  MOVWF  x67
02A34:  MOVFF  653,669
02A38:  CLRF   x6A
02A3A:  MOVLB  0
02A3C:  RCALL  275A
02A3E:  MOVLB  6
....................    if(sombreado==0) 
02A40:  MOVF   x52,F
02A42:  BNZ   2A90
....................       {glcd_rect(0, y, 127, y+(tamano*8), YES, OFF);glcd_text57(x+1, y+1, Menus.Letra, tamano, ON);} 
02A44:  MOVF   x53,W
02A46:  MULLW  08
02A48:  MOVF   FF3,W
02A4A:  ADDWF  x51,W
02A4C:  MOVWF  x54
02A4E:  CLRF   x65
02A50:  MOVFF  651,666
02A54:  MOVLW  7F
02A56:  MOVWF  x67
02A58:  MOVFF  654,668
02A5C:  MOVLW  01
02A5E:  MOVWF  x69
02A60:  CLRF   x6A
02A62:  MOVLB  0
02A64:  RCALL  2698
02A66:  MOVLW  01
02A68:  MOVLB  6
02A6A:  ADDWF  x50,W
02A6C:  MOVWF  x54
02A6E:  MOVLW  01
02A70:  ADDWF  x51,W
02A72:  MOVWF  x55
02A74:  MOVFF  654,665
02A78:  MOVWF  x66
02A7A:  MOVLW  06
02A7C:  MOVWF  x68
02A7E:  MOVLW  38
02A80:  MOVWF  x67
02A82:  MOVFF  653,669
02A86:  MOVLW  01
02A88:  MOVWF  x6A
02A8A:  MOVLB  0
02A8C:  RCALL  275A
02A8E:  MOVLB  6
....................  
.................... } 
02A90:  MOVLB  0
02A92:  RETLW  00
....................  
.................... void displayfloat(float adc,int x,int y,int sombreado, int tamano) { 
....................    char voltage[9];     
....................       sprintf(voltage, "%1.2f",adc); // Converts adc to text 
*
03048:  MOVLW  06
0304A:  MOVLB  6
0304C:  MOVWF  x4D
0304E:  MOVLW  5A
03050:  MOVWF  x4C
03052:  MOVLW  89
03054:  MOVWF  FE9
03056:  MOVFF  655,666
0305A:  MOVFF  654,665
0305E:  MOVFF  653,664
03062:  MOVFF  652,663
03066:  MOVLW  02
03068:  MOVWF  x67
0306A:  MOVLB  0
0306C:  BRA    2E92
....................        
....................    if(sombreado==1) 
0306E:  MOVLB  6
03070:  DECFSZ x58,W
03072:  BRA    30CC
....................       {glcd_rect(x, y, x+(tamano*48), y+(tamano*8), YES, ON);glcd_text57(x+2, y+1, voltage, tamano, OFF);} 
03074:  MOVF   x59,W
03076:  MULLW  30
03078:  MOVF   FF3,W
0307A:  ADDWF  x56,W
0307C:  MOVWF  x63
0307E:  MOVF   x59,W
03080:  MULLW  08
03082:  MOVF   FF3,W
03084:  ADDWF  x57,W
03086:  MOVWF  x64
03088:  MOVFF  656,665
0308C:  MOVFF  657,666
03090:  MOVFF  663,667
03094:  MOVWF  x68
03096:  MOVLW  01
03098:  MOVWF  x69
0309A:  MOVWF  x6A
0309C:  MOVLB  0
0309E:  CALL   2698
030A2:  MOVLW  02
030A4:  MOVLB  6
030A6:  ADDWF  x56,W
030A8:  MOVWF  x63
030AA:  MOVLW  01
030AC:  ADDWF  x57,W
030AE:  MOVWF  x64
030B0:  MOVFF  663,665
030B4:  MOVWF  x66
030B6:  MOVLW  06
030B8:  MOVWF  x68
030BA:  MOVLW  5A
030BC:  MOVWF  x67
030BE:  MOVFF  659,669
030C2:  CLRF   x6A
030C4:  MOVLB  0
030C6:  CALL   275A
030CA:  MOVLB  6
....................    if(sombreado==0) 
030CC:  MOVF   x58,F
030CE:  BNZ   312A
....................       {glcd_rect(x, y, x+(tamano*48), y+(tamano*8), YES, OFF);glcd_text57(x+2, y+1, voltage, tamano, ON);} 
030D0:  MOVF   x59,W
030D2:  MULLW  30
030D4:  MOVF   FF3,W
030D6:  ADDWF  x56,W
030D8:  MOVWF  x63
030DA:  MOVF   x59,W
030DC:  MULLW  08
030DE:  MOVF   FF3,W
030E0:  ADDWF  x57,W
030E2:  MOVWF  x64
030E4:  MOVFF  656,665
030E8:  MOVFF  657,666
030EC:  MOVFF  663,667
030F0:  MOVWF  x68
030F2:  MOVLW  01
030F4:  MOVWF  x69
030F6:  CLRF   x6A
030F8:  MOVLB  0
030FA:  CALL   2698
030FE:  MOVLW  02
03100:  MOVLB  6
03102:  ADDWF  x56,W
03104:  MOVWF  x63
03106:  MOVLW  01
03108:  ADDWF  x57,W
0310A:  MOVWF  x64
0310C:  MOVFF  663,665
03110:  MOVWF  x66
03112:  MOVLW  06
03114:  MOVWF  x68
03116:  MOVLW  5A
03118:  MOVWF  x67
0311A:  MOVFF  659,669
0311E:  MOVLW  01
03120:  MOVWF  x6A
03122:  MOVLB  0
03124:  CALL   275A
03128:  MOVLB  6
....................        
.................... } 
0312A:  MOVLB  0
0312C:  RETLW  00
....................  
.................... Float LeerFlujoInFlow(int media) 
.................... { 
....................     InFlow_adc=sensores(0); 
*
01CA6:  MOVLB  6
01CA8:  CLRF   x53
01CAA:  MOVLB  0
01CAC:  RCALL  1AFA
01CAE:  MOVFF  02,4F5
01CB2:  MOVFF  01,4F4
....................        
....................     if(negativo==10) 
01CB6:  MOVLB  4
01CB8:  MOVF   xE4,W
01CBA:  SUBLW  0A
01CBC:  BNZ   1D00
....................     { 
....................       x_uno=Inflow_adc+Diferencia; 
01CBE:  MOVFF  4F5,654
01CC2:  MOVFF  4F4,653
01CC6:  MOVLB  0
01CC8:  RCALL  159E
01CCA:  BCF    FD8.1
01CCC:  MOVFF  03,65A
01CD0:  MOVFF  02,659
01CD4:  MOVFF  01,658
01CD8:  MOVFF  00,657
01CDC:  MOVFF  539,65E
01CE0:  MOVFF  538,65D
01CE4:  MOVFF  537,65C
01CE8:  MOVFF  536,65B
01CEC:  RCALL  1732
01CEE:  MOVFF  03,551
01CF2:  MOVFF  02,550
01CF6:  MOVFF  01,54F
01CFA:  MOVFF  00,54E
01CFE:  MOVLB  4
....................     } 
....................     if(negativo==20) 
01D00:  MOVF   xE4,W
01D02:  SUBLW  14
01D04:  BNZ   1D46
....................     { 
....................       x_uno=Inflow_adc-Diferencia; 
01D06:  MOVFF  4F5,654
01D0A:  MOVFF  4F4,653
01D0E:  MOVLB  0
01D10:  RCALL  159E
01D12:  BSF    FD8.1
01D14:  MOVFF  03,65A
01D18:  MOVFF  02,659
01D1C:  MOVFF  01,658
01D20:  MOVFF  00,657
01D24:  MOVFF  539,65E
01D28:  MOVFF  538,65D
01D2C:  MOVFF  537,65C
01D30:  MOVFF  536,65B
01D34:  RCALL  1732
01D36:  MOVFF  03,551
01D3A:  MOVFF  02,550
01D3E:  MOVFF  01,54F
01D42:  MOVFF  00,54E
....................     } 
....................     x_cuadrado=x_uno*x_uno; 
01D46:  MOVFF  551,673
01D4A:  MOVFF  550,672
01D4E:  MOVFF  54F,671
01D52:  MOVFF  54E,670
01D56:  MOVFF  551,677
01D5A:  MOVFF  550,676
01D5E:  MOVFF  54F,675
01D62:  MOVFF  54E,674
01D66:  MOVLB  0
01D68:  RCALL  1B36
01D6A:  MOVFF  03,555
01D6E:  MOVFF  02,554
01D72:  MOVFF  01,553
01D76:  MOVFF  00,552
....................     x_cubo=x_uno*x_cuadrado; 
01D7A:  MOVFF  551,673
01D7E:  MOVFF  550,672
01D82:  MOVFF  54F,671
01D86:  MOVFF  54E,670
01D8A:  MOVFF  555,677
01D8E:  MOVFF  554,676
01D92:  MOVFF  553,675
01D96:  MOVFF  552,674
01D9A:  RCALL  1B36
01D9C:  MOVFF  03,559
01DA0:  MOVFF  02,558
01DA4:  MOVFF  01,557
01DA8:  MOVFF  00,556
....................     Velocidad=(x_cubo*a)+(x_cuadrado*b)+(x_uno*c)+d;  
01DAC:  MOVFF  559,673
01DB0:  MOVFF  558,672
01DB4:  MOVFF  557,671
01DB8:  MOVFF  556,670
01DBC:  MOVFF  571,677
01DC0:  MOVFF  570,676
01DC4:  MOVFF  56F,675
01DC8:  MOVFF  56E,674
01DCC:  RCALL  1B36
01DCE:  MOVFF  00,64F
01DD2:  MOVFF  01,650
01DD6:  MOVFF  02,651
01DDA:  MOVFF  03,652
01DDE:  MOVFF  555,673
01DE2:  MOVFF  554,672
01DE6:  MOVFF  553,671
01DEA:  MOVFF  552,670
01DEE:  MOVFF  575,677
01DF2:  MOVFF  574,676
01DF6:  MOVFF  573,675
01DFA:  MOVFF  572,674
01DFE:  RCALL  1B36
01E00:  BCF    FD8.1
01E02:  MOVFF  652,65A
01E06:  MOVFF  651,659
01E0A:  MOVFF  650,658
01E0E:  MOVFF  64F,657
01E12:  MOVFF  03,65E
01E16:  MOVFF  02,65D
01E1A:  MOVFF  01,65C
01E1E:  MOVFF  00,65B
01E22:  RCALL  1732
01E24:  MOVFF  00,64F
01E28:  MOVFF  01,650
01E2C:  MOVFF  02,651
01E30:  MOVFF  03,652
01E34:  MOVFF  551,673
01E38:  MOVFF  550,672
01E3C:  MOVFF  54F,671
01E40:  MOVFF  54E,670
01E44:  MOVFF  579,677
01E48:  MOVFF  578,676
01E4C:  MOVFF  577,675
01E50:  MOVFF  576,674
01E54:  RCALL  1B36
01E56:  BCF    FD8.1
01E58:  MOVFF  652,65A
01E5C:  MOVFF  651,659
01E60:  MOVFF  650,658
01E64:  MOVFF  64F,657
01E68:  MOVFF  03,65E
01E6C:  MOVFF  02,65D
01E70:  MOVFF  01,65C
01E74:  MOVFF  00,65B
01E78:  RCALL  1732
01E7A:  MOVFF  00,64F
01E7E:  MOVFF  01,650
01E82:  MOVFF  02,651
01E86:  MOVFF  03,652
01E8A:  BCF    FD8.1
01E8C:  MOVFF  03,65A
01E90:  MOVFF  02,659
01E94:  MOVFF  01,658
01E98:  MOVFF  00,657
01E9C:  MOVFF  57D,65E
01EA0:  MOVFF  57C,65D
01EA4:  MOVFF  57B,65C
01EA8:  MOVFF  57A,65B
01EAC:  RCALL  1732
01EAE:  MOVFF  03,54D
01EB2:  MOVFF  02,54C
01EB6:  MOVFF  01,54B
01EBA:  MOVFF  00,54A
....................     //Velocidad=Velocidad*correccion;//Ajuste de Temperatura 
....................     Velocidad=Velocidad-0.08; 
01EBE:  BSF    FD8.1
01EC0:  MOVFF  54D,65A
01EC4:  MOVFF  54C,659
01EC8:  MOVFF  54B,658
01ECC:  MOVFF  54A,657
01ED0:  MOVLW  0A
01ED2:  MOVLB  6
01ED4:  MOVWF  x5E
01ED6:  MOVLW  D7
01ED8:  MOVWF  x5D
01EDA:  MOVLW  23
01EDC:  MOVWF  x5C
01EDE:  MOVLW  7B
01EE0:  MOVWF  x5B
01EE2:  MOVLB  0
01EE4:  RCALL  1732
01EE6:  MOVFF  03,54D
01EEA:  MOVFF  02,54C
01EEE:  MOVFF  01,54B
01EF2:  MOVFF  00,54A
....................     if(Velocidad<0.0) 
01EF6:  MOVFF  54D,656
01EFA:  MOVFF  54C,655
01EFE:  MOVFF  54B,654
01F02:  MOVFF  54A,653
01F06:  MOVLB  6
01F08:  CLRF   x5A
01F0A:  CLRF   x59
01F0C:  CLRF   x58
01F0E:  CLRF   x57
01F10:  MOVLB  0
01F12:  RCALL  1C2C
01F14:  BNC   1F20
....................      {Velocidad=0.0;} 
01F16:  MOVLB  5
01F18:  CLRF   x4D
01F1A:  CLRF   x4C
01F1C:  CLRF   x4B
01F1E:  CLRF   x4A
....................       
....................      if(l>=media) 
01F20:  MOVLB  6
01F22:  MOVF   x4E,W
01F24:  MOVLB  4
01F26:  SUBWF  xEA,W
01F28:  BNC   1F2C
....................        {l=0;} 
01F2A:  CLRF   xEA
....................       
....................      promedio[l]=Velocidad;l++; 
01F2C:  MOVF   xEA,W
01F2E:  MULLW  04
01F30:  MOVF   FF3,W
01F32:  CLRF   03
01F34:  ADDLW  7E
01F36:  MOVWF  FE9
01F38:  MOVLW  05
01F3A:  ADDWFC 03,W
01F3C:  MOVWF  FEA
01F3E:  MOVFF  54A,FEF
01F42:  MOVFF  54B,FEC
01F46:  MOVFF  54C,FEC
01F4A:  MOVFF  54D,FEC
01F4E:  INCF   xEA,F
....................      Flujo=0; 
01F50:  MOVLB  5
01F52:  CLRF   xC1
01F54:  CLRF   xC0
01F56:  CLRF   xBF
01F58:  CLRF   xBE
....................         for(h=0;h<=(media-1);h++) 
01F5A:  MOVLB  4
01F5C:  CLRF   xEB
01F5E:  MOVLW  01
01F60:  MOVLB  6
01F62:  SUBWF  x4E,W
01F64:  MOVLB  4
01F66:  SUBWF  xEB,W
01F68:  BZ    1F6C
01F6A:  BC    1FDC
....................         { 
....................            Flujo+=promedio[h]; 
01F6C:  MOVF   xEB,W
01F6E:  MULLW  04
01F70:  MOVF   FF3,W
01F72:  CLRF   03
01F74:  ADDLW  7E
01F76:  MOVWF  FE9
01F78:  MOVLW  05
01F7A:  ADDWFC 03,W
01F7C:  MOVWF  FEA
01F7E:  MOVFF  FEF,00
01F82:  MOVFF  FEC,01
01F86:  MOVFF  FEC,02
01F8A:  MOVFF  FEC,03
01F8E:  MOVFF  FEA,650
01F92:  MOVFF  FE9,64F
01F96:  BCF    FD8.1
01F98:  MOVFF  5C1,65A
01F9C:  MOVFF  5C0,659
01FA0:  MOVFF  5BF,658
01FA4:  MOVFF  5BE,657
01FA8:  MOVFF  03,65E
01FAC:  MOVFF  02,65D
01FB0:  MOVFF  01,65C
01FB4:  MOVFF  00,65B
01FB8:  MOVLB  0
01FBA:  CALL   1732
01FBE:  MOVFF  650,FEA
01FC2:  MOVFF  64F,FE9
01FC6:  MOVFF  03,5C1
01FCA:  MOVFF  02,5C0
01FCE:  MOVFF  01,5BF
01FD2:  MOVFF  00,5BE
....................         }  
01FD6:  MOVLB  4
01FD8:  INCF   xEB,F
01FDA:  BRA    1F5E
....................            Flujo=(Flujo/media)*Ajuste1;  
01FDC:  MOVLB  6
01FDE:  CLRF   x54
01FE0:  MOVFF  64E,653
01FE4:  MOVLB  0
01FE6:  CALL   159E
01FEA:  MOVFF  5C1,656
01FEE:  MOVFF  5C0,655
01FF2:  MOVFF  5BF,654
01FF6:  MOVFF  5BE,653
01FFA:  MOVFF  03,65A
01FFE:  MOVFF  02,659
02002:  MOVFF  01,658
02006:  MOVFF  00,657
0200A:  CALL   15D4
0200E:  MOVFF  00,64F
02012:  MOVFF  01,650
02016:  MOVFF  02,651
0201A:  MOVFF  03,652
0201E:  MOVFF  03,673
02022:  MOVFF  02,672
02026:  MOVFF  01,671
0202A:  MOVFF  00,670
0202E:  MOVFF  55D,677
02032:  MOVFF  55C,676
02036:  MOVFF  55B,675
0203A:  MOVFF  55A,674
0203E:  RCALL  1B36
02040:  MOVFF  03,5C1
02044:  MOVFF  02,5C0
02048:  MOVFF  01,5BF
0204C:  MOVFF  00,5BE
....................            return Flujo; 
02050:  MOVFF  5BE,00
02054:  MOVFF  5BF,01
02058:  MOVFF  5C0,02
0205C:  MOVFF  5C1,03
.................... } 
02060:  GOTO   4302 (RETURN)
....................  
.................... float Leer_Sensor_Presion(int media){ 
02064:  MOVLB  6
02066:  CLRF   x52
02068:  CLRF   x51
0206A:  CLRF   x50
0206C:  CLRF   x4F
....................    float promediopresion=0.0; 
....................     
....................    Filtro_Downflow_adc=sensores(2); 
0206E:  MOVLW  02
02070:  MOVWF  x53
02072:  MOVLB  0
02074:  RCALL  1AFA
02076:  MOVFF  02,4F7
0207A:  MOVFF  01,4F6
....................    V1=Filtro_Downflow_adc;  
0207E:  MOVFF  4F7,654
02082:  MOVFF  4F6,653
02086:  CALL   159E
0208A:  MOVFF  03,5CD
0208E:  MOVFF  02,5CC
02092:  MOVFF  01,5CB
02096:  MOVFF  00,5CA
....................    //V1 = (x_uno*5.0)/1023.0;   //Lectura de Divisor de Voltaje de PT100 con resistencia de 1k (+-10%) 
....................    Presion=(V1/G)-1.0;// Presion=(Voltaje/Ganancia)-1 
0209A:  MOVFF  5CD,656
0209E:  MOVFF  5CC,655
020A2:  MOVFF  5CB,654
020A6:  MOVFF  5CA,653
020AA:  MOVFF  5D5,65A
020AE:  MOVFF  5D4,659
020B2:  MOVFF  5D3,658
020B6:  MOVFF  5D2,657
020BA:  CALL   15D4
020BE:  MOVFF  00,653
020C2:  MOVFF  01,654
020C6:  MOVFF  02,655
020CA:  MOVFF  03,656
020CE:  BSF    FD8.1
020D0:  MOVFF  03,65A
020D4:  MOVFF  02,659
020D8:  MOVFF  01,658
020DC:  MOVFF  00,657
020E0:  MOVLB  6
020E2:  CLRF   x5E
020E4:  CLRF   x5D
020E6:  CLRF   x5C
020E8:  MOVLW  7F
020EA:  MOVWF  x5B
020EC:  MOVLB  0
020EE:  CALL   1732
020F2:  MOVFF  03,5D1
020F6:  MOVFF  02,5D0
020FA:  MOVFF  01,5CF
020FE:  MOVFF  00,5CE
....................     
....................    if(Presion<0.0) 
02102:  MOVFF  5D1,656
02106:  MOVFF  5D0,655
0210A:  MOVFF  5CF,654
0210E:  MOVFF  5CE,653
02112:  MOVLB  6
02114:  CLRF   x5A
02116:  CLRF   x59
02118:  CLRF   x58
0211A:  CLRF   x57
0211C:  MOVLB  0
0211E:  RCALL  1C2C
02120:  BNC   212C
....................    { 
....................       Presion=0.0; 
02122:  MOVLB  5
02124:  CLRF   xD1
02126:  CLRF   xD0
02128:  CLRF   xCF
0212A:  CLRF   xCE
....................    } 
....................  
....................    if(r>media-1) 
0212C:  MOVLW  01
0212E:  MOVLB  6
02130:  SUBWF  x4E,W
02132:  MOVLB  4
02134:  SUBWF  xE9,W
02136:  BZ    213C
02138:  BNC   213C
....................    {r=0;} 
0213A:  CLRF   xE9
....................    PromPresion[r]=Presion*4.02;r++; 
0213C:  MOVF   xE9,W
0213E:  MULLW  04
02140:  MOVF   FF3,W
02142:  CLRF   03
02144:  ADDLW  9E
02146:  MOVWF  FE9
02148:  MOVLW  05
0214A:  ADDWFC 03,W
0214C:  MOVWF  FEA
0214E:  MOVFF  5D1,673
02152:  MOVFF  5D0,672
02156:  MOVFF  5CF,671
0215A:  MOVFF  5CE,670
0215E:  MOVLW  D7
02160:  MOVLB  6
02162:  MOVWF  x77
02164:  MOVLW  A3
02166:  MOVWF  x76
02168:  CLRF   x75
0216A:  MOVLW  81
0216C:  MOVWF  x74
0216E:  MOVLB  0
02170:  RCALL  1B36
02172:  MOVFF  00,FEF
02176:  MOVFF  01,FEC
0217A:  MOVFF  02,FEC
0217E:  MOVFF  03,FEC
02182:  MOVLB  4
02184:  INCF   xE9,F
....................           
....................    for(q=0;q<=(media-1);q++) 
02186:  CLRF   xE8
02188:  MOVLW  01
0218A:  MOVLB  6
0218C:  SUBWF  x4E,W
0218E:  MOVLB  4
02190:  SUBWF  xE8,W
02192:  BZ    2196
02194:  BC    2206
....................    { 
....................       promediopresion+=PromPresion[q]; 
02196:  MOVF   xE8,W
02198:  MULLW  04
0219A:  MOVF   FF3,W
0219C:  CLRF   03
0219E:  ADDLW  9E
021A0:  MOVWF  FE9
021A2:  MOVLW  05
021A4:  ADDWFC 03,W
021A6:  MOVWF  FEA
021A8:  MOVFF  FEF,00
021AC:  MOVFF  FEC,01
021B0:  MOVFF  FEC,02
021B4:  MOVFF  FEC,03
021B8:  MOVFF  FEA,654
021BC:  MOVFF  FE9,653
021C0:  BCF    FD8.1
021C2:  MOVFF  652,65A
021C6:  MOVFF  651,659
021CA:  MOVFF  650,658
021CE:  MOVFF  64F,657
021D2:  MOVFF  03,65E
021D6:  MOVFF  02,65D
021DA:  MOVFF  01,65C
021DE:  MOVFF  00,65B
021E2:  MOVLB  0
021E4:  CALL   1732
021E8:  MOVFF  654,FEA
021EC:  MOVFF  653,FE9
021F0:  MOVFF  03,652
021F4:  MOVFF  02,651
021F8:  MOVFF  01,650
021FC:  MOVFF  00,64F
....................    }  
02200:  MOVLB  4
02202:  INCF   xE8,F
02204:  BRA    2188
....................    promediopresion=promediopresion/media;    
02206:  MOVLB  6
02208:  CLRF   x54
0220A:  MOVFF  64E,653
0220E:  MOVLB  0
02210:  CALL   159E
02214:  MOVFF  652,656
02218:  MOVFF  651,655
0221C:  MOVFF  650,654
02220:  MOVFF  64F,653
02224:  MOVFF  03,65A
02228:  MOVFF  02,659
0222C:  MOVFF  01,658
02230:  MOVFF  00,657
02234:  CALL   15D4
02238:  MOVFF  03,652
0223C:  MOVFF  02,651
02240:  MOVFF  01,650
02244:  MOVFF  00,64F
....................     
....................    return promediopresion; 
02248:  MOVFF  64F,00
0224C:  MOVFF  650,01
02250:  MOVFF  651,02
02254:  MOVFF  652,03
.................... } 
02258:  GOTO   431E (RETURN)
....................  
.................... #int_TIMER0 
.................... void temp1s(void){ 
....................    set_timer0(61); 
*
013F6:  CLRF   FD7
013F8:  MOVLW  3D
013FA:  MOVWF  FD6
....................    tiempos++; 
013FC:  MOVLB  4
013FE:  INCF   x17,F
01400:  BTFSC  FD8.2
01402:  INCF   x18,F
....................     
....................    if(flag_latencia==1) 
01404:  BTFSS  x21.3
01406:  BRA    140E
....................    { 
....................       t_latencia++;          
01408:  INCF   xFA,F
0140A:  BTFSC  FD8.2
0140C:  INCF   xFB,F
....................    } 
....................     
....................    if(t_latencia>=3000) 
0140E:  MOVF   xFB,W
01410:  SUBLW  0A
01412:  BC    1420
01414:  XORLW  FF
01416:  BNZ   141E
01418:  MOVF   xFA,W
0141A:  SUBLW  B7
0141C:  BC    1420
....................    {Latencia=1;} 
0141E:  BSF    x21.2
....................                  
....................    if(tiempos>=200) 
01420:  MOVF   x18,F
01422:  BNZ   142C
01424:  MOVF   x17,W
01426:  SUBLW  C7
01428:  BTFSC  FD8.0
0142A:  BRA    156E
....................    { 
....................       tiempos=0;imprimir=1;inicie++;Lectura=1;tiemporeset++; 
0142C:  CLRF   x18
0142E:  CLRF   x17
01430:  BSF    x1F.7
01432:  INCF   xE3,F
01434:  BSF    x21.6
01436:  INCF   xE7,F
....................        
....................       if(Alarma==5) 
01438:  MOVF   xF0,W
0143A:  SUBLW  05
0143C:  BNZ   1450
....................       { 
....................          if(flag_alarma2==0) 
0143E:  BTFSC  x22.0
01440:  BRA    144A
....................          { 
....................             Alarma_on; 
01442:  BSF    F8B.3
01444:  BCF    F94.3
....................             flag_alarma2=1; 
01446:  BSF    x22.0
....................          } 
....................          else 
01448:  BRA    1450
....................          { 
....................             Alarma_off; 
0144A:  BCF    F8B.3
0144C:  BCF    F94.3
....................             flag_alarma2=0; 
0144E:  BCF    x22.0
....................          } 
....................       } 
....................     
....................    if(tiempo_postpurga) 
01450:  BTFSS  x21.1
01452:  BRA    1490
....................    { 
....................       Tppurga[0]++; 
01454:  MOVLB  5
01456:  INCF   x0A,F
....................       if(Tppurga[0]>9) 
01458:  BTFSC  x0A.7
0145A:  BRA    1466
0145C:  MOVF   x0A,W
0145E:  SUBLW  09
01460:  BC    1466
....................       { 
....................          Tppurga[0]=0; 
01462:  CLRF   x0A
....................          Tppurga[1]++; 
01464:  INCF   x0B,F
....................       } 
....................       if(Tppurga[1]>5) 
01466:  BTFSC  x0B.7
01468:  BRA    1474
0146A:  MOVF   x0B,W
0146C:  SUBLW  05
0146E:  BC    1474
....................       {   
....................          Tppurga[1]=0; 
01470:  CLRF   x0B
....................          Tppurga[2]++; 
01472:  INCF   x0C,F
....................       } 
....................       if(Tppurga[2]>9) 
01474:  BTFSC  x0C.7
01476:  BRA    1482
01478:  MOVF   x0C,W
0147A:  SUBLW  09
0147C:  BC    1482
....................       { 
....................          Tppurga[2]=0; 
0147E:  CLRF   x0C
....................          Tppurga[3]++; 
01480:  INCF   x0D,F
....................       } 
....................       if(Tppurga[3]>5) 
01482:  BTFSC  x0D.7
01484:  BRA    148E
01486:  MOVF   x0D,W
01488:  SUBLW  05
0148A:  BC    148E
....................       { 
....................          Tppurga[3]=0; 
0148C:  CLRF   x0D
0148E:  MOVLB  4
....................       } 
....................    } 
....................     
....................    if(tiempo_uv==1) 
01490:  BTFSS  x20.7
01492:  BRA    1524
....................    { 
....................       minutos_uv++; 
01494:  INCF   xFC,F
01496:  BTFSC  FD8.2
01498:  INCF   xFD,F
....................       if(minutos_uv>=3600) 
0149A:  MOVF   xFD,W
0149C:  SUBLW  0D
0149E:  BC    14E8
014A0:  XORLW  FF
014A2:  BNZ   14AA
014A4:  MOVF   xFC,W
014A6:  SUBLW  0F
014A8:  BC    14E8
....................       //if(minutos_uv>=1) 
....................       {  minutos_uv=0; 
014AA:  CLRF   xFD
014AC:  CLRF   xFC
....................          Tuv[0]++; 
014AE:  MOVLB  5
014B0:  INCF   x12,F
....................          if(Tuv[0]>9) 
014B2:  BTFSC  x12.7
014B4:  BRA    14C0
014B6:  MOVF   x12,W
014B8:  SUBLW  09
014BA:  BC    14C0
....................          { 
....................             Tuv[0]=0; 
014BC:  CLRF   x12
....................             Tuv[1]++; 
014BE:  INCF   x13,F
....................          } 
....................          if(Tuv[1]>9) 
014C0:  BTFSC  x13.7
014C2:  BRA    14CE
014C4:  MOVF   x13,W
014C6:  SUBLW  09
014C8:  BC    14CE
....................          { 
....................             Tuv[1]=0; 
014CA:  CLRF   x13
....................             Tuv[2]++; 
014CC:  INCF   x14,F
....................          } 
....................          if(Tuv[2]>9) 
014CE:  BTFSC  x14.7
014D0:  BRA    14DC
014D2:  MOVF   x14,W
014D4:  SUBLW  09
014D6:  BC    14DC
....................          { 
....................             Tuv[2]=0; 
014D8:  CLRF   x14
....................             Tuv[3]++; 
014DA:  INCF   x15,F
....................          } 
....................          if(Tuv[3]>9) 
014DC:  BTFSC  x15.7
014DE:  BRA    14E8
014E0:  MOVF   x15,W
014E2:  SUBLW  09
014E4:  BC    14E8
....................          { 
....................             Tuv[3]=0; 
014E6:  CLRF   x15
....................          } 
....................       }       
....................        
....................          Tempouv[0]++; 
014E8:  MOVLB  5
014EA:  INCF   x16,F
....................          if(Tempouv[0]>9) 
014EC:  BTFSC  x16.7
014EE:  BRA    14FA
014F0:  MOVF   x16,W
014F2:  SUBLW  09
014F4:  BC    14FA
....................          { 
....................             Tempouv[0]=0; 
014F6:  CLRF   x16
....................             Tempouv[1]++; 
014F8:  INCF   x17,F
....................          } 
....................          if(Tempouv[1]>5) 
014FA:  BTFSC  x17.7
014FC:  BRA    1508
014FE:  MOVF   x17,W
01500:  SUBLW  05
01502:  BC    1508
....................          { 
....................             Tempouv[1]=0; 
01504:  CLRF   x17
....................             Tempouv[2]++; 
01506:  INCF   x18,F
....................          } 
....................          if(Tempouv[2]>9) 
01508:  BTFSC  x18.7
0150A:  BRA    1516
0150C:  MOVF   x18,W
0150E:  SUBLW  09
01510:  BC    1516
....................          { 
....................             Tempouv[2]=0; 
01512:  CLRF   x18
....................             Tempouv[3]++; 
01514:  INCF   x19,F
....................          } 
....................          if(Tempouv[3]>5) 
01516:  BTFSC  x19.7
01518:  BRA    1522
0151A:  MOVF   x19,W
0151C:  SUBLW  05
0151E:  BC    1522
....................          { 
....................             Tempouv[3]=0; 
01520:  CLRF   x19
01522:  MOVLB  4
....................          } 
....................                
....................    } 
....................     
....................    if(flag_blower==1) 
01524:  BTFSS  x20.1
01526:  BRA    152E
....................    { 
....................       minutos_trabajo++;  
01528:  INCF   xFE,F
0152A:  BTFSC  FD8.2
0152C:  INCF   xFF,F
....................    } 
....................    
....................    if(tiempo_purga==1) 
0152E:  BTFSS  x20.6
01530:  BRA    156E
....................    {                   
....................       Tpurga[0]++; 
01532:  MOVLB  5
01534:  INCF   x02,F
....................       if(Tpurga[0]>9) 
01536:  BTFSC  x02.7
01538:  BRA    1544
0153A:  MOVF   x02,W
0153C:  SUBLW  09
0153E:  BC    1544
....................       { 
....................          Tpurga[0]=0; 
01540:  CLRF   x02
....................          Tpurga[1]++; 
01542:  INCF   x03,F
....................       } 
....................       if(Tpurga[1]>5) 
01544:  BTFSC  x03.7
01546:  BRA    1552
01548:  MOVF   x03,W
0154A:  SUBLW  05
0154C:  BC    1552
....................       { 
....................          Tpurga[1]=0; 
0154E:  CLRF   x03
....................          Tpurga[2]++; 
01550:  INCF   x04,F
....................       } 
....................       if(Tpurga[2]>9) 
01552:  BTFSC  x04.7
01554:  BRA    1560
01556:  MOVF   x04,W
01558:  SUBLW  09
0155A:  BC    1560
....................       { 
....................          Tpurga[2]=0; 
0155C:  CLRF   x04
....................          Tpurga[3]++; 
0155E:  INCF   x05,F
....................       } 
....................       if(Tpurga[3]>5) 
01560:  BTFSC  x05.7
01562:  BRA    156C
01564:  MOVF   x05,W
01566:  SUBLW  05
01568:  BC    156C
....................       { 
....................          Tpurga[3]=0; 
0156A:  CLRF   x05
0156C:  MOVLB  4
....................       } 
....................    }        
....................          
....................    } 
.................... } 
....................  
0156E:  BCF    FF2.2
01570:  MOVLB  0
01572:  GOTO   0064
.................... void SubirVidrio(){ 
.................... O1_on;O2_off; 
*
01A02:  BSF    F8B.1
01A04:  BCF    F94.1
01A06:  BCF    F8B.2
01A08:  BCF    F94.2
.................... } 
01A0A:  RETLW  00
....................  
.................... void BajarVidrio(){ 
.................... O1_off;O2_on; 
*
019F8:  BCF    F8B.1
019FA:  BCF    F94.1
019FC:  BSF    F8B.2
019FE:  BCF    F94.2
.................... } 
01A00:  RETLW  00
....................  
.................... void VidrioOff(){ 
.................... O1_off;O2_off; 
*
019EE:  BCF    F8B.1
019F0:  BCF    F94.1
019F2:  BCF    F8B.2
019F4:  BCF    F94.2
.................... } 
019F6:  RETLW  00
....................  
.................... void AjustarVidrioOK(){    
....................  
....................    if(!VIDRIOUP && VIDRIOOK && VIDRIODN) 
*
02B62:  BSF    F92.5
02B64:  BTFSC  F80.5
02B66:  BRA    2B82
02B68:  BSF    F92.3
02B6A:  BTFSS  F80.3
02B6C:  BRA    2B82
02B6E:  BSF    F92.4
02B70:  BTFSS  F80.4
02B72:  BRA    2B82
....................    { 
....................       BajarVidrio(); 
02B74:  CALL   19F8
....................       flagsubio=5; 
02B78:  MOVLW  05
02B7A:  MOVLB  4
02B7C:  MOVWF  x1E
....................    } 
....................    else 
02B7E:  BRA    2BE6
02B80:  MOVLB  0
....................    { 
....................       if(VIDRIOUP && VIDRIOOK && !VIDRIODN) 
02B82:  BSF    F92.5
02B84:  BTFSS  F80.5
02B86:  BRA    2BA2
02B88:  BSF    F92.3
02B8A:  BTFSS  F80.3
02B8C:  BRA    2BA2
02B8E:  BSF    F92.4
02B90:  BTFSC  F80.4
02B92:  BRA    2BA2
....................       { 
....................          SubirVidrio(); 
02B94:  CALL   1A02
....................          flagbajo=5; 
02B98:  MOVLW  05
02B9A:  MOVLB  4
02B9C:  MOVWF  x1D
....................       }       
....................       else 
02B9E:  BRA    2BE6
02BA0:  MOVLB  0
....................       { 
....................          if(VIDRIOUP && !VIDRIOOK && VIDRIODN) 
02BA2:  BSF    F92.5
02BA4:  BTFSS  F80.5
02BA6:  BRA    2BC6
02BA8:  BSF    F92.3
02BAA:  BTFSC  F80.3
02BAC:  BRA    2BC6
02BAE:  BSF    F92.4
02BB0:  BTFSS  F80.4
02BB2:  BRA    2BC6
....................          { 
....................             VidrioOff(); 
02BB4:  CALL   19EE
....................             AjustarOK=10;             
02BB8:  MOVLW  0A
02BBA:  MOVLB  4
02BBC:  MOVWF  x1A
....................             LuzBlanca_on; 
02BBE:  BSF    F8B.4
02BC0:  BCF    F94.4
....................          } 
....................          else 
02BC2:  BRA    2BE6
02BC4:  MOVLB  0
....................          { 
....................             if(flagbajo==10 || flagsubio==5) 
02BC6:  MOVLB  4
02BC8:  MOVF   x1D,W
02BCA:  SUBLW  0A
02BCC:  BZ    2BD4
02BCE:  MOVF   x1E,W
02BD0:  SUBLW  05
02BD2:  BNZ   2BDE
....................             { 
....................                BajarVidrio(); 
02BD4:  MOVLB  0
02BD6:  CALL   19F8
....................             } 
....................             else 
02BDA:  BRA    2BE4
02BDC:  MOVLB  4
....................             { 
....................                SubirVidrio(); 
02BDE:  MOVLB  0
02BE0:  CALL   1A02
02BE4:  MOVLB  4
....................             } 
....................          } 
....................       } 
....................    } 
.................... } 
02BE6:  MOVLB  0
02BE8:  GOTO   4C3C (RETURN)
....................  
.................... void AjustarVidrioUV(){    
....................  
....................    if(!VIDRIOUP && VIDRIOOK && VIDRIODN) 
02BEC:  BSF    F92.5
02BEE:  BTFSC  F80.5
02BF0:  BRA    2C04
02BF2:  BSF    F92.3
02BF4:  BTFSS  F80.3
02BF6:  BRA    2C04
02BF8:  BSF    F92.4
02BFA:  BTFSS  F80.4
02BFC:  BRA    2C04
....................    { 
....................       BajarVidrio(); 
02BFE:  CALL   19F8
....................    } 
....................    else 
02C02:  BRA    2C5A
....................    { 
....................       if(VIDRIOUP && VIDRIOOK && !VIDRIODN) 
02C04:  BSF    F92.5
02C06:  BTFSS  F80.5
02C08:  BRA    2C24
02C0A:  BSF    F92.3
02C0C:  BTFSS  F80.3
02C0E:  BRA    2C24
02C10:  BSF    F92.4
02C12:  BTFSC  F80.4
02C14:  BRA    2C24
....................       { 
....................          VidrioOff(); 
02C16:  CALL   19EE
....................          AjustarUV=10; 
02C1A:  MOVLW  0A
02C1C:  MOVLB  4
02C1E:  MOVWF  x1B
....................       }       
....................       else 
02C20:  BRA    2C5C
02C22:  MOVLB  0
....................       { 
....................          if(VIDRIOUP && !VIDRIOOK && VIDRIODN) 
02C24:  BSF    F92.5
02C26:  BTFSS  F80.5
02C28:  BRA    2C3C
02C2A:  BSF    F92.3
02C2C:  BTFSC  F80.3
02C2E:  BRA    2C3C
02C30:  BSF    F92.4
02C32:  BTFSS  F80.4
02C34:  BRA    2C3C
....................          { 
....................             BajarVidrio(); 
02C36:  CALL   19F8
....................          } 
....................          else 
02C3A:  BRA    2C5A
....................          { 
....................             if(flagbajo==10 || flagsubio==5) 
02C3C:  MOVLB  4
02C3E:  MOVF   x1D,W
02C40:  SUBLW  0A
02C42:  BZ    2C4A
02C44:  MOVF   x1E,W
02C46:  SUBLW  05
02C48:  BNZ   2C54
....................             { 
....................                BajarVidrio(); 
02C4A:  MOVLB  0
02C4C:  CALL   19F8
....................             } 
....................             else 
02C50:  BRA    2C5A
02C52:  MOVLB  4
....................             { 
....................                SubirVidrio(); 
02C54:  MOVLB  0
02C56:  CALL   1A02
02C5A:  MOVLB  4
....................             } 
....................          } 
....................       } 
....................    } 
.................... } 
02C5C:  MOVLB  0
02C5E:  GOTO   4C4C (RETURN)
....................  
.................... void AjustarVidrioUP(){    
....................  
....................    if(!VIDRIOUP && VIDRIOOK && VIDRIODN) 
02C62:  BSF    F92.5
02C64:  BTFSC  F80.5
02C66:  BRA    2C82
02C68:  BSF    F92.3
02C6A:  BTFSS  F80.3
02C6C:  BRA    2C82
02C6E:  BSF    F92.4
02C70:  BTFSS  F80.4
02C72:  BRA    2C82
....................    { 
....................       VidrioOff(); 
02C74:  CALL   19EE
....................       AjustarUP=10; 
02C78:  MOVLW  0A
02C7A:  MOVLB  4
02C7C:  MOVWF  x1C
....................    } 
....................    else 
02C7E:  BRA    2CD2
02C80:  MOVLB  0
....................    { 
....................       if(VIDRIOUP && VIDRIOOK && !VIDRIODN) 
02C82:  BSF    F92.5
02C84:  BTFSS  F80.5
02C86:  BRA    2C9A
02C88:  BSF    F92.3
02C8A:  BTFSS  F80.3
02C8C:  BRA    2C9A
02C8E:  BSF    F92.4
02C90:  BTFSC  F80.4
02C92:  BRA    2C9A
....................       { 
....................          SubirVidrio(); 
02C94:  CALL   1A02
....................       }       
....................       else 
02C98:  BRA    2CD0
....................       { 
....................          if(VIDRIOUP && !VIDRIOOK && VIDRIODN) 
02C9A:  BSF    F92.5
02C9C:  BTFSS  F80.5
02C9E:  BRA    2CB2
02CA0:  BSF    F92.3
02CA2:  BTFSC  F80.3
02CA4:  BRA    2CB2
02CA6:  BSF    F92.4
02CA8:  BTFSS  F80.4
02CAA:  BRA    2CB2
....................          { 
....................             SubirVidrio(); 
02CAC:  CALL   1A02
....................          } 
....................          else 
02CB0:  BRA    2CD0
....................          { 
....................             if(flagbajo==10 || flagsubio==5) 
02CB2:  MOVLB  4
02CB4:  MOVF   x1D,W
02CB6:  SUBLW  0A
02CB8:  BZ    2CC0
02CBA:  MOVF   x1E,W
02CBC:  SUBLW  05
02CBE:  BNZ   2CCA
....................             { 
....................                BajarVidrio(); 
02CC0:  MOVLB  0
02CC2:  CALL   19F8
....................             } 
....................             else 
02CC6:  BRA    2CD0
02CC8:  MOVLB  4
....................             { 
....................                SubirVidrio(); 
02CCA:  MOVLB  0
02CCC:  CALL   1A02
02CD0:  MOVLB  4
....................             } 
....................          } 
....................       } 
....................    } 
.................... } 
02CD2:  MOVLB  0
02CD4:  GOTO   4C5C (RETURN)
....................  
.................... void main(){ 
*
0338A:  CLRF   FF8
0338C:  BCF    FD0.7
0338E:  BSF    07.7
03390:  CLRF   FEA
03392:  CLRF   FE9
03394:  MOVLB  4
03396:  CLRF   x18
03398:  CLRF   x17
0339A:  CLRF   x19
0339C:  MOVLW  0A
0339E:  MOVWF  x1A
033A0:  MOVWF  x1B
033A2:  MOVWF  x1C
033A4:  MOVWF  x1D
033A6:  MOVWF  x1E
033A8:  BCF    x1F.0
033AA:  BCF    x1F.1
033AC:  BCF    x1F.2
033AE:  BCF    x1F.3
033B0:  BCF    x1F.4
033B2:  BCF    x1F.5
033B4:  BCF    x1F.6
033B6:  BCF    x1F.7
033B8:  BCF    x20.0
033BA:  BCF    x20.1
033BC:  BCF    x20.2
033BE:  BCF    x20.3
033C0:  BCF    x20.4
033C2:  BCF    x20.5
033C4:  BCF    x20.6
033C6:  BCF    x20.7
033C8:  BCF    x21.0
033CA:  BCF    x21.1
033CC:  BCF    x21.2
033CE:  BCF    x21.3
033D0:  BCF    x21.4
033D2:  BCF    x21.5
033D4:  BCF    x21.6
033D6:  BCF    x21.7
033D8:  BCF    x22.0
033DA:  MOVLW  C8
033DC:  MOVWF  xE0
033DE:  MOVLW  01
033E0:  MOVWF  xE1
033E2:  MOVWF  xE2
033E4:  CLRF   xE3
033E6:  MOVLW  0A
033E8:  MOVWF  xE4
033EA:  CLRF   xE5
033EC:  CLRF   xE6
033EE:  CLRF   xE7
033F0:  CLRF   xE8
033F2:  CLRF   xE9
033F4:  CLRF   xEA
033F6:  CLRF   xEB
033F8:  CLRF   xEC
033FA:  CLRF   xED
033FC:  MOVWF  xEE
033FE:  MOVWF  xEF
03400:  MOVWF  xF0
03402:  CLRF   xF1
03404:  CLRF   xF2
03406:  CLRF   xF3
03408:  CLRF   xF5
0340A:  CLRF   xF4
0340C:  CLRF   xF7
0340E:  CLRF   xF6
03410:  CLRF   xF9
03412:  CLRF   xF8
03414:  CLRF   xFB
03416:  CLRF   xFA
03418:  CLRF   xFD
0341A:  CLRF   xFC
0341C:  CLRF   xFF
0341E:  CLRF   xFE
03420:  MOVLB  5
03422:  CLRF   x01
03424:  CLRF   x00
03426:  CLRF   x2D
03428:  CLRF   x2C
0342A:  CLRF   x2B
0342C:  CLRF   x2A
0342E:  CLRF   x31
03430:  CLRF   x30
03432:  CLRF   x2F
03434:  CLRF   x2E
03436:  CLRF   x35
03438:  CLRF   x34
0343A:  CLRF   x33
0343C:  CLRF   x32
0343E:  CLRF   x39
03440:  CLRF   x38
03442:  CLRF   x37
03444:  CLRF   x36
03446:  CLRF   x3D
03448:  CLRF   x3C
0344A:  CLRF   x3B
0344C:  CLRF   x3A
0344E:  CLRF   x41
03450:  CLRF   x40
03452:  CLRF   x3F
03454:  CLRF   x3E
03456:  CLRF   x45
03458:  CLRF   x44
0345A:  CLRF   x43
0345C:  CLRF   x42
0345E:  CLRF   x49
03460:  CLRF   x48
03462:  CLRF   x47
03464:  CLRF   x46
03466:  CLRF   x4D
03468:  CLRF   x4C
0346A:  CLRF   x4B
0346C:  CLRF   x4A
0346E:  CLRF   x51
03470:  CLRF   x50
03472:  CLRF   x4F
03474:  CLRF   x4E
03476:  CLRF   x55
03478:  CLRF   x54
0347A:  CLRF   x53
0347C:  CLRF   x52
0347E:  CLRF   x59
03480:  CLRF   x58
03482:  CLRF   x57
03484:  CLRF   x56
03486:  CLRF   x5D
03488:  CLRF   x5C
0348A:  CLRF   x5B
0348C:  CLRF   x5A
0348E:  CLRF   x61
03490:  CLRF   x60
03492:  CLRF   x5F
03494:  CLRF   x5E
03496:  CLRF   x65
03498:  CLRF   x64
0349A:  CLRF   x63
0349C:  CLRF   x62
0349E:  CLRF   x69
034A0:  CLRF   x68
034A2:  CLRF   x67
034A4:  CLRF   x66
034A6:  CLRF   x6D
034A8:  CLRF   x6C
034AA:  CLRF   x6B
034AC:  CLRF   x6A
034AE:  MOVLW  19
034B0:  MOVWF  x71
034B2:  MOVLW  53
034B4:  MOVWF  x70
034B6:  MOVLW  18
034B8:  MOVWF  x6F
034BA:  MOVLW  68
034BC:  MOVWF  x6E
034BE:  MOVLW  E9
034C0:  MOVWF  x75
034C2:  MOVLW  BD
034C4:  MOVWF  x74
034C6:  MOVLW  C6
034C8:  MOVWF  x73
034CA:  MOVLW  71
034CC:  MOVWF  x72
034CE:  MOVLW  BE
034D0:  MOVWF  x79
034D2:  MOVLW  96
034D4:  MOVWF  x78
034D6:  MOVLW  24
034D8:  MOVWF  x77
034DA:  MOVLW  7A
034DC:  MOVWF  x76
034DE:  MOVLW  F3
034E0:  MOVWF  x7D
034E2:  MOVLW  5A
034E4:  MOVWF  x7C
034E6:  MOVLW  AB
034E8:  MOVWF  x7B
034EA:  MOVLW  81
034EC:  MOVWF  x7A
034EE:  CLRF   xC1
034F0:  CLRF   xC0
034F2:  CLRF   xBF
034F4:  CLRF   xBE
034F6:  CLRF   xC5
034F8:  CLRF   xC4
034FA:  MOVLW  4B
034FC:  MOVWF  xC3
034FE:  MOVLW  86
03500:  MOVWF  xC2
03502:  CLRF   xC9
03504:  CLRF   xC8
03506:  CLRF   xC7
03508:  CLRF   xC6
0350A:  CLRF   xCD
0350C:  CLRF   xCC
0350E:  CLRF   xCB
03510:  CLRF   xCA
03512:  CLRF   xD1
03514:  CLRF   xD0
03516:  CLRF   xCF
03518:  CLRF   xCE
0351A:  CLRF   xD5
0351C:  CLRF   xD4
0351E:  CLRF   xD3
03520:  MOVLW  80
03522:  MOVWF  xD2
03524:  CLRF   xD9
03526:  CLRF   xD8
03528:  CLRF   xD7
0352A:  CLRF   xD6
0352C:  MOVLB  6
0352E:  CLRF   x33
03530:  CLRF   x32
03532:  MOVLB  4
03534:  BCF    x22.2
03536:  MOVF   FC1,W
03538:  ANDLW  C0
0353A:  IORLW  0F
0353C:  MOVWF  FC1
0353E:  MOVLW  07
03540:  MOVWF  FB4
03542:  MOVLW  4A
03544:  MOVWF  x23
03546:  MOVLW  50
03548:  MOVWF  x24
0354A:  MOVLW  20
0354C:  MOVWF  x25
0354E:  MOVLW  49
03550:  MOVWF  x26
03552:  MOVLW  6E
03554:  MOVWF  x27
03556:  MOVLW  67
03558:  MOVWF  x28
0355A:  MOVLW  6C
0355C:  MOVWF  x29
0355E:  MOVLW  6F
03560:  MOVWF  x2A
03562:  MOVLW  62
03564:  MOVWF  x2B
03566:  MOVLW  61
03568:  MOVWF  x2C
0356A:  MOVLW  6C
0356C:  MOVWF  x2D
0356E:  CLRF   x2E
03570:  MOVLW  43
03572:  MOVWF  x2F
03574:  MOVLW  61
03576:  MOVWF  x30
03578:  MOVLW  62
0357A:  MOVWF  x31
0357C:  MOVLW  69
0357E:  MOVWF  x32
03580:  MOVLW  6E
03582:  MOVWF  x33
03584:  MOVLW  61
03586:  MOVWF  x34
03588:  MOVLW  20
0358A:  MOVWF  x35
0358C:  MOVLW  42
0358E:  MOVWF  x36
03590:  MOVLW  69
03592:  MOVWF  x37
03594:  MOVLW  6F
03596:  MOVWF  x38
03598:  MOVLW  73
0359A:  MOVWF  x39
0359C:  MOVLW  65
0359E:  MOVWF  x3A
035A0:  MOVLW  67
035A2:  MOVWF  x3B
035A4:  MOVLW  75
035A6:  MOVWF  x3C
035A8:  MOVLW  72
035AA:  MOVWF  x3D
035AC:  MOVLW  69
035AE:  MOVWF  x3E
035B0:  MOVLW  64
035B2:  MOVWF  x3F
035B4:  MOVLW  61
035B6:  MOVWF  x40
035B8:  MOVLW  64
035BA:  MOVWF  x41
035BC:  CLRF   x42
035BE:  MOVLW  54
035C0:  MOVWF  x43
035C2:  MOVLW  20
035C4:  MOVWF  x44
035C6:  MOVLW  65
035C8:  MOVWF  x45
035CA:  MOVLW  73
035CC:  MOVWF  x46
035CE:  MOVLW  74
035D0:  MOVWF  x47
035D2:  MOVLW  3D
035D4:  MOVWF  x48
035D6:  CLRF   x49
035D8:  MOVLW  3A
035DA:  MOVWF  x4A
035DC:  CLRF   x4B
035DE:  MOVLW  43
035E0:  MOVWF  x4C
035E2:  MOVLW  6C
035E4:  MOVWF  x4D
035E6:  MOVLW  61
035E8:  MOVWF  x4E
035EA:  MOVLW  73
035EC:  MOVWF  x4F
035EE:  MOVLW  65
035F0:  MOVWF  x50
035F2:  MOVLW  20
035F4:  MOVWF  x51
035F6:  MOVLW  41
035F8:  MOVWF  x52
035FA:  MOVLW  32
035FC:  MOVWF  x53
035FE:  CLRF   x54
03600:  MOVLW  54
03602:  MOVWF  x55
03604:  MOVLW  69
03606:  MOVWF  x56
03608:  MOVLW  65
0360A:  MOVWF  x57
0360C:  MOVLW  6D
0360E:  MOVWF  x58
03610:  MOVLW  70
03612:  MOVWF  x59
03614:  MOVLW  6F
03616:  MOVWF  x5A
03618:  MOVLW  20
0361A:  MOVWF  x5B
0361C:  MOVLW  64
0361E:  MOVWF  x5C
03620:  MOVLW  65
03622:  MOVWF  x5D
03624:  MOVLW  20
03626:  MOVWF  x5E
03628:  MOVLW  50
0362A:  MOVWF  x5F
0362C:  MOVLW  75
0362E:  MOVWF  x60
03630:  MOVLW  72
03632:  MOVWF  x61
03634:  MOVLW  67
03636:  MOVWF  x62
03638:  MOVLW  61
0363A:  MOVWF  x63
0363C:  CLRF   x64
0363E:  MOVLW  55
03640:  MOVWF  x65
03642:  MOVLW  56
03644:  MOVWF  x66
03646:  CLRF   x67
03648:  MOVLW  21
0364A:  MOVWF  x68
0364C:  MOVWF  x69
0364E:  MOVLW  55
03650:  MOVWF  x6A
03652:  MOVLW  62
03654:  MOVWF  x6B
03656:  MOVLW  69
03658:  MOVWF  x6C
0365A:  MOVLW  71
0365C:  MOVWF  x6D
0365E:  MOVLW  75
03660:  MOVWF  x6E
03662:  MOVLW  65
03664:  MOVWF  x6F
03666:  MOVLW  20
03668:  MOVWF  x70
0366A:  MOVLW  56
0366C:  MOVWF  x71
0366E:  MOVLW  69
03670:  MOVWF  x72
03672:  MOVLW  64
03674:  MOVWF  x73
03676:  MOVLW  72
03678:  MOVWF  x74
0367A:  MOVLW  69
0367C:  MOVWF  x75
0367E:  MOVLW  6F
03680:  MOVWF  x76
03682:  MOVLW  21
03684:  MOVWF  x77
03686:  MOVWF  x78
03688:  CLRF   x79
0368A:  MOVLW  49
0368C:  MOVWF  x7A
0368E:  MOVLW  6E
03690:  MOVWF  x7B
03692:  MOVLW  66
03694:  MOVWF  x7C
03696:  MOVLW  6C
03698:  MOVWF  x7D
0369A:  MOVLW  6F
0369C:  MOVWF  x7E
0369E:  MOVLW  77
036A0:  MOVWF  x7F
036A2:  MOVLW  28
036A4:  MOVWF  x80
036A6:  MOVLW  6D
036A8:  MOVWF  x81
036AA:  MOVLW  2F
036AC:  MOVWF  x82
036AE:  MOVLW  73
036B0:  MOVWF  x83
036B2:  MOVLW  29
036B4:  MOVWF  x84
036B6:  MOVLW  3A
036B8:  MOVWF  x85
036BA:  CLRF   x86
036BC:  MOVLW  44
036BE:  MOVWF  x87
036C0:  MOVLW  6E
036C2:  MOVWF  x88
036C4:  MOVLW  66
036C6:  MOVWF  x89
036C8:  MOVLW  6C
036CA:  MOVWF  x8A
036CC:  MOVLW  6F
036CE:  MOVWF  x8B
036D0:  MOVLW  77
036D2:  MOVWF  x8C
036D4:  MOVLW  28
036D6:  MOVWF  x8D
036D8:  MOVLW  6D
036DA:  MOVWF  x8E
036DC:  MOVLW  2F
036DE:  MOVWF  x8F
036E0:  MOVLW  73
036E2:  MOVWF  x90
036E4:  MOVLW  29
036E6:  MOVWF  x91
036E8:  MOVLW  3A
036EA:  MOVWF  x92
036EC:  CLRF   x93
036EE:  MOVLW  46
036F0:  MOVWF  x94
036F2:  MOVLW  61
036F4:  MOVWF  x95
036F6:  MOVLW  62
036F8:  MOVWF  x96
036FA:  MOVLW  72
036FC:  MOVWF  x97
036FE:  MOVLW  69
03700:  MOVWF  x98
03702:  MOVLW  63
03704:  MOVWF  x99
03706:  MOVLW  61
03708:  MOVWF  x9A
0370A:  MOVLW  3A
0370C:  MOVWF  x9B
0370E:  MOVLW  32
03710:  MOVWF  x9C
03712:  MOVLW  30
03714:  MOVWF  x9D
03716:  MOVLW  33
03718:  MOVWF  x9E
0371A:  MOVLW  2E
0371C:  MOVWF  x9F
0371E:  MOVLW  30
03720:  MOVWF  xA0
03722:  CLRF   xA1
03724:  MOVLW  41
03726:  MOVWF  xA2
03728:  MOVLW  63
0372A:  MOVWF  xA3
0372C:  MOVLW  74
0372E:  MOVWF  xA4
03730:  MOVLW  75
03732:  MOVWF  xA5
03734:  MOVLW  61
03736:  MOVWF  xA6
03738:  MOVLW  6C
0373A:  MOVWF  xA7
0373C:  MOVLW  3A
0373E:  MOVWF  xA8
03740:  CLRF   xA9
03742:  MOVLW  41
03744:  MOVWF  xAA
03746:  MOVLW  6A
03748:  MOVWF  xAB
0374A:  MOVLW  75
0374C:  MOVWF  xAC
0374E:  MOVLW  73
03750:  MOVWF  xAD
03752:  MOVLW  74
03754:  MOVWF  xAE
03756:  MOVLW  65
03758:  MOVWF  xAF
0375A:  MOVLW  3A
0375C:  MOVWF  xB0
0375E:  CLRF   xB1
03760:  MOVLW  55
03762:  MOVWF  xB2
03764:  MOVLW  56
03766:  MOVWF  xB3
03768:  MOVLW  4C
0376A:  MOVWF  xB4
0376C:  MOVLW  69
0376E:  MOVWF  xB5
03770:  MOVLW  66
03772:  MOVWF  xB6
03774:  MOVLW  65
03776:  MOVWF  xB7
03778:  MOVLW  3A
0377A:  MOVWF  xB8
0377C:  CLRF   xB9
0377E:  MOVLW  46
03780:  MOVWF  xBA
03782:  MOVLW  69
03784:  MOVWF  xBB
03786:  MOVLW  6C
03788:  MOVWF  xBC
0378A:  MOVLW  74
0378C:  MOVWF  xBD
0378E:  MOVLW  65
03790:  MOVWF  xBE
03792:  MOVLW  72
03794:  MOVWF  xBF
03796:  MOVLW  3A
03798:  MOVWF  xC0
0379A:  CLRF   xC1
0379C:  MOVLW  46
0379E:  MOVWF  xC2
037A0:  MOVLW  61
037A2:  MOVWF  xC3
037A4:  MOVLW  62
037A6:  MOVWF  xC4
037A8:  MOVLW  72
037AA:  MOVWF  xC5
037AC:  MOVLW  69
037AE:  MOVWF  xC6
037B0:  MOVLW  63
037B2:  MOVWF  xC7
037B4:  MOVLW  61
037B6:  MOVWF  xC8
037B8:  MOVLW  3A
037BA:  MOVWF  xC9
037BC:  MOVLW  32
037BE:  MOVWF  xCA
037C0:  MOVLW  33
037C2:  MOVWF  xCB
037C4:  MOVLW  35
037C6:  MOVWF  xCC
037C8:  MOVLW  2E
037CA:  MOVWF  xCD
037CC:  MOVLW  30
037CE:  MOVWF  xCE
037D0:  CLRF   xCF
037D2:  MOVLW  21
037D4:  MOVWF  xD0
037D6:  MOVLW  50
037D8:  MOVWF  xD1
037DA:  MOVLW  65
037DC:  MOVWF  xD2
037DE:  MOVLW  72
037E0:  MOVWF  xD3
037E2:  MOVLW  64
037E4:  MOVWF  xD4
037E6:  MOVLW  69
037E8:  MOVWF  xD5
037EA:  MOVLW  64
037EC:  MOVWF  xD6
037EE:  MOVLW  61
037F0:  MOVWF  xD7
037F2:  MOVLW  20
037F4:  MOVWF  xD8
037F6:  MOVLW  46
037F8:  MOVWF  xD9
037FA:  MOVLW  6C
037FC:  MOVWF  xDA
037FE:  MOVLW  75
03800:  MOVWF  xDB
03802:  MOVLW  6A
03804:  MOVWF  xDC
03806:  MOVLW  6F
03808:  MOVWF  xDD
0380A:  MOVLW  21
0380C:  MOVWF  xDE
0380E:  CLRF   xDF
03810:  MOVLB  5
03812:  CLRF   x02
03814:  CLRF   x03
03816:  CLRF   x04
03818:  CLRF   x05
0381A:  MOVLW  09
0381C:  MOVWF  x06
0381E:  CLRF   x07
03820:  CLRF   x08
03822:  CLRF   x09
03824:  CLRF   x0A
03826:  CLRF   x0B
03828:  CLRF   x0C
0382A:  CLRF   x0D
0382C:  MOVWF  x0E
0382E:  CLRF   x0F
03830:  CLRF   x10
03832:  CLRF   x11
03834:  CLRF   x12
03836:  CLRF   x13
03838:  CLRF   x14
0383A:  CLRF   x15
0383C:  CLRF   x16
0383E:  CLRF   x17
03840:  CLRF   x18
03842:  CLRF   x19
03844:  CLRF   x1A
03846:  CLRF   x1B
03848:  CLRF   x1C
0384A:  CLRF   x1D
0384C:  CLRF   x1E
0384E:  CLRF   x1F
03850:  CLRF   x20
03852:  CLRF   x21
03854:  CLRF   x22
03856:  CLRF   x23
03858:  CLRF   x24
0385A:  CLRF   x25
0385C:  CLRF   x26
0385E:  CLRF   x27
03860:  CLRF   x28
03862:  CLRF   x29
03864:  CLRF   x7E
03866:  CLRF   x7F
03868:  CLRF   x80
0386A:  CLRF   x81
0386C:  CLRF   x82
0386E:  CLRF   x83
03870:  CLRF   x84
03872:  CLRF   x85
03874:  CLRF   x86
03876:  CLRF   x87
03878:  CLRF   x88
0387A:  CLRF   x89
0387C:  CLRF   x8A
0387E:  CLRF   x8B
03880:  CLRF   x8C
03882:  CLRF   x8D
03884:  CLRF   x8E
03886:  CLRF   x8F
03888:  CLRF   x90
0388A:  CLRF   x91
0388C:  CLRF   x92
0388E:  CLRF   x93
03890:  CLRF   x94
03892:  CLRF   x95
03894:  CLRF   x96
03896:  CLRF   x97
03898:  CLRF   x98
0389A:  CLRF   x99
0389C:  CLRF   x9A
0389E:  CLRF   x9B
038A0:  CLRF   x9C
038A2:  CLRF   x9D
038A4:  CLRF   x9E
038A6:  CLRF   x9F
038A8:  CLRF   xA0
038AA:  CLRF   xA1
038AC:  CLRF   xA2
038AE:  CLRF   xA3
038B0:  CLRF   xA4
038B2:  CLRF   xA5
038B4:  CLRF   xA6
038B6:  CLRF   xA7
038B8:  CLRF   xA8
038BA:  CLRF   xA9
038BC:  CLRF   xAA
038BE:  CLRF   xAB
038C0:  CLRF   xAC
038C2:  CLRF   xAD
038C4:  CLRF   xAE
038C6:  CLRF   xAF
038C8:  CLRF   xB0
038CA:  CLRF   xB1
038CC:  CLRF   xB2
038CE:  CLRF   xB3
038D0:  CLRF   xB4
038D2:  CLRF   xB5
038D4:  CLRF   xB6
038D6:  CLRF   xB7
038D8:  CLRF   xB8
038DA:  CLRF   xB9
038DC:  CLRF   xBA
038DE:  CLRF   xBB
038E0:  CLRF   xBC
038E2:  CLRF   xBD
038E4:  MOVLB  6
038E6:  CLRF   x4C
038E8:  CLRF   x4D
....................  
....................    setup_timer_0(RTCC_8_BIT|RTCC_DIV_128); 
038EA:  MOVLW  C6
038EC:  MOVWF  FD5
....................    setup_timer_1(T1_INTERNAL|T1_DIV_BY_8); 
038EE:  MOVLW  B5
038F0:  MOVWF  FCD
....................    EXT_INT_EDGE(0,H_TO_L); //  
038F2:  BCF    FF1.6
....................    enable_interrupts(INT_EXT); 
038F4:  BSF    FF2.4
....................    enable_interrupts(INT_TIMER0); 
038F6:  BSF    FF2.5
....................    setup_adc_ports(AN0_TO_AN2); 
038F8:  MOVF   FC1,W
038FA:  ANDLW  C0
038FC:  IORLW  0C
038FE:  MOVWF  FC1
....................    setup_adc(ADC_CLOCK_DIV_32 ); 
03900:  MOVF   FC0,W
03902:  ANDLW  C0
03904:  IORLW  02
03906:  MOVWF  FC0
03908:  BSF    FC0.7
0390A:  BSF    FC2.0
....................    enable_interrupts(global);    
0390C:  MOVLW  C0
0390E:  IORWF  FF2,F
....................     
....................    /*Display_on; 
....................    glcd_init(ON);             //Inicializa la glcd 
....................    glcd_fillScreen(OFF);      //Limpia la pantalla*/ 
....................     
....................    Password[0]=read_eeprom(0); 
03910:  MOVFF  FF2,64E
03914:  BCF    FF2.7
03916:  CLRF   FAA
03918:  CLRF   FA9
0391A:  BCF    FA6.6
0391C:  BCF    FA6.7
0391E:  BSF    FA6.0
03920:  MOVF   FA8,W
03922:  BTFSC  x4E.7
03924:  BSF    FF2.7
03926:  MOVLB  5
03928:  MOVWF  x26
....................    delay_ms(10); 
0392A:  MOVLW  0A
0392C:  MOVLB  6
0392E:  MOVWF  x56
03930:  MOVLB  0
03932:  CALL   1576
....................    Password[1]=read_eeprom(1); 
03936:  MOVFF  FF2,64E
0393A:  BCF    FF2.7
0393C:  CLRF   FAA
0393E:  MOVLW  01
03940:  MOVWF  FA9
03942:  BCF    FA6.6
03944:  BCF    FA6.7
03946:  BSF    FA6.0
03948:  MOVF   FA8,W
0394A:  MOVLB  6
0394C:  BTFSC  x4E.7
0394E:  BSF    FF2.7
03950:  MOVLB  5
03952:  MOVWF  x27
....................    delay_ms(10); 
03954:  MOVLW  0A
03956:  MOVLB  6
03958:  MOVWF  x56
0395A:  MOVLB  0
0395C:  CALL   1576
....................    Password[2]=read_eeprom(2); 
03960:  MOVFF  FF2,64E
03964:  BCF    FF2.7
03966:  CLRF   FAA
03968:  MOVLW  02
0396A:  MOVWF  FA9
0396C:  BCF    FA6.6
0396E:  BCF    FA6.7
03970:  BSF    FA6.0
03972:  MOVF   FA8,W
03974:  MOVLB  6
03976:  BTFSC  x4E.7
03978:  BSF    FF2.7
0397A:  MOVLB  5
0397C:  MOVWF  x28
....................    delay_ms(10); 
0397E:  MOVLW  0A
03980:  MOVLB  6
03982:  MOVWF  x56
03984:  MOVLB  0
03986:  CALL   1576
....................    Password[3]=read_eeprom(3); 
0398A:  MOVFF  FF2,64E
0398E:  BCF    FF2.7
03990:  CLRF   FAA
03992:  MOVLW  03
03994:  MOVWF  FA9
03996:  BCF    FA6.6
03998:  BCF    FA6.7
0399A:  BSF    FA6.0
0399C:  MOVF   FA8,W
0399E:  MOVLB  6
039A0:  BTFSC  x4E.7
039A2:  BSF    FF2.7
039A4:  MOVLB  5
039A6:  MOVWF  x29
....................    delay_ms(10); 
039A8:  MOVLW  0A
039AA:  MOVLB  6
039AC:  MOVWF  x56
039AE:  MOVLB  0
039B0:  CALL   1576
....................    Tpurgap[0]=read_eeprom(4); 
039B4:  MOVFF  FF2,64E
039B8:  BCF    FF2.7
039BA:  CLRF   FAA
039BC:  MOVLW  04
039BE:  MOVWF  FA9
039C0:  BCF    FA6.6
039C2:  BCF    FA6.7
039C4:  BSF    FA6.0
039C6:  MOVF   FA8,W
039C8:  MOVLB  6
039CA:  BTFSC  x4E.7
039CC:  BSF    FF2.7
039CE:  MOVLB  5
039D0:  MOVWF  x06
....................    delay_ms(10); 
039D2:  MOVLW  0A
039D4:  MOVLB  6
039D6:  MOVWF  x56
039D8:  MOVLB  0
039DA:  CALL   1576
....................    Tpurgap[1]=read_eeprom(5); 
039DE:  MOVFF  FF2,64E
039E2:  BCF    FF2.7
039E4:  CLRF   FAA
039E6:  MOVLW  05
039E8:  MOVWF  FA9
039EA:  BCF    FA6.6
039EC:  BCF    FA6.7
039EE:  BSF    FA6.0
039F0:  MOVF   FA8,W
039F2:  MOVLB  6
039F4:  BTFSC  x4E.7
039F6:  BSF    FF2.7
039F8:  MOVLB  5
039FA:  MOVWF  x07
....................    delay_ms(10); 
039FC:  MOVLW  0A
039FE:  MOVLB  6
03A00:  MOVWF  x56
03A02:  MOVLB  0
03A04:  CALL   1576
....................    Tpurgap[2]=read_eeprom(6); 
03A08:  MOVFF  FF2,64E
03A0C:  BCF    FF2.7
03A0E:  CLRF   FAA
03A10:  MOVLW  06
03A12:  MOVWF  FA9
03A14:  BCF    FA6.6
03A16:  BCF    FA6.7
03A18:  BSF    FA6.0
03A1A:  MOVF   FA8,W
03A1C:  MOVLB  6
03A1E:  BTFSC  x4E.7
03A20:  BSF    FF2.7
03A22:  MOVLB  5
03A24:  MOVWF  x08
....................    delay_ms(10); 
03A26:  MOVLW  0A
03A28:  MOVLB  6
03A2A:  MOVWF  x56
03A2C:  MOVLB  0
03A2E:  CALL   1576
....................    Tpurgap[3]=read_eeprom(7); 
03A32:  MOVFF  FF2,64E
03A36:  BCF    FF2.7
03A38:  CLRF   FAA
03A3A:  MOVLW  07
03A3C:  MOVWF  FA9
03A3E:  BCF    FA6.6
03A40:  BCF    FA6.7
03A42:  BSF    FA6.0
03A44:  MOVF   FA8,W
03A46:  MOVLB  6
03A48:  BTFSC  x4E.7
03A4A:  BSF    FF2.7
03A4C:  MOVLB  5
03A4E:  MOVWF  x09
....................    delay_ms(10); 
03A50:  MOVLW  0A
03A52:  MOVLB  6
03A54:  MOVWF  x56
03A56:  MOVLB  0
03A58:  CALL   1576
....................    Tppurgap[0]=read_eeprom(8); 
03A5C:  MOVFF  FF2,64E
03A60:  BCF    FF2.7
03A62:  CLRF   FAA
03A64:  MOVLW  08
03A66:  MOVWF  FA9
03A68:  BCF    FA6.6
03A6A:  BCF    FA6.7
03A6C:  BSF    FA6.0
03A6E:  MOVF   FA8,W
03A70:  MOVLB  6
03A72:  BTFSC  x4E.7
03A74:  BSF    FF2.7
03A76:  MOVLB  5
03A78:  MOVWF  x0E
....................    delay_ms(10); 
03A7A:  MOVLW  0A
03A7C:  MOVLB  6
03A7E:  MOVWF  x56
03A80:  MOVLB  0
03A82:  CALL   1576
....................    Tppurgap[1]=read_eeprom(9); 
03A86:  MOVFF  FF2,64E
03A8A:  BCF    FF2.7
03A8C:  CLRF   FAA
03A8E:  MOVLW  09
03A90:  MOVWF  FA9
03A92:  BCF    FA6.6
03A94:  BCF    FA6.7
03A96:  BSF    FA6.0
03A98:  MOVF   FA8,W
03A9A:  MOVLB  6
03A9C:  BTFSC  x4E.7
03A9E:  BSF    FF2.7
03AA0:  MOVLB  5
03AA2:  MOVWF  x0F
....................    delay_ms(10); 
03AA4:  MOVLW  0A
03AA6:  MOVLB  6
03AA8:  MOVWF  x56
03AAA:  MOVLB  0
03AAC:  CALL   1576
....................    Tppurgap[2]=read_eeprom(10); 
03AB0:  MOVFF  FF2,64E
03AB4:  BCF    FF2.7
03AB6:  CLRF   FAA
03AB8:  MOVLW  0A
03ABA:  MOVWF  FA9
03ABC:  BCF    FA6.6
03ABE:  BCF    FA6.7
03AC0:  BSF    FA6.0
03AC2:  MOVF   FA8,W
03AC4:  MOVLB  6
03AC6:  BTFSC  x4E.7
03AC8:  BSF    FF2.7
03ACA:  MOVLB  5
03ACC:  MOVWF  x10
....................    delay_ms(10); 
03ACE:  MOVLW  0A
03AD0:  MOVLB  6
03AD2:  MOVWF  x56
03AD4:  MOVLB  0
03AD6:  CALL   1576
....................    Tppurgap[3]=read_eeprom(11); 
03ADA:  MOVFF  FF2,64E
03ADE:  BCF    FF2.7
03AE0:  CLRF   FAA
03AE2:  MOVLW  0B
03AE4:  MOVWF  FA9
03AE6:  BCF    FA6.6
03AE8:  BCF    FA6.7
03AEA:  BSF    FA6.0
03AEC:  MOVF   FA8,W
03AEE:  MOVLB  6
03AF0:  BTFSC  x4E.7
03AF2:  BSF    FF2.7
03AF4:  MOVLB  5
03AF6:  MOVWF  x11
....................    delay_ms(10); 
03AF8:  MOVLW  0A
03AFA:  MOVLB  6
03AFC:  MOVWF  x56
03AFE:  MOVLB  0
03B00:  CALL   1576
....................    Tuv[0]=read_eeprom(12); 
03B04:  MOVFF  FF2,64E
03B08:  BCF    FF2.7
03B0A:  CLRF   FAA
03B0C:  MOVLW  0C
03B0E:  MOVWF  FA9
03B10:  BCF    FA6.6
03B12:  BCF    FA6.7
03B14:  BSF    FA6.0
03B16:  MOVF   FA8,W
03B18:  MOVLB  6
03B1A:  BTFSC  x4E.7
03B1C:  BSF    FF2.7
03B1E:  MOVLB  5
03B20:  MOVWF  x12
....................    delay_ms(10); 
03B22:  MOVLW  0A
03B24:  MOVLB  6
03B26:  MOVWF  x56
03B28:  MOVLB  0
03B2A:  CALL   1576
....................    Tuv[1]=read_eeprom(13); 
03B2E:  MOVFF  FF2,64E
03B32:  BCF    FF2.7
03B34:  CLRF   FAA
03B36:  MOVLW  0D
03B38:  MOVWF  FA9
03B3A:  BCF    FA6.6
03B3C:  BCF    FA6.7
03B3E:  BSF    FA6.0
03B40:  MOVF   FA8,W
03B42:  MOVLB  6
03B44:  BTFSC  x4E.7
03B46:  BSF    FF2.7
03B48:  MOVLB  5
03B4A:  MOVWF  x13
....................    delay_ms(10); 
03B4C:  MOVLW  0A
03B4E:  MOVLB  6
03B50:  MOVWF  x56
03B52:  MOVLB  0
03B54:  CALL   1576
....................    Tuv[2]=read_eeprom(14); 
03B58:  MOVFF  FF2,64E
03B5C:  BCF    FF2.7
03B5E:  CLRF   FAA
03B60:  MOVLW  0E
03B62:  MOVWF  FA9
03B64:  BCF    FA6.6
03B66:  BCF    FA6.7
03B68:  BSF    FA6.0
03B6A:  MOVF   FA8,W
03B6C:  MOVLB  6
03B6E:  BTFSC  x4E.7
03B70:  BSF    FF2.7
03B72:  MOVLB  5
03B74:  MOVWF  x14
....................    delay_ms(10); 
03B76:  MOVLW  0A
03B78:  MOVLB  6
03B7A:  MOVWF  x56
03B7C:  MOVLB  0
03B7E:  CALL   1576
....................    Tuv[3]=read_eeprom(15); 
03B82:  MOVFF  FF2,64E
03B86:  BCF    FF2.7
03B88:  CLRF   FAA
03B8A:  MOVLW  0F
03B8C:  MOVWF  FA9
03B8E:  BCF    FA6.6
03B90:  BCF    FA6.7
03B92:  BSF    FA6.0
03B94:  MOVF   FA8,W
03B96:  MOVLB  6
03B98:  BTFSC  x4E.7
03B9A:  BSF    FF2.7
03B9C:  MOVLB  5
03B9E:  MOVWF  x15
....................    delay_ms(10); 
03BA0:  MOVLW  0A
03BA2:  MOVLB  6
03BA4:  MOVWF  x56
03BA6:  MOVLB  0
03BA8:  CALL   1576
....................    Ttrabajo[0]=read_eeprom(16); 
03BAC:  MOVFF  FF2,64E
03BB0:  BCF    FF2.7
03BB2:  CLRF   FAA
03BB4:  MOVLW  10
03BB6:  MOVWF  FA9
03BB8:  BCF    FA6.6
03BBA:  BCF    FA6.7
03BBC:  BSF    FA6.0
03BBE:  MOVF   FA8,W
03BC0:  MOVLB  6
03BC2:  BTFSC  x4E.7
03BC4:  BSF    FF2.7
03BC6:  MOVLB  5
03BC8:  MOVWF  x1E
....................    delay_ms(10); 
03BCA:  MOVLW  0A
03BCC:  MOVLB  6
03BCE:  MOVWF  x56
03BD0:  MOVLB  0
03BD2:  CALL   1576
....................    Ttrabajo[1]=read_eeprom(17); 
03BD6:  MOVFF  FF2,64E
03BDA:  BCF    FF2.7
03BDC:  CLRF   FAA
03BDE:  MOVLW  11
03BE0:  MOVWF  FA9
03BE2:  BCF    FA6.6
03BE4:  BCF    FA6.7
03BE6:  BSF    FA6.0
03BE8:  MOVF   FA8,W
03BEA:  MOVLB  6
03BEC:  BTFSC  x4E.7
03BEE:  BSF    FF2.7
03BF0:  MOVLB  5
03BF2:  MOVWF  x1F
....................    delay_ms(10); 
03BF4:  MOVLW  0A
03BF6:  MOVLB  6
03BF8:  MOVWF  x56
03BFA:  MOVLB  0
03BFC:  CALL   1576
....................    Ttrabajo[2]=read_eeprom(18); 
03C00:  MOVFF  FF2,64E
03C04:  BCF    FF2.7
03C06:  CLRF   FAA
03C08:  MOVLW  12
03C0A:  MOVWF  FA9
03C0C:  BCF    FA6.6
03C0E:  BCF    FA6.7
03C10:  BSF    FA6.0
03C12:  MOVF   FA8,W
03C14:  MOVLB  6
03C16:  BTFSC  x4E.7
03C18:  BSF    FF2.7
03C1A:  MOVLB  5
03C1C:  MOVWF  x20
....................    delay_ms(10); 
03C1E:  MOVLW  0A
03C20:  MOVLB  6
03C22:  MOVWF  x56
03C24:  MOVLB  0
03C26:  CALL   1576
....................    Ttrabajo[3]=read_eeprom(19); 
03C2A:  MOVFF  FF2,64E
03C2E:  BCF    FF2.7
03C30:  CLRF   FAA
03C32:  MOVLW  13
03C34:  MOVWF  FA9
03C36:  BCF    FA6.6
03C38:  BCF    FA6.7
03C3A:  BSF    FA6.0
03C3C:  MOVF   FA8,W
03C3E:  MOVLB  6
03C40:  BTFSC  x4E.7
03C42:  BSF    FF2.7
03C44:  MOVLB  5
03C46:  MOVWF  x21
....................    delay_ms(10); 
03C48:  MOVLW  0A
03C4A:  MOVLB  6
03C4C:  MOVWF  x56
03C4E:  MOVLB  0
03C50:  CALL   1576
....................    flag_alarma=read_eeprom(20); 
03C54:  MOVFF  FF2,64E
03C58:  BCF    FF2.7
03C5A:  CLRF   FAA
03C5C:  MOVLW  14
03C5E:  MOVWF  FA9
03C60:  BCF    FA6.6
03C62:  BCF    FA6.7
03C64:  BSF    FA6.0
03C66:  MOVF   FA8,W
03C68:  MOVLB  6
03C6A:  BTFSC  x4E.7
03C6C:  BSF    FF2.7
03C6E:  MOVWF  01
03C70:  MOVLB  4
03C72:  BCF    x20.4
03C74:  BTFSC  01.0
03C76:  BSF    x20.4
....................    delay_ms(10); 
03C78:  MOVLW  0A
03C7A:  MOVLB  6
03C7C:  MOVWF  x56
03C7E:  MOVLB  0
03C80:  CALL   1576
....................    Tempouvp[0]=read_eeprom(21); 
03C84:  MOVFF  FF2,64E
03C88:  BCF    FF2.7
03C8A:  CLRF   FAA
03C8C:  MOVLW  15
03C8E:  MOVWF  FA9
03C90:  BCF    FA6.6
03C92:  BCF    FA6.7
03C94:  BSF    FA6.0
03C96:  MOVF   FA8,W
03C98:  MOVLB  6
03C9A:  BTFSC  x4E.7
03C9C:  BSF    FF2.7
03C9E:  MOVLB  5
03CA0:  MOVWF  x1A
....................    delay_ms(10); 
03CA2:  MOVLW  0A
03CA4:  MOVLB  6
03CA6:  MOVWF  x56
03CA8:  MOVLB  0
03CAA:  CALL   1576
....................    Tempouvp[1]=read_eeprom(22); 
03CAE:  MOVFF  FF2,64E
03CB2:  BCF    FF2.7
03CB4:  CLRF   FAA
03CB6:  MOVLW  16
03CB8:  MOVWF  FA9
03CBA:  BCF    FA6.6
03CBC:  BCF    FA6.7
03CBE:  BSF    FA6.0
03CC0:  MOVF   FA8,W
03CC2:  MOVLB  6
03CC4:  BTFSC  x4E.7
03CC6:  BSF    FF2.7
03CC8:  MOVLB  5
03CCA:  MOVWF  x1B
....................    delay_ms(10); 
03CCC:  MOVLW  0A
03CCE:  MOVLB  6
03CD0:  MOVWF  x56
03CD2:  MOVLB  0
03CD4:  CALL   1576
....................    Tempouvp[2]=read_eeprom(23); 
03CD8:  MOVFF  FF2,64E
03CDC:  BCF    FF2.7
03CDE:  CLRF   FAA
03CE0:  MOVLW  17
03CE2:  MOVWF  FA9
03CE4:  BCF    FA6.6
03CE6:  BCF    FA6.7
03CE8:  BSF    FA6.0
03CEA:  MOVF   FA8,W
03CEC:  MOVLB  6
03CEE:  BTFSC  x4E.7
03CF0:  BSF    FF2.7
03CF2:  MOVLB  5
03CF4:  MOVWF  x1C
....................    delay_ms(10); 
03CF6:  MOVLW  0A
03CF8:  MOVLB  6
03CFA:  MOVWF  x56
03CFC:  MOVLB  0
03CFE:  CALL   1576
....................    Tempouvp[3]=read_eeprom(24); 
03D02:  MOVFF  FF2,64E
03D06:  BCF    FF2.7
03D08:  CLRF   FAA
03D0A:  MOVLW  18
03D0C:  MOVWF  FA9
03D0E:  BCF    FA6.6
03D10:  BCF    FA6.7
03D12:  BSF    FA6.0
03D14:  MOVF   FA8,W
03D16:  MOVLB  6
03D18:  BTFSC  x4E.7
03D1A:  BSF    FF2.7
03D1C:  MOVLB  5
03D1E:  MOVWF  x1D
....................     
....................    delay_ms(10); 
03D20:  MOVLW  0A
03D22:  MOVLB  6
03D24:  MOVWF  x56
03D26:  MOVLB  0
03D28:  CALL   1576
....................    Entero=read_eeprom(25);//Decimal1=read_eeprom(26); 
03D2C:  MOVFF  FF2,64E
03D30:  BCF    FF2.7
03D32:  CLRF   FAA
03D34:  MOVLW  19
03D36:  MOVWF  FA9
03D38:  BCF    FA6.6
03D3A:  BCF    FA6.7
03D3C:  BSF    FA6.0
03D3E:  MOVF   FA8,W
03D40:  MOVLB  6
03D42:  BTFSC  x4E.7
03D44:  BSF    FF2.7
03D46:  MOVLB  4
03D48:  MOVWF  xEC
....................    delay_ms(10); 
03D4A:  MOVLW  0A
03D4C:  MOVLB  6
03D4E:  MOVWF  x56
03D50:  MOVLB  0
03D52:  CALL   1576
....................    Temporal=read_eeprom(26); 
03D56:  MOVFF  FF2,64E
03D5A:  BCF    FF2.7
03D5C:  CLRF   FAA
03D5E:  MOVLW  1A
03D60:  MOVWF  FA9
03D62:  BCF    FA6.6
03D64:  BCF    FA6.7
03D66:  BSF    FA6.0
03D68:  MOVF   FA8,W
03D6A:  MOVLB  6
03D6C:  BTFSC  x4E.7
03D6E:  BSF    FF2.7
03D70:  CLRF   x54
03D72:  MOVWF  x53
03D74:  MOVLB  0
03D76:  CALL   159E
03D7A:  MOVFF  03,569
03D7E:  MOVFF  02,568
03D82:  MOVFF  01,567
03D86:  MOVFF  00,566
....................    delay_ms(10); 
03D8A:  MOVLW  0A
03D8C:  MOVLB  6
03D8E:  MOVWF  x56
03D90:  MOVLB  0
03D92:  CALL   1576
....................    Temporal=Temporal/100.0; 
03D96:  MOVFF  569,656
03D9A:  MOVFF  568,655
03D9E:  MOVFF  567,654
03DA2:  MOVFF  566,653
03DA6:  MOVLB  6
03DA8:  CLRF   x5A
03DAA:  CLRF   x59
03DAC:  MOVLW  48
03DAE:  MOVWF  x58
03DB0:  MOVLW  85
03DB2:  MOVWF  x57
03DB4:  MOVLB  0
03DB6:  CALL   15D4
03DBA:  MOVFF  03,569
03DBE:  MOVFF  02,568
03DC2:  MOVFF  01,567
03DC6:  MOVFF  00,566
....................    Ajuste1=Entero+Temporal; 
03DCA:  MOVLB  6
03DCC:  CLRF   x54
03DCE:  MOVFF  4EC,653
03DD2:  MOVLB  0
03DD4:  CALL   159E
03DD8:  BCF    FD8.1
03DDA:  MOVFF  03,65A
03DDE:  MOVFF  02,659
03DE2:  MOVFF  01,658
03DE6:  MOVFF  00,657
03DEA:  MOVFF  569,65E
03DEE:  MOVFF  568,65D
03DF2:  MOVFF  567,65C
03DF6:  MOVFF  566,65B
03DFA:  CALL   1732
03DFE:  MOVFF  03,55D
03E02:  MOVFF  02,55C
03E06:  MOVFF  01,55B
03E0A:  MOVFF  00,55A
....................     
....................     
....................    Entero=read_eeprom(27);//Decimal1=read_eeprom(26); 
03E0E:  MOVFF  FF2,64E
03E12:  BCF    FF2.7
03E14:  CLRF   FAA
03E16:  MOVLW  1B
03E18:  MOVWF  FA9
03E1A:  BCF    FA6.6
03E1C:  BCF    FA6.7
03E1E:  BSF    FA6.0
03E20:  MOVF   FA8,W
03E22:  MOVLB  6
03E24:  BTFSC  x4E.7
03E26:  BSF    FF2.7
03E28:  MOVLB  4
03E2A:  MOVWF  xEC
....................    delay_ms(10); 
03E2C:  MOVLW  0A
03E2E:  MOVLB  6
03E30:  MOVWF  x56
03E32:  MOVLB  0
03E34:  CALL   1576
....................    Temporal=read_eeprom(28); 
03E38:  MOVFF  FF2,64E
03E3C:  BCF    FF2.7
03E3E:  CLRF   FAA
03E40:  MOVLW  1C
03E42:  MOVWF  FA9
03E44:  BCF    FA6.6
03E46:  BCF    FA6.7
03E48:  BSF    FA6.0
03E4A:  MOVF   FA8,W
03E4C:  MOVLB  6
03E4E:  BTFSC  x4E.7
03E50:  BSF    FF2.7
03E52:  CLRF   x54
03E54:  MOVWF  x53
03E56:  MOVLB  0
03E58:  CALL   159E
03E5C:  MOVFF  03,569
03E60:  MOVFF  02,568
03E64:  MOVFF  01,567
03E68:  MOVFF  00,566
....................    delay_ms(10); 
03E6C:  MOVLW  0A
03E6E:  MOVLB  6
03E70:  MOVWF  x56
03E72:  MOVLB  0
03E74:  CALL   1576
....................    Temporal=Temporal/100.0; 
03E78:  MOVFF  569,656
03E7C:  MOVFF  568,655
03E80:  MOVFF  567,654
03E84:  MOVFF  566,653
03E88:  MOVLB  6
03E8A:  CLRF   x5A
03E8C:  CLRF   x59
03E8E:  MOVLW  48
03E90:  MOVWF  x58
03E92:  MOVLW  85
03E94:  MOVWF  x57
03E96:  MOVLB  0
03E98:  CALL   15D4
03E9C:  MOVFF  03,569
03EA0:  MOVFF  02,568
03EA4:  MOVFF  01,567
03EA8:  MOVFF  00,566
....................    Ajuste2=Entero+Temporal; 
03EAC:  MOVLB  6
03EAE:  CLRF   x54
03EB0:  MOVFF  4EC,653
03EB4:  MOVLB  0
03EB6:  CALL   159E
03EBA:  BCF    FD8.1
03EBC:  MOVFF  03,65A
03EC0:  MOVFF  02,659
03EC4:  MOVFF  01,658
03EC8:  MOVFF  00,657
03ECC:  MOVFF  569,65E
03ED0:  MOVFF  568,65D
03ED4:  MOVFF  567,65C
03ED8:  MOVFF  566,65B
03EDC:  CALL   1732
03EE0:  MOVFF  03,561
03EE4:  MOVFF  02,560
03EE8:  MOVFF  01,55F
03EEC:  MOVFF  00,55E
....................     
....................     
....................    Entero=read_eeprom(29);//Decimal1=read_eeprom(26); 
03EF0:  MOVFF  FF2,64E
03EF4:  BCF    FF2.7
03EF6:  CLRF   FAA
03EF8:  MOVLW  1D
03EFA:  MOVWF  FA9
03EFC:  BCF    FA6.6
03EFE:  BCF    FA6.7
03F00:  BSF    FA6.0
03F02:  MOVF   FA8,W
03F04:  MOVLB  6
03F06:  BTFSC  x4E.7
03F08:  BSF    FF2.7
03F0A:  MOVLB  4
03F0C:  MOVWF  xEC
....................    delay_ms(10); 
03F0E:  MOVLW  0A
03F10:  MOVLB  6
03F12:  MOVWF  x56
03F14:  MOVLB  0
03F16:  CALL   1576
....................    Temporal=read_eeprom(30); 
03F1A:  MOVFF  FF2,64E
03F1E:  BCF    FF2.7
03F20:  CLRF   FAA
03F22:  MOVLW  1E
03F24:  MOVWF  FA9
03F26:  BCF    FA6.6
03F28:  BCF    FA6.7
03F2A:  BSF    FA6.0
03F2C:  MOVF   FA8,W
03F2E:  MOVLB  6
03F30:  BTFSC  x4E.7
03F32:  BSF    FF2.7
03F34:  CLRF   x54
03F36:  MOVWF  x53
03F38:  MOVLB  0
03F3A:  CALL   159E
03F3E:  MOVFF  03,569
03F42:  MOVFF  02,568
03F46:  MOVFF  01,567
03F4A:  MOVFF  00,566
....................    delay_ms(10); 
03F4E:  MOVLW  0A
03F50:  MOVLB  6
03F52:  MOVWF  x56
03F54:  MOVLB  0
03F56:  CALL   1576
....................    Temporal=Temporal/100.0; 
03F5A:  MOVFF  569,656
03F5E:  MOVFF  568,655
03F62:  MOVFF  567,654
03F66:  MOVFF  566,653
03F6A:  MOVLB  6
03F6C:  CLRF   x5A
03F6E:  CLRF   x59
03F70:  MOVLW  48
03F72:  MOVWF  x58
03F74:  MOVLW  85
03F76:  MOVWF  x57
03F78:  MOVLB  0
03F7A:  CALL   15D4
03F7E:  MOVFF  03,569
03F82:  MOVFF  02,568
03F86:  MOVFF  01,567
03F8A:  MOVFF  00,566
....................    zero_actual=Entero+Temporal; 
03F8E:  MOVLB  6
03F90:  CLRF   x54
03F92:  MOVFF  4EC,653
03F96:  MOVLB  0
03F98:  CALL   159E
03F9C:  BCF    FD8.1
03F9E:  MOVFF  03,65A
03FA2:  MOVFF  02,659
03FA6:  MOVFF  01,658
03FAA:  MOVFF  00,657
03FAE:  MOVFF  569,65E
03FB2:  MOVFF  568,65D
03FB6:  MOVFF  567,65C
03FBA:  MOVFF  566,65B
03FBE:  CALL   1732
03FC2:  MOVFF  03,5C9
03FC6:  MOVFF  02,5C8
03FCA:  MOVFF  01,5C7
03FCE:  MOVFF  00,5C6
....................     
....................    Diferencia=make16(read_eeprom(61),read_eeprom(60)); 
03FD2:  MOVFF  FF2,64E
03FD6:  BCF    FF2.7
03FD8:  CLRF   FAA
03FDA:  MOVLW  3D
03FDC:  MOVWF  FA9
03FDE:  BCF    FA6.6
03FE0:  BCF    FA6.7
03FE2:  BSF    FA6.0
03FE4:  MOVF   FA8,W
03FE6:  MOVLB  6
03FE8:  BTFSC  x4E.7
03FEA:  BSF    FF2.7
03FEC:  MOVWF  x4F
03FEE:  MOVFF  FF2,650
03FF2:  BCF    FF2.7
03FF4:  CLRF   FAA
03FF6:  MOVLW  3C
03FF8:  MOVWF  FA9
03FFA:  BCF    FA6.6
03FFC:  BCF    FA6.7
03FFE:  BSF    FA6.0
04000:  MOVF   FA8,W
04002:  BTFSC  x50.7
04004:  BSF    FF2.7
04006:  MOVWF  x51
04008:  MOVFF  64F,03
0400C:  MOVF   x51,W
0400E:  MOVWF  x53
04010:  MOVFF  03,654
04014:  MOVLB  0
04016:  CALL   159E
0401A:  MOVFF  03,539
0401E:  MOVFF  02,538
04022:  MOVFF  01,537
04026:  MOVFF  00,536
....................    delay_ms(10); 
0402A:  MOVLW  0A
0402C:  MOVLB  6
0402E:  MOVWF  x56
04030:  MOVLB  0
04032:  CALL   1576
....................    G=make16(read_eeprom(63),read_eeprom(62)); 
04036:  MOVFF  FF2,64E
0403A:  BCF    FF2.7
0403C:  CLRF   FAA
0403E:  MOVLW  3F
04040:  MOVWF  FA9
04042:  BCF    FA6.6
04044:  BCF    FA6.7
04046:  BSF    FA6.0
04048:  MOVF   FA8,W
0404A:  MOVLB  6
0404C:  BTFSC  x4E.7
0404E:  BSF    FF2.7
04050:  MOVWF  x4F
04052:  MOVFF  FF2,650
04056:  BCF    FF2.7
04058:  CLRF   FAA
0405A:  MOVLW  3E
0405C:  MOVWF  FA9
0405E:  BCF    FA6.6
04060:  BCF    FA6.7
04062:  BSF    FA6.0
04064:  MOVF   FA8,W
04066:  BTFSC  x50.7
04068:  BSF    FF2.7
0406A:  MOVWF  x51
0406C:  MOVFF  64F,03
04070:  MOVF   x51,W
04072:  MOVWF  x53
04074:  MOVFF  03,654
04078:  MOVLB  0
0407A:  CALL   159E
0407E:  MOVFF  03,5D5
04082:  MOVFF  02,5D4
04086:  MOVFF  01,5D3
0408A:  MOVFF  00,5D2
....................    delay_ms(10); 
0408E:  MOVLW  0A
04090:  MOVLB  6
04092:  MOVWF  x56
04094:  MOVLB  0
04096:  CALL   1576
....................    negativo=read_eeprom(50); 
0409A:  MOVFF  FF2,64E
0409E:  BCF    FF2.7
040A0:  CLRF   FAA
040A2:  MOVLW  32
040A4:  MOVWF  FA9
040A6:  BCF    FA6.6
040A8:  BCF    FA6.7
040AA:  BSF    FA6.0
040AC:  MOVF   FA8,W
040AE:  MOVLB  6
040B0:  BTFSC  x4E.7
040B2:  BSF    FF2.7
040B4:  MOVLB  4
040B6:  MOVWF  xE4
....................    delay_ms(10); 
040B8:  MOVLW  0A
040BA:  MOVLB  6
040BC:  MOVWF  x56
040BE:  MOVLB  0
040C0:  CALL   1576
....................  
....................    while(true){ 
....................    /*while(1){ 
....................    displayfloat(Vector[f], 20 , 45, 1,1); 
....................    displayfloat(BYTE_IR[2], 30 , 55, 1,1); 
....................    displayfloat(BYTE_IR[3], 60 , 55, 1,1); 
....................    displayfloat(n, 10 , 30, 1,1); 
....................    if(UP) 
....................       f++; 
....................        
....................    if(DOWN) 
....................       f--; 
....................        
....................    if(f>39) 
....................       f=0; 
....................    */ 
....................    if(NUEVO_DATO==1){ 
040C4:  MOVLB  4
040C6:  BTFSS  x22.2
040C8:  BRA    4282
....................          NUEVO_DATO=0; 
040CA:  BCF    x22.2
....................          BYTE_IR[0]=BIT_BYTE(BITS[0],BITS[1],BITS[2],BITS[3],BITS[4],BITS[5],BITS[6],BITS[7]); 
040CC:  MOVLW  00
040CE:  MOVLB  6
040D0:  BTFSC  x2A.0
040D2:  MOVLW  01
040D4:  MOVWF  x4E
040D6:  MOVLW  00
040D8:  BTFSC  x2A.1
040DA:  MOVLW  01
040DC:  MOVWF  x4F
040DE:  MOVLW  00
040E0:  BTFSC  x2A.2
040E2:  MOVLW  01
040E4:  MOVWF  x50
040E6:  MOVLW  00
040E8:  BTFSC  x2A.3
040EA:  MOVLW  01
040EC:  MOVWF  x51
040EE:  MOVLW  00
040F0:  BTFSC  x2A.4
040F2:  MOVLW  01
040F4:  MOVWF  x52
040F6:  MOVLW  00
040F8:  BTFSC  x2A.5
040FA:  MOVLW  01
040FC:  MOVWF  x53
040FE:  MOVLW  00
04100:  BTFSC  x2A.6
04102:  MOVLW  01
04104:  MOVWF  x54
04106:  MOVLW  00
04108:  BTFSC  x2A.7
0410A:  MOVLW  01
0410C:  MOVFF  64E,656
04110:  MOVFF  64F,657
04114:  MOVFF  650,658
04118:  MOVFF  651,659
0411C:  MOVFF  652,65A
04120:  MOVFF  653,65B
04124:  MOVFF  654,65C
04128:  MOVWF  x5D
0412A:  MOVLB  0
0412C:  CALL   19AA
04130:  MOVFF  01,634
....................          BYTE_IR[1]=BIT_BYTE(BITS[8],BITS[9],BITS[10],BITS[11],BITS[12],BITS[13],BITS[14],BITS[15]); 
04134:  MOVLW  00
04136:  MOVLB  6
04138:  BTFSC  x2B.0
0413A:  MOVLW  01
0413C:  MOVWF  x4E
0413E:  MOVLW  00
04140:  BTFSC  x2B.1
04142:  MOVLW  01
04144:  MOVWF  x4F
04146:  MOVLW  00
04148:  BTFSC  x2B.2
0414A:  MOVLW  01
0414C:  MOVWF  x50
0414E:  MOVLW  00
04150:  BTFSC  x2B.3
04152:  MOVLW  01
04154:  MOVWF  x51
04156:  MOVLW  00
04158:  BTFSC  x2B.4
0415A:  MOVLW  01
0415C:  MOVWF  x52
0415E:  MOVLW  00
04160:  BTFSC  x2B.5
04162:  MOVLW  01
04164:  MOVWF  x53
04166:  MOVLW  00
04168:  BTFSC  x2B.6
0416A:  MOVLW  01
0416C:  MOVWF  x54
0416E:  MOVLW  00
04170:  BTFSC  x2B.7
04172:  MOVLW  01
04174:  MOVFF  64E,656
04178:  MOVFF  64F,657
0417C:  MOVFF  650,658
04180:  MOVFF  651,659
04184:  MOVFF  652,65A
04188:  MOVFF  653,65B
0418C:  MOVFF  654,65C
04190:  MOVWF  x5D
04192:  MOVLB  0
04194:  CALL   19AA
04198:  MOVFF  01,635
....................          BYTE_IR[2]=BIT_BYTE(BITS[16],BITS[17],BITS[18],BITS[19],BITS[20],BITS[21],BITS[22],BITS[23]); 
0419C:  MOVLW  00
0419E:  MOVLB  6
041A0:  BTFSC  x2C.0
041A2:  MOVLW  01
041A4:  MOVWF  x4E
041A6:  MOVLW  00
041A8:  BTFSC  x2C.1
041AA:  MOVLW  01
041AC:  MOVWF  x4F
041AE:  MOVLW  00
041B0:  BTFSC  x2C.2
041B2:  MOVLW  01
041B4:  MOVWF  x50
041B6:  MOVLW  00
041B8:  BTFSC  x2C.3
041BA:  MOVLW  01
041BC:  MOVWF  x51
041BE:  MOVLW  00
041C0:  BTFSC  x2C.4
041C2:  MOVLW  01
041C4:  MOVWF  x52
041C6:  MOVLW  00
041C8:  BTFSC  x2C.5
041CA:  MOVLW  01
041CC:  MOVWF  x53
041CE:  MOVLW  00
041D0:  BTFSC  x2C.6
041D2:  MOVLW  01
041D4:  MOVWF  x54
041D6:  MOVLW  00
041D8:  BTFSC  x2C.7
041DA:  MOVLW  01
041DC:  MOVFF  64E,656
041E0:  MOVFF  64F,657
041E4:  MOVFF  650,658
041E8:  MOVFF  651,659
041EC:  MOVFF  652,65A
041F0:  MOVFF  653,65B
041F4:  MOVFF  654,65C
041F8:  MOVWF  x5D
041FA:  MOVLB  0
041FC:  CALL   19AA
04200:  MOVFF  01,636
....................          BYTE_IR[3]=BIT_BYTE(BITS[24],BITS[25],BITS[26],BITS[27],BITS[28],BITS[29],BITS[30],BITS[31]); 
04204:  MOVLW  00
04206:  MOVLB  6
04208:  BTFSC  x2D.0
0420A:  MOVLW  01
0420C:  MOVWF  x4E
0420E:  MOVLW  00
04210:  BTFSC  x2D.1
04212:  MOVLW  01
04214:  MOVWF  x4F
04216:  MOVLW  00
04218:  BTFSC  x2D.2
0421A:  MOVLW  01
0421C:  MOVWF  x50
0421E:  MOVLW  00
04220:  BTFSC  x2D.3
04222:  MOVLW  01
04224:  MOVWF  x51
04226:  MOVLW  00
04228:  BTFSC  x2D.4
0422A:  MOVLW  01
0422C:  MOVWF  x52
0422E:  MOVLW  00
04230:  BTFSC  x2D.5
04232:  MOVLW  01
04234:  MOVWF  x53
04236:  MOVLW  00
04238:  BTFSC  x2D.6
0423A:  MOVLW  01
0423C:  MOVWF  x54
0423E:  MOVLW  00
04240:  BTFSC  x2D.7
04242:  MOVLW  01
04244:  MOVFF  64E,656
04248:  MOVFF  64F,657
0424C:  MOVFF  650,658
04250:  MOVFF  651,659
04254:  MOVFF  652,65A
04258:  MOVFF  653,65B
0425C:  MOVFF  654,65C
04260:  MOVWF  x5D
04262:  MOVLB  0
04264:  CALL   19AA
04268:  MOVFF  01,637
....................           
....................          delay_ms(500); 
0426C:  MOVLW  02
0426E:  MOVLB  6
04270:  MOVWF  x4E
04272:  MOVLW  FA
04274:  MOVWF  x56
04276:  MOVLB  0
04278:  CALL   1576
0427C:  MOVLB  6
0427E:  DECFSZ x4E,F
04280:  BRA    4272
....................       } 
....................  
....................    if(BYTE_IR[3]==0XF2 && Menu!=200) //Bajar Vidrio 
04282:  MOVLB  6
04284:  MOVF   x37,W
04286:  SUBLW  F2
04288:  BNZ   42B0
0428A:  MOVLB  4
0428C:  MOVF   xE0,W
0428E:  SUBLW  C8
04290:  BTFSS  FD8.2
04292:  BRA    4298
04294:  MOVLB  6
04296:  BRA    42B0
....................    { 
....................       if(!VIDRIODN) 
04298:  BSF    F92.4
0429A:  BTFSC  F80.4
0429C:  BRA    42A8
....................       { 
....................          VidrioOff(); 
0429E:  MOVLB  0
042A0:  CALL   19EE
....................       } 
....................       else 
042A4:  BRA    42AE
042A6:  MOVLB  4
....................       { 
....................          BajarVidrio(); 
042A8:  MOVLB  0
042AA:  CALL   19F8
042AE:  MOVLB  6
....................       } 
....................    } 
....................     
....................    if(BYTE_IR[3]==0XE9 && Menu!=200) // Subir Vidrio 
042B0:  MOVF   x37,W
042B2:  SUBLW  E9
042B4:  BNZ   42DC
042B6:  MOVLB  4
042B8:  MOVF   xE0,W
042BA:  SUBLW  C8
042BC:  BTFSS  FD8.2
042BE:  BRA    42C4
042C0:  MOVLB  6
042C2:  BRA    42DC
....................    { 
....................       if(!VIDRIOUP) 
042C4:  BSF    F92.5
042C6:  BTFSC  F80.5
042C8:  BRA    42D4
....................       { 
....................          VidrioOff(); 
042CA:  MOVLB  0
042CC:  CALL   19EE
....................       } 
....................       else 
042D0:  BRA    42DA
042D2:  MOVLB  4
....................       { 
....................          SubirVidrio(); 
042D4:  MOVLB  0
042D6:  CALL   1A02
042DA:  MOVLB  6
....................       } 
....................    } 
....................    
....................    if(BYTE_IR[3]==0XE6) 
042DC:  MOVF   x37,W
042DE:  SUBLW  E6
042E0:  BNZ   42E8
....................    { 
....................       VidrioOff(); 
042E2:  MOVLB  0
042E4:  CALL   19EE
....................    } 
....................     
....................    glcd_update(); 
042E8:  MOVLB  0
042EA:  CALL   1A42
....................     
....................    if(Lectura==1) 
042EE:  MOVLB  4
042F0:  BTFSS  x21.6
042F2:  BRA    4330
....................    { 
....................       Lectura=0; 
042F4:  BCF    x21.6
....................       InFlow=LeerFlujoInFlow(8); 
042F6:  MOVLW  08
042F8:  MOVLB  6
042FA:  MOVWF  x4E
042FC:  MOVLB  0
042FE:  GOTO   1CA6
04302:  MOVFF  03,52D
04306:  MOVFF  02,52C
0430A:  MOVFF  01,52B
0430E:  MOVFF  00,52A
....................       Filtro_DownFlow=Leer_Sensor_Presion(8); 
04312:  MOVLW  08
04314:  MOVLB  6
04316:  MOVWF  x4E
04318:  MOVLB  0
0431A:  GOTO   2064
0431E:  MOVFF  03,535
04322:  MOVFF  02,534
04326:  MOVFF  01,533
0432A:  MOVFF  00,532
0432E:  MOVLB  4
....................    } 
....................     
....................    if(minutos_trabajo>=3600) // Tiempo de Trabajo 
04330:  MOVF   xFF,W
04332:  SUBLW  0D
04334:  BC    4380
04336:  XORLW  FF
04338:  BNZ   4340
0433A:  MOVF   xFE,W
0433C:  SUBLW  0F
0433E:  BC    4380
....................    { 
....................       minutos_trabajo=0; 
04340:  CLRF   xFF
04342:  CLRF   xFE
....................       Ttrabajo[0]++; 
04344:  MOVLB  5
04346:  INCF   x1E,F
....................       if(Ttrabajo[0]>9) 
04348:  BTFSC  x1E.7
0434A:  BRA    4356
0434C:  MOVF   x1E,W
0434E:  SUBLW  09
04350:  BC    4356
....................       { 
....................          Ttrabajo[0]=0; 
04352:  CLRF   x1E
....................          Ttrabajo[1]++; 
04354:  INCF   x1F,F
....................       } 
....................       if(Ttrabajo[1]>9) 
04356:  BTFSC  x1F.7
04358:  BRA    4364
0435A:  MOVF   x1F,W
0435C:  SUBLW  09
0435E:  BC    4364
....................       { 
....................          Ttrabajo[1]=0; 
04360:  CLRF   x1F
....................          Ttrabajo[2]++; 
04362:  INCF   x20,F
....................       } 
....................       if(Ttrabajo[2]>9) 
04364:  BTFSC  x20.7
04366:  BRA    4372
04368:  MOVF   x20,W
0436A:  SUBLW  09
0436C:  BC    4372
....................       { 
....................          Ttrabajo[2]=0; 
0436E:  CLRF   x20
....................          Ttrabajo[3]++; 
04370:  INCF   x21,F
....................       } 
....................       if(Ttrabajo[3]>9) 
04372:  BTFSC  x21.7
04374:  BRA    437E
04376:  MOVF   x21,W
04378:  SUBLW  09
0437A:  BC    437E
....................       { 
....................          Ttrabajo[3]=0; 
0437C:  CLRF   x21
0437E:  MOVLB  4
....................       } 
....................    }           
....................     
....................    if(Menu!=2) 
04380:  MOVF   xE0,W
04382:  SUBLW  02
04384:  BZ    438E
....................    { 
....................       Alarma_off; 
04386:  BCF    F8B.3
04388:  BCF    F94.3
....................       Alarma=10; 
0438A:  MOVLW  0A
0438C:  MOVWF  xF0
....................    } 
.................... //_-------------------------------------------------------------------------------------------------------------------------------------------------------- 
....................       if(Menu==0){ //Menu de Contrasea. 
0438E:  MOVF   xE0,F
04390:  BTFSS  FD8.2
04392:  BRA    4A5C
....................       flag_latencia=1; 
04394:  BSF    x21.3
....................       if(Latencia==1) 
04396:  BTFSS  x21.2
04398:  BRA    43BA
....................       { 
....................          glcd_fillScreen(OFF);glcd_init(OFF);Display_off;Menu=200;reset_cpu(); 
0439A:  MOVLB  6
0439C:  CLRF   x4F
0439E:  MOVLB  0
043A0:  CALL   225C
043A4:  MOVLB  6
043A6:  CLRF   x4E
043A8:  MOVLB  0
043AA:  CALL   22B6
043AE:  BCF    F8A.1
043B0:  BCF    F93.1
043B2:  MOVLW  C8
043B4:  MOVLB  4
043B6:  MOVWF  xE0
043B8:  RESET
....................       } 
....................        
....................       if(UP || BYTE_IR[2]==0X18)//Si oprime hacia arriba 
043BA:  BSF    F96.0
043BC:  BTFSC  F84.0
043BE:  BRA    43CA
043C0:  MOVLB  6
043C2:  MOVF   x36,W
043C4:  SUBLW  18
043C6:  BNZ   44AC
043C8:  MOVLB  4
....................       { 
....................          flag_latencia=0;t_latencia=0;BYTE_IR[2]=0X00; 
043CA:  BCF    x21.3
043CC:  CLRF   xFB
043CE:  CLRF   xFA
043D0:  MOVLB  6
043D2:  CLRF   x36
....................          if(Flanco == 0) 
043D4:  MOVLB  4
043D6:  BTFSC  x1F.0
043D8:  BRA    44A8
....................          { 
....................             Flanco = 1;delay_ms(5); 
043DA:  BSF    x1F.0
043DC:  MOVLW  05
043DE:  MOVLB  6
043E0:  MOVWF  x56
043E2:  MOVLB  0
043E4:  CALL   1576
....................             for(i=1;i<=4;i++) 
043E8:  MOVLW  01
043EA:  MOVLB  4
043EC:  MOVWF  x19
043EE:  MOVF   x19,W
043F0:  SUBLW  04
043F2:  BNC   44A8
....................             { 
....................                if(unidad==i) 
043F4:  MOVF   x19,W
043F6:  SUBWF  xE1,W
043F8:  BNZ   4470
....................                { 
....................                   Contrasena[i-1]++; 
043FA:  MOVLW  01
043FC:  SUBWF  x19,W
043FE:  CLRF   03
04400:  ADDLW  22
04402:  MOVWF  FE9
04404:  MOVLW  05
04406:  ADDWFC 03,W
04408:  MOVWF  FEA
0440A:  INCF   FEF,F
....................                   if(Contrasena[i-1]>9) 
0440C:  MOVLW  01
0440E:  SUBWF  x19,W
04410:  CLRF   03
04412:  ADDLW  22
04414:  MOVWF  FE9
04416:  MOVLW  05
04418:  ADDWFC 03,W
0441A:  MOVWF  FEA
0441C:  BTFSC  FEF.7
0441E:  BRA    4438
04420:  MOVF   FEF,W
04422:  SUBLW  09
04424:  BC    4438
....................                   { 
....................                      Contrasena[i-1]=0; 
04426:  MOVLW  01
04428:  SUBWF  x19,W
0442A:  CLRF   03
0442C:  ADDLW  22
0442E:  MOVWF  FE9
04430:  MOVLW  05
04432:  ADDWFC 03,W
04434:  MOVWF  FEA
04436:  CLRF   FEF
....................                   } 
....................                   displayContrasena(Contrasena[i-1],i*20,30,1); 
04438:  MOVLW  01
0443A:  SUBWF  x19,W
0443C:  CLRF   03
0443E:  ADDLW  22
04440:  MOVWF  FE9
04442:  MOVLW  05
04444:  ADDWFC 03,W
04446:  MOVWF  FEA
04448:  MOVFF  FEF,64E
0444C:  MOVF   x19,W
0444E:  MULLW  14
04450:  MOVFF  FF3,64F
04454:  MOVLB  6
04456:  MOVFF  64E,650
0445A:  MOVFF  64F,651
0445E:  MOVLW  1E
04460:  MOVWF  x52
04462:  MOVLW  01
04464:  MOVWF  x53
04466:  MOVLB  0
04468:  CALL   2912
....................                } 
....................                else 
0446C:  BRA    44A2
0446E:  MOVLB  4
....................                { 
....................                   displayContrasena(Contrasena[i-1],i*20,30,0); 
04470:  MOVLW  01
04472:  SUBWF  x19,W
04474:  CLRF   03
04476:  ADDLW  22
04478:  MOVWF  FE9
0447A:  MOVLW  05
0447C:  ADDWFC 03,W
0447E:  MOVWF  FEA
04480:  MOVFF  FEF,64E
04484:  MOVF   x19,W
04486:  MULLW  14
04488:  MOVFF  FF3,64F
0448C:  MOVLB  6
0448E:  MOVFF  64E,650
04492:  MOVFF  64F,651
04496:  MOVLW  1E
04498:  MOVWF  x52
0449A:  CLRF   x53
0449C:  MOVLB  0
0449E:  CALL   2912
....................                } 
....................             } 
044A2:  MOVLB  4
044A4:  INCF   x19,F
044A6:  BRA    43EE
....................          } 
....................       } 
....................       else 
044A8:  BRA    44B0
044AA:  MOVLB  6
....................       { 
....................          Flanco = 0; 
044AC:  MOVLB  4
044AE:  BCF    x1F.0
....................       } 
....................              
....................       if(DOWN || BYTE_IR[2]==0X52)//Si oprime hacia abajo 
044B0:  BSF    F96.1
044B2:  BTFSC  F84.1
044B4:  BRA    44C0
044B6:  MOVLB  6
044B8:  MOVF   x36,W
044BA:  SUBLW  52
044BC:  BNZ   45A0
044BE:  MOVLB  4
....................       { 
....................          flag_latencia=0;t_latencia=0;BYTE_IR[2]=0X00; 
044C0:  BCF    x21.3
044C2:  CLRF   xFB
044C4:  CLRF   xFA
044C6:  MOVLB  6
044C8:  CLRF   x36
....................          if(Flanco2 == 0) 
044CA:  MOVLB  4
044CC:  BTFSC  x1F.2
044CE:  BRA    459C
....................          { 
....................             Flanco2 = 1;delay_ms(5); 
044D0:  BSF    x1F.2
044D2:  MOVLW  05
044D4:  MOVLB  6
044D6:  MOVWF  x56
044D8:  MOVLB  0
044DA:  CALL   1576
....................             for(i=1;i<=4;i++) 
044DE:  MOVLW  01
044E0:  MOVLB  4
044E2:  MOVWF  x19
044E4:  MOVF   x19,W
044E6:  SUBLW  04
044E8:  BNC   459C
....................             { 
....................                if(unidad==i) 
044EA:  MOVF   x19,W
044EC:  SUBWF  xE1,W
044EE:  BNZ   4564
....................                { 
....................                   Contrasena[i-1]--; 
044F0:  MOVLW  01
044F2:  SUBWF  x19,W
044F4:  CLRF   03
044F6:  ADDLW  22
044F8:  MOVWF  FE9
044FA:  MOVLW  05
044FC:  ADDWFC 03,W
044FE:  MOVWF  FEA
04500:  DECF   FEF,F
....................                   if(Contrasena[i-1]<0) 
04502:  MOVLW  01
04504:  SUBWF  x19,W
04506:  CLRF   03
04508:  ADDLW  22
0450A:  MOVWF  FE9
0450C:  MOVLW  05
0450E:  ADDWFC 03,W
04510:  MOVWF  FEA
04512:  BTFSC  FEF.7
04514:  BRA    4518
04516:  BRA    452C
....................                   { 
....................                      Contrasena[i-1]=9;} 
04518:  MOVLW  01
0451A:  SUBWF  x19,W
0451C:  CLRF   03
0451E:  ADDLW  22
04520:  MOVWF  FE9
04522:  MOVLW  05
04524:  ADDWFC 03,W
04526:  MOVWF  FEA
04528:  MOVLW  09
0452A:  MOVWF  FEF
....................                      displayContrasena(Contrasena[i-1],i*20,30,1); 
0452C:  MOVLW  01
0452E:  SUBWF  x19,W
04530:  CLRF   03
04532:  ADDLW  22
04534:  MOVWF  FE9
04536:  MOVLW  05
04538:  ADDWFC 03,W
0453A:  MOVWF  FEA
0453C:  MOVFF  FEF,64E
04540:  MOVF   x19,W
04542:  MULLW  14
04544:  MOVFF  FF3,64F
04548:  MOVLB  6
0454A:  MOVFF  64E,650
0454E:  MOVFF  64F,651
04552:  MOVLW  1E
04554:  MOVWF  x52
04556:  MOVLW  01
04558:  MOVWF  x53
0455A:  MOVLB  0
0455C:  CALL   2912
....................                } 
....................                else 
04560:  BRA    4596
04562:  MOVLB  4
....................                { 
....................                   displayContrasena(Contrasena[i-1],i*20,30,0); 
04564:  MOVLW  01
04566:  SUBWF  x19,W
04568:  CLRF   03
0456A:  ADDLW  22
0456C:  MOVWF  FE9
0456E:  MOVLW  05
04570:  ADDWFC 03,W
04572:  MOVWF  FEA
04574:  MOVFF  FEF,64E
04578:  MOVF   x19,W
0457A:  MULLW  14
0457C:  MOVFF  FF3,64F
04580:  MOVLB  6
04582:  MOVFF  64E,650
04586:  MOVFF  64F,651
0458A:  MOVLW  1E
0458C:  MOVWF  x52
0458E:  CLRF   x53
04590:  MOVLB  0
04592:  CALL   2912
....................                } 
....................             }       
04596:  MOVLB  4
04598:  INCF   x19,F
0459A:  BRA    44E4
....................          }      
....................       } 
....................       else 
0459C:  BRA    45A4
0459E:  MOVLB  6
....................       { 
....................          Flanco2 = 0; 
045A0:  MOVLB  4
045A2:  BCF    x1F.2
....................       } 
....................              
....................       if(RIGHT || BYTE_IR[2]==0X5A)//Si oprime SET 
045A4:  BSF    F96.2
045A6:  BTFSC  F84.2
045A8:  BRA    45B4
045AA:  MOVLB  6
045AC:  MOVF   x36,W
045AE:  SUBLW  5A
045B0:  BNZ   465A
045B2:  MOVLB  4
....................       { 
....................          flag_latencia=0;t_latencia=0;BYTE_IR[2]=0X00; 
045B4:  BCF    x21.3
045B6:  CLRF   xFB
045B8:  CLRF   xFA
045BA:  MOVLB  6
045BC:  CLRF   x36
....................          if(Flanco1 == 0) 
045BE:  MOVLB  4
045C0:  BTFSC  x1F.1
045C2:  BRA    4656
....................          { 
....................             Flanco1 = 1;delay_ms(5);unidad++; 
045C4:  BSF    x1F.1
045C6:  MOVLW  05
045C8:  MOVLB  6
045CA:  MOVWF  x56
045CC:  MOVLB  0
045CE:  CALL   1576
045D2:  MOVLB  4
045D4:  INCF   xE1,F
....................             for(i=1;i<=4;i++) 
045D6:  MOVLW  01
045D8:  MOVWF  x19
045DA:  MOVF   x19,W
045DC:  SUBLW  04
045DE:  BNC   4656
....................             { 
....................                if(unidad==i) 
045E0:  MOVF   x19,W
045E2:  SUBWF  xE1,W
045E4:  BNZ   461E
....................                { 
....................                   displayContrasena(Contrasena[i-1],i*20,30,1); 
045E6:  MOVLW  01
045E8:  SUBWF  x19,W
045EA:  CLRF   03
045EC:  ADDLW  22
045EE:  MOVWF  FE9
045F0:  MOVLW  05
045F2:  ADDWFC 03,W
045F4:  MOVWF  FEA
045F6:  MOVFF  FEF,64E
045FA:  MOVF   x19,W
045FC:  MULLW  14
045FE:  MOVFF  FF3,64F
04602:  MOVLB  6
04604:  MOVFF  64E,650
04608:  MOVFF  64F,651
0460C:  MOVLW  1E
0460E:  MOVWF  x52
04610:  MOVLW  01
04612:  MOVWF  x53
04614:  MOVLB  0
04616:  CALL   2912
....................                } 
....................                else 
0461A:  BRA    4650
0461C:  MOVLB  4
....................                { 
....................                   displayContrasena(Contrasena[i-1],i*20,30,0); 
0461E:  MOVLW  01
04620:  SUBWF  x19,W
04622:  CLRF   03
04624:  ADDLW  22
04626:  MOVWF  FE9
04628:  MOVLW  05
0462A:  ADDWFC 03,W
0462C:  MOVWF  FEA
0462E:  MOVFF  FEF,64E
04632:  MOVF   x19,W
04634:  MULLW  14
04636:  MOVFF  FF3,64F
0463A:  MOVLB  6
0463C:  MOVFF  64E,650
04640:  MOVFF  64F,651
04644:  MOVLW  1E
04646:  MOVWF  x52
04648:  CLRF   x53
0464A:  MOVLB  0
0464C:  CALL   2912
....................                } 
....................             } 
04650:  MOVLB  4
04652:  INCF   x19,F
04654:  BRA    45DA
....................          } 
....................       } 
....................       else 
04656:  BRA    465E
04658:  MOVLB  6
....................       { 
....................          Flanco1 = 0; 
0465A:  MOVLB  4
0465C:  BCF    x1F.1
....................       } 
....................      
....................       if(unidad>4) 
0465E:  MOVF   xE1,W
04660:  SUBLW  04
04662:  BTFSC  FD8.0
04664:  BRA    4A5C
....................       { 
....................          glcd_fillScreen(OFF);unidad=4;flag_latencia=0;t_latencia=0; 
04666:  MOVLB  6
04668:  CLRF   x4F
0466A:  MOVLB  0
0466C:  CALL   225C
04670:  MOVLW  04
04672:  MOVLB  4
04674:  MOVWF  xE1
04676:  BCF    x21.3
04678:  CLRF   xFB
0467A:  CLRF   xFA
....................          if(Contrasena[0]==3&&Contrasena[1]==8&&Contrasena[2]==9&&Contrasena[3]==2) // Si Ingresa clave para reset general del sistema. 
0467C:  MOVLB  5
0467E:  MOVF   x22,W
04680:  SUBLW  03
04682:  BTFSS  FD8.2
04684:  BRA    4772
04686:  MOVF   x23,W
04688:  SUBLW  08
0468A:  BNZ   4772
0468C:  MOVF   x24,W
0468E:  SUBLW  09
04690:  BNZ   4772
04692:  MOVF   x25,W
04694:  SUBLW  02
04696:  BNZ   4772
....................          { 
....................             write_eeprom(0,0);delay_ms(20);write_eeprom(1,0);delay_ms(20);// Reestablece a contrasea de Fabrica y reinicia Programa. 
04698:  CLRF   FAA
0469A:  CLRF   FA9
0469C:  CLRF   FA8
0469E:  BCF    FA6.6
046A0:  BCF    FA6.7
046A2:  BSF    FA6.2
046A4:  MOVF   FF2,W
046A6:  MOVWF  00
046A8:  BCF    FF2.7
046AA:  MOVLB  F
046AC:  MOVLW  55
046AE:  MOVWF  FA7
046B0:  MOVLW  AA
046B2:  MOVWF  FA7
046B4:  BSF    FA6.1
046B6:  BTFSC  FA6.1
046B8:  BRA    46B6
046BA:  BCF    FA6.2
046BC:  MOVF   00,W
046BE:  IORWF  FF2,F
046C0:  MOVLW  14
046C2:  MOVLB  6
046C4:  MOVWF  x56
046C6:  MOVLB  0
046C8:  CALL   1576
046CC:  CLRF   FAA
046CE:  MOVLW  01
046D0:  MOVWF  FA9
046D2:  CLRF   FA8
046D4:  BCF    FA6.6
046D6:  BCF    FA6.7
046D8:  BSF    FA6.2
046DA:  MOVF   FF2,W
046DC:  MOVWF  00
046DE:  BCF    FF2.7
046E0:  MOVLB  F
046E2:  MOVLW  55
046E4:  MOVWF  FA7
046E6:  MOVLW  AA
046E8:  MOVWF  FA7
046EA:  BSF    FA6.1
046EC:  BTFSC  FA6.1
046EE:  BRA    46EC
046F0:  BCF    FA6.2
046F2:  MOVF   00,W
046F4:  IORWF  FF2,F
046F6:  MOVLW  14
046F8:  MOVLB  6
046FA:  MOVWF  x56
046FC:  MOVLB  0
046FE:  CALL   1576
....................             write_eeprom(2,0);delay_ms(20);write_eeprom(3,0);delay_ms(20); 
04702:  CLRF   FAA
04704:  MOVLW  02
04706:  MOVWF  FA9
04708:  CLRF   FA8
0470A:  BCF    FA6.6
0470C:  BCF    FA6.7
0470E:  BSF    FA6.2
04710:  MOVF   FF2,W
04712:  MOVWF  00
04714:  BCF    FF2.7
04716:  MOVLB  F
04718:  MOVLW  55
0471A:  MOVWF  FA7
0471C:  MOVLW  AA
0471E:  MOVWF  FA7
04720:  BSF    FA6.1
04722:  BTFSC  FA6.1
04724:  BRA    4722
04726:  BCF    FA6.2
04728:  MOVF   00,W
0472A:  IORWF  FF2,F
0472C:  MOVLW  14
0472E:  MOVLB  6
04730:  MOVWF  x56
04732:  MOVLB  0
04734:  CALL   1576
04738:  CLRF   FAA
0473A:  MOVLW  03
0473C:  MOVWF  FA9
0473E:  CLRF   FA8
04740:  BCF    FA6.6
04742:  BCF    FA6.7
04744:  BSF    FA6.2
04746:  MOVF   FF2,W
04748:  MOVWF  00
0474A:  BCF    FF2.7
0474C:  MOVLB  F
0474E:  MOVLW  55
04750:  MOVWF  FA7
04752:  MOVLW  AA
04754:  MOVWF  FA7
04756:  BSF    FA6.1
04758:  BTFSC  FA6.1
0475A:  BRA    4758
0475C:  BCF    FA6.2
0475E:  MOVF   00,W
04760:  IORWF  FF2,F
04762:  MOVLW  14
04764:  MOVLB  6
04766:  MOVWF  x56
04768:  MOVLB  0
0476A:  CALL   1576
....................             reset_cpu(); 
0476E:  RESET
04770:  MOVLB  5
....................          } 
....................        
....................          if((Contrasena[0]==Password[0])&&(Contrasena[1]==Password[1])&&(Contrasena[2]==Password[2])&&(Contrasena[3]==Password[3])) 
04772:  MOVF   x26,W
04774:  SUBWF  x22,W
04776:  BTFSS  FD8.2
04778:  BRA    48E4
0477A:  MOVF   x27,W
0477C:  SUBWF  x23,W
0477E:  BTFSS  FD8.2
04780:  BRA    48E4
04782:  MOVF   x28,W
04784:  SUBWF  x24,W
04786:  BTFSS  FD8.2
04788:  BRA    48E4
0478A:  MOVF   x29,W
0478C:  SUBWF  x25,W
0478E:  BTFSS  FD8.2
04790:  BRA    48E4
....................          { 
....................             glcd_fillScreen(OFF); 
04792:  MOVLB  6
04794:  CLRF   x4F
04796:  MOVLB  0
04798:  CALL   225C
....................             strcpy(Menus.Letra,"Clave"); 
0479C:  MOVLW  06
0479E:  MOVWF  FEA
047A0:  MOVLW  38
047A2:  MOVWF  FE9
047A4:  MOVFF  FF2,64E
047A8:  BCF    FF2.7
047AA:  MOVLW  00
047AC:  CALL   0F16
047B0:  TBLRD*-
047B2:  TBLRD*+
047B4:  MOVF   FF5,W
047B6:  MOVWF  FEE
047B8:  IORLW  00
047BA:  BNZ   47B2
047BC:  MOVLB  6
047BE:  BTFSC  x4E.7
047C0:  BSF    FF2.7
....................             displayMenu(Menus.Letra,30,0,0,2); 
047C2:  MOVLW  06
047C4:  MOVWF  x4F
047C6:  MOVLW  38
047C8:  MOVWF  x4E
047CA:  MOVLW  1E
047CC:  MOVWF  x50
047CE:  CLRF   x51
047D0:  CLRF   x52
047D2:  MOVLW  02
047D4:  MOVWF  x53
047D6:  MOVLB  0
047D8:  CALL   29C8
....................             strcpy(Menus.Letra,"Correcta"); 
047DC:  MOVLW  06
047DE:  MOVWF  FEA
047E0:  MOVLW  38
047E2:  MOVWF  FE9
047E4:  MOVFF  FF2,64E
047E8:  BCF    FF2.7
047EA:  MOVLW  00
047EC:  CALL   0F3A
047F0:  TBLRD*-
047F2:  TBLRD*+
047F4:  MOVF   FF5,W
047F6:  MOVWF  FEE
047F8:  IORLW  00
047FA:  BNZ   47F2
047FC:  MOVLB  6
047FE:  BTFSC  x4E.7
04800:  BSF    FF2.7
....................             displayMenu(Menus.Letra,15,30,0,2); 
04802:  MOVLW  06
04804:  MOVWF  x4F
04806:  MOVLW  38
04808:  MOVWF  x4E
0480A:  MOVLW  0F
0480C:  MOVWF  x50
0480E:  MOVLW  1E
04810:  MOVWF  x51
04812:  CLRF   x52
04814:  MOVLW  02
04816:  MOVWF  x53
04818:  MOVLB  0
0481A:  CALL   29C8
....................             Menu=1;glcd_update();delay_ms(1000);glcd_fillScreen(OFF); 
0481E:  MOVLW  01
04820:  MOVLB  4
04822:  MOVWF  xE0
04824:  MOVLB  0
04826:  CALL   1A42
0482A:  MOVLW  04
0482C:  MOVLB  6
0482E:  MOVWF  x4E
04830:  MOVLW  FA
04832:  MOVWF  x56
04834:  MOVLB  0
04836:  CALL   1576
0483A:  MOVLB  6
0483C:  DECFSZ x4E,F
0483E:  BRA    4830
04840:  CLRF   x4F
04842:  MOVLB  0
04844:  CALL   225C
....................             Contrasena[0]=0;Contrasena[1]=0;Contrasena[2]=0;Contrasena[3]=0; 
04848:  MOVLB  5
0484A:  CLRF   x22
0484C:  CLRF   x23
0484E:  CLRF   x24
04850:  CLRF   x25
....................             displayTiempo(Tpurga[3],20,20,0,2);displayTiempo(Tpurga[2],40,20,0,2);glcd_text57(60, 22, Dos_puntos, 2, ON); 
04852:  MOVFF  505,64E
04856:  MOVLW  14
04858:  MOVLB  6
0485A:  MOVWF  x4F
0485C:  MOVWF  x50
0485E:  CLRF   x51
04860:  MOVLW  02
04862:  MOVWF  x52
04864:  MOVLB  0
04866:  CALL   2A94
0486A:  MOVFF  504,64E
0486E:  MOVLW  28
04870:  MOVLB  6
04872:  MOVWF  x4F
04874:  MOVLW  14
04876:  MOVWF  x50
04878:  CLRF   x51
0487A:  MOVLW  02
0487C:  MOVWF  x52
0487E:  MOVLB  0
04880:  CALL   2A94
04884:  MOVLW  3C
04886:  MOVLB  6
04888:  MOVWF  x65
0488A:  MOVLW  16
0488C:  MOVWF  x66
0488E:  MOVLW  04
04890:  MOVWF  x68
04892:  MOVLW  4A
04894:  MOVWF  x67
04896:  MOVLW  02
04898:  MOVWF  x69
0489A:  MOVLW  01
0489C:  MOVWF  x6A
0489E:  MOVLB  0
048A0:  CALL   275A
....................             displayTiempo(Tpurga[1],70,20,0,2);displayTiempo(Tpurga[0],90,20,0,2); 
048A4:  MOVFF  503,64E
048A8:  MOVLW  46
048AA:  MOVLB  6
048AC:  MOVWF  x4F
048AE:  MOVLW  14
048B0:  MOVWF  x50
048B2:  CLRF   x51
048B4:  MOVLW  02
048B6:  MOVWF  x52
048B8:  MOVLB  0
048BA:  CALL   2A94
048BE:  MOVFF  502,64E
048C2:  MOVLW  5A
048C4:  MOVLB  6
048C6:  MOVWF  x4F
048C8:  MOVLW  14
048CA:  MOVWF  x50
048CC:  CLRF   x51
048CE:  MOVLW  02
048D0:  MOVWF  x52
048D2:  MOVLB  0
048D4:  CALL   2A94
....................             enable_interrupts(global);tiempo_purga=1; 
048D8:  MOVLW  C0
048DA:  IORWF  FF2,F
048DC:  MOVLB  4
048DE:  BSF    x20.6
....................          }// Esta parte se puede agregar en el Menu 1 dependiendo de la ubicacin del vidrio. 
....................          else 
048E0:  BRA    4A5C
048E2:  MOVLB  5
....................          { 
....................             glcd_fillScreen(OFF); 
048E4:  MOVLB  6
048E6:  CLRF   x4F
048E8:  MOVLB  0
048EA:  CALL   225C
....................             strcpy(Menus.Letra,"Clave"); 
048EE:  MOVLW  06
048F0:  MOVWF  FEA
048F2:  MOVLW  38
048F4:  MOVWF  FE9
048F6:  MOVFF  FF2,64E
048FA:  BCF    FF2.7
048FC:  MOVLW  00
048FE:  CALL   0F16
04902:  TBLRD*-
04904:  TBLRD*+
04906:  MOVF   FF5,W
04908:  MOVWF  FEE
0490A:  IORLW  00
0490C:  BNZ   4904
0490E:  MOVLB  6
04910:  BTFSC  x4E.7
04912:  BSF    FF2.7
....................             displayMenu(Menus.Letra,30,0,0,2); 
04914:  MOVLW  06
04916:  MOVWF  x4F
04918:  MOVLW  38
0491A:  MOVWF  x4E
0491C:  MOVLW  1E
0491E:  MOVWF  x50
04920:  CLRF   x51
04922:  CLRF   x52
04924:  MOVLW  02
04926:  MOVWF  x53
04928:  MOVLB  0
0492A:  CALL   29C8
....................             strcpy(Menus.Letra,"Incorrecta"); 
0492E:  MOVLW  06
04930:  MOVWF  FEA
04932:  MOVLW  38
04934:  MOVWF  FE9
04936:  MOVFF  FF2,64E
0493A:  BCF    FF2.7
0493C:  MOVLW  00
0493E:  CALL   0F62
04942:  TBLRD*-
04944:  TBLRD*+
04946:  MOVF   FF5,W
04948:  MOVWF  FEE
0494A:  IORLW  00
0494C:  BNZ   4944
0494E:  MOVLB  6
04950:  BTFSC  x4E.7
04952:  BSF    FF2.7
....................             displayMenu(Menus.Letra,0,30,0,2); 
04954:  MOVLW  06
04956:  MOVWF  x4F
04958:  MOVLW  38
0495A:  MOVWF  x4E
0495C:  CLRF   x50
0495E:  MOVLW  1E
04960:  MOVWF  x51
04962:  CLRF   x52
04964:  MOVLW  02
04966:  MOVWF  x53
04968:  MOVLB  0
0496A:  CALL   29C8
....................             unidad=1;glcd_update();delay_ms(1000);Contrasena[0]=0;Contrasena[1]=0;Contrasena[2]=0;Contrasena[3]=0;glcd_fillScreen(OFF); 
0496E:  MOVLW  01
04970:  MOVLB  4
04972:  MOVWF  xE1
04974:  MOVLB  0
04976:  CALL   1A42
0497A:  MOVLW  04
0497C:  MOVLB  6
0497E:  MOVWF  x4E
04980:  MOVLW  FA
04982:  MOVWF  x56
04984:  MOVLB  0
04986:  CALL   1576
0498A:  MOVLB  6
0498C:  DECFSZ x4E,F
0498E:  BRA    4980
04990:  MOVLB  5
04992:  CLRF   x22
04994:  CLRF   x23
04996:  CLRF   x24
04998:  CLRF   x25
0499A:  MOVLB  6
0499C:  CLRF   x4F
0499E:  MOVLB  0
049A0:  CALL   225C
....................             glcd_rect(0, 0, 127, 25, YES, ON);strcpy(Menus.Letra,"Clave");glcd_text57(25, 1, Menus.Letra, 3, OFF);displayContrasena(Contrasena[0],20,30,1); 
049A4:  MOVLB  6
049A6:  CLRF   x65
049A8:  CLRF   x66
049AA:  MOVLW  7F
049AC:  MOVWF  x67
049AE:  MOVLW  19
049B0:  MOVWF  x68
049B2:  MOVLW  01
049B4:  MOVWF  x69
049B6:  MOVWF  x6A
049B8:  MOVLB  0
049BA:  CALL   2698
049BE:  MOVLW  06
049C0:  MOVWF  FEA
049C2:  MOVLW  38
049C4:  MOVWF  FE9
049C6:  MOVFF  FF2,64E
049CA:  BCF    FF2.7
049CC:  MOVLW  00
049CE:  CALL   0F16
049D2:  TBLRD*-
049D4:  TBLRD*+
049D6:  MOVF   FF5,W
049D8:  MOVWF  FEE
049DA:  IORLW  00
049DC:  BNZ   49D4
049DE:  MOVLB  6
049E0:  BTFSC  x4E.7
049E2:  BSF    FF2.7
049E4:  MOVLW  19
049E6:  MOVWF  x65
049E8:  MOVLW  01
049EA:  MOVWF  x66
049EC:  MOVLW  06
049EE:  MOVWF  x68
049F0:  MOVLW  38
049F2:  MOVWF  x67
049F4:  MOVLW  03
049F6:  MOVWF  x69
049F8:  CLRF   x6A
049FA:  MOVLB  0
049FC:  CALL   275A
04A00:  MOVFF  522,650
04A04:  MOVLW  14
04A06:  MOVLB  6
04A08:  MOVWF  x51
04A0A:  MOVLW  1E
04A0C:  MOVWF  x52
04A0E:  MOVLW  01
04A10:  MOVWF  x53
04A12:  MOVLB  0
04A14:  CALL   2912
....................             displayContrasena(Contrasena[1],40,30,0);displayContrasena(Contrasena[2],60,30,0);displayContrasena(Contrasena[0],80,30,0); 
04A18:  MOVFF  523,650
04A1C:  MOVLW  28
04A1E:  MOVLB  6
04A20:  MOVWF  x51
04A22:  MOVLW  1E
04A24:  MOVWF  x52
04A26:  CLRF   x53
04A28:  MOVLB  0
04A2A:  CALL   2912
04A2E:  MOVFF  524,650
04A32:  MOVLW  3C
04A34:  MOVLB  6
04A36:  MOVWF  x51
04A38:  MOVLW  1E
04A3A:  MOVWF  x52
04A3C:  CLRF   x53
04A3E:  MOVLB  0
04A40:  CALL   2912
04A44:  MOVFF  522,650
04A48:  MOVLW  50
04A4A:  MOVLB  6
04A4C:  MOVWF  x51
04A4E:  MOVLW  1E
04A50:  MOVWF  x52
04A52:  CLRF   x53
04A54:  MOVLB  0
04A56:  CALL   2912
04A5A:  MOVLB  4
....................          } 
....................       } 
....................       } 
.................... //_--------------------------------------------------------------------------------------------------------------------------------------------------------        
....................  
.................... //_-------------------------------------------------------------------------------------------------------------------------------------------------------- 
....................       if(Menu==1)//Menu de Purga. 
04A5C:  DECFSZ xE0,W
04A5E:  BRA    4C2C
....................       {  
....................          glcd_text57(15, 1, Tiempo, 1, ON); 
04A60:  MOVLW  0F
04A62:  MOVLB  6
04A64:  MOVWF  x65
04A66:  MOVLW  01
04A68:  MOVWF  x66
04A6A:  MOVLW  04
04A6C:  MOVWF  x68
04A6E:  MOVLW  55
04A70:  MOVWF  x67
04A72:  MOVLW  01
04A74:  MOVWF  x69
04A76:  MOVWF  x6A
04A78:  MOVLB  0
04A7A:  CALL   275A
....................          // Para que inicie el tiempo de purga se debe tener el vidrio en la altura adecuada. 
....................          // Una vez ubicado el vidrio se debe encender la Luz Blanca y el Ventilador e iniciar el Tiempo de purga. 
....................          //Motor(1); 
....................           
....................          if(!VIDRIOOK) 
04A7E:  BSF    F92.3
04A80:  BTFSC  F80.3
04A82:  BRA    4ABE
....................          { 
....................             tiempo_purga=1;LuzBlanca_off;LuzUV_off;Toma_off;Alarma_off;Motor_on; 
04A84:  MOVLB  4
04A86:  BSF    x20.6
04A88:  BCF    F8B.4
04A8A:  BCF    F94.4
04A8C:  BCF    F8B.5
04A8E:  BCF    F94.5
04A90:  BCF    F8B.7
04A92:  BCF    F94.7
04A94:  BCF    F8B.3
04A96:  BCF    F94.3
04A98:  BSF    F8B.6
04A9A:  BCF    F94.6
....................             glcd_rect(9, 54, 120, 64, YES, OFF);VidrioOff(); 
04A9C:  MOVLW  09
04A9E:  MOVLB  6
04AA0:  MOVWF  x65
04AA2:  MOVLW  36
04AA4:  MOVWF  x66
04AA6:  MOVLW  78
04AA8:  MOVWF  x67
04AAA:  MOVLW  40
04AAC:  MOVWF  x68
04AAE:  MOVLW  01
04AB0:  MOVWF  x69
04AB2:  CLRF   x6A
04AB4:  MOVLB  0
04AB6:  CALL   2698
04ABA:  CALL   19EE
....................          }  
....................          if(VIDRIOOK) 
04ABE:  BSF    F92.3
04AC0:  BTFSS  F80.3
04AC2:  BRA    4AF0
....................          { 
....................             Motor_off;tiempo_purga=0;glcd_text57(10,55, Baje_Vidrio, 1, ON);             
04AC4:  BCF    F8B.6
04AC6:  BCF    F94.6
04AC8:  MOVLB  4
04ACA:  BCF    x20.6
04ACC:  MOVLW  0A
04ACE:  MOVLB  6
04AD0:  MOVWF  x65
04AD2:  MOVLW  37
04AD4:  MOVWF  x66
04AD6:  MOVLW  04
04AD8:  MOVWF  x68
04ADA:  MOVLW  68
04ADC:  MOVWF  x67
04ADE:  MOVLW  01
04AE0:  MOVWF  x69
04AE2:  MOVWF  x6A
04AE4:  MOVLB  0
04AE6:  CALL   275A
....................             AjustarOK=5; 
04AEA:  MOVLW  05
04AEC:  MOVLB  4
04AEE:  MOVWF  x1A
....................          } 
....................        
....................          displayTiempo(Tpurga[3],20,20,0,2);displayTiempo(Tpurga[2],40,20,0,2);glcd_text57(60, 22, Dos_puntos, 2, ON); 
04AF0:  MOVFF  505,64E
04AF4:  MOVLW  14
04AF6:  MOVLB  6
04AF8:  MOVWF  x4F
04AFA:  MOVWF  x50
04AFC:  CLRF   x51
04AFE:  MOVLW  02
04B00:  MOVWF  x52
04B02:  MOVLB  0
04B04:  CALL   2A94
04B08:  MOVFF  504,64E
04B0C:  MOVLW  28
04B0E:  MOVLB  6
04B10:  MOVWF  x4F
04B12:  MOVLW  14
04B14:  MOVWF  x50
04B16:  CLRF   x51
04B18:  MOVLW  02
04B1A:  MOVWF  x52
04B1C:  MOVLB  0
04B1E:  CALL   2A94
04B22:  MOVLW  3C
04B24:  MOVLB  6
04B26:  MOVWF  x65
04B28:  MOVLW  16
04B2A:  MOVWF  x66
04B2C:  MOVLW  04
04B2E:  MOVWF  x68
04B30:  MOVLW  4A
04B32:  MOVWF  x67
04B34:  MOVLW  02
04B36:  MOVWF  x69
04B38:  MOVLW  01
04B3A:  MOVWF  x6A
04B3C:  MOVLB  0
04B3E:  CALL   275A
....................          displayTiempo(Tpurga[1],70,20,0,2);displayTiempo(Tpurga[0],90,20,0,2);         
04B42:  MOVFF  503,64E
04B46:  MOVLW  46
04B48:  MOVLB  6
04B4A:  MOVWF  x4F
04B4C:  MOVLW  14
04B4E:  MOVWF  x50
04B50:  CLRF   x51
04B52:  MOVLW  02
04B54:  MOVWF  x52
04B56:  MOVLB  0
04B58:  CALL   2A94
04B5C:  MOVFF  502,64E
04B60:  MOVLW  5A
04B62:  MOVLB  6
04B64:  MOVWF  x4F
04B66:  MOVLW  14
04B68:  MOVWF  x50
04B6A:  CLRF   x51
04B6C:  MOVLW  02
04B6E:  MOVWF  x52
04B70:  MOVLB  0
04B72:  CALL   2A94
....................        
....................          if(RIGHT || BYTE_IR[2]==0X1C) 
04B76:  BSF    F96.2
04B78:  BTFSC  F84.2
04B7A:  BRA    4B86
04B7C:  MOVLB  6
04B7E:  MOVF   x36,W
04B80:  SUBLW  1C
04B82:  BNZ   4BD0
04B84:  MOVLB  0
....................          { 
....................             delay_ms(1000); 
04B86:  MOVLW  04
04B88:  MOVLB  6
04B8A:  MOVWF  x4E
04B8C:  MOVLW  FA
04B8E:  MOVWF  x56
04B90:  MOVLB  0
04B92:  CALL   1576
04B96:  MOVLB  6
04B98:  DECFSZ x4E,F
04B9A:  BRA    4B8C
....................             if(RIGHT || BYTE_IR[2]==0X1C) 
04B9C:  BSF    F96.2
04B9E:  BTFSC  F84.2
04BA0:  BRA    4BA8
04BA2:  MOVF   x36,W
04BA4:  SUBLW  1C
04BA6:  BNZ   4BD0
....................             { 
....................                tiempo_purga=0;Menu=2;glcd_fillScreen(OFF);BYTE_IR[2]=0X00; 
04BA8:  MOVLB  4
04BAA:  BCF    x20.6
04BAC:  MOVLW  02
04BAE:  MOVWF  xE0
04BB0:  MOVLB  6
04BB2:  CLRF   x4F
04BB4:  MOVLB  0
04BB6:  CALL   225C
04BBA:  MOVLB  6
04BBC:  CLRF   x36
....................                AjustarOK=10;AjustarUP=10;AjustarUV=10;VidrioOff(); 
04BBE:  MOVLW  0A
04BC0:  MOVLB  4
04BC2:  MOVWF  x1A
04BC4:  MOVWF  x1C
04BC6:  MOVWF  x1B
04BC8:  MOVLB  0
04BCA:  CALL   19EE
04BCE:  MOVLB  6
....................             } 
....................          } 
....................         
....................          if((Tpurga[0]>=Tpurgap[0])&&(Tpurga[1]>=Tpurgap[1])&&(Tpurga[2]>=Tpurgap[2])&&(Tpurga[3]>=Tpurgap[3])) 
04BD0:  MOVLB  5
04BD2:  MOVF   x06,W
04BD4:  XORLW  80
04BD6:  MOVWF  00
04BD8:  MOVF   x02,W
04BDA:  XORLW  80
04BDC:  SUBWF  00,W
04BDE:  BZ    4BE2
04BE0:  BC    4C2E
04BE2:  MOVF   x07,W
04BE4:  XORLW  80
04BE6:  MOVWF  00
04BE8:  MOVF   x03,W
04BEA:  XORLW  80
04BEC:  SUBWF  00,W
04BEE:  BZ    4BF2
04BF0:  BC    4C2E
04BF2:  MOVF   x08,W
04BF4:  XORLW  80
04BF6:  MOVWF  00
04BF8:  MOVF   x04,W
04BFA:  XORLW  80
04BFC:  SUBWF  00,W
04BFE:  BZ    4C02
04C00:  BC    4C2E
04C02:  MOVF   x09,W
04C04:  XORLW  80
04C06:  MOVWF  00
04C08:  MOVF   x05,W
04C0A:  XORLW  80
04C0C:  SUBWF  00,W
04C0E:  BZ    4C12
04C10:  BC    4C2E
....................          { 
....................             tiempo_purga=0;Menu=2;glcd_fillScreen(OFF);flag_luz=!flag_luz;flag_blower=1;flag_toma=1; 
04C12:  MOVLB  4
04C14:  BCF    x20.6
04C16:  MOVLW  02
04C18:  MOVWF  xE0
04C1A:  MOVLB  6
04C1C:  CLRF   x4F
04C1E:  MOVLB  0
04C20:  CALL   225C
04C24:  MOVLB  4
04C26:  BTG    x20.3
04C28:  BSF    x20.1
04C2A:  BSF    x20.2
04C2C:  MOVLB  5
....................          }       
....................       } 
.................... //_--------------------------------------------------------------------------------------------------------------------------------------------------------        
....................  
....................  
....................          if(AjustarOK==5) 
04C2E:  MOVLB  4
04C30:  MOVF   x1A,W
04C32:  SUBLW  05
04C34:  BNZ   4C40
....................          { 
....................             AjustarVidrioOK(); 
04C36:  MOVLB  0
04C38:  GOTO   2B62
....................          } 
....................          else 
04C3C:  BRA    4C5C
04C3E:  MOVLB  4
....................          { 
....................             if(AjustarUV==5) 
04C40:  MOVF   x1B,W
04C42:  SUBLW  05
04C44:  BNZ   4C50
....................             { 
....................                AjustarVidrioUV(); 
04C46:  MOVLB  0
04C48:  GOTO   2BEC
....................             } 
....................             else 
04C4C:  BRA    4C5C
04C4E:  MOVLB  4
....................             { 
....................                if(AjustarUP==5) 
04C50:  MOVF   x1C,W
04C52:  SUBLW  05
04C54:  BNZ   4C5E
....................                { 
....................                   AjustarVidrioUP(); 
04C56:  MOVLB  0
04C58:  GOTO   2C62
04C5C:  MOVLB  4
....................                } 
....................             } 
....................          } 
....................           
.................... //_-------------------------------------------------------------------------------------------------------------------------------------------------------- 
....................       if(Menu==2) //Menu General. 
04C5E:  MOVF   xE0,W
04C60:  SUBLW  02
04C62:  BTFSS  FD8.2
04C64:  GOTO   591C
....................       {          
....................          w=0; 
04C68:  BCF    x20.5
....................          glcd_text57(0, 1, Inflowt, 1, ON); 
04C6A:  MOVLB  6
04C6C:  CLRF   x65
04C6E:  MOVLW  01
04C70:  MOVWF  x66
04C72:  MOVLW  04
04C74:  MOVWF  x68
04C76:  MOVLW  7A
04C78:  MOVWF  x67
04C7A:  MOVLW  01
04C7C:  MOVWF  x69
04C7E:  MOVWF  x6A
04C80:  MOVLB  0
04C82:  CALL   275A
....................          glcd_text57(0, 15, Downflowt, 1, ON); 
04C86:  MOVLB  6
04C88:  CLRF   x65
04C8A:  MOVLW  0F
04C8C:  MOVWF  x66
04C8E:  MOVLW  04
04C90:  MOVWF  x68
04C92:  MOVLW  87
04C94:  MOVWF  x67
04C96:  MOVLW  01
04C98:  MOVWF  x69
04C9A:  MOVWF  x6A
04C9C:  MOVLB  0
04C9E:  CALL   275A
....................          glcd_text57(0, 29, Vida_Filtro, 1, ON); 
04CA2:  MOVLB  6
04CA4:  CLRF   x65
04CA6:  MOVLW  1D
04CA8:  MOVWF  x66
04CAA:  MOVLW  04
04CAC:  MOVWF  x68
04CAE:  MOVLW  BA
04CB0:  MOVWF  x67
04CB2:  MOVLW  01
04CB4:  MOVWF  x69
04CB6:  MOVWF  x6A
04CB8:  MOVLB  0
04CBA:  CALL   275A
....................          //displayTiempo(Ttrabajo[3],60,28,0,1);displayTiempo(Ttrabajo[2],67,28,0,1);displayTiempo(Ttrabajo[1],74,28,0,1);displayTiempo(Ttrabajo[0],82,28,0,1); 
....................          glcd_text57(0, 43, Vida_UV, 1, ON); 
04CBE:  MOVLB  6
04CC0:  CLRF   x65
04CC2:  MOVLW  2B
04CC4:  MOVWF  x66
04CC6:  MOVLW  04
04CC8:  MOVWF  x68
04CCA:  MOVLW  B2
04CCC:  MOVWF  x67
04CCE:  MOVLW  01
04CD0:  MOVWF  x69
04CD2:  MOVWF  x6A
04CD4:  MOVLB  0
04CD6:  CALL   275A
....................          //displayTiempo(Tuv[3],60,42,0,1);displayTiempo(Tuv[2],67,42,0,1);displayTiempo(Tuv[1],74,42,0,1);displayTiempo(Tuv[0],82,42,0,1);        
....................          UVTime=Tuv[0]+(Tuv[1]*10)+(Tuv[2]*100)+(Tuv[3]*1000);          
04CDA:  MOVFF  513,64F
04CDE:  MOVLW  0A
04CE0:  MOVLB  6
04CE2:  MOVWF  x50
04CE4:  MOVLB  0
04CE6:  CALL   2CD8
04CEA:  MOVF   01,W
04CEC:  MOVLB  5
04CEE:  ADDWF  x12,W
04CF0:  MOVLB  6
04CF2:  MOVWF  x4E
04CF4:  MOVFF  514,64F
04CF8:  MOVLW  64
04CFA:  MOVWF  x50
04CFC:  MOVLB  0
04CFE:  CALL   2CD8
04D02:  MOVF   01,W
04D04:  MOVLB  6
04D06:  ADDWF  x4E,F
04D08:  CLRF   03
04D0A:  MOVLB  5
04D0C:  MOVF   x15,W
04D0E:  MOVWF  00
04D10:  BTFSC  FE8.7
04D12:  DECF   03,F
04D14:  MOVLB  6
04D16:  MOVWF  x4F
04D18:  MOVFF  03,650
04D1C:  MOVFF  03,652
04D20:  MOVWF  x51
04D22:  MOVLW  03
04D24:  MOVWF  x54
04D26:  MOVLW  E8
04D28:  MOVWF  x53
04D2A:  MOVLB  0
04D2C:  GOTO   2D26
04D30:  MOVFF  02,03
04D34:  MOVF   01,W
04D36:  MOVLB  6
04D38:  ADDWF  x4E,W
04D3A:  MOVWF  01
04D3C:  MOVLW  00
04D3E:  ADDWFC 03,F
04D40:  MOVFF  01,64E
04D44:  MOVFF  03,64F
04D48:  MOVLB  0
04D4A:  GOTO   2D7C
04D4E:  MOVFF  03,5D9
04D52:  MOVFF  02,5D8
04D56:  MOVFF  01,5D7
04D5A:  MOVFF  00,5D6
....................           
....................          if(imprimir==1) 
04D5E:  MOVLB  4
04D60:  BTFSS  x1F.7
04D62:  BRA    4DEA
....................          { 
....................             Downflow=Inflow*0.7181; 
04D64:  MOVFF  52D,673
04D68:  MOVFF  52C,672
04D6C:  MOVFF  52B,671
04D70:  MOVFF  52A,670
04D74:  MOVLW  67
04D76:  MOVLB  6
04D78:  MOVWF  x77
04D7A:  MOVLW  D5
04D7C:  MOVWF  x76
04D7E:  MOVLW  37
04D80:  MOVWF  x75
04D82:  MOVLW  7E
04D84:  MOVWF  x74
04D86:  MOVLB  0
04D88:  CALL   1B36
04D8C:  MOVFF  03,531
04D90:  MOVFF  02,530
04D94:  MOVFF  01,52F
04D98:  MOVFF  00,52E
....................             displayfloat(Inflow,70,1,0,1); 
04D9C:  MOVFF  52D,655
04DA0:  MOVFF  52C,654
04DA4:  MOVFF  52B,653
04DA8:  MOVFF  52A,652
04DAC:  MOVLW  46
04DAE:  MOVLB  6
04DB0:  MOVWF  x56
04DB2:  MOVLW  01
04DB4:  MOVWF  x57
04DB6:  CLRF   x58
04DB8:  MOVWF  x59
04DBA:  MOVLB  0
04DBC:  CALL   3048
....................             displayfloat(Downflow,70,15,0,1);   
04DC0:  MOVFF  531,655
04DC4:  MOVFF  530,654
04DC8:  MOVFF  52F,653
04DCC:  MOVFF  52E,652
04DD0:  MOVLW  46
04DD2:  MOVLB  6
04DD4:  MOVWF  x56
04DD6:  MOVLW  0F
04DD8:  MOVWF  x57
04DDA:  CLRF   x58
04DDC:  MOVLW  01
04DDE:  MOVWF  x59
04DE0:  MOVLB  0
04DE2:  CALL   3048
....................             imprimir=0; 
04DE6:  MOVLB  4
04DE8:  BCF    x1F.7
....................          } 
....................           
....................          if(flag_blower==1) 
04DEA:  BTFSS  x20.1
04DEC:  BRA    4EE0
....................          { 
....................             Motor_on; 
04DEE:  BSF    F8B.6
04DF0:  BCF    F94.6
....................             glcd_imagen(5); 
04DF2:  MOVLW  05
04DF4:  MOVLB  6
04DF6:  MOVWF  x4E
04DF8:  MOVLB  0
04DFA:  CALL   3150
....................             tiempo_trabajo=1; 
04DFE:  MOVLB  4
04E00:  BSF    x21.0
....................             if(guardatrabajo==1) 
04E02:  BTFSS  x21.5
04E04:  BRA    4EDE
....................             { 
....................                guardatrabajo=0;write_eeprom(30,minutos_trabajo); 
04E06:  BCF    x21.5
04E08:  CLRF   FAA
04E0A:  MOVLW  1E
04E0C:  MOVWF  FA9
04E0E:  MOVFF  4FE,FA8
04E12:  BCF    FA6.6
04E14:  BCF    FA6.7
04E16:  BSF    FA6.2
04E18:  MOVF   FF2,W
04E1A:  MOVWF  00
04E1C:  BCF    FF2.7
04E1E:  MOVLB  F
04E20:  MOVLW  55
04E22:  MOVWF  FA7
04E24:  MOVLW  AA
04E26:  MOVWF  FA7
04E28:  BSF    FA6.1
04E2A:  BTFSC  FA6.1
04E2C:  BRA    4E2A
04E2E:  BCF    FA6.2
04E30:  MOVF   00,W
04E32:  IORWF  FF2,F
....................                write_eeprom(16,Ttrabajo[0]);write_eeprom(17,Ttrabajo[1]);write_eeprom(18,Ttrabajo[2]);write_eeprom(19,Ttrabajo[3]); 
04E34:  CLRF   FAA
04E36:  MOVLW  10
04E38:  MOVWF  FA9
04E3A:  MOVFF  51E,FA8
04E3E:  BCF    FA6.6
04E40:  BCF    FA6.7
04E42:  BSF    FA6.2
04E44:  MOVFF  FF2,00
04E48:  BCF    FF2.7
04E4A:  MOVLW  55
04E4C:  MOVWF  FA7
04E4E:  MOVLW  AA
04E50:  MOVWF  FA7
04E52:  BSF    FA6.1
04E54:  BTFSC  FA6.1
04E56:  BRA    4E54
04E58:  BCF    FA6.2
04E5A:  MOVF   00,W
04E5C:  IORWF  FF2,F
04E5E:  CLRF   FAA
04E60:  MOVLW  11
04E62:  MOVWF  FA9
04E64:  MOVFF  51F,FA8
04E68:  BCF    FA6.6
04E6A:  BCF    FA6.7
04E6C:  BSF    FA6.2
04E6E:  MOVFF  FF2,00
04E72:  BCF    FF2.7
04E74:  MOVLW  55
04E76:  MOVWF  FA7
04E78:  MOVLW  AA
04E7A:  MOVWF  FA7
04E7C:  BSF    FA6.1
04E7E:  BTFSC  FA6.1
04E80:  BRA    4E7E
04E82:  BCF    FA6.2
04E84:  MOVF   00,W
04E86:  IORWF  FF2,F
04E88:  CLRF   FAA
04E8A:  MOVLW  12
04E8C:  MOVWF  FA9
04E8E:  MOVFF  520,FA8
04E92:  BCF    FA6.6
04E94:  BCF    FA6.7
04E96:  BSF    FA6.2
04E98:  MOVFF  FF2,00
04E9C:  BCF    FF2.7
04E9E:  MOVLW  55
04EA0:  MOVWF  FA7
04EA2:  MOVLW  AA
04EA4:  MOVWF  FA7
04EA6:  BSF    FA6.1
04EA8:  BTFSC  FA6.1
04EAA:  BRA    4EA8
04EAC:  BCF    FA6.2
04EAE:  MOVF   00,W
04EB0:  IORWF  FF2,F
04EB2:  CLRF   FAA
04EB4:  MOVLW  13
04EB6:  MOVWF  FA9
04EB8:  MOVFF  521,FA8
04EBC:  BCF    FA6.6
04EBE:  BCF    FA6.7
04EC0:  BSF    FA6.2
04EC2:  MOVFF  FF2,00
04EC6:  BCF    FF2.7
04EC8:  MOVLW  55
04ECA:  MOVWF  FA7
04ECC:  MOVLW  AA
04ECE:  MOVWF  FA7
04ED0:  BSF    FA6.1
04ED2:  BTFSC  FA6.1
04ED4:  BRA    4ED2
04ED6:  BCF    FA6.2
04ED8:  MOVF   00,W
04EDA:  IORWF  FF2,F
04EDC:  MOVLB  4
....................             } 
....................          } 
....................          else 
04EDE:  BRA    4FEC
....................          { 
....................             Filtro_Downflow=0; 
04EE0:  MOVLB  5
04EE2:  CLRF   x35
04EE4:  CLRF   x34
04EE6:  CLRF   x33
04EE8:  CLRF   x32
....................             glcd_rect(102, 45, 127, 64, YES, OFF);tiempo_trabajo=0;Motor_off; 
04EEA:  MOVLW  66
04EEC:  MOVLB  6
04EEE:  MOVWF  x65
04EF0:  MOVLW  2D
04EF2:  MOVWF  x66
04EF4:  MOVLW  7F
04EF6:  MOVWF  x67
04EF8:  MOVLW  40
04EFA:  MOVWF  x68
04EFC:  MOVLW  01
04EFE:  MOVWF  x69
04F00:  CLRF   x6A
04F02:  MOVLB  0
04F04:  CALL   2698
04F08:  MOVLB  4
04F0A:  BCF    x21.0
04F0C:  BCF    F8B.6
04F0E:  BCF    F94.6
....................             if(guardatrabajo==0) 
04F10:  BTFSC  x21.5
04F12:  BRA    4FEC
....................             { 
....................                guardatrabajo=1;write_eeprom(30,minutos_trabajo); 
04F14:  BSF    x21.5
04F16:  CLRF   FAA
04F18:  MOVLW  1E
04F1A:  MOVWF  FA9
04F1C:  MOVFF  4FE,FA8
04F20:  BCF    FA6.6
04F22:  BCF    FA6.7
04F24:  BSF    FA6.2
04F26:  MOVF   FF2,W
04F28:  MOVWF  00
04F2A:  BCF    FF2.7
04F2C:  MOVLB  F
04F2E:  MOVLW  55
04F30:  MOVWF  FA7
04F32:  MOVLW  AA
04F34:  MOVWF  FA7
04F36:  BSF    FA6.1
04F38:  BTFSC  FA6.1
04F3A:  BRA    4F38
04F3C:  BCF    FA6.2
04F3E:  MOVF   00,W
04F40:  IORWF  FF2,F
....................                write_eeprom(16,Ttrabajo[0]);write_eeprom(17,Ttrabajo[1]);write_eeprom(18,Ttrabajo[2]);write_eeprom(19,Ttrabajo[3]); 
04F42:  CLRF   FAA
04F44:  MOVLW  10
04F46:  MOVWF  FA9
04F48:  MOVFF  51E,FA8
04F4C:  BCF    FA6.6
04F4E:  BCF    FA6.7
04F50:  BSF    FA6.2
04F52:  MOVFF  FF2,00
04F56:  BCF    FF2.7
04F58:  MOVLW  55
04F5A:  MOVWF  FA7
04F5C:  MOVLW  AA
04F5E:  MOVWF  FA7
04F60:  BSF    FA6.1
04F62:  BTFSC  FA6.1
04F64:  BRA    4F62
04F66:  BCF    FA6.2
04F68:  MOVF   00,W
04F6A:  IORWF  FF2,F
04F6C:  CLRF   FAA
04F6E:  MOVLW  11
04F70:  MOVWF  FA9
04F72:  MOVFF  51F,FA8
04F76:  BCF    FA6.6
04F78:  BCF    FA6.7
04F7A:  BSF    FA6.2
04F7C:  MOVFF  FF2,00
04F80:  BCF    FF2.7
04F82:  MOVLW  55
04F84:  MOVWF  FA7
04F86:  MOVLW  AA
04F88:  MOVWF  FA7
04F8A:  BSF    FA6.1
04F8C:  BTFSC  FA6.1
04F8E:  BRA    4F8C
04F90:  BCF    FA6.2
04F92:  MOVF   00,W
04F94:  IORWF  FF2,F
04F96:  CLRF   FAA
04F98:  MOVLW  12
04F9A:  MOVWF  FA9
04F9C:  MOVFF  520,FA8
04FA0:  BCF    FA6.6
04FA2:  BCF    FA6.7
04FA4:  BSF    FA6.2
04FA6:  MOVFF  FF2,00
04FAA:  BCF    FF2.7
04FAC:  MOVLW  55
04FAE:  MOVWF  FA7
04FB0:  MOVLW  AA
04FB2:  MOVWF  FA7
04FB4:  BSF    FA6.1
04FB6:  BTFSC  FA6.1
04FB8:  BRA    4FB6
04FBA:  BCF    FA6.2
04FBC:  MOVF   00,W
04FBE:  IORWF  FF2,F
04FC0:  CLRF   FAA
04FC2:  MOVLW  13
04FC4:  MOVWF  FA9
04FC6:  MOVFF  521,FA8
04FCA:  BCF    FA6.6
04FCC:  BCF    FA6.7
04FCE:  BSF    FA6.2
04FD0:  MOVFF  FF2,00
04FD4:  BCF    FF2.7
04FD6:  MOVLW  55
04FD8:  MOVWF  FA7
04FDA:  MOVLW  AA
04FDC:  MOVWF  FA7
04FDE:  BSF    FA6.1
04FE0:  BTFSC  FA6.1
04FE2:  BRA    4FE0
04FE4:  BCF    FA6.2
04FE6:  MOVF   00,W
04FE8:  IORWF  FF2,F
04FEA:  MOVLB  4
....................             } 
....................          } 
....................           
.................... // Dibujo de barra de estado de filtro                   
....................          barra=100.0*(Filtro_Downflow/2.0); 
04FEC:  MOVFF  535,656
04FF0:  MOVFF  534,655
04FF4:  MOVFF  533,654
04FF8:  MOVFF  532,653
04FFC:  MOVLB  6
04FFE:  CLRF   x5A
05000:  CLRF   x59
05002:  CLRF   x58
05004:  MOVLW  80
05006:  MOVWF  x57
05008:  MOVLB  0
0500A:  CALL   15D4
0500E:  MOVLB  6
05010:  CLRF   x73
05012:  CLRF   x72
05014:  MOVLW  48
05016:  MOVWF  x71
05018:  MOVLW  85
0501A:  MOVWF  x70
0501C:  MOVFF  03,677
05020:  MOVFF  02,676
05024:  MOVFF  01,675
05028:  MOVFF  00,674
0502C:  MOVLB  0
0502E:  CALL   1B36
05032:  MOVFF  03,53D
05036:  MOVFF  02,53C
0503A:  MOVFF  01,53B
0503E:  MOVFF  00,53A
....................          if(barra>100.0) 
05042:  MOVLB  6
05044:  CLRF   x56
05046:  CLRF   x55
05048:  MOVLW  48
0504A:  MOVWF  x54
0504C:  MOVLW  85
0504E:  MOVWF  x53
05050:  MOVFF  53D,65A
05054:  MOVFF  53C,659
05058:  MOVFF  53B,658
0505C:  MOVFF  53A,657
05060:  MOVLB  0
05062:  CALL   1C2C
05066:  BNC   5076
....................             barra=100.0; 
05068:  MOVLB  5
0506A:  CLRF   x3D
0506C:  CLRF   x3C
0506E:  MOVLW  48
05070:  MOVWF  x3B
05072:  MOVLW  85
05074:  MOVWF  x3A
....................          barra=barra/2; 
05076:  MOVFF  53D,656
0507A:  MOVFF  53C,655
0507E:  MOVFF  53B,654
05082:  MOVFF  53A,653
05086:  MOVLB  6
05088:  CLRF   x5A
0508A:  CLRF   x59
0508C:  CLRF   x58
0508E:  MOVLW  80
05090:  MOVWF  x57
05092:  MOVLB  0
05094:  CALL   15D4
05098:  MOVFF  03,53D
0509C:  MOVFF  02,53C
050A0:  MOVFF  01,53B
050A4:  MOVFF  00,53A
....................          glcd_rect(42, 28, (int8)(barra_old)+42, 35, YES, OFF);  // Clears the old bar 
050A8:  MOVFF  541,651
050AC:  MOVFF  540,650
050B0:  MOVFF  53F,64F
050B4:  MOVFF  53E,64E
050B8:  CALL   334E
050BC:  MOVLW  2A
050BE:  ADDWF  01,W
050C0:  MOVLB  6
050C2:  MOVWF  x4E
050C4:  MOVLW  2A
050C6:  MOVWF  x65
050C8:  MOVLW  1C
050CA:  MOVWF  x66
050CC:  MOVFF  64E,667
050D0:  MOVLW  23
050D2:  MOVWF  x68
050D4:  MOVLW  01
050D6:  MOVWF  x69
050D8:  CLRF   x6A
050DA:  MOVLB  0
050DC:  CALL   2698
....................          glcd_rect(42, 28, (int8)(barra)+42, 35, YES, ON);             // Draws a new bar 
050E0:  MOVFF  53D,651
050E4:  MOVFF  53C,650
050E8:  MOVFF  53B,64F
050EC:  MOVFF  53A,64E
050F0:  CALL   334E
050F4:  MOVLW  2A
050F6:  ADDWF  01,W
050F8:  MOVLB  6
050FA:  MOVWF  x4E
050FC:  MOVLW  2A
050FE:  MOVWF  x65
05100:  MOVLW  1C
05102:  MOVWF  x66
05104:  MOVFF  64E,667
05108:  MOVLW  23
0510A:  MOVWF  x68
0510C:  MOVLW  01
0510E:  MOVWF  x69
05110:  MOVWF  x6A
05112:  MOVLB  0
05114:  CALL   2698
....................          glcd_rect(40, 26, 94, 37, NO, ON);             // Draws a new bar 
05118:  MOVLW  28
0511A:  MOVLB  6
0511C:  MOVWF  x65
0511E:  MOVLW  1A
05120:  MOVWF  x66
05122:  MOVLW  5E
05124:  MOVWF  x67
05126:  MOVLW  25
05128:  MOVWF  x68
0512A:  CLRF   x69
0512C:  MOVLW  01
0512E:  MOVWF  x6A
05130:  MOVLB  0
05132:  CALL   2698
....................          barra_old=barra; 
05136:  MOVFF  53D,541
0513A:  MOVFF  53C,540
0513E:  MOVFF  53B,53F
05142:  MOVFF  53A,53E
.................... // Fin de Dibujo de barra de estado de Filtro 
....................  
.................... // Dibujo de barra de estado de Luz UV 
....................          barra2=100.0*(UVTime/1000.0); 
05146:  MOVFF  5D9,656
0514A:  MOVFF  5D8,655
0514E:  MOVFF  5D7,654
05152:  MOVFF  5D6,653
05156:  MOVLB  6
05158:  CLRF   x5A
0515A:  CLRF   x59
0515C:  MOVLW  7A
0515E:  MOVWF  x58
05160:  MOVLW  88
05162:  MOVWF  x57
05164:  MOVLB  0
05166:  CALL   15D4
0516A:  MOVLB  6
0516C:  CLRF   x73
0516E:  CLRF   x72
05170:  MOVLW  48
05172:  MOVWF  x71
05174:  MOVLW  85
05176:  MOVWF  x70
05178:  MOVFF  03,677
0517C:  MOVFF  02,676
05180:  MOVFF  01,675
05184:  MOVFF  00,674
05188:  MOVLB  0
0518A:  CALL   1B36
0518E:  MOVFF  03,545
05192:  MOVFF  02,544
05196:  MOVFF  01,543
0519A:  MOVFF  00,542
....................          if(barra2>100.0) 
0519E:  MOVLB  6
051A0:  CLRF   x56
051A2:  CLRF   x55
051A4:  MOVLW  48
051A6:  MOVWF  x54
051A8:  MOVLW  85
051AA:  MOVWF  x53
051AC:  MOVFF  545,65A
051B0:  MOVFF  544,659
051B4:  MOVFF  543,658
051B8:  MOVFF  542,657
051BC:  MOVLB  0
051BE:  CALL   1C2C
051C2:  BNC   51D2
....................             barra2=100.0; 
051C4:  MOVLB  5
051C6:  CLRF   x45
051C8:  CLRF   x44
051CA:  MOVLW  48
051CC:  MOVWF  x43
051CE:  MOVLW  85
051D0:  MOVWF  x42
....................          barra2=barra2/2; 
051D2:  MOVFF  545,656
051D6:  MOVFF  544,655
051DA:  MOVFF  543,654
051DE:  MOVFF  542,653
051E2:  MOVLB  6
051E4:  CLRF   x5A
051E6:  CLRF   x59
051E8:  CLRF   x58
051EA:  MOVLW  80
051EC:  MOVWF  x57
051EE:  MOVLB  0
051F0:  CALL   15D4
051F4:  MOVFF  03,545
051F8:  MOVFF  02,544
051FC:  MOVFF  01,543
05200:  MOVFF  00,542
....................          glcd_rect(42, 42, (int8)(barra_old2)+42, 49, YES, OFF);  // Clears the old bar 
05204:  MOVFF  549,651
05208:  MOVFF  548,650
0520C:  MOVFF  547,64F
05210:  MOVFF  546,64E
05214:  CALL   334E
05218:  MOVLW  2A
0521A:  ADDWF  01,W
0521C:  MOVLB  6
0521E:  MOVWF  x4E
05220:  MOVLW  2A
05222:  MOVWF  x65
05224:  MOVWF  x66
05226:  MOVFF  64E,667
0522A:  MOVLW  31
0522C:  MOVWF  x68
0522E:  MOVLW  01
05230:  MOVWF  x69
05232:  CLRF   x6A
05234:  MOVLB  0
05236:  CALL   2698
....................          glcd_rect(42, 42, (int8)(barra2)+42, 49, YES, ON);             // Draws a new bar 
0523A:  MOVFF  545,651
0523E:  MOVFF  544,650
05242:  MOVFF  543,64F
05246:  MOVFF  542,64E
0524A:  CALL   334E
0524E:  MOVLW  2A
05250:  ADDWF  01,W
05252:  MOVLB  6
05254:  MOVWF  x4E
05256:  MOVLW  2A
05258:  MOVWF  x65
0525A:  MOVWF  x66
0525C:  MOVFF  64E,667
05260:  MOVLW  31
05262:  MOVWF  x68
05264:  MOVLW  01
05266:  MOVWF  x69
05268:  MOVWF  x6A
0526A:  MOVLB  0
0526C:  CALL   2698
....................          glcd_rect(40, 40, 94, 51, NO, ON);             // Draws a new bar 
05270:  MOVLW  28
05272:  MOVLB  6
05274:  MOVWF  x65
05276:  MOVWF  x66
05278:  MOVLW  5E
0527A:  MOVWF  x67
0527C:  MOVLW  33
0527E:  MOVWF  x68
05280:  CLRF   x69
05282:  MOVLW  01
05284:  MOVWF  x6A
05286:  MOVLB  0
05288:  CALL   2698
....................          barra_old2=barra2; 
0528C:  MOVFF  545,549
05290:  MOVFF  544,548
05294:  MOVFF  543,547
05298:  MOVFF  542,546
.................... // Fin de Dibujo de barra de estado de Luz UV 
....................  
....................  
....................          if(Downflow<0.36) 
0529C:  MOVFF  531,656
052A0:  MOVFF  530,655
052A4:  MOVFF  52F,654
052A8:  MOVFF  52E,653
052AC:  MOVLW  EC
052AE:  MOVLB  6
052B0:  MOVWF  x5A
052B2:  MOVLW  51
052B4:  MOVWF  x59
052B6:  MOVLW  38
052B8:  MOVWF  x58
052BA:  MOVLW  7D
052BC:  MOVWF  x57
052BE:  MOVLB  0
052C0:  CALL   1C2C
052C4:  BNC   5302
....................          { 
....................             flag_latencia=1; 
052C6:  MOVLB  4
052C8:  BSF    x21.3
....................             if(Latencia==1) 
052CA:  BTFSS  x21.2
052CC:  BRA    52FE
....................             {          
....................                if(Downflow<0.36) 
052CE:  MOVFF  531,656
052D2:  MOVFF  530,655
052D6:  MOVFF  52F,654
052DA:  MOVFF  52E,653
052DE:  MOVLW  EC
052E0:  MOVLB  6
052E2:  MOVWF  x5A
052E4:  MOVLW  51
052E6:  MOVWF  x59
052E8:  MOVLW  38
052EA:  MOVWF  x58
052EC:  MOVLW  7D
052EE:  MOVWF  x57
052F0:  MOVLB  0
052F2:  CALL   1C2C
052F6:  BNC   5300
....................                { 
....................                   Alarma=5; 
052F8:  MOVLW  05
052FA:  MOVLB  4
052FC:  MOVWF  xF0
052FE:  MOVLB  0
....................                } 
....................             } 
....................          } 
....................          else 
05300:  BRA    5332
....................          { 
....................             Latencia=0;t_latencia=0;flag_latencia=0; 
05302:  MOVLB  4
05304:  BCF    x21.2
05306:  CLRF   xFB
05308:  CLRF   xFA
0530A:  BCF    x21.3
....................             glcd_rect(0, 54, 104, 64, YES, OFF);Alarma_off;Alarma=10; 
0530C:  MOVLB  6
0530E:  CLRF   x65
05310:  MOVLW  36
05312:  MOVWF  x66
05314:  MOVLW  68
05316:  MOVWF  x67
05318:  MOVLW  40
0531A:  MOVWF  x68
0531C:  MOVLW  01
0531E:  MOVWF  x69
05320:  CLRF   x6A
05322:  MOVLB  0
05324:  CALL   2698
05328:  BCF    F8B.3
0532A:  BCF    F94.3
0532C:  MOVLW  0A
0532E:  MOVLB  4
05330:  MOVWF  xF0
....................          } 
....................        
....................          if(flag_toma==1) // Si activo Toma 
05332:  MOVLB  4
05334:  BTFSS  x20.2
05336:  BRA    534C
....................          { 
....................             glcd_imagen(4);Toma_on; 
05338:  MOVLW  04
0533A:  MOVLB  6
0533C:  MOVWF  x4E
0533E:  MOVLB  0
05340:  CALL   3150
05344:  BSF    F8B.7
05346:  BCF    F94.7
....................          } 
....................          else// Si desactivo Toma 
05348:  BRA    536E
0534A:  MOVLB  4
....................          { 
....................             glcd_rect(102, 28, 127, 44, YES, OFF);Toma_off; 
0534C:  MOVLW  66
0534E:  MOVLB  6
05350:  MOVWF  x65
05352:  MOVLW  1C
05354:  MOVWF  x66
05356:  MOVLW  7F
05358:  MOVWF  x67
0535A:  MOVLW  2C
0535C:  MOVWF  x68
0535E:  MOVLW  01
05360:  MOVWF  x69
05362:  CLRF   x6A
05364:  MOVLB  0
05366:  CALL   2698
0536A:  BCF    F8B.7
0536C:  BCF    F94.7
....................          } 
....................        
....................          if(!VIDRIOOK) // Si el vidrio esta en la posicin correcta 
0536E:  BSF    F92.3
05370:  BTFSC  F80.3
05372:  BRA    53A2
....................          {/*glcd_rect(0, 54, 104, 64, YES, OFF);*/ 
....................             glcd_rect(0, 55, 100, 63, YES, OFF); 
05374:  MOVLB  6
05376:  CLRF   x65
05378:  MOVLW  37
0537A:  MOVWF  x66
0537C:  MOVLW  64
0537E:  MOVWF  x67
05380:  MOVLW  3F
05382:  MOVWF  x68
05384:  MOVLW  01
05386:  MOVWF  x69
05388:  CLRF   x6A
0538A:  MOVLB  0
0538C:  CALL   2698
....................             glcd_imagen(3);LuzBlanca_on; 
05390:  MOVLW  03
05392:  MOVLB  6
05394:  MOVWF  x4E
05396:  MOVLB  0
05398:  CALL   3150
0539C:  BSF    F8B.4
0539E:  BCF    F94.4
....................          }  
....................          else// Si el vidrio no esta en la posicin correcta 
053A0:  BRA    53C4
....................          { 
....................             LuzBlanca_off; 
053A2:  BCF    F8B.4
053A4:  BCF    F94.4
....................             glcd_rect(102, 14, 127, 27, YES, OFF);          
053A6:  MOVLW  66
053A8:  MOVLB  6
053AA:  MOVWF  x65
053AC:  MOVLW  0E
053AE:  MOVWF  x66
053B0:  MOVLW  7F
053B2:  MOVWF  x67
053B4:  MOVLW  1B
053B6:  MOVWF  x68
053B8:  MOVLW  01
053BA:  MOVWF  x69
053BC:  CLRF   x6A
053BE:  MOVLB  0
053C0:  CALL   2698
....................          } 
....................           
....................          if(!VIDRIODN) 
053C4:  BSF    F92.4
053C6:  BTFSC  F80.4
053C8:  BRA    55FE
....................          {             
....................             glcd_rect(0, 55, 100, 63, YES, OFF); 
053CA:  MOVLB  6
053CC:  CLRF   x65
053CE:  MOVLW  37
053D0:  MOVWF  x66
053D2:  MOVLW  64
053D4:  MOVWF  x67
053D6:  MOVLW  3F
053D8:  MOVWF  x68
053DA:  MOVLW  01
053DC:  MOVWF  x69
053DE:  CLRF   x6A
053E0:  MOVLB  0
053E2:  CALL   2698
....................             flag_Luz=0;LuzBlanca_off; 
053E6:  MOVLB  4
053E8:  BCF    x20.3
053EA:  BCF    F8B.4
053EC:  BCF    F94.4
....................             if(UV2==10) 
053EE:  MOVF   xF1,W
053F0:  SUBLW  0A
053F2:  BTFSS  FD8.2
053F4:  BRA    54FA
....................             { 
....................                tiempo_uv=1; 
053F6:  BSF    x20.7
....................                LuzUV_on; 
053F8:  BSF    F8B.5
053FA:  BCF    F94.5
....................                glcd_text57(105, 0, UV, 2, ON); 
053FC:  MOVLW  69
053FE:  MOVLB  6
05400:  MOVWF  x65
05402:  CLRF   x66
05404:  MOVLW  04
05406:  MOVWF  x68
05408:  MOVLW  65
0540A:  MOVWF  x67
0540C:  MOVLW  02
0540E:  MOVWF  x69
05410:  MOVLW  01
05412:  MOVWF  x6A
05414:  MOVLB  0
05416:  CALL   275A
....................                if(guardauv==1) 
0541A:  MOVLB  4
0541C:  BTFSS  x21.4
0541E:  BRA    54F8
....................                { 
....................                   guardauv=0;write_eeprom(31,minutos_uv); 
05420:  BCF    x21.4
05422:  CLRF   FAA
05424:  MOVLW  1F
05426:  MOVWF  FA9
05428:  MOVFF  4FC,FA8
0542C:  BCF    FA6.6
0542E:  BCF    FA6.7
05430:  BSF    FA6.2
05432:  MOVF   FF2,W
05434:  MOVWF  00
05436:  BCF    FF2.7
05438:  MOVLB  F
0543A:  MOVLW  55
0543C:  MOVWF  FA7
0543E:  MOVLW  AA
05440:  MOVWF  FA7
05442:  BSF    FA6.1
05444:  BTFSC  FA6.1
05446:  BRA    5444
05448:  BCF    FA6.2
0544A:  MOVF   00,W
0544C:  IORWF  FF2,F
....................                   write_eeprom(12,Tuv[0]);write_eeprom(13,Tuv[1]);write_eeprom(14,Tuv[2]);write_eeprom(15,Tuv[3]); 
0544E:  CLRF   FAA
05450:  MOVLW  0C
05452:  MOVWF  FA9
05454:  MOVFF  512,FA8
05458:  BCF    FA6.6
0545A:  BCF    FA6.7
0545C:  BSF    FA6.2
0545E:  MOVFF  FF2,00
05462:  BCF    FF2.7
05464:  MOVLW  55
05466:  MOVWF  FA7
05468:  MOVLW  AA
0546A:  MOVWF  FA7
0546C:  BSF    FA6.1
0546E:  BTFSC  FA6.1
05470:  BRA    546E
05472:  BCF    FA6.2
05474:  MOVF   00,W
05476:  IORWF  FF2,F
05478:  CLRF   FAA
0547A:  MOVLW  0D
0547C:  MOVWF  FA9
0547E:  MOVFF  513,FA8
05482:  BCF    FA6.6
05484:  BCF    FA6.7
05486:  BSF    FA6.2
05488:  MOVFF  FF2,00
0548C:  BCF    FF2.7
0548E:  MOVLW  55
05490:  MOVWF  FA7
05492:  MOVLW  AA
05494:  MOVWF  FA7
05496:  BSF    FA6.1
05498:  BTFSC  FA6.1
0549A:  BRA    5498
0549C:  BCF    FA6.2
0549E:  MOVF   00,W
054A0:  IORWF  FF2,F
054A2:  CLRF   FAA
054A4:  MOVLW  0E
054A6:  MOVWF  FA9
054A8:  MOVFF  514,FA8
054AC:  BCF    FA6.6
054AE:  BCF    FA6.7
054B0:  BSF    FA6.2
054B2:  MOVFF  FF2,00
054B6:  BCF    FF2.7
054B8:  MOVLW  55
054BA:  MOVWF  FA7
054BC:  MOVLW  AA
054BE:  MOVWF  FA7
054C0:  BSF    FA6.1
054C2:  BTFSC  FA6.1
054C4:  BRA    54C2
054C6:  BCF    FA6.2
054C8:  MOVF   00,W
054CA:  IORWF  FF2,F
054CC:  CLRF   FAA
054CE:  MOVLW  0F
054D0:  MOVWF  FA9
054D2:  MOVFF  515,FA8
054D6:  BCF    FA6.6
054D8:  BCF    FA6.7
054DA:  BSF    FA6.2
054DC:  MOVFF  FF2,00
054E0:  BCF    FF2.7
054E2:  MOVLW  55
054E4:  MOVWF  FA7
054E6:  MOVLW  AA
054E8:  MOVWF  FA7
054EA:  BSF    FA6.1
054EC:  BTFSC  FA6.1
054EE:  BRA    54EC
054F0:  BCF    FA6.2
054F2:  MOVF   00,W
054F4:  IORWF  FF2,F
054F6:  MOVLB  4
....................                }                
....................             } 
....................             else 
054F8:  BRA    55FA
....................             { 
....................                LuzUV_off;tiempo_uv=0; 
054FA:  BCF    F8B.5
054FC:  BCF    F94.5
054FE:  BCF    x20.7
....................                glcd_rect(102, 0, 127, 14, YES, OFF); 
05500:  MOVLW  66
05502:  MOVLB  6
05504:  MOVWF  x65
05506:  CLRF   x66
05508:  MOVLW  7F
0550A:  MOVWF  x67
0550C:  MOVLW  0E
0550E:  MOVWF  x68
05510:  MOVLW  01
05512:  MOVWF  x69
05514:  CLRF   x6A
05516:  MOVLB  0
05518:  CALL   2698
....................                if(guardauv==0) 
0551C:  MOVLB  4
0551E:  BTFSC  x21.4
05520:  BRA    55FA
....................                { 
....................                   guardauv=1;write_eeprom(31,minutos_uv); 
05522:  BSF    x21.4
05524:  CLRF   FAA
05526:  MOVLW  1F
05528:  MOVWF  FA9
0552A:  MOVFF  4FC,FA8
0552E:  BCF    FA6.6
05530:  BCF    FA6.7
05532:  BSF    FA6.2
05534:  MOVF   FF2,W
05536:  MOVWF  00
05538:  BCF    FF2.7
0553A:  MOVLB  F
0553C:  MOVLW  55
0553E:  MOVWF  FA7
05540:  MOVLW  AA
05542:  MOVWF  FA7
05544:  BSF    FA6.1
05546:  BTFSC  FA6.1
05548:  BRA    5546
0554A:  BCF    FA6.2
0554C:  MOVF   00,W
0554E:  IORWF  FF2,F
....................                   write_eeprom(12,Tuv[0]);write_eeprom(13,Tuv[1]);write_eeprom(14,Tuv[2]);write_eeprom(15,Tuv[3]); 
05550:  CLRF   FAA
05552:  MOVLW  0C
05554:  MOVWF  FA9
05556:  MOVFF  512,FA8
0555A:  BCF    FA6.6
0555C:  BCF    FA6.7
0555E:  BSF    FA6.2
05560:  MOVFF  FF2,00
05564:  BCF    FF2.7
05566:  MOVLW  55
05568:  MOVWF  FA7
0556A:  MOVLW  AA
0556C:  MOVWF  FA7
0556E:  BSF    FA6.1
05570:  BTFSC  FA6.1
05572:  BRA    5570
05574:  BCF    FA6.2
05576:  MOVF   00,W
05578:  IORWF  FF2,F
0557A:  CLRF   FAA
0557C:  MOVLW  0D
0557E:  MOVWF  FA9
05580:  MOVFF  513,FA8
05584:  BCF    FA6.6
05586:  BCF    FA6.7
05588:  BSF    FA6.2
0558A:  MOVFF  FF2,00
0558E:  BCF    FF2.7
05590:  MOVLW  55
05592:  MOVWF  FA7
05594:  MOVLW  AA
05596:  MOVWF  FA7
05598:  BSF    FA6.1
0559A:  BTFSC  FA6.1
0559C:  BRA    559A
0559E:  BCF    FA6.2
055A0:  MOVF   00,W
055A2:  IORWF  FF2,F
055A4:  CLRF   FAA
055A6:  MOVLW  0E
055A8:  MOVWF  FA9
055AA:  MOVFF  514,FA8
055AE:  BCF    FA6.6
055B0:  BCF    FA6.7
055B2:  BSF    FA6.2
055B4:  MOVFF  FF2,00
055B8:  BCF    FF2.7
055BA:  MOVLW  55
055BC:  MOVWF  FA7
055BE:  MOVLW  AA
055C0:  MOVWF  FA7
055C2:  BSF    FA6.1
055C4:  BTFSC  FA6.1
055C6:  BRA    55C4
055C8:  BCF    FA6.2
055CA:  MOVF   00,W
055CC:  IORWF  FF2,F
055CE:  CLRF   FAA
055D0:  MOVLW  0F
055D2:  MOVWF  FA9
055D4:  MOVFF  515,FA8
055D8:  BCF    FA6.6
055DA:  BCF    FA6.7
055DC:  BSF    FA6.2
055DE:  MOVFF  FF2,00
055E2:  BCF    FF2.7
055E4:  MOVLW  55
055E6:  MOVWF  FA7
055E8:  MOVLW  AA
055EA:  MOVWF  FA7
055EC:  BSF    FA6.1
055EE:  BTFSC  FA6.1
055F0:  BRA    55EE
055F2:  BCF    FA6.2
055F4:  MOVF   00,W
055F6:  IORWF  FF2,F
055F8:  MOVLB  4
....................                } 
....................             } 
....................          } 
....................          else 
055FA:  BRA    5622
055FC:  MOVLB  0
....................          { 
....................             glcd_rect(102, 0, 127, 14, YES, OFF);LuzUV_off;tiempo_uv=0; 
055FE:  MOVLW  66
05600:  MOVLB  6
05602:  MOVWF  x65
05604:  CLRF   x66
05606:  MOVLW  7F
05608:  MOVWF  x67
0560A:  MOVLW  0E
0560C:  MOVWF  x68
0560E:  MOVLW  01
05610:  MOVWF  x69
05612:  CLRF   x6A
05614:  MOVLB  0
05616:  CALL   2698
0561A:  BCF    F8B.5
0561C:  BCF    F94.5
0561E:  MOVLB  4
05620:  BCF    x20.7
....................          } 
....................           
....................          if(Alarma==5) 
05622:  MOVF   xF0,W
05624:  SUBLW  05
05626:  BNZ   5664
....................          { 
....................             glcd_rect(0, 55, 100, 63, YES, OFF); 
05628:  MOVLB  6
0562A:  CLRF   x65
0562C:  MOVLW  37
0562E:  MOVWF  x66
05630:  MOVLW  64
05632:  MOVWF  x67
05634:  MOVLW  3F
05636:  MOVWF  x68
05638:  MOVLW  01
0563A:  MOVWF  x69
0563C:  CLRF   x6A
0563E:  MOVLB  0
05640:  CALL   2698
....................             glcd_text57(0,55, Perdida, 1, ON); 
05644:  MOVLB  6
05646:  CLRF   x65
05648:  MOVLW  37
0564A:  MOVWF  x66
0564C:  MOVLW  04
0564E:  MOVWF  x68
05650:  MOVLW  D0
05652:  MOVWF  x67
05654:  MOVLW  01
05656:  MOVWF  x69
05658:  MOVWF  x6A
0565A:  MOVLB  0
0565C:  CALL   275A
....................          } 
....................          else 
05660:  BRA    56A8
05662:  MOVLB  4
....................          { 
....................             if(VIDRIODN && VIDRIOOK) 
05664:  BSF    F92.4
05666:  BTFSS  F80.4
05668:  BRA    56AA
0566A:  BSF    F92.3
0566C:  BTFSS  F80.3
0566E:  BRA    56AA
....................             {                
....................                glcd_rect(0, 55, 100, 63, YES, ON);glcd_text57(0,55, Baje_Vidrio, 1, OFF); 
05670:  MOVLB  6
05672:  CLRF   x65
05674:  MOVLW  37
05676:  MOVWF  x66
05678:  MOVLW  64
0567A:  MOVWF  x67
0567C:  MOVLW  3F
0567E:  MOVWF  x68
05680:  MOVLW  01
05682:  MOVWF  x69
05684:  MOVWF  x6A
05686:  MOVLB  0
05688:  CALL   2698
0568C:  MOVLB  6
0568E:  CLRF   x65
05690:  MOVLW  37
05692:  MOVWF  x66
05694:  MOVLW  04
05696:  MOVWF  x68
05698:  MOVLW  68
0569A:  MOVWF  x67
0569C:  MOVLW  01
0569E:  MOVWF  x69
056A0:  CLRF   x6A
056A2:  MOVLB  0
056A4:  CALL   275A
056A8:  MOVLB  4
....................             }             
....................          } 
....................              
....................       if(RIGHT || BYTE_IR[2]==0X5A)//Si oprime boton de Blower. 
056AA:  BSF    F96.2
056AC:  BTFSC  F84.2
056AE:  BRA    56BA
056B0:  MOVLB  6
056B2:  MOVF   x36,W
056B4:  SUBLW  5A
056B6:  BNZ   56DA
056B8:  MOVLB  4
....................       { 
....................          if(Flanco3 == 0) 
056BA:  BTFSC  x1F.3
056BC:  BRA    56D6
....................          { 
....................             Flanco3 = 1;delay_ms(5);flag_blower=!flag_blower;BYTE_IR[2]=0X00; 
056BE:  BSF    x1F.3
056C0:  MOVLW  05
056C2:  MOVLB  6
056C4:  MOVWF  x56
056C6:  MOVLB  0
056C8:  CALL   1576
056CC:  MOVLB  4
056CE:  BTG    x20.1
056D0:  MOVLB  6
056D2:  CLRF   x36
056D4:  MOVLB  4
....................          } 
....................       } 
....................       else 
056D6:  BRA    56DE
056D8:  MOVLB  6
....................       { 
....................          Flanco3 = 0; 
056DA:  MOVLB  4
056DC:  BCF    x1F.3
....................       } 
....................              
....................       if(LEFT || BYTE_IR[2]==0X08)//Si oprime boton de Luz UV. 
056DE:  BSF    F94.0
056E0:  BTFSC  F82.0
056E2:  BRA    56EE
056E4:  MOVLB  6
056E6:  MOVF   x36,W
056E8:  SUBLW  08
056EA:  BNZ   573C
056EC:  MOVLB  4
....................       { 
....................          if(VIDRIODN) 
056EE:  BSF    F92.4
056F0:  BTFSS  F80.4
056F2:  BRA    5710
....................          { 
....................             Menu=231;delay_ms(500); 
056F4:  MOVLW  E7
056F6:  MOVWF  xE0
056F8:  MOVLW  02
056FA:  MOVLB  6
056FC:  MOVWF  x4E
056FE:  MOVLW  FA
05700:  MOVWF  x56
05702:  MOVLB  0
05704:  CALL   1576
05708:  MOVLB  6
0570A:  DECFSZ x4E,F
0570C:  BRA    56FE
0570E:  MOVLB  4
....................          } 
....................              
....................          if(Flanco4 == 0) 
05710:  BTFSC  x1F.4
05712:  BRA    5738
....................          { 
....................             Flanco4 = 1;delay_ms(5);flag_uv=!flag_uv;BYTE_IR[2]=0X00; 
05714:  BSF    x1F.4
05716:  MOVLW  05
05718:  MOVLB  6
0571A:  MOVWF  x56
0571C:  MOVLB  0
0571E:  CALL   1576
05722:  MOVLB  4
05724:  BTG    x20.0
05726:  MOVLB  6
05728:  CLRF   x36
....................             if(UV2==0) 
0572A:  MOVLB  4
0572C:  MOVF   xF1,F
0572E:  BNZ   5736
....................             { 
....................                UV2=10; 
05730:  MOVLW  0A
05732:  MOVWF  xF1
....................             } 
....................             else 
05734:  BRA    5738
....................                UV2=0; 
05736:  CLRF   xF1
....................          } 
....................       } 
....................       else 
05738:  BRA    5740
0573A:  MOVLB  6
....................       { 
....................          Flanco4 = 0; 
0573C:  MOVLB  4
0573E:  BCF    x1F.4
....................       } 
....................              
....................       if(DOWN || BYTE_IR[2]==0X52)//Si oprime boton de Luz Blanca. 
05740:  BSF    F96.1
05742:  BTFSC  F84.1
05744:  BRA    5750
05746:  MOVLB  6
05748:  MOVF   x36,W
0574A:  SUBLW  52
0574C:  BNZ   5796
0574E:  MOVLB  4
....................       { 
....................          if(Flanco5 == 0) 
05750:  BTFSC  x1F.5
05752:  BRA    576C
....................          { 
....................             Flanco5 = 1;delay_ms(5);flag_luz=!flag_luz;BYTE_IR[2]=0X00; 
05754:  BSF    x1F.5
05756:  MOVLW  05
05758:  MOVLB  6
0575A:  MOVWF  x56
0575C:  MOVLB  0
0575E:  CALL   1576
05762:  MOVLB  4
05764:  BTG    x20.3
05766:  MOVLB  6
05768:  CLRF   x36
0576A:  MOVLB  4
....................          } 
....................          if(flag_luz==1 && VIDRIOOK) 
0576C:  BTFSS  x20.3
0576E:  BRA    5792
05770:  BSF    F92.3
05772:  BTFSS  F80.3
05774:  BRA    5792
....................          { 
....................                Menu=230;delay_ms(500); 
05776:  MOVLW  E6
05778:  MOVWF  xE0
0577A:  MOVLW  02
0577C:  MOVLB  6
0577E:  MOVWF  x4E
05780:  MOVLW  FA
05782:  MOVWF  x56
05784:  MOVLB  0
05786:  CALL   1576
0578A:  MOVLB  6
0578C:  DECFSZ x4E,F
0578E:  BRA    5780
05790:  MOVLB  4
....................          } 
....................       } 
....................       else 
05792:  BRA    579A
05794:  MOVLB  6
....................       { 
....................          Flanco5 = 0; 
05796:  MOVLB  4
05798:  BCF    x1F.5
....................       } 
....................        
....................       if(BYTE_IR[2]==0X1C) 
0579A:  MOVLB  6
0579C:  MOVF   x36,W
0579E:  SUBLW  1C
057A0:  BNZ   57D8
....................       { 
....................          BYTE_IR[2]=0X00; 
057A2:  CLRF   x36
....................          delay_ms(30);Menu=3;//glcd_fillScreen(OFF); 
057A4:  MOVLW  1E
057A6:  MOVWF  x56
057A8:  MOVLB  0
057AA:  CALL   1576
057AE:  MOVLW  03
057B0:  MOVLB  4
057B2:  MOVWF  xE0
....................          glcd_init(ON);             //Inicializa la glcd 
057B4:  MOVLW  01
057B6:  MOVLB  6
057B8:  MOVWF  x4E
057BA:  MOVLB  0
057BC:  CALL   22B6
....................          glcd_fillScreen(OFF);      //Limpia la pantalla 
057C0:  MOVLB  6
057C2:  CLRF   x4F
057C4:  MOVLB  0
057C6:  CALL   225C
....................          glcd_update();   
057CA:  CALL   1A42
....................          LuzBlanca_off;LuzUV_off; 
057CE:  BCF    F8B.4
057D0:  BCF    F94.4
057D2:  BCF    F8B.5
057D4:  BCF    F94.5
057D6:  MOVLB  6
....................       } 
....................        
....................       if(BYTE_IR[2]==0X09) 
057D8:  MOVF   x36,W
057DA:  SUBLW  09
057DC:  BNZ   5814
....................       { 
....................          BYTE_IR[2]=0X00; 
057DE:  CLRF   x36
....................          delay_ms(30);Menu=32;//glcd_fillScreen(OFF); 
057E0:  MOVLW  1E
057E2:  MOVWF  x56
057E4:  MOVLB  0
057E6:  CALL   1576
057EA:  MOVLW  20
057EC:  MOVLB  4
057EE:  MOVWF  xE0
....................          glcd_init(ON);             //Inicializa la glcd 
057F0:  MOVLW  01
057F2:  MOVLB  6
057F4:  MOVWF  x4E
057F6:  MOVLB  0
057F8:  CALL   22B6
....................          glcd_fillScreen(OFF);      //Limpia la pantalla 
057FC:  MOVLB  6
057FE:  CLRF   x4F
05800:  MOVLB  0
05802:  CALL   225C
....................          glcd_update();   
05806:  CALL   1A42
....................          LuzBlanca_off;LuzUV_off; 
0580A:  BCF    F8B.4
0580C:  BCF    F94.4
0580E:  BCF    F8B.5
05810:  BCF    F94.5
05812:  MOVLB  6
....................       } 
....................        
....................       if(UP || BYTE_IR[2]==0X18)//Si oprime boton de Toma. 
05814:  BSF    F96.0
05816:  BTFSC  F84.0
05818:  BRA    5820
0581A:  MOVF   x36,W
0581C:  SUBLW  18
0581E:  BNZ   5890
....................       { 
....................          BYTE_IR[2]=0X00; 
05820:  CLRF   x36
....................          delay_ms(500); 
05822:  MOVLW  02
05824:  MOVWF  x4E
05826:  MOVLW  FA
05828:  MOVWF  x56
0582A:  MOVLB  0
0582C:  CALL   1576
05830:  MOVLB  6
05832:  DECFSZ x4E,F
05834:  BRA    5826
....................          if(UP)//Si oprime boton de Toma. 
05836:  BSF    F96.0
05838:  BTFSS  F84.0
0583A:  BRA    5872
....................          { 
....................             delay_ms(30);Menu=3;//glcd_fillScreen(OFF); 
0583C:  MOVLW  1E
0583E:  MOVWF  x56
05840:  MOVLB  0
05842:  CALL   1576
05846:  MOVLW  03
05848:  MOVLB  4
0584A:  MOVWF  xE0
....................             glcd_init(ON);             //Inicializa la glcd 
0584C:  MOVLW  01
0584E:  MOVLB  6
05850:  MOVWF  x4E
05852:  MOVLB  0
05854:  CALL   22B6
....................             glcd_fillScreen(OFF);      //Limpia la pantalla 
05858:  MOVLB  6
0585A:  CLRF   x4F
0585C:  MOVLB  0
0585E:  CALL   225C
....................             glcd_update();   
05862:  CALL   1A42
....................             LuzBlanca_off;LuzUV_off; 
05866:  BCF    F8B.4
05868:  BCF    F94.4
0586A:  BCF    F8B.5
0586C:  BCF    F94.5
....................          } 
....................          else 
0586E:  BRA    588C
05870:  MOVLB  6
....................          { 
....................             if(Flanco6 == 0) 
05872:  MOVLB  4
05874:  BTFSC  x1F.6
05876:  BRA    588A
....................             { 
....................                Flanco6 = 1;delay_ms(30);flag_toma=!flag_toma; 
05878:  BSF    x1F.6
0587A:  MOVLW  1E
0587C:  MOVLB  6
0587E:  MOVWF  x56
05880:  MOVLB  0
05882:  CALL   1576
05886:  MOVLB  4
05888:  BTG    x20.2
0588A:  MOVLB  0
....................             } 
....................          } 
....................       } 
....................       else 
0588C:  BRA    5894
0588E:  MOVLB  6
....................       { 
....................          Flanco6 = 0; 
05890:  MOVLB  4
05892:  BCF    x1F.6
....................       } 
....................              
....................       if((Tempouv[0]>=Tempouvp[0])&&(Tempouv[1]>=Tempouvp[1])&&(Tempouv[2]>=Tempouvp[2])&&(Tempouv[3]>=Tempouvp[3]))       
05894:  MOVLB  5
05896:  MOVF   x1A,W
05898:  XORLW  80
0589A:  MOVWF  00
0589C:  MOVF   x16,W
0589E:  XORLW  80
058A0:  SUBWF  00,W
058A2:  BZ    58A6
058A4:  BC    591E
058A6:  MOVF   x1B,W
058A8:  XORLW  80
058AA:  MOVWF  00
058AC:  MOVF   x17,W
058AE:  XORLW  80
058B0:  SUBWF  00,W
058B2:  BZ    58B6
058B4:  BC    591E
058B6:  MOVF   x1C,W
058B8:  XORLW  80
058BA:  MOVWF  00
058BC:  MOVF   x18,W
058BE:  XORLW  80
058C0:  SUBWF  00,W
058C2:  BZ    58C6
058C4:  BC    591E
058C6:  MOVF   x1D,W
058C8:  XORLW  80
058CA:  MOVWF  00
058CC:  MOVF   x19,W
058CE:  XORLW  80
058D0:  SUBWF  00,W
058D2:  BZ    58D6
058D4:  BC    591E
....................       { 
....................          if((Tempouvp[0]==0)&&(Tempouvp[1]==0)&&(Tempouvp[2]==0)&&(Tempouvp[3]==0)) 
058D6:  MOVF   x1A,F
058D8:  BNZ   58E8
058DA:  MOVF   x1B,F
058DC:  BNZ   58E8
058DE:  MOVF   x1C,F
058E0:  BNZ   58E8
058E2:  MOVF   x1D,F
058E4:  BNZ   58E8
....................          {} 
....................          else   
058E6:  BRA    591E
....................          { 
....................             tiempo_uv=0;LuzUV=10;flag_uv=!flag_uv;glcd_rect(102, 0, 127, 14, YES, OFF); 
058E8:  MOVLB  4
058EA:  BCF    x20.7
058EC:  MOVLW  0A
058EE:  MOVWF  xEE
058F0:  BTG    x20.0
058F2:  MOVLW  66
058F4:  MOVLB  6
058F6:  MOVWF  x65
058F8:  CLRF   x66
058FA:  MOVLW  7F
058FC:  MOVWF  x67
058FE:  MOVLW  0E
05900:  MOVWF  x68
05902:  MOVLW  01
05904:  MOVWF  x69
05906:  CLRF   x6A
05908:  MOVLB  0
0590A:  CALL   2698
....................             Tempouv[0]=0;Tempouv[1]=0;Tempouv[2]=0;Tempouv[3]=0;UV2=0; 
0590E:  MOVLB  5
05910:  CLRF   x16
05912:  CLRF   x17
05914:  CLRF   x18
05916:  CLRF   x19
05918:  MOVLB  4
0591A:  CLRF   xF1
0591C:  MOVLB  5
....................          } 
....................       } 
....................     } 
.................... //_--------------------------------------------------------------------------------------------------------------------------------------------------------        
....................  
.................... //_-------------------------------------------------------------------------------------------------------------------------------------------------------- 
....................       if(Menu==3){ //Menu Principal. 
0591E:  MOVLB  4
05920:  MOVF   xE0,W
05922:  SUBLW  03
05924:  BTFSS  FD8.2
05926:  BRA    5C50
....................        
....................       AjustarOK=10;AjustarUP=10;AjustarUV=10;VidrioOff(); 
05928:  MOVLW  0A
0592A:  MOVWF  x1A
0592C:  MOVWF  x1C
0592E:  MOVWF  x1B
05930:  MOVLB  0
05932:  CALL   19EE
....................       strcpy(Menus.Letra,"Menu"); 
05936:  MOVLW  06
05938:  MOVWF  FEA
0593A:  MOVLW  38
0593C:  MOVWF  FE9
0593E:  MOVFF  FF2,64E
05942:  BCF    FF2.7
05944:  MOVLW  00
05946:  CALL   0F8C
0594A:  TBLRD*-
0594C:  TBLRD*+
0594E:  MOVF   FF5,W
05950:  MOVWF  FEE
05952:  IORLW  00
05954:  BNZ   594C
05956:  MOVLB  6
05958:  BTFSC  x4E.7
0595A:  BSF    FF2.7
....................       displayMenu(Menus.Letra,40,0,1,2); 
0595C:  MOVLW  06
0595E:  MOVWF  x4F
05960:  MOVLW  38
05962:  MOVWF  x4E
05964:  MOVLW  28
05966:  MOVWF  x50
05968:  CLRF   x51
0596A:  MOVLW  01
0596C:  MOVWF  x52
0596E:  MOVLW  02
05970:  MOVWF  x53
05972:  MOVLB  0
05974:  CALL   29C8
....................        
....................       if(Opcion==1)    
05978:  MOVLB  4
0597A:  DECFSZ xE2,W
0597C:  BRA    59C4
....................          {strcpy(Menus.Letra,"Ajustes"); 
0597E:  MOVLW  06
05980:  MOVWF  FEA
05982:  MOVLW  38
05984:  MOVWF  FE9
05986:  MOVFF  FF2,64E
0598A:  BCF    FF2.7
0598C:  MOVLW  00
0598E:  MOVLB  0
05990:  CALL   0FB0
05994:  TBLRD*-
05996:  TBLRD*+
05998:  MOVF   FF5,W
0599A:  MOVWF  FEE
0599C:  IORLW  00
0599E:  BNZ   5996
059A0:  MOVLB  6
059A2:  BTFSC  x4E.7
059A4:  BSF    FF2.7
....................          displayMenu(Menus.Letra,0,19,1,1);} 
059A6:  MOVLW  06
059A8:  MOVWF  x4F
059AA:  MOVLW  38
059AC:  MOVWF  x4E
059AE:  CLRF   x50
059B0:  MOVLW  13
059B2:  MOVWF  x51
059B4:  MOVLW  01
059B6:  MOVWF  x52
059B8:  MOVWF  x53
059BA:  MOVLB  0
059BC:  CALL   29C8
....................       else 
059C0:  BRA    5A06
059C2:  MOVLB  4
....................          {strcpy(Menus.Letra,"Ajustes"); 
059C4:  MOVLW  06
059C6:  MOVWF  FEA
059C8:  MOVLW  38
059CA:  MOVWF  FE9
059CC:  MOVFF  FF2,64E
059D0:  BCF    FF2.7
059D2:  MOVLW  00
059D4:  MOVLB  0
059D6:  CALL   0FB0
059DA:  TBLRD*-
059DC:  TBLRD*+
059DE:  MOVF   FF5,W
059E0:  MOVWF  FEE
059E2:  IORLW  00
059E4:  BNZ   59DC
059E6:  MOVLB  6
059E8:  BTFSC  x4E.7
059EA:  BSF    FF2.7
....................          displayMenu(Menus.Letra,0,19,0,1);} 
059EC:  MOVLW  06
059EE:  MOVWF  x4F
059F0:  MOVLW  38
059F2:  MOVWF  x4E
059F4:  CLRF   x50
059F6:  MOVLW  13
059F8:  MOVWF  x51
059FA:  CLRF   x52
059FC:  MOVLW  01
059FE:  MOVWF  x53
05A00:  MOVLB  0
05A02:  CALL   29C8
....................           
....................       if(Opcion==2)    
05A06:  MOVLB  4
05A08:  MOVF   xE2,W
05A0A:  SUBLW  02
05A0C:  BNZ   5A54
....................          {strcpy(Menus.Letra,"Clave"); 
05A0E:  MOVLW  06
05A10:  MOVWF  FEA
05A12:  MOVLW  38
05A14:  MOVWF  FE9
05A16:  MOVFF  FF2,64E
05A1A:  BCF    FF2.7
05A1C:  MOVLW  00
05A1E:  MOVLB  0
05A20:  CALL   0F16
05A24:  TBLRD*-
05A26:  TBLRD*+
05A28:  MOVF   FF5,W
05A2A:  MOVWF  FEE
05A2C:  IORLW  00
05A2E:  BNZ   5A26
05A30:  MOVLB  6
05A32:  BTFSC  x4E.7
05A34:  BSF    FF2.7
....................          displayMenu(Menus.Letra,0,35,1,1);} 
05A36:  MOVLW  06
05A38:  MOVWF  x4F
05A3A:  MOVLW  38
05A3C:  MOVWF  x4E
05A3E:  CLRF   x50
05A40:  MOVLW  23
05A42:  MOVWF  x51
05A44:  MOVLW  01
05A46:  MOVWF  x52
05A48:  MOVWF  x53
05A4A:  MOVLB  0
05A4C:  CALL   29C8
....................       else 
05A50:  BRA    5A96
05A52:  MOVLB  4
....................          {strcpy(Menus.Letra,"Clave"); 
05A54:  MOVLW  06
05A56:  MOVWF  FEA
05A58:  MOVLW  38
05A5A:  MOVWF  FE9
05A5C:  MOVFF  FF2,64E
05A60:  BCF    FF2.7
05A62:  MOVLW  00
05A64:  MOVLB  0
05A66:  CALL   0F16
05A6A:  TBLRD*-
05A6C:  TBLRD*+
05A6E:  MOVF   FF5,W
05A70:  MOVWF  FEE
05A72:  IORLW  00
05A74:  BNZ   5A6C
05A76:  MOVLB  6
05A78:  BTFSC  x4E.7
05A7A:  BSF    FF2.7
....................          displayMenu(Menus.Letra,0,35,0,1);}    
05A7C:  MOVLW  06
05A7E:  MOVWF  x4F
05A80:  MOVLW  38
05A82:  MOVWF  x4E
05A84:  CLRF   x50
05A86:  MOVLW  23
05A88:  MOVWF  x51
05A8A:  CLRF   x52
05A8C:  MOVLW  01
05A8E:  MOVWF  x53
05A90:  MOVLB  0
05A92:  CALL   29C8
....................           
....................        if(Opcion==3)    
05A96:  MOVLB  4
05A98:  MOVF   xE2,W
05A9A:  SUBLW  03
05A9C:  BNZ   5AE4
....................          {strcpy(Menus.Letra,"Modo"); 
05A9E:  MOVLW  06
05AA0:  MOVWF  FEA
05AA2:  MOVLW  38
05AA4:  MOVWF  FE9
05AA6:  MOVFF  FF2,64E
05AAA:  BCF    FF2.7
05AAC:  MOVLW  00
05AAE:  MOVLB  0
05AB0:  CALL   0FD6
05AB4:  TBLRD*-
05AB6:  TBLRD*+
05AB8:  MOVF   FF5,W
05ABA:  MOVWF  FEE
05ABC:  IORLW  00
05ABE:  BNZ   5AB6
05AC0:  MOVLB  6
05AC2:  BTFSC  x4E.7
05AC4:  BSF    FF2.7
....................          displayMenu(Menus.Letra,0,51,1,1);} 
05AC6:  MOVLW  06
05AC8:  MOVWF  x4F
05ACA:  MOVLW  38
05ACC:  MOVWF  x4E
05ACE:  CLRF   x50
05AD0:  MOVLW  33
05AD2:  MOVWF  x51
05AD4:  MOVLW  01
05AD6:  MOVWF  x52
05AD8:  MOVWF  x53
05ADA:  MOVLB  0
05ADC:  CALL   29C8
....................       else 
05AE0:  BRA    5B26
05AE2:  MOVLB  4
....................          {strcpy(Menus.Letra,"Modo"); 
05AE4:  MOVLW  06
05AE6:  MOVWF  FEA
05AE8:  MOVLW  38
05AEA:  MOVWF  FE9
05AEC:  MOVFF  FF2,64E
05AF0:  BCF    FF2.7
05AF2:  MOVLW  00
05AF4:  MOVLB  0
05AF6:  CALL   0FD6
05AFA:  TBLRD*-
05AFC:  TBLRD*+
05AFE:  MOVF   FF5,W
05B00:  MOVWF  FEE
05B02:  IORLW  00
05B04:  BNZ   5AFC
05B06:  MOVLB  6
05B08:  BTFSC  x4E.7
05B0A:  BSF    FF2.7
....................          displayMenu(Menus.Letra,0,51,0,1);}      
05B0C:  MOVLW  06
05B0E:  MOVWF  x4F
05B10:  MOVLW  38
05B12:  MOVWF  x4E
05B14:  CLRF   x50
05B16:  MOVLW  33
05B18:  MOVWF  x51
05B1A:  CLRF   x52
05B1C:  MOVLW  01
05B1E:  MOVWF  x53
05B20:  MOVLB  0
05B22:  CALL   29C8
....................        glcd_update();  
05B26:  CALL   1A42
....................        if(w==0) 
05B2A:  MOVLB  4
05B2C:  BTFSC  x20.5
05B2E:  BRA    5B4A
....................        {delay_ms(500);w=1;} 
05B30:  MOVLW  02
05B32:  MOVLB  6
05B34:  MOVWF  x4E
05B36:  MOVLW  FA
05B38:  MOVWF  x56
05B3A:  MOVLB  0
05B3C:  CALL   1576
05B40:  MOVLB  6
05B42:  DECFSZ x4E,F
05B44:  BRA    5B36
05B46:  MOVLB  4
05B48:  BSF    x20.5
....................           
....................          
....................       if(UP || BYTE_IR[2]==0X18)//Si oprime hacia arriba 
05B4A:  BSF    F96.0
05B4C:  BTFSC  F84.0
05B4E:  BRA    5B5A
05B50:  MOVLB  6
05B52:  MOVF   x36,W
05B54:  SUBLW  18
05B56:  BNZ   5B7A
05B58:  MOVLB  4
....................       {   
....................          if(Flanco == 0) 
05B5A:  BTFSC  x1F.0
05B5C:  BRA    5B76
....................          { 
....................             Flanco = 1;delay_ms(30);Opcion--;BYTE_IR[2]=0X00; 
05B5E:  BSF    x1F.0
05B60:  MOVLW  1E
05B62:  MOVLB  6
05B64:  MOVWF  x56
05B66:  MOVLB  0
05B68:  CALL   1576
05B6C:  MOVLB  4
05B6E:  DECF   xE2,F
05B70:  MOVLB  6
05B72:  CLRF   x36
05B74:  MOVLB  4
....................          } 
....................       } 
....................       else 
05B76:  BRA    5B7E
05B78:  MOVLB  6
....................       { 
....................          Flanco = 0; 
05B7A:  MOVLB  4
05B7C:  BCF    x1F.0
....................       } 
....................              
....................       if(DOWN  || BYTE_IR[2]==0X52)//Si oprime hacia abajo 
05B7E:  BSF    F96.1
05B80:  BTFSC  F84.1
05B82:  BRA    5B8E
05B84:  MOVLB  6
05B86:  MOVF   x36,W
05B88:  SUBLW  52
05B8A:  BNZ   5BAC
05B8C:  MOVLB  4
....................       {  if(Flanco2 == 0)  
05B8E:  BTFSC  x1F.2
05B90:  BRA    5BAA
....................             {Flanco2 = 1;delay_ms(30);Opcion++;BYTE_IR[2]=0X00; 
05B92:  BSF    x1F.2
05B94:  MOVLW  1E
05B96:  MOVLB  6
05B98:  MOVWF  x56
05B9A:  MOVLB  0
05B9C:  CALL   1576
05BA0:  MOVLB  4
05BA2:  INCF   xE2,F
05BA4:  MOVLB  6
05BA6:  CLRF   x36
05BA8:  MOVLB  4
....................             }      
....................       } 
....................          else 
05BAA:  BRA    5BB0
....................             {Flanco2 = 0;}   
05BAC:  MOVLB  4
05BAE:  BCF    x1F.2
....................              
....................       if(RIGHT || BYTE_IR[2]==0X5A)//Si oprime SET 
05BB0:  BSF    F96.2
05BB2:  BTFSC  F84.2
05BB4:  BRA    5BC0
05BB6:  MOVLB  6
05BB8:  MOVF   x36,W
05BBA:  SUBLW  5A
05BBC:  BNZ   5C00
05BBE:  MOVLB  4
....................       {  if(Flanco1 == 0)  
05BC0:  BTFSC  x1F.1
05BC2:  BRA    5BFE
....................             {Flanco1 = 1;delay_ms(500);Menu=Opcion+3;Opcion=1;glcd_fillscreen(OFF);unidad=1;BYTE_IR[2]=0X00; 
05BC4:  BSF    x1F.1
05BC6:  MOVLW  02
05BC8:  MOVLB  6
05BCA:  MOVWF  x4E
05BCC:  MOVLW  FA
05BCE:  MOVWF  x56
05BD0:  MOVLB  0
05BD2:  CALL   1576
05BD6:  MOVLB  6
05BD8:  DECFSZ x4E,F
05BDA:  BRA    5BCC
05BDC:  MOVLW  03
05BDE:  MOVLB  4
05BE0:  ADDWF  xE2,W
05BE2:  MOVWF  xE0
05BE4:  MOVLW  01
05BE6:  MOVWF  xE2
05BE8:  MOVLB  6
05BEA:  CLRF   x4F
05BEC:  MOVLB  0
05BEE:  CALL   225C
05BF2:  MOVLW  01
05BF4:  MOVLB  4
05BF6:  MOVWF  xE1
05BF8:  MOVLB  6
05BFA:  CLRF   x36
05BFC:  MOVLB  4
....................             } 
....................       } 
....................          else 
05BFE:  BRA    5C04
....................             {Flanco1 = 0;}   
05C00:  MOVLB  4
05C02:  BCF    x1F.1
....................              
....................       if(LEFT || BYTE_IR[2]==0X08)//Si oprime boton de Toma. 
05C04:  BSF    F94.0
05C06:  BTFSC  F82.0
05C08:  BRA    5C12
05C0A:  MOVLB  6
05C0C:  MOVF   x36,W
05C0E:  SUBLW  08
05C10:  BNZ   5C3C
....................       {delay_ms(700);Menu=2;glcd_fillscreen(OFF);BYTE_IR[2]=0X00;} 
05C12:  MOVLW  04
05C14:  MOVLB  6
05C16:  MOVWF  x4E
05C18:  MOVLW  AF
05C1A:  MOVWF  x56
05C1C:  MOVLB  0
05C1E:  CALL   1576
05C22:  MOVLB  6
05C24:  DECFSZ x4E,F
05C26:  BRA    5C18
05C28:  MOVLW  02
05C2A:  MOVLB  4
05C2C:  MOVWF  xE0
05C2E:  MOVLB  6
05C30:  CLRF   x4F
05C32:  MOVLB  0
05C34:  CALL   225C
05C38:  MOVLB  6
05C3A:  CLRF   x36
....................              
....................       if(Opcion>3) 
05C3C:  MOVLB  4
05C3E:  MOVF   xE2,W
05C40:  SUBLW  03
05C42:  BC    5C48
....................       {Opcion=1;} 
05C44:  MOVLW  01
05C46:  MOVWF  xE2
....................       if(Opcion<1) 
05C48:  MOVF   xE2,F
05C4A:  BNZ   5C50
....................       {Opcion=3;} 
05C4C:  MOVLW  03
05C4E:  MOVWF  xE2
....................      
....................     } 
.................... //_--------------------------------------------------------------------------------------------------------------------------------------------------------        
....................  
.................... //_-------------------------------------------------------------------------------------------------------------------------------------------------------- 
....................       if(Menu==4){ //Menu de Ajustes. 
05C50:  MOVF   xE0,W
05C52:  SUBLW  04
05C54:  BTFSS  FD8.2
05C56:  BRA    601E
....................        
....................       if(Opcion==1)    
05C58:  DECFSZ xE2,W
05C5A:  BRA    5CA2
....................          {strcpy(Menus.Letra,"Tiempo Purga"); 
05C5C:  MOVLW  06
05C5E:  MOVWF  FEA
05C60:  MOVLW  38
05C62:  MOVWF  FE9
05C64:  MOVFF  FF2,64E
05C68:  BCF    FF2.7
05C6A:  MOVLW  00
05C6C:  MOVLB  0
05C6E:  CALL   0FFA
05C72:  TBLRD*-
05C74:  TBLRD*+
05C76:  MOVF   FF5,W
05C78:  MOVWF  FEE
05C7A:  IORLW  00
05C7C:  BNZ   5C74
05C7E:  MOVLB  6
05C80:  BTFSC  x4E.7
05C82:  BSF    FF2.7
....................          displayMenu(Menus.Letra,0,4,1,1);} 
05C84:  MOVLW  06
05C86:  MOVWF  x4F
05C88:  MOVLW  38
05C8A:  MOVWF  x4E
05C8C:  CLRF   x50
05C8E:  MOVLW  04
05C90:  MOVWF  x51
05C92:  MOVLW  01
05C94:  MOVWF  x52
05C96:  MOVWF  x53
05C98:  MOVLB  0
05C9A:  CALL   29C8
....................       else 
05C9E:  BRA    5CE4
05CA0:  MOVLB  4
....................          {strcpy(Menus.Letra,"Tiempo Purga"); 
05CA2:  MOVLW  06
05CA4:  MOVWF  FEA
05CA6:  MOVLW  38
05CA8:  MOVWF  FE9
05CAA:  MOVFF  FF2,64E
05CAE:  BCF    FF2.7
05CB0:  MOVLW  00
05CB2:  MOVLB  0
05CB4:  CALL   0FFA
05CB8:  TBLRD*-
05CBA:  TBLRD*+
05CBC:  MOVF   FF5,W
05CBE:  MOVWF  FEE
05CC0:  IORLW  00
05CC2:  BNZ   5CBA
05CC4:  MOVLB  6
05CC6:  BTFSC  x4E.7
05CC8:  BSF    FF2.7
....................          displayMenu(Menus.Letra,0,4,0,1);} 
05CCA:  MOVLW  06
05CCC:  MOVWF  x4F
05CCE:  MOVLW  38
05CD0:  MOVWF  x4E
05CD2:  CLRF   x50
05CD4:  MOVLW  04
05CD6:  MOVWF  x51
05CD8:  CLRF   x52
05CDA:  MOVLW  01
05CDC:  MOVWF  x53
05CDE:  MOVLB  0
05CE0:  CALL   29C8
....................           
....................       if(Opcion==2)    
05CE4:  MOVLB  4
05CE6:  MOVF   xE2,W
05CE8:  SUBLW  02
05CEA:  BNZ   5D32
....................          {strcpy(Menus.Letra,"Tiempo Post-Purga"); 
05CEC:  MOVLW  06
05CEE:  MOVWF  FEA
05CF0:  MOVLW  38
05CF2:  MOVWF  FE9
05CF4:  MOVFF  FF2,64E
05CF8:  BCF    FF2.7
05CFA:  MOVLW  00
05CFC:  MOVLB  0
05CFE:  CALL   1026
05D02:  TBLRD*-
05D04:  TBLRD*+
05D06:  MOVF   FF5,W
05D08:  MOVWF  FEE
05D0A:  IORLW  00
05D0C:  BNZ   5D04
05D0E:  MOVLB  6
05D10:  BTFSC  x4E.7
05D12:  BSF    FF2.7
....................          displayMenu(Menus.Letra,0,16,1,1);} 
05D14:  MOVLW  06
05D16:  MOVWF  x4F
05D18:  MOVLW  38
05D1A:  MOVWF  x4E
05D1C:  CLRF   x50
05D1E:  MOVLW  10
05D20:  MOVWF  x51
05D22:  MOVLW  01
05D24:  MOVWF  x52
05D26:  MOVWF  x53
05D28:  MOVLB  0
05D2A:  CALL   29C8
....................       else 
05D2E:  BRA    5D74
05D30:  MOVLB  4
....................          {strcpy(Menus.Letra,"Tiempo Post-Purga"); 
05D32:  MOVLW  06
05D34:  MOVWF  FEA
05D36:  MOVLW  38
05D38:  MOVWF  FE9
05D3A:  MOVFF  FF2,64E
05D3E:  BCF    FF2.7
05D40:  MOVLW  00
05D42:  MOVLB  0
05D44:  CALL   1026
05D48:  TBLRD*-
05D4A:  TBLRD*+
05D4C:  MOVF   FF5,W
05D4E:  MOVWF  FEE
05D50:  IORLW  00
05D52:  BNZ   5D4A
05D54:  MOVLB  6
05D56:  BTFSC  x4E.7
05D58:  BSF    FF2.7
....................          displayMenu(Menus.Letra,0,16,0,1);}    
05D5A:  MOVLW  06
05D5C:  MOVWF  x4F
05D5E:  MOVLW  38
05D60:  MOVWF  x4E
05D62:  CLRF   x50
05D64:  MOVLW  10
05D66:  MOVWF  x51
05D68:  CLRF   x52
05D6A:  MOVLW  01
05D6C:  MOVWF  x53
05D6E:  MOVLB  0
05D70:  CALL   29C8
....................           
....................       if(Opcion==3)    
05D74:  MOVLB  4
05D76:  MOVF   xE2,W
05D78:  SUBLW  03
05D7A:  BNZ   5DC2
....................          {strcpy(Menus.Letra,"Tempo UV"); 
05D7C:  MOVLW  06
05D7E:  MOVWF  FEA
05D80:  MOVLW  38
05D82:  MOVWF  FE9
05D84:  MOVFF  FF2,64E
05D88:  BCF    FF2.7
05D8A:  MOVLW  00
05D8C:  MOVLB  0
05D8E:  CALL   1056
05D92:  TBLRD*-
05D94:  TBLRD*+
05D96:  MOVF   FF5,W
05D98:  MOVWF  FEE
05D9A:  IORLW  00
05D9C:  BNZ   5D94
05D9E:  MOVLB  6
05DA0:  BTFSC  x4E.7
05DA2:  BSF    FF2.7
....................          displayMenu(Menus.Letra,0,28,1,1);} 
05DA4:  MOVLW  06
05DA6:  MOVWF  x4F
05DA8:  MOVLW  38
05DAA:  MOVWF  x4E
05DAC:  CLRF   x50
05DAE:  MOVLW  1C
05DB0:  MOVWF  x51
05DB2:  MOVLW  01
05DB4:  MOVWF  x52
05DB6:  MOVWF  x53
05DB8:  MOVLB  0
05DBA:  CALL   29C8
....................       else 
05DBE:  BRA    5E04
05DC0:  MOVLB  4
....................          {strcpy(Menus.Letra,"Tempo UV"); 
05DC2:  MOVLW  06
05DC4:  MOVWF  FEA
05DC6:  MOVLW  38
05DC8:  MOVWF  FE9
05DCA:  MOVFF  FF2,64E
05DCE:  BCF    FF2.7
05DD0:  MOVLW  00
05DD2:  MOVLB  0
05DD4:  CALL   1056
05DD8:  TBLRD*-
05DDA:  TBLRD*+
05DDC:  MOVF   FF5,W
05DDE:  MOVWF  FEE
05DE0:  IORLW  00
05DE2:  BNZ   5DDA
05DE4:  MOVLB  6
05DE6:  BTFSC  x4E.7
05DE8:  BSF    FF2.7
....................          displayMenu(Menus.Letra,0,28,0,1);}        
05DEA:  MOVLW  06
05DEC:  MOVWF  x4F
05DEE:  MOVLW  38
05DF0:  MOVWF  x4E
05DF2:  CLRF   x50
05DF4:  MOVLW  1C
05DF6:  MOVWF  x51
05DF8:  CLRF   x52
05DFA:  MOVLW  01
05DFC:  MOVWF  x53
05DFE:  MOVLB  0
05E00:  CALL   29C8
....................           
....................       if(Opcion==4)    
05E04:  MOVLB  4
05E06:  MOVF   xE2,W
05E08:  SUBLW  04
05E0A:  BNZ   5E52
....................          {strcpy(Menus.Letra,"Sensor de Flujo"); 
05E0C:  MOVLW  06
05E0E:  MOVWF  FEA
05E10:  MOVLW  38
05E12:  MOVWF  FE9
05E14:  MOVFF  FF2,64E
05E18:  BCF    FF2.7
05E1A:  MOVLW  00
05E1C:  MOVLB  0
05E1E:  CALL   107E
05E22:  TBLRD*-
05E24:  TBLRD*+
05E26:  MOVF   FF5,W
05E28:  MOVWF  FEE
05E2A:  IORLW  00
05E2C:  BNZ   5E24
05E2E:  MOVLB  6
05E30:  BTFSC  x4E.7
05E32:  BSF    FF2.7
....................          displayMenu(Menus.Letra,0,40,1,1);} 
05E34:  MOVLW  06
05E36:  MOVWF  x4F
05E38:  MOVLW  38
05E3A:  MOVWF  x4E
05E3C:  CLRF   x50
05E3E:  MOVLW  28
05E40:  MOVWF  x51
05E42:  MOVLW  01
05E44:  MOVWF  x52
05E46:  MOVWF  x53
05E48:  MOVLB  0
05E4A:  CALL   29C8
....................       else 
05E4E:  BRA    5E94
05E50:  MOVLB  4
....................          {strcpy(Menus.Letra,"Sensor de Flujo"); 
05E52:  MOVLW  06
05E54:  MOVWF  FEA
05E56:  MOVLW  38
05E58:  MOVWF  FE9
05E5A:  MOVFF  FF2,64E
05E5E:  BCF    FF2.7
05E60:  MOVLW  00
05E62:  MOVLB  0
05E64:  CALL   107E
05E68:  TBLRD*-
05E6A:  TBLRD*+
05E6C:  MOVF   FF5,W
05E6E:  MOVWF  FEE
05E70:  IORLW  00
05E72:  BNZ   5E6A
05E74:  MOVLB  6
05E76:  BTFSC  x4E.7
05E78:  BSF    FF2.7
....................          displayMenu(Menus.Letra,0,40,0,1);}  
05E7A:  MOVLW  06
05E7C:  MOVWF  x4F
05E7E:  MOVLW  38
05E80:  MOVWF  x4E
05E82:  CLRF   x50
05E84:  MOVLW  28
05E86:  MOVWF  x51
05E88:  CLRF   x52
05E8A:  MOVLW  01
05E8C:  MOVWF  x53
05E8E:  MOVLB  0
05E90:  CALL   29C8
....................           
....................       if(Opcion==5)    
05E94:  MOVLB  4
05E96:  MOVF   xE2,W
05E98:  SUBLW  05
05E9A:  BNZ   5EE2
....................          {strcpy(Menus.Letra,"Sensor de Presion"); 
05E9C:  MOVLW  06
05E9E:  MOVWF  FEA
05EA0:  MOVLW  38
05EA2:  MOVWF  FE9
05EA4:  MOVFF  FF2,64E
05EA8:  BCF    FF2.7
05EAA:  MOVLW  00
05EAC:  MOVLB  0
05EAE:  CALL   10AC
05EB2:  TBLRD*-
05EB4:  TBLRD*+
05EB6:  MOVF   FF5,W
05EB8:  MOVWF  FEE
05EBA:  IORLW  00
05EBC:  BNZ   5EB4
05EBE:  MOVLB  6
05EC0:  BTFSC  x4E.7
05EC2:  BSF    FF2.7
....................          displayMenu(Menus.Letra,0,52,1,1);} 
05EC4:  MOVLW  06
05EC6:  MOVWF  x4F
05EC8:  MOVLW  38
05ECA:  MOVWF  x4E
05ECC:  CLRF   x50
05ECE:  MOVLW  34
05ED0:  MOVWF  x51
05ED2:  MOVLW  01
05ED4:  MOVWF  x52
05ED6:  MOVWF  x53
05ED8:  MOVLB  0
05EDA:  CALL   29C8
....................       else 
05EDE:  BRA    5F24
05EE0:  MOVLB  4
....................          {strcpy(Menus.Letra,"Sensor de Presion"); 
05EE2:  MOVLW  06
05EE4:  MOVWF  FEA
05EE6:  MOVLW  38
05EE8:  MOVWF  FE9
05EEA:  MOVFF  FF2,64E
05EEE:  BCF    FF2.7
05EF0:  MOVLW  00
05EF2:  MOVLB  0
05EF4:  CALL   10AC
05EF8:  TBLRD*-
05EFA:  TBLRD*+
05EFC:  MOVF   FF5,W
05EFE:  MOVWF  FEE
05F00:  IORLW  00
05F02:  BNZ   5EFA
05F04:  MOVLB  6
05F06:  BTFSC  x4E.7
05F08:  BSF    FF2.7
....................          displayMenu(Menus.Letra,0,52,0,1);}           
05F0A:  MOVLW  06
05F0C:  MOVWF  x4F
05F0E:  MOVLW  38
05F10:  MOVWF  x4E
05F12:  CLRF   x50
05F14:  MOVLW  34
05F16:  MOVWF  x51
05F18:  CLRF   x52
05F1A:  MOVLW  01
05F1C:  MOVWF  x53
05F1E:  MOVLB  0
05F20:  CALL   29C8
....................           
....................          
....................       if(UP || BYTE_IR[2]==0X18)//Si oprime hacia arriba 
05F24:  BSF    F96.0
05F26:  BTFSC  F84.0
05F28:  BRA    5F32
05F2A:  MOVLB  6
05F2C:  MOVF   x36,W
05F2E:  SUBLW  18
05F30:  BNZ   5F52
....................       {  if(Flanco == 0)  
05F32:  MOVLB  4
05F34:  BTFSC  x1F.0
05F36:  BRA    5F50
....................             {Flanco = 1;delay_ms(30);Opcion--;BYTE_IR[2]=0X00; 
05F38:  BSF    x1F.0
05F3A:  MOVLW  1E
05F3C:  MOVLB  6
05F3E:  MOVWF  x56
05F40:  MOVLB  0
05F42:  CALL   1576
05F46:  MOVLB  4
05F48:  DECF   xE2,F
05F4A:  MOVLB  6
05F4C:  CLRF   x36
05F4E:  MOVLB  4
....................             } 
....................       } 
....................          else 
05F50:  BRA    5F56
....................             {Flanco = 0;} 
05F52:  MOVLB  4
05F54:  BCF    x1F.0
....................              
....................       if(DOWN  || BYTE_IR[2]==0X52)//Si oprime hacia abajo 
05F56:  BSF    F96.1
05F58:  BTFSC  F84.1
05F5A:  BRA    5F66
05F5C:  MOVLB  6
05F5E:  MOVF   x36,W
05F60:  SUBLW  52
05F62:  BNZ   5F84
05F64:  MOVLB  4
....................       {  if(Flanco2 == 0)  
05F66:  BTFSC  x1F.2
05F68:  BRA    5F82
....................             {Flanco2 = 1;delay_ms(30);Opcion++;BYTE_IR[2]=0X00; 
05F6A:  BSF    x1F.2
05F6C:  MOVLW  1E
05F6E:  MOVLB  6
05F70:  MOVWF  x56
05F72:  MOVLB  0
05F74:  CALL   1576
05F78:  MOVLB  4
05F7A:  INCF   xE2,F
05F7C:  MOVLB  6
05F7E:  CLRF   x36
05F80:  MOVLB  4
....................             }      
....................       } 
....................          else 
05F82:  BRA    5F88
....................             {Flanco2 = 0;}   
05F84:  MOVLB  4
05F86:  BCF    x1F.2
....................              
....................       if(RIGHT  || BYTE_IR[2]==0X5A)//Si oprime SET 
05F88:  BSF    F96.2
05F8A:  BTFSC  F84.2
05F8C:  BRA    5F98
05F8E:  MOVLB  6
05F90:  MOVF   x36,W
05F92:  SUBLW  5A
05F94:  BNZ   5FCE
05F96:  MOVLB  4
....................       {  if(Flanco1 == 0)  
05F98:  BTFSC  x1F.1
05F9A:  BRA    5FCC
....................             {Flanco1 = 1;delay_ms(500);Menu=Opcion+10;glcd_fillScreen(OFF);BYTE_IR[2]=0X00; 
05F9C:  BSF    x1F.1
05F9E:  MOVLW  02
05FA0:  MOVLB  6
05FA2:  MOVWF  x4E
05FA4:  MOVLW  FA
05FA6:  MOVWF  x56
05FA8:  MOVLB  0
05FAA:  CALL   1576
05FAE:  MOVLB  6
05FB0:  DECFSZ x4E,F
05FB2:  BRA    5FA4
05FB4:  MOVLW  0A
05FB6:  MOVLB  4
05FB8:  ADDWF  xE2,W
05FBA:  MOVWF  xE0
05FBC:  MOVLB  6
05FBE:  CLRF   x4F
05FC0:  MOVLB  0
05FC2:  CALL   225C
05FC6:  MOVLB  6
05FC8:  CLRF   x36
05FCA:  MOVLB  4
....................             } 
....................       } 
....................          else 
05FCC:  BRA    5FD2
....................             {Flanco1 = 0;}   
05FCE:  MOVLB  4
05FD0:  BCF    x1F.1
....................              
....................       if(LEFT || BYTE_IR[2]==0X08)//Si oprime boton de Toma. 
05FD2:  BSF    F94.0
05FD4:  BTFSC  F82.0
05FD6:  BRA    5FE0
05FD8:  MOVLB  6
05FDA:  MOVF   x36,W
05FDC:  SUBLW  08
05FDE:  BNZ   600A
....................         {delay_ms(700);Menu=3;glcd_fillscreen(OFF);BYTE_IR[2]=0X00;} 
05FE0:  MOVLW  04
05FE2:  MOVLB  6
05FE4:  MOVWF  x4E
05FE6:  MOVLW  AF
05FE8:  MOVWF  x56
05FEA:  MOVLB  0
05FEC:  CALL   1576
05FF0:  MOVLB  6
05FF2:  DECFSZ x4E,F
05FF4:  BRA    5FE6
05FF6:  MOVLW  03
05FF8:  MOVLB  4
05FFA:  MOVWF  xE0
05FFC:  MOVLB  6
05FFE:  CLRF   x4F
06000:  MOVLB  0
06002:  CALL   225C
06006:  MOVLB  6
06008:  CLRF   x36
....................        
....................       if(Opcion>5) 
0600A:  MOVLB  4
0600C:  MOVF   xE2,W
0600E:  SUBLW  05
06010:  BC    6016
....................       {Opcion=1;} 
06012:  MOVLW  01
06014:  MOVWF  xE2
....................       if(Opcion<1) 
06016:  MOVF   xE2,F
06018:  BNZ   601E
....................       {Opcion=5;} 
0601A:  MOVLW  05
0601C:  MOVWF  xE2
....................      
....................     } 
.................... //_--------------------------------------------------------------------------------------------------------------------------------------------------------        
.................... //_-------------------------------------------------------------------------------------------------------------------------------------------------------- 
....................       if(Menu==6){ //Menu de Modo. 
0601E:  MOVF   xE0,W
06020:  SUBLW  06
06022:  BTFSS  FD8.2
06024:  BRA    6244
....................           
....................       if(Opcion==1)    
06026:  DECFSZ xE2,W
06028:  BRA    6070
....................          {strcpy(Menus.Letra,"Mantenimiento"); 
0602A:  MOVLW  06
0602C:  MOVWF  FEA
0602E:  MOVLW  38
06030:  MOVWF  FE9
06032:  MOVFF  FF2,64E
06036:  BCF    FF2.7
06038:  MOVLW  00
0603A:  MOVLB  0
0603C:  CALL   10DC
06040:  TBLRD*-
06042:  TBLRD*+
06044:  MOVF   FF5,W
06046:  MOVWF  FEE
06048:  IORLW  00
0604A:  BNZ   6042
0604C:  MOVLB  6
0604E:  BTFSC  x4E.7
06050:  BSF    FF2.7
....................          displayMenu(Menus.Letra,0,10,1,1);} 
06052:  MOVLW  06
06054:  MOVWF  x4F
06056:  MOVLW  38
06058:  MOVWF  x4E
0605A:  CLRF   x50
0605C:  MOVLW  0A
0605E:  MOVWF  x51
06060:  MOVLW  01
06062:  MOVWF  x52
06064:  MOVWF  x53
06066:  MOVLB  0
06068:  CALL   29C8
....................       else 
0606C:  BRA    60B2
0606E:  MOVLB  4
....................          {strcpy(Menus.Letra,"Mantenimiento"); 
06070:  MOVLW  06
06072:  MOVWF  FEA
06074:  MOVLW  38
06076:  MOVWF  FE9
06078:  MOVFF  FF2,64E
0607C:  BCF    FF2.7
0607E:  MOVLW  00
06080:  MOVLB  0
06082:  CALL   10DC
06086:  TBLRD*-
06088:  TBLRD*+
0608A:  MOVF   FF5,W
0608C:  MOVWF  FEE
0608E:  IORLW  00
06090:  BNZ   6088
06092:  MOVLB  6
06094:  BTFSC  x4E.7
06096:  BSF    FF2.7
....................          displayMenu(Menus.Letra,0,10,0,1);}    
06098:  MOVLW  06
0609A:  MOVWF  x4F
0609C:  MOVLW  38
0609E:  MOVWF  x4E
060A0:  CLRF   x50
060A2:  MOVLW  0A
060A4:  MOVWF  x51
060A6:  CLRF   x52
060A8:  MOVLW  01
060AA:  MOVWF  x53
060AC:  MOVLB  0
060AE:  CALL   29C8
....................           
....................       if(Opcion==2)    
060B2:  MOVLB  4
060B4:  MOVF   xE2,W
060B6:  SUBLW  02
060B8:  BNZ   6100
....................          {strcpy(Menus.Letra,"Apagado"); 
060BA:  MOVLW  06
060BC:  MOVWF  FEA
060BE:  MOVLW  38
060C0:  MOVWF  FE9
060C2:  MOVFF  FF2,64E
060C6:  BCF    FF2.7
060C8:  MOVLW  00
060CA:  MOVLB  0
060CC:  CALL   1108
060D0:  TBLRD*-
060D2:  TBLRD*+
060D4:  MOVF   FF5,W
060D6:  MOVWF  FEE
060D8:  IORLW  00
060DA:  BNZ   60D2
060DC:  MOVLB  6
060DE:  BTFSC  x4E.7
060E0:  BSF    FF2.7
....................          displayMenu(Menus.Letra,0,40,1,1);} 
060E2:  MOVLW  06
060E4:  MOVWF  x4F
060E6:  MOVLW  38
060E8:  MOVWF  x4E
060EA:  CLRF   x50
060EC:  MOVLW  28
060EE:  MOVWF  x51
060F0:  MOVLW  01
060F2:  MOVWF  x52
060F4:  MOVWF  x53
060F6:  MOVLB  0
060F8:  CALL   29C8
....................       else 
060FC:  BRA    6142
060FE:  MOVLB  4
....................          {strcpy(Menus.Letra,"Apagado"); 
06100:  MOVLW  06
06102:  MOVWF  FEA
06104:  MOVLW  38
06106:  MOVWF  FE9
06108:  MOVFF  FF2,64E
0610C:  BCF    FF2.7
0610E:  MOVLW  00
06110:  MOVLB  0
06112:  CALL   1108
06116:  TBLRD*-
06118:  TBLRD*+
0611A:  MOVF   FF5,W
0611C:  MOVWF  FEE
0611E:  IORLW  00
06120:  BNZ   6118
06122:  MOVLB  6
06124:  BTFSC  x4E.7
06126:  BSF    FF2.7
....................          displayMenu(Menus.Letra,0,40,0,1);}       
06128:  MOVLW  06
0612A:  MOVWF  x4F
0612C:  MOVLW  38
0612E:  MOVWF  x4E
06130:  CLRF   x50
06132:  MOVLW  28
06134:  MOVWF  x51
06136:  CLRF   x52
06138:  MOVLW  01
0613A:  MOVWF  x53
0613C:  MOVLB  0
0613E:  CALL   29C8
....................           
....................           
....................          
....................       if(UP || BYTE_IR[2]==0X18)//Si oprime hacia arriba 
06142:  BSF    F96.0
06144:  BTFSC  F84.0
06146:  BRA    6150
06148:  MOVLB  6
0614A:  MOVF   x36,W
0614C:  SUBLW  18
0614E:  BNZ   6170
....................       {  if(Flanco == 0)  
06150:  MOVLB  4
06152:  BTFSC  x1F.0
06154:  BRA    616E
....................             {Flanco = 1;delay_ms(30);Opcion--;BYTE_IR[2]=0X00; 
06156:  BSF    x1F.0
06158:  MOVLW  1E
0615A:  MOVLB  6
0615C:  MOVWF  x56
0615E:  MOVLB  0
06160:  CALL   1576
06164:  MOVLB  4
06166:  DECF   xE2,F
06168:  MOVLB  6
0616A:  CLRF   x36
0616C:  MOVLB  4
....................             } 
....................       } 
....................          else 
0616E:  BRA    6174
....................             {Flanco = 0;} 
06170:  MOVLB  4
06172:  BCF    x1F.0
....................              
....................       if(DOWN  || BYTE_IR[2]==0X52)//Si oprime hacia abajo 
06174:  BSF    F96.1
06176:  BTFSC  F84.1
06178:  BRA    6184
0617A:  MOVLB  6
0617C:  MOVF   x36,W
0617E:  SUBLW  52
06180:  BNZ   61A2
06182:  MOVLB  4
....................       {  if(Flanco2 == 0)  
06184:  BTFSC  x1F.2
06186:  BRA    61A0
....................             {Flanco2 = 1;delay_ms(30);Opcion++;BYTE_IR[2]=0X00; 
06188:  BSF    x1F.2
0618A:  MOVLW  1E
0618C:  MOVLB  6
0618E:  MOVWF  x56
06190:  MOVLB  0
06192:  CALL   1576
06196:  MOVLB  4
06198:  INCF   xE2,F
0619A:  MOVLB  6
0619C:  CLRF   x36
0619E:  MOVLB  4
....................             }      
....................       } 
....................          else 
061A0:  BRA    61A6
....................             {Flanco2 = 0;}   
061A2:  MOVLB  4
061A4:  BCF    x1F.2
....................              
....................       if(RIGHT  || BYTE_IR[2]==0X5A)//Si oprime SET 
061A6:  BSF    F96.2
061A8:  BTFSC  F84.2
061AA:  BRA    61B6
061AC:  MOVLB  6
061AE:  MOVF   x36,W
061B0:  SUBLW  5A
061B2:  BNZ   61F4
061B4:  MOVLB  4
....................       {  if(Flanco1 == 0)  
061B6:  BTFSC  x1F.1
061B8:  BRA    61F2
....................             {Flanco1 = 1;delay_ms(500);Menu=Opcion+30;glcd_fillScreen(OFF);Opcion=1;unidad=1;BYTE_IR[2]=0X00; 
061BA:  BSF    x1F.1
061BC:  MOVLW  02
061BE:  MOVLB  6
061C0:  MOVWF  x4E
061C2:  MOVLW  FA
061C4:  MOVWF  x56
061C6:  MOVLB  0
061C8:  CALL   1576
061CC:  MOVLB  6
061CE:  DECFSZ x4E,F
061D0:  BRA    61C2
061D2:  MOVLW  1E
061D4:  MOVLB  4
061D6:  ADDWF  xE2,W
061D8:  MOVWF  xE0
061DA:  MOVLB  6
061DC:  CLRF   x4F
061DE:  MOVLB  0
061E0:  CALL   225C
061E4:  MOVLW  01
061E6:  MOVLB  4
061E8:  MOVWF  xE2
061EA:  MOVWF  xE1
061EC:  MOVLB  6
061EE:  CLRF   x36
061F0:  MOVLB  4
....................             } 
....................       } 
....................          else 
061F2:  BRA    61F8
....................             {Flanco1 = 0;}   
061F4:  MOVLB  4
061F6:  BCF    x1F.1
....................              
....................       if(LEFT || BYTE_IR[2]==0X08)//Si oprime boton de Toma. 
061F8:  BSF    F94.0
061FA:  BTFSC  F82.0
061FC:  BRA    6206
061FE:  MOVLB  6
06200:  MOVF   x36,W
06202:  SUBLW  08
06204:  BNZ   6230
....................         {delay_ms(700);Menu=3;glcd_fillscreen(OFF);BYTE_IR[2]=0X00;} 
06206:  MOVLW  04
06208:  MOVLB  6
0620A:  MOVWF  x4E
0620C:  MOVLW  AF
0620E:  MOVWF  x56
06210:  MOVLB  0
06212:  CALL   1576
06216:  MOVLB  6
06218:  DECFSZ x4E,F
0621A:  BRA    620C
0621C:  MOVLW  03
0621E:  MOVLB  4
06220:  MOVWF  xE0
06222:  MOVLB  6
06224:  CLRF   x4F
06226:  MOVLB  0
06228:  CALL   225C
0622C:  MOVLB  6
0622E:  CLRF   x36
....................       if(Opcion>2) 
06230:  MOVLB  4
06232:  MOVF   xE2,W
06234:  SUBLW  02
06236:  BC    623C
....................       {Opcion=1;} 
06238:  MOVLW  01
0623A:  MOVWF  xE2
....................       if(Opcion<1) 
0623C:  MOVF   xE2,F
0623E:  BNZ   6244
....................       {Opcion=2;} 
06240:  MOVLW  02
06242:  MOVWF  xE2
....................      
....................     } 
.................... //_--------------------------------------------------------------------------------------------------------------------------------------------------------        
....................  
.................... //_-------------------------------------------------------------------------------------------------------------------------------------------------------- 
....................       if(Menu==11){ //Menu de Purga. 
06244:  MOVF   xE0,W
06246:  SUBLW  0B
06248:  BTFSS  FD8.2
0624A:  BRA    6612
....................        
....................       strcpy(Menus.Letra,"T. Purga"); 
0624C:  MOVLW  06
0624E:  MOVWF  FEA
06250:  MOVLW  38
06252:  MOVWF  FE9
06254:  MOVFF  FF2,64E
06258:  BCF    FF2.7
0625A:  MOVLW  00
0625C:  MOVLB  0
0625E:  CALL   112E
06262:  TBLRD*-
06264:  TBLRD*+
06266:  MOVF   FF5,W
06268:  MOVWF  FEE
0626A:  IORLW  00
0626C:  BNZ   6264
0626E:  MOVLB  6
06270:  BTFSC  x4E.7
06272:  BSF    FF2.7
....................       displayMenu(Menus.Letra,10,0,1,2); 
06274:  MOVLW  06
06276:  MOVWF  x4F
06278:  MOVLW  38
0627A:  MOVWF  x4E
0627C:  MOVLW  0A
0627E:  MOVWF  x50
06280:  CLRF   x51
06282:  MOVLW  01
06284:  MOVWF  x52
06286:  MOVLW  02
06288:  MOVWF  x53
0628A:  MOVLB  0
0628C:  CALL   29C8
....................        
....................       if(unidad==4) 
06290:  MOVLB  4
06292:  MOVF   xE1,W
06294:  SUBLW  04
06296:  BNZ   62B6
....................       {displayTiempo(Tpurgap[3],20,40,1,2);} 
06298:  MOVFF  509,64E
0629C:  MOVLW  14
0629E:  MOVLB  6
062A0:  MOVWF  x4F
062A2:  MOVLW  28
062A4:  MOVWF  x50
062A6:  MOVLW  01
062A8:  MOVWF  x51
062AA:  MOVLW  02
062AC:  MOVWF  x52
062AE:  MOVLB  0
062B0:  CALL   2A94
....................       else 
062B4:  BRA    62D0
....................       {displayTiempo(Tpurgap[3],20,40,0,2);} 
062B6:  MOVFF  509,64E
062BA:  MOVLW  14
062BC:  MOVLB  6
062BE:  MOVWF  x4F
062C0:  MOVLW  28
062C2:  MOVWF  x50
062C4:  CLRF   x51
062C6:  MOVLW  02
062C8:  MOVWF  x52
062CA:  MOVLB  0
062CC:  CALL   2A94
....................        
....................       if(unidad==3) 
062D0:  MOVLB  4
062D2:  MOVF   xE1,W
062D4:  SUBLW  03
062D6:  BNZ   62F4
....................       {displayTiempo(Tpurgap[2],40,40,1,2);} 
062D8:  MOVFF  508,64E
062DC:  MOVLW  28
062DE:  MOVLB  6
062E0:  MOVWF  x4F
062E2:  MOVWF  x50
062E4:  MOVLW  01
062E6:  MOVWF  x51
062E8:  MOVLW  02
062EA:  MOVWF  x52
062EC:  MOVLB  0
062EE:  CALL   2A94
....................       else 
062F2:  BRA    630C
....................       {displayTiempo(Tpurgap[2],40,40,0,2);} 
062F4:  MOVFF  508,64E
062F8:  MOVLW  28
062FA:  MOVLB  6
062FC:  MOVWF  x4F
062FE:  MOVWF  x50
06300:  CLRF   x51
06302:  MOVLW  02
06304:  MOVWF  x52
06306:  MOVLB  0
06308:  CALL   2A94
....................        
....................       if(unidad==2) 
0630C:  MOVLB  4
0630E:  MOVF   xE1,W
06310:  SUBLW  02
06312:  BNZ   6332
....................       {displayTiempo(Tpurgap[1],70,40,1,2);} 
06314:  MOVFF  507,64E
06318:  MOVLW  46
0631A:  MOVLB  6
0631C:  MOVWF  x4F
0631E:  MOVLW  28
06320:  MOVWF  x50
06322:  MOVLW  01
06324:  MOVWF  x51
06326:  MOVLW  02
06328:  MOVWF  x52
0632A:  MOVLB  0
0632C:  CALL   2A94
....................       else 
06330:  BRA    634C
....................       {displayTiempo(Tpurgap[1],70,40,0,2);} 
06332:  MOVFF  507,64E
06336:  MOVLW  46
06338:  MOVLB  6
0633A:  MOVWF  x4F
0633C:  MOVLW  28
0633E:  MOVWF  x50
06340:  CLRF   x51
06342:  MOVLW  02
06344:  MOVWF  x52
06346:  MOVLB  0
06348:  CALL   2A94
....................        
....................       if(unidad==1) 
0634C:  MOVLB  4
0634E:  DECFSZ xE1,W
06350:  BRA    6370
....................       {displayTiempo(Tpurgap[0],90,40,1,2);} 
06352:  MOVFF  506,64E
06356:  MOVLW  5A
06358:  MOVLB  6
0635A:  MOVWF  x4F
0635C:  MOVLW  28
0635E:  MOVWF  x50
06360:  MOVLW  01
06362:  MOVWF  x51
06364:  MOVLW  02
06366:  MOVWF  x52
06368:  MOVLB  0
0636A:  CALL   2A94
....................       else 
0636E:  BRA    638A
....................       {displayTiempo(Tpurgap[0],90,40,0,2);} 
06370:  MOVFF  506,64E
06374:  MOVLW  5A
06376:  MOVLB  6
06378:  MOVWF  x4F
0637A:  MOVLW  28
0637C:  MOVWF  x50
0637E:  CLRF   x51
06380:  MOVLW  02
06382:  MOVWF  x52
06384:  MOVLB  0
06386:  CALL   2A94
....................        
....................       glcd_text57(60, 42, Dos_puntos, 2, ON); 
0638A:  MOVLW  3C
0638C:  MOVLB  6
0638E:  MOVWF  x65
06390:  MOVLW  2A
06392:  MOVWF  x66
06394:  MOVLW  04
06396:  MOVWF  x68
06398:  MOVLW  4A
0639A:  MOVWF  x67
0639C:  MOVLW  02
0639E:  MOVWF  x69
063A0:  MOVLW  01
063A2:  MOVWF  x6A
063A4:  MOVLB  0
063A6:  CALL   275A
....................           
....................          
....................       if(UP || BYTE_IR[2]==0X18)//Si oprime hacia arriba 
063AA:  BSF    F96.0
063AC:  BTFSC  F84.0
063AE:  BRA    63B8
063B0:  MOVLB  6
063B2:  MOVF   x36,W
063B4:  SUBLW  18
063B6:  BNZ   63E8
....................       {  if(Flanco == 0)  
063B8:  MOVLB  4
063BA:  BTFSC  x1F.0
063BC:  BRA    63E6
....................             {Flanco = 1;delay_ms(30);Tpurgap[unidad-1]++;BYTE_IR[2]=0X00; 
063BE:  BSF    x1F.0
063C0:  MOVLW  1E
063C2:  MOVLB  6
063C4:  MOVWF  x56
063C6:  MOVLB  0
063C8:  CALL   1576
063CC:  MOVLW  01
063CE:  MOVLB  4
063D0:  SUBWF  xE1,W
063D2:  CLRF   03
063D4:  ADDLW  06
063D6:  MOVWF  FE9
063D8:  MOVLW  05
063DA:  ADDWFC 03,W
063DC:  MOVWF  FEA
063DE:  INCF   FEF,F
063E0:  MOVLB  6
063E2:  CLRF   x36
063E4:  MOVLB  4
....................             } 
....................       } 
....................          else 
063E6:  BRA    63EC
....................             {Flanco = 0;} 
063E8:  MOVLB  4
063EA:  BCF    x1F.0
....................              
....................       if(DOWN  || BYTE_IR[2]==0X52)//Si oprime hacia abajo 
063EC:  BSF    F96.1
063EE:  BTFSC  F84.1
063F0:  BRA    63FC
063F2:  MOVLB  6
063F4:  MOVF   x36,W
063F6:  SUBLW  52
063F8:  BNZ   642A
063FA:  MOVLB  4
....................       {  if(Flanco2 == 0)  
063FC:  BTFSC  x1F.2
063FE:  BRA    6428
....................             {Flanco2 = 1;delay_ms(30);Tpurgap[unidad-1]--;BYTE_IR[2]=0X00; 
06400:  BSF    x1F.2
06402:  MOVLW  1E
06404:  MOVLB  6
06406:  MOVWF  x56
06408:  MOVLB  0
0640A:  CALL   1576
0640E:  MOVLW  01
06410:  MOVLB  4
06412:  SUBWF  xE1,W
06414:  CLRF   03
06416:  ADDLW  06
06418:  MOVWF  FE9
0641A:  MOVLW  05
0641C:  ADDWFC 03,W
0641E:  MOVWF  FEA
06420:  DECF   FEF,F
06422:  MOVLB  6
06424:  CLRF   x36
06426:  MOVLB  4
....................             }      
....................       } 
....................          else 
06428:  BRA    642E
....................             {Flanco2 = 0;}   
0642A:  MOVLB  4
0642C:  BCF    x1F.2
....................              
....................       if(RIGHT || BYTE_IR[2]==0X5A)//Si oprime SET 
0642E:  BSF    F96.2
06430:  BTFSC  F84.2
06432:  BRA    643E
06434:  MOVLB  6
06436:  MOVF   x36,W
06438:  SUBLW  5A
0643A:  BNZ   645C
0643C:  MOVLB  4
....................       {  if(Flanco1 == 0)  
0643E:  BTFSC  x1F.1
06440:  BRA    645A
....................             {Flanco1 = 1;delay_ms(30);unidad--;BYTE_IR[2]=0X00; 
06442:  BSF    x1F.1
06444:  MOVLW  1E
06446:  MOVLB  6
06448:  MOVWF  x56
0644A:  MOVLB  0
0644C:  CALL   1576
06450:  MOVLB  4
06452:  DECF   xE1,F
06454:  MOVLB  6
06456:  CLRF   x36
06458:  MOVLB  4
....................             } 
....................       } 
....................          else 
0645A:  BRA    6460
....................             {Flanco1 = 0;}   
0645C:  MOVLB  4
0645E:  BCF    x1F.1
....................              
....................       if(LEFT || BYTE_IR[2]==0X08)//Si oprime boton de Toma. 
06460:  BSF    F94.0
06462:  BTFSC  F82.0
06464:  BRA    646E
06466:  MOVLB  6
06468:  MOVF   x36,W
0646A:  SUBLW  08
0646C:  BNZ   6548
....................         {delay_ms(700);Menu=3;glcd_fillscreen(OFF);Opcion=1;BYTE_IR[2]=0X00; 
0646E:  MOVLW  04
06470:  MOVLB  6
06472:  MOVWF  x4E
06474:  MOVLW  AF
06476:  MOVWF  x56
06478:  MOVLB  0
0647A:  CALL   1576
0647E:  MOVLB  6
06480:  DECFSZ x4E,F
06482:  BRA    6474
06484:  MOVLW  03
06486:  MOVLB  4
06488:  MOVWF  xE0
0648A:  MOVLB  6
0648C:  CLRF   x4F
0648E:  MOVLB  0
06490:  CALL   225C
06494:  MOVLW  01
06496:  MOVLB  4
06498:  MOVWF  xE2
0649A:  MOVLB  6
0649C:  CLRF   x36
....................          write_eeprom(4,Tpurgap[0]);write_eeprom(5,Tpurgap[1]);write_eeprom(6,Tpurgap[2]);write_eeprom(7,Tpurgap[3]);} 
0649E:  CLRF   FAA
064A0:  MOVLW  04
064A2:  MOVWF  FA9
064A4:  MOVFF  506,FA8
064A8:  BCF    FA6.6
064AA:  BCF    FA6.7
064AC:  BSF    FA6.2
064AE:  MOVF   FF2,W
064B0:  MOVWF  00
064B2:  BCF    FF2.7
064B4:  MOVLB  F
064B6:  MOVLW  55
064B8:  MOVWF  FA7
064BA:  MOVLW  AA
064BC:  MOVWF  FA7
064BE:  BSF    FA6.1
064C0:  BTFSC  FA6.1
064C2:  BRA    64C0
064C4:  BCF    FA6.2
064C6:  MOVF   00,W
064C8:  IORWF  FF2,F
064CA:  CLRF   FAA
064CC:  MOVLW  05
064CE:  MOVWF  FA9
064D0:  MOVFF  507,FA8
064D4:  BCF    FA6.6
064D6:  BCF    FA6.7
064D8:  BSF    FA6.2
064DA:  MOVF   FF2,W
064DC:  MOVWF  00
064DE:  BCF    FF2.7
064E0:  MOVLW  55
064E2:  MOVWF  FA7
064E4:  MOVLW  AA
064E6:  MOVWF  FA7
064E8:  BSF    FA6.1
064EA:  BTFSC  FA6.1
064EC:  BRA    64EA
064EE:  BCF    FA6.2
064F0:  MOVF   00,W
064F2:  IORWF  FF2,F
064F4:  CLRF   FAA
064F6:  MOVLW  06
064F8:  MOVWF  FA9
064FA:  MOVFF  508,FA8
064FE:  BCF    FA6.6
06500:  BCF    FA6.7
06502:  BSF    FA6.2
06504:  MOVF   FF2,W
06506:  MOVWF  00
06508:  BCF    FF2.7
0650A:  MOVLW  55
0650C:  MOVWF  FA7
0650E:  MOVLW  AA
06510:  MOVWF  FA7
06512:  BSF    FA6.1
06514:  BTFSC  FA6.1
06516:  BRA    6514
06518:  BCF    FA6.2
0651A:  MOVF   00,W
0651C:  IORWF  FF2,F
0651E:  CLRF   FAA
06520:  MOVLW  07
06522:  MOVWF  FA9
06524:  MOVFF  509,FA8
06528:  BCF    FA6.6
0652A:  BCF    FA6.7
0652C:  BSF    FA6.2
0652E:  MOVF   FF2,W
06530:  MOVWF  00
06532:  BCF    FF2.7
06534:  MOVLW  55
06536:  MOVWF  FA7
06538:  MOVLW  AA
0653A:  MOVWF  FA7
0653C:  BSF    FA6.1
0653E:  BTFSC  FA6.1
06540:  BRA    653E
06542:  BCF    FA6.2
06544:  MOVF   00,W
06546:  IORWF  FF2,F
....................        
....................       for(i=0;i<4;i++) 
06548:  MOVLB  4
0654A:  CLRF   x19
0654C:  MOVF   x19,W
0654E:  SUBLW  03
06550:  BNC   65A4
....................       { 
....................          if(Tpurgap[i]>9) 
06552:  CLRF   03
06554:  MOVF   x19,W
06556:  ADDLW  06
06558:  MOVWF  FE9
0655A:  MOVLW  05
0655C:  ADDWFC 03,W
0655E:  MOVWF  FEA
06560:  BTFSC  FEF.7
06562:  BRA    657A
06564:  MOVF   FEF,W
06566:  SUBLW  09
06568:  BC    657A
....................          {Tpurgap[i]=0;} 
0656A:  CLRF   03
0656C:  MOVF   x19,W
0656E:  ADDLW  06
06570:  MOVWF  FE9
06572:  MOVLW  05
06574:  ADDWFC 03,W
06576:  MOVWF  FEA
06578:  CLRF   FEF
....................           
....................          if(Tpurgap[i]<0) 
0657A:  CLRF   03
0657C:  MOVF   x19,W
0657E:  ADDLW  06
06580:  MOVWF  FE9
06582:  MOVLW  05
06584:  ADDWFC 03,W
06586:  MOVWF  FEA
06588:  BTFSC  FEF.7
0658A:  BRA    658E
0658C:  BRA    65A0
....................          {Tpurgap[i]=9;} 
0658E:  CLRF   03
06590:  MOVF   x19,W
06592:  ADDLW  06
06594:  MOVWF  FE9
06596:  MOVLW  05
06598:  ADDWFC 03,W
0659A:  MOVWF  FEA
0659C:  MOVLW  09
0659E:  MOVWF  FEF
....................       }       
065A0:  INCF   x19,F
065A2:  BRA    654C
....................       for(i=1;i<4;i++) 
065A4:  MOVLW  01
065A6:  MOVWF  x19
065A8:  MOVF   x19,W
065AA:  SUBLW  03
065AC:  BNC   6602
....................       { 
....................          if(Tpurgap[i]>5) 
065AE:  CLRF   03
065B0:  MOVF   x19,W
065B2:  ADDLW  06
065B4:  MOVWF  FE9
065B6:  MOVLW  05
065B8:  ADDWFC 03,W
065BA:  MOVWF  FEA
065BC:  BTFSC  FEF.7
065BE:  BRA    65D6
065C0:  MOVF   FEF,W
065C2:  SUBLW  05
065C4:  BC    65D6
....................          {Tpurgap[i]=0;} 
065C6:  CLRF   03
065C8:  MOVF   x19,W
065CA:  ADDLW  06
065CC:  MOVWF  FE9
065CE:  MOVLW  05
065D0:  ADDWFC 03,W
065D2:  MOVWF  FEA
065D4:  CLRF   FEF
....................           
....................          if(Tpurgap[i]<0) 
065D6:  CLRF   03
065D8:  MOVF   x19,W
065DA:  ADDLW  06
065DC:  MOVWF  FE9
065DE:  MOVLW  05
065E0:  ADDWFC 03,W
065E2:  MOVWF  FEA
065E4:  BTFSC  FEF.7
065E6:  BRA    65EA
065E8:  BRA    65FC
....................          {Tpurgap[i]=5;} 
065EA:  CLRF   03
065EC:  MOVF   x19,W
065EE:  ADDLW  06
065F0:  MOVWF  FE9
065F2:  MOVLW  05
065F4:  ADDWFC 03,W
065F6:  MOVWF  FEA
065F8:  MOVLW  05
065FA:  MOVWF  FEF
....................         i++;  
065FC:  INCF   x19,F
....................       } 
065FE:  INCF   x19,F
06600:  BRA    65A8
....................       if(unidad<1) 
06602:  MOVF   xE1,F
06604:  BNZ   660A
....................       {unidad=4;} 
06606:  MOVLW  04
06608:  MOVWF  xE1
....................       if(Opcion<1) 
0660A:  MOVF   xE2,F
0660C:  BNZ   6612
....................       {Opcion=4;} 
0660E:  MOVLW  04
06610:  MOVWF  xE2
....................      
....................     } 
.................... //_--------------------------------------------------------------------------------------------------------------------------------------------------------        
....................  
.................... //_-------------------------------------------------------------------------------------------------------------------------------------------------------- 
....................       if(Menu==12){ //Menu de Post-Purga. 
06612:  MOVF   xE0,W
06614:  SUBLW  0C
06616:  BTFSS  FD8.2
06618:  BRA    69DE
....................        
....................       strcpy(Menus.Letra,"T. Post-Purga"); 
0661A:  MOVLW  06
0661C:  MOVWF  FEA
0661E:  MOVLW  38
06620:  MOVWF  FE9
06622:  MOVFF  FF2,64E
06626:  BCF    FF2.7
06628:  MOVLW  00
0662A:  MOVLB  0
0662C:  CALL   1156
06630:  TBLRD*-
06632:  TBLRD*+
06634:  MOVF   FF5,W
06636:  MOVWF  FEE
06638:  IORLW  00
0663A:  BNZ   6632
0663C:  MOVLB  6
0663E:  BTFSC  x4E.7
06640:  BSF    FF2.7
....................       displayMenu(Menus.Letra,0,0,1,2); 
06642:  MOVLW  06
06644:  MOVWF  x4F
06646:  MOVLW  38
06648:  MOVWF  x4E
0664A:  CLRF   x50
0664C:  CLRF   x51
0664E:  MOVLW  01
06650:  MOVWF  x52
06652:  MOVLW  02
06654:  MOVWF  x53
06656:  MOVLB  0
06658:  CALL   29C8
....................        
....................       if(unidad==4) 
0665C:  MOVLB  4
0665E:  MOVF   xE1,W
06660:  SUBLW  04
06662:  BNZ   6682
....................       {displayTiempo(Tppurgap[3],20,40,1,2);} 
06664:  MOVFF  511,64E
06668:  MOVLW  14
0666A:  MOVLB  6
0666C:  MOVWF  x4F
0666E:  MOVLW  28
06670:  MOVWF  x50
06672:  MOVLW  01
06674:  MOVWF  x51
06676:  MOVLW  02
06678:  MOVWF  x52
0667A:  MOVLB  0
0667C:  CALL   2A94
....................       else 
06680:  BRA    669C
....................       {displayTiempo(Tppurgap[3],20,40,0,2);} 
06682:  MOVFF  511,64E
06686:  MOVLW  14
06688:  MOVLB  6
0668A:  MOVWF  x4F
0668C:  MOVLW  28
0668E:  MOVWF  x50
06690:  CLRF   x51
06692:  MOVLW  02
06694:  MOVWF  x52
06696:  MOVLB  0
06698:  CALL   2A94
....................        
....................       if(unidad==3) 
0669C:  MOVLB  4
0669E:  MOVF   xE1,W
066A0:  SUBLW  03
066A2:  BNZ   66C0
....................       {displayTiempo(Tppurgap[2],40,40,1,2);} 
066A4:  MOVFF  510,64E
066A8:  MOVLW  28
066AA:  MOVLB  6
066AC:  MOVWF  x4F
066AE:  MOVWF  x50
066B0:  MOVLW  01
066B2:  MOVWF  x51
066B4:  MOVLW  02
066B6:  MOVWF  x52
066B8:  MOVLB  0
066BA:  CALL   2A94
....................       else 
066BE:  BRA    66D8
....................       {displayTiempo(Tppurgap[2],40,40,0,2);} 
066C0:  MOVFF  510,64E
066C4:  MOVLW  28
066C6:  MOVLB  6
066C8:  MOVWF  x4F
066CA:  MOVWF  x50
066CC:  CLRF   x51
066CE:  MOVLW  02
066D0:  MOVWF  x52
066D2:  MOVLB  0
066D4:  CALL   2A94
....................        
....................       if(unidad==2) 
066D8:  MOVLB  4
066DA:  MOVF   xE1,W
066DC:  SUBLW  02
066DE:  BNZ   66FE
....................       {displayTiempo(Tppurgap[1],70,40,1,2);} 
066E0:  MOVFF  50F,64E
066E4:  MOVLW  46
066E6:  MOVLB  6
066E8:  MOVWF  x4F
066EA:  MOVLW  28
066EC:  MOVWF  x50
066EE:  MOVLW  01
066F0:  MOVWF  x51
066F2:  MOVLW  02
066F4:  MOVWF  x52
066F6:  MOVLB  0
066F8:  CALL   2A94
....................       else 
066FC:  BRA    6718
....................       {displayTiempo(Tppurgap[1],70,40,0,2);} 
066FE:  MOVFF  50F,64E
06702:  MOVLW  46
06704:  MOVLB  6
06706:  MOVWF  x4F
06708:  MOVLW  28
0670A:  MOVWF  x50
0670C:  CLRF   x51
0670E:  MOVLW  02
06710:  MOVWF  x52
06712:  MOVLB  0
06714:  CALL   2A94
....................        
....................       if(unidad==1) 
06718:  MOVLB  4
0671A:  DECFSZ xE1,W
0671C:  BRA    673C
....................       {displayTiempo(Tppurgap[0],90,40,1,2);} 
0671E:  MOVFF  50E,64E
06722:  MOVLW  5A
06724:  MOVLB  6
06726:  MOVWF  x4F
06728:  MOVLW  28
0672A:  MOVWF  x50
0672C:  MOVLW  01
0672E:  MOVWF  x51
06730:  MOVLW  02
06732:  MOVWF  x52
06734:  MOVLB  0
06736:  CALL   2A94
....................       else 
0673A:  BRA    6756
....................       {displayTiempo(Tppurgap[0],90,40,0,2);} 
0673C:  MOVFF  50E,64E
06740:  MOVLW  5A
06742:  MOVLB  6
06744:  MOVWF  x4F
06746:  MOVLW  28
06748:  MOVWF  x50
0674A:  CLRF   x51
0674C:  MOVLW  02
0674E:  MOVWF  x52
06750:  MOVLB  0
06752:  CALL   2A94
....................        
....................       glcd_text57(60, 42, Dos_puntos, 2, ON); 
06756:  MOVLW  3C
06758:  MOVLB  6
0675A:  MOVWF  x65
0675C:  MOVLW  2A
0675E:  MOVWF  x66
06760:  MOVLW  04
06762:  MOVWF  x68
06764:  MOVLW  4A
06766:  MOVWF  x67
06768:  MOVLW  02
0676A:  MOVWF  x69
0676C:  MOVLW  01
0676E:  MOVWF  x6A
06770:  MOVLB  0
06772:  CALL   275A
....................           
....................          
....................       if(UP || BYTE_IR[2]==0X18)//Si oprime hacia arriba 
06776:  BSF    F96.0
06778:  BTFSC  F84.0
0677A:  BRA    6784
0677C:  MOVLB  6
0677E:  MOVF   x36,W
06780:  SUBLW  18
06782:  BNZ   67B4
....................       {  if(Flanco == 0)  
06784:  MOVLB  4
06786:  BTFSC  x1F.0
06788:  BRA    67B2
....................             {Flanco = 1;delay_ms(30);Tppurgap[unidad-1]++;BYTE_IR[2]=0X00; 
0678A:  BSF    x1F.0
0678C:  MOVLW  1E
0678E:  MOVLB  6
06790:  MOVWF  x56
06792:  MOVLB  0
06794:  CALL   1576
06798:  MOVLW  01
0679A:  MOVLB  4
0679C:  SUBWF  xE1,W
0679E:  CLRF   03
067A0:  ADDLW  0E
067A2:  MOVWF  FE9
067A4:  MOVLW  05
067A6:  ADDWFC 03,W
067A8:  MOVWF  FEA
067AA:  INCF   FEF,F
067AC:  MOVLB  6
067AE:  CLRF   x36
067B0:  MOVLB  4
....................             } 
....................       } 
....................          else 
067B2:  BRA    67B8
....................             {Flanco = 0;} 
067B4:  MOVLB  4
067B6:  BCF    x1F.0
....................              
....................       if(DOWN  || BYTE_IR[2]==0X52)//Si oprime hacia abajo 
067B8:  BSF    F96.1
067BA:  BTFSC  F84.1
067BC:  BRA    67C8
067BE:  MOVLB  6
067C0:  MOVF   x36,W
067C2:  SUBLW  52
067C4:  BNZ   67F6
067C6:  MOVLB  4
....................       {  if(Flanco2 == 0)  
067C8:  BTFSC  x1F.2
067CA:  BRA    67F4
....................             {Flanco2 = 1;delay_ms(30);Tppurgap[unidad-1]--;BYTE_IR[2]=0X00; 
067CC:  BSF    x1F.2
067CE:  MOVLW  1E
067D0:  MOVLB  6
067D2:  MOVWF  x56
067D4:  MOVLB  0
067D6:  CALL   1576
067DA:  MOVLW  01
067DC:  MOVLB  4
067DE:  SUBWF  xE1,W
067E0:  CLRF   03
067E2:  ADDLW  0E
067E4:  MOVWF  FE9
067E6:  MOVLW  05
067E8:  ADDWFC 03,W
067EA:  MOVWF  FEA
067EC:  DECF   FEF,F
067EE:  MOVLB  6
067F0:  CLRF   x36
067F2:  MOVLB  4
....................             }      
....................       } 
....................          else 
067F4:  BRA    67FA
....................             {Flanco2 = 0;}   
067F6:  MOVLB  4
067F8:  BCF    x1F.2
....................              
....................       if(RIGHT || BYTE_IR[2]==0X5A)//Si oprime SET 
067FA:  BSF    F96.2
067FC:  BTFSC  F84.2
067FE:  BRA    680A
06800:  MOVLB  6
06802:  MOVF   x36,W
06804:  SUBLW  5A
06806:  BNZ   6828
06808:  MOVLB  4
....................       {  if(Flanco1 == 0)  
0680A:  BTFSC  x1F.1
0680C:  BRA    6826
....................             {Flanco1 = 1;delay_ms(30);unidad--;BYTE_IR[2]=0X00; 
0680E:  BSF    x1F.1
06810:  MOVLW  1E
06812:  MOVLB  6
06814:  MOVWF  x56
06816:  MOVLB  0
06818:  CALL   1576
0681C:  MOVLB  4
0681E:  DECF   xE1,F
06820:  MOVLB  6
06822:  CLRF   x36
06824:  MOVLB  4
....................             } 
....................       } 
....................          else 
06826:  BRA    682C
....................             {Flanco1 = 0;}   
06828:  MOVLB  4
0682A:  BCF    x1F.1
....................              
....................       if(LEFT || BYTE_IR[2]==0X08)//Si oprime boton de Toma. 
0682C:  BSF    F94.0
0682E:  BTFSC  F82.0
06830:  BRA    683A
06832:  MOVLB  6
06834:  MOVF   x36,W
06836:  SUBLW  08
06838:  BNZ   6914
....................         {delay_ms(700);Menu=3;glcd_fillscreen(OFF);Opcion=1;BYTE_IR[2]=0X00; 
0683A:  MOVLW  04
0683C:  MOVLB  6
0683E:  MOVWF  x4E
06840:  MOVLW  AF
06842:  MOVWF  x56
06844:  MOVLB  0
06846:  CALL   1576
0684A:  MOVLB  6
0684C:  DECFSZ x4E,F
0684E:  BRA    6840
06850:  MOVLW  03
06852:  MOVLB  4
06854:  MOVWF  xE0
06856:  MOVLB  6
06858:  CLRF   x4F
0685A:  MOVLB  0
0685C:  CALL   225C
06860:  MOVLW  01
06862:  MOVLB  4
06864:  MOVWF  xE2
06866:  MOVLB  6
06868:  CLRF   x36
....................       write_eeprom(8,Tppurgap[0]);write_eeprom(9,Tppurgap[1]);write_eeprom(10,Tppurgap[2]);write_eeprom(11,Tppurgap[3]);} 
0686A:  CLRF   FAA
0686C:  MOVLW  08
0686E:  MOVWF  FA9
06870:  MOVFF  50E,FA8
06874:  BCF    FA6.6
06876:  BCF    FA6.7
06878:  BSF    FA6.2
0687A:  MOVF   FF2,W
0687C:  MOVWF  00
0687E:  BCF    FF2.7
06880:  MOVLB  F
06882:  MOVLW  55
06884:  MOVWF  FA7
06886:  MOVLW  AA
06888:  MOVWF  FA7
0688A:  BSF    FA6.1
0688C:  BTFSC  FA6.1
0688E:  BRA    688C
06890:  BCF    FA6.2
06892:  MOVF   00,W
06894:  IORWF  FF2,F
06896:  CLRF   FAA
06898:  MOVLW  09
0689A:  MOVWF  FA9
0689C:  MOVFF  50F,FA8
068A0:  BCF    FA6.6
068A2:  BCF    FA6.7
068A4:  BSF    FA6.2
068A6:  MOVF   FF2,W
068A8:  MOVWF  00
068AA:  BCF    FF2.7
068AC:  MOVLW  55
068AE:  MOVWF  FA7
068B0:  MOVLW  AA
068B2:  MOVWF  FA7
068B4:  BSF    FA6.1
068B6:  BTFSC  FA6.1
068B8:  BRA    68B6
068BA:  BCF    FA6.2
068BC:  MOVF   00,W
068BE:  IORWF  FF2,F
068C0:  CLRF   FAA
068C2:  MOVLW  0A
068C4:  MOVWF  FA9
068C6:  MOVFF  510,FA8
068CA:  BCF    FA6.6
068CC:  BCF    FA6.7
068CE:  BSF    FA6.2
068D0:  MOVF   FF2,W
068D2:  MOVWF  00
068D4:  BCF    FF2.7
068D6:  MOVLW  55
068D8:  MOVWF  FA7
068DA:  MOVLW  AA
068DC:  MOVWF  FA7
068DE:  BSF    FA6.1
068E0:  BTFSC  FA6.1
068E2:  BRA    68E0
068E4:  BCF    FA6.2
068E6:  MOVF   00,W
068E8:  IORWF  FF2,F
068EA:  CLRF   FAA
068EC:  MOVLW  0B
068EE:  MOVWF  FA9
068F0:  MOVFF  511,FA8
068F4:  BCF    FA6.6
068F6:  BCF    FA6.7
068F8:  BSF    FA6.2
068FA:  MOVF   FF2,W
068FC:  MOVWF  00
068FE:  BCF    FF2.7
06900:  MOVLW  55
06902:  MOVWF  FA7
06904:  MOVLW  AA
06906:  MOVWF  FA7
06908:  BSF    FA6.1
0690A:  BTFSC  FA6.1
0690C:  BRA    690A
0690E:  BCF    FA6.2
06910:  MOVF   00,W
06912:  IORWF  FF2,F
....................              
....................       for(i=0;i<4;i++) 
06914:  MOVLB  4
06916:  CLRF   x19
06918:  MOVF   x19,W
0691A:  SUBLW  03
0691C:  BNC   6970
....................       { 
....................          if(Tppurgap[i]>9) 
0691E:  CLRF   03
06920:  MOVF   x19,W
06922:  ADDLW  0E
06924:  MOVWF  FE9
06926:  MOVLW  05
06928:  ADDWFC 03,W
0692A:  MOVWF  FEA
0692C:  BTFSC  FEF.7
0692E:  BRA    6946
06930:  MOVF   FEF,W
06932:  SUBLW  09
06934:  BC    6946
....................          {Tppurgap[i]=0;} 
06936:  CLRF   03
06938:  MOVF   x19,W
0693A:  ADDLW  0E
0693C:  MOVWF  FE9
0693E:  MOVLW  05
06940:  ADDWFC 03,W
06942:  MOVWF  FEA
06944:  CLRF   FEF
....................           
....................          if(Tppurgap[i]<0) 
06946:  CLRF   03
06948:  MOVF   x19,W
0694A:  ADDLW  0E
0694C:  MOVWF  FE9
0694E:  MOVLW  05
06950:  ADDWFC 03,W
06952:  MOVWF  FEA
06954:  BTFSC  FEF.7
06956:  BRA    695A
06958:  BRA    696C
....................          {Tppurgap[i]=9;} 
0695A:  CLRF   03
0695C:  MOVF   x19,W
0695E:  ADDLW  0E
06960:  MOVWF  FE9
06962:  MOVLW  05
06964:  ADDWFC 03,W
06966:  MOVWF  FEA
06968:  MOVLW  09
0696A:  MOVWF  FEF
....................       } 
0696C:  INCF   x19,F
0696E:  BRA    6918
....................        
....................       for(i=1;i<4;i++) 
06970:  MOVLW  01
06972:  MOVWF  x19
06974:  MOVF   x19,W
06976:  SUBLW  03
06978:  BNC   69CE
....................       { 
....................          if(Tppurgap[i]>5) 
0697A:  CLRF   03
0697C:  MOVF   x19,W
0697E:  ADDLW  0E
06980:  MOVWF  FE9
06982:  MOVLW  05
06984:  ADDWFC 03,W
06986:  MOVWF  FEA
06988:  BTFSC  FEF.7
0698A:  BRA    69A2
0698C:  MOVF   FEF,W
0698E:  SUBLW  05
06990:  BC    69A2
....................          {Tppurgap[i]=0;} 
06992:  CLRF   03
06994:  MOVF   x19,W
06996:  ADDLW  0E
06998:  MOVWF  FE9
0699A:  MOVLW  05
0699C:  ADDWFC 03,W
0699E:  MOVWF  FEA
069A0:  CLRF   FEF
....................           
....................          if(Tppurgap[i]<0) 
069A2:  CLRF   03
069A4:  MOVF   x19,W
069A6:  ADDLW  0E
069A8:  MOVWF  FE9
069AA:  MOVLW  05
069AC:  ADDWFC 03,W
069AE:  MOVWF  FEA
069B0:  BTFSC  FEF.7
069B2:  BRA    69B6
069B4:  BRA    69C8
....................          {Tppurgap[i]=5;} 
069B6:  CLRF   03
069B8:  MOVF   x19,W
069BA:  ADDLW  0E
069BC:  MOVWF  FE9
069BE:  MOVLW  05
069C0:  ADDWFC 03,W
069C2:  MOVWF  FEA
069C4:  MOVLW  05
069C6:  MOVWF  FEF
....................         i++;  
069C8:  INCF   x19,F
....................       } 
069CA:  INCF   x19,F
069CC:  BRA    6974
....................       if(unidad<1) 
069CE:  MOVF   xE1,F
069D0:  BNZ   69D6
....................       {unidad=4;} 
069D2:  MOVLW  04
069D4:  MOVWF  xE1
....................       if(Opcion<1) 
069D6:  MOVF   xE2,F
069D8:  BNZ   69DE
....................       {Opcion=4;} 
069DA:  MOVLW  04
069DC:  MOVWF  xE2
....................      
....................     } 
.................... //_--------------------------------------------------------------------------------------------------------------------------------------------------------        
....................  
.................... //_-------------------------------------------------------------------------------------------------------------------------------------------------------- 
....................       if(Menu==13){ //Menu de Tempo UV. 
069DE:  MOVF   xE0,W
069E0:  SUBLW  0D
069E2:  BTFSS  FD8.2
069E4:  BRA    6DB8
....................        
....................       strcpy(Menus.Letra,"T. UV"); 
069E6:  MOVLW  06
069E8:  MOVWF  FEA
069EA:  MOVLW  38
069EC:  MOVWF  FE9
069EE:  MOVFF  FF2,64E
069F2:  BCF    FF2.7
069F4:  MOVLW  00
069F6:  MOVLB  0
069F8:  CALL   1182
069FC:  TBLRD*-
069FE:  TBLRD*+
06A00:  MOVF   FF5,W
06A02:  MOVWF  FEE
06A04:  IORLW  00
06A06:  BNZ   69FE
06A08:  MOVLB  6
06A0A:  BTFSC  x4E.7
06A0C:  BSF    FF2.7
....................       displayMenu(Menus.Letra,30,0,1,2); 
06A0E:  MOVLW  06
06A10:  MOVWF  x4F
06A12:  MOVLW  38
06A14:  MOVWF  x4E
06A16:  MOVLW  1E
06A18:  MOVWF  x50
06A1A:  CLRF   x51
06A1C:  MOVLW  01
06A1E:  MOVWF  x52
06A20:  MOVLW  02
06A22:  MOVWF  x53
06A24:  MOVLB  0
06A26:  CALL   29C8
....................        
....................       if(unidad==4) 
06A2A:  MOVLB  4
06A2C:  MOVF   xE1,W
06A2E:  SUBLW  04
06A30:  BNZ   6A50
....................       {displayTiempo(Tempouvp[3],20,40,1,2);} 
06A32:  MOVFF  51D,64E
06A36:  MOVLW  14
06A38:  MOVLB  6
06A3A:  MOVWF  x4F
06A3C:  MOVLW  28
06A3E:  MOVWF  x50
06A40:  MOVLW  01
06A42:  MOVWF  x51
06A44:  MOVLW  02
06A46:  MOVWF  x52
06A48:  MOVLB  0
06A4A:  CALL   2A94
....................       else 
06A4E:  BRA    6A6A
....................       {displayTiempo(Tempouvp[3],20,40,0,2);} 
06A50:  MOVFF  51D,64E
06A54:  MOVLW  14
06A56:  MOVLB  6
06A58:  MOVWF  x4F
06A5A:  MOVLW  28
06A5C:  MOVWF  x50
06A5E:  CLRF   x51
06A60:  MOVLW  02
06A62:  MOVWF  x52
06A64:  MOVLB  0
06A66:  CALL   2A94
....................        
....................       if(unidad==3) 
06A6A:  MOVLB  4
06A6C:  MOVF   xE1,W
06A6E:  SUBLW  03
06A70:  BNZ   6A8E
....................       {displayTiempo(Tempouvp[2],40,40,1,2);} 
06A72:  MOVFF  51C,64E
06A76:  MOVLW  28
06A78:  MOVLB  6
06A7A:  MOVWF  x4F
06A7C:  MOVWF  x50
06A7E:  MOVLW  01
06A80:  MOVWF  x51
06A82:  MOVLW  02
06A84:  MOVWF  x52
06A86:  MOVLB  0
06A88:  CALL   2A94
....................       else 
06A8C:  BRA    6AA6
....................       {displayTiempo(Tempouvp[2],40,40,0,2);} 
06A8E:  MOVFF  51C,64E
06A92:  MOVLW  28
06A94:  MOVLB  6
06A96:  MOVWF  x4F
06A98:  MOVWF  x50
06A9A:  CLRF   x51
06A9C:  MOVLW  02
06A9E:  MOVWF  x52
06AA0:  MOVLB  0
06AA2:  CALL   2A94
....................        
....................       if(unidad==2) 
06AA6:  MOVLB  4
06AA8:  MOVF   xE1,W
06AAA:  SUBLW  02
06AAC:  BNZ   6ACC
....................       {displayTiempo(Tempouvp[1],70,40,1,2);} 
06AAE:  MOVFF  51B,64E
06AB2:  MOVLW  46
06AB4:  MOVLB  6
06AB6:  MOVWF  x4F
06AB8:  MOVLW  28
06ABA:  MOVWF  x50
06ABC:  MOVLW  01
06ABE:  MOVWF  x51
06AC0:  MOVLW  02
06AC2:  MOVWF  x52
06AC4:  MOVLB  0
06AC6:  CALL   2A94
....................       else 
06ACA:  BRA    6AE6
....................       {displayTiempo(Tempouvp[1],70,40,0,2);} 
06ACC:  MOVFF  51B,64E
06AD0:  MOVLW  46
06AD2:  MOVLB  6
06AD4:  MOVWF  x4F
06AD6:  MOVLW  28
06AD8:  MOVWF  x50
06ADA:  CLRF   x51
06ADC:  MOVLW  02
06ADE:  MOVWF  x52
06AE0:  MOVLB  0
06AE2:  CALL   2A94
....................        
....................       if(unidad==1) 
06AE6:  MOVLB  4
06AE8:  DECFSZ xE1,W
06AEA:  BRA    6B0A
....................       {displayTiempo(Tempouvp[0],90,40,1,2);} 
06AEC:  MOVFF  51A,64E
06AF0:  MOVLW  5A
06AF2:  MOVLB  6
06AF4:  MOVWF  x4F
06AF6:  MOVLW  28
06AF8:  MOVWF  x50
06AFA:  MOVLW  01
06AFC:  MOVWF  x51
06AFE:  MOVLW  02
06B00:  MOVWF  x52
06B02:  MOVLB  0
06B04:  CALL   2A94
....................       else 
06B08:  BRA    6B24
....................       {displayTiempo(Tempouvp[0],90,40,0,2);} 
06B0A:  MOVFF  51A,64E
06B0E:  MOVLW  5A
06B10:  MOVLB  6
06B12:  MOVWF  x4F
06B14:  MOVLW  28
06B16:  MOVWF  x50
06B18:  CLRF   x51
06B1A:  MOVLW  02
06B1C:  MOVWF  x52
06B1E:  MOVLB  0
06B20:  CALL   2A94
....................        
....................       glcd_text57(60, 42, Dos_puntos, 2, ON); 
06B24:  MOVLW  3C
06B26:  MOVLB  6
06B28:  MOVWF  x65
06B2A:  MOVLW  2A
06B2C:  MOVWF  x66
06B2E:  MOVLW  04
06B30:  MOVWF  x68
06B32:  MOVLW  4A
06B34:  MOVWF  x67
06B36:  MOVLW  02
06B38:  MOVWF  x69
06B3A:  MOVLW  01
06B3C:  MOVWF  x6A
06B3E:  MOVLB  0
06B40:  CALL   275A
....................           
....................          
....................       if(UP || BYTE_IR[2]==0X18)//Si oprime hacia arriba 
06B44:  BSF    F96.0
06B46:  BTFSC  F84.0
06B48:  BRA    6B52
06B4A:  MOVLB  6
06B4C:  MOVF   x36,W
06B4E:  SUBLW  18
06B50:  BNZ   6B82
....................       {  if(Flanco == 0)  
06B52:  MOVLB  4
06B54:  BTFSC  x1F.0
06B56:  BRA    6B80
....................             {Flanco = 1;delay_ms(30);Tempouvp[unidad-1]++;BYTE_IR[2]=0X00; 
06B58:  BSF    x1F.0
06B5A:  MOVLW  1E
06B5C:  MOVLB  6
06B5E:  MOVWF  x56
06B60:  MOVLB  0
06B62:  CALL   1576
06B66:  MOVLW  01
06B68:  MOVLB  4
06B6A:  SUBWF  xE1,W
06B6C:  CLRF   03
06B6E:  ADDLW  1A
06B70:  MOVWF  FE9
06B72:  MOVLW  05
06B74:  ADDWFC 03,W
06B76:  MOVWF  FEA
06B78:  INCF   FEF,F
06B7A:  MOVLB  6
06B7C:  CLRF   x36
06B7E:  MOVLB  4
....................             } 
....................       } 
....................          else 
06B80:  BRA    6B86
....................             {Flanco = 0;} 
06B82:  MOVLB  4
06B84:  BCF    x1F.0
....................              
....................       if(DOWN  || BYTE_IR[2]==0X52)//Si oprime hacia abajo 
06B86:  BSF    F96.1
06B88:  BTFSC  F84.1
06B8A:  BRA    6B96
06B8C:  MOVLB  6
06B8E:  MOVF   x36,W
06B90:  SUBLW  52
06B92:  BNZ   6BC4
06B94:  MOVLB  4
....................       {  if(Flanco2 == 0)  
06B96:  BTFSC  x1F.2
06B98:  BRA    6BC2
....................             {Flanco2 = 1;delay_ms(30);Tempouvp[unidad-1]--;BYTE_IR[2]=0X00; 
06B9A:  BSF    x1F.2
06B9C:  MOVLW  1E
06B9E:  MOVLB  6
06BA0:  MOVWF  x56
06BA2:  MOVLB  0
06BA4:  CALL   1576
06BA8:  MOVLW  01
06BAA:  MOVLB  4
06BAC:  SUBWF  xE1,W
06BAE:  CLRF   03
06BB0:  ADDLW  1A
06BB2:  MOVWF  FE9
06BB4:  MOVLW  05
06BB6:  ADDWFC 03,W
06BB8:  MOVWF  FEA
06BBA:  DECF   FEF,F
06BBC:  MOVLB  6
06BBE:  CLRF   x36
06BC0:  MOVLB  4
....................             }      
....................       } 
....................          else 
06BC2:  BRA    6BC8
....................             {Flanco2 = 0;}   
06BC4:  MOVLB  4
06BC6:  BCF    x1F.2
....................              
....................       if(RIGHT || BYTE_IR[2]==0X5A)//Si oprime SET 
06BC8:  BSF    F96.2
06BCA:  BTFSC  F84.2
06BCC:  BRA    6BD8
06BCE:  MOVLB  6
06BD0:  MOVF   x36,W
06BD2:  SUBLW  5A
06BD4:  BNZ   6BF6
06BD6:  MOVLB  4
....................       {  if(Flanco1 == 0)  
06BD8:  BTFSC  x1F.1
06BDA:  BRA    6BF4
....................             {Flanco1 = 1;delay_ms(30);unidad--;BYTE_IR[2]=0X00; 
06BDC:  BSF    x1F.1
06BDE:  MOVLW  1E
06BE0:  MOVLB  6
06BE2:  MOVWF  x56
06BE4:  MOVLB  0
06BE6:  CALL   1576
06BEA:  MOVLB  4
06BEC:  DECF   xE1,F
06BEE:  MOVLB  6
06BF0:  CLRF   x36
06BF2:  MOVLB  4
....................             } 
....................       } 
....................          else 
06BF4:  BRA    6BFA
....................             {Flanco1 = 0;}   
06BF6:  MOVLB  4
06BF8:  BCF    x1F.1
....................              
....................       if(LEFT || BYTE_IR[2]==0X08)//Si oprime boton de Toma. 
06BFA:  BSF    F94.0
06BFC:  BTFSC  F82.0
06BFE:  BRA    6C08
06C00:  MOVLB  6
06C02:  MOVF   x36,W
06C04:  SUBLW  08
06C06:  BNZ   6CEC
....................         {delay_ms(700);Menu=3;glcd_fillscreen(OFF);Opcion=1;BYTE_IR[2]=0X00; 
06C08:  MOVLW  04
06C0A:  MOVLB  6
06C0C:  MOVWF  x4E
06C0E:  MOVLW  AF
06C10:  MOVWF  x56
06C12:  MOVLB  0
06C14:  CALL   1576
06C18:  MOVLB  6
06C1A:  DECFSZ x4E,F
06C1C:  BRA    6C0E
06C1E:  MOVLW  03
06C20:  MOVLB  4
06C22:  MOVWF  xE0
06C24:  MOVLB  6
06C26:  CLRF   x4F
06C28:  MOVLB  0
06C2A:  CALL   225C
06C2E:  MOVLW  01
06C30:  MOVLB  4
06C32:  MOVWF  xE2
06C34:  MOVLB  6
06C36:  CLRF   x36
....................       write_eeprom(21,Tempouvp[0]);write_eeprom(22,Tempouvp[1]);write_eeprom(23,Tempouvp[2]);write_eeprom(24,Tempouvp[3]); 
06C38:  CLRF   FAA
06C3A:  MOVLW  15
06C3C:  MOVWF  FA9
06C3E:  MOVFF  51A,FA8
06C42:  BCF    FA6.6
06C44:  BCF    FA6.7
06C46:  BSF    FA6.2
06C48:  MOVF   FF2,W
06C4A:  MOVWF  00
06C4C:  BCF    FF2.7
06C4E:  MOVLB  F
06C50:  MOVLW  55
06C52:  MOVWF  FA7
06C54:  MOVLW  AA
06C56:  MOVWF  FA7
06C58:  BSF    FA6.1
06C5A:  BTFSC  FA6.1
06C5C:  BRA    6C5A
06C5E:  BCF    FA6.2
06C60:  MOVF   00,W
06C62:  IORWF  FF2,F
06C64:  CLRF   FAA
06C66:  MOVLW  16
06C68:  MOVWF  FA9
06C6A:  MOVFF  51B,FA8
06C6E:  BCF    FA6.6
06C70:  BCF    FA6.7
06C72:  BSF    FA6.2
06C74:  MOVF   FF2,W
06C76:  MOVWF  00
06C78:  BCF    FF2.7
06C7A:  MOVLW  55
06C7C:  MOVWF  FA7
06C7E:  MOVLW  AA
06C80:  MOVWF  FA7
06C82:  BSF    FA6.1
06C84:  BTFSC  FA6.1
06C86:  BRA    6C84
06C88:  BCF    FA6.2
06C8A:  MOVF   00,W
06C8C:  IORWF  FF2,F
06C8E:  CLRF   FAA
06C90:  MOVLW  17
06C92:  MOVWF  FA9
06C94:  MOVFF  51C,FA8
06C98:  BCF    FA6.6
06C9A:  BCF    FA6.7
06C9C:  BSF    FA6.2
06C9E:  MOVF   FF2,W
06CA0:  MOVWF  00
06CA2:  BCF    FF2.7
06CA4:  MOVLW  55
06CA6:  MOVWF  FA7
06CA8:  MOVLW  AA
06CAA:  MOVWF  FA7
06CAC:  BSF    FA6.1
06CAE:  BTFSC  FA6.1
06CB0:  BRA    6CAE
06CB2:  BCF    FA6.2
06CB4:  MOVF   00,W
06CB6:  IORWF  FF2,F
06CB8:  CLRF   FAA
06CBA:  MOVLW  18
06CBC:  MOVWF  FA9
06CBE:  MOVFF  51D,FA8
06CC2:  BCF    FA6.6
06CC4:  BCF    FA6.7
06CC6:  BSF    FA6.2
06CC8:  MOVF   FF2,W
06CCA:  MOVWF  00
06CCC:  BCF    FF2.7
06CCE:  MOVLW  55
06CD0:  MOVWF  FA7
06CD2:  MOVLW  AA
06CD4:  MOVWF  FA7
06CD6:  BSF    FA6.1
06CD8:  BTFSC  FA6.1
06CDA:  BRA    6CD8
06CDC:  BCF    FA6.2
06CDE:  MOVF   00,W
06CE0:  IORWF  FF2,F
....................       Tempouv[0]=0;Tempouv[1]=0;Tempouv[2]=0;Tempouv[3]=0;} 
06CE2:  MOVLB  5
06CE4:  CLRF   x16
06CE6:  CLRF   x17
06CE8:  CLRF   x18
06CEA:  CLRF   x19
....................              
....................       for(i=0;i<3;i++) 
06CEC:  MOVLB  4
06CEE:  CLRF   x19
06CF0:  MOVF   x19,W
06CF2:  SUBLW  02
06CF4:  BNC   6D4A
....................       { 
....................          if(Tempouvp[i]>9) 
06CF6:  CLRF   03
06CF8:  MOVF   x19,W
06CFA:  ADDLW  1A
06CFC:  MOVWF  FE9
06CFE:  MOVLW  05
06D00:  ADDWFC 03,W
06D02:  MOVWF  FEA
06D04:  BTFSC  FEF.7
06D06:  BRA    6D1E
06D08:  MOVF   FEF,W
06D0A:  SUBLW  09
06D0C:  BC    6D1E
....................          {Tempouvp[i]=0;} 
06D0E:  CLRF   03
06D10:  MOVF   x19,W
06D12:  ADDLW  1A
06D14:  MOVWF  FE9
06D16:  MOVLW  05
06D18:  ADDWFC 03,W
06D1A:  MOVWF  FEA
06D1C:  CLRF   FEF
....................           
....................          if(Tempouvp[i]<0) 
06D1E:  CLRF   03
06D20:  MOVF   x19,W
06D22:  ADDLW  1A
06D24:  MOVWF  FE9
06D26:  MOVLW  05
06D28:  ADDWFC 03,W
06D2A:  MOVWF  FEA
06D2C:  BTFSC  FEF.7
06D2E:  BRA    6D32
06D30:  BRA    6D44
....................          {Tempouvp[i]=9;} 
06D32:  CLRF   03
06D34:  MOVF   x19,W
06D36:  ADDLW  1A
06D38:  MOVWF  FE9
06D3A:  MOVLW  05
06D3C:  ADDWFC 03,W
06D3E:  MOVWF  FEA
06D40:  MOVLW  09
06D42:  MOVWF  FEF
....................          i++; 
06D44:  INCF   x19,F
....................       }       
06D46:  INCF   x19,F
06D48:  BRA    6CF0
....................       for(i=1;i<4;i++) 
06D4A:  MOVLW  01
06D4C:  MOVWF  x19
06D4E:  MOVF   x19,W
06D50:  SUBLW  03
06D52:  BNC   6DA8
....................       { 
....................          if(Tempouvp[i]>5) 
06D54:  CLRF   03
06D56:  MOVF   x19,W
06D58:  ADDLW  1A
06D5A:  MOVWF  FE9
06D5C:  MOVLW  05
06D5E:  ADDWFC 03,W
06D60:  MOVWF  FEA
06D62:  BTFSC  FEF.7
06D64:  BRA    6D7C
06D66:  MOVF   FEF,W
06D68:  SUBLW  05
06D6A:  BC    6D7C
....................          {Tempouvp[i]=0;} 
06D6C:  CLRF   03
06D6E:  MOVF   x19,W
06D70:  ADDLW  1A
06D72:  MOVWF  FE9
06D74:  MOVLW  05
06D76:  ADDWFC 03,W
06D78:  MOVWF  FEA
06D7A:  CLRF   FEF
....................           
....................          if(Tempouvp[i]<0) 
06D7C:  CLRF   03
06D7E:  MOVF   x19,W
06D80:  ADDLW  1A
06D82:  MOVWF  FE9
06D84:  MOVLW  05
06D86:  ADDWFC 03,W
06D88:  MOVWF  FEA
06D8A:  BTFSC  FEF.7
06D8C:  BRA    6D90
06D8E:  BRA    6DA2
....................          {Tempouvp[i]=5;} 
06D90:  CLRF   03
06D92:  MOVF   x19,W
06D94:  ADDLW  1A
06D96:  MOVWF  FE9
06D98:  MOVLW  05
06D9A:  ADDWFC 03,W
06D9C:  MOVWF  FEA
06D9E:  MOVLW  05
06DA0:  MOVWF  FEF
....................         i++;  
06DA2:  INCF   x19,F
....................       }       
06DA4:  INCF   x19,F
06DA6:  BRA    6D4E
....................       if(unidad<1) 
06DA8:  MOVF   xE1,F
06DAA:  BNZ   6DB0
....................       {unidad=4;} 
06DAC:  MOVLW  04
06DAE:  MOVWF  xE1
....................       if(Opcion<1) 
06DB0:  MOVF   xE2,F
06DB2:  BNZ   6DB8
....................       {Opcion=4;} 
06DB4:  MOVLW  04
06DB6:  MOVWF  xE2
....................      
....................     } 
.................... //_--------------------------------------------------------------------------------------------------------------------------------------------------------        
....................  
.................... //_-------------------------------------------------------------------------------------------------------------------------------------------------------- 
....................       if(Menu==14){ //Menu de Sensor de Flujo. 
06DB8:  MOVF   xE0,W
06DBA:  SUBLW  0E
06DBC:  BTFSS  FD8.2
06DBE:  BRA    73E8
....................        
....................       if(Ajuste1>10.0) 
06DC0:  MOVLB  6
06DC2:  CLRF   x56
06DC4:  CLRF   x55
06DC6:  MOVLW  20
06DC8:  MOVWF  x54
06DCA:  MOVLW  82
06DCC:  MOVWF  x53
06DCE:  MOVFF  55D,65A
06DD2:  MOVFF  55C,659
06DD6:  MOVFF  55B,658
06DDA:  MOVFF  55A,657
06DDE:  MOVLB  0
06DE0:  CALL   1C2C
06DE4:  BNC   6DF2
....................          Ajuste1=0.0; 
06DE6:  MOVLB  5
06DE8:  CLRF   x5D
06DEA:  CLRF   x5C
06DEC:  CLRF   x5B
06DEE:  CLRF   x5A
06DF0:  MOVLB  0
....................        
....................       strcpy(Menus.Letra,"Sensor de Flujo"); 
06DF2:  MOVLW  06
06DF4:  MOVWF  FEA
06DF6:  MOVLW  38
06DF8:  MOVWF  FE9
06DFA:  MOVFF  FF2,64E
06DFE:  BCF    FF2.7
06E00:  MOVLW  00
06E02:  CALL   107E
06E06:  TBLRD*-
06E08:  TBLRD*+
06E0A:  MOVF   FF5,W
06E0C:  MOVWF  FEE
06E0E:  IORLW  00
06E10:  BNZ   6E08
06E12:  MOVLB  6
06E14:  BTFSC  x4E.7
06E16:  BSF    FF2.7
....................       displayMenu(Menus.Letra,10,0,1,1); 
06E18:  MOVLW  06
06E1A:  MOVWF  x4F
06E1C:  MOVLW  38
06E1E:  MOVWF  x4E
06E20:  MOVLW  0A
06E22:  MOVWF  x50
06E24:  CLRF   x51
06E26:  MOVLW  01
06E28:  MOVWF  x52
06E2A:  MOVWF  x53
06E2C:  MOVLB  0
06E2E:  CALL   29C8
....................        
....................       glcd_text57(0, 12, ZF, 1, ON); 
06E32:  MOVLB  6
06E34:  CLRF   x65
06E36:  MOVLW  0C
06E38:  MOVWF  x66
06E3A:  MOVLW  04
06E3C:  MOVWF  x68
06E3E:  MOVLW  94
06E40:  MOVWF  x67
06E42:  MOVLW  01
06E44:  MOVWF  x69
06E46:  MOVWF  x6A
06E48:  MOVLB  0
06E4A:  CALL   275A
....................        
....................       glcd_text57(0, 20, ZA, 1, ON); 
06E4E:  MOVLB  6
06E50:  CLRF   x65
06E52:  MOVLW  14
06E54:  MOVWF  x66
06E56:  MOVLW  04
06E58:  MOVWF  x68
06E5A:  MOVLW  A2
06E5C:  MOVWF  x67
06E5E:  MOVLW  01
06E60:  MOVWF  x69
06E62:  MOVWF  x6A
06E64:  MOVLB  0
06E66:  CALL   275A
....................        
....................       glcd_text57(0, 30, AJ, 1, ON);            
06E6A:  MOVLB  6
06E6C:  CLRF   x65
06E6E:  MOVLW  1E
06E70:  MOVWF  x66
06E72:  MOVLW  04
06E74:  MOVWF  x68
06E76:  MOVLW  AA
06E78:  MOVWF  x67
06E7A:  MOVLW  01
06E7C:  MOVWF  x69
06E7E:  MOVWF  x6A
06E80:  MOVLB  0
06E82:  CALL   275A
....................        
....................       displayfloat(zero_actual,44,20,0,1); 
06E86:  MOVFF  5C9,655
06E8A:  MOVFF  5C8,654
06E8E:  MOVFF  5C7,653
06E92:  MOVFF  5C6,652
06E96:  MOVLW  2C
06E98:  MOVLB  6
06E9A:  MOVWF  x56
06E9C:  MOVLW  14
06E9E:  MOVWF  x57
06EA0:  CLRF   x58
06EA2:  MOVLW  01
06EA4:  MOVWF  x59
06EA6:  MOVLB  0
06EA8:  CALL   3048
....................       displayfloat(Ajuste1,44,30,0,1); 
06EAC:  MOVFF  55D,655
06EB0:  MOVFF  55C,654
06EB4:  MOVFF  55B,653
06EB8:  MOVFF  55A,652
06EBC:  MOVLW  2C
06EBE:  MOVLB  6
06EC0:  MOVWF  x56
06EC2:  MOVLW  1E
06EC4:  MOVWF  x57
06EC6:  CLRF   x58
06EC8:  MOVLW  01
06ECA:  MOVWF  x59
06ECC:  MOVLB  0
06ECE:  CALL   3048
....................       displayfloat(Inflow_adc,0,40,0,1); 
06ED2:  MOVFF  4F5,654
06ED6:  MOVFF  4F4,653
06EDA:  CALL   159E
06EDE:  MOVFF  00,64E
06EE2:  MOVFF  01,64F
06EE6:  MOVFF  02,650
06EEA:  MOVFF  03,651
06EEE:  MOVFF  03,655
06EF2:  MOVFF  02,654
06EF6:  MOVFF  01,653
06EFA:  MOVFF  00,652
06EFE:  MOVLB  6
06F00:  CLRF   x56
06F02:  MOVLW  28
06F04:  MOVWF  x57
06F06:  CLRF   x58
06F08:  MOVLW  01
06F0A:  MOVWF  x59
06F0C:  MOVLB  0
06F0E:  CALL   3048
.................... //      displayfloat(Diferencia,0,50,0,1); 
....................        
....................       if(UP || BYTE_IR[2]==0X18)//Si oprime hacia arriba 
06F12:  BSF    F96.0
06F14:  BTFSC  F84.0
06F16:  BRA    6F22
06F18:  MOVLB  6
06F1A:  MOVF   x36,W
06F1C:  SUBLW  18
06F1E:  BNZ   6F6C
06F20:  MOVLB  0
....................       {   
....................          delay_ms(30);Ajuste1+=0.01;BYTE_IR[2]=0X00; 
06F22:  MOVLW  1E
06F24:  MOVLB  6
06F26:  MOVWF  x56
06F28:  MOVLB  0
06F2A:  CALL   1576
06F2E:  BCF    FD8.1
06F30:  MOVFF  55D,65A
06F34:  MOVFF  55C,659
06F38:  MOVFF  55B,658
06F3C:  MOVFF  55A,657
06F40:  MOVLW  0A
06F42:  MOVLB  6
06F44:  MOVWF  x5E
06F46:  MOVLW  D7
06F48:  MOVWF  x5D
06F4A:  MOVLW  23
06F4C:  MOVWF  x5C
06F4E:  MOVLW  78
06F50:  MOVWF  x5B
06F52:  MOVLB  0
06F54:  CALL   1732
06F58:  MOVFF  03,55D
06F5C:  MOVFF  02,55C
06F60:  MOVFF  01,55B
06F64:  MOVFF  00,55A
06F68:  MOVLB  6
06F6A:  CLRF   x36
....................       } 
....................              
....................       if(DOWN  || BYTE_IR[2]==0X52)//Si oprime hacia abajo 
06F6C:  BSF    F96.1
06F6E:  BTFSC  F84.1
06F70:  BRA    6F78
06F72:  MOVF   x36,W
06F74:  SUBLW  52
06F76:  BNZ   6FC0
....................       {    
....................          delay_ms(30);Ajuste1-=0.01;BYTE_IR[2]=0X00;                
06F78:  MOVLW  1E
06F7A:  MOVWF  x56
06F7C:  MOVLB  0
06F7E:  CALL   1576
06F82:  BSF    FD8.1
06F84:  MOVFF  55D,65A
06F88:  MOVFF  55C,659
06F8C:  MOVFF  55B,658
06F90:  MOVFF  55A,657
06F94:  MOVLW  0A
06F96:  MOVLB  6
06F98:  MOVWF  x5E
06F9A:  MOVLW  D7
06F9C:  MOVWF  x5D
06F9E:  MOVLW  23
06FA0:  MOVWF  x5C
06FA2:  MOVLW  78
06FA4:  MOVWF  x5B
06FA6:  MOVLB  0
06FA8:  CALL   1732
06FAC:  MOVFF  03,55D
06FB0:  MOVFF  02,55C
06FB4:  MOVFF  01,55B
06FB8:  MOVFF  00,55A
06FBC:  MOVLB  6
06FBE:  CLRF   x36
....................       } 
....................              
....................       if(RIGHT || BYTE_IR[2]==0X5A)//Si oprime SET 
06FC0:  BSF    F96.2
06FC2:  BTFSC  F84.2
06FC4:  BRA    6FCE
06FC6:  MOVF   x36,W
06FC8:  SUBLW  5A
06FCA:  BTFSS  FD8.2
06FCC:  BRA    728E
....................       {   
....................          zero_actual=Inflow_adc;BYTE_IR[2]=0X00; 
06FCE:  MOVFF  4F5,654
06FD2:  MOVFF  4F4,653
06FD6:  MOVLB  0
06FD8:  CALL   159E
06FDC:  MOVFF  03,5C9
06FE0:  MOVFF  02,5C8
06FE4:  MOVFF  01,5C7
06FE8:  MOVFF  00,5C6
06FEC:  MOVLB  6
06FEE:  CLRF   x36
....................          Diferencia=zero_fabrica-Inflow_adc; 
06FF0:  MOVFF  4F5,654
06FF4:  MOVFF  4F4,653
06FF8:  MOVLB  0
06FFA:  CALL   159E
06FFE:  BSF    FD8.1
07000:  MOVFF  5C5,65A
07004:  MOVFF  5C4,659
07008:  MOVFF  5C3,658
0700C:  MOVFF  5C2,657
07010:  MOVFF  03,65E
07014:  MOVFF  02,65D
07018:  MOVFF  01,65C
0701C:  MOVFF  00,65B
07020:  CALL   1732
07024:  MOVFF  03,539
07028:  MOVFF  02,538
0702C:  MOVFF  01,537
07030:  MOVFF  00,536
....................              
....................          if(Diferencia>=0) 
07034:  MOVLB  6
07036:  CLRF   x56
07038:  CLRF   x55
0703A:  CLRF   x54
0703C:  CLRF   x53
0703E:  MOVFF  539,65A
07042:  MOVFF  538,659
07046:  MOVFF  537,658
0704A:  MOVFF  536,657
0704E:  MOVLB  0
07050:  CALL   1C2C
07054:  BC    7058
07056:  BNZ   708A
....................          { 
....................             negativo=10;write_eeprom(50,negativo); 
07058:  MOVLW  0A
0705A:  MOVLB  4
0705C:  MOVWF  xE4
0705E:  CLRF   FAA
07060:  MOVLW  32
07062:  MOVWF  FA9
07064:  MOVFF  4E4,FA8
07068:  BCF    FA6.6
0706A:  BCF    FA6.7
0706C:  BSF    FA6.2
0706E:  MOVF   FF2,W
07070:  MOVWF  00
07072:  BCF    FF2.7
07074:  MOVLB  F
07076:  MOVLW  55
07078:  MOVWF  FA7
0707A:  MOVLW  AA
0707C:  MOVWF  FA7
0707E:  BSF    FA6.1
07080:  BTFSC  FA6.1
07082:  BRA    7080
07084:  BCF    FA6.2
07086:  MOVF   00,W
07088:  IORWF  FF2,F
....................          } 
....................          if(Diferencia<0) 
0708A:  MOVFF  539,656
0708E:  MOVFF  538,655
07092:  MOVFF  537,654
07096:  MOVFF  536,653
0709A:  MOVLB  6
0709C:  CLRF   x5A
0709E:  CLRF   x59
070A0:  CLRF   x58
070A2:  CLRF   x57
070A4:  MOVLB  0
070A6:  CALL   1C2C
070AA:  BNC   70E0
....................          { 
....................             negativo=20;write_eeprom(50,negativo); 
070AC:  MOVLW  14
070AE:  MOVLB  4
070B0:  MOVWF  xE4
070B2:  CLRF   FAA
070B4:  MOVLW  32
070B6:  MOVWF  FA9
070B8:  MOVFF  4E4,FA8
070BC:  BCF    FA6.6
070BE:  BCF    FA6.7
070C0:  BSF    FA6.2
070C2:  MOVF   FF2,W
070C4:  MOVWF  00
070C6:  BCF    FF2.7
070C8:  MOVLB  F
070CA:  MOVLW  55
070CC:  MOVWF  FA7
070CE:  MOVLW  AA
070D0:  MOVWF  FA7
070D2:  BSF    FA6.1
070D4:  BTFSC  FA6.1
070D6:  BRA    70D4
070D8:  BCF    FA6.2
070DA:  MOVF   00,W
070DC:  IORWF  FF2,F
070DE:  MOVLB  0
....................          } 
....................          Diferencia=abs(Diferencia); 
070E0:  MOVFF  536,00
070E4:  MOVFF  537,01
070E8:  MOVFF  538,02
070EC:  MOVFF  539,03
070F0:  BCF    01.7
070F2:  MOVFF  539,539
070F6:  MOVFF  538,538
070FA:  MOVFF  01,537
070FE:  MOVFF  536,536
....................          Temporal1=(int16)Diferencia; 
07102:  MOVFF  539,651
07106:  MOVFF  538,650
0710A:  MOVFF  537,64F
0710E:  MOVFF  536,64E
07112:  CALL   334E
07116:  MOVFF  02,4F9
0711A:  MOVFF  01,4F8
....................          write_eeprom(60,make8(Temporal1,0)); 
0711E:  MOVFF  4F8,64E
07122:  CLRF   FAA
07124:  MOVLW  3C
07126:  MOVWF  FA9
07128:  MOVFF  64E,FA8
0712C:  BCF    FA6.6
0712E:  BCF    FA6.7
07130:  BSF    FA6.2
07132:  MOVF   FF2,W
07134:  MOVWF  00
07136:  BCF    FF2.7
07138:  MOVLB  F
0713A:  MOVLW  55
0713C:  MOVWF  FA7
0713E:  MOVLW  AA
07140:  MOVWF  FA7
07142:  BSF    FA6.1
07144:  BTFSC  FA6.1
07146:  BRA    7144
07148:  BCF    FA6.2
0714A:  MOVF   00,W
0714C:  IORWF  FF2,F
....................          write_eeprom(61,make8(Temporal1,1));//Guardar valor de Setpoint en eeprom 
0714E:  MOVFF  4F9,64E
07152:  CLRF   FAA
07154:  MOVLW  3D
07156:  MOVWF  FA9
07158:  MOVFF  4F9,FA8
0715C:  BCF    FA6.6
0715E:  BCF    FA6.7
07160:  BSF    FA6.2
07162:  MOVFF  FF2,00
07166:  BCF    FF2.7
07168:  MOVLW  55
0716A:  MOVWF  FA7
0716C:  MOVLW  AA
0716E:  MOVWF  FA7
07170:  BSF    FA6.1
07172:  BTFSC  FA6.1
07174:  BRA    7172
07176:  BCF    FA6.2
07178:  MOVF   00,W
0717A:  IORWF  FF2,F
....................           
....................          Temporal=zero_actual; 
0717C:  MOVFF  5C9,569
07180:  MOVFF  5C8,568
07184:  MOVFF  5C7,567
07188:  MOVFF  5C6,566
....................          Entero=(int)zero_actual; 
0718C:  MOVFF  5C9,651
07190:  MOVFF  5C8,650
07194:  MOVFF  5C7,64F
07198:  MOVFF  5C6,64E
0719C:  MOVLB  0
0719E:  CALL   334E
071A2:  MOVFF  01,4EC
....................          Temporal=Temporal-Entero; 
071A6:  MOVLB  6
071A8:  CLRF   x54
071AA:  MOVFF  4EC,653
071AE:  MOVLB  0
071B0:  CALL   159E
071B4:  BSF    FD8.1
071B6:  MOVFF  569,65A
071BA:  MOVFF  568,659
071BE:  MOVFF  567,658
071C2:  MOVFF  566,657
071C6:  MOVFF  03,65E
071CA:  MOVFF  02,65D
071CE:  MOVFF  01,65C
071D2:  MOVFF  00,65B
071D6:  CALL   1732
071DA:  MOVFF  03,569
071DE:  MOVFF  02,568
071E2:  MOVFF  01,567
071E6:  MOVFF  00,566
....................          Temporal2=Temporal*100.0; 
071EA:  MOVFF  569,673
071EE:  MOVFF  568,672
071F2:  MOVFF  567,671
071F6:  MOVFF  566,670
071FA:  MOVLB  6
071FC:  CLRF   x77
071FE:  CLRF   x76
07200:  MOVLW  48
07202:  MOVWF  x75
07204:  MOVLW  85
07206:  MOVWF  x74
07208:  MOVLB  0
0720A:  CALL   1B36
0720E:  MOVFF  03,56D
07212:  MOVFF  02,56C
07216:  MOVFF  01,56B
0721A:  MOVFF  00,56A
....................          Decimal1=(int8)Temporal2; 
0721E:  MOVFF  56D,651
07222:  MOVFF  56C,650
07226:  MOVFF  56B,64F
0722A:  MOVFF  56A,64E
0722E:  CALL   334E
07232:  MOVFF  01,4ED
....................          write_eeprom(29,Entero);write_eeprom(30,Decimal1); 
07236:  CLRF   FAA
07238:  MOVLW  1D
0723A:  MOVWF  FA9
0723C:  MOVFF  4EC,FA8
07240:  BCF    FA6.6
07242:  BCF    FA6.7
07244:  BSF    FA6.2
07246:  MOVF   FF2,W
07248:  MOVWF  00
0724A:  BCF    FF2.7
0724C:  MOVLB  F
0724E:  MOVLW  55
07250:  MOVWF  FA7
07252:  MOVLW  AA
07254:  MOVWF  FA7
07256:  BSF    FA6.1
07258:  BTFSC  FA6.1
0725A:  BRA    7258
0725C:  BCF    FA6.2
0725E:  MOVF   00,W
07260:  IORWF  FF2,F
07262:  CLRF   FAA
07264:  MOVLW  1E
07266:  MOVWF  FA9
07268:  MOVFF  4ED,FA8
0726C:  BCF    FA6.6
0726E:  BCF    FA6.7
07270:  BSF    FA6.2
07272:  MOVF   FF2,W
07274:  MOVWF  00
07276:  BCF    FF2.7
07278:  MOVLW  55
0727A:  MOVWF  FA7
0727C:  MOVLW  AA
0727E:  MOVWF  FA7
07280:  BSF    FA6.1
07282:  BTFSC  FA6.1
07284:  BRA    7282
07286:  BCF    FA6.2
07288:  MOVF   00,W
0728A:  IORWF  FF2,F
....................       } 
....................          else 
0728C:  BRA    7294
....................             {Flanco1 = 0;}   
0728E:  MOVLB  4
07290:  BCF    x1F.1
07292:  MOVLB  F
....................              
....................       if(LEFT || BYTE_IR[2]==0X08)//Si oprime boton de Toma. 
07294:  BSF    F94.0
07296:  BTFSC  F82.0
07298:  BRA    72A6
0729A:  MOVLB  6
0729C:  MOVF   x36,W
0729E:  SUBLW  08
072A0:  BTFSS  FD8.2
072A2:  BRA    73E6
072A4:  MOVLB  F
....................       { 
....................          BYTE_IR[2]=0X00; 
072A6:  MOVLB  6
072A8:  CLRF   x36
....................          delay_ms(700);Menu=3;glcd_fillscreen(OFF);Opcion=1; 
072AA:  MOVLW  04
072AC:  MOVWF  x4E
072AE:  MOVLW  AF
072B0:  MOVWF  x56
072B2:  MOVLB  0
072B4:  CALL   1576
072B8:  MOVLB  6
072BA:  DECFSZ x4E,F
072BC:  BRA    72AE
072BE:  MOVLW  03
072C0:  MOVLB  4
072C2:  MOVWF  xE0
072C4:  MOVLB  6
072C6:  CLRF   x4F
072C8:  MOVLB  0
072CA:  CALL   225C
072CE:  MOVLW  01
072D0:  MOVLB  4
072D2:  MOVWF  xE2
....................          Temporal=Ajuste1; 
072D4:  MOVFF  55D,569
072D8:  MOVFF  55C,568
072DC:  MOVFF  55B,567
072E0:  MOVFF  55A,566
....................          Entero=(int)Ajuste1; 
072E4:  MOVFF  55D,651
072E8:  MOVFF  55C,650
072EC:  MOVFF  55B,64F
072F0:  MOVFF  55A,64E
072F4:  MOVLB  0
072F6:  CALL   334E
072FA:  MOVFF  01,4EC
....................          Temporal=Temporal-Entero; 
072FE:  MOVLB  6
07300:  CLRF   x54
07302:  MOVFF  4EC,653
07306:  MOVLB  0
07308:  CALL   159E
0730C:  BSF    FD8.1
0730E:  MOVFF  569,65A
07312:  MOVFF  568,659
07316:  MOVFF  567,658
0731A:  MOVFF  566,657
0731E:  MOVFF  03,65E
07322:  MOVFF  02,65D
07326:  MOVFF  01,65C
0732A:  MOVFF  00,65B
0732E:  CALL   1732
07332:  MOVFF  03,569
07336:  MOVFF  02,568
0733A:  MOVFF  01,567
0733E:  MOVFF  00,566
....................          Temporal2=Temporal*100.0; 
07342:  MOVFF  569,673
07346:  MOVFF  568,672
0734A:  MOVFF  567,671
0734E:  MOVFF  566,670
07352:  MOVLB  6
07354:  CLRF   x77
07356:  CLRF   x76
07358:  MOVLW  48
0735A:  MOVWF  x75
0735C:  MOVLW  85
0735E:  MOVWF  x74
07360:  MOVLB  0
07362:  CALL   1B36
07366:  MOVFF  03,56D
0736A:  MOVFF  02,56C
0736E:  MOVFF  01,56B
07372:  MOVFF  00,56A
....................          Decimal1=(int8)Temporal2; 
07376:  MOVFF  56D,651
0737A:  MOVFF  56C,650
0737E:  MOVFF  56B,64F
07382:  MOVFF  56A,64E
07386:  CALL   334E
0738A:  MOVFF  01,4ED
....................          write_eeprom(25,Entero);write_eeprom(26,Decimal1); 
0738E:  CLRF   FAA
07390:  MOVLW  19
07392:  MOVWF  FA9
07394:  MOVFF  4EC,FA8
07398:  BCF    FA6.6
0739A:  BCF    FA6.7
0739C:  BSF    FA6.2
0739E:  MOVF   FF2,W
073A0:  MOVWF  00
073A2:  BCF    FF2.7
073A4:  MOVLB  F
073A6:  MOVLW  55
073A8:  MOVWF  FA7
073AA:  MOVLW  AA
073AC:  MOVWF  FA7
073AE:  BSF    FA6.1
073B0:  BTFSC  FA6.1
073B2:  BRA    73B0
073B4:  BCF    FA6.2
073B6:  MOVF   00,W
073B8:  IORWF  FF2,F
073BA:  CLRF   FAA
073BC:  MOVLW  1A
073BE:  MOVWF  FA9
073C0:  MOVFF  4ED,FA8
073C4:  BCF    FA6.6
073C6:  BCF    FA6.7
073C8:  BSF    FA6.2
073CA:  MOVF   FF2,W
073CC:  MOVWF  00
073CE:  BCF    FF2.7
073D0:  MOVLW  55
073D2:  MOVWF  FA7
073D4:  MOVLW  AA
073D6:  MOVWF  FA7
073D8:  BSF    FA6.1
073DA:  BTFSC  FA6.1
073DC:  BRA    73DA
073DE:  BCF    FA6.2
073E0:  MOVF   00,W
073E2:  IORWF  FF2,F
073E4:  MOVLB  6
073E6:  MOVLB  4
....................       } 
....................     } 
.................... //_--------------------------------------------------------------------------------------------------------------------------------------------------------        
....................  
.................... //_-------------------------------------------------------------------------------------------------------------------------------------------------------- 
....................       if(Menu==15){ //Menu de Sensor de Presin. 
073E8:  MOVF   xE0,W
073EA:  SUBLW  0F
073EC:  BTFSS  FD8.2
073EE:  BRA    7816
....................        
....................       if(Ajuste2>10.0) 
073F0:  MOVLB  6
073F2:  CLRF   x56
073F4:  CLRF   x55
073F6:  MOVLW  20
073F8:  MOVWF  x54
073FA:  MOVLW  82
073FC:  MOVWF  x53
073FE:  MOVFF  561,65A
07402:  MOVFF  560,659
07406:  MOVFF  55F,658
0740A:  MOVFF  55E,657
0740E:  MOVLB  0
07410:  CALL   1C2C
07414:  BNC   7422
....................          Ajuste2=0.0; 
07416:  MOVLB  5
07418:  CLRF   x61
0741A:  CLRF   x60
0741C:  CLRF   x5F
0741E:  CLRF   x5E
07420:  MOVLB  0
....................        
....................       strcpy(Menus.Letra,"Sensor de Presion"); 
07422:  MOVLW  06
07424:  MOVWF  FEA
07426:  MOVLW  38
07428:  MOVWF  FE9
0742A:  MOVFF  FF2,64E
0742E:  BCF    FF2.7
07430:  MOVLW  00
07432:  CALL   10AC
07436:  TBLRD*-
07438:  TBLRD*+
0743A:  MOVF   FF5,W
0743C:  MOVWF  FEE
0743E:  IORLW  00
07440:  BNZ   7438
07442:  MOVLB  6
07444:  BTFSC  x4E.7
07446:  BSF    FF2.7
....................       displayMenu(Menus.Letra,10,0,1,1); 
07448:  MOVLW  06
0744A:  MOVWF  x4F
0744C:  MOVLW  38
0744E:  MOVWF  x4E
07450:  MOVLW  0A
07452:  MOVWF  x50
07454:  CLRF   x51
07456:  MOVLW  01
07458:  MOVWF  x52
0745A:  MOVWF  x53
0745C:  MOVLB  0
0745E:  CALL   29C8
....................        
....................       glcd_text57(0, 12, ZFP, 1, ON); 
07462:  MOVLB  6
07464:  CLRF   x65
07466:  MOVLW  0C
07468:  MOVWF  x66
0746A:  MOVLW  04
0746C:  MOVWF  x68
0746E:  MOVLW  C2
07470:  MOVWF  x67
07472:  MOVLW  01
07474:  MOVWF  x69
07476:  MOVWF  x6A
07478:  MOVLB  0
0747A:  CALL   275A
....................        
....................       glcd_text57(0, 20, ZA, 1, ON); 
0747E:  MOVLB  6
07480:  CLRF   x65
07482:  MOVLW  14
07484:  MOVWF  x66
07486:  MOVLW  04
07488:  MOVWF  x68
0748A:  MOVLW  A2
0748C:  MOVWF  x67
0748E:  MOVLW  01
07490:  MOVWF  x69
07492:  MOVWF  x6A
07494:  MOVLB  0
07496:  CALL   275A
....................        
....................       glcd_text57(0, 30, AJ, 1, ON);            
0749A:  MOVLB  6
0749C:  CLRF   x65
0749E:  MOVLW  1E
074A0:  MOVWF  x66
074A2:  MOVLW  04
074A4:  MOVWF  x68
074A6:  MOVLW  AA
074A8:  MOVWF  x67
074AA:  MOVLW  01
074AC:  MOVWF  x69
074AE:  MOVWF  x6A
074B0:  MOVLB  0
074B2:  CALL   275A
....................        
....................       displayfloat(G,44,20,0,1); 
074B6:  MOVFF  5D5,655
074BA:  MOVFF  5D4,654
074BE:  MOVFF  5D3,653
074C2:  MOVFF  5D2,652
074C6:  MOVLW  2C
074C8:  MOVLB  6
074CA:  MOVWF  x56
074CC:  MOVLW  14
074CE:  MOVWF  x57
074D0:  CLRF   x58
074D2:  MOVLW  01
074D4:  MOVWF  x59
074D6:  MOVLB  0
074D8:  CALL   3048
....................       displayfloat(Ajuste2,44,30,0,1); 
074DC:  MOVFF  561,655
074E0:  MOVFF  560,654
074E4:  MOVFF  55F,653
074E8:  MOVFF  55E,652
074EC:  MOVLW  2C
074EE:  MOVLB  6
074F0:  MOVWF  x56
074F2:  MOVLW  1E
074F4:  MOVWF  x57
074F6:  CLRF   x58
074F8:  MOVLW  01
074FA:  MOVWF  x59
074FC:  MOVLB  0
074FE:  CALL   3048
....................       displayfloat(Filtro_DownFlow_adc,0,40,0,1); 
07502:  MOVFF  4F7,654
07506:  MOVFF  4F6,653
0750A:  CALL   159E
0750E:  MOVFF  00,64E
07512:  MOVFF  01,64F
07516:  MOVFF  02,650
0751A:  MOVFF  03,651
0751E:  MOVFF  03,655
07522:  MOVFF  02,654
07526:  MOVFF  01,653
0752A:  MOVFF  00,652
0752E:  MOVLB  6
07530:  CLRF   x56
07532:  MOVLW  28
07534:  MOVWF  x57
07536:  CLRF   x58
07538:  MOVLW  01
0753A:  MOVWF  x59
0753C:  MOVLB  0
0753E:  CALL   3048
....................       displayfloat(Filtro_DownFlow,0,50,0,1); 
07542:  MOVFF  535,655
07546:  MOVFF  534,654
0754A:  MOVFF  533,653
0754E:  MOVFF  532,652
07552:  MOVLB  6
07554:  CLRF   x56
07556:  MOVLW  32
07558:  MOVWF  x57
0755A:  CLRF   x58
0755C:  MOVLW  01
0755E:  MOVWF  x59
07560:  MOVLB  0
07562:  CALL   3048
....................        
....................       if(UP || BYTE_IR[2]==0X18)//Si oprime hacia arriba 
07566:  BSF    F96.0
07568:  BTFSC  F84.0
0756A:  BRA    7576
0756C:  MOVLB  6
0756E:  MOVF   x36,W
07570:  SUBLW  18
07572:  BNZ   75C0
07574:  MOVLB  0
....................       {   
....................          delay_ms(30);Ajuste2+=0.01;BYTE_IR[2]=0X00; 
07576:  MOVLW  1E
07578:  MOVLB  6
0757A:  MOVWF  x56
0757C:  MOVLB  0
0757E:  CALL   1576
07582:  BCF    FD8.1
07584:  MOVFF  561,65A
07588:  MOVFF  560,659
0758C:  MOVFF  55F,658
07590:  MOVFF  55E,657
07594:  MOVLW  0A
07596:  MOVLB  6
07598:  MOVWF  x5E
0759A:  MOVLW  D7
0759C:  MOVWF  x5D
0759E:  MOVLW  23
075A0:  MOVWF  x5C
075A2:  MOVLW  78
075A4:  MOVWF  x5B
075A6:  MOVLB  0
075A8:  CALL   1732
075AC:  MOVFF  03,561
075B0:  MOVFF  02,560
075B4:  MOVFF  01,55F
075B8:  MOVFF  00,55E
075BC:  MOVLB  6
075BE:  CLRF   x36
....................       } 
....................              
....................       if(DOWN  || BYTE_IR[2]==0X52)//Si oprime hacia abajo 
075C0:  BSF    F96.1
075C2:  BTFSC  F84.1
075C4:  BRA    75CC
075C6:  MOVF   x36,W
075C8:  SUBLW  52
075CA:  BNZ   7614
....................       {   
....................          delay_ms(30);Ajuste2-=0.01;BYTE_IR[2]=0X00; 
075CC:  MOVLW  1E
075CE:  MOVWF  x56
075D0:  MOVLB  0
075D2:  CALL   1576
075D6:  BSF    FD8.1
075D8:  MOVFF  561,65A
075DC:  MOVFF  560,659
075E0:  MOVFF  55F,658
075E4:  MOVFF  55E,657
075E8:  MOVLW  0A
075EA:  MOVLB  6
075EC:  MOVWF  x5E
075EE:  MOVLW  D7
075F0:  MOVWF  x5D
075F2:  MOVLW  23
075F4:  MOVWF  x5C
075F6:  MOVLW  78
075F8:  MOVWF  x5B
075FA:  MOVLB  0
075FC:  CALL   1732
07600:  MOVFF  03,561
07604:  MOVFF  02,560
07608:  MOVFF  01,55F
0760C:  MOVFF  00,55E
07610:  MOVLB  6
07612:  CLRF   x36
....................       } 
....................              
....................       if(RIGHT || BYTE_IR[2]==0X5A)//Si oprime SET 
07614:  BSF    F96.2
07616:  BTFSC  F84.2
07618:  BRA    7620
0761A:  MOVF   x36,W
0761C:  SUBLW  5A
0761E:  BNZ   76BC
....................       {   
....................          BYTE_IR[2]=0X00; 
07620:  CLRF   x36
....................          G=Filtro_Downflow_adc; 
07622:  MOVFF  4F7,654
07626:  MOVFF  4F6,653
0762A:  MOVLB  0
0762C:  CALL   159E
07630:  MOVFF  03,5D5
07634:  MOVFF  02,5D4
07638:  MOVFF  01,5D3
0763C:  MOVFF  00,5D2
....................          G16=(int16)G; 
07640:  MOVFF  5D5,651
07644:  MOVFF  5D4,650
07648:  MOVFF  5D3,64F
0764C:  MOVFF  5D2,64E
07650:  CALL   334E
07654:  MOVFF  02,501
07658:  MOVFF  01,500
....................          G_l=G16; G_h=(G16>>8); 
0765C:  MOVFF  500,4E5
07660:  MOVFF  501,4E6
....................              
....................          write_eeprom(62,G_l);write_eeprom(63,G_h);//Guardar valor de Setpoint en eeprom 
07664:  CLRF   FAA
07666:  MOVLW  3E
07668:  MOVWF  FA9
0766A:  MOVFF  4E5,FA8
0766E:  BCF    FA6.6
07670:  BCF    FA6.7
07672:  BSF    FA6.2
07674:  MOVF   FF2,W
07676:  MOVWF  00
07678:  BCF    FF2.7
0767A:  MOVLB  F
0767C:  MOVLW  55
0767E:  MOVWF  FA7
07680:  MOVLW  AA
07682:  MOVWF  FA7
07684:  BSF    FA6.1
07686:  BTFSC  FA6.1
07688:  BRA    7686
0768A:  BCF    FA6.2
0768C:  MOVF   00,W
0768E:  IORWF  FF2,F
07690:  CLRF   FAA
07692:  MOVLW  3F
07694:  MOVWF  FA9
07696:  MOVFF  4E6,FA8
0769A:  BCF    FA6.6
0769C:  BCF    FA6.7
0769E:  BSF    FA6.2
076A0:  MOVF   FF2,W
076A2:  MOVWF  00
076A4:  BCF    FF2.7
076A6:  MOVLW  55
076A8:  MOVWF  FA7
076AA:  MOVLW  AA
076AC:  MOVWF  FA7
076AE:  BSF    FA6.1
076B0:  BTFSC  FA6.1
076B2:  BRA    76B0
076B4:  BCF    FA6.2
076B6:  MOVF   00,W
076B8:  IORWF  FF2,F
....................       } 
....................          else 
076BA:  BRA    76C2
....................             {Flanco1 = 0;}   
076BC:  MOVLB  4
076BE:  BCF    x1F.1
076C0:  MOVLB  F
....................              
....................       if(LEFT || BYTE_IR[2]==0X08)//Si oprime boton de Toma. 
076C2:  BSF    F94.0
076C4:  BTFSC  F82.0
076C6:  BRA    76D4
076C8:  MOVLB  6
076CA:  MOVF   x36,W
076CC:  SUBLW  08
076CE:  BTFSS  FD8.2
076D0:  BRA    7814
076D2:  MOVLB  F
....................       {          
....................          BYTE_IR[2]=0X00; 
076D4:  MOVLB  6
076D6:  CLRF   x36
....................          delay_ms(700);Menu=3;glcd_fillscreen(OFF);Opcion=1; 
076D8:  MOVLW  04
076DA:  MOVWF  x4E
076DC:  MOVLW  AF
076DE:  MOVWF  x56
076E0:  MOVLB  0
076E2:  CALL   1576
076E6:  MOVLB  6
076E8:  DECFSZ x4E,F
076EA:  BRA    76DC
076EC:  MOVLW  03
076EE:  MOVLB  4
076F0:  MOVWF  xE0
076F2:  MOVLB  6
076F4:  CLRF   x4F
076F6:  MOVLB  0
076F8:  CALL   225C
076FC:  MOVLW  01
076FE:  MOVLB  4
07700:  MOVWF  xE2
....................          Temporal=Ajuste2; 
07702:  MOVFF  561,569
07706:  MOVFF  560,568
0770A:  MOVFF  55F,567
0770E:  MOVFF  55E,566
....................          Entero=(int)Ajuste2; 
07712:  MOVFF  561,651
07716:  MOVFF  560,650
0771A:  MOVFF  55F,64F
0771E:  MOVFF  55E,64E
07722:  MOVLB  0
07724:  CALL   334E
07728:  MOVFF  01,4EC
....................          Temporal=Temporal-Entero; 
0772C:  MOVLB  6
0772E:  CLRF   x54
07730:  MOVFF  4EC,653
07734:  MOVLB  0
07736:  CALL   159E
0773A:  BSF    FD8.1
0773C:  MOVFF  569,65A
07740:  MOVFF  568,659
07744:  MOVFF  567,658
07748:  MOVFF  566,657
0774C:  MOVFF  03,65E
07750:  MOVFF  02,65D
07754:  MOVFF  01,65C
07758:  MOVFF  00,65B
0775C:  CALL   1732
07760:  MOVFF  03,569
07764:  MOVFF  02,568
07768:  MOVFF  01,567
0776C:  MOVFF  00,566
....................          Temporal2=Temporal*100.0; 
07770:  MOVFF  569,673
07774:  MOVFF  568,672
07778:  MOVFF  567,671
0777C:  MOVFF  566,670
07780:  MOVLB  6
07782:  CLRF   x77
07784:  CLRF   x76
07786:  MOVLW  48
07788:  MOVWF  x75
0778A:  MOVLW  85
0778C:  MOVWF  x74
0778E:  MOVLB  0
07790:  CALL   1B36
07794:  MOVFF  03,56D
07798:  MOVFF  02,56C
0779C:  MOVFF  01,56B
077A0:  MOVFF  00,56A
....................          Decimal1=(int8)Temporal2; 
077A4:  MOVFF  56D,651
077A8:  MOVFF  56C,650
077AC:  MOVFF  56B,64F
077B0:  MOVFF  56A,64E
077B4:  CALL   334E
077B8:  MOVFF  01,4ED
....................          write_eeprom(27,Entero);write_eeprom(28,Decimal1); 
077BC:  CLRF   FAA
077BE:  MOVLW  1B
077C0:  MOVWF  FA9
077C2:  MOVFF  4EC,FA8
077C6:  BCF    FA6.6
077C8:  BCF    FA6.7
077CA:  BSF    FA6.2
077CC:  MOVF   FF2,W
077CE:  MOVWF  00
077D0:  BCF    FF2.7
077D2:  MOVLB  F
077D4:  MOVLW  55
077D6:  MOVWF  FA7
077D8:  MOVLW  AA
077DA:  MOVWF  FA7
077DC:  BSF    FA6.1
077DE:  BTFSC  FA6.1
077E0:  BRA    77DE
077E2:  BCF    FA6.2
077E4:  MOVF   00,W
077E6:  IORWF  FF2,F
077E8:  CLRF   FAA
077EA:  MOVLW  1C
077EC:  MOVWF  FA9
077EE:  MOVFF  4ED,FA8
077F2:  BCF    FA6.6
077F4:  BCF    FA6.7
077F6:  BSF    FA6.2
077F8:  MOVF   FF2,W
077FA:  MOVWF  00
077FC:  BCF    FF2.7
077FE:  MOVLW  55
07800:  MOVWF  FA7
07802:  MOVLW  AA
07804:  MOVWF  FA7
07806:  BSF    FA6.1
07808:  BTFSC  FA6.1
0780A:  BRA    7808
0780C:  BCF    FA6.2
0780E:  MOVF   00,W
07810:  IORWF  FF2,F
07812:  MOVLB  6
07814:  MOVLB  4
....................       } 
....................     } 
.................... //_--------------------------------------------------------------------------------------------------------------------------------------------------------        
....................  
....................  
....................  
.................... //_-------------------------------------------------------------------------------------------------------------------------------------------------------- 
....................       if(Menu==5){ //Menu de Clave. 
07816:  MOVF   xE0,W
07818:  SUBLW  05
0781A:  BTFSS  FD8.2
0781C:  BRA    7C4C
....................        
....................        
....................       displayContrasena(Contrasena[0],20,30,1);displayContrasena(Contrasena[1],40,30,0); 
0781E:  MOVFF  522,650
07822:  MOVLW  14
07824:  MOVLB  6
07826:  MOVWF  x51
07828:  MOVLW  1E
0782A:  MOVWF  x52
0782C:  MOVLW  01
0782E:  MOVWF  x53
07830:  MOVLB  0
07832:  CALL   2912
07836:  MOVFF  523,650
0783A:  MOVLW  28
0783C:  MOVLB  6
0783E:  MOVWF  x51
07840:  MOVLW  1E
07842:  MOVWF  x52
07844:  CLRF   x53
07846:  MOVLB  0
07848:  CALL   2912
....................       displayContrasena(Contrasena[2],60,30,0);displayContrasena(Contrasena[0],80,30,0); 
0784C:  MOVFF  524,650
07850:  MOVLW  3C
07852:  MOVLB  6
07854:  MOVWF  x51
07856:  MOVLW  1E
07858:  MOVWF  x52
0785A:  CLRF   x53
0785C:  MOVLB  0
0785E:  CALL   2912
07862:  MOVFF  522,650
07866:  MOVLW  50
07868:  MOVLB  6
0786A:  MOVWF  x51
0786C:  MOVLW  1E
0786E:  MOVWF  x52
07870:  CLRF   x53
07872:  MOVLB  0
07874:  CALL   2912
....................       strcpy(Menus.Letra,"Clave"); 
07878:  MOVLW  06
0787A:  MOVWF  FEA
0787C:  MOVLW  38
0787E:  MOVWF  FE9
07880:  MOVFF  FF2,64E
07884:  BCF    FF2.7
07886:  MOVLW  00
07888:  CALL   0F16
0788C:  TBLRD*-
0788E:  TBLRD*+
07890:  MOVF   FF5,W
07892:  MOVWF  FEE
07894:  IORLW  00
07896:  BNZ   788E
07898:  MOVLB  6
0789A:  BTFSC  x4E.7
0789C:  BSF    FF2.7
....................       displayMenu(Menus.Letra,20,0,1,3); 
0789E:  MOVLW  06
078A0:  MOVWF  x4F
078A2:  MOVLW  38
078A4:  MOVWF  x4E
078A6:  MOVLW  14
078A8:  MOVWF  x50
078AA:  CLRF   x51
078AC:  MOVLW  01
078AE:  MOVWF  x52
078B0:  MOVLW  03
078B2:  MOVWF  x53
078B4:  MOVLB  0
078B6:  CALL   29C8
....................          
....................       if(UP || BYTE_IR[2]==0X18)//Si oprime hacia arriba 
078BA:  BSF    F96.0
078BC:  BTFSC  F84.0
078BE:  BRA    78C8
078C0:  MOVLB  6
078C2:  MOVF   x36,W
078C4:  SUBLW  18
078C6:  BNZ   79A2
....................       {  if(Flanco == 0)  
078C8:  MOVLB  4
078CA:  BTFSC  x1F.0
078CC:  BRA    79A0
....................             {Flanco = 1;delay_ms(30);BYTE_IR[2]=0X00; 
078CE:  BSF    x1F.0
078D0:  MOVLW  1E
078D2:  MOVLB  6
078D4:  MOVWF  x56
078D6:  MOVLB  0
078D8:  CALL   1576
078DC:  MOVLB  6
078DE:  CLRF   x36
....................             for(i=1;i<=4;i++) 
078E0:  MOVLW  01
078E2:  MOVLB  4
078E4:  MOVWF  x19
078E6:  MOVF   x19,W
078E8:  SUBLW  04
078EA:  BNC   79A0
....................                { 
....................                   if(unidad==i) 
078EC:  MOVF   x19,W
078EE:  SUBWF  xE1,W
078F0:  BNZ   7968
....................                   {Contrasena[i-1]++; 
078F2:  MOVLW  01
078F4:  SUBWF  x19,W
078F6:  CLRF   03
078F8:  ADDLW  22
078FA:  MOVWF  FE9
078FC:  MOVLW  05
078FE:  ADDWFC 03,W
07900:  MOVWF  FEA
07902:  INCF   FEF,F
....................                   if(Contrasena[i-1]>9) 
07904:  MOVLW  01
07906:  SUBWF  x19,W
07908:  CLRF   03
0790A:  ADDLW  22
0790C:  MOVWF  FE9
0790E:  MOVLW  05
07910:  ADDWFC 03,W
07912:  MOVWF  FEA
07914:  BTFSC  FEF.7
07916:  BRA    7930
07918:  MOVF   FEF,W
0791A:  SUBLW  09
0791C:  BC    7930
....................                         {Contrasena[i-1]=0;} 
0791E:  MOVLW  01
07920:  SUBWF  x19,W
07922:  CLRF   03
07924:  ADDLW  22
07926:  MOVWF  FE9
07928:  MOVLW  05
0792A:  ADDWFC 03,W
0792C:  MOVWF  FEA
0792E:  CLRF   FEF
....................                   displayContrasena(Contrasena[i-1],i*20,30,1);} 
07930:  MOVLW  01
07932:  SUBWF  x19,W
07934:  CLRF   03
07936:  ADDLW  22
07938:  MOVWF  FE9
0793A:  MOVLW  05
0793C:  ADDWFC 03,W
0793E:  MOVWF  FEA
07940:  MOVFF  FEF,64E
07944:  MOVF   x19,W
07946:  MULLW  14
07948:  MOVFF  FF3,64F
0794C:  MOVLB  6
0794E:  MOVFF  64E,650
07952:  MOVFF  64F,651
07956:  MOVLW  1E
07958:  MOVWF  x52
0795A:  MOVLW  01
0795C:  MOVWF  x53
0795E:  MOVLB  0
07960:  CALL   2912
....................                   else 
07964:  BRA    799A
07966:  MOVLB  4
....................                   {displayContrasena(Contrasena[i-1],i*20,30,0);} 
07968:  MOVLW  01
0796A:  SUBWF  x19,W
0796C:  CLRF   03
0796E:  ADDLW  22
07970:  MOVWF  FE9
07972:  MOVLW  05
07974:  ADDWFC 03,W
07976:  MOVWF  FEA
07978:  MOVFF  FEF,64E
0797C:  MOVF   x19,W
0797E:  MULLW  14
07980:  MOVFF  FF3,64F
07984:  MOVLB  6
07986:  MOVFF  64E,650
0798A:  MOVFF  64F,651
0798E:  MOVLW  1E
07990:  MOVWF  x52
07992:  CLRF   x53
07994:  MOVLB  0
07996:  CALL   2912
....................                } 
0799A:  MOVLB  4
0799C:  INCF   x19,F
0799E:  BRA    78E6
....................             } 
....................       } 
....................          else 
079A0:  BRA    79A6
....................             {Flanco = 0;} 
079A2:  MOVLB  4
079A4:  BCF    x1F.0
....................              
....................       if(DOWN  || BYTE_IR[2]==0X52)//Si oprime hacia abajo 
079A6:  BSF    F96.1
079A8:  BTFSC  F84.1
079AA:  BRA    79B6
079AC:  MOVLB  6
079AE:  MOVF   x36,W
079B0:  SUBLW  52
079B2:  BNZ   7A8C
079B4:  MOVLB  4
....................       {  if(Flanco2 == 0)  
079B6:  BTFSC  x1F.2
079B8:  BRA    7A8A
....................             {Flanco2 = 1;delay_ms(30);BYTE_IR[2]=0X00; 
079BA:  BSF    x1F.2
079BC:  MOVLW  1E
079BE:  MOVLB  6
079C0:  MOVWF  x56
079C2:  MOVLB  0
079C4:  CALL   1576
079C8:  MOVLB  6
079CA:  CLRF   x36
....................                for(i=1;i<=4;i++) 
079CC:  MOVLW  01
079CE:  MOVLB  4
079D0:  MOVWF  x19
079D2:  MOVF   x19,W
079D4:  SUBLW  04
079D6:  BNC   7A8A
....................                { 
....................                   if(unidad==i) 
079D8:  MOVF   x19,W
079DA:  SUBWF  xE1,W
079DC:  BNZ   7A52
....................                   {Contrasena[i-1]--;  
079DE:  MOVLW  01
079E0:  SUBWF  x19,W
079E2:  CLRF   03
079E4:  ADDLW  22
079E6:  MOVWF  FE9
079E8:  MOVLW  05
079EA:  ADDWFC 03,W
079EC:  MOVWF  FEA
079EE:  DECF   FEF,F
....................                      if(Contrasena[i-1]<0) 
079F0:  MOVLW  01
079F2:  SUBWF  x19,W
079F4:  CLRF   03
079F6:  ADDLW  22
079F8:  MOVWF  FE9
079FA:  MOVLW  05
079FC:  ADDWFC 03,W
079FE:  MOVWF  FEA
07A00:  BTFSC  FEF.7
07A02:  BRA    7A06
07A04:  BRA    7A1A
....................                         {Contrasena[i-1]=9;} 
07A06:  MOVLW  01
07A08:  SUBWF  x19,W
07A0A:  CLRF   03
07A0C:  ADDLW  22
07A0E:  MOVWF  FE9
07A10:  MOVLW  05
07A12:  ADDWFC 03,W
07A14:  MOVWF  FEA
07A16:  MOVLW  09
07A18:  MOVWF  FEF
....................                    displayContrasena(Contrasena[i-1],i*20,30,1);} 
07A1A:  MOVLW  01
07A1C:  SUBWF  x19,W
07A1E:  CLRF   03
07A20:  ADDLW  22
07A22:  MOVWF  FE9
07A24:  MOVLW  05
07A26:  ADDWFC 03,W
07A28:  MOVWF  FEA
07A2A:  MOVFF  FEF,64E
07A2E:  MOVF   x19,W
07A30:  MULLW  14
07A32:  MOVFF  FF3,64F
07A36:  MOVLB  6
07A38:  MOVFF  64E,650
07A3C:  MOVFF  64F,651
07A40:  MOVLW  1E
07A42:  MOVWF  x52
07A44:  MOVLW  01
07A46:  MOVWF  x53
07A48:  MOVLB  0
07A4A:  CALL   2912
....................                   else 
07A4E:  BRA    7A84
07A50:  MOVLB  4
....................                   {displayContrasena(Contrasena[i-1],i*20,30,0);} 
07A52:  MOVLW  01
07A54:  SUBWF  x19,W
07A56:  CLRF   03
07A58:  ADDLW  22
07A5A:  MOVWF  FE9
07A5C:  MOVLW  05
07A5E:  ADDWFC 03,W
07A60:  MOVWF  FEA
07A62:  MOVFF  FEF,64E
07A66:  MOVF   x19,W
07A68:  MULLW  14
07A6A:  MOVFF  FF3,64F
07A6E:  MOVLB  6
07A70:  MOVFF  64E,650
07A74:  MOVFF  64F,651
07A78:  MOVLW  1E
07A7A:  MOVWF  x52
07A7C:  CLRF   x53
07A7E:  MOVLB  0
07A80:  CALL   2912
....................                }       
07A84:  MOVLB  4
07A86:  INCF   x19,F
07A88:  BRA    79D2
....................             }      
....................       } 
....................          else 
07A8A:  BRA    7A90
....................             {Flanco2 = 0;}   
07A8C:  MOVLB  4
07A8E:  BCF    x1F.2
....................              
....................       if(RIGHT || BYTE_IR[2]==0X5A)//Si oprime SET 
07A90:  BSF    F96.2
07A92:  BTFSC  F84.2
07A94:  BRA    7AA0
07A96:  MOVLB  6
07A98:  MOVF   x36,W
07A9A:  SUBLW  5A
07A9C:  BNZ   7B3E
07A9E:  MOVLB  4
....................       {  if(Flanco1 == 0)  
07AA0:  BTFSC  x1F.1
07AA2:  BRA    7B3C
....................             {Flanco1 = 1;delay_ms(30);unidad++;BYTE_IR[2]=0X00; 
07AA4:  BSF    x1F.1
07AA6:  MOVLW  1E
07AA8:  MOVLB  6
07AAA:  MOVWF  x56
07AAC:  MOVLB  0
07AAE:  CALL   1576
07AB2:  MOVLB  4
07AB4:  INCF   xE1,F
07AB6:  MOVLB  6
07AB8:  CLRF   x36
....................                for(i=1;i<=4;i++) 
07ABA:  MOVLW  01
07ABC:  MOVLB  4
07ABE:  MOVWF  x19
07AC0:  MOVF   x19,W
07AC2:  SUBLW  04
07AC4:  BNC   7B3C
....................                { 
....................                   if(unidad==i) 
07AC6:  MOVF   x19,W
07AC8:  SUBWF  xE1,W
07ACA:  BNZ   7B04
....................                   {displayContrasena(Contrasena[i-1],i*20,30,1);} 
07ACC:  MOVLW  01
07ACE:  SUBWF  x19,W
07AD0:  CLRF   03
07AD2:  ADDLW  22
07AD4:  MOVWF  FE9
07AD6:  MOVLW  05
07AD8:  ADDWFC 03,W
07ADA:  MOVWF  FEA
07ADC:  MOVFF  FEF,64E
07AE0:  MOVF   x19,W
07AE2:  MULLW  14
07AE4:  MOVFF  FF3,64F
07AE8:  MOVLB  6
07AEA:  MOVFF  64E,650
07AEE:  MOVFF  64F,651
07AF2:  MOVLW  1E
07AF4:  MOVWF  x52
07AF6:  MOVLW  01
07AF8:  MOVWF  x53
07AFA:  MOVLB  0
07AFC:  CALL   2912
....................                   else 
07B00:  BRA    7B36
07B02:  MOVLB  4
....................                   {displayContrasena(Contrasena[i-1],i*20,30,0);} 
07B04:  MOVLW  01
07B06:  SUBWF  x19,W
07B08:  CLRF   03
07B0A:  ADDLW  22
07B0C:  MOVWF  FE9
07B0E:  MOVLW  05
07B10:  ADDWFC 03,W
07B12:  MOVWF  FEA
07B14:  MOVFF  FEF,64E
07B18:  MOVF   x19,W
07B1A:  MULLW  14
07B1C:  MOVFF  FF3,64F
07B20:  MOVLB  6
07B22:  MOVFF  64E,650
07B26:  MOVFF  64F,651
07B2A:  MOVLW  1E
07B2C:  MOVWF  x52
07B2E:  CLRF   x53
07B30:  MOVLB  0
07B32:  CALL   2912
....................                } 
07B36:  MOVLB  4
07B38:  INCF   x19,F
07B3A:  BRA    7AC0
....................             } 
....................       } 
....................          else 
07B3C:  BRA    7B42
....................             {Flanco1 = 0;}   
07B3E:  MOVLB  4
07B40:  BCF    x1F.1
....................              
....................       if(LEFT || BYTE_IR[2]==0X08)//Si oprime boton de Toma. 
07B42:  BSF    F94.0
07B44:  BTFSC  F82.0
07B46:  BRA    7B52
07B48:  MOVLB  6
07B4A:  MOVF   x36,W
07B4C:  SUBLW  08
07B4E:  BNZ   7B90
07B50:  MOVLB  4
....................       { 
....................          BYTE_IR[2]=0X00; 
07B52:  MOVLB  6
07B54:  CLRF   x36
....................          delay_ms(700); 
07B56:  MOVLW  04
07B58:  MOVWF  x4E
07B5A:  MOVLW  AF
07B5C:  MOVWF  x56
07B5E:  MOVLB  0
07B60:  CALL   1576
07B64:  MOVLB  6
07B66:  DECFSZ x4E,F
07B68:  BRA    7B5A
....................          if(unidad==1) 
07B6A:  MOVLB  4
07B6C:  DECFSZ xE1,W
07B6E:  BRA    7B82
....................          { 
....................             Menu=3;glcd_fillscreen(OFF); 
07B70:  MOVLW  03
07B72:  MOVWF  xE0
07B74:  MOVLB  6
07B76:  CLRF   x4F
07B78:  MOVLB  0
07B7A:  CALL   225C
....................          } 
....................          else 
07B7E:  BRA    7B90
07B80:  MOVLB  4
....................          { 
....................             Menu=3;glcd_fillscreen(OFF); 
07B82:  MOVLW  03
07B84:  MOVWF  xE0
07B86:  MOVLB  6
07B88:  CLRF   x4F
07B8A:  MOVLB  0
07B8C:  CALL   225C
....................          } 
....................       } 
....................              
....................       if(unidad>4) 
07B90:  MOVLB  4
07B92:  MOVF   xE1,W
07B94:  SUBLW  04
07B96:  BC    7C4C
....................       {Opcion=1;glcd_fillscreen(OFF);unidad=1;n=0; 
07B98:  MOVLW  01
07B9A:  MOVWF  xE2
07B9C:  MOVLB  6
07B9E:  CLRF   x4F
07BA0:  MOVLB  0
07BA2:  CALL   225C
07BA6:  MOVLW  01
07BA8:  MOVLB  4
07BAA:  MOVWF  xE1
07BAC:  BCF    x21.7
....................          if((Contrasena[0]==Password[0])&&(Contrasena[1]==Password[1])&&(Contrasena[2]==Password[2])&&(Contrasena[3]==Password[3])) 
07BAE:  MOVLB  5
07BB0:  MOVF   x26,W
07BB2:  SUBWF  x22,W
07BB4:  BNZ   7C08
07BB6:  MOVF   x27,W
07BB8:  SUBWF  x23,W
07BBA:  BNZ   7C08
07BBC:  MOVF   x28,W
07BBE:  SUBWF  x24,W
07BC0:  BNZ   7C08
07BC2:  MOVF   x29,W
07BC4:  SUBWF  x25,W
07BC6:  BNZ   7C08
....................          {glcd_imagen(1);glcd_update();Menu=211;delay_ms(1000);glcd_fillScreen(OFF);Password[0]=0;Password[1]=0;Password[2]=0;Password[3]=0;} 
07BC8:  MOVLW  01
07BCA:  MOVLB  6
07BCC:  MOVWF  x4E
07BCE:  MOVLB  0
07BD0:  CALL   3150
07BD4:  CALL   1A42
07BD8:  MOVLW  D3
07BDA:  MOVLB  4
07BDC:  MOVWF  xE0
07BDE:  MOVLW  04
07BE0:  MOVLB  6
07BE2:  MOVWF  x4E
07BE4:  MOVLW  FA
07BE6:  MOVWF  x56
07BE8:  MOVLB  0
07BEA:  CALL   1576
07BEE:  MOVLB  6
07BF0:  DECFSZ x4E,F
07BF2:  BRA    7BE4
07BF4:  CLRF   x4F
07BF6:  MOVLB  0
07BF8:  CALL   225C
07BFC:  MOVLB  5
07BFE:  CLRF   x26
07C00:  CLRF   x27
07C02:  CLRF   x28
07C04:  CLRF   x29
....................          else 
07C06:  BRA    7C4A
....................          {glcd_imagen(2);glcd_update();Menu=3;delay_ms(1000);Contrasena[0]=0;Contrasena[1]=0;Contrasena[2]=0;Contrasena[3]=0;glcd_fillScreen(OFF);}   
07C08:  MOVLW  02
07C0A:  MOVLB  6
07C0C:  MOVWF  x4E
07C0E:  MOVLB  0
07C10:  CALL   3150
07C14:  CALL   1A42
07C18:  MOVLW  03
07C1A:  MOVLB  4
07C1C:  MOVWF  xE0
07C1E:  MOVLW  04
07C20:  MOVLB  6
07C22:  MOVWF  x4E
07C24:  MOVLW  FA
07C26:  MOVWF  x56
07C28:  MOVLB  0
07C2A:  CALL   1576
07C2E:  MOVLB  6
07C30:  DECFSZ x4E,F
07C32:  BRA    7C24
07C34:  MOVLB  5
07C36:  CLRF   x22
07C38:  CLRF   x23
07C3A:  CLRF   x24
07C3C:  CLRF   x25
07C3E:  MOVLB  6
07C40:  CLRF   x4F
07C42:  MOVLB  0
07C44:  CALL   225C
07C48:  MOVLB  5
07C4A:  MOVLB  4
....................       } 
....................      
....................     } 
.................... //_--------------------------------------------------------------------------------------------------------------------------------------------------------        
....................  
.................... //_-------------------------------------------------------------------------------------------------------------------------------------------------------- 
....................       if(Menu==211){ //Menu de Cambio Clave. 
07C4C:  MOVF   xE0,W
07C4E:  SUBLW  D3
07C50:  BTFSS  FD8.2
07C52:  BRA    8080
....................        
....................       if(n==0) 
07C54:  BTFSC  x21.7
07C56:  BRA    7CB6
....................       {displayContrasena(Password[0],20,30,1);displayContrasena(Password[1],40,30,0); 
07C58:  MOVFF  526,650
07C5C:  MOVLW  14
07C5E:  MOVLB  6
07C60:  MOVWF  x51
07C62:  MOVLW  1E
07C64:  MOVWF  x52
07C66:  MOVLW  01
07C68:  MOVWF  x53
07C6A:  MOVLB  0
07C6C:  CALL   2912
07C70:  MOVFF  527,650
07C74:  MOVLW  28
07C76:  MOVLB  6
07C78:  MOVWF  x51
07C7A:  MOVLW  1E
07C7C:  MOVWF  x52
07C7E:  CLRF   x53
07C80:  MOVLB  0
07C82:  CALL   2912
....................       displayContrasena(Password[2],60,30,0);displayContrasena(Password[3],80,30,0);n++;} 
07C86:  MOVFF  528,650
07C8A:  MOVLW  3C
07C8C:  MOVLB  6
07C8E:  MOVWF  x51
07C90:  MOVLW  1E
07C92:  MOVWF  x52
07C94:  CLRF   x53
07C96:  MOVLB  0
07C98:  CALL   2912
07C9C:  MOVFF  529,650
07CA0:  MOVLW  50
07CA2:  MOVLB  6
07CA4:  MOVWF  x51
07CA6:  MOVLW  1E
07CA8:  MOVWF  x52
07CAA:  CLRF   x53
07CAC:  MOVLB  0
07CAE:  CALL   2912
07CB2:  MOVLB  4
07CB4:  BTG    x21.7
....................       strcpy(Menus.Letra,"Clave Nueva"); 
07CB6:  MOVLW  06
07CB8:  MOVWF  FEA
07CBA:  MOVLW  38
07CBC:  MOVWF  FE9
07CBE:  MOVFF  FF2,64E
07CC2:  BCF    FF2.7
07CC4:  MOVLW  00
07CC6:  MOVLB  0
07CC8:  CALL   11A6
07CCC:  TBLRD*-
07CCE:  TBLRD*+
07CD0:  MOVF   FF5,W
07CD2:  MOVWF  FEE
07CD4:  IORLW  00
07CD6:  BNZ   7CCE
07CD8:  MOVLB  6
07CDA:  BTFSC  x4E.7
07CDC:  BSF    FF2.7
....................       displayMenu(Menus.Letra,0,0,1,2); 
07CDE:  MOVLW  06
07CE0:  MOVWF  x4F
07CE2:  MOVLW  38
07CE4:  MOVWF  x4E
07CE6:  CLRF   x50
07CE8:  CLRF   x51
07CEA:  MOVLW  01
07CEC:  MOVWF  x52
07CEE:  MOVLW  02
07CF0:  MOVWF  x53
07CF2:  MOVLB  0
07CF4:  CALL   29C8
....................          
....................       if(UP || BYTE_IR[2]==0X18)//Si oprime hacia arriba 
07CF8:  BSF    F96.0
07CFA:  BTFSC  F84.0
07CFC:  BRA    7D06
07CFE:  MOVLB  6
07D00:  MOVF   x36,W
07D02:  SUBLW  18
07D04:  BNZ   7DE0
....................       {  if(Flanco == 0)  
07D06:  MOVLB  4
07D08:  BTFSC  x1F.0
07D0A:  BRA    7DDE
....................             {Flanco = 1;delay_ms(30);BYTE_IR[2]=0X00; 
07D0C:  BSF    x1F.0
07D0E:  MOVLW  1E
07D10:  MOVLB  6
07D12:  MOVWF  x56
07D14:  MOVLB  0
07D16:  CALL   1576
07D1A:  MOVLB  6
07D1C:  CLRF   x36
....................             for(i=1;i<=4;i++) 
07D1E:  MOVLW  01
07D20:  MOVLB  4
07D22:  MOVWF  x19
07D24:  MOVF   x19,W
07D26:  SUBLW  04
07D28:  BNC   7DDE
....................                { 
....................                   if(unidad==i) 
07D2A:  MOVF   x19,W
07D2C:  SUBWF  xE1,W
07D2E:  BNZ   7DA6
....................                   {Password[i-1]++; 
07D30:  MOVLW  01
07D32:  SUBWF  x19,W
07D34:  CLRF   03
07D36:  ADDLW  26
07D38:  MOVWF  FE9
07D3A:  MOVLW  05
07D3C:  ADDWFC 03,W
07D3E:  MOVWF  FEA
07D40:  INCF   FEF,F
....................                   if(Password[i-1]>9) 
07D42:  MOVLW  01
07D44:  SUBWF  x19,W
07D46:  CLRF   03
07D48:  ADDLW  26
07D4A:  MOVWF  FE9
07D4C:  MOVLW  05
07D4E:  ADDWFC 03,W
07D50:  MOVWF  FEA
07D52:  BTFSC  FEF.7
07D54:  BRA    7D6E
07D56:  MOVF   FEF,W
07D58:  SUBLW  09
07D5A:  BC    7D6E
....................                         {Password[i-1]=0;} 
07D5C:  MOVLW  01
07D5E:  SUBWF  x19,W
07D60:  CLRF   03
07D62:  ADDLW  26
07D64:  MOVWF  FE9
07D66:  MOVLW  05
07D68:  ADDWFC 03,W
07D6A:  MOVWF  FEA
07D6C:  CLRF   FEF
....................                   displayContrasena(Password[i-1],i*20,30,1);} 
07D6E:  MOVLW  01
07D70:  SUBWF  x19,W
07D72:  CLRF   03
07D74:  ADDLW  26
07D76:  MOVWF  FE9
07D78:  MOVLW  05
07D7A:  ADDWFC 03,W
07D7C:  MOVWF  FEA
07D7E:  MOVFF  FEF,64E
07D82:  MOVF   x19,W
07D84:  MULLW  14
07D86:  MOVFF  FF3,64F
07D8A:  MOVLB  6
07D8C:  MOVFF  64E,650
07D90:  MOVFF  64F,651
07D94:  MOVLW  1E
07D96:  MOVWF  x52
07D98:  MOVLW  01
07D9A:  MOVWF  x53
07D9C:  MOVLB  0
07D9E:  CALL   2912
....................                   else 
07DA2:  BRA    7DD8
07DA4:  MOVLB  4
....................                   {displayContrasena(Password[i-1],i*20,30,0);} 
07DA6:  MOVLW  01
07DA8:  SUBWF  x19,W
07DAA:  CLRF   03
07DAC:  ADDLW  26
07DAE:  MOVWF  FE9
07DB0:  MOVLW  05
07DB2:  ADDWFC 03,W
07DB4:  MOVWF  FEA
07DB6:  MOVFF  FEF,64E
07DBA:  MOVF   x19,W
07DBC:  MULLW  14
07DBE:  MOVFF  FF3,64F
07DC2:  MOVLB  6
07DC4:  MOVFF  64E,650
07DC8:  MOVFF  64F,651
07DCC:  MOVLW  1E
07DCE:  MOVWF  x52
07DD0:  CLRF   x53
07DD2:  MOVLB  0
07DD4:  CALL   2912
....................                } 
07DD8:  MOVLB  4
07DDA:  INCF   x19,F
07DDC:  BRA    7D24
....................             } 
....................       } 
....................          else 
07DDE:  BRA    7DE4
....................             {Flanco = 0;} 
07DE0:  MOVLB  4
07DE2:  BCF    x1F.0
....................              
....................       if(DOWN  || BYTE_IR[2]==0X52)//Si oprime hacia abajo 
07DE4:  BSF    F96.1
07DE6:  BTFSC  F84.1
07DE8:  BRA    7DF4
07DEA:  MOVLB  6
07DEC:  MOVF   x36,W
07DEE:  SUBLW  52
07DF0:  BNZ   7ECA
07DF2:  MOVLB  4
....................       {  if(Flanco2 == 0)  
07DF4:  BTFSC  x1F.2
07DF6:  BRA    7EC8
....................             {Flanco2 = 1;delay_ms(30);BYTE_IR[2]=0X00; 
07DF8:  BSF    x1F.2
07DFA:  MOVLW  1E
07DFC:  MOVLB  6
07DFE:  MOVWF  x56
07E00:  MOVLB  0
07E02:  CALL   1576
07E06:  MOVLB  6
07E08:  CLRF   x36
....................                for(i=1;i<=4;i++) 
07E0A:  MOVLW  01
07E0C:  MOVLB  4
07E0E:  MOVWF  x19
07E10:  MOVF   x19,W
07E12:  SUBLW  04
07E14:  BNC   7EC8
....................                { 
....................                   if(unidad==i) 
07E16:  MOVF   x19,W
07E18:  SUBWF  xE1,W
07E1A:  BNZ   7E90
....................                   {Password[i-1]--;  
07E1C:  MOVLW  01
07E1E:  SUBWF  x19,W
07E20:  CLRF   03
07E22:  ADDLW  26
07E24:  MOVWF  FE9
07E26:  MOVLW  05
07E28:  ADDWFC 03,W
07E2A:  MOVWF  FEA
07E2C:  DECF   FEF,F
....................                      if(Password[i-1]<0) 
07E2E:  MOVLW  01
07E30:  SUBWF  x19,W
07E32:  CLRF   03
07E34:  ADDLW  26
07E36:  MOVWF  FE9
07E38:  MOVLW  05
07E3A:  ADDWFC 03,W
07E3C:  MOVWF  FEA
07E3E:  BTFSC  FEF.7
07E40:  BRA    7E44
07E42:  BRA    7E58
....................                         {Password[i-1]=9;} 
07E44:  MOVLW  01
07E46:  SUBWF  x19,W
07E48:  CLRF   03
07E4A:  ADDLW  26
07E4C:  MOVWF  FE9
07E4E:  MOVLW  05
07E50:  ADDWFC 03,W
07E52:  MOVWF  FEA
07E54:  MOVLW  09
07E56:  MOVWF  FEF
....................                    displayContrasena(Password[i-1],i*20,30,1);} 
07E58:  MOVLW  01
07E5A:  SUBWF  x19,W
07E5C:  CLRF   03
07E5E:  ADDLW  26
07E60:  MOVWF  FE9
07E62:  MOVLW  05
07E64:  ADDWFC 03,W
07E66:  MOVWF  FEA
07E68:  MOVFF  FEF,64E
07E6C:  MOVF   x19,W
07E6E:  MULLW  14
07E70:  MOVFF  FF3,64F
07E74:  MOVLB  6
07E76:  MOVFF  64E,650
07E7A:  MOVFF  64F,651
07E7E:  MOVLW  1E
07E80:  MOVWF  x52
07E82:  MOVLW  01
07E84:  MOVWF  x53
07E86:  MOVLB  0
07E88:  CALL   2912
....................                   else 
07E8C:  BRA    7EC2
07E8E:  MOVLB  4
....................                   {displayContrasena(Password[i-1],i*20,30,0);} 
07E90:  MOVLW  01
07E92:  SUBWF  x19,W
07E94:  CLRF   03
07E96:  ADDLW  26
07E98:  MOVWF  FE9
07E9A:  MOVLW  05
07E9C:  ADDWFC 03,W
07E9E:  MOVWF  FEA
07EA0:  MOVFF  FEF,64E
07EA4:  MOVF   x19,W
07EA6:  MULLW  14
07EA8:  MOVFF  FF3,64F
07EAC:  MOVLB  6
07EAE:  MOVFF  64E,650
07EB2:  MOVFF  64F,651
07EB6:  MOVLW  1E
07EB8:  MOVWF  x52
07EBA:  CLRF   x53
07EBC:  MOVLB  0
07EBE:  CALL   2912
....................                }       
07EC2:  MOVLB  4
07EC4:  INCF   x19,F
07EC6:  BRA    7E10
....................             }      
....................       } 
....................          else 
07EC8:  BRA    7ECE
....................             {Flanco2 = 0;}   
07ECA:  MOVLB  4
07ECC:  BCF    x1F.2
....................              
....................       if(RIGHT || BYTE_IR[2]==0X5A)//Si oprime SET 
07ECE:  BSF    F96.2
07ED0:  BTFSC  F84.2
07ED2:  BRA    7EDE
07ED4:  MOVLB  6
07ED6:  MOVF   x36,W
07ED8:  SUBLW  5A
07EDA:  BNZ   7F7C
07EDC:  MOVLB  4
....................       {  if(Flanco1 == 0)  
07EDE:  BTFSC  x1F.1
07EE0:  BRA    7F7A
....................             {Flanco1 = 1;delay_ms(30);unidad++;BYTE_IR[2]=0X00; 
07EE2:  BSF    x1F.1
07EE4:  MOVLW  1E
07EE6:  MOVLB  6
07EE8:  MOVWF  x56
07EEA:  MOVLB  0
07EEC:  CALL   1576
07EF0:  MOVLB  4
07EF2:  INCF   xE1,F
07EF4:  MOVLB  6
07EF6:  CLRF   x36
....................                for(i=1;i<=4;i++) 
07EF8:  MOVLW  01
07EFA:  MOVLB  4
07EFC:  MOVWF  x19
07EFE:  MOVF   x19,W
07F00:  SUBLW  04
07F02:  BNC   7F7A
....................                { 
....................                   if(unidad==i) 
07F04:  MOVF   x19,W
07F06:  SUBWF  xE1,W
07F08:  BNZ   7F42
....................                   {displayContrasena(Password[i-1],i*20,30,1);} 
07F0A:  MOVLW  01
07F0C:  SUBWF  x19,W
07F0E:  CLRF   03
07F10:  ADDLW  26
07F12:  MOVWF  FE9
07F14:  MOVLW  05
07F16:  ADDWFC 03,W
07F18:  MOVWF  FEA
07F1A:  MOVFF  FEF,64E
07F1E:  MOVF   x19,W
07F20:  MULLW  14
07F22:  MOVFF  FF3,64F
07F26:  MOVLB  6
07F28:  MOVFF  64E,650
07F2C:  MOVFF  64F,651
07F30:  MOVLW  1E
07F32:  MOVWF  x52
07F34:  MOVLW  01
07F36:  MOVWF  x53
07F38:  MOVLB  0
07F3A:  CALL   2912
....................                   else 
07F3E:  BRA    7F74
07F40:  MOVLB  4
....................                   {displayContrasena(Password[i-1],i*20,30,0);} 
07F42:  MOVLW  01
07F44:  SUBWF  x19,W
07F46:  CLRF   03
07F48:  ADDLW  26
07F4A:  MOVWF  FE9
07F4C:  MOVLW  05
07F4E:  ADDWFC 03,W
07F50:  MOVWF  FEA
07F52:  MOVFF  FEF,64E
07F56:  MOVF   x19,W
07F58:  MULLW  14
07F5A:  MOVFF  FF3,64F
07F5E:  MOVLB  6
07F60:  MOVFF  64E,650
07F64:  MOVFF  64F,651
07F68:  MOVLW  1E
07F6A:  MOVWF  x52
07F6C:  CLRF   x53
07F6E:  MOVLB  0
07F70:  CALL   2912
....................                } 
07F74:  MOVLB  4
07F76:  INCF   x19,F
07F78:  BRA    7EFE
....................             } 
....................       } 
....................          else 
07F7A:  BRA    7F80
....................             {Flanco1 = 0;}   
07F7C:  MOVLB  4
07F7E:  BCF    x1F.1
....................       if(unidad>4) 
07F80:  MOVF   xE1,W
07F82:  SUBLW  04
07F84:  BTFSC  FD8.0
07F86:  BRA    8080
....................       {Opcion=1;glcd_fillscreen(OFF);unidad=1;n=0; 
07F88:  MOVLW  01
07F8A:  MOVWF  xE2
07F8C:  MOVLB  6
07F8E:  CLRF   x4F
07F90:  MOVLB  0
07F92:  CALL   225C
07F96:  MOVLW  01
07F98:  MOVLB  4
07F9A:  MOVWF  xE1
07F9C:  BCF    x21.7
....................       write_eeprom(0,Password[0]);write_eeprom(1,Password[1]);write_eeprom(2,Password[2]);write_eeprom(3,Password[3]); 
07F9E:  CLRF   FAA
07FA0:  CLRF   FA9
07FA2:  MOVFF  526,FA8
07FA6:  BCF    FA6.6
07FA8:  BCF    FA6.7
07FAA:  BSF    FA6.2
07FAC:  MOVF   FF2,W
07FAE:  MOVWF  00
07FB0:  BCF    FF2.7
07FB2:  MOVLB  F
07FB4:  MOVLW  55
07FB6:  MOVWF  FA7
07FB8:  MOVLW  AA
07FBA:  MOVWF  FA7
07FBC:  BSF    FA6.1
07FBE:  BTFSC  FA6.1
07FC0:  BRA    7FBE
07FC2:  BCF    FA6.2
07FC4:  MOVF   00,W
07FC6:  IORWF  FF2,F
07FC8:  CLRF   FAA
07FCA:  MOVLW  01
07FCC:  MOVWF  FA9
07FCE:  MOVFF  527,FA8
07FD2:  BCF    FA6.6
07FD4:  BCF    FA6.7
07FD6:  BSF    FA6.2
07FD8:  MOVF   FF2,W
07FDA:  MOVWF  00
07FDC:  BCF    FF2.7
07FDE:  MOVLW  55
07FE0:  MOVWF  FA7
07FE2:  MOVLW  AA
07FE4:  MOVWF  FA7
07FE6:  BSF    FA6.1
07FE8:  BTFSC  FA6.1
07FEA:  BRA    7FE8
07FEC:  BCF    FA6.2
07FEE:  MOVF   00,W
07FF0:  IORWF  FF2,F
07FF2:  CLRF   FAA
07FF4:  MOVLW  02
07FF6:  MOVWF  FA9
07FF8:  MOVFF  528,FA8
07FFC:  BCF    FA6.6
07FFE:  BCF    FA6.7
08000:  BSF    FA6.2
08002:  MOVF   FF2,W
08004:  MOVWF  00
08006:  BCF    FF2.7
08008:  MOVLW  55
0800A:  MOVWF  FA7
0800C:  MOVLW  AA
0800E:  MOVWF  FA7
08010:  BSF    FA6.1
08012:  BTFSC  FA6.1
08014:  BRA    8012
08016:  BCF    FA6.2
08018:  MOVF   00,W
0801A:  IORWF  FF2,F
0801C:  CLRF   FAA
0801E:  MOVLW  03
08020:  MOVWF  FA9
08022:  MOVFF  529,FA8
08026:  BCF    FA6.6
08028:  BCF    FA6.7
0802A:  BSF    FA6.2
0802C:  MOVF   FF2,W
0802E:  MOVWF  00
08030:  BCF    FF2.7
08032:  MOVLW  55
08034:  MOVWF  FA7
08036:  MOVLW  AA
08038:  MOVWF  FA7
0803A:  BSF    FA6.1
0803C:  BTFSC  FA6.1
0803E:  BRA    803C
08040:  BCF    FA6.2
08042:  MOVF   00,W
08044:  IORWF  FF2,F
....................        glcd_imagen(1);glcd_update();Menu=211;delay_ms(1000);glcd_fillScreen(OFF);Menu=3; 
08046:  MOVLW  01
08048:  MOVLB  6
0804A:  MOVWF  x4E
0804C:  MOVLB  0
0804E:  CALL   3150
08052:  CALL   1A42
08056:  MOVLW  D3
08058:  MOVLB  4
0805A:  MOVWF  xE0
0805C:  MOVLW  04
0805E:  MOVLB  6
08060:  MOVWF  x4E
08062:  MOVLW  FA
08064:  MOVWF  x56
08066:  MOVLB  0
08068:  CALL   1576
0806C:  MOVLB  6
0806E:  DECFSZ x4E,F
08070:  BRA    8062
08072:  CLRF   x4F
08074:  MOVLB  0
08076:  CALL   225C
0807A:  MOVLW  03
0807C:  MOVLB  4
0807E:  MOVWF  xE0
....................       } 
....................      
....................     } 
.................... //_--------------------------------------------------------------------------------------------------------------------------------------------------------        
....................  
.................... //_-------------------------------------------------------------------------------------------------------------------------------------------------------- 
....................       if(Menu==31){ //Menu de Mantenimiento. 
08080:  MOVF   xE0,W
08082:  SUBLW  1F
08084:  BTFSS  FD8.2
08086:  BRA    83D8
....................        
....................          glcd_text57(0, 29, Vida_Filtro, 1, ON); 
08088:  MOVLB  6
0808A:  CLRF   x65
0808C:  MOVLW  1D
0808E:  MOVWF  x66
08090:  MOVLW  04
08092:  MOVWF  x68
08094:  MOVLW  BA
08096:  MOVWF  x67
08098:  MOVLW  01
0809A:  MOVWF  x69
0809C:  MOVWF  x6A
0809E:  MOVLB  0
080A0:  CALL   275A
....................          displayTiempo(Ttrabajo[3],60,28,0,1);displayTiempo(Ttrabajo[2],67,28,0,1);displayTiempo(Ttrabajo[1],74,28,0,1);displayTiempo(Ttrabajo[0],82,28,0,1); 
080A4:  MOVFF  521,64E
080A8:  MOVLW  3C
080AA:  MOVLB  6
080AC:  MOVWF  x4F
080AE:  MOVLW  1C
080B0:  MOVWF  x50
080B2:  CLRF   x51
080B4:  MOVLW  01
080B6:  MOVWF  x52
080B8:  MOVLB  0
080BA:  CALL   2A94
080BE:  MOVFF  520,64E
080C2:  MOVLW  43
080C4:  MOVLB  6
080C6:  MOVWF  x4F
080C8:  MOVLW  1C
080CA:  MOVWF  x50
080CC:  CLRF   x51
080CE:  MOVLW  01
080D0:  MOVWF  x52
080D2:  MOVLB  0
080D4:  CALL   2A94
080D8:  MOVFF  51F,64E
080DC:  MOVLW  4A
080DE:  MOVLB  6
080E0:  MOVWF  x4F
080E2:  MOVLW  1C
080E4:  MOVWF  x50
080E6:  CLRF   x51
080E8:  MOVLW  01
080EA:  MOVWF  x52
080EC:  MOVLB  0
080EE:  CALL   2A94
080F2:  MOVFF  51E,64E
080F6:  MOVLW  52
080F8:  MOVLB  6
080FA:  MOVWF  x4F
080FC:  MOVLW  1C
080FE:  MOVWF  x50
08100:  CLRF   x51
08102:  MOVLW  01
08104:  MOVWF  x52
08106:  MOVLB  0
08108:  CALL   2A94
....................          glcd_text57(0, 43, Vida_UV, 1, ON); 
0810C:  MOVLB  6
0810E:  CLRF   x65
08110:  MOVLW  2B
08112:  MOVWF  x66
08114:  MOVLW  04
08116:  MOVWF  x68
08118:  MOVLW  B2
0811A:  MOVWF  x67
0811C:  MOVLW  01
0811E:  MOVWF  x69
08120:  MOVWF  x6A
08122:  MOVLB  0
08124:  CALL   275A
....................          displayTiempo(Tuv[3],60,42,0,1);displayTiempo(Tuv[2],67,42,0,1);displayTiempo(Tuv[1],74,42,0,1);displayTiempo(Tuv[0],82,42,0,1);                  
08128:  MOVFF  515,64E
0812C:  MOVLW  3C
0812E:  MOVLB  6
08130:  MOVWF  x4F
08132:  MOVLW  2A
08134:  MOVWF  x50
08136:  CLRF   x51
08138:  MOVLW  01
0813A:  MOVWF  x52
0813C:  MOVLB  0
0813E:  CALL   2A94
08142:  MOVFF  514,64E
08146:  MOVLW  43
08148:  MOVLB  6
0814A:  MOVWF  x4F
0814C:  MOVLW  2A
0814E:  MOVWF  x50
08150:  CLRF   x51
08152:  MOVLW  01
08154:  MOVWF  x52
08156:  MOVLB  0
08158:  CALL   2A94
0815C:  MOVFF  513,64E
08160:  MOVLW  4A
08162:  MOVLB  6
08164:  MOVWF  x4F
08166:  MOVLW  2A
08168:  MOVWF  x50
0816A:  CLRF   x51
0816C:  MOVLW  01
0816E:  MOVWF  x52
08170:  MOVLB  0
08172:  CALL   2A94
08176:  MOVFF  512,64E
0817A:  MOVLW  52
0817C:  MOVLB  6
0817E:  MOVWF  x4F
08180:  MOVLW  2A
08182:  MOVWF  x50
08184:  CLRF   x51
08186:  MOVLW  01
08188:  MOVWF  x52
0818A:  MOVLB  0
0818C:  CALL   2A94
....................          LuzBlanca_on; 
08190:  BSF    F8B.4
08192:  BCF    F94.4
....................           
....................          if(VIDRIOUP) 
08194:  BSF    F92.5
08196:  BTFSS  F80.5
08198:  BRA    81A4
....................          { 
....................             AjustarUP=5; 
0819A:  MOVLW  05
0819C:  MOVLB  4
0819E:  MOVWF  x1C
....................          } 
....................          else 
081A0:  BRA    81B2
081A2:  MOVLB  0
....................          { 
....................             AjustarUP=10; 
081A4:  MOVLW  0A
081A6:  MOVLB  4
081A8:  MOVWF  x1C
....................             VidrioOff(); 
081AA:  MOVLB  0
081AC:  CALL   19EE
081B0:  MOVLB  4
....................          } 
....................           
....................             if(UP || BYTE_IR[2]==0X18) // Reinicia Tiempo de Luz UV 
081B2:  BSF    F96.0
081B4:  BTFSC  F84.0
081B6:  BRA    81C2
081B8:  MOVLB  6
081BA:  MOVF   x36,W
081BC:  SUBLW  18
081BE:  BNZ   82AC
081C0:  MOVLB  4
....................             { 
....................                   BYTE_IR[2]=0X00; 
081C2:  MOVLB  6
081C4:  CLRF   x36
....................                   delay_ms(2000); 
081C6:  MOVLW  08
081C8:  MOVWF  x4E
081CA:  MOVLW  FA
081CC:  MOVWF  x56
081CE:  MOVLB  0
081D0:  CALL   1576
081D4:  MOVLB  6
081D6:  DECFSZ x4E,F
081D8:  BRA    81CA
....................                   write_eeprom(12,0);write_eeprom(13,0);write_eeprom(14,0);write_eeprom(15,0); 
081DA:  CLRF   FAA
081DC:  MOVLW  0C
081DE:  MOVWF  FA9
081E0:  CLRF   FA8
081E2:  BCF    FA6.6
081E4:  BCF    FA6.7
081E6:  BSF    FA6.2
081E8:  MOVF   FF2,W
081EA:  MOVWF  00
081EC:  BCF    FF2.7
081EE:  MOVLB  F
081F0:  MOVLW  55
081F2:  MOVWF  FA7
081F4:  MOVLW  AA
081F6:  MOVWF  FA7
081F8:  BSF    FA6.1
081FA:  BTFSC  FA6.1
081FC:  BRA    81FA
081FE:  BCF    FA6.2
08200:  MOVF   00,W
08202:  IORWF  FF2,F
08204:  CLRF   FAA
08206:  MOVLW  0D
08208:  MOVWF  FA9
0820A:  CLRF   FA8
0820C:  BCF    FA6.6
0820E:  BCF    FA6.7
08210:  BSF    FA6.2
08212:  MOVF   FF2,W
08214:  MOVWF  00
08216:  BCF    FF2.7
08218:  MOVLW  55
0821A:  MOVWF  FA7
0821C:  MOVLW  AA
0821E:  MOVWF  FA7
08220:  BSF    FA6.1
08222:  BTFSC  FA6.1
08224:  BRA    8222
08226:  BCF    FA6.2
08228:  MOVF   00,W
0822A:  IORWF  FF2,F
0822C:  CLRF   FAA
0822E:  MOVLW  0E
08230:  MOVWF  FA9
08232:  CLRF   FA8
08234:  BCF    FA6.6
08236:  BCF    FA6.7
08238:  BSF    FA6.2
0823A:  MOVF   FF2,W
0823C:  MOVWF  00
0823E:  BCF    FF2.7
08240:  MOVLW  55
08242:  MOVWF  FA7
08244:  MOVLW  AA
08246:  MOVWF  FA7
08248:  BSF    FA6.1
0824A:  BTFSC  FA6.1
0824C:  BRA    824A
0824E:  BCF    FA6.2
08250:  MOVF   00,W
08252:  IORWF  FF2,F
08254:  CLRF   FAA
08256:  MOVLW  0F
08258:  MOVWF  FA9
0825A:  CLRF   FA8
0825C:  BCF    FA6.6
0825E:  BCF    FA6.7
08260:  BSF    FA6.2
08262:  MOVF   FF2,W
08264:  MOVWF  00
08266:  BCF    FF2.7
08268:  MOVLW  55
0826A:  MOVWF  FA7
0826C:  MOVLW  AA
0826E:  MOVWF  FA7
08270:  BSF    FA6.1
08272:  BTFSC  FA6.1
08274:  BRA    8272
08276:  BCF    FA6.2
08278:  MOVF   00,W
0827A:  IORWF  FF2,F
....................                   Tuv[3]=0;Tuv[2]=0;Tuv[1]=0;Tuv[0]=0; 
0827C:  MOVLB  5
0827E:  CLRF   x15
08280:  CLRF   x14
08282:  CLRF   x13
08284:  CLRF   x12
....................                   Menu=3;glcd_fillscreen(OFF);LuzBlanca_off; 
08286:  MOVLW  03
08288:  MOVLB  4
0828A:  MOVWF  xE0
0828C:  MOVLB  6
0828E:  CLRF   x4F
08290:  MOVLB  0
08292:  CALL   225C
08296:  BCF    F8B.4
08298:  BCF    F94.4
....................                   AjustarOK=10;AjustarUP=10;AjustarUV=10;VidrioOff(); 
0829A:  MOVLW  0A
0829C:  MOVLB  4
0829E:  MOVWF  x1A
082A0:  MOVWF  x1C
082A2:  MOVWF  x1B
082A4:  MOVLB  0
082A6:  CALL   19EE
082AA:  MOVLB  6
....................             } 
....................             if(DOWN  || BYTE_IR[2]==0X52) // Reinicia Tiempo de Trabajo 
082AC:  BSF    F96.1
082AE:  BTFSC  F84.1
082B0:  BRA    82B8
082B2:  MOVF   x36,W
082B4:  SUBLW  52
082B6:  BNZ   83A0
....................             { 
....................                   BYTE_IR[2]=0X00; 
082B8:  CLRF   x36
....................                   delay_ms(2000); 
082BA:  MOVLW  08
082BC:  MOVWF  x4E
082BE:  MOVLW  FA
082C0:  MOVWF  x56
082C2:  MOVLB  0
082C4:  CALL   1576
082C8:  MOVLB  6
082CA:  DECFSZ x4E,F
082CC:  BRA    82BE
....................                   write_eeprom(16,0);write_eeprom(17,0);write_eeprom(18,0);write_eeprom(19,0); 
082CE:  CLRF   FAA
082D0:  MOVLW  10
082D2:  MOVWF  FA9
082D4:  CLRF   FA8
082D6:  BCF    FA6.6
082D8:  BCF    FA6.7
082DA:  BSF    FA6.2
082DC:  MOVF   FF2,W
082DE:  MOVWF  00
082E0:  BCF    FF2.7
082E2:  MOVLB  F
082E4:  MOVLW  55
082E6:  MOVWF  FA7
082E8:  MOVLW  AA
082EA:  MOVWF  FA7
082EC:  BSF    FA6.1
082EE:  BTFSC  FA6.1
082F0:  BRA    82EE
082F2:  BCF    FA6.2
082F4:  MOVF   00,W
082F6:  IORWF  FF2,F
082F8:  CLRF   FAA
082FA:  MOVLW  11
082FC:  MOVWF  FA9
082FE:  CLRF   FA8
08300:  BCF    FA6.6
08302:  BCF    FA6.7
08304:  BSF    FA6.2
08306:  MOVF   FF2,W
08308:  MOVWF  00
0830A:  BCF    FF2.7
0830C:  MOVLW  55
0830E:  MOVWF  FA7
08310:  MOVLW  AA
08312:  MOVWF  FA7
08314:  BSF    FA6.1
08316:  BTFSC  FA6.1
08318:  BRA    8316
0831A:  BCF    FA6.2
0831C:  MOVF   00,W
0831E:  IORWF  FF2,F
08320:  CLRF   FAA
08322:  MOVLW  12
08324:  MOVWF  FA9
08326:  CLRF   FA8
08328:  BCF    FA6.6
0832A:  BCF    FA6.7
0832C:  BSF    FA6.2
0832E:  MOVF   FF2,W
08330:  MOVWF  00
08332:  BCF    FF2.7
08334:  MOVLW  55
08336:  MOVWF  FA7
08338:  MOVLW  AA
0833A:  MOVWF  FA7
0833C:  BSF    FA6.1
0833E:  BTFSC  FA6.1
08340:  BRA    833E
08342:  BCF    FA6.2
08344:  MOVF   00,W
08346:  IORWF  FF2,F
08348:  CLRF   FAA
0834A:  MOVLW  13
0834C:  MOVWF  FA9
0834E:  CLRF   FA8
08350:  BCF    FA6.6
08352:  BCF    FA6.7
08354:  BSF    FA6.2
08356:  MOVF   FF2,W
08358:  MOVWF  00
0835A:  BCF    FF2.7
0835C:  MOVLW  55
0835E:  MOVWF  FA7
08360:  MOVLW  AA
08362:  MOVWF  FA7
08364:  BSF    FA6.1
08366:  BTFSC  FA6.1
08368:  BRA    8366
0836A:  BCF    FA6.2
0836C:  MOVF   00,W
0836E:  IORWF  FF2,F
....................                   Ttrabajo[3]=0;Ttrabajo[2]=0;Ttrabajo[1]=0;Ttrabajo[0]=0; 
08370:  MOVLB  5
08372:  CLRF   x21
08374:  CLRF   x20
08376:  CLRF   x1F
08378:  CLRF   x1E
....................                   Menu=3;glcd_fillscreen(OFF);LuzBlanca_off; 
0837A:  MOVLW  03
0837C:  MOVLB  4
0837E:  MOVWF  xE0
08380:  MOVLB  6
08382:  CLRF   x4F
08384:  MOVLB  0
08386:  CALL   225C
0838A:  BCF    F8B.4
0838C:  BCF    F94.4
....................                   AjustarOK=10;AjustarUP=10;AjustarUV=10;VidrioOff(); 
0838E:  MOVLW  0A
08390:  MOVLB  4
08392:  MOVWF  x1A
08394:  MOVWF  x1C
08396:  MOVWF  x1B
08398:  MOVLB  0
0839A:  CALL   19EE
0839E:  MOVLB  6
....................             } 
....................              
....................             if(LEFT || BYTE_IR[2]==0X08) 
083A0:  BSF    F94.0
083A2:  BTFSC  F82.0
083A4:  BRA    83AC
083A6:  MOVF   x36,W
083A8:  SUBLW  08
083AA:  BNZ   83D6
....................             { 
....................                Menu=3;glcd_fillscreen(OFF);LuzBlanca_off;BYTE_IR[2]=0X00; 
083AC:  MOVLW  03
083AE:  MOVLB  4
083B0:  MOVWF  xE0
083B2:  MOVLB  6
083B4:  CLRF   x4F
083B6:  MOVLB  0
083B8:  CALL   225C
083BC:  BCF    F8B.4
083BE:  BCF    F94.4
083C0:  MOVLB  6
083C2:  CLRF   x36
....................                AjustarOK=10;AjustarUP=10;AjustarUV=10;VidrioOff(); 
083C4:  MOVLW  0A
083C6:  MOVLB  4
083C8:  MOVWF  x1A
083CA:  MOVWF  x1C
083CC:  MOVWF  x1B
083CE:  MOVLB  0
083D0:  CALL   19EE
083D4:  MOVLB  6
083D6:  MOVLB  4
....................             } 
....................     } 
.................... //_--------------------------------------------------------------------------------------------------------------------------------------------------------        
....................  
.................... //_-------------------------------------------------------------------------------------------------------------------------------------------------------- 
....................       if(Menu==32){ //Menu de Apagado de Cabina. 
083D8:  MOVF   xE0,W
083DA:  SUBLW  20
083DC:  BTFSS  FD8.2
083DE:  BRA    8606
....................        
....................       strcpy(Menus.Letra,"  Apagar?"); 
083E0:  MOVLW  06
083E2:  MOVWF  FEA
083E4:  MOVLW  38
083E6:  MOVWF  FE9
083E8:  MOVFF  FF2,64E
083EC:  BCF    FF2.7
083EE:  MOVLW  00
083F0:  MOVLB  0
083F2:  CALL   11D0
083F6:  TBLRD*-
083F8:  TBLRD*+
083FA:  MOVF   FF5,W
083FC:  MOVWF  FEE
083FE:  IORLW  00
08400:  BNZ   83F8
08402:  MOVLB  6
08404:  BTFSC  x4E.7
08406:  BSF    FF2.7
....................       displayMenu(Menus.Letra,10,0,1,2); 
08408:  MOVLW  06
0840A:  MOVWF  x4F
0840C:  MOVLW  38
0840E:  MOVWF  x4E
08410:  MOVLW  0A
08412:  MOVWF  x50
08414:  CLRF   x51
08416:  MOVLW  01
08418:  MOVWF  x52
0841A:  MOVLW  02
0841C:  MOVWF  x53
0841E:  MOVLB  0
08420:  CALL   29C8
....................        
....................       if(unidad==1) 
08424:  MOVLB  4
08426:  DECFSZ xE1,W
08428:  BRA    84B6
....................       {strcpy(Menus.Letra,"SI"); 
0842A:  MOVLW  06
0842C:  MOVWF  FEA
0842E:  MOVLW  38
08430:  MOVWF  FE9
08432:  MOVFF  FF2,64E
08436:  BCF    FF2.7
08438:  MOVLW  00
0843A:  MOVLB  0
0843C:  CALL   11F8
08440:  TBLRD*-
08442:  TBLRD*+
08444:  MOVF   FF5,W
08446:  MOVWF  FEE
08448:  IORLW  00
0844A:  BNZ   8442
0844C:  MOVLB  6
0844E:  BTFSC  x4E.7
08450:  BSF    FF2.7
....................       displayMenu(Menus.Letra,50,25,1,2); 
08452:  MOVLW  06
08454:  MOVWF  x4F
08456:  MOVLW  38
08458:  MOVWF  x4E
0845A:  MOVLW  32
0845C:  MOVWF  x50
0845E:  MOVLW  19
08460:  MOVWF  x51
08462:  MOVLW  01
08464:  MOVWF  x52
08466:  MOVLW  02
08468:  MOVWF  x53
0846A:  MOVLB  0
0846C:  CALL   29C8
....................       strcpy(Menus.Letra,"NO"); 
08470:  MOVLW  06
08472:  MOVWF  FEA
08474:  MOVLW  38
08476:  MOVWF  FE9
08478:  MOVFF  FF2,64E
0847C:  BCF    FF2.7
0847E:  MOVLW  00
08480:  CALL   121A
08484:  TBLRD*-
08486:  TBLRD*+
08488:  MOVF   FF5,W
0848A:  MOVWF  FEE
0848C:  IORLW  00
0848E:  BNZ   8486
08490:  MOVLB  6
08492:  BTFSC  x4E.7
08494:  BSF    FF2.7
....................       displayMenu(Menus.Letra,50,45,0,2);} 
08496:  MOVLW  06
08498:  MOVWF  x4F
0849A:  MOVLW  38
0849C:  MOVWF  x4E
0849E:  MOVLW  32
084A0:  MOVWF  x50
084A2:  MOVLW  2D
084A4:  MOVWF  x51
084A6:  CLRF   x52
084A8:  MOVLW  02
084AA:  MOVWF  x53
084AC:  MOVLB  0
084AE:  CALL   29C8
....................       else 
084B2:  BRA    853E
084B4:  MOVLB  4
....................       {strcpy(Menus.Letra,"SI"); 
084B6:  MOVLW  06
084B8:  MOVWF  FEA
084BA:  MOVLW  38
084BC:  MOVWF  FE9
084BE:  MOVFF  FF2,64E
084C2:  BCF    FF2.7
084C4:  MOVLW  00
084C6:  MOVLB  0
084C8:  CALL   11F8
084CC:  TBLRD*-
084CE:  TBLRD*+
084D0:  MOVF   FF5,W
084D2:  MOVWF  FEE
084D4:  IORLW  00
084D6:  BNZ   84CE
084D8:  MOVLB  6
084DA:  BTFSC  x4E.7
084DC:  BSF    FF2.7
....................       displayMenu(Menus.Letra,50,25,0,2); 
084DE:  MOVLW  06
084E0:  MOVWF  x4F
084E2:  MOVLW  38
084E4:  MOVWF  x4E
084E6:  MOVLW  32
084E8:  MOVWF  x50
084EA:  MOVLW  19
084EC:  MOVWF  x51
084EE:  CLRF   x52
084F0:  MOVLW  02
084F2:  MOVWF  x53
084F4:  MOVLB  0
084F6:  CALL   29C8
....................       strcpy(Menus.Letra,"NO"); 
084FA:  MOVLW  06
084FC:  MOVWF  FEA
084FE:  MOVLW  38
08500:  MOVWF  FE9
08502:  MOVFF  FF2,64E
08506:  BCF    FF2.7
08508:  MOVLW  00
0850A:  CALL   121A
0850E:  TBLRD*-
08510:  TBLRD*+
08512:  MOVF   FF5,W
08514:  MOVWF  FEE
08516:  IORLW  00
08518:  BNZ   8510
0851A:  MOVLB  6
0851C:  BTFSC  x4E.7
0851E:  BSF    FF2.7
....................       displayMenu(Menus.Letra,50,45,1,2);} 
08520:  MOVLW  06
08522:  MOVWF  x4F
08524:  MOVLW  38
08526:  MOVWF  x4E
08528:  MOVLW  32
0852A:  MOVWF  x50
0852C:  MOVLW  2D
0852E:  MOVWF  x51
08530:  MOVLW  01
08532:  MOVWF  x52
08534:  MOVLW  02
08536:  MOVWF  x53
08538:  MOVLB  0
0853A:  CALL   29C8
....................        
....................        
....................          
....................       if(UP || BYTE_IR[2]==0X18)//Si oprime hacia arriba 
0853E:  BSF    F96.0
08540:  BTFSC  F84.0
08542:  BRA    854E
08544:  MOVLB  6
08546:  MOVF   x36,W
08548:  SUBLW  18
0854A:  BNZ   8562
0854C:  MOVLB  0
....................       {   
....................          delay_ms(90);unidad++;BYTE_IR[2]=0X00; 
0854E:  MOVLW  5A
08550:  MOVLB  6
08552:  MOVWF  x56
08554:  MOVLB  0
08556:  CALL   1576
0855A:  MOVLB  4
0855C:  INCF   xE1,F
0855E:  MOVLB  6
08560:  CLRF   x36
....................       } 
....................              
....................       if(DOWN || BYTE_IR[2]==0X52)//Si oprime hacia abajo 
08562:  BSF    F96.1
08564:  BTFSC  F84.1
08566:  BRA    856E
08568:  MOVF   x36,W
0856A:  SUBLW  52
0856C:  BNZ   8580
....................       { 
....................          delay_ms(90);unidad--;BYTE_IR[2]=0X00; 
0856E:  MOVLW  5A
08570:  MOVWF  x56
08572:  MOVLB  0
08574:  CALL   1576
08578:  MOVLB  4
0857A:  DECF   xE1,F
0857C:  MOVLB  6
0857E:  CLRF   x36
....................       } 
....................              
....................       if(RIGHT || BYTE_IR[2]==0X5A)//Si oprime SET 
08580:  BSF    F96.2
08582:  BTFSC  F84.2
08584:  BRA    858C
08586:  MOVF   x36,W
08588:  SUBLW  5A
0858A:  BNZ   85C8
....................       { 
....................          Flanco1 = 1;delay_ms(30);BYTE_IR[2]=0X00; 
0858C:  MOVLB  4
0858E:  BSF    x1F.1
08590:  MOVLW  1E
08592:  MOVLB  6
08594:  MOVWF  x56
08596:  MOVLB  0
08598:  CALL   1576
0859C:  MOVLB  6
0859E:  CLRF   x36
....................          if(unidad==1) 
085A0:  MOVLB  4
085A2:  DECFSZ xE1,W
085A4:  BRA    85B8
....................          {Menu=120;glcd_fillscreen(OFF);} 
085A6:  MOVLW  78
085A8:  MOVWF  xE0
085AA:  MOVLB  6
085AC:  CLRF   x4F
085AE:  MOVLB  0
085B0:  CALL   225C
....................          else 
085B4:  BRA    85C6
085B6:  MOVLB  4
....................          {Menu=2;glcd_fillscreen(OFF);}  
085B8:  MOVLW  02
085BA:  MOVWF  xE0
085BC:  MOVLB  6
085BE:  CLRF   x4F
085C0:  MOVLB  0
085C2:  CALL   225C
085C6:  MOVLB  6
....................           
....................       } 
....................              
....................       if(LEFT || BYTE_IR[2]==0X08)//Si oprime boton de Toma. 
085C8:  BSF    F94.0
085CA:  BTFSC  F82.0
085CC:  BRA    85D4
085CE:  MOVF   x36,W
085D0:  SUBLW  08
085D2:  BNZ   85F2
....................       { 
....................          delay_ms(30);Menu=3;glcd_fillscreen(OFF);BYTE_IR[2]=0X00;  
085D4:  MOVLW  1E
085D6:  MOVWF  x56
085D8:  MOVLB  0
085DA:  CALL   1576
085DE:  MOVLW  03
085E0:  MOVLB  4
085E2:  MOVWF  xE0
085E4:  MOVLB  6
085E6:  CLRF   x4F
085E8:  MOVLB  0
085EA:  CALL   225C
085EE:  MOVLB  6
085F0:  CLRF   x36
....................       } 
....................        
....................       if(unidad>2) 
085F2:  MOVLB  4
085F4:  MOVF   xE1,W
085F6:  SUBLW  02
085F8:  BC    85FE
....................       {unidad=1;} 
085FA:  MOVLW  01
085FC:  MOVWF  xE1
....................       if(unidad<1) 
085FE:  MOVF   xE1,F
08600:  BNZ   8606
....................       {unidad=2;} 
08602:  MOVLW  02
08604:  MOVWF  xE1
....................      
....................     } 
.................... //_--------------------------------------------------------------------------------------------------------------------------------------------------------        
....................  
.................... //_-------------------------------------------------------------------------------------------------------------------------------------------------------- 
....................       if(Menu==120){ //Menu de Post-Purga. 
08606:  MOVF   xE0,W
08608:  SUBLW  78
0860A:  BTFSS  FD8.2
0860C:  BRA    87AE
....................        
....................       // Para que inicie el tiempo de Post-Purga se debe oprimir el boton de encendido en el Microcontrolador esclavo. 
....................       strcpy(Menus.Letra,"Tiempo"); 
0860E:  MOVLW  06
08610:  MOVWF  FEA
08612:  MOVLW  38
08614:  MOVWF  FE9
08616:  MOVFF  FF2,64E
0861A:  BCF    FF2.7
0861C:  MOVLW  00
0861E:  MOVLB  0
08620:  CALL   123C
08624:  TBLRD*-
08626:  TBLRD*+
08628:  MOVF   FF5,W
0862A:  MOVWF  FEE
0862C:  IORLW  00
0862E:  BNZ   8626
08630:  MOVLB  6
08632:  BTFSC  x4E.7
08634:  BSF    FF2.7
....................       displayMenu(Menus.Letra,30,0,1,2); 
08636:  MOVLW  06
08638:  MOVWF  x4F
0863A:  MOVLW  38
0863C:  MOVWF  x4E
0863E:  MOVLW  1E
08640:  MOVWF  x50
08642:  CLRF   x51
08644:  MOVLW  01
08646:  MOVWF  x52
08648:  MOVLW  02
0864A:  MOVWF  x53
0864C:  MOVLB  0
0864E:  CALL   29C8
....................       strcpy(Menus.Letra,"Post-Purga"); 
08652:  MOVLW  06
08654:  MOVWF  FEA
08656:  MOVLW  38
08658:  MOVWF  FE9
0865A:  MOVFF  FF2,64E
0865E:  BCF    FF2.7
08660:  MOVLW  00
08662:  CALL   1262
08666:  TBLRD*-
08668:  TBLRD*+
0866A:  MOVF   FF5,W
0866C:  MOVWF  FEE
0866E:  IORLW  00
08670:  BNZ   8668
08672:  MOVLB  6
08674:  BTFSC  x4E.7
08676:  BSF    FF2.7
....................       displayMenu(Menus.Letra,10,17,1,2); 
08678:  MOVLW  06
0867A:  MOVWF  x4F
0867C:  MOVLW  38
0867E:  MOVWF  x4E
08680:  MOVLW  0A
08682:  MOVWF  x50
08684:  MOVLW  11
08686:  MOVWF  x51
08688:  MOVLW  01
0868A:  MOVWF  x52
0868C:  MOVLW  02
0868E:  MOVWF  x53
08690:  MOVLB  0
08692:  CALL   29C8
....................        
....................       tiempo_postpurga=1; 
08696:  MOVLB  4
08698:  BSF    x21.1
....................       LuzBlanca_off;  
0869A:  BCF    F8B.4
0869C:  BCF    F94.4
....................       LuzUV_off; 
0869E:  BCF    F8B.5
086A0:  BCF    F94.5
....................       Toma_off; 
086A2:  BCF    F8B.7
086A4:  BCF    F94.7
....................       Alarma_off; 
086A6:  BCF    F8B.3
086A8:  BCF    F94.3
....................       Motor_on; 
086AA:  BSF    F8B.6
086AC:  BCF    F94.6
....................       flag_blower=1; 
086AE:  BSF    x20.1
....................        
....................        displayTiempo(Tppurga[3],20,40,0,2);displayTiempo(Tppurga[2],40,40,0,2);glcd_text57(60, 42, Dos_puntos, 2, ON); 
086B0:  MOVFF  50D,64E
086B4:  MOVLW  14
086B6:  MOVLB  6
086B8:  MOVWF  x4F
086BA:  MOVLW  28
086BC:  MOVWF  x50
086BE:  CLRF   x51
086C0:  MOVLW  02
086C2:  MOVWF  x52
086C4:  MOVLB  0
086C6:  CALL   2A94
086CA:  MOVFF  50C,64E
086CE:  MOVLW  28
086D0:  MOVLB  6
086D2:  MOVWF  x4F
086D4:  MOVWF  x50
086D6:  CLRF   x51
086D8:  MOVLW  02
086DA:  MOVWF  x52
086DC:  MOVLB  0
086DE:  CALL   2A94
086E2:  MOVLW  3C
086E4:  MOVLB  6
086E6:  MOVWF  x65
086E8:  MOVLW  2A
086EA:  MOVWF  x66
086EC:  MOVLW  04
086EE:  MOVWF  x68
086F0:  MOVLW  4A
086F2:  MOVWF  x67
086F4:  MOVLW  02
086F6:  MOVWF  x69
086F8:  MOVLW  01
086FA:  MOVWF  x6A
086FC:  MOVLB  0
086FE:  CALL   275A
....................        displayTiempo(Tppurga[1],70,40,0,2);displayTiempo(Tppurga[0],90,40,0,2);  
08702:  MOVFF  50B,64E
08706:  MOVLW  46
08708:  MOVLB  6
0870A:  MOVWF  x4F
0870C:  MOVLW  28
0870E:  MOVWF  x50
08710:  CLRF   x51
08712:  MOVLW  02
08714:  MOVWF  x52
08716:  MOVLB  0
08718:  CALL   2A94
0871C:  MOVFF  50A,64E
08720:  MOVLW  5A
08722:  MOVLB  6
08724:  MOVWF  x4F
08726:  MOVLW  28
08728:  MOVWF  x50
0872A:  CLRF   x51
0872C:  MOVLW  02
0872E:  MOVWF  x52
08730:  MOVLB  0
08732:  CALL   2A94
....................        
....................       if(RIGHT || BYTE_IR[2]==0X1C) 
08736:  BSF    F96.2
08738:  BTFSC  F84.2
0873A:  BRA    8746
0873C:  MOVLB  6
0873E:  MOVF   x36,W
08740:  SUBLW  1C
08742:  BNZ   8780
08744:  MOVLB  0
....................       { 
....................          delay_ms(1000); 
08746:  MOVLW  04
08748:  MOVLB  6
0874A:  MOVWF  x4E
0874C:  MOVLW  FA
0874E:  MOVWF  x56
08750:  MOVLB  0
08752:  CALL   1576
08756:  MOVLB  6
08758:  DECFSZ x4E,F
0875A:  BRA    874C
....................          if(RIGHT  || BYTE_IR[2]==0X1C) 
0875C:  BSF    F96.2
0875E:  BTFSC  F84.2
08760:  BRA    8768
08762:  MOVF   x36,W
08764:  SUBLW  1C
08766:  BNZ   8780
....................          { 
....................             BYTE_IR[2]=0X00; 
08768:  CLRF   x36
....................             delay_ms(1500); 
0876A:  MOVLW  06
0876C:  MOVWF  x4E
0876E:  MOVLW  FA
08770:  MOVWF  x56
08772:  MOVLB  0
08774:  CALL   1576
08778:  MOVLB  6
0877A:  DECFSZ x4E,F
0877C:  BRA    876E
....................             reset_cpu(); 
0877E:  RESET
....................          } 
....................       } 
....................        
....................       if((Tppurga[0]==Tppurgap[0])&&(Tppurga[1]==Tppurgap[1])&&(Tppurga[2]==Tppurgap[2])&&(Tppurga[3]==Tppurgap[3])) 
08780:  MOVLB  5
08782:  MOVF   x0E,W
08784:  SUBWF  x0A,W
08786:  BNZ   87AC
08788:  MOVF   x0F,W
0878A:  SUBWF  x0B,W
0878C:  BNZ   87AC
0878E:  MOVF   x10,W
08790:  SUBWF  x0C,W
08792:  BNZ   87AC
08794:  MOVF   x11,W
08796:  SUBWF  x0D,W
08798:  BNZ   87AC
....................       {tiempo_postpurga=0;glcd_fillScreen(OFF);reset_cpu();} 
0879A:  MOVLB  4
0879C:  BCF    x21.1
0879E:  MOVLB  6
087A0:  CLRF   x4F
087A2:  MOVLB  0
087A4:  CALL   225C
087A8:  RESET
087AA:  MOVLB  5
087AC:  MOVLB  4
....................       
....................     } 
.................... //_--------------------------------------------------------------------------------------------------------------------------------------------------------        
....................  
.................... //_-------------------------------------------------------------------------------------------------------------------------------------------------------- 
....................    if(Menu==230){ //Menu de Ajustar Vidrio 
087AE:  MOVF   xE0,W
087B0:  SUBLW  E6
087B2:  BTFSS  FD8.2
087B4:  BRA    88D2
....................  
....................    glcd_fillScreen(OFF); 
087B6:  MOVLB  6
087B8:  CLRF   x4F
087BA:  MOVLB  0
087BC:  CALL   225C
....................    strcpy(Menus.Letra,"Ajustar Vidrio?"); 
087C0:  MOVLW  06
087C2:  MOVWF  FEA
087C4:  MOVLW  38
087C6:  MOVWF  FE9
087C8:  MOVFF  FF2,64E
087CC:  BCF    FF2.7
087CE:  MOVLW  00
087D0:  CALL   128C
087D4:  TBLRD*-
087D6:  TBLRD*+
087D8:  MOVF   FF5,W
087DA:  MOVWF  FEE
087DC:  IORLW  00
087DE:  BNZ   87D6
087E0:  MOVLB  6
087E2:  BTFSC  x4E.7
087E4:  BSF    FF2.7
....................    displayMenu(Menus.Letra,10,0,1,1); 
087E6:  MOVLW  06
087E8:  MOVWF  x4F
087EA:  MOVLW  38
087EC:  MOVWF  x4E
087EE:  MOVLW  0A
087F0:  MOVWF  x50
087F2:  CLRF   x51
087F4:  MOVLW  01
087F6:  MOVWF  x52
087F8:  MOVWF  x53
087FA:  MOVLB  0
087FC:  CALL   29C8
....................    strcpy(Menus.Letra,"SI"); 
08800:  MOVLW  06
08802:  MOVWF  FEA
08804:  MOVLW  38
08806:  MOVWF  FE9
08808:  MOVFF  FF2,64E
0880C:  BCF    FF2.7
0880E:  MOVLW  00
08810:  CALL   11F8
08814:  TBLRD*-
08816:  TBLRD*+
08818:  MOVF   FF5,W
0881A:  MOVWF  FEE
0881C:  IORLW  00
0881E:  BNZ   8816
08820:  MOVLB  6
08822:  BTFSC  x4E.7
08824:  BSF    FF2.7
....................    displayMenu(Menus.Letra,50,25,0,2); 
08826:  MOVLW  06
08828:  MOVWF  x4F
0882A:  MOVLW  38
0882C:  MOVWF  x4E
0882E:  MOVLW  32
08830:  MOVWF  x50
08832:  MOVLW  19
08834:  MOVWF  x51
08836:  CLRF   x52
08838:  MOVLW  02
0883A:  MOVWF  x53
0883C:  MOVLB  0
0883E:  CALL   29C8
....................    strcpy(Menus.Letra,"NO"); 
08842:  MOVLW  06
08844:  MOVWF  FEA
08846:  MOVLW  38
08848:  MOVWF  FE9
0884A:  MOVFF  FF2,64E
0884E:  BCF    FF2.7
08850:  MOVLW  00
08852:  CALL   121A
08856:  TBLRD*-
08858:  TBLRD*+
0885A:  MOVF   FF5,W
0885C:  MOVWF  FEE
0885E:  IORLW  00
08860:  BNZ   8858
08862:  MOVLB  6
08864:  BTFSC  x4E.7
08866:  BSF    FF2.7
....................    displayMenu(Menus.Letra,50,45,0,2); 
08868:  MOVLW  06
0886A:  MOVWF  x4F
0886C:  MOVLW  38
0886E:  MOVWF  x4E
08870:  MOVLW  32
08872:  MOVWF  x50
08874:  MOVLW  2D
08876:  MOVWF  x51
08878:  CLRF   x52
0887A:  MOVLW  02
0887C:  MOVWF  x53
0887E:  MOVLB  0
08880:  CALL   29C8
....................              
....................    if(UP || BYTE_IR[2]==0X1C) 
08884:  BSF    F96.0
08886:  BTFSC  F84.0
08888:  BRA    8894
0888A:  MOVLB  6
0888C:  MOVF   x36,W
0888E:  SUBLW  1C
08890:  BNZ   88AA
08892:  MOVLB  0
....................    { 
....................       AjustarOK=5;             
08894:  MOVLW  05
08896:  MOVLB  4
08898:  MOVWF  x1A
....................       Menu=2; 
0889A:  MOVLW  02
0889C:  MOVWF  xE0
....................       glcd_fillScreen(OFF); 
0889E:  MOVLB  6
088A0:  CLRF   x4F
088A2:  MOVLB  0
088A4:  CALL   225C
088A8:  MOVLB  6
....................    } 
....................     
....................    if(DOWN || BYTE_IR[2]==0X52) 
088AA:  BSF    F96.1
088AC:  BTFSC  F84.1
088AE:  BRA    88B6
088B0:  MOVF   x36,W
088B2:  SUBLW  52
088B4:  BNZ   88D0
....................    { 
....................       AjustarOK=10;AjustarUP=10;AjustarUV=10; 
088B6:  MOVLW  0A
088B8:  MOVLB  4
088BA:  MOVWF  x1A
088BC:  MOVWF  x1C
088BE:  MOVWF  x1B
....................       Menu=2; 
088C0:  MOVLW  02
088C2:  MOVWF  xE0
....................       glcd_fillScreen(OFF); 
088C4:  MOVLB  6
088C6:  CLRF   x4F
088C8:  MOVLB  0
088CA:  CALL   225C
088CE:  MOVLB  6
088D0:  MOVLB  4
....................    } 
....................     
....................    } 
.................... //_----------------------------------------------------------------------------------------------------------------------------------------------    
....................  
.................... //_-------------------------------------------------------------------------------------------------------------------------------------------------------- 
....................    if(Menu==231){ //Menu de Ajustar Vidrio 
088D2:  MOVF   xE0,W
088D4:  SUBLW  E7
088D6:  BTFSS  FD8.2
088D8:  BRA    89F6
....................  
....................    glcd_fillScreen(OFF); 
088DA:  MOVLB  6
088DC:  CLRF   x4F
088DE:  MOVLB  0
088E0:  CALL   225C
....................    strcpy(Menus.Letra,"Ajustar Vidrio?"); 
088E4:  MOVLW  06
088E6:  MOVWF  FEA
088E8:  MOVLW  38
088EA:  MOVWF  FE9
088EC:  MOVFF  FF2,64E
088F0:  BCF    FF2.7
088F2:  MOVLW  00
088F4:  CALL   128C
088F8:  TBLRD*-
088FA:  TBLRD*+
088FC:  MOVF   FF5,W
088FE:  MOVWF  FEE
08900:  IORLW  00
08902:  BNZ   88FA
08904:  MOVLB  6
08906:  BTFSC  x4E.7
08908:  BSF    FF2.7
....................    displayMenu(Menus.Letra,10,0,1,1); 
0890A:  MOVLW  06
0890C:  MOVWF  x4F
0890E:  MOVLW  38
08910:  MOVWF  x4E
08912:  MOVLW  0A
08914:  MOVWF  x50
08916:  CLRF   x51
08918:  MOVLW  01
0891A:  MOVWF  x52
0891C:  MOVWF  x53
0891E:  MOVLB  0
08920:  CALL   29C8
....................    strcpy(Menus.Letra,"SI"); 
08924:  MOVLW  06
08926:  MOVWF  FEA
08928:  MOVLW  38
0892A:  MOVWF  FE9
0892C:  MOVFF  FF2,64E
08930:  BCF    FF2.7
08932:  MOVLW  00
08934:  CALL   11F8
08938:  TBLRD*-
0893A:  TBLRD*+
0893C:  MOVF   FF5,W
0893E:  MOVWF  FEE
08940:  IORLW  00
08942:  BNZ   893A
08944:  MOVLB  6
08946:  BTFSC  x4E.7
08948:  BSF    FF2.7
....................    displayMenu(Menus.Letra,50,25,0,2); 
0894A:  MOVLW  06
0894C:  MOVWF  x4F
0894E:  MOVLW  38
08950:  MOVWF  x4E
08952:  MOVLW  32
08954:  MOVWF  x50
08956:  MOVLW  19
08958:  MOVWF  x51
0895A:  CLRF   x52
0895C:  MOVLW  02
0895E:  MOVWF  x53
08960:  MOVLB  0
08962:  CALL   29C8
....................    strcpy(Menus.Letra,"NO"); 
08966:  MOVLW  06
08968:  MOVWF  FEA
0896A:  MOVLW  38
0896C:  MOVWF  FE9
0896E:  MOVFF  FF2,64E
08972:  BCF    FF2.7
08974:  MOVLW  00
08976:  CALL   121A
0897A:  TBLRD*-
0897C:  TBLRD*+
0897E:  MOVF   FF5,W
08980:  MOVWF  FEE
08982:  IORLW  00
08984:  BNZ   897C
08986:  MOVLB  6
08988:  BTFSC  x4E.7
0898A:  BSF    FF2.7
....................    displayMenu(Menus.Letra,50,45,0,2); 
0898C:  MOVLW  06
0898E:  MOVWF  x4F
08990:  MOVLW  38
08992:  MOVWF  x4E
08994:  MOVLW  32
08996:  MOVWF  x50
08998:  MOVLW  2D
0899A:  MOVWF  x51
0899C:  CLRF   x52
0899E:  MOVLW  02
089A0:  MOVWF  x53
089A2:  MOVLB  0
089A4:  CALL   29C8
....................              
....................    if(UP || BYTE_IR[2]==0X1C) 
089A8:  BSF    F96.0
089AA:  BTFSC  F84.0
089AC:  BRA    89B8
089AE:  MOVLB  6
089B0:  MOVF   x36,W
089B2:  SUBLW  1C
089B4:  BNZ   89CE
089B6:  MOVLB  0
....................    { 
....................       AjustarUV=5;             
089B8:  MOVLW  05
089BA:  MOVLB  4
089BC:  MOVWF  x1B
....................       Menu=2; 
089BE:  MOVLW  02
089C0:  MOVWF  xE0
....................       glcd_fillScreen(OFF); 
089C2:  MOVLB  6
089C4:  CLRF   x4F
089C6:  MOVLB  0
089C8:  CALL   225C
089CC:  MOVLB  6
....................    } 
....................     
....................    if(DOWN || BYTE_IR[2]==0X52) 
089CE:  BSF    F96.1
089D0:  BTFSC  F84.1
089D2:  BRA    89DA
089D4:  MOVF   x36,W
089D6:  SUBLW  52
089D8:  BNZ   89F4
....................    { 
....................       AjustarOK=10;AjustarUP=10;AjustarUV=10; 
089DA:  MOVLW  0A
089DC:  MOVLB  4
089DE:  MOVWF  x1A
089E0:  MOVWF  x1C
089E2:  MOVWF  x1B
....................       Menu=2; 
089E4:  MOVLW  02
089E6:  MOVWF  xE0
....................       glcd_fillScreen(OFF); 
089E8:  MOVLB  6
089EA:  CLRF   x4F
089EC:  MOVLB  0
089EE:  CALL   225C
089F2:  MOVLB  6
089F4:  MOVLB  4
....................    } 
....................     
....................    } 
.................... //_----------------------------------------------------------------------------------------------------------------------------------------------    
....................  
....................  
.................... //_-------------------------------------------------------------------------------------------------------------------------------------------------------- 
....................       if(Menu==200){ //Menu de Inicio. 
089F6:  MOVF   xE0,W
089F8:  SUBLW  C8
089FA:  BTFSS  FD8.2
089FC:  BRA    8BBA
....................           
....................       if((UP)||(DOWN)||(RIGHT) || BYTE_IR[2]==0X1C) 
089FE:  BSF    F96.0
08A00:  BTFSC  F84.0
08A02:  BRA    8A1C
08A04:  BSF    F96.1
08A06:  BTFSC  F84.1
08A08:  BRA    8A1C
08A0A:  BSF    F96.2
08A0C:  BTFSC  F84.2
08A0E:  BRA    8A1C
08A10:  MOVLB  6
08A12:  MOVF   x36,W
08A14:  SUBLW  1C
08A16:  BTFSS  FD8.2
08A18:  BRA    8BA0
08A1A:  MOVLB  4
....................       { 
....................          delay_ms(1000); 
08A1C:  MOVLW  04
08A1E:  MOVLB  6
08A20:  MOVWF  x4E
08A22:  MOVLW  FA
08A24:  MOVWF  x56
08A26:  MOVLB  0
08A28:  CALL   1576
08A2C:  MOVLB  6
08A2E:  DECFSZ x4E,F
08A30:  BRA    8A22
....................          if((UP)||(DOWN)||(RIGHT) || BYTE_IR[2]==0X1C) 
08A32:  BSF    F96.0
08A34:  BTFSC  F84.0
08A36:  BRA    8A4C
08A38:  BSF    F96.1
08A3A:  BTFSC  F84.1
08A3C:  BRA    8A4C
08A3E:  BSF    F96.2
08A40:  BTFSC  F84.2
08A42:  BRA    8A4C
08A44:  MOVF   x36,W
08A46:  SUBLW  1C
08A48:  BTFSS  FD8.2
08A4A:  BRA    8B9E
....................          { 
....................             BYTE_IR[2]=0X00; 
08A4C:  CLRF   x36
....................             Display_on; 
08A4E:  BSF    F8A.1
08A50:  BCF    F93.1
....................             glcd_init(ON);             //Inicializa la glcd 
08A52:  MOVLW  01
08A54:  MOVWF  x4E
08A56:  MOVLB  0
08A58:  CALL   22B6
....................             glcd_fillScreen(OFF);      //Limpia la pantalla 
08A5C:  MOVLB  6
08A5E:  CLRF   x4F
08A60:  MOVLB  0
08A62:  CALL   225C
....................             glcd_text57(0, 0, JP, 2, ON);glcd_text57(5, 20, Cabina, 1, ON);glcd_text57(10, 40, Clase, 2, ON);              
08A66:  MOVLB  6
08A68:  CLRF   x65
08A6A:  CLRF   x66
08A6C:  MOVLW  04
08A6E:  MOVWF  x68
08A70:  MOVLW  23
08A72:  MOVWF  x67
08A74:  MOVLW  02
08A76:  MOVWF  x69
08A78:  MOVLW  01
08A7A:  MOVWF  x6A
08A7C:  MOVLB  0
08A7E:  CALL   275A
08A82:  MOVLW  05
08A84:  MOVLB  6
08A86:  MOVWF  x65
08A88:  MOVLW  14
08A8A:  MOVWF  x66
08A8C:  MOVLW  04
08A8E:  MOVWF  x68
08A90:  MOVLW  2F
08A92:  MOVWF  x67
08A94:  MOVLW  01
08A96:  MOVWF  x69
08A98:  MOVWF  x6A
08A9A:  MOVLB  0
08A9C:  CALL   275A
08AA0:  MOVLW  0A
08AA2:  MOVLB  6
08AA4:  MOVWF  x65
08AA6:  MOVLW  28
08AA8:  MOVWF  x66
08AAA:  MOVLW  04
08AAC:  MOVWF  x68
08AAE:  MOVLW  4C
08AB0:  MOVWF  x67
08AB2:  MOVLW  02
08AB4:  MOVWF  x69
08AB6:  MOVLW  01
08AB8:  MOVWF  x6A
08ABA:  MOVLB  0
08ABC:  CALL   275A
....................             glcd_update();    
08AC0:  CALL   1A42
....................             delay_ms(2000); 
08AC4:  MOVLW  08
08AC6:  MOVLB  6
08AC8:  MOVWF  x4E
08ACA:  MOVLW  FA
08ACC:  MOVWF  x56
08ACE:  MOVLB  0
08AD0:  CALL   1576
08AD4:  MOVLB  6
08AD6:  DECFSZ x4E,F
08AD8:  BRA    8ACA
....................                         
....................             glcd_fillScreen(OFF);      //Limpia la pantalla 
08ADA:  CLRF   x4F
08ADC:  MOVLB  0
08ADE:  CALL   225C
....................             displayContrasena(Contrasena[0],20,30,1);displayContrasena(Contrasena[1],40,30,0); 
08AE2:  MOVFF  522,650
08AE6:  MOVLW  14
08AE8:  MOVLB  6
08AEA:  MOVWF  x51
08AEC:  MOVLW  1E
08AEE:  MOVWF  x52
08AF0:  MOVLW  01
08AF2:  MOVWF  x53
08AF4:  MOVLB  0
08AF6:  CALL   2912
08AFA:  MOVFF  523,650
08AFE:  MOVLW  28
08B00:  MOVLB  6
08B02:  MOVWF  x51
08B04:  MOVLW  1E
08B06:  MOVWF  x52
08B08:  CLRF   x53
08B0A:  MOVLB  0
08B0C:  CALL   2912
....................             displayContrasena(Contrasena[2],60,30,0);displayContrasena(Contrasena[0],80,30,0); 
08B10:  MOVFF  524,650
08B14:  MOVLW  3C
08B16:  MOVLB  6
08B18:  MOVWF  x51
08B1A:  MOVLW  1E
08B1C:  MOVWF  x52
08B1E:  CLRF   x53
08B20:  MOVLB  0
08B22:  CALL   2912
08B26:  MOVFF  522,650
08B2A:  MOVLW  50
08B2C:  MOVLB  6
08B2E:  MOVWF  x51
08B30:  MOVLW  1E
08B32:  MOVWF  x52
08B34:  CLRF   x53
08B36:  MOVLB  0
08B38:  CALL   2912
....................             glcd_rect(0, 0, 127, 25, YES, ON);strcpy(Menus.Letra,"Clave");glcd_text57(25, 1, Menus.Letra, 3, OFF);    
08B3C:  MOVLB  6
08B3E:  CLRF   x65
08B40:  CLRF   x66
08B42:  MOVLW  7F
08B44:  MOVWF  x67
08B46:  MOVLW  19
08B48:  MOVWF  x68
08B4A:  MOVLW  01
08B4C:  MOVWF  x69
08B4E:  MOVWF  x6A
08B50:  MOVLB  0
08B52:  CALL   2698
08B56:  MOVLW  06
08B58:  MOVWF  FEA
08B5A:  MOVLW  38
08B5C:  MOVWF  FE9
08B5E:  MOVFF  FF2,64E
08B62:  BCF    FF2.7
08B64:  MOVLW  00
08B66:  CALL   0F16
08B6A:  TBLRD*-
08B6C:  TBLRD*+
08B6E:  MOVF   FF5,W
08B70:  MOVWF  FEE
08B72:  IORLW  00
08B74:  BNZ   8B6C
08B76:  MOVLB  6
08B78:  BTFSC  x4E.7
08B7A:  BSF    FF2.7
08B7C:  MOVLW  19
08B7E:  MOVWF  x65
08B80:  MOVLW  01
08B82:  MOVWF  x66
08B84:  MOVLW  06
08B86:  MOVWF  x68
08B88:  MOVLW  38
08B8A:  MOVWF  x67
08B8C:  MOVLW  03
08B8E:  MOVWF  x69
08B90:  CLRF   x6A
08B92:  MOVLB  0
08B94:  CALL   275A
....................             Menu=0; 
08B98:  MOVLB  4
08B9A:  CLRF   xE0
08B9C:  MOVLB  6
....................          } 
....................       } 
....................       else 
08B9E:  BRA    8BB8
....................       { 
....................          Display_off;Motor_off;LuzBlanca_off;LuzUV_off;Toma_off;Alarma_off; 
08BA0:  BCF    F8A.1
08BA2:  BCF    F93.1
08BA4:  BCF    F8B.6
08BA6:  BCF    F94.6
08BA8:  BCF    F8B.4
08BAA:  BCF    F94.4
08BAC:  BCF    F8B.5
08BAE:  BCF    F94.5
08BB0:  BCF    F8B.7
08BB2:  BCF    F94.7
08BB4:  BCF    F8B.3
08BB6:  BCF    F94.3
08BB8:  MOVLB  4
....................       } 
....................     } 
.................... //_--------------------------------------------------------------------------------------------------------------------------------------------------------        
....................  
....................    if(tiemporeset>=60) 
08BBA:  MOVF   xE7,W
08BBC:  SUBLW  3B
08BBE:  BC    8BD0
....................    { 
....................       glcd_init(ON); 
08BC0:  MOVLW  01
08BC2:  MOVLB  6
08BC4:  MOVWF  x4E
08BC6:  MOVLB  0
08BC8:  CALL   22B6
....................       tiemporeset=0; 
08BCC:  MOVLB  4
08BCE:  CLRF   xE7
....................    }  
.................... } 
08BD0:  GOTO   40C6
....................  
.................... } 
.................... int8 BIT_BYTE(int1 D0, int1 D1, int1 D2, int1 D3, int1 D4, int1 D5, int1 D6, int1 D7){ 
....................    int8 dato; 
08BD4:  SLEEP 
....................    dato= D7*128 + D6*64 + D5*32 + D4*16 + D3*8 + D2*4 + D1*2 +D0*1; // 0 al 255  
*
019AA:  MOVLB  6
019AC:  MOVF   x5D,W
019AE:  MULLW  80
019B0:  MOVFF  FF3,65F
019B4:  MOVF   x5C,W
019B6:  MULLW  40
019B8:  MOVF   FF3,W
019BA:  ADDWF  x5F,F
019BC:  MOVF   x5B,W
019BE:  MULLW  20
019C0:  MOVF   FF3,W
019C2:  ADDWF  x5F,F
019C4:  MOVF   x5A,W
019C6:  MULLW  10
019C8:  MOVF   FF3,W
019CA:  ADDWF  x5F,F
019CC:  MOVF   x59,W
019CE:  MULLW  08
019D0:  MOVF   FF3,W
019D2:  ADDWF  x5F,F
019D4:  MOVF   x58,W
019D6:  MULLW  04
019D8:  MOVF   FF3,W
019DA:  ADDWF  x5F,F
019DC:  BCF    FD8.0
019DE:  RLCF   x57,W
019E0:  ADDWF  x5F,W
019E2:  ADDWF  x56,W
019E4:  MOVWF  x5E
....................    return dato;  
019E6:  MOVFF  65E,01
.................... } 
019EA:  MOVLB  0
019EC:  RETLW  00
....................  

Configuration Fuses:
   Word  1: 0200   HS NOIESO NOFCMEN
   Word  2: 1E1F   BROWNOUT NOWDT BORV20 NOPUT WDT32768
   Word  3: 8000   NOPBADEN NOLPT1OSC MCLR
   Word  4: 00B0   NOSTVREN NODEBUG NOLVP NOXINST BBSIZ4K
   Word  5: C03F   NOPROTECT NOCPD NOCPB
   Word  6: E03F   NOWRT NOWRTD NOWRTC NOWRTB
   Word  7: 403F   NOEBTR NOEBTRB
