CCS PCH C Compiler, Version 4.104, 5967               28-abr.-21 14:01

               Filename: D:\Laboratorio\Cabina Extractora de Gases y  Humos\2019\Cabina Extractora Con Ductos GLCD #004588071 OP2019154\Firmware - V1.1.0\Maestro_v2.lst

               ROM used: 40344 bytes (41%)
                         Largest free fragment is 32768
               RAM used: 1508 (45%) at main() level
                         1574 (47%) worst case
               Stack:    7 worst case (6 in main + 1 for interrupts)

*
00000:  GOTO   5A54
*
00008:  MOVWF  04
0000A:  MOVFF  FD8,05
0000E:  MOVFF  FE0,06
00012:  MOVLB  0
00014:  MOVFF  FE9,0C
00018:  MOVFF  FEA,07
0001C:  MOVFF  FE1,08
00020:  MOVFF  FE2,09
00024:  MOVFF  FD9,0A
00028:  MOVFF  FDA,0B
0002C:  MOVFF  FF3,12
00030:  MOVFF  FF4,13
00034:  MOVFF  FFA,14
00038:  MOVFF  FFB,15
0003C:  MOVFF  00,0E
00040:  MOVFF  01,0F
00044:  MOVFF  02,10
00048:  MOVFF  03,11
0004C:  BTFSS  F9D.0
0004E:  GOTO   0058
00052:  BTFSC  F9E.0
00054:  GOTO   140C
00058:  MOVFF  0E,00
0005C:  MOVFF  0F,01
00060:  MOVFF  10,02
00064:  MOVFF  11,03
00068:  MOVFF  0C,FE9
0006C:  MOVFF  07,FEA
00070:  BSF    07.7
00072:  MOVFF  08,FE1
00076:  MOVFF  09,FE2
0007A:  MOVFF  0A,FD9
0007E:  MOVFF  0B,FDA
00082:  MOVFF  12,FF3
00086:  MOVFF  13,FF4
0008A:  MOVFF  14,FFA
0008E:  MOVFF  15,FFB
00092:  MOVF   04,W
00094:  MOVFF  06,FE0
00098:  MOVFF  05,FD8
0009C:  RETFIE 0
.................... //Programa para Cabina de Bioseguridad 
....................  
.................... #include <18F4685.h> 
.................... //////// Standard Header file for the PIC18F4685 device //////////////// 
.................... #device PIC18F4685 
.................... #list 
....................  
.................... #device adc=10 
.................... #fuses HS,NOWDT,NOPROTECT,NOLVP,NODEBUG,NOSTVREN,NOPUT,NOCPD,NOWRT,NOIESO,NOFCMEN,NOPBADEN,NOWRTC,NOWRTB,NOEBTR,NOEBTRB,NOCPB,NOXINST,NOLPT1OSC,NOMCLR 
.................... #use delay(clock=20000000) 
*
01514:  MOVLW  05
01516:  MOVWF  FEA
01518:  MOVLW  F4
0151A:  MOVWF  FE9
0151C:  MOVF   FEF,W
0151E:  BZ    153A
01520:  MOVLW  06
01522:  MOVWF  01
01524:  CLRF   00
01526:  DECFSZ 00,F
01528:  BRA    1526
0152A:  DECFSZ 01,F
0152C:  BRA    1524
0152E:  MOVLW  7B
01530:  MOVWF  00
01532:  DECFSZ 00,F
01534:  BRA    1532
01536:  DECFSZ FEF,F
01538:  BRA    1520
0153A:  RETLW  00
.................... #include <MATH.h> 
.................... //////////////////////////////////////////////////////////////////////////// 
.................... ////        (C) Copyright 1996,2008 Custom Computer Services            //// 
.................... //// This source code may only be used by licensed users of the CCS C   //// 
.................... //// compiler.  This source code may only be distributed to other       //// 
.................... //// licensed users of the CCS C compiler.  No other use, reproduction  //// 
.................... //// or distribution is permitted without written permission.           //// 
.................... //// Derivative programs created using this software in object code     //// 
.................... //// form are not restricted in any way.                                //// 
.................... //////////////////////////////////////////////////////////////////////////// 
.................... ////                                                                    //// 
.................... //// History:                                                           //// 
.................... ////  * 9/20/2001 :  Improvments are made to sin/cos code.              //// 
.................... ////                 The code now is small, much faster,                //// 
.................... ////                 and more accurate.                                 //// 
.................... ////  * 2/21/2007 :  Compiler handles & operator differently and does 
.................... ////                 not return generic (int8 *) so type cast is done   //// 
.................... ////                                                                    //// 
.................... //////////////////////////////////////////////////////////////////////////// 
....................  
.................... #ifndef MATH_H 
.................... #define MATH_H 
....................  
.................... #ifdef PI 
.................... #undef  PI 
.................... #endif 
.................... #define PI     3.1415926535897932 
....................  
....................  
.................... #define SQRT2  1.4142135623730950 
....................  
.................... //float const ps[4] = {5.9304945, 21.125224, 8.9403076, 0.29730279}; 
.................... //float const qs[4] = {1.0000000, 15.035723, 17.764134, 2.4934718}; 
....................  
.................... ///////////////////////////// Round Functions ////////////////////////////// 
....................  
.................... float32 CEIL_FLOOR(float32 x, unsigned int8 n) 
.................... { 
....................    float32 y, res; 
....................    unsigned int16 l; 
....................    int1 s; 
....................  
....................    s = 0; 
*
02EAA:  MOVLB  6
02EAC:  BCF    x10.0
....................    y = x; 
02EAE:  MOVFF  604,609
02EB2:  MOVFF  603,608
02EB6:  MOVFF  602,607
02EBA:  MOVFF  601,606
....................  
....................    if (x < 0) 
02EBE:  MOVFF  604,614
02EC2:  MOVFF  603,613
02EC6:  MOVFF  602,612
02ECA:  MOVFF  601,611
02ECE:  CLRF   x18
02ED0:  CLRF   x17
02ED2:  CLRF   x16
02ED4:  CLRF   x15
02ED6:  MOVLB  0
02ED8:  CALL   2330
02EDC:  BNC   2EE8
....................    { 
....................       s = 1; 
02EDE:  MOVLB  6
02EE0:  BSF    x10.0
....................       y = -y; 
02EE2:  MOVF   x07,W
02EE4:  XORLW  80
02EE6:  MOVWF  x07
....................    } 
....................  
....................    if (y <= 32768.0) 
02EE8:  MOVFF  609,614
02EEC:  MOVFF  608,613
02EF0:  MOVFF  607,612
02EF4:  MOVFF  606,611
02EF8:  MOVLB  6
02EFA:  CLRF   x18
02EFC:  CLRF   x17
02EFE:  CLRF   x16
02F00:  MOVLW  8E
02F02:  MOVWF  x15
02F04:  MOVLB  0
02F06:  CALL   2330
02F0A:  BC    2F0E
02F0C:  BNZ   2F3E
....................   res = (float32)(unsigned int16)y; 
02F0E:  MOVFF  609,614
02F12:  MOVFF  608,613
02F16:  MOVFF  607,612
02F1A:  MOVFF  606,611
02F1E:  RCALL  2D78
02F20:  MOVFF  02,616
02F24:  MOVFF  01,615
02F28:  CALL   17C2
02F2C:  MOVFF  03,60D
02F30:  MOVFF  02,60C
02F34:  MOVFF  01,60B
02F38:  MOVFF  00,60A
....................  
....................  else if (y < 10000000.0) 
02F3C:  BRA    30DC
02F3E:  MOVFF  609,614
02F42:  MOVFF  608,613
02F46:  MOVFF  607,612
02F4A:  MOVFF  606,611
02F4E:  MOVLW  80
02F50:  MOVLB  6
02F52:  MOVWF  x18
02F54:  MOVLW  96
02F56:  MOVWF  x17
02F58:  MOVLW  18
02F5A:  MOVWF  x16
02F5C:  MOVLW  96
02F5E:  MOVWF  x15
02F60:  MOVLB  0
02F62:  CALL   2330
02F66:  BTFSS  FD8.0
02F68:  BRA    30CC
....................    { 
....................   l = (unsigned int16)(y/32768.0); 
02F6A:  MOVFF  609,614
02F6E:  MOVFF  608,613
02F72:  MOVFF  607,612
02F76:  MOVFF  606,611
02F7A:  MOVLB  6
02F7C:  CLRF   x18
02F7E:  CLRF   x17
02F80:  CLRF   x16
02F82:  MOVLW  8E
02F84:  MOVWF  x15
02F86:  MOVLB  0
02F88:  CALL   17F8
02F8C:  MOVFF  03,614
02F90:  MOVFF  02,613
02F94:  MOVFF  01,612
02F98:  MOVFF  00,611
02F9C:  RCALL  2D78
02F9E:  MOVFF  02,60F
02FA2:  MOVFF  01,60E
....................       y = 32768.0*(y/32768.0 - (float32)l); 
02FA6:  MOVFF  609,614
02FAA:  MOVFF  608,613
02FAE:  MOVFF  607,612
02FB2:  MOVFF  606,611
02FB6:  MOVLB  6
02FB8:  CLRF   x18
02FBA:  CLRF   x17
02FBC:  CLRF   x16
02FBE:  MOVLW  8E
02FC0:  MOVWF  x15
02FC2:  MOVLB  0
02FC4:  CALL   17F8
02FC8:  MOVFF  00,611
02FCC:  MOVFF  01,612
02FD0:  MOVFF  02,613
02FD4:  MOVFF  03,614
02FD8:  MOVFF  60F,616
02FDC:  MOVFF  60E,615
02FE0:  CALL   17C2
02FE4:  BSF    FD8.1
02FE6:  MOVFF  614,618
02FEA:  MOVFF  613,617
02FEE:  MOVFF  612,616
02FF2:  MOVFF  611,615
02FF6:  MOVFF  03,61C
02FFA:  MOVFF  02,61B
02FFE:  MOVFF  01,61A
03002:  MOVFF  00,619
03006:  CALL   1956
0300A:  MOVLB  6
0300C:  CLRF   x14
0300E:  CLRF   x13
03010:  CLRF   x12
03012:  MOVLW  8E
03014:  MOVWF  x11
03016:  MOVFF  03,618
0301A:  MOVFF  02,617
0301E:  MOVFF  01,616
03022:  MOVFF  00,615
03026:  MOVLB  0
03028:  RCALL  2DB4
0302A:  MOVFF  03,609
0302E:  MOVFF  02,608
03032:  MOVFF  01,607
03036:  MOVFF  00,606
....................   res = 32768.0*(float32)l; 
0303A:  MOVFF  60F,616
0303E:  MOVFF  60E,615
03042:  CALL   17C2
03046:  MOVLB  6
03048:  CLRF   x14
0304A:  CLRF   x13
0304C:  CLRF   x12
0304E:  MOVLW  8E
03050:  MOVWF  x11
03052:  MOVFF  03,618
03056:  MOVFF  02,617
0305A:  MOVFF  01,616
0305E:  MOVFF  00,615
03062:  MOVLB  0
03064:  RCALL  2DB4
03066:  MOVFF  03,60D
0306A:  MOVFF  02,60C
0306E:  MOVFF  01,60B
03072:  MOVFF  00,60A
....................   res += (float32)(unsigned int16)y; 
03076:  MOVFF  609,614
0307A:  MOVFF  608,613
0307E:  MOVFF  607,612
03082:  MOVFF  606,611
03086:  RCALL  2D78
03088:  MOVFF  02,616
0308C:  MOVFF  01,615
03090:  CALL   17C2
03094:  BCF    FD8.1
03096:  MOVFF  60D,618
0309A:  MOVFF  60C,617
0309E:  MOVFF  60B,616
030A2:  MOVFF  60A,615
030A6:  MOVFF  03,61C
030AA:  MOVFF  02,61B
030AE:  MOVFF  01,61A
030B2:  MOVFF  00,619
030B6:  CALL   1956
030BA:  MOVFF  03,60D
030BE:  MOVFF  02,60C
030C2:  MOVFF  01,60B
030C6:  MOVFF  00,60A
....................  } 
....................  
....................  else 
030CA:  BRA    30DC
....................   res = y; 
030CC:  MOVFF  609,60D
030D0:  MOVFF  608,60C
030D4:  MOVFF  607,60B
030D8:  MOVFF  606,60A
....................  
....................  y = y - (float32)(unsigned int16)y; 
030DC:  MOVFF  609,614
030E0:  MOVFF  608,613
030E4:  MOVFF  607,612
030E8:  MOVFF  606,611
030EC:  RCALL  2D78
030EE:  MOVFF  02,616
030F2:  MOVFF  01,615
030F6:  CALL   17C2
030FA:  BSF    FD8.1
030FC:  MOVFF  609,618
03100:  MOVFF  608,617
03104:  MOVFF  607,616
03108:  MOVFF  606,615
0310C:  MOVFF  03,61C
03110:  MOVFF  02,61B
03114:  MOVFF  01,61A
03118:  MOVFF  00,619
0311C:  CALL   1956
03120:  MOVFF  03,609
03124:  MOVFF  02,608
03128:  MOVFF  01,607
0312C:  MOVFF  00,606
....................  
....................  if (s) 
03130:  MOVLB  6
03132:  BTFSS  x10.0
03134:  BRA    313C
....................   res = -res; 
03136:  MOVF   x0B,W
03138:  XORLW  80
0313A:  MOVWF  x0B
....................  
....................  if (y != 0) 
0313C:  MOVFF  609,614
03140:  MOVFF  608,613
03144:  MOVFF  607,612
03148:  MOVFF  606,611
0314C:  CLRF   x18
0314E:  CLRF   x17
03150:  CLRF   x16
03152:  CLRF   x15
03154:  MOVLB  0
03156:  CALL   2330
0315A:  BZ    31D4
....................  { 
....................   if (s == 1 && n == 0) 
0315C:  MOVLB  6
0315E:  BTFSS  x10.0
03160:  BRA    319A
03162:  MOVF   x05,F
03164:  BNZ   319A
....................    res -= 1.0; 
03166:  BSF    FD8.1
03168:  MOVFF  60D,618
0316C:  MOVFF  60C,617
03170:  MOVFF  60B,616
03174:  MOVFF  60A,615
03178:  CLRF   x1C
0317A:  CLRF   x1B
0317C:  CLRF   x1A
0317E:  MOVLW  7F
03180:  MOVWF  x19
03182:  MOVLB  0
03184:  CALL   1956
03188:  MOVFF  03,60D
0318C:  MOVFF  02,60C
03190:  MOVFF  01,60B
03194:  MOVFF  00,60A
03198:  MOVLB  6
....................  
....................   if (s == 0 && n == 1) 
0319A:  BTFSC  x10.0
0319C:  BRA    31D6
0319E:  DECFSZ x05,W
031A0:  BRA    31D6
....................    res += 1.0; 
031A2:  BCF    FD8.1
031A4:  MOVFF  60D,618
031A8:  MOVFF  60C,617
031AC:  MOVFF  60B,616
031B0:  MOVFF  60A,615
031B4:  CLRF   x1C
031B6:  CLRF   x1B
031B8:  CLRF   x1A
031BA:  MOVLW  7F
031BC:  MOVWF  x19
031BE:  MOVLB  0
031C0:  CALL   1956
031C4:  MOVFF  03,60D
031C8:  MOVFF  02,60C
031CC:  MOVFF  01,60B
031D0:  MOVFF  00,60A
031D4:  MOVLB  6
....................  } 
....................  if (x == 0) 
031D6:  MOVFF  604,614
031DA:  MOVFF  603,613
031DE:  MOVFF  602,612
031E2:  MOVFF  601,611
031E6:  CLRF   x18
031E8:  CLRF   x17
031EA:  CLRF   x16
031EC:  CLRF   x15
031EE:  MOVLB  0
031F0:  CALL   2330
031F4:  BNZ   3202
....................     res = 0; 
031F6:  MOVLB  6
031F8:  CLRF   x0D
031FA:  CLRF   x0C
031FC:  CLRF   x0B
031FE:  CLRF   x0A
03200:  MOVLB  0
....................  
....................  return (res); 
03202:  MOVFF  60A,00
03206:  MOVFF  60B,01
0320A:  MOVFF  60C,02
0320E:  MOVFF  60D,03
.................... } 
03212:  RETLW  00
....................  
.................... // Overloaded Functions to take care for new Data types in PCD 
.................... // Overloaded function CEIL_FLOOR() for data type - Float48 
.................... #if defined(__PCD__) 
.................... float48 CEIL_FLOOR(float48 x, unsigned int8 n) 
.................... { 
....................    float48 y, res; 
....................    unsigned int16 l; 
....................    int1 s; 
....................  
....................    s = 0; 
....................    y = x; 
....................  
....................    if (x < 0) 
....................    { 
....................       s = 1; 
....................       y = -y; 
....................    } 
....................  
....................    if (y <= 32768.0) 
....................   res = (float48)(unsigned int16)y; 
....................  
....................  else if (y < 10000000.0) 
....................    { 
....................   l = (unsigned int16)(y/32768.0); 
....................       y = 32768.0*(y/32768.0 - (float48)l); 
....................   res = 32768.0*(float32)l; 
....................   res += (float48)(unsigned int16)y; 
....................  } 
....................  
....................  else 
....................   res = y; 
....................  
....................  y = y - (float48)(unsigned int16)y; 
....................  
....................  if (s) 
....................   res = -res; 
....................  
....................  if (y != 0) 
....................  { 
....................   if (s == 1 && n == 0) 
....................    res -= 1.0; 
....................  
....................   if (s == 0 && n == 1) 
....................    res += 1.0; 
....................  } 
....................  if (x == 0) 
....................     res = 0; 
....................  
....................  return (res); 
.................... } 
....................  
....................  
.................... // Overloaded function CEIL_FLOOR() for data type - Float64 
.................... float64 CEIL_FLOOR(float64 x, unsigned int8 n) 
.................... { 
....................    float64 y, res; 
....................    unsigned int16 l; 
....................    int1 s; 
....................  
....................    s = 0; 
....................    y = x; 
....................  
....................    if (x < 0) 
....................    { 
....................       s = 1; 
....................       y = -y; 
....................    } 
....................  
....................    if (y <= 32768.0) 
....................   res = (float64)(unsigned int16)y; 
....................  
....................  else if (y < 10000000.0) 
....................    { 
....................   l = (unsigned int16)(y/32768.0); 
....................       y = 32768.0*(y/32768.0 - (float64)l); 
....................   res = 32768.0*(float64)l; 
....................   res += (float64)(unsigned int16)y; 
....................  } 
....................  
....................  else 
....................   res = y; 
....................  
....................  y = y - (float64)(unsigned int16)y; 
....................  
....................  if (s) 
....................   res = -res; 
....................  
....................  if (y != 0) 
....................  { 
....................   if (s == 1 && n == 0) 
....................    res -= 1.0; 
....................  
....................   if (s == 0 && n == 1) 
....................    res += 1.0; 
....................  } 
....................  if (x == 0) 
....................     res = 0; 
....................  
....................  return (res); 
.................... } 
.................... #endif 
....................  
.................... //////////////////////////////////////////////////////////////////////////// 
.................... //   float floor(float x) 
.................... //////////////////////////////////////////////////////////////////////////// 
.................... // Description : rounds down the number x. 
.................... // Date : N/A 
.................... // 
.................... float32 floor(float32 x) 
.................... { 
....................    return CEIL_FLOOR(x, 0); 
*
03232:  MOVFF  600,604
03236:  MOVFF  5FF,603
0323A:  MOVFF  5FE,602
0323E:  MOVFF  5FD,601
03242:  MOVLB  6
03244:  CLRF   x05
03246:  MOVLB  0
03248:  RCALL  2EAA
.................... } 
0324A:  GOTO   3356 (RETURN)
.................... // Following 2 functions are overloaded functions of floor() for PCD 
.................... // Overloaded function floor() for data type - Float48 
.................... #if defined(__PCD__) 
.................... float48 floor(float48 x) 
.................... { 
....................    return CEIL_FLOOR(x, 0); 
.................... } 
....................  
.................... // Overloaded function floor() for data type - Float64 
.................... float64 floor(float64 x) 
.................... { 
....................    return CEIL_FLOOR(x, 0); 
.................... } 
.................... #endif 
....................  
....................  
.................... //////////////////////////////////////////////////////////////////////////// 
.................... //   float ceil(float x) 
.................... //////////////////////////////////////////////////////////////////////////// 
.................... // Description : rounds up the number x. 
.................... // Date : N/A 
.................... // 
.................... float32 ceil(float32 x) 
.................... { 
....................    return CEIL_FLOOR(x, 1); 
*
03214:  MOVFF  600,604
03218:  MOVFF  5FF,603
0321C:  MOVFF  5FE,602
03220:  MOVFF  5FD,601
03224:  MOVLW  01
03226:  MOVLB  6
03228:  MOVWF  x05
0322A:  MOVLB  0
0322C:  RCALL  2EAA
.................... } 
0322E:  GOTO   330E (RETURN)
.................... // Following 2 functions are overloaded functions of ceil() for PCD 
.................... // Overloaded function ceil() for data type - Float48 
.................... #if defined(__PCD__) 
.................... float48 ceil(float48 x) 
.................... { 
....................    return CEIL_FLOOR(x, 1); 
.................... } 
....................  
.................... // Overloaded function ceil() for data type - Float64 
.................... float64 ceil(float64 x) 
.................... { 
....................    return CEIL_FLOOR(x, 1); 
.................... } 
.................... #endif 
....................  
....................  //////////////////////////////////////////////////////////////////////////// 
.................... //   float fabs(float x) 
.................... //////////////////////////////////////////////////////////////////////////// 
.................... // Description : Computes the absolute value of floating point number x 
.................... // Returns : returns the absolute value of x 
.................... // Date : N/A 
.................... // 
.................... #define fabs abs 
....................  
.................... //////////////////////////////////////////////////////////////////////////// 
.................... //   float fmod(float x) 
.................... //////////////////////////////////////////////////////////////////////////// 
.................... // Description : Computes the floating point remainder of x/y 
.................... // Returns : returns the value of x= i*y, for some integer i such that, if y 
.................... // is non zero, the result has the same isgn of x na dmagnitude less than the 
.................... // magnitude of y. If y is zero then a domain error occurs. 
.................... // Date : N/A 
.................... // 
....................  
.................... float fmod(float32 x,float32 y) 
.................... { 
....................    float32 i; 
....................    if (y!=0.0) 
*
0324E:  MOVFF  5F4,614
03252:  MOVFF  5F3,613
03256:  MOVFF  5F2,612
0325A:  MOVFF  5F1,611
0325E:  MOVLB  6
03260:  CLRF   x18
03262:  CLRF   x17
03264:  CLRF   x16
03266:  CLRF   x15
03268:  MOVLB  0
0326A:  CALL   2330
0326E:  BTFSC  FD8.2
03270:  BRA    33B2
....................    { 
....................       i=(x/y < 0.0)? ceil(x/y): floor(x/y); 
03272:  MOVFF  5F0,614
03276:  MOVFF  5EF,613
0327A:  MOVFF  5EE,612
0327E:  MOVFF  5ED,611
03282:  MOVFF  5F4,618
03286:  MOVFF  5F3,617
0328A:  MOVFF  5F2,616
0328E:  MOVFF  5F1,615
03292:  CALL   17F8
03296:  MOVFF  00,5F9
0329A:  MOVFF  01,5FA
0329E:  MOVFF  02,5FB
032A2:  MOVFF  03,5FC
032A6:  MOVFF  03,614
032AA:  MOVFF  02,613
032AE:  MOVFF  01,612
032B2:  MOVFF  00,611
032B6:  MOVLB  6
032B8:  CLRF   x18
032BA:  CLRF   x17
032BC:  CLRF   x16
032BE:  CLRF   x15
032C0:  MOVLB  0
032C2:  CALL   2330
032C6:  BNC   3310
032C8:  MOVFF  5F0,614
032CC:  MOVFF  5EF,613
032D0:  MOVFF  5EE,612
032D4:  MOVFF  5ED,611
032D8:  MOVFF  5F4,618
032DC:  MOVFF  5F3,617
032E0:  MOVFF  5F2,616
032E4:  MOVFF  5F1,615
032E8:  CALL   17F8
032EC:  MOVFF  00,5F9
032F0:  MOVFF  01,5FA
032F4:  MOVFF  02,5FB
032F8:  MOVFF  03,5FC
032FC:  MOVFF  03,600
03300:  MOVFF  02,5FF
03304:  MOVFF  01,5FE
03308:  MOVFF  00,5FD
0330C:  BRA    3214
0330E:  BRA    3356
03310:  MOVFF  5F0,614
03314:  MOVFF  5EF,613
03318:  MOVFF  5EE,612
0331C:  MOVFF  5ED,611
03320:  MOVFF  5F4,618
03324:  MOVFF  5F3,617
03328:  MOVFF  5F2,616
0332C:  MOVFF  5F1,615
03330:  CALL   17F8
03334:  MOVFF  00,5F9
03338:  MOVFF  01,5FA
0333C:  MOVFF  02,5FB
03340:  MOVFF  03,5FC
03344:  MOVFF  03,600
03348:  MOVFF  02,5FF
0334C:  MOVFF  01,5FE
03350:  MOVFF  00,5FD
03354:  BRA    3232
03356:  MOVFF  03,5F8
0335A:  MOVFF  02,5F7
0335E:  MOVFF  01,5F6
03362:  MOVFF  00,5F5
....................       return(x-(i*y)); 
03366:  MOVFF  5F8,614
0336A:  MOVFF  5F7,613
0336E:  MOVFF  5F6,612
03372:  MOVFF  5F5,611
03376:  MOVFF  5F4,618
0337A:  MOVFF  5F3,617
0337E:  MOVFF  5F2,616
03382:  MOVFF  5F1,615
03386:  RCALL  2DB4
03388:  BSF    FD8.1
0338A:  MOVFF  5F0,618
0338E:  MOVFF  5EF,617
03392:  MOVFF  5EE,616
03396:  MOVFF  5ED,615
0339A:  MOVFF  03,61C
0339E:  MOVFF  02,61B
033A2:  MOVFF  01,61A
033A6:  MOVFF  00,619
033AA:  CALL   1956
033AE:  BRA    33B2
....................    } 
....................    else 
033B0:  BRA    33B2
....................    { 
....................    #ifdef _ERRNO 
....................    { 
....................       errno=EDOM; 
....................    } 
....................    #endif 
....................    } 
.................... } 
033B2:  RETLW  00
.................... //Overloaded function for fmod() for PCD 
.................... // Overloaded function fmod() for data type - Float48 
.................... #if defined(__PCD__) 
.................... float48 fmod(float48 x,float48 y) 
.................... { 
....................    float48 i; 
....................    if (y!=0.0) 
....................    { 
....................       i=(x/y < 0.0)? ceil(x/y): floor(x/y); 
....................       return(x-(i*y)); 
....................    } 
....................    else 
....................    { 
....................    #ifdef _ERRNO 
....................    { 
....................       errno=EDOM; 
....................    } 
....................    #endif 
....................    } 
.................... } 
.................... // Overloaded function fmod() for data type - Float64 
.................... float64 fmod(float64 x,float64 y) 
.................... { 
....................    float64 i; 
....................    if (y!=0.0) 
....................    { 
....................       i=(x/y < 0.0)? ceil(x/y): floor(x/y); 
....................       return(x-(i*y)); 
....................    } 
....................    else 
....................    { 
....................    #ifdef _ERRNO 
....................    { 
....................       errno=EDOM; 
....................    } 
....................    #endif 
....................    } 
.................... } 
.................... #endif 
.................... //////////////////// Exponential and logarithmic functions //////////////////// 
.................... //////////////////////////////////////////////////////////////////////////// 
.................... //   float exp(float x) 
.................... //////////////////////////////////////////////////////////////////////////// 
.................... // Description : returns the value (e^x) 
.................... // Date : N/A 
.................... // 
.................... #define LN2 0.6931471805599453 
....................  
.................... float const pe[6] = {0.000207455774, 0.00127100575, 0.00965065093, 
....................                      0.0554965651,  0.240227138,  0.693147172}; 
....................  
....................  
.................... float32 exp(float32 x) 
.................... { 
....................    float32 y, res, r; 
....................    #if defined(__PCD__) 
....................    int8 data1; 
....................    #endif 
....................    signed int8 n; 
....................    int1 s; 
....................    #ifdef _ERRNO 
....................    if(x > 88.722838) 
....................    { 
....................       errno=ERANGE; 
....................       return(0); 
....................    } 
....................    #endif 
....................    n = (signed int16)(x/LN2); 
*
038E0:  MOVFF  5F4,614
038E4:  MOVFF  5F3,613
038E8:  MOVFF  5F2,612
038EC:  MOVFF  5F1,611
038F0:  MOVLW  18
038F2:  MOVLB  6
038F4:  MOVWF  x18
038F6:  MOVLW  72
038F8:  MOVWF  x17
038FA:  MOVLW  31
038FC:  MOVWF  x16
038FE:  MOVLW  7E
03900:  MOVWF  x15
03902:  MOVLB  0
03904:  CALL   17F8
03908:  MOVFF  03,614
0390C:  MOVFF  02,613
03910:  MOVFF  01,612
03914:  MOVFF  00,611
03918:  CALL   2D78
0391C:  MOVFF  01,601
....................    s = 0; 
03920:  MOVLB  6
03922:  BCF    x02.0
....................    y = x; 
03924:  MOVFF  5F4,5F8
03928:  MOVFF  5F3,5F7
0392C:  MOVFF  5F2,5F6
03930:  MOVFF  5F1,5F5
....................  
....................    if (x < 0) 
03934:  MOVFF  5F4,614
03938:  MOVFF  5F3,613
0393C:  MOVFF  5F2,612
03940:  MOVFF  5F1,611
03944:  CLRF   x18
03946:  CLRF   x17
03948:  CLRF   x16
0394A:  CLRF   x15
0394C:  MOVLB  0
0394E:  CALL   2330
03952:  BNC   3962
....................    { 
....................       s = 1; 
03954:  MOVLB  6
03956:  BSF    x02.0
....................       n = -n; 
03958:  NEGF   x01
....................       y = -y; 
0395A:  MOVLB  5
0395C:  MOVF   xF6,W
0395E:  XORLW  80
03960:  MOVWF  xF6
....................    } 
....................  
....................    res = 0.0; 
03962:  MOVLB  5
03964:  CLRF   xFC
03966:  CLRF   xFB
03968:  CLRF   xFA
0396A:  CLRF   xF9
.................... #if !defined(__PCD__) 
....................    *((unsigned int8 *)(&res)) = n + 0x7F; 
0396C:  MOVLW  05
0396E:  MOVLB  6
03970:  MOVWF  x04
03972:  MOVLW  F9
03974:  MOVWF  FE9
03976:  MOVFF  604,FEA
0397A:  MOVLW  7F
0397C:  ADDWF  x01,W
0397E:  MOVWF  FEF
.................... #endif 
....................  
.................... #if defined(__PCD__)  // Takes care of IEEE format for PCD 
....................    data1 = n+0x7F; 
....................    if(bit_test(data1,0)) 
....................    bit_set(*(((unsigned int8 *)(&res)+2)),7); 
....................    rotate_right(&data1,1); 
....................    bit_clear(data1,7); 
....................    *(((unsigned int8 *)(&res)+3)) = data1; 
.................... #endif 
....................  
....................    y = y/LN2 - (float32)n; 
03980:  MOVFF  5F8,614
03984:  MOVFF  5F7,613
03988:  MOVFF  5F6,612
0398C:  MOVFF  5F5,611
03990:  MOVLW  18
03992:  MOVWF  x18
03994:  MOVLW  72
03996:  MOVWF  x17
03998:  MOVLW  31
0399A:  MOVWF  x16
0399C:  MOVLW  7E
0399E:  MOVWF  x15
039A0:  MOVLB  0
039A2:  CALL   17F8
039A6:  MOVFF  00,603
039AA:  MOVFF  01,604
039AE:  MOVFF  02,605
039B2:  MOVFF  03,606
039B6:  MOVLB  6
039B8:  CLRF   x08
039BA:  MOVFF  601,607
039BE:  BTFSC  x07.7
039C0:  DECF   x08,F
039C2:  MOVLB  0
039C4:  RCALL  33B4
039C6:  BSF    FD8.1
039C8:  MOVFF  606,618
039CC:  MOVFF  605,617
039D0:  MOVFF  604,616
039D4:  MOVFF  603,615
039D8:  MOVFF  03,61C
039DC:  MOVFF  02,61B
039E0:  MOVFF  01,61A
039E4:  MOVFF  00,619
039E8:  CALL   1956
039EC:  MOVFF  03,5F8
039F0:  MOVFF  02,5F7
039F4:  MOVFF  01,5F6
039F8:  MOVFF  00,5F5
....................  
....................    r = pe[0]*y + pe[1]; 
039FC:  MOVLW  7C
039FE:  MOVLB  6
03A00:  MOVWF  x14
03A02:  MOVLW  88
03A04:  MOVWF  x13
03A06:  MOVLW  59
03A08:  MOVWF  x12
03A0A:  MOVLW  72
03A0C:  MOVWF  x11
03A0E:  MOVFF  5F8,618
03A12:  MOVFF  5F7,617
03A16:  MOVFF  5F6,616
03A1A:  MOVFF  5F5,615
03A1E:  MOVLB  0
03A20:  CALL   2DB4
03A24:  MOVFF  00,603
03A28:  MOVFF  01,604
03A2C:  MOVFF  02,605
03A30:  MOVFF  03,606
03A34:  BCF    FD8.1
03A36:  MOVFF  03,618
03A3A:  MOVFF  02,617
03A3E:  MOVFF  01,616
03A42:  MOVFF  00,615
03A46:  MOVLW  E0
03A48:  MOVLB  6
03A4A:  MOVWF  x1C
03A4C:  MOVLW  97
03A4E:  MOVWF  x1B
03A50:  MOVLW  26
03A52:  MOVWF  x1A
03A54:  MOVLW  75
03A56:  MOVWF  x19
03A58:  MOVLB  0
03A5A:  CALL   1956
03A5E:  MOVFF  03,600
03A62:  MOVFF  02,5FF
03A66:  MOVFF  01,5FE
03A6A:  MOVFF  00,5FD
....................    r = r*y + pe[2]; 
03A6E:  MOVFF  600,614
03A72:  MOVFF  5FF,613
03A76:  MOVFF  5FE,612
03A7A:  MOVFF  5FD,611
03A7E:  MOVFF  5F8,618
03A82:  MOVFF  5F7,617
03A86:  MOVFF  5F6,616
03A8A:  MOVFF  5F5,615
03A8E:  CALL   2DB4
03A92:  MOVFF  00,603
03A96:  MOVFF  01,604
03A9A:  MOVFF  02,605
03A9E:  MOVFF  03,606
03AA2:  BCF    FD8.1
03AA4:  MOVFF  03,618
03AA8:  MOVFF  02,617
03AAC:  MOVFF  01,616
03AB0:  MOVFF  00,615
03AB4:  MOVLW  C4
03AB6:  MOVLB  6
03AB8:  MOVWF  x1C
03ABA:  MOVLW  1D
03ABC:  MOVWF  x1B
03ABE:  MOVLW  1E
03AC0:  MOVWF  x1A
03AC2:  MOVLW  78
03AC4:  MOVWF  x19
03AC6:  MOVLB  0
03AC8:  CALL   1956
03ACC:  MOVFF  03,600
03AD0:  MOVFF  02,5FF
03AD4:  MOVFF  01,5FE
03AD8:  MOVFF  00,5FD
....................    r = r*y + pe[3]; 
03ADC:  MOVFF  600,614
03AE0:  MOVFF  5FF,613
03AE4:  MOVFF  5FE,612
03AE8:  MOVFF  5FD,611
03AEC:  MOVFF  5F8,618
03AF0:  MOVFF  5F7,617
03AF4:  MOVFF  5F6,616
03AF8:  MOVFF  5F5,615
03AFC:  CALL   2DB4
03B00:  MOVFF  00,603
03B04:  MOVFF  01,604
03B08:  MOVFF  02,605
03B0C:  MOVFF  03,606
03B10:  BCF    FD8.1
03B12:  MOVFF  03,618
03B16:  MOVFF  02,617
03B1A:  MOVFF  01,616
03B1E:  MOVFF  00,615
03B22:  MOVLW  5E
03B24:  MOVLB  6
03B26:  MOVWF  x1C
03B28:  MOVLW  50
03B2A:  MOVWF  x1B
03B2C:  MOVLW  63
03B2E:  MOVWF  x1A
03B30:  MOVLW  7A
03B32:  MOVWF  x19
03B34:  MOVLB  0
03B36:  CALL   1956
03B3A:  MOVFF  03,600
03B3E:  MOVFF  02,5FF
03B42:  MOVFF  01,5FE
03B46:  MOVFF  00,5FD
....................    r = r*y + pe[4]; 
03B4A:  MOVFF  600,614
03B4E:  MOVFF  5FF,613
03B52:  MOVFF  5FE,612
03B56:  MOVFF  5FD,611
03B5A:  MOVFF  5F8,618
03B5E:  MOVFF  5F7,617
03B62:  MOVFF  5F6,616
03B66:  MOVFF  5F5,615
03B6A:  CALL   2DB4
03B6E:  MOVFF  00,603
03B72:  MOVFF  01,604
03B76:  MOVFF  02,605
03B7A:  MOVFF  03,606
03B7E:  BCF    FD8.1
03B80:  MOVFF  03,618
03B84:  MOVFF  02,617
03B88:  MOVFF  01,616
03B8C:  MOVFF  00,615
03B90:  MOVLW  1A
03B92:  MOVLB  6
03B94:  MOVWF  x1C
03B96:  MOVLW  FE
03B98:  MOVWF  x1B
03B9A:  MOVLW  75
03B9C:  MOVWF  x1A
03B9E:  MOVLW  7C
03BA0:  MOVWF  x19
03BA2:  MOVLB  0
03BA4:  CALL   1956
03BA8:  MOVFF  03,600
03BAC:  MOVFF  02,5FF
03BB0:  MOVFF  01,5FE
03BB4:  MOVFF  00,5FD
....................    r = r*y + pe[5]; 
03BB8:  MOVFF  600,614
03BBC:  MOVFF  5FF,613
03BC0:  MOVFF  5FE,612
03BC4:  MOVFF  5FD,611
03BC8:  MOVFF  5F8,618
03BCC:  MOVFF  5F7,617
03BD0:  MOVFF  5F6,616
03BD4:  MOVFF  5F5,615
03BD8:  CALL   2DB4
03BDC:  MOVFF  00,603
03BE0:  MOVFF  01,604
03BE4:  MOVFF  02,605
03BE8:  MOVFF  03,606
03BEC:  BCF    FD8.1
03BEE:  MOVFF  03,618
03BF2:  MOVFF  02,617
03BF6:  MOVFF  01,616
03BFA:  MOVFF  00,615
03BFE:  MOVLW  18
03C00:  MOVLB  6
03C02:  MOVWF  x1C
03C04:  MOVLW  72
03C06:  MOVWF  x1B
03C08:  MOVLW  31
03C0A:  MOVWF  x1A
03C0C:  MOVLW  7E
03C0E:  MOVWF  x19
03C10:  MOVLB  0
03C12:  CALL   1956
03C16:  MOVFF  03,600
03C1A:  MOVFF  02,5FF
03C1E:  MOVFF  01,5FE
03C22:  MOVFF  00,5FD
....................  
....................    res = res*(1.0 + y*r); 
03C26:  MOVFF  5F8,614
03C2A:  MOVFF  5F7,613
03C2E:  MOVFF  5F6,612
03C32:  MOVFF  5F5,611
03C36:  MOVFF  600,618
03C3A:  MOVFF  5FF,617
03C3E:  MOVFF  5FE,616
03C42:  MOVFF  5FD,615
03C46:  CALL   2DB4
03C4A:  BCF    FD8.1
03C4C:  MOVLB  6
03C4E:  CLRF   x18
03C50:  CLRF   x17
03C52:  CLRF   x16
03C54:  MOVLW  7F
03C56:  MOVWF  x15
03C58:  MOVFF  03,61C
03C5C:  MOVFF  02,61B
03C60:  MOVFF  01,61A
03C64:  MOVFF  00,619
03C68:  MOVLB  0
03C6A:  CALL   1956
03C6E:  MOVFF  5FC,614
03C72:  MOVFF  5FB,613
03C76:  MOVFF  5FA,612
03C7A:  MOVFF  5F9,611
03C7E:  MOVFF  03,618
03C82:  MOVFF  02,617
03C86:  MOVFF  01,616
03C8A:  MOVFF  00,615
03C8E:  CALL   2DB4
03C92:  MOVFF  03,5FC
03C96:  MOVFF  02,5FB
03C9A:  MOVFF  01,5FA
03C9E:  MOVFF  00,5F9
....................  
....................    if (s) 
03CA2:  MOVLB  6
03CA4:  BTFSS  x02.0
03CA6:  BRA    3CDA
....................       res = 1.0/res; 
03CA8:  CLRF   x14
03CAA:  CLRF   x13
03CAC:  CLRF   x12
03CAE:  MOVLW  7F
03CB0:  MOVWF  x11
03CB2:  MOVFF  5FC,618
03CB6:  MOVFF  5FB,617
03CBA:  MOVFF  5FA,616
03CBE:  MOVFF  5F9,615
03CC2:  MOVLB  0
03CC4:  CALL   17F8
03CC8:  MOVFF  03,5FC
03CCC:  MOVFF  02,5FB
03CD0:  MOVFF  01,5FA
03CD4:  MOVFF  00,5F9
03CD8:  MOVLB  6
....................    return(res); 
03CDA:  MOVFF  5F9,00
03CDE:  MOVFF  5FA,01
03CE2:  MOVFF  5FB,02
03CE6:  MOVFF  5FC,03
.................... } 
03CEA:  MOVLB  0
03CEC:  RETLW  00
....................  
....................  
.................... //Overloaded function for exp() for PCD 
.................... // Overloaded function exp() for data type - Float48 
.................... #if defined(__PCD__) 
.................... float48 exp(float48 x) 
.................... { 
....................    float48 y, res, r; 
....................    int8 data1; 
....................    signed int8 n; 
....................    int1 s; 
....................    #ifdef _ERRNO 
....................    if(x > 88.722838) 
....................    { 
....................       errno=ERANGE; 
....................       return(0); 
....................    } 
....................    #endif 
....................    n = (signed int16)(x/LN2); 
....................    s = 0; 
....................    y = x; 
....................  
....................    if (x < 0) 
....................    { 
....................       s = 1; 
....................       n = -n; 
....................       y = -y; 
....................    } 
....................  
....................    res = 0.0; 
....................  
....................    data1 = n+0x7F; 
....................    if(bit_test(data1,0)) 
....................    bit_set(*(((unsigned int8 *)(&res)+4)),7); 
....................    rotate_right(&data1,1); 
....................    bit_clear(data1,7); 
....................    *(((unsigned int8 *)(&res)+5)) = data1; 
....................  
....................    y = y/LN2 - (float48)n; 
....................  
....................    r = pe[0]*y + pe[1]; 
....................    r = r*y + pe[2]; 
....................    r = r*y + pe[3]; 
....................    r = r*y + pe[4]; 
....................    r = r*y + pe[5]; 
....................  
....................    res = res*(1.0 + y*r); 
....................  
....................    if (s) 
....................       res = 1.0/res; 
....................    return(res); 
.................... } 
....................  
.................... // Overloaded function exp() for data type - Float64 
.................... float64 exp(float64 x) 
.................... { 
....................    float64 y, res, r; 
....................    unsigned int16 data1, data2; 
....................    unsigned int16 *p; 
....................    signed int16 n; 
....................    int1 s; 
....................    #ifdef _ERRNO 
....................    if(x > 709.7827128) 
....................    { 
....................       errno=ERANGE; 
....................       return(0); 
....................    } 
....................    #endif 
....................    n = (signed int16)(x/LN2); 
....................    s = 0; 
....................    y = x; 
....................  
....................    if (x < 0) 
....................    { 
....................       s = 1; 
....................       n = -n; 
....................       y = -y; 
....................    } 
....................  
....................    res = 0.0; 
....................  
.................... #if !defined(__PCD__) 
....................    *((unsigned int16 *)(&res)) = n + 0x7F; 
.................... #endif 
....................    p= (((unsigned int16 *)(&res))+3); 
....................    data1 = *p; 
....................    data2 = *p;    
....................    data1 = n + 0x3FF; 
....................    data1 = data1 <<4; 
....................    if(bit_test(data2,15)) 
....................    bit_set(data1,15); 
....................    data2 = data2 & 0x000F; 
....................    data1 ^= data2; 
....................  
....................    *(((unsigned int16 *)(&res)+3)) = data1; 
....................  
....................  
....................    y = y/LN2 - (float64)n; 
....................  
....................    r = pe[0]*y + pe[1]; 
....................    r = r*y + pe[2]; 
....................    r = r*y + pe[3]; 
....................    r = r*y + pe[4]; 
....................    r = r*y + pe[5]; 
....................  
....................    res = res*(1.0 + y*r); 
....................  
....................    if (s) 
....................       res = 1.0/res; 
....................    return(res); 
.................... } 
....................  
.................... #ENDIF 
....................  
....................  
.................... /************************************************************/ 
....................  
.................... float32 const pl[4] = {0.45145214, -9.0558803, 26.940971, -19.860189}; 
.................... float32 const ql[4] = {1.0000000,  -8.1354259, 16.780517, -9.9300943}; 
....................  
.................... //////////////////////////////////////////////////////////////////////////// 
.................... //   float log(float x) 
.................... //////////////////////////////////////////////////////////////////////////// 
.................... // Description : returns the the natural log of x 
.................... // Date : N/A 
.................... // 
.................... float32 log(float32 x) 
.................... { 
....................    float32 y, res, r, y2; 
....................    #if defined(__PCD__) 
....................    unsigned int8  data1,data2; 
....................    #endif 
....................    signed int8 n; 
....................    #ifdef _ERRNO 
....................    if(x <0) 
....................    { 
....................       errno=EDOM; 
....................    } 
....................    if(x ==0) 
....................    { 
....................       errno=ERANGE; 
....................       return(0); 
....................    } 
....................    #endif 
....................    y = x; 
*
03404:  MOVFF  5F4,5F8
03408:  MOVFF  5F3,5F7
0340C:  MOVFF  5F2,5F6
03410:  MOVFF  5F1,5F5
....................  
....................    if (y != 1.0) 
03414:  MOVFF  5F8,614
03418:  MOVFF  5F7,613
0341C:  MOVFF  5F6,612
03420:  MOVFF  5F5,611
03424:  MOVLB  6
03426:  CLRF   x18
03428:  CLRF   x17
0342A:  CLRF   x16
0342C:  MOVLW  7F
0342E:  MOVWF  x15
03430:  MOVLB  0
03432:  CALL   2330
03436:  BTFSC  FD8.2
03438:  BRA    38C2
....................    { 
.................... #if !defined(__PCD__) 
....................     *((unsigned int8 *)(&y)) = 0x7E;  
0343A:  MOVLW  05
0343C:  MOVLB  6
0343E:  MOVWF  x07
03440:  MOVLW  F5
03442:  MOVWF  FE9
03444:  MOVFF  607,FEA
03448:  MOVLW  7E
0344A:  MOVWF  FEF
.................... #endif 
....................  
.................... #if defined(__PCD__) // Takes care of IEEE format 
....................    data2 = *(((unsigned int8 *)(&y))+3); 
....................    *(((unsigned int8 *)(&y))+3) = 0x3F; 
....................    data1 = *(((unsigned int8 *)(&y))+2); 
....................    bit_clear(data1,7); 
....................    *(((unsigned int8 *)(&y))+2) = data1; 
....................    if(bit_test(data2,7)) 
....................    bit_set(*(((unsigned int8 *)(&y))+3),7); 
.................... #endif 
....................  
....................       y = (y - 1.0)/(y + 1.0); 
0344C:  BSF    FD8.1
0344E:  MOVFF  5F8,618
03452:  MOVFF  5F7,617
03456:  MOVFF  5F6,616
0345A:  MOVFF  5F5,615
0345E:  CLRF   x1C
03460:  CLRF   x1B
03462:  CLRF   x1A
03464:  MOVLW  7F
03466:  MOVWF  x19
03468:  MOVLB  0
0346A:  CALL   1956
0346E:  MOVFF  00,606
03472:  MOVFF  01,607
03476:  MOVFF  02,608
0347A:  MOVFF  03,609
0347E:  BCF    FD8.1
03480:  MOVFF  5F8,618
03484:  MOVFF  5F7,617
03488:  MOVFF  5F6,616
0348C:  MOVFF  5F5,615
03490:  MOVLB  6
03492:  CLRF   x1C
03494:  CLRF   x1B
03496:  CLRF   x1A
03498:  MOVLW  7F
0349A:  MOVWF  x19
0349C:  MOVLB  0
0349E:  CALL   1956
034A2:  MOVFF  609,614
034A6:  MOVFF  608,613
034AA:  MOVFF  607,612
034AE:  MOVFF  606,611
034B2:  MOVFF  03,618
034B6:  MOVFF  02,617
034BA:  MOVFF  01,616
034BE:  MOVFF  00,615
034C2:  CALL   17F8
034C6:  MOVFF  03,5F8
034CA:  MOVFF  02,5F7
034CE:  MOVFF  01,5F6
034D2:  MOVFF  00,5F5
....................  
....................       y2=y*y; 
034D6:  MOVFF  5F8,614
034DA:  MOVFF  5F7,613
034DE:  MOVFF  5F6,612
034E2:  MOVFF  5F5,611
034E6:  MOVFF  5F8,618
034EA:  MOVFF  5F7,617
034EE:  MOVFF  5F6,616
034F2:  MOVFF  5F5,615
034F6:  RCALL  2DB4
034F8:  MOVFF  03,604
034FC:  MOVFF  02,603
03500:  MOVFF  01,602
03504:  MOVFF  00,601
....................  
....................       res = pl[0]*y2 + pl[1]; 
03508:  MOVLW  BC
0350A:  MOVLB  6
0350C:  MOVWF  x14
0350E:  MOVLW  24
03510:  MOVWF  x13
03512:  MOVLW  67
03514:  MOVWF  x12
03516:  MOVLW  7D
03518:  MOVWF  x11
0351A:  MOVFF  604,618
0351E:  MOVFF  603,617
03522:  MOVFF  602,616
03526:  MOVFF  601,615
0352A:  MOVLB  0
0352C:  RCALL  2DB4
0352E:  MOVFF  00,606
03532:  MOVFF  01,607
03536:  MOVFF  02,608
0353A:  MOVFF  03,609
0353E:  BCF    FD8.1
03540:  MOVFF  03,618
03544:  MOVFF  02,617
03548:  MOVFF  01,616
0354C:  MOVFF  00,615
03550:  MOVLW  E3
03552:  MOVLB  6
03554:  MOVWF  x1C
03556:  MOVLW  E4
03558:  MOVWF  x1B
0355A:  MOVLW  90
0355C:  MOVWF  x1A
0355E:  MOVLW  82
03560:  MOVWF  x19
03562:  MOVLB  0
03564:  CALL   1956
03568:  MOVFF  03,5FC
0356C:  MOVFF  02,5FB
03570:  MOVFF  01,5FA
03574:  MOVFF  00,5F9
....................       res = res*y2 + pl[2]; 
03578:  MOVFF  5FC,614
0357C:  MOVFF  5FB,613
03580:  MOVFF  5FA,612
03584:  MOVFF  5F9,611
03588:  MOVFF  604,618
0358C:  MOVFF  603,617
03590:  MOVFF  602,616
03594:  MOVFF  601,615
03598:  RCALL  2DB4
0359A:  MOVFF  00,606
0359E:  MOVFF  01,607
035A2:  MOVFF  02,608
035A6:  MOVFF  03,609
035AA:  BCF    FD8.1
035AC:  MOVFF  03,618
035B0:  MOVFF  02,617
035B4:  MOVFF  01,616
035B8:  MOVFF  00,615
035BC:  MOVLW  1C
035BE:  MOVLB  6
035C0:  MOVWF  x1C
035C2:  MOVLW  87
035C4:  MOVWF  x1B
035C6:  MOVLW  57
035C8:  MOVWF  x1A
035CA:  MOVLW  83
035CC:  MOVWF  x19
035CE:  MOVLB  0
035D0:  CALL   1956
035D4:  MOVFF  03,5FC
035D8:  MOVFF  02,5FB
035DC:  MOVFF  01,5FA
035E0:  MOVFF  00,5F9
....................       res = res*y2 + pl[3]; 
035E4:  MOVFF  5FC,614
035E8:  MOVFF  5FB,613
035EC:  MOVFF  5FA,612
035F0:  MOVFF  5F9,611
035F4:  MOVFF  604,618
035F8:  MOVFF  603,617
035FC:  MOVFF  602,616
03600:  MOVFF  601,615
03604:  CALL   2DB4
03608:  MOVFF  00,606
0360C:  MOVFF  01,607
03610:  MOVFF  02,608
03614:  MOVFF  03,609
03618:  BCF    FD8.1
0361A:  MOVFF  03,618
0361E:  MOVFF  02,617
03622:  MOVFF  01,616
03626:  MOVFF  00,615
0362A:  MOVLW  AB
0362C:  MOVLB  6
0362E:  MOVWF  x1C
03630:  MOVLW  E1
03632:  MOVWF  x1B
03634:  MOVLW  9E
03636:  MOVWF  x1A
03638:  MOVLW  83
0363A:  MOVWF  x19
0363C:  MOVLB  0
0363E:  CALL   1956
03642:  MOVFF  03,5FC
03646:  MOVFF  02,5FB
0364A:  MOVFF  01,5FA
0364E:  MOVFF  00,5F9
....................  
....................       r = ql[0]*y2 + ql[1]; 
03652:  MOVLB  6
03654:  CLRF   x14
03656:  CLRF   x13
03658:  CLRF   x12
0365A:  MOVLW  7F
0365C:  MOVWF  x11
0365E:  MOVFF  604,618
03662:  MOVFF  603,617
03666:  MOVFF  602,616
0366A:  MOVFF  601,615
0366E:  MOVLB  0
03670:  CALL   2DB4
03674:  MOVFF  00,606
03678:  MOVFF  01,607
0367C:  MOVFF  02,608
03680:  MOVFF  03,609
03684:  BCF    FD8.1
03686:  MOVFF  03,618
0368A:  MOVFF  02,617
0368E:  MOVFF  01,616
03692:  MOVFF  00,615
03696:  MOVLW  B4
03698:  MOVLB  6
0369A:  MOVWF  x1C
0369C:  MOVLW  2A
0369E:  MOVWF  x1B
036A0:  MOVLW  82
036A2:  MOVWF  x1A
036A4:  MOVWF  x19
036A6:  MOVLB  0
036A8:  CALL   1956
036AC:  MOVFF  03,600
036B0:  MOVFF  02,5FF
036B4:  MOVFF  01,5FE
036B8:  MOVFF  00,5FD
....................       r = r*y2 + ql[2]; 
036BC:  MOVFF  600,614
036C0:  MOVFF  5FF,613
036C4:  MOVFF  5FE,612
036C8:  MOVFF  5FD,611
036CC:  MOVFF  604,618
036D0:  MOVFF  603,617
036D4:  MOVFF  602,616
036D8:  MOVFF  601,615
036DC:  CALL   2DB4
036E0:  MOVFF  00,606
036E4:  MOVFF  01,607
036E8:  MOVFF  02,608
036EC:  MOVFF  03,609
036F0:  BCF    FD8.1
036F2:  MOVFF  03,618
036F6:  MOVFF  02,617
036FA:  MOVFF  01,616
036FE:  MOVFF  00,615
03702:  MOVLW  80
03704:  MOVLB  6
03706:  MOVWF  x1C
03708:  MOVLW  3E
0370A:  MOVWF  x1B
0370C:  MOVLW  06
0370E:  MOVWF  x1A
03710:  MOVLW  83
03712:  MOVWF  x19
03714:  MOVLB  0
03716:  CALL   1956
0371A:  MOVFF  03,600
0371E:  MOVFF  02,5FF
03722:  MOVFF  01,5FE
03726:  MOVFF  00,5FD
....................       r = r*y2 + ql[3]; 
0372A:  MOVFF  600,614
0372E:  MOVFF  5FF,613
03732:  MOVFF  5FE,612
03736:  MOVFF  5FD,611
0373A:  MOVFF  604,618
0373E:  MOVFF  603,617
03742:  MOVFF  602,616
03746:  MOVFF  601,615
0374A:  CALL   2DB4
0374E:  MOVFF  00,606
03752:  MOVFF  01,607
03756:  MOVFF  02,608
0375A:  MOVFF  03,609
0375E:  BCF    FD8.1
03760:  MOVFF  03,618
03764:  MOVFF  02,617
03768:  MOVFF  01,616
0376C:  MOVFF  00,615
03770:  MOVLW  AB
03772:  MOVLB  6
03774:  MOVWF  x1C
03776:  MOVLW  E1
03778:  MOVWF  x1B
0377A:  MOVLW  9E
0377C:  MOVWF  x1A
0377E:  MOVLW  82
03780:  MOVWF  x19
03782:  MOVLB  0
03784:  CALL   1956
03788:  MOVFF  03,600
0378C:  MOVFF  02,5FF
03790:  MOVFF  01,5FE
03794:  MOVFF  00,5FD
....................  
....................       res = y*res/r; 
03798:  MOVFF  5F8,614
0379C:  MOVFF  5F7,613
037A0:  MOVFF  5F6,612
037A4:  MOVFF  5F5,611
037A8:  MOVFF  5FC,618
037AC:  MOVFF  5FB,617
037B0:  MOVFF  5FA,616
037B4:  MOVFF  5F9,615
037B8:  CALL   2DB4
037BC:  MOVFF  00,606
037C0:  MOVFF  01,607
037C4:  MOVFF  02,608
037C8:  MOVFF  03,609
037CC:  MOVFF  03,614
037D0:  MOVFF  02,613
037D4:  MOVFF  01,612
037D8:  MOVFF  00,611
037DC:  MOVFF  600,618
037E0:  MOVFF  5FF,617
037E4:  MOVFF  5FE,616
037E8:  MOVFF  5FD,615
037EC:  CALL   17F8
037F0:  MOVFF  03,5FC
037F4:  MOVFF  02,5FB
037F8:  MOVFF  01,5FA
037FC:  MOVFF  00,5F9
.................... #if !defined(__PCD__) 
....................       n = *((unsigned int8 *)(&x)) - 0x7E; 
03800:  MOVLW  05
03802:  MOVLB  6
03804:  MOVWF  x07
03806:  MOVLW  F1
03808:  MOVWF  FE9
0380A:  MOVFF  607,FEA
0380E:  MOVLW  7E
03810:  SUBWF  FEF,W
03812:  MOVWF  x05
.................... #endif 
.................... #if defined(__PCD__)  
....................     data1 = *(((unsigned int8 *)(&x)+3)); 
....................     rotate_left(&data1,1); 
....................     data2 = *(((unsigned int8 *)(&x)+2)); 
....................     if(bit_test (data2,7)) 
....................       bit_set(data1,0); 
....................     n = data1 - 0x7E; 
.................... #endif 
....................  
....................       if (n<0)  
03814:  BTFSC  x05.7
03816:  BRA    381A
03818:  BRA    3844
....................          r = -(float32)-n; 
0381A:  MOVLW  00
0381C:  BSF    FD8.0
0381E:  SUBFWB x05,W
03820:  CLRF   x08
03822:  MOVWF  x07
03824:  BTFSC  x07.7
03826:  DECF   x08,F
03828:  MOVLB  0
0382A:  RCALL  33B4
0382C:  MOVFF  00,5FD
03830:  MOVF   01,W
03832:  XORLW  80
03834:  MOVLB  5
03836:  MOVWF  xFE
03838:  MOVFF  02,5FF
0383C:  MOVFF  03,600
....................       else 
03840:  BRA    3862
03842:  MOVLB  6
....................          r = (float32)n; 
03844:  CLRF   x08
03846:  MOVFF  605,607
0384A:  BTFSC  x07.7
0384C:  DECF   x08,F
0384E:  MOVLB  0
03850:  RCALL  33B4
03852:  MOVFF  03,600
03856:  MOVFF  02,5FF
0385A:  MOVFF  01,5FE
0385E:  MOVFF  00,5FD
....................  
....................       res += r*LN2; 
03862:  MOVFF  600,614
03866:  MOVFF  5FF,613
0386A:  MOVFF  5FE,612
0386E:  MOVFF  5FD,611
03872:  MOVLW  18
03874:  MOVLB  6
03876:  MOVWF  x18
03878:  MOVLW  72
0387A:  MOVWF  x17
0387C:  MOVLW  31
0387E:  MOVWF  x16
03880:  MOVLW  7E
03882:  MOVWF  x15
03884:  MOVLB  0
03886:  CALL   2DB4
0388A:  BCF    FD8.1
0388C:  MOVFF  5FC,618
03890:  MOVFF  5FB,617
03894:  MOVFF  5FA,616
03898:  MOVFF  5F9,615
0389C:  MOVFF  03,61C
038A0:  MOVFF  02,61B
038A4:  MOVFF  01,61A
038A8:  MOVFF  00,619
038AC:  CALL   1956
038B0:  MOVFF  03,5FC
038B4:  MOVFF  02,5FB
038B8:  MOVFF  01,5FA
038BC:  MOVFF  00,5F9
....................    } 
....................  
....................    else 
038C0:  BRA    38CE
....................       res = 0.0; 
038C2:  MOVLB  5
038C4:  CLRF   xFC
038C6:  CLRF   xFB
038C8:  CLRF   xFA
038CA:  CLRF   xF9
038CC:  MOVLB  0
....................  
....................    return(res); 
038CE:  MOVFF  5F9,00
038D2:  MOVFF  5FA,01
038D6:  MOVFF  5FB,02
038DA:  MOVFF  5FC,03
.................... } 
038DE:  RETLW  00
....................  
.................... //Overloaded function for log() for PCD 
.................... // Overloaded function log() for data type - Float48 
.................... #if defined(__PCD__) 
.................... float48 log(float48 x) 
.................... { 
....................    float48 y, res, r, y2; 
....................    unsigned int8  data1,data2; 
....................    signed int8 n; 
....................    #ifdef _ERRNO 
....................    if(x <0) 
....................    { 
....................       errno=EDOM; 
....................    } 
....................    if(x ==0) 
....................    { 
....................       errno=ERANGE; 
....................       return(0); 
....................    } 
....................    #endif 
....................    y = x; 
....................  
....................    if (y != 1.0) 
....................    { 
....................     
....................    #if !defined(__PCD__) 
....................        *((unsigned int8 *)(&y)) = 0x7E;  
....................    #endif 
....................       data2 = *(((unsigned int8 *)(&y))+5); 
....................       *(((unsigned int8 *)(&y))+5) = 0x3F; 
....................       data1 = *(((unsigned int8 *)(&y))+4); 
....................       bit_clear(data1,7); 
....................       *(((unsigned int8 *)(&y))+4) = data1; 
....................    
....................       if(bit_test(data2,7)) 
....................          bit_set(*(((unsigned int8 *)(&y))+4),7); 
....................       y = (y - 1.0)/(y + 1.0); 
....................  
....................       y2=y*y; 
....................  
....................       res = pl[0]*y2 + pl[1]; 
....................       res = res*y2 + pl[2]; 
....................       res = res*y2 + pl[3]; 
....................  
....................       r = ql[0]*y2 + ql[1]; 
....................       r = r*y2 + ql[2]; 
....................       r = r*y2 + ql[3]; 
....................  
....................       res = y*res/r; 
....................  
....................     data1 = *(((unsigned int8 *)(&x)+5)); 
....................     rotate_left(&data1,1); 
....................     data2 = *(((unsigned int8 *)(&x)+4)); 
....................     if(bit_test (data2,7)) 
....................        bit_set(data1,0); 
....................       
....................     n = data1 - 0x7E; 
....................  
....................       if (n<0) 
....................          r = -(float48)-n; 
....................       else 
....................          r = (float48)n; 
....................  
....................       res += r*LN2; 
....................    } 
....................  
....................    else 
....................       res = 0.0; 
....................  
....................    return(res); 
.................... } 
....................  
.................... // Overloaded function log() for data type - Float48 
.................... #if defined(__PCD__) 
.................... float32 const pl_64[4] = {0.45145214, -9.0558803, 26.940971, -19.860189}; 
.................... float32 const ql_64[4] = {1.0000000,  -8.1354259, 16.780517, -9.9300943}; 
.................... #endif 
.................... float64 log(float64 x) 
.................... { 
....................    float64 y, res, r, y2; 
....................    unsigned int16  data1,data2; 
....................    unsigned int16 *p; 
....................    signed int16 n; 
....................    #ifdef _ERRNO 
....................    if(x <0) 
....................    { 
....................       errno=EDOM; 
....................    } 
....................    if(x ==0) 
....................    { 
....................       errno=ERANGE; 
....................       return(0); 
....................    } 
....................    #endif 
....................    y = x; 
....................  
....................    if (y != 1.0) 
....................    { 
....................    #if !defined(__PCD__) 
....................        *((unsigned int8 *)(&y)) = 0x7E;  
....................    #endif 
....................       p= (((unsigned int16 *)(&y))+3); 
....................       data1 = *p; 
....................       data2 = *p; 
....................       data1 = 0x3FE; 
....................       data1 = data1 <<4; 
....................       if(bit_test (data2,15)) 
....................       bit_set(data1,15); 
....................       data2 = data2 & 0x000F; 
....................       data1 ^=data2; 
....................  
....................       *p = data1; 
....................  
....................       y = (y - 1.0)/(y + 1.0); 
....................  
....................       y2=y*y; 
....................  
....................       res = pl_64[0]*y2 + pl_64[1]; 
....................       res = res*y2 + pl_64[2]; 
....................       res = res*y2 + pl_64[3]; 
....................  
....................       r = ql_64[0]*y2 + ql_64[1]; 
....................       r = r*y2 + ql_64[2]; 
....................       r = r*y2 + ql_64[3]; 
....................  
....................       res = y*res/r; 
....................   
....................       p= (((unsigned int16 *)(&x))+3); 
....................       data1 = *p; 
....................       bit_clear(data1,15); 
....................       data1 = data1 >>4;     
....................       n = data1 - 0x3FE; 
....................  
....................  
....................       if (n<0) 
....................          r = -(float64)-n; 
....................       else 
....................          r = (float64)n; 
....................  
....................       res += r*LN2; 
....................    } 
....................  
....................    else 
....................       res = 0.0; 
....................  
....................    return(res); 
.................... } 
.................... #endif 
....................  
....................  
.................... #define LN10 2.3025850929940456 
....................  
.................... //////////////////////////////////////////////////////////////////////////// 
.................... //   float log10(float x) 
.................... //////////////////////////////////////////////////////////////////////////// 
.................... // Description : returns the the log base 10 of x 
.................... // Date : N/A 
.................... // 
.................... float32 log10(float32 x) 
.................... { 
....................    float32 r; 
....................  
....................    r = log(x); 
....................    r = r/LN10; 
....................    return(r); 
.................... } 
....................  
.................... //Overloaded functions for log10() for PCD 
.................... // Overloaded function log10() for data type - Float48 
.................... #if defined(__PCD__) 
.................... float48 log10(float48 x) 
.................... { 
....................    float48 r; 
....................  
....................    r = log(x); 
....................    r = r/LN10; 
....................    return(r); 
.................... } 
....................  
.................... // Overloaded function log10() for data type - Float64 
.................... float64 log10(float64 x) 
.................... { 
....................    float64 r; 
....................  
....................    r = log(x); 
....................    r = r/LN10; 
....................    return(r); 
.................... } 
.................... #endif 
.................... //////////////////////////////////////////////////////////////////////////// 
.................... //   float modf(float x) 
.................... //////////////////////////////////////////////////////////////////////////// 
.................... // Description :breaks the argument value int integral and fractional parts, 
.................... // ach of which have the same sign as the argument.  It stores the integral part 
.................... // as a float in the object pointed to by the iptr 
.................... // Returns : returns the signed fractional part of value. 
.................... // Date : N/A 
.................... // 
....................  
.................... float32 modf(float32 value,float32 *iptr) 
.................... { 
....................    *iptr=(value < 0.0)? ceil(value): floor(value); 
....................    return(value - *iptr); 
.................... } 
.................... //Overloaded functions for modf() for PCD 
.................... // Overloaded function modf() for data type - Float48 
.................... #if defined(__PCD__) 
.................... float48 modf(float48 value,float48 *iptr) 
.................... { 
....................    *iptr=(value < 0.0)? ceil(value): floor(value); 
....................    return(value - *iptr); 
.................... } 
.................... // Overloaded function modf() for data type - Float64 
.................... float64 modf(float64 value,float64 *iptr) 
.................... { 
....................    *iptr=(value < 0.0)? ceil(value): floor(value); 
....................    return(value - *iptr); 
.................... } 
.................... #endif 
....................  
.................... //////////////////////////////////////////////////////////////////////////// 
.................... //   float pwr(float x,float y) 
.................... //////////////////////////////////////////////////////////////////////////// 
.................... // Description : returns the value (x^y) 
.................... // Date : N/A 
.................... // Note : 0 is returned when the function will generate an imaginary number 
.................... // 
.................... float32 pwr(float32 x,float32 y) 
.................... { 
....................    if(0 > x && fmod(y, 1) == 0) { 
....................       if(fmod(y, 2) == 0) { 
....................          return (exp(log(-x) * y)); 
....................       } else { 
....................          return (-exp(log(-x) * y)); 
....................       } 
....................    } else if(0 > x && fmod(y, 1) != 0) { 
....................       return 0; 
....................    } else { 
....................       if(x != 0 || 0 >= y) { 
....................          return (exp(log(x) * y)); 
....................       } 
....................    } 
.................... } 
.................... //Overloaded functions for pwr() for PCD 
.................... // Overloaded function pwr() for data type - Float48 
.................... #if defined(__PCD__) 
.................... float48 pwr(float48 x,float48 y) 
.................... { 
....................    if(0 > x && fmod(y, 1) == 0) { 
....................       if(fmod(y, 2) == 0) { 
....................          return (exp(log(-x) * y)); 
....................       } else { 
....................          return (-exp(log(-x) * y)); 
....................       } 
....................    } else if(0 > x && fmod(y, 1) != 0) { 
....................       return 0; 
....................    } else { 
....................       if(x != 0 || 0 >= y) { 
....................          return (exp(log(x) * y)); 
....................       } 
....................    } 
.................... } 
.................... // Overloaded function pwr() for data type - Float64 
.................... float64 pwr(float64 x,float64 y) 
.................... { 
....................    if(0 > x && fmod(y, 1) == 0) { 
....................       if(fmod(y, 2) == 0) { 
....................          return (exp(log(-x) * y)); 
....................       } else { 
....................          return (-exp(log(-x) * y)); 
....................       } 
....................    } else if(0 > x && fmod(y, 1) != 0) { 
....................       return 0; 
....................    } else { 
....................       if(x != 0 || 0 >= y) { 
....................          return (exp(log(x) * y)); 
....................       } 
....................    } 
.................... } 
.................... #endif 
....................  
.................... //////////////////// Power functions //////////////////// 
....................  
.................... //////////////////////////////////////////////////////////////////////////// 
.................... //   float pow(float x,float y) 
.................... //////////////////////////////////////////////////////////////////////////// 
.................... // Description : returns the value (x^y) 
.................... // Date : N/A 
.................... // Note : 0 is returned when the function will generate an imaginary number 
.................... // 
.................... float32 pow(float32 x,float32 y) 
.................... { 
....................    if(0 > x && fmod(y, 1) == 0) { 
*
03CEE:  MOVFF  5E8,614
03CF2:  MOVFF  5E7,613
03CF6:  MOVFF  5E6,612
03CFA:  MOVFF  5E5,611
03CFE:  MOVLB  6
03D00:  CLRF   x18
03D02:  CLRF   x17
03D04:  CLRF   x16
03D06:  CLRF   x15
03D08:  MOVLB  0
03D0A:  CALL   2330
03D0E:  BTFSS  FD8.0
03D10:  BRA    3EC4
03D12:  MOVFF  5EC,5F0
03D16:  MOVFF  5EB,5EF
03D1A:  MOVFF  5EA,5EE
03D1E:  MOVFF  5E9,5ED
03D22:  MOVLB  5
03D24:  CLRF   xF4
03D26:  CLRF   xF3
03D28:  CLRF   xF2
03D2A:  MOVLW  7F
03D2C:  MOVWF  xF1
03D2E:  MOVLB  0
03D30:  CALL   324E
03D34:  MOVFF  00,5ED
03D38:  MOVFF  01,5EE
03D3C:  MOVFF  02,5EF
03D40:  MOVFF  03,5F0
03D44:  MOVFF  03,614
03D48:  MOVFF  02,613
03D4C:  MOVFF  01,612
03D50:  MOVFF  00,611
03D54:  MOVLB  6
03D56:  CLRF   x18
03D58:  CLRF   x17
03D5A:  CLRF   x16
03D5C:  CLRF   x15
03D5E:  MOVLB  0
03D60:  CALL   2330
03D64:  BTFSS  FD8.2
03D66:  BRA    3EC4
....................       if(fmod(y, 2) == 0) { 
03D68:  MOVFF  5EC,5F0
03D6C:  MOVFF  5EB,5EF
03D70:  MOVFF  5EA,5EE
03D74:  MOVFF  5E9,5ED
03D78:  MOVLB  5
03D7A:  CLRF   xF4
03D7C:  CLRF   xF3
03D7E:  CLRF   xF2
03D80:  MOVLW  80
03D82:  MOVWF  xF1
03D84:  MOVLB  0
03D86:  CALL   324E
03D8A:  MOVFF  00,5ED
03D8E:  MOVFF  01,5EE
03D92:  MOVFF  02,5EF
03D96:  MOVFF  03,5F0
03D9A:  MOVFF  03,614
03D9E:  MOVFF  02,613
03DA2:  MOVFF  01,612
03DA6:  MOVFF  00,611
03DAA:  MOVLB  6
03DAC:  CLRF   x18
03DAE:  CLRF   x17
03DB0:  CLRF   x16
03DB2:  CLRF   x15
03DB4:  MOVLB  0
03DB6:  CALL   2330
03DBA:  BNZ   3E3E
....................          return (exp(log(-x) * y)); 
03DBC:  MOVFF  5E5,5ED
03DC0:  MOVLB  5
03DC2:  MOVF   xE6,W
03DC4:  XORLW  80
03DC6:  MOVWF  xEE
03DC8:  MOVFF  5E7,5EF
03DCC:  MOVFF  5E8,5F0
03DD0:  MOVFF  5E8,5F4
03DD4:  MOVFF  5E7,5F3
03DD8:  MOVWF  xF2
03DDA:  MOVFF  5E5,5F1
03DDE:  MOVLB  0
03DE0:  CALL   3404
03DE4:  MOVFF  00,5ED
03DE8:  MOVFF  01,5EE
03DEC:  MOVFF  02,5EF
03DF0:  MOVFF  03,5F0
03DF4:  MOVFF  03,614
03DF8:  MOVFF  02,613
03DFC:  MOVFF  01,612
03E00:  MOVFF  00,611
03E04:  MOVFF  5EC,618
03E08:  MOVFF  5EB,617
03E0C:  MOVFF  5EA,616
03E10:  MOVFF  5E9,615
03E14:  CALL   2DB4
03E18:  MOVFF  00,5ED
03E1C:  MOVFF  01,5EE
03E20:  MOVFF  02,5EF
03E24:  MOVFF  03,5F0
03E28:  MOVFF  03,5F4
03E2C:  MOVFF  02,5F3
03E30:  MOVFF  01,5F2
03E34:  MOVFF  00,5F1
03E38:  RCALL  38E0
03E3A:  BRA    3FF8
....................       } else { 
03E3C:  BRA    3EC2
....................          return (-exp(log(-x) * y)); 
03E3E:  MOVFF  5E5,5ED
03E42:  MOVLB  5
03E44:  MOVF   xE6,W
03E46:  XORLW  80
03E48:  MOVWF  xEE
03E4A:  MOVFF  5E7,5EF
03E4E:  MOVFF  5E8,5F0
03E52:  MOVFF  5E8,5F4
03E56:  MOVFF  5E7,5F3
03E5A:  MOVWF  xF2
03E5C:  MOVFF  5E5,5F1
03E60:  MOVLB  0
03E62:  CALL   3404
03E66:  MOVFF  00,5ED
03E6A:  MOVFF  01,5EE
03E6E:  MOVFF  02,5EF
03E72:  MOVFF  03,5F0
03E76:  MOVFF  03,614
03E7A:  MOVFF  02,613
03E7E:  MOVFF  01,612
03E82:  MOVFF  00,611
03E86:  MOVFF  5EC,618
03E8A:  MOVFF  5EB,617
03E8E:  MOVFF  5EA,616
03E92:  MOVFF  5E9,615
03E96:  CALL   2DB4
03E9A:  MOVFF  00,5ED
03E9E:  MOVFF  01,5EE
03EA2:  MOVFF  02,5EF
03EA6:  MOVFF  03,5F0
03EAA:  MOVFF  03,5F4
03EAE:  MOVFF  02,5F3
03EB2:  MOVFF  01,5F2
03EB6:  MOVFF  00,5F1
03EBA:  RCALL  38E0
03EBC:  MOVLW  80
03EBE:  XORWF  01,F
03EC0:  BRA    3FF8
....................       } 
....................    } else if(0 > x && fmod(y, 1) != 0) { 
03EC2:  BRA    3FF8
03EC4:  MOVFF  5E8,614
03EC8:  MOVFF  5E7,613
03ECC:  MOVFF  5E6,612
03ED0:  MOVFF  5E5,611
03ED4:  MOVLB  6
03ED6:  CLRF   x18
03ED8:  CLRF   x17
03EDA:  CLRF   x16
03EDC:  CLRF   x15
03EDE:  MOVLB  0
03EE0:  CALL   2330
03EE4:  BNC   3F46
03EE6:  MOVFF  5EC,5F0
03EEA:  MOVFF  5EB,5EF
03EEE:  MOVFF  5EA,5EE
03EF2:  MOVFF  5E9,5ED
03EF6:  MOVLB  5
03EF8:  CLRF   xF4
03EFA:  CLRF   xF3
03EFC:  CLRF   xF2
03EFE:  MOVLW  7F
03F00:  MOVWF  xF1
03F02:  MOVLB  0
03F04:  CALL   324E
03F08:  MOVFF  00,5ED
03F0C:  MOVFF  01,5EE
03F10:  MOVFF  02,5EF
03F14:  MOVFF  03,5F0
03F18:  MOVFF  03,614
03F1C:  MOVFF  02,613
03F20:  MOVFF  01,612
03F24:  MOVFF  00,611
03F28:  MOVLB  6
03F2A:  CLRF   x18
03F2C:  CLRF   x17
03F2E:  CLRF   x16
03F30:  CLRF   x15
03F32:  MOVLB  0
03F34:  CALL   2330
03F38:  BZ    3F46
....................       return 0; 
03F3A:  CLRF   00
03F3C:  CLRF   01
03F3E:  CLRF   02
03F40:  CLRF   03
03F42:  BRA    3FF8
....................    } else { 
03F44:  BRA    3FF8
....................       if(x != 0 || 0 >= y) { 
03F46:  MOVFF  5E8,614
03F4A:  MOVFF  5E7,613
03F4E:  MOVFF  5E6,612
03F52:  MOVFF  5E5,611
03F56:  MOVLB  6
03F58:  CLRF   x18
03F5A:  CLRF   x17
03F5C:  CLRF   x16
03F5E:  CLRF   x15
03F60:  MOVLB  0
03F62:  CALL   2330
03F66:  BNZ   3F8C
03F68:  MOVFF  5EC,614
03F6C:  MOVFF  5EB,613
03F70:  MOVFF  5EA,612
03F74:  MOVFF  5E9,611
03F78:  MOVLB  6
03F7A:  CLRF   x18
03F7C:  CLRF   x17
03F7E:  CLRF   x16
03F80:  CLRF   x15
03F82:  MOVLB  0
03F84:  CALL   2330
03F88:  BC    3F8C
03F8A:  BNZ   3FF8
....................          return (exp(log(x) * y)); 
03F8C:  MOVFF  5E8,5F4
03F90:  MOVFF  5E7,5F3
03F94:  MOVFF  5E6,5F2
03F98:  MOVFF  5E5,5F1
03F9C:  CALL   3404
03FA0:  MOVFF  00,5ED
03FA4:  MOVFF  01,5EE
03FA8:  MOVFF  02,5EF
03FAC:  MOVFF  03,5F0
03FB0:  MOVFF  03,614
03FB4:  MOVFF  02,613
03FB8:  MOVFF  01,612
03FBC:  MOVFF  00,611
03FC0:  MOVFF  5EC,618
03FC4:  MOVFF  5EB,617
03FC8:  MOVFF  5EA,616
03FCC:  MOVFF  5E9,615
03FD0:  CALL   2DB4
03FD4:  MOVFF  00,5ED
03FD8:  MOVFF  01,5EE
03FDC:  MOVFF  02,5EF
03FE0:  MOVFF  03,5F0
03FE4:  MOVFF  03,5F4
03FE8:  MOVFF  02,5F3
03FEC:  MOVFF  01,5F2
03FF0:  MOVFF  00,5F1
03FF4:  RCALL  38E0
03FF6:  BRA    3FF8
....................       } 
....................    } 
.................... } 
03FF8:  RETLW  00
.................... //Overloaded functions for pow() for PCD 
.................... // Overloaded function for pow() data type - Float48 
.................... #if defined(__PCD__) 
.................... float48 pow(float48 x,float48 y) 
.................... { 
....................    if(0 > x && fmod(y, 1) == 0) { 
....................       if(fmod(y, 2) == 0) { 
....................          return (exp(log(-x) * y)); 
....................       } else { 
....................          return (-exp(log(-x) * y)); 
....................       } 
....................    } else if(0 > x && fmod(y, 1) != 0) { 
....................       return 0; 
....................    } else { 
....................       if(x != 0 || 0 >= y) { 
....................          return (exp(log(x) * y)); 
....................       } 
....................    } 
.................... } 
....................  
.................... // Overloaded function pow() for data type - Float64 
.................... float64 pow(float64 x,float64 y) 
.................... { 
....................    if(0 > x && fmod(y, 1) == 0) { 
....................       if(fmod(y, 2) == 0) { 
....................          return (exp(log(-x) * y)); 
....................       } else { 
....................          return (-exp(log(-x) * y)); 
....................       } 
....................    } else if(0 > x && fmod(y, 1) != 0) { 
....................       return 0; 
....................    } else { 
....................       if(x != 0 || 0 >= y) { 
....................          return (exp(log(x) * y)); 
....................       } 
....................    } 
.................... } 
.................... #endif 
....................  
.................... //////////////////////////////////////////////////////////////////////////// 
.................... //   float sqrt(float x) 
.................... //////////////////////////////////////////////////////////////////////////// 
.................... // Description : returns the square root of x 
.................... // Date : N/A 
.................... // 
.................... float32 sqrt(float32 x) 
.................... { 
....................    float32 y, res; 
....................    #if defined(__PCD__) 
....................    unsigned int16 data1,data2; 
....................    #endif 
....................    BYTE *p; 
....................  
....................    #ifdef _ERRNO 
....................    if(x < 0) 
....................    { 
....................       errno=EDOM; 
....................    } 
....................    #endif 
....................  
....................    if( x<=0.0) 
....................       return(0.0); 
....................  
....................    y=x; 
....................     
....................    #if !defined(__PCD__) 
....................     p=&y; 
....................    (*p)=(BYTE)((((unsigned int16)(*p)) + 127) >> 1); 
....................    #endif 
....................     
....................    #if defined(__PCD__) 
....................     p = (((unsigned int8 *)(&y))+3); 
....................     data1 = *(((unsigned int8 *)(&y))+3); 
....................     data2 = *(((unsigned int8 *)(&y))+2); 
....................     rotate_left(&data1,1);     
....................     if(bit_test(data2,7))     
....................     bit_set(data1,0);     
....................     data1 = ((data1+127) >>1); 
....................     bit_clear(data2,7); 
....................     if(bit_test(data1,0)) 
....................     bit_set(data2,7); 
....................     data1 = data1 >>1; 
....................     *(((unsigned int8 *)(&y))+3) = data1; 
....................     *(((unsigned int8 *)(&y))+2) = data2; 
....................      
....................   #endif 
....................  
....................    do { 
....................       res=y; 
....................       y+=(x/y); 
....................  
....................       #if !defined(__PCD__) 
....................      (*p)--; 
....................    #endif 
....................     
....................    #if defined(__PCD__) 
....................     data1 = *(((unsigned int8 *)(&y))+3); 
....................     data2 = *(((unsigned int8 *)(&y))+2); 
....................     rotate_left(&data1,1); 
....................     if(bit_test(data2,7)) 
....................     bit_set(data1,0);     
....................     data1--; 
....................     bit_clear(data2,7); 
....................     if(bit_test(data1,0)) 
....................     bit_set(data2,7); 
....................     data1 = data1 >>1; 
....................     *(((unsigned int8 *)(&y))+3) = data1; 
....................     *(((unsigned int8 *)(&y))+2) = data2; 
....................      
....................   #endif 
....................    } while(res != y); 
....................  
....................    return(res); 
.................... } 
.................... //Overloaded functions for sqrt() for PCD 
.................... // Overloaded function sqrt() for data type - Float48 
.................... #if defined(__PCD__) 
.................... float48 sqrt(float48 x) 
.................... { 
....................    float48 y, res; 
....................    unsigned int16 data1,data2; 
....................    BYTE *p; 
....................  
....................    #ifdef _ERRNO 
....................    if(x < 0) 
....................    { 
....................       errno=EDOM; 
....................    } 
....................    #endif 
....................  
....................    if( x<=0.0) 
....................       return(0.0); 
....................  
....................    y=x; 
....................     
....................    #if !defined(__PCD__) 
....................     p=&y; 
....................    (*p)=(BYTE)((((unsigned int16)(*p)) + 127) >> 1); 
....................    #endif 
....................     
....................    #if defined(__PCD__) 
....................     p = (((unsigned int8 *)(&y))+5); 
....................     data1 = *(((unsigned int8 *)(&y))+5); 
....................     data2 = *(((unsigned int8 *)(&y))+4); 
....................     rotate_left(&data1,1); 
....................     if(bit_test(data2,7)) 
....................     bit_set(data1,0);     
....................     data1 = ((data1+127) >>1); 
....................     bit_clear(data2,7); 
....................     if(bit_test(data1,0)) 
....................     bit_set(data2,7); 
....................     data1 = data1 >>1; 
....................     *(((unsigned int8 *)(&y))+5) = data1; 
....................     *(((unsigned int8 *)(&y))+4) = data2; 
....................      
....................   #endif 
....................  
....................    do { 
....................       res=y; 
....................       y+=(x/y); 
....................  
....................       #if !defined(__PCD__) 
....................      (*p)--; 
....................    #endif 
....................     
....................     data1 = *(((unsigned int8 *)(&y))+5); 
....................     data2 = *(((unsigned int8 *)(&y))+4); 
....................     rotate_left(&data1,1); 
....................     if(bit_test(data2,7)) 
....................     bit_set(data1,0);     
....................     data1--; 
....................     bit_clear(data2,7); 
....................     if(bit_test(data1,0)) 
....................     bit_set(data2,7); 
....................     data1 = data1 >>1; 
....................     *(((unsigned int8 *)(&y))+5) = data1; 
....................     *(((unsigned int8 *)(&y))+4) = data2; 
....................      
....................    } while(res != y); 
....................  
....................    return(res); 
.................... } 
....................  
.................... // Overloaded function sqrt() for data type - Float64 
.................... float64 sqrt(float64 x) 
.................... { 
....................    float64 y, res; 
....................    unsigned int16 *p; 
....................    unsigned int16 temp1,temp2; 
....................  
....................    #ifdef _ERRNO 
....................    if(x < 0) 
....................    { 
....................       errno=EDOM; 
....................    } 
....................    #endif 
....................  
....................    if( x<=0.0) 
....................       return(0.0); 
....................  
....................    y=x; 
....................    p= (((unsigned int16 *)(&y))+3); 
....................    temp1 = *p; 
....................    temp2 = *p; 
....................    bit_clear(temp1,15); 
....................    temp1 = (temp1>>4)+1023; 
....................    temp1 = temp1 >> 1; 
....................    temp1 = (temp1<<4) & 0xFFF0; 
....................    if(bit_test(temp2,15)) 
....................    bit_set(temp1,15); 
....................    temp2 = temp2 & 0x000F; 
....................    temp1 ^= temp2; 
....................     
....................    (*p) = temp1; 
....................     
....................    do { 
....................       res=y; 
....................       y+=(x/y); 
....................      temp1 = *p; 
....................      temp2 = *p; 
....................      bit_clear(temp1,15); 
....................      temp1 = (temp1>>4); 
....................      temp1--; 
....................      temp1 = (temp1<<4) & 0xFFF0; 
....................      if(bit_test(temp2,15)) 
....................      bit_set(temp1,15); 
....................      temp2 = temp2 & 0x000F; 
....................      temp1 ^= temp2; 
....................      (*p) = temp1; 
....................  
....................    } while(res != y); 
....................  
....................    return(res); 
.................... } 
.................... #endif 
....................  
.................... ////////////////////////////// Trig Functions ////////////////////////////// 
.................... #ifdef PI_DIV_BY_TWO 
.................... #undef PI_DIV_BY_TWO 
.................... #endif 
.................... #define PI_DIV_BY_TWO   1.5707963267948966 
.................... #ifdef TWOBYPI 
.................... #undef TWOBYPI 
.................... #define TWOBYPI          0.6366197723675813 
.................... #endif 
.................... //////////////////////////////////////////////////////////////////////////// 
.................... //   float cos(float x) 
.................... //////////////////////////////////////////////////////////////////////////// 
.................... // Description : returns the cosine value of the angle x, which is in radian 
.................... // Date : 9/20/2001 
.................... // 
.................... float32 cos(float32 x) 
.................... { 
....................    float32 y, t, t2 = 1.0; 
....................    unsigned int8 quad, i; 
....................    float32 frac; 
....................    float32 p[6] = {                    //by the series definition for cosine 
....................       -0.5,                            // sum ( ( (-1)^n * x^2n )/(2n)! ) 
....................        0.04166666666667, 
....................       -0.00138888888889, 
....................        0.00002480158730, 
....................       -0.00000027557319, 
....................        0.00000000208767, 
....................       //-0.00000000001147, 
....................       // 0.00000000000005 
....................    }; 
....................  
....................    if (x < 0) x = -x;                  // absolute value of input 
....................  
....................    quad = (unsigned int8)(x / PI_DIV_BY_TWO);    // quadrant 
....................    frac = (x / PI_DIV_BY_TWO) - quad;  // fractional part of input 
....................    quad = quad % 4;                    // quadrant (0 to 3) 
....................  
....................    if (quad == 0 || quad == 2) 
....................       t = frac * PI_DIV_BY_TWO; 
....................    else if (quad == 1) 
....................       t = (1-frac) * PI_DIV_BY_TWO; 
....................    else // should be 3 
....................       t = (frac-1) * PI_DIV_BY_TWO; 
....................  
....................    y = 1.0; 
....................    t = t * t; 
....................    for (i = 0; i <= 5; i++) 
....................    { 
....................       t2 = t2 * t; 
....................       y = y + p[i] * t2; 
....................    } 
....................  
....................    if (quad == 2 || quad == 1) 
....................       y = -y;  // correct sign 
....................  
....................    return (y); 
.................... } 
....................  
....................  
.................... //Overloaded functions for cos() for PCD 
.................... // Overloaded function cos() for data type - Float48 
.................... #if defined(__PCD__) 
.................... float48 cos(float48 x) 
.................... { 
....................    float48 y, t, t2 = 1.0; 
....................    unsigned int8 quad, i; 
....................    float48 frac; 
....................    float48 p[6] = {                    //by the series definition for cosine 
....................       -0.5,                            // sum ( ( (-1)^n * x^2n )/(2n)! ) 
....................        0.04166666666667, 
....................       -0.00138888888889, 
....................        0.00002480158730, 
....................       -0.00000027557319, 
....................        0.00000000208767, 
....................       //-0.00000000001147, 
....................       // 0.00000000000005 
....................    }; 
....................  
....................    if (x < 0) x = -x;                  // absolute value of input 
....................  
....................    quad = (unsigned int8)(x / PI_DIV_BY_TWO);    // quadrant 
....................    frac = (x / PI_DIV_BY_TWO) - quad;  // fractional part of input 
....................    quad = quad % 4;                    // quadrant (0 to 3) 
....................  
....................    if (quad == 0 || quad == 2) 
....................       t = frac * PI_DIV_BY_TWO; 
....................    else if (quad == 1) 
....................       t = (1-frac) * PI_DIV_BY_TWO; 
....................    else // should be 3 
....................       t = (frac-1) * PI_DIV_BY_TWO; 
....................  
....................    y = 0.999999999781; 
....................    t = t * t; 
....................    for (i = 0; i <= 5; i++) 
....................    { 
....................       t2 = t2 * t; 
....................       y = y + p[i] * t2; 
....................    } 
....................  
....................    if (quad == 2 || quad == 1) 
....................       y = -y;  // correct sign 
....................  
....................    return (y); 
.................... } 
....................  
.................... // Overloaded function cos() for data type - Float48 
.................... float64 cos(float64 x) 
.................... { 
....................    float64 y, t, t2 = 1.0; 
....................    unsigned int8 quad, i; 
....................    float64 frac; 
....................    float64 p[6] = {                    //by the series definition for cosine 
....................       -0.5,                            // sum ( ( (-1)^n * x^2n )/(2n)! ) 
....................        0.04166666666667, 
....................       -0.00138888888889, 
....................        0.00002480158730, 
....................       -0.00000027557319, 
....................        0.00000000208767, 
....................       //-0.00000000001147, 
....................       // 0.00000000000005 
....................    }; 
....................  
....................    if (x < 0) x = -x;                  // absolute value of input 
....................  
....................    quad = (unsigned int8)(x / PI_DIV_BY_TWO);    // quadrant 
....................    frac = (x / PI_DIV_BY_TWO) - quad;  // fractional part of input 
....................    quad = quad % 4;                    // quadrant (0 to 3) 
....................  
....................    if (quad == 0 || quad == 2) 
....................       t = frac * PI_DIV_BY_TWO; 
....................    else if (quad == 1) 
....................       t = (1-frac) * PI_DIV_BY_TWO; 
....................    else // should be 3 
....................       t = (frac-1) * PI_DIV_BY_TWO; 
....................  
....................    y = 0.999999999781; 
....................    t = t * t; 
....................    for (i = 0; i <= 5; i++) 
....................    { 
....................       t2 = t2 * t; 
....................       y = y + p[i] * t2; 
....................    } 
....................  
....................    if (quad == 2 || quad == 1) 
....................       y = -y;  // correct sign 
....................  
....................    return (y); 
.................... } 
....................  
.................... #endif 
....................  
.................... //////////////////////////////////////////////////////////////////////////// 
.................... //   float sin(float x) 
.................... //////////////////////////////////////////////////////////////////////////// 
.................... // Description : returns the sine value of the angle x, which is in radian 
.................... // Date : 9/20/2001 
.................... // 
.................... float32 sin(float32 x) 
.................... { 
....................    return cos(x - PI_DIV_BY_TWO); 
.................... } 
....................  
.................... //Overloaded functions for sin() for PCD 
.................... // Overloaded function sin() for data type - Float48 
.................... #if defined(__PCD__) 
.................... float48 sin(float48 x) 
.................... { 
....................    return cos(x - PI_DIV_BY_TWO); 
.................... } 
....................  
.................... // Overloaded function sin() for data type - Float48 
.................... float64 sin(float64 x) 
.................... { 
....................    return cos(x - PI_DIV_BY_TWO); 
.................... } 
.................... #endif 
....................  
.................... //////////////////////////////////////////////////////////////////////////// 
.................... //   float tan(float x) 
.................... //////////////////////////////////////////////////////////////////////////// 
.................... // Description : returns the tangent value of the angle x, which is in radian 
.................... // Date : 9/20/2001 
.................... // 
.................... float32 tan(float32 x) 
.................... { 
....................    float32 c, s; 
....................  
....................    c = cos(x); 
....................    if (c == 0.0) 
....................       return (1.0e+36); 
....................  
....................    s = sin(x); 
....................    return(s/c); 
.................... } 
.................... //Overloaded functions for tan() for PCD 
.................... // Overloaded function tan() for data type - Float48 
.................... #if defined(__PCD__) 
.................... float48 tan(float48 x) 
.................... { 
....................    float48 c, s; 
....................  
....................    c = cos(x); 
....................    if (c == 0.0) 
....................       return (1.0e+36); 
....................  
....................    s = sin(x); 
....................    return(s/c); 
.................... } 
....................  
.................... // Overloaded function tan() for data type - Float48 
.................... float64 tan(float64 x) 
.................... { 
....................    float64 c, s; 
....................  
....................    c = cos(x); 
....................    if (c == 0.0) 
....................       return (1.0e+36); 
....................  
....................    s = sin(x); 
....................    return(s/c); 
.................... } 
.................... #endif 
....................  
.................... float32 const pas[3] = {0.49559947, -4.6145309, 5.6036290}; 
.................... float32 const qas[3] = {1.0000000,  -5.5484666, 5.6036290}; 
....................  
.................... float32 ASIN_COS(float32 x, unsigned int8 n) 
.................... { 
....................    float32 y, res, r, y2; 
....................    int1 s; 
....................    #ifdef _ERRNO 
....................    if(x <-1 || x > 1) 
....................    { 
....................       errno=EDOM; 
....................    } 
....................    #endif 
....................    s = 0; 
....................    y = x; 
....................  
....................    if (x < 0) 
....................    { 
....................       s = 1; 
....................       y = -y; 
....................    } 
....................  
....................    if (y > 0.5) 
....................    { 
....................       y = sqrt((1.0 - y)/2.0); 
....................       n += 2; 
....................    } 
....................  
....................    y2=y*y; 
....................  
....................    res = pas[0]*y2 + pas[1]; 
....................    res = res*y2 + pas[2]; 
....................  
....................    r = qas[0]*y2 + qas[1]; 
....................    r = r*y2 + qas[2]; 
....................  
....................    res = y*res/r; 
....................  
....................    if (n & 2)     // |x| > 0.5 
....................       res = PI_DIV_BY_TWO - 2.0*res; 
....................    if (s) 
....................       res = -res; 
....................    if (n & 1)           // take arccos 
....................       res = PI_DIV_BY_TWO - res; 
....................  
....................    return(res); 
.................... } 
....................  
.................... //Overloaded functions for ASIN_COS() for PCD 
.................... // Overloaded function ASIN_COS() for data type - Float48 
.................... #if defined(__PCD__) 
.................... float48 ASIN_COS(float48 x, unsigned int8 n) 
.................... { 
....................    float48 y, res, r, y2; 
....................    int1 s; 
....................    #ifdef _ERRNO 
....................    if(x <-1 || x > 1) 
....................    { 
....................       errno=EDOM; 
....................    } 
....................    #endif 
....................    s = 0; 
....................    y = x; 
....................  
....................    if (x < 0) 
....................    { 
....................       s = 1; 
....................       y = -y; 
....................    } 
....................  
....................    if (y > 0.5) 
....................    { 
....................       y = sqrt((1.0 - y)/2.0); 
....................       n += 2; 
....................    } 
....................  
....................    y2=y*y; 
....................  
....................    res = pas[0]*y2 + pas[1]; 
....................    res = res*y2 + pas[2]; 
....................  
....................    r = qas[0]*y2 + qas[1]; 
....................    r = r*y2 + qas[2]; 
....................  
....................    res = y*res/r; 
....................  
....................    if (n & 2)     // |x| > 0.5 
....................       res = PI_DIV_BY_TWO - 2.0*res; 
....................    if (s) 
....................       res = -res; 
....................    if (n & 1)           // take arccos 
....................       res = PI_DIV_BY_TWO - res; 
....................  
....................    return(res); 
.................... } 
....................  
.................... // Overloaded function ASIN_COS() for data type - Float64 
.................... float64 ASIN_COS(float64 x, unsigned int8 n) 
.................... { 
....................    float64 y, res, r, y2; 
....................    int1 s; 
....................    #ifdef _ERRNO 
....................    if(x <-1 || x > 1) 
....................    { 
....................       errno=EDOM; 
....................    } 
....................    #endif 
....................    s = 0; 
....................    y = x; 
....................  
....................    if (x < 0) 
....................    { 
....................       s = 1; 
....................       y = -y; 
....................    } 
....................  
....................    if (y > 0.5) 
....................    { 
....................       y = sqrt((1.0 - y)/2.0); 
....................       n += 2; 
....................    } 
....................  
....................    y2=y*y; 
....................  
....................    res = pas[0]*y2 + pas[1]; 
....................    res = res*y2 + pas[2]; 
....................  
....................    r = qas[0]*y2 + qas[1]; 
....................    r = r*y2 + qas[2]; 
....................  
....................    res = y*res/r; 
....................  
....................    if (n & 2)     // |x| > 0.5 
....................       res = PI_DIV_BY_TWO - 2.0*res; 
....................    if (s) 
....................       res = -res; 
....................    if (n & 1)           // take arccos 
....................       res = PI_DIV_BY_TWO - res; 
....................  
....................    return(res); 
.................... } 
.................... #endif 
....................  
.................... //////////////////////////////////////////////////////////////////////////// 
.................... //   float asin(float x) 
.................... //////////////////////////////////////////////////////////////////////////// 
.................... // Description : returns the arcsine value of the value x. 
.................... // Date : N/A 
.................... // 
.................... float32 asin(float32 x) 
.................... { 
....................    float32 r; 
....................  
....................    r = ASIN_COS(x, 0); 
....................    return(r); 
.................... } 
.................... //Overloaded functions for asin() for PCD 
.................... // Overloaded function asin() for data type - Float48 
.................... #if defined(__PCD__) 
.................... float48 asin(float48 x) 
.................... { 
....................    float48 r; 
....................  
....................    r = ASIN_COS(x, 0); 
....................    return(r); 
.................... } 
....................  
.................... // Overloaded function asin() for data type - Float64 
.................... float64 asin(float64 x) 
.................... { 
....................    float64 r; 
....................  
....................    r = ASIN_COS(x, 0); 
....................    return(r); 
.................... } 
.................... #endif 
....................  
.................... //////////////////////////////////////////////////////////////////////////// 
.................... //   float acos(float x) 
.................... //////////////////////////////////////////////////////////////////////////// 
.................... // Description : returns the arccosine value of the value x. 
.................... // Date : N/A 
.................... // 
.................... float32 acos(float32 x) 
.................... { 
....................    float32 r; 
....................  
....................    r = ASIN_COS(x, 1); 
....................    return(r); 
.................... } 
.................... //Overloaded functions for acos() for PCD 
.................... // Overloaded function acos() for data type - Float48 
.................... #if defined(__PCD__) 
.................... float48 acos(float48 x) 
.................... { 
....................    float48 r; 
....................  
....................    r = ASIN_COS(x, 1); 
....................    return(r); 
.................... } 
....................  
.................... // Overloaded function acos() for data type - Float64 
.................... float64 acos(float64 x) 
.................... { 
....................    float64 r; 
....................  
....................    r = ASIN_COS(x, 1); 
....................    return(r); 
.................... } 
.................... #endif 
....................  
.................... float32 const pat[4] = {0.17630401, 5.6710795, 22.376096, 19.818457}; 
.................... float32 const qat[4] = {1.0000000,  11.368190, 28.982246, 19.818457}; 
....................  
.................... //////////////////////////////////////////////////////////////////////////// 
.................... //   float atan(float x) 
.................... //////////////////////////////////////////////////////////////////////////// 
.................... // Description : returns the arctangent value of the value x. 
.................... // Date : N/A 
.................... // 
.................... float32 atan(float32 x) 
.................... { 
....................    float32 y, res, r; 
....................    int1 s, flag; 
....................  
....................    s = 0; 
....................    flag = 0; 
....................    y = x; 
....................  
....................    if (x < 0) 
....................    { 
....................       s = 1; 
....................       y = -y; 
....................    } 
....................  
....................    if (y > 1.0) 
....................    { 
....................       y = 1.0/y; 
....................       flag = 1; 
....................    } 
....................  
....................    res = pat[0]*y*y + pat[1]; 
....................    res = res*y*y + pat[2]; 
....................    res = res*y*y + pat[3]; 
....................  
....................    r = qat[0]*y*y + qat[1]; 
....................    r = r*y*y + qat[2]; 
....................    r = r*y*y + qat[3]; 
....................  
....................    res = y*res/r; 
....................  
....................  
....................    if (flag)                              // for |x| > 1 
....................       res = PI_DIV_BY_TWO - res; 
....................    if (s) 
....................       res = -res; 
....................  
....................    return(res); 
.................... } 
.................... //Overloaded functions for atan() for PCD 
.................... // Overloaded function atan() for data type - Float48 
.................... #if defined(__PCD__) 
.................... float48 atan(float48 x) 
.................... { 
....................    float48 y, res, r; 
....................    int1 s, flag; 
....................  
....................    s = 0; 
....................    flag = 0; 
....................    y = x; 
....................  
....................    if (x < 0) 
....................    { 
....................       s = 1; 
....................       y = -y; 
....................    } 
....................  
....................    if (y > 1.0) 
....................    { 
....................       y = 1.0/y; 
....................       flag = 1; 
....................    } 
....................  
....................    res = pat[0]*y*y + pat[1]; 
....................    res = res*y*y + pat[2]; 
....................    res = res*y*y + pat[3]; 
....................  
....................    r = qat[0]*y*y + qat[1]; 
....................    r = r*y*y + qat[2]; 
....................    r = r*y*y + qat[3]; 
....................  
....................    res = y*res/r; 
....................  
....................  
....................    if (flag)                              // for |x| > 1 
....................       res = PI_DIV_BY_TWO - res; 
....................    if (s) 
....................       res = -res; 
....................  
....................    return(res); 
.................... } 
....................  
.................... // Overloaded function atan() for data type - Float64 
.................... float64 atan(float64 x) 
.................... { 
....................    float64 y, res, r; 
....................    int1 s, flag; 
....................  
....................    s = 0; 
....................    flag = 0; 
....................    y = x; 
....................  
....................    if (x < 0) 
....................    { 
....................       s = 1; 
....................       y = -y; 
....................    } 
....................  
....................    if (y > 1.0) 
....................    { 
....................       y = 1.0/y; 
....................       flag = 1; 
....................    } 
....................  
....................    res = pat[0]*y*y + pat[1]; 
....................    res = res*y*y + pat[2]; 
....................    res = res*y*y + pat[3]; 
....................  
....................    r = qat[0]*y*y + qat[1]; 
....................    r = r*y*y + qat[2]; 
....................    r = r*y*y + qat[3]; 
....................  
....................    res = y*res/r; 
....................  
....................  
....................    if (flag)                              // for |x| > 1 
....................       res = PI_DIV_BY_TWO - res; 
....................    if (s) 
....................       res = -res; 
....................  
....................    return(res); 
.................... } 
.................... #endif 
....................  
.................... ///////////////////////////////////////////////////////////////////////////// 
.................... //   float atan2(float y, float x) 
.................... ///////////////////////////////////////////////////////////////////////////// 
.................... // Description :computes the principal value of arc tangent of y/x, using the 
.................... // signs of both the arguments to determine the quadrant of the return value 
.................... // Returns : returns the arc tangent of y/x. 
.................... // Date : N/A 
.................... // 
....................  
.................... float32 atan2(float32 y,float32 x) 
.................... { 
....................    float32 z; 
....................    int1 sign; 
....................    unsigned int8 quad; 
....................    sign=0; 
....................    quad=0; //quadrant 
....................    quad=((y<=0.0)?((x<=0.0)?3:4):((x<0.0)?2:1)); 
....................    if(y<0.0) 
....................    { 
....................       sign=1; 
....................       y=-y; 
....................    } 
....................    if(x<0.0) 
....................    { 
....................       x=-x; 
....................    } 
....................    if (x==0.0) 
....................    { 
....................       if(y==0.0) 
....................       { 
....................       #ifdef _ERRNO 
....................       { 
....................          errno=EDOM; 
....................       } 
....................       #endif 
....................       } 
....................       else 
....................       { 
....................          if(sign) 
....................          { 
....................          return (-(PI_DIV_BY_TWO)); 
....................          } 
....................          else 
....................          { 
....................          return (PI_DIV_BY_TWO); 
....................          } 
....................       } 
....................    } 
....................    else 
....................    { 
....................       z=y/x; 
....................       switch(quad) 
....................       { 
....................          case 1: 
....................          { 
....................             return atan(z); 
....................             break; 
....................          } 
....................          case 2: 
....................          { 
.................... //            return (atan(z)+PI_DIV_BY_TWO);  //2L3122 
....................             return (PI-atan(z)); 
....................             break; 
....................          } 
....................          case 3: 
....................          { 
....................             return (atan(z)-PI); 
....................             break; 
....................          } 
....................          case 4: 
....................          { 
....................             return (-atan(z)); 
....................             break; 
....................          } 
....................       } 
....................    } 
.................... } 
....................  
.................... //Overloaded functions for atan2() for PCD 
.................... // Overloaded function atan2() for data type - Float48 
.................... #if defined(__PCD__) 
.................... float48 atan2(float48 y,float48 x) 
.................... { 
....................    float48 z; 
....................    int1 sign; 
....................    unsigned int8 quad; 
....................    sign=0; 
....................    quad=0; //quadrant 
....................    quad=((y<=0.0)?((x<=0.0)?3:4):((x<0.0)?2:1)); 
....................    if(y<0.0) 
....................    { 
....................       sign=1; 
....................       y=-y; 
....................    } 
....................    if(x<0.0) 
....................    { 
....................       x=-x; 
....................    } 
....................    if (x==0.0) 
....................    { 
....................       if(y==0.0) 
....................       { 
....................       #ifdef _ERRNO 
....................       { 
....................          errno=EDOM; 
....................       } 
....................       #endif 
....................       } 
....................       else 
....................       { 
....................          if(sign) 
....................          { 
....................          return (-(PI_DIV_BY_TWO)); 
....................          } 
....................          else 
....................          { 
....................          return (PI_DIV_BY_TWO); 
....................          } 
....................       } 
....................    } 
....................    else 
....................    { 
....................       z=y/x; 
....................       switch(quad) 
....................       { 
....................          case 1: 
....................          { 
....................             return atan(z); 
....................             break; 
....................          } 
....................          case 2: 
....................          { 
.................... //            return (atan(z)+PI_DIV_BY_TWO);  //2L3122 
....................             return (PI-atan(z)); 
....................             break; 
....................          } 
....................          case 3: 
....................          { 
....................             return (atan(z)-PI); 
....................             break; 
....................          } 
....................          case 4: 
....................          { 
....................             return (-atan(z)); 
....................             break; 
....................          } 
....................       } 
....................    } 
.................... } 
....................  
.................... // Overloaded function atan2() for data type - Float64 
.................... float64 atan2(float64 y,float64 x) 
.................... { 
....................    float64 z; 
....................    int1 sign; 
....................    unsigned int8 quad; 
....................    sign=0; 
....................    quad=0; //quadrant 
....................    quad=((y<=0.0)?((x<=0.0)?3:4):((x<0.0)?2:1)); 
....................    if(y<0.0) 
....................    { 
....................       sign=1; 
....................       y=-y; 
....................    } 
....................    if(x<0.0) 
....................    { 
....................       x=-x; 
....................    } 
....................    if (x==0.0) 
....................    { 
....................       if(y==0.0) 
....................       { 
....................       #ifdef _ERRNO 
....................       { 
....................          errno=EDOM; 
....................       } 
....................       #endif 
....................       } 
....................       else 
....................       { 
....................          if(sign) 
....................          { 
....................          return (-(PI_DIV_BY_TWO)); 
....................          } 
....................          else 
....................          { 
....................          return (PI_DIV_BY_TWO); 
....................          } 
....................       } 
....................    } 
....................    else 
....................    { 
....................       z=y/x; 
....................       switch(quad) 
....................       { 
....................          case 1: 
....................          { 
....................             return atan(z); 
....................             break; 
....................          } 
....................          case 2: 
....................          { 
.................... //            return (atan(z)+PI_DIV_BY_TWO);  //2L3122 
....................             return (PI-atan(z)); 
....................             break; 
....................          } 
....................          case 3: 
....................          { 
....................             return (atan(z)-PI); 
....................             break; 
....................          } 
....................          case 4: 
....................          { 
....................             return (-atan(z)); 
....................             break; 
....................          } 
....................       } 
....................    } 
.................... } 
.................... #endif 
....................  
.................... //////////////////// Hyperbolic functions //////////////////// 
....................  
.................... //////////////////////////////////////////////////////////////////////////// 
.................... //   float cosh(float x) 
.................... //////////////////////////////////////////////////////////////////////////// 
.................... // Description : Computes the hyperbolic cosine value of x 
.................... // Returns : returns the hyperbolic cosine value of x 
.................... // Date : N/A 
.................... // 
....................  
.................... float32 cosh(float32 x) 
.................... { 
....................    return ((exp(x)+exp(-x))/2); 
.................... } 
.................... //Overloaded functions for cosh() for PCD 
.................... // Overloaded function cosh() for data type - Float48 
.................... #if defined(__PCD__) 
.................... float48 cosh(float48 x) 
.................... { 
....................    return ((exp(x)+exp(-x))/2); 
.................... } 
....................  
.................... // Overloaded function cosh() for data type - Float64 
.................... float64 cosh(float64 x) 
.................... { 
....................    return ((exp(x)+exp(-x))/2); 
.................... } 
.................... #endif 
....................  
.................... //////////////////////////////////////////////////////////////////////////// 
.................... //   float sinh(float x) 
.................... //////////////////////////////////////////////////////////////////////////// 
.................... // Description : Computes the hyperbolic sine value of x 
.................... // Returns : returns the hyperbolic sine value of x 
.................... // Date : N/A 
.................... // 
....................  
.................... float32 sinh(float32 x) 
.................... { 
....................  
....................    return ((exp(x) - exp(-x))/2); 
.................... } 
.................... //Overloaded functions for sinh() for PCD 
.................... // Overloaded function sinh() for data type - Float48 
.................... #if defined(__PCD__) 
.................... float48 sinh(float48 x) 
.................... { 
....................  
....................    return ((exp(x) - exp(-x))/2); 
.................... } 
....................  
.................... // Overloaded function sinh() for data type - Float48 
.................... float64 sinh(float64 x) 
.................... { 
....................  
....................    return ((exp(x) - exp(-x))/2); 
.................... } 
.................... #endif 
....................  
.................... //////////////////////////////////////////////////////////////////////////// 
.................... //   float tanh(float x) 
.................... //////////////////////////////////////////////////////////////////////////// 
.................... // Description : Computes the hyperbolic tangent value of x 
.................... // Returns : returns the hyperbolic tangent value of x 
.................... // Date : N/A 
.................... // 
....................  
.................... float32 tanh(float32 x) 
.................... { 
....................    return(sinh(x)/cosh(x)); 
.................... } 
.................... //Overloaded functions for tanh() for PCD 
.................... // Overloaded function tanh() for data type - Float48 
.................... #if defined(__PCD__) 
.................... float48 tanh(float48 x) 
.................... { 
....................    return(sinh(x)/cosh(x)); 
.................... } 
....................  
.................... // Overloaded function tanh() for data type - Float64 
.................... float64 tanh(float64 x) 
.................... { 
....................    return(sinh(x)/cosh(x)); 
.................... } 
.................... #endif 
....................  
.................... //////////////////////////////////////////////////////////////////////////// 
.................... //   float frexp(float x, signed int *exp) 
.................... //////////////////////////////////////////////////////////////////////////// 
.................... // Description : breaks a floating point number into a normalized fraction and an integral 
.................... // power of 2. It stores the integer in the signed int object pointed to by exp. 
.................... // Returns : returns the value x, such that x is a double with magnitude in the interval 
.................... // [1/2,1) or zero, and value equals x times 2 raised to the power *exp.If value is zero, 
.................... // both parts of the result are zero. 
.................... // Date : N/A 
.................... // 
....................  
.................... #define LOG2 .30102999566398119521 
.................... float32 frexp(float32 x, signed int8 *exp) 
.................... { 
....................    float32 res; 
....................    int1 sign = 0; 
....................    if(x == 0.0) 
....................    { 
....................       *exp=0; 
....................       return (0.0); 
....................    } 
....................    if(x < 0.0) 
....................    { 
....................      x=-x; 
....................      sign=1; 
....................    } 
....................    if (x > 1.0) 
....................    { 
....................       *exp=(ceil(log10(x)/LOG2)); 
....................       res=x/(pow(2, *exp)); 
....................       if (res == 1) 
....................       { 
....................          *exp=*exp+1; 
....................           res=.5; 
....................       } 
....................    } 
....................    else 
....................    { 
....................       if(x < 0.5) 
....................       { 
....................          *exp=-1; 
....................          res=x*2; 
....................       } 
....................       else 
....................       { 
....................          *exp=0; 
....................           res=x; 
....................       } 
....................    } 
....................    if(sign) 
....................    { 
....................       res=-res; 
....................    } 
....................    return res; 
.................... } 
....................  
.................... //Overloaded functions for frexp() for PCD 
.................... // Overloaded function frexp() for data type - Float48 
.................... #if defined(__PCD__) 
.................... float48 frexp(float48 x, signed int8 *exp) 
.................... { 
....................    float48 res; 
....................    int1 sign = 0; 
....................    if(x == 0.0) 
....................    { 
....................       *exp=0; 
....................       return (0.0); 
....................    } 
....................    if(x < 0.0) 
....................    { 
....................      x=-x; 
....................      sign=1; 
....................    } 
....................    if (x > 1.0) 
....................    { 
....................       *exp=(ceil(log10(x)/LOG2)); 
....................       res=x/(pow(2, *exp)); 
....................       if (res == 1) 
....................       { 
....................          *exp=*exp+1; 
....................           res=.5; 
....................       } 
....................    } 
....................    else 
....................    { 
....................       if(x < 0.5) 
....................       { 
....................          *exp=-1; 
....................          res=x*2; 
....................       } 
....................       else 
....................       { 
....................          *exp=0; 
....................           res=x; 
....................       } 
....................    } 
....................    if(sign) 
....................    { 
....................       res=-res; 
....................    } 
....................    return res; 
.................... } 
....................  
.................... // Overloaded function frexp() for data type - Float64 
.................... float64 frexp(float64 x, signed int8 *exp) 
.................... { 
....................    float64 res; 
....................    int1 sign = 0; 
....................    if(x == 0.0) 
....................    { 
....................       *exp=0; 
....................       return (0.0); 
....................    } 
....................    if(x < 0.0) 
....................    { 
....................      x=-x; 
....................      sign=1; 
....................    } 
....................    if (x > 1.0) 
....................    { 
....................       *exp=(ceil(log10(x)/LOG2)); 
....................       res=x/(pow(2, *exp)); 
....................       if (res == 1) 
....................       { 
....................          *exp=*exp+1; 
....................           res=.5; 
....................       } 
....................    } 
....................    else 
....................    { 
....................       if(x < 0.5) 
....................       { 
....................          *exp=-1; 
....................          res=x*2; 
....................       } 
....................       else 
....................       { 
....................          *exp=0; 
....................           res=x; 
....................       } 
....................    } 
....................    if(sign) 
....................    { 
....................       res=-res; 
....................    } 
....................    return res; 
.................... } 
.................... #endif 
....................  
.................... ////////////////////////////////////////////////////////////////////////////// 
.................... //   float ldexp(float x, signed int *exp) 
.................... ////////////////////////////////////////////////////////////////////////////// 
.................... // Description : multiplies a floating point number by an integral power of 2. 
.................... // Returns : returns the value of x times 2 raised to the power exp. 
.................... // Date : N/A 
.................... // 
....................  
.................... float32 ldexp(float32 value, signed int8 exp) 
.................... { 
....................    return (value * pow(2,exp)); 
.................... } 
.................... //Overloaded functions for ldexp() for PCD 
.................... // Overloaded function ldexp() for data type - Float48 
....................  
.................... #if defined(__PCD__) 
.................... float48 ldexp(float48 value, signed int8 exp) 
.................... { 
....................    return (value * pow(2,exp)); 
.................... } 
.................... // Overloaded function ldexp() for data type - Float64 
.................... float64 ldexp(float64 value, signed int8 exp) 
.................... { 
....................    return (value * pow(2,exp)); 
.................... } 
.................... #endif 
....................  
.................... #endif 
....................  
.................... #include "HDM64GS12.c" 
.................... ///////////////////////////////////////////////////////////////////////// 
.................... ////                           HDM64GS12.c                           //// 
.................... ////                                                                 //// 
.................... //// This file contains drivers for using a Hantronix HDM64GS12 with //// 
.................... //// a KS0108 display controller. The HDM64GS12 is 128 by 64 pixels. //// 
.................... //// The driver treats the upper left pixel as (0,0).                //// 
.................... ////                                                                 //// 
.................... //// Use #define FAST_GLCD if the target chip has at least 1k of RAM //// 
.................... //// to decrease the time it takes to update the display.            //// 
.................... //// glcd_update() must then be called to update the display after   //// 
.................... //// changing the pixel information.                                 //// 
.................... //// See ex_glcd.c for suggested usage.                              //// 
.................... //// See KS0108.c for controlling a single 64 by 64 display          //// 
.................... ///////////////////////////////////////////////////////////////////////// 
.................... ////                                                                 //// 
.................... //// LCD Pin connections:                                            //// 
.................... //// (These can be changed as needed in the following defines).      //// 
.................... ////  * 1: VSS is connected to GND                                   //// 
.................... ////  * 2: VDD is connected to +5V                                   //// 
.................... ////  * 3: V0  - LCD operating voltage (Constrast adjustment)        //// 
.................... ////  * 4: D/I - Data or Instruction is connected to B2              //// 
.................... ////  * 5: R/W - Read or Write is connected to B4                    //// 
.................... ////  * 6: Enable is connected to B5                                 //// 
.................... ////  *7-14: Data Bus 0 to 7 is connected to port d                  //// 
.................... ////  *15: Chip Select 1 is connected to B0                          //// 
.................... ////  *16: Chip Select 2 is connected to B1                          //// 
.................... ////  *17: Reset is connected to C0                                  //// 
.................... ////  *18: Negative voltage is also connected to the 20k Ohm POT     //// 
.................... ////  *19: Positive voltage for LED backlight is connected to +5V    //// 
.................... ////  *20: Negavtive voltage for LED backlight is connected to GND   //// 
.................... ////                                                                 //// 
.................... ///////////////////////////////////////////////////////////////////////// 
.................... ////                                                                 //// 
.................... ////  glcd_init(mode)                                                //// 
.................... ////     * Must be called before any other function.                 //// 
.................... ////       - mode can be ON or OFF to turn the LCD on or off         //// 
.................... ////                                                                 //// 
.................... ////  glcd_pixel(x,y,color)                                          //// 
.................... ////     * Sets the pixel to the given color.                        //// 
.................... ////       - color can be ON or OFF                                  //// 
.................... ////                                                                 //// 
.................... ////  glcd_fillScreen(color)                                         //// 
.................... ////     * Fills the entire LCD with the given color.                //// 
.................... ////       - color can be ON or OFF                                  //// 
.................... ////                                                                 //// 
.................... ////  glcd_update()                                                  //// 
.................... ////     * Write the display data stored in RAM to the LCD           //// 
.................... ////     * Only available if FAST_GLCD is defined                    //// 
.................... ////                                                                 //// 
.................... ///////////////////////////////////////////////////////////////////////// 
.................... ////        (C) Copyright 1996, 2004 Custom Computer Services        //// 
.................... //// This source code may only be used by licensed users of the CCS  //// 
.................... //// C compiler.  This source code may only be distributed to other  //// 
.................... //// licensed users of the CCS C compiler.  No other use,            //// 
.................... //// reproduction or distribution is permitted without written       //// 
.................... //// permission.  Derivative programs created using this software    //// 
.................... //// in object code form are not restricted in any way.              //// 
.................... ///////////////////////////////////////////////////////////////////////// 
....................  
....................  
....................  
.................... #ifndef HDM64GS12 
.................... #define HDM64GS12 
....................  
.................... #ifndef FAST_GLCD 
.................... #define FAST_GLCD 
....................  
.................... #ifndef GLCD_WIDTH 
.................... #define GLCD_WIDTH   128 
.................... #endif 
....................  
.................... #ifndef GLCD_CS1 
.................... #define GLCD_CS1     PIN_B2   // Chip Selection 1 
.................... #endif 
....................  
.................... #ifndef GLCD_CS2 
.................... #define GLCD_CS2     PIN_B3   // Chip Selection 2 
.................... #endif 
....................  
.................... #ifndef GLCD_DI 
.................... #define GLCD_DI      PIN_B5   // Data or Instruction input 
.................... #endif 
....................  
.................... #ifndef GLCD_RW 
.................... #define GLCD_RW      PIN_B6   // Read/Write 
.................... #endif 
....................  
.................... #ifndef GLCD_E 
.................... #define GLCD_E       PIN_B7   // Enable 
.................... #endif 
....................  
.................... #ifndef GLCD_RST 
.................... #define GLCD_RST     PIN_B4   // Reset 
.................... #endif 
....................  
.................... #define GLCD_LEFT    0 
.................... #define GLCD_RIGHT   1 
....................  
.................... #ifndef ON 
.................... #define ON           1 
.................... #endif 
....................  
.................... #ifndef OFF 
.................... #define OFF          0 
.................... #endif 
....................  
.................... ///////////////////////////////////////////////////////////////////////// 
.................... // Function Prototypes 
.................... ///////////////////////////////////////////////////////////////////////// 
.................... void glcd_init(int1 mode); 
.................... void glcd_pixel(int8 x, int8 y, int1 color); 
.................... void glcd_fillScreen(int1 color); 
.................... void glcd_writeByte(int1 side, BYTE data); 
.................... BYTE glcd_readByte(int1 side); 
.................... void glcd_update(); 
.................... ///////////////////////////////////////////////////////////////////////// 
....................  
.................... #ifdef FAST_GLCD 
.................... struct 
.................... { 
....................    int8 left[512]; 
....................    int8 right[512]; 
.................... } displayData; 
.................... #endif 
....................  
....................  
.................... // Purpose:       Initialize the LCD. 
.................... //                Call before using any other LCD function. 
.................... // Inputs:        OFF - Turns the LCD off 
.................... //                ON  - Turns the LCD on 
.................... void glcd_init(int1 mode) 
.................... { 
....................    // Initialze some pins 
....................    output_high(GLCD_RST); 
*
0171A:  BCF    F93.4
0171C:  BSF    F8A.4
....................    output_low(GLCD_E); 
0171E:  BCF    F93.7
01720:  BCF    F8A.7
....................    output_low(GLCD_CS1); 
01722:  BCF    F93.2
01724:  BCF    F8A.2
....................    output_low(GLCD_CS2); 
01726:  BCF    F93.3
01728:  BCF    F8A.3
....................  
....................    output_low(GLCD_DI);                 // Set for instruction 
0172A:  BCF    F93.5
0172C:  BCF    F8A.5
....................    glcd_writeByte(GLCD_LEFT,  0xC0);    // Specify first RAM line at the top 
0172E:  MOVLB  5
01730:  CLRF   xEF
01732:  MOVLW  C0
01734:  MOVWF  xF0
01736:  MOVLB  0
01738:  RCALL  15D2
....................    glcd_writeByte(GLCD_RIGHT, 0xC0);    //   of the screen 
0173A:  MOVLW  01
0173C:  MOVLB  5
0173E:  MOVWF  xEF
01740:  MOVLW  C0
01742:  MOVWF  xF0
01744:  MOVLB  0
01746:  RCALL  15D2
....................    glcd_writeByte(GLCD_LEFT,  0x40);    // Set the column address to 0 
01748:  MOVLB  5
0174A:  CLRF   xEF
0174C:  MOVLW  40
0174E:  MOVWF  xF0
01750:  MOVLB  0
01752:  RCALL  15D2
....................    glcd_writeByte(GLCD_RIGHT, 0x40); 
01754:  MOVLW  01
01756:  MOVLB  5
01758:  MOVWF  xEF
0175A:  MOVLW  40
0175C:  MOVWF  xF0
0175E:  MOVLB  0
01760:  RCALL  15D2
....................    glcd_writeByte(GLCD_LEFT,  0xB8);    // Set the page address to 0 
01762:  MOVLB  5
01764:  CLRF   xEF
01766:  MOVLW  B8
01768:  MOVWF  xF0
0176A:  MOVLB  0
0176C:  RCALL  15D2
....................    glcd_writeByte(GLCD_RIGHT, 0xB8); 
0176E:  MOVLW  01
01770:  MOVLB  5
01772:  MOVWF  xEF
01774:  MOVLW  B8
01776:  MOVWF  xF0
01778:  MOVLB  0
0177A:  RCALL  15D2
....................  
....................    if(mode == ON) 
0177C:  MOVLB  5
0177E:  DECFSZ xE0,W
01780:  BRA    179E
....................    { 
....................       glcd_writeByte(GLCD_LEFT,  0x3F); // Turn the display on 
01782:  CLRF   xEF
01784:  MOVLW  3F
01786:  MOVWF  xF0
01788:  MOVLB  0
0178A:  RCALL  15D2
....................       glcd_writeByte(GLCD_RIGHT, 0x3F); 
0178C:  MOVLW  01
0178E:  MOVLB  5
01790:  MOVWF  xEF
01792:  MOVLW  3F
01794:  MOVWF  xF0
01796:  MOVLB  0
01798:  RCALL  15D2
....................    } 
....................    else 
0179A:  BRA    17B6
0179C:  MOVLB  5
....................    { 
....................       glcd_writeByte(GLCD_LEFT,  0x3E); // Turn the display off 
0179E:  CLRF   xEF
017A0:  MOVLW  3E
017A2:  MOVWF  xF0
017A4:  MOVLB  0
017A6:  RCALL  15D2
....................       glcd_writeByte(GLCD_RIGHT, 0x3E); 
017A8:  MOVLW  01
017AA:  MOVLB  5
017AC:  MOVWF  xEF
017AE:  MOVLW  3E
017B0:  MOVWF  xF0
017B2:  MOVLB  0
017B4:  RCALL  15D2
....................    } 
....................  
....................    glcd_fillScreen(OFF);                // Clear the display 
017B6:  MOVLB  5
017B8:  CLRF   xE8
017BA:  MOVLB  0
017BC:  RCALL  1608
....................  
....................    #ifdef FAST_GLCD 
....................    glcd_update(); 
017BE:  RCALL  1662
....................    #endif 
.................... } 
017C0:  RETLW  00
....................  
....................  
.................... // Purpose:    Update the LCD with data from the display arrays 
.................... #ifdef FAST_GLCD 
.................... void glcd_update() 
.................... { 
....................    int8 i, j; 
....................    int8 *p1, *p2; 
....................  
....................    p1 = displayData.left; 
*
01662:  MOVLB  5
01664:  CLRF   xEB
01666:  MOVLW  17
01668:  MOVWF  xEA
....................    p2 = displayData.right; 
0166A:  MOVLW  02
0166C:  MOVWF  xED
0166E:  MOVLW  17
01670:  MOVWF  xEC
....................  
....................    // Loop through the vertical pages 
....................    for(i = 0; i < 8; ++i) 
01672:  CLRF   xE8
01674:  MOVF   xE8,W
01676:  SUBLW  07
01678:  BNC   1716
....................    { 
....................       output_low(GLCD_DI);                      // Set for instruction 
0167A:  BCF    F93.5
0167C:  BCF    F8A.5
....................       glcd_writeByte(GLCD_LEFT, 0x40);          // Set horizontal address to 0 
0167E:  CLRF   xEF
01680:  MOVLW  40
01682:  MOVWF  xF0
01684:  MOVLB  0
01686:  RCALL  15D2
....................       glcd_writeByte(GLCD_RIGHT, 0x40); 
01688:  MOVLW  01
0168A:  MOVLB  5
0168C:  MOVWF  xEF
0168E:  MOVLW  40
01690:  MOVWF  xF0
01692:  MOVLB  0
01694:  RCALL  15D2
....................       glcd_writeByte(GLCD_LEFT, i | 0xB8);      // Set page address 
01696:  MOVLB  5
01698:  MOVF   xE8,W
0169A:  IORLW  B8
0169C:  MOVWF  xEE
0169E:  CLRF   xEF
016A0:  MOVWF  xF0
016A2:  MOVLB  0
016A4:  RCALL  15D2
....................       glcd_writeByte(GLCD_RIGHT, i | 0xB8); 
016A6:  MOVLB  5
016A8:  MOVF   xE8,W
016AA:  IORLW  B8
016AC:  MOVWF  xEE
016AE:  MOVLW  01
016B0:  MOVWF  xEF
016B2:  MOVFF  5EE,5F0
016B6:  MOVLB  0
016B8:  RCALL  15D2
....................       output_high(GLCD_DI);                     // Set for data 
016BA:  BCF    F93.5
016BC:  BSF    F8A.5
....................  
....................       // Loop through the horizontal sections 
....................       for(j = 0; j < 64; ++j) 
016BE:  MOVLB  5
016C0:  CLRF   xE9
016C2:  MOVF   xE9,W
016C4:  SUBLW  3F
016C6:  BNC   1712
....................       { 
....................          glcd_writeByte(GLCD_LEFT, *p1++);      // Turn pixels on or off 
016C8:  MOVFF  5EB,03
016CC:  MOVF   xEA,W
016CE:  INCF   xEA,F
016D0:  BTFSC  FD8.2
016D2:  INCF   xEB,F
016D4:  MOVWF  FE9
016D6:  MOVFF  03,FEA
016DA:  MOVFF  FEF,5EE
016DE:  CLRF   xEF
016E0:  MOVFF  5EE,5F0
016E4:  MOVLB  0
016E6:  RCALL  15D2
....................          glcd_writeByte(GLCD_RIGHT, *p2++);     // Turn pixels on or off 
016E8:  MOVLB  5
016EA:  MOVFF  5ED,03
016EE:  MOVF   xEC,W
016F0:  INCF   xEC,F
016F2:  BTFSC  FD8.2
016F4:  INCF   xED,F
016F6:  MOVWF  FE9
016F8:  MOVFF  03,FEA
016FC:  MOVFF  FEF,5EE
01700:  MOVLW  01
01702:  MOVWF  xEF
01704:  MOVFF  5EE,5F0
01708:  MOVLB  0
0170A:  RCALL  15D2
....................       } 
0170C:  MOVLB  5
0170E:  INCF   xE9,F
01710:  BRA    16C2
....................    } 
01712:  INCF   xE8,F
01714:  BRA    1674
.................... } 
01716:  MOVLB  0
01718:  RETLW  00
.................... #endif 
....................  
....................  
.................... // Purpose:    Turn a pixel on a graphic LCD on or off 
.................... // Inputs:     1) x - the x coordinate of the pixel 
.................... //             2) y - the y coordinate of the pixel 
.................... //             3) color - ON or OFF 
.................... void glcd_pixel(int8 x, int8 y, int1 color) 
.................... #ifdef FAST_GLCD 
.................... { 
....................    int8* p; 
....................    int16 temp; 
....................    temp =  y/8; 
*
046C4:  MOVLB  6
046C6:  CLRF   x1A
046C8:  RRCF   x15,W
046CA:  MOVWF  x19
046CC:  RRCF   x19,F
046CE:  RRCF   x19,F
046D0:  MOVLW  1F
046D2:  ANDWF  x19,F
....................    temp *= 64; 
046D4:  RLCF   x19,F
046D6:  RLCF   x1A,F
046D8:  RLCF   x19,F
046DA:  RLCF   x1A,F
046DC:  RLCF   x19,F
046DE:  RLCF   x1A,F
046E0:  RLCF   x19,F
046E2:  RLCF   x1A,F
046E4:  RLCF   x19,F
046E6:  RLCF   x1A,F
046E8:  RLCF   x19,F
046EA:  RLCF   x1A,F
046EC:  MOVLW  C0
046EE:  ANDWF  x19,F
....................    temp += x; 
046F0:  MOVF   x14,W
046F2:  ADDWF  x19,F
046F4:  MOVLW  00
046F6:  ADDWFC x1A,F
....................  
....................    if(x > 63) 
046F8:  MOVF   x14,W
046FA:  SUBLW  3F
046FC:  BC    4718
....................    { 
....................       p = displayData.right + temp - 64; 
046FE:  MOVLW  17
04700:  ADDWF  x19,W
04702:  MOVWF  x1B
04704:  MOVLW  02
04706:  ADDWFC x1A,W
04708:  MOVWF  x1C
0470A:  MOVLW  40
0470C:  SUBWF  x1B,W
0470E:  MOVWF  x17
04710:  MOVLW  00
04712:  SUBWFB x1C,W
04714:  MOVWF  x18
....................    } 
....................    else 
04716:  BRA    4724
....................    { 
....................       p = displayData.left + temp; 
04718:  MOVLW  17
0471A:  ADDWF  x19,W
0471C:  MOVWF  x17
0471E:  MOVLW  00
04720:  ADDWFC x1A,W
04722:  MOVWF  x18
....................    } 
....................  
....................    if(color) 
04724:  MOVF   x16,F
04726:  BZ    4752
....................    { 
....................       bit_set(*p, y%8); 
04728:  MOVFF  618,03
0472C:  MOVFF  617,FE9
04730:  MOVFF  618,FEA
04734:  MOVF   x15,W
04736:  ANDLW  07
04738:  MOVWF  x1B
0473A:  MOVLW  01
0473C:  MOVWF  00
0473E:  MOVF   x1B,W
04740:  MOVWF  01
04742:  BZ    474C
04744:  BCF    FD8.0
04746:  RLCF   00,F
04748:  DECFSZ 01,F
0474A:  BRA    4744
0474C:  MOVF   00,W
0474E:  IORWF  FEF,F
....................    } 
....................    else 
04750:  BRA    477C
....................    { 
....................       bit_clear(*p, y%8); 
04752:  MOVFF  618,03
04756:  MOVFF  617,FE9
0475A:  MOVFF  618,FEA
0475E:  MOVF   x15,W
04760:  ANDLW  07
04762:  MOVWF  x1B
04764:  MOVLW  01
04766:  MOVWF  00
04768:  MOVF   x1B,W
0476A:  MOVWF  01
0476C:  BZ    4776
0476E:  BCF    FD8.0
04770:  RLCF   00,F
04772:  DECFSZ 01,F
04774:  BRA    476E
04776:  MOVF   00,W
04778:  XORLW  FF
0477A:  ANDWF  FEF,F
....................    } 
.................... } 
0477C:  MOVLB  0
0477E:  RETLW  00
.................... #else 
.................... { 
....................    BYTE data; 
....................    int1 side = GLCD_LEFT;  // Stores which chip to use on the LCD 
....................  
....................    if(x > 63)              // Check for first or second display area 
....................    { 
....................       x -= 64; 
....................       side = GLCD_RIGHT; 
....................    } 
....................  
....................    output_low(GLCD_DI);                         // Set for instruction 
....................    bit_clear(x,7);                              // Clear the MSB. Part of an instruction code 
....................    bit_set(x,6);                                // Set bit 6. Also part of an instruction code 
....................    glcd_writeByte(side, x);                     // Set the horizontal address 
....................    glcd_writeByte(side, (y/8 & 0xBF) | 0xB8);   // Set the vertical page address 
....................    output_high(GLCD_DI);                        // Set for data 
....................    glcd_readByte(side);                         // Need two reads to get data 
....................    data = glcd_readByte(side);                  //  at new address 
....................  
....................    if(color == ON) 
....................       bit_set(data, y%8);        // Turn the pixel on 
....................    else                          // or 
....................       bit_clear(data, y%8);      // turn the pixel off 
....................  
....................    output_low(GLCD_DI);          // Set for instruction 
....................    glcd_writeByte(side, x);      // Set the horizontal address 
....................    output_high(GLCD_DI);         // Set for data 
....................    glcd_writeByte(side, data);   // Write the pixel data 
.................... } 
.................... #endif 
....................  
....................  
.................... // Purpose:    Fill the LCD screen with the passed in color 
.................... // Inputs:     ON  - turn all the pixels on 
.................... //             OFF - turn all the pixels off 
.................... void glcd_fillScreen(int1 color) 
.................... #ifdef FAST_GLCD 
.................... { 
....................    int8  data; 
....................    int8  *p1, *p2; 
....................    int16 i; 
....................  
....................    p1 = displayData.left; 
*
01608:  MOVLB  5
0160A:  CLRF   xEB
0160C:  MOVLW  17
0160E:  MOVWF  xEA
....................    p2 = displayData.right; 
01610:  MOVLW  02
01612:  MOVWF  xED
01614:  MOVLW  17
01616:  MOVWF  xEC
....................    data = 0xFF * color; 
01618:  MOVF   xE8,W
0161A:  MULLW  FF
0161C:  MOVFF  FF3,5E9
....................  
....................    for(i=0; i<512; ++i) 
01620:  CLRF   xEF
01622:  CLRF   xEE
01624:  MOVF   xEF,W
01626:  SUBLW  01
01628:  BNC   165E
....................    { 
....................       *p1++ = data; 
0162A:  MOVFF  5EB,03
0162E:  MOVF   xEA,W
01630:  INCF   xEA,F
01632:  BTFSC  FD8.2
01634:  INCF   xEB,F
01636:  MOVWF  FE9
01638:  MOVFF  03,FEA
0163C:  MOVFF  5E9,FEF
....................       *p2++ = data; 
01640:  MOVFF  5ED,03
01644:  MOVF   xEC,W
01646:  INCF   xEC,F
01648:  BTFSC  FD8.2
0164A:  INCF   xED,F
0164C:  MOVWF  FE9
0164E:  MOVFF  03,FEA
01652:  MOVFF  5E9,FEF
....................    } 
01656:  INCF   xEE,F
01658:  BTFSC  FD8.2
0165A:  INCF   xEF,F
0165C:  BRA    1624
.................... } 
0165E:  MOVLB  0
01660:  RETLW  00
.................... #else 
.................... { 
....................    int8 i, j; 
....................  
....................    // Loop through the vertical pages 
....................    for(i = 0; i < 8; ++i) 
....................    { 
....................       output_low(GLCD_DI);                      // Set for instruction 
....................       glcd_writeByte(GLCD_LEFT, 0b01000000);    // Set horizontal address to 0 
....................       glcd_writeByte(GLCD_RIGHT, 0b01000000); 
....................       glcd_writeByte(GLCD_LEFT, i | 0b10111000);// Set page address 
....................       glcd_writeByte(GLCD_RIGHT, i | 0b10111000); 
....................       output_high(GLCD_DI);                     // Set for data 
....................  
....................       // Loop through the horizontal sections 
....................       for(j = 0; j < 64; ++j) 
....................       { 
....................          glcd_writeByte(GLCD_LEFT, 0xFF*color);  // Turn pixels on or off 
....................          glcd_writeByte(GLCD_RIGHT, 0xFF*color); // Turn pixels on or off 
....................       } 
....................    } 
.................... } 
.................... #endif 
....................  
....................  
.................... // Purpose:    Write a byte of data to the specified chip 
.................... // Inputs:     1) chipSelect - which chip to write the data to 
.................... //             2) data - the byte of data to write 
.................... void glcd_writeByte(int1 side, BYTE data) 
.................... { 
....................    if(side)                   // Choose which side to write to 
*
015D2:  MOVLB  5
015D4:  MOVF   xEF,F
015D6:  BZ    15DE
....................       output_high(GLCD_CS2); 
015D8:  BCF    F93.3
015DA:  BSF    F8A.3
....................    else 
015DC:  BRA    15E2
....................       output_high(GLCD_CS1); 
015DE:  BCF    F93.2
015E0:  BSF    F8A.2
....................  
....................    output_low(GLCD_RW);       // Set for writing 
015E2:  BCF    F93.6
015E4:  BCF    F8A.6
....................    output_d(data);            // Put the data on the port 
015E6:  CLRF   F95
015E8:  MOVFF  5F0,F8C
....................    delay_cycles(1); 
015EC:  NOP   
....................    output_high(GLCD_E);       // Pulse the enable pin 
015EE:  BCF    F93.7
015F0:  BSF    F8A.7
....................    delay_cycles(5); 
015F2:  BRA    15F4
015F4:  BRA    15F6
015F6:  NOP   
....................    output_low(GLCD_E); 
015F8:  BCF    F93.7
015FA:  BCF    F8A.7
....................  
....................    output_low(GLCD_CS1);      // Reset the chip select lines 
015FC:  BCF    F93.2
015FE:  BCF    F8A.2
....................    output_low(GLCD_CS2); 
01600:  BCF    F93.3
01602:  BCF    F8A.3
.................... } 
01604:  MOVLB  0
01606:  RETLW  00
....................  
....................  
.................... // Purpose:    Reads a byte of data from the specified chip 
.................... // Ouputs:     A byte of data read from the chip 
.................... BYTE glcd_readByte(int1 side) 
.................... { 
....................    BYTE data;                 // Stores the data read from the LCD 
....................  
....................    set_tris_d(0xFF);          // Set port d to input 
....................    output_high(GLCD_RW);      // Set for reading 
....................  
....................    if(side)                   // Choose which side to write to 
....................       output_high(GLCD_CS2); 
....................    else 
....................       output_high(GLCD_CS1); 
....................  
....................    delay_cycles(1); 
....................    output_high(GLCD_E);       // Pulse the enable pin 
....................    delay_cycles(4); 
....................    data = input_d();          // Get the data from the display's output register 
....................    output_low(GLCD_E); 
....................  
....................    output_low(GLCD_CS1);      // Reset the chip select lines 
....................    output_low(GLCD_CS2); 
....................    return data;               // Return the read data 
.................... } 
....................  
.................... #endif 
....................  
.................... #include "GRAPHICS.c" 
.................... ///////////////////////////////////////////////////////////////////////// 
.................... ////                          graphics.c                             //// 
.................... ////                                                                 //// 
.................... ////   This file contains functions to draw lines, rectangles, bars, //// 
.................... ////   circles and text to a display. A function which draws a       //// 
.................... ////   single pixel must be defined before calling the functions in  //// 
.................... ////   this file. Call it glcd_pixel(x, y, color) where x is the     //// 
.................... ////   horizontal coordinate, y is the vertical coordinate, and      //// 
.................... ////   color is 1 bit to turn the pixel on or off.                   //// 
.................... ////                                                                 //// 
.................... ////   * Note: (0, 0) is treated as the upper left corner            //// 
.................... ////                                                                 //// 
.................... ///////////////////////////////////////////////////////////////////////// 
.................... ////                                                                 //// 
.................... ////  glcd_line(x1, y1, x2, y2, color)                               //// 
.................... ////     * Draws a line from the first point to the second point     //// 
.................... ////       with the given color                                      //// 
.................... ////       - color can be ON or OFF                                  //// 
.................... ////                                                                 //// 
.................... ////  glcd_rect(x1, y1, x2, y2, fill, color)                         //// 
.................... ////     * Draws a rectangle with one corner at point (x1,y1) and    //// 
.................... ////       the other corner at point (x2,y2)                         //// 
.................... ////       - fill can be YES or NO                                   //// 
.................... ////       - color can be ON or OFF                                  //// 
.................... ////                                                                 //// 
.................... ////  glcd_bar(x1, y1, x2, y2, width, color)                         //// 
.................... ////     * Draws a bar (wide line) from the first point to the       //// 
.................... ////       second point                                              //// 
.................... ////       - width is the number of pixels wide                      //// 
.................... ////       - color is ON or OFF                                      //// 
.................... ////                                                                 //// 
.................... ////  glcd_circle(x, y, radius, fill, color)                         //// 
.................... ////     * Draws a circle with center at (x,y)                       //// 
.................... ////       - fill can be YES or NO                                   //// 
.................... ////       - color can be ON or OFF                                  //// 
.................... ////                                                                 //// 
.................... ////  glcd_text57(x, y, textptr, size, color)                        //// 
.................... ////     * Write the null terminated text pointed to by textptr with //// 
.................... ////       the upper left coordinate of the first character at (x,y) //// 
.................... ////       Characters are 5 pixels wide and 7 pixels tall            //// 
.................... ////       - size is an integer that scales the size of the text     //// 
.................... ////       - color is ON or OFF                                      //// 
.................... ////     * Note - This function wraps characters to the next line    //// 
.................... ////              use #define GLCD_WIDTH to specify a display width  //// 
.................... ////                                                                 //// 
.................... ///////////////////////////////////////////////////////////////////////// 
.................... ////        (C) Copyright 1996, 2004 Custom Computer Services        //// 
.................... //// This source code may only be used by licensed users of the CCS  //// 
.................... //// C compiler.  This source code may only be distributed to other  //// 
.................... //// licensed users of the CCS C compiler.  No other use,            //// 
.................... //// reproduction or distribution is permitted without written       //// 
.................... //// permission.  Derivative programs created using this software    //// 
.................... //// in object code form are not restricted in any way.              //// 
.................... ///////////////////////////////////////////////////////////////////////// 
....................  
....................  
.................... ///////////////////////////////////////////////////////////////////////// 
.................... #ifndef GRAPHICS_DRAWING_FUNCTIONS 
.................... #define GRAPHICS_DRAWING_FUNCTIONS 
.................... ///////////////////////////////////////////////////////////////////////// 
....................  
....................  
.................... ///////////////////////////////////////////////////////////////////////// 
.................... #ifndef ON 
.................... #define ON  1 
.................... #endif 
....................  
.................... #ifndef OFF 
.................... #define OFF 0 
.................... #endif 
....................  
.................... #ifndef YES 
.................... #define YES 1 
.................... #endif 
....................  
.................... #ifndef NO 
.................... #define NO  0 
.................... #endif 
.................... ///////////////////////////////////////////////////////////////////////// 
....................  
....................  
.................... ///////////////////////////////////////////////////////////////////////// 
.................... //// Defines a 5x7 font 
.................... ///////////////////////////////////////////////////////////////////////// 
.................... const int8 FONT[51][5] ={0x00, 0x00, 0x00, 0x00, 0x00, // SPACE 
....................                          0x00, 0x00, 0x5F, 0x00, 0x00, // ! 
....................                          0x00, 0x03, 0x00, 0x03, 0x00, // " 
....................                          0x14, 0x3E, 0x14, 0x3E, 0x14, // # 
....................                          0x24, 0x2A, 0x7F, 0x2A, 0x12, // $ 
....................                          0x43, 0x33, 0x08, 0x66, 0x61, // % 
....................                          0x36, 0x49, 0x55, 0x22, 0x50, // & 
....................                          0x00, 0x05, 0x03, 0x00, 0x00, // ' 
....................                          0x00, 0x1C, 0x22, 0x41, 0x00, // ( 
....................                          0x00, 0x41, 0x22, 0x1C, 0x00, // ) 
....................                          0x14, 0x08, 0x3E, 0x08, 0x14, // * 
....................                          0x08, 0x08, 0x3E, 0x08, 0x08, // + 
....................                          0x00, 0x50, 0x30, 0x00, 0x00, // , 
....................                          0x08, 0x08, 0x08, 0x08, 0x08, // - 
....................                          0x00, 0x60, 0x60, 0x00, 0x00, // . 
....................                          0x20, 0x10, 0x08, 0x04, 0x02, // / 
....................                          0x3E, 0x51, 0x49, 0x45, 0x3E, // 0 
....................                          0x00, 0x04, 0x02, 0x7F, 0x00, // 1 
....................                          0x42, 0x61, 0x51, 0x49, 0x46, // 2 
....................                          0x22, 0x41, 0x49, 0x49, 0x36, // 3 
....................                          0x18, 0x14, 0x12, 0x7F, 0x10, // 4 
....................                          0x27, 0x45, 0x45, 0x45, 0x39, // 5 
....................                          0x3E, 0x49, 0x49, 0x49, 0x32, // 6 
....................                          0x01, 0x01, 0x71, 0x09, 0x07, // 7 
....................                          0x36, 0x49, 0x49, 0x49, 0x36, // 8 
....................                          0x26, 0x49, 0x49, 0x49, 0x3E, // 9 
....................                          0x00, 0x36, 0x36, 0x00, 0x00, // : 
....................                          0x00, 0x56, 0x36, 0x00, 0x00, // ; 
....................                          0x08, 0x14, 0x22, 0x41, 0x00, // < 
....................                          0x14, 0x14, 0x14, 0x14, 0x14, // = 
....................                          0x00, 0x41, 0x22, 0x14, 0x08, // > 
....................                          0x02, 0x01, 0x51, 0x09, 0x06, // ? 
....................                          0x3E, 0x41, 0x59, 0x55, 0x5E, // @ 
....................                          0x7E, 0x09, 0x09, 0x09, 0x7E, // A 
....................                          0x7F, 0x49, 0x49, 0x49, 0x36, // B 
....................                          0x3E, 0x41, 0x41, 0x41, 0x22, // C 
....................                          0x7F, 0x41, 0x41, 0x41, 0x3E, // D 
....................                          0x7F, 0x49, 0x49, 0x49, 0x41, // E 
....................                          0x7F, 0x09, 0x09, 0x09, 0x01, // F 
....................                          0x3E, 0x41, 0x41, 0x49, 0x3A, // G 
....................                          0x7F, 0x08, 0x08, 0x08, 0x7F, // H 
....................                          0x00, 0x41, 0x7F, 0x41, 0x00, // I 
....................                          0x30, 0x40, 0x40, 0x40, 0x3F, // J 
....................                          0x7F, 0x08, 0x14, 0x22, 0x41, // K 
....................                          0x7F, 0x40, 0x40, 0x40, 0x40, // L 
....................                          0x7F, 0x02, 0x0C, 0x02, 0x7F, // M 
....................                          0x7F, 0x02, 0x04, 0x08, 0x7F, // N 
....................                          0x3E, 0x41, 0x41, 0x41, 0x3E, // O 
....................                          0x7F, 0x09, 0x09, 0x09, 0x06, // P 
....................                          0x1E, 0x21, 0x21, 0x21, 0x5E, // Q 
....................                          0x7F, 0x09, 0x09, 0x09, 0x76};// R 
....................  
.................... const int8 FONT2[44][5]={0x26, 0x49, 0x49, 0x49, 0x32, // S 
....................                          0x01, 0x01, 0x7F, 0x01, 0x01, // T 
....................                          0x3F, 0x40, 0x40, 0x40, 0x3F, // U 
....................                          0x1F, 0x20, 0x40, 0x20, 0x1F, // V 
....................                          0x7F, 0x20, 0x10, 0x20, 0x7F, // W 
....................                          0x41, 0x22, 0x1C, 0x22, 0x41, // X 
....................                          0x07, 0x08, 0x70, 0x08, 0x07, // Y 
....................                          0x61, 0x51, 0x49, 0x45, 0x43, // Z 
....................                          0x00, 0x7F, 0x41, 0x00, 0x00, // [ 
....................                          0x02, 0x04, 0x08, 0x10, 0x20, // \ 
....................                          0x00, 0x00, 0x41, 0x7F, 0x00, // ] 
....................                          0x04, 0x02, 0x01, 0x02, 0x04, // ^ 
....................                          0x40, 0x40, 0x40, 0x40, 0x40, // _ 
....................                          0x00, 0x01, 0x02, 0x04, 0x00, // ` 
....................                          0x20, 0x54, 0x54, 0x54, 0x78, // a 
....................                          0x7F, 0x44, 0x44, 0x44, 0x38, // b 
....................                          0x38, 0x44, 0x44, 0x44, 0x44, // c 
....................                          0x38, 0x44, 0x44, 0x44, 0x7F, // d 
....................                          0x38, 0x54, 0x54, 0x54, 0x18, // e 
....................                          0x04, 0x04, 0x7E, 0x05, 0x05, // f 
....................                          0x08, 0x54, 0x54, 0x54, 0x3C, // g 
....................                          0x7F, 0x08, 0x04, 0x04, 0x78, // h 
....................                          0x00, 0x44, 0x7D, 0x40, 0x00, // i 
....................                          0x20, 0x40, 0x44, 0x3D, 0x00, // j 
....................                          0x7F, 0x10, 0x28, 0x44, 0x00, // k 
....................                          0x00, 0x41, 0x7F, 0x40, 0x00, // l 
....................                          0x7C, 0x04, 0x78, 0x04, 0x78, // m 
....................                          0x7C, 0x08, 0x04, 0x04, 0x78, // n 
....................                          0x38, 0x44, 0x44, 0x44, 0x38, // o 
....................                          0x7C, 0x14, 0x14, 0x14, 0x08, // p 
....................                          0x08, 0x14, 0x14, 0x14, 0x7C, // q 
....................                          0x00, 0x7C, 0x08, 0x04, 0x04, // r 
....................                          0x48, 0x54, 0x54, 0x54, 0x20, // s 
....................                          0x04, 0x04, 0x3F, 0x44, 0x44, // t 
....................                          0x3C, 0x40, 0x40, 0x20, 0x7C, // u 
....................                          0x1C, 0x20, 0x40, 0x20, 0x1C, // v 
....................                          0x3C, 0x40, 0x30, 0x40, 0x3C, // w 
....................                          0x44, 0x28, 0x10, 0x28, 0x44, // x 
....................                          0x0C, 0x50, 0x50, 0x50, 0x3C, // y 
....................                          0x44, 0x64, 0x54, 0x4C, 0x44, // z 
....................                          0x00, 0x08, 0x36, 0x41, 0x41, // { 
....................                          0x00, 0x00, 0x7F, 0x00, 0x00, // | 
....................                          0x41, 0x41, 0x36, 0x08, 0x00, // } 
....................                          0x02, 0x01, 0x02, 0x04, 0x02};// ~ 
.................... ///////////////////////////////////////////////////////////////////////// 
....................  
....................  
.................... ///////////////////////////////////////////////////////////////////////// 
.................... // Purpose:       Draw a line on a graphic LCD using Bresenham's 
.................... //                line drawing algorithm 
.................... // Inputs:        (x1, y1) - the start coordinate 
.................... //                (x2, y2) - the end coordinate 
.................... //                color - ON or OFF 
.................... // Dependencies:  glcd_pixel() 
.................... ///////////////////////////////////////////////////////////////////////// 
.................... #ifdef LARGE_LCD 
.................... void glcd_line(int16 x1, int16 y1, int16 x2, int16 y2, int1 color) 
.................... #else 
.................... void glcd_line(int8 x1, int8 y1, int8 x2, int8 y2, int1 color) 
.................... #endif 
.................... { 
*
04780:  MOVLW  01
04782:  MOVLB  6
04784:  MOVWF  x0D
04786:  MOVWF  x0E
04788:  CLRF   x13
....................    int16        dy, dx; 
....................    signed int8  addx=1, addy=1; 
....................    signed int16 P, diff; 
....................  
....................    #ifdef LARGE_LCD 
....................    int16 i=0; 
....................    dx = abs((signed int16)(x2 - x1)); 
....................    dy = abs((signed int16)(y2 - y1)); 
....................    #else 
....................    int8 i=0; 
....................    dx = abs((signed int8)(x2 - x1)); 
0478A:  MOVF   x04,W
0478C:  SUBWF  x06,W
0478E:  MOVWF  x14
04790:  MOVF   x14,W
04792:  BTFSS  x14.7
04794:  BRA    479C
04796:  MOVLW  00
04798:  BSF    FD8.0
0479A:  SUBFWB x14,W
0479C:  CLRF   03
0479E:  MOVWF  x0B
047A0:  MOVFF  03,60C
....................    dy = abs((signed int8)(y2 - y1)); 
047A4:  MOVF   x05,W
047A6:  SUBWF  x07,W
047A8:  MOVWF  x14
047AA:  MOVF   x14,W
047AC:  BTFSS  x14.7
047AE:  BRA    47B6
047B0:  MOVLW  00
047B2:  BSF    FD8.0
047B4:  SUBFWB x14,W
047B6:  CLRF   03
047B8:  MOVWF  x09
047BA:  MOVFF  03,60A
....................    #endif 
....................  
....................    if(x1 > x2) 
047BE:  MOVF   x04,W
047C0:  SUBWF  x06,W
047C2:  BC    47C8
....................       addx = -1; 
047C4:  MOVLW  FF
047C6:  MOVWF  x0D
....................    if(y1 > y2) 
047C8:  MOVF   x05,W
047CA:  SUBWF  x07,W
047CC:  BC    47D2
....................       addy = -1; 
047CE:  MOVLW  FF
047D0:  MOVWF  x0E
....................  
....................    if(dx >= dy) 
047D2:  MOVF   x0A,W
047D4:  SUBWF  x0C,W
047D6:  BNC   484E
047D8:  BNZ   47E0
047DA:  MOVF   x09,W
047DC:  SUBWF  x0B,W
047DE:  BNC   484E
....................    { 
....................       dy *= 2; 
047E0:  BCF    FD8.0
047E2:  RLCF   x09,F
047E4:  RLCF   x0A,F
....................       P = dy - dx; 
047E6:  MOVF   x0B,W
047E8:  SUBWF  x09,W
047EA:  MOVWF  00
047EC:  MOVF   x0C,W
047EE:  SUBWFB x0A,W
047F0:  MOVFF  00,60F
047F4:  MOVWF  x10
....................       diff = P - dx; 
047F6:  MOVF   x0B,W
047F8:  SUBWF  x0F,W
047FA:  MOVWF  x11
047FC:  MOVF   x0C,W
047FE:  SUBWFB x10,W
04800:  MOVWF  x12
....................  
....................       for(; i<=dx; ++i) 
04802:  MOVF   x0C,F
04804:  BNZ   480C
04806:  MOVF   x13,W
04808:  SUBWF  x0B,W
0480A:  BNC   484C
....................       { 
....................          glcd_pixel(x1, y1, color); 
0480C:  MOVFF  604,614
04810:  MOVFF  605,615
04814:  MOVFF  608,616
04818:  MOVLB  0
0481A:  RCALL  46C4
....................  
....................          if(P < 0) 
0481C:  MOVLB  6
0481E:  BTFSC  x10.7
04820:  BRA    4824
04822:  BRA    4834
....................          { 
....................             P  += dy; 
04824:  MOVF   x09,W
04826:  ADDWF  x0F,F
04828:  MOVF   x0A,W
0482A:  ADDWFC x10,F
....................             x1 += addx; 
0482C:  MOVF   x0D,W
0482E:  ADDWF  x04,W
04830:  MOVWF  x04
....................          } 
....................          else 
04832:  BRA    4848
....................          { 
....................             P  += diff; 
04834:  MOVF   x11,W
04836:  ADDWF  x0F,F
04838:  MOVF   x12,W
0483A:  ADDWFC x10,F
....................             x1 += addx; 
0483C:  MOVF   x0D,W
0483E:  ADDWF  x04,W
04840:  MOVWF  x04
....................             y1 += addy; 
04842:  MOVF   x0E,W
04844:  ADDWF  x05,W
04846:  MOVWF  x05
....................          } 
....................       } 
04848:  INCF   x13,F
0484A:  BRA    4802
....................    } 
....................    else 
0484C:  BRA    48BA
....................    { 
....................       dx *= 2; 
0484E:  BCF    FD8.0
04850:  RLCF   x0B,F
04852:  RLCF   x0C,F
....................       P = dx - dy; 
04854:  MOVF   x09,W
04856:  SUBWF  x0B,W
04858:  MOVWF  00
0485A:  MOVF   x0A,W
0485C:  SUBWFB x0C,W
0485E:  MOVFF  00,60F
04862:  MOVWF  x10
....................       diff = P - dy; 
04864:  MOVF   x09,W
04866:  SUBWF  x0F,W
04868:  MOVWF  x11
0486A:  MOVF   x0A,W
0486C:  SUBWFB x10,W
0486E:  MOVWF  x12
....................  
....................       for(; i<=dy; ++i) 
04870:  MOVF   x0A,F
04872:  BNZ   487A
04874:  MOVF   x13,W
04876:  SUBWF  x09,W
04878:  BNC   48BA
....................       { 
....................          glcd_pixel(x1, y1, color); 
0487A:  MOVFF  604,614
0487E:  MOVFF  605,615
04882:  MOVFF  608,616
04886:  MOVLB  0
04888:  RCALL  46C4
....................  
....................          if(P < 0) 
0488A:  MOVLB  6
0488C:  BTFSC  x10.7
0488E:  BRA    4892
04890:  BRA    48A2
....................          { 
....................             P  += dx; 
04892:  MOVF   x0B,W
04894:  ADDWF  x0F,F
04896:  MOVF   x0C,W
04898:  ADDWFC x10,F
....................             y1 += addy; 
0489A:  MOVF   x0E,W
0489C:  ADDWF  x05,W
0489E:  MOVWF  x05
....................          } 
....................          else 
048A0:  BRA    48B6
....................          { 
....................             P  += diff; 
048A2:  MOVF   x11,W
048A4:  ADDWF  x0F,F
048A6:  MOVF   x12,W
048A8:  ADDWFC x10,F
....................             x1 += addx; 
048AA:  MOVF   x0D,W
048AC:  ADDWF  x04,W
048AE:  MOVWF  x04
....................             y1 += addy; 
048B0:  MOVF   x0E,W
048B2:  ADDWF  x05,W
048B4:  MOVWF  x05
....................          } 
....................       } 
048B6:  INCF   x13,F
048B8:  BRA    4870
....................    } 
.................... } 
048BA:  MOVLB  0
048BC:  RETLW  00
....................  
....................  
.................... ///////////////////////////////////////////////////////////////////////// 
.................... // Purpose:       Draw a rectangle on a graphic LCD 
.................... // Inputs:        (x1, y1) - the start coordinate 
.................... //                (x2, y2) - the end coordinate 
.................... //                fill  - YES or NO 
.................... //                color - ON or OFF 
.................... // Dependencies:  glcd_pixel(), glcd_line() 
.................... ///////////////////////////////////////////////////////////////////////// 
.................... #ifdef LARGE_LCD 
.................... void glcd_rect(int16 x1, int16 y1, int16 x2, int16 y2, int1 fill, int1 color) 
.................... #else 
.................... void glcd_rect(int8 x1, int8 y1, int8 x2, int8 y2, int1 fill, int1 color) 
.................... #endif 
.................... { 
....................    if(fill) 
048BE:  MOVLB  5
048C0:  MOVF   xFD,F
048C2:  BZ    492A
....................    { 
....................       #ifdef LARGE_LCD 
....................       int16 i, xmin, xmax, ymin, ymax; 
....................       #else 
....................       int8  i, xmin, xmax, ymin, ymax; 
....................       #endif 
....................  
....................       if(x1 < x2)                            //  Find x min and max 
048C4:  MOVF   xFB,W
048C6:  SUBWF  xF9,W
048C8:  BC    48D4
....................       { 
....................          xmin = x1; 
048CA:  MOVFF  5F9,600
....................          xmax = x2; 
048CE:  MOVFF  5FB,601
....................       } 
....................       else 
048D2:  BRA    48DC
....................       { 
....................          xmin = x2; 
048D4:  MOVFF  5FB,600
....................          xmax = x1; 
048D8:  MOVFF  5F9,601
....................       } 
....................  
....................       if(y1 < y2)                            // Find the y min and max 
048DC:  MOVF   xFC,W
048DE:  SUBWF  xFA,W
048E0:  BC    48EC
....................       { 
....................          ymin = y1; 
048E2:  MOVFF  5FA,602
....................          ymax = y2; 
048E6:  MOVFF  5FC,603
....................       } 
....................       else 
048EA:  BRA    48F4
....................       { 
....................          ymin = y2; 
048EC:  MOVFF  5FC,602
....................          ymax = y1; 
048F0:  MOVFF  5FA,603
....................       } 
....................  
....................       for(; xmin <= xmax; ++xmin) 
048F4:  MOVLB  6
048F6:  MOVF   x00,W
048F8:  SUBWF  x01,W
048FA:  BNC   4926
....................       { 
....................          for(i=ymin; i<=ymax; ++i) 
048FC:  MOVFF  602,5FF
04900:  MOVLB  5
04902:  MOVF   xFF,W
04904:  MOVLB  6
04906:  SUBWF  x03,W
04908:  BNC   4922
....................          { 
....................             glcd_pixel(xmin, i, color); 
0490A:  MOVFF  600,614
0490E:  MOVFF  5FF,615
04912:  MOVFF  5FE,616
04916:  MOVLB  0
04918:  RCALL  46C4
....................          } 
0491A:  MOVLB  5
0491C:  INCF   xFF,F
0491E:  BRA    4902
04920:  MOVLB  6
....................       } 
04922:  INCF   x00,F
04924:  BRA    48F6
....................    } 
....................    else 
04926:  BRA    4986
04928:  MOVLB  5
....................    { 
....................       glcd_line(x1, y1, x2, y1, color);      // Draw the 4 sides 
0492A:  MOVFF  5F9,604
0492E:  MOVFF  5FA,605
04932:  MOVFF  5FB,606
04936:  MOVFF  5FA,607
0493A:  MOVFF  5FE,608
0493E:  MOVLB  0
04940:  RCALL  4780
....................       glcd_line(x1, y2, x2, y2, color); 
04942:  MOVFF  5F9,604
04946:  MOVFF  5FC,605
0494A:  MOVFF  5FB,606
0494E:  MOVFF  5FC,607
04952:  MOVFF  5FE,608
04956:  RCALL  4780
....................       glcd_line(x1, y1, x1, y2, color); 
04958:  MOVFF  5F9,604
0495C:  MOVFF  5FA,605
04960:  MOVFF  5F9,606
04964:  MOVFF  5FC,607
04968:  MOVFF  5FE,608
0496C:  RCALL  4780
....................       glcd_line(x2, y1, x2, y2, color); 
0496E:  MOVFF  5FB,604
04972:  MOVFF  5FA,605
04976:  MOVFF  5FB,606
0497A:  MOVFF  5FC,607
0497E:  MOVFF  5FE,608
04982:  RCALL  4780
04984:  MOVLB  6
....................    } 
.................... } 
04986:  MOVLB  0
04988:  RETLW  00
....................  
.................... ///////////////////////////////////////////////////////////////////////// 
.................... // Purpose:       Draw a bar (wide line) on a graphic LCD 
.................... // Inputs:        (x1, y1) - the start coordinate 
.................... //                (x2, y2) - the end coordinate 
.................... //                width  - The number of pixels wide 
.................... //                color - ON or OFF 
.................... ///////////////////////////////////////////////////////////////////////// 
.................... #ifdef LARGE_LCD 
.................... void glcd_bar(int16 x1, int16 y1, int16 x2, int16 y2, int8 width, int1 color) 
.................... #else 
.................... void glcd_bar(int8 x1, int8 y1, int8 x2, int8 y2, int8 width, int1 color) 
.................... #endif 
.................... { 
....................    int8         half_width; 
....................    signed int16 dy, dx; 
....................    signed int8  addx=1, addy=1, j; 
....................    signed int16 P, diff, c1, c2; 
....................  
....................    #ifdef LARGE_LCD 
....................    int16 i=0; 
....................    dx = abs((signed int16)(x2 - x1)); 
....................    dy = abs((signed int16)(y2 - y1)); 
....................    #else 
....................    int8 i=0; 
....................    dx = abs((signed int8)(x2 - x1)); 
....................    dy = abs((signed int8)(y2 - y1)); 
....................    #endif 
....................  
....................    half_width = width/2; 
....................    c1 = -(dx*x1 + dy*y1); 
....................    c2 = -(dx*x2 + dy*y2); 
....................  
....................    if(x1 > x2) 
....................    { 
....................       signed int16 temp; 
....................       temp = c1; 
....................       c1 = c2; 
....................       c2 = temp; 
....................       addx = -1; 
....................    } 
....................    if(y1 > y2) 
....................    { 
....................       signed int16 temp; 
....................       temp = c1; 
....................       c1 = c2; 
....................       c2 = temp; 
....................       addy = -1; 
....................    } 
....................  
....................    if(dx >= dy) 
....................    { 
....................       P = 2*dy - dx; 
....................       diff = P - dx; 
....................  
....................       for(i=0; i<=dx; ++i) 
....................       { 
....................          for(j=-half_width; j<half_width+width%2; ++j) 
....................          { 
....................             #ifdef LARGE_LCD 
....................             int16 temp; 
....................             #else 
....................             int8 temp; 
....................             #endif 
....................  
....................             temp = dx*x1+dy*(y1+j);    // Use more RAM to increase speed 
....................             if(temp+c1 >= 0 && temp+c2 <=0) 
....................                glcd_pixel(x1, y1+j, color); 
....................          } 
....................          if(P < 0) 
....................          { 
....................             P  += 2*dy; 
....................             x1 += addx; 
....................          } 
....................          else 
....................          { 
....................             P  += diff; 
....................             x1 += addx; 
....................             y1 += addy; 
....................          } 
....................       } 
....................    } 
....................    else 
....................    { 
....................       P = 2*dx - dy; 
....................       diff = P - dy; 
....................  
....................       for(i=0; i<=dy; ++i) 
....................       { 
....................          if(P < 0) 
....................          { 
....................             P  += 2*dx; 
....................             y1 += addy; 
....................          } 
....................          else 
....................          { 
....................             P  += diff; 
....................             x1 += addx; 
....................             y1 += addy; 
....................          } 
....................          for(j=-half_width; j<half_width+width%2; ++j) 
....................          { 
....................             #ifdef LARGE_LCD 
....................             int16 temp; 
....................             #else 
....................             int8 temp; 
....................             #endif 
....................  
....................             temp = dx*x1+dy*(y1+j);    // Use more RAM to increase speed 
....................             if(temp+c1 >= 0 && temp+c2 <=0) 
....................                glcd_pixel(x1+j, y1, color); 
....................          } 
....................       } 
....................    } 
.................... } 
....................  
....................  
.................... ///////////////////////////////////////////////////////////////////////// 
.................... // Purpose:       Draw a circle on a graphic LCD 
.................... // Inputs:        (x,y) - the center of the circle 
.................... //                radius - the radius of the circle 
.................... //                fill - YES or NO 
.................... //                color - ON or OFF 
.................... ///////////////////////////////////////////////////////////////////////// 
.................... #ifdef LARGE_LCD 
.................... void glcd_circle(int16 x, int16 y, int16 radius, int1 fill, int1 color) 
.................... #else 
.................... void glcd_circle(int8 x, int8 y, int8 radius, int1 fill, int1 color) 
.................... #endif 
.................... { 
....................    #ifdef LARGE_LCD 
....................    signed int16 a, b, P; 
....................    #else 
....................    signed int8  a, b, P; 
....................    #endif 
....................  
....................    a = 0; 
....................    b = radius; 
....................    P = 1 - radius; 
....................  
....................    do 
....................    { 
....................       if(fill) 
....................       { 
....................          glcd_line(x-a, y+b, x+a, y+b, color); 
....................          glcd_line(x-a, y-b, x+a, y-b, color); 
....................          glcd_line(x-b, y+a, x+b, y+a, color); 
....................          glcd_line(x-b, y-a, x+b, y-a, color); 
....................       } 
....................       else 
....................       { 
....................          glcd_pixel(a+x, b+y, color); 
....................          glcd_pixel(b+x, a+y, color); 
....................          glcd_pixel(x-a, b+y, color); 
....................          glcd_pixel(x-b, a+y, color); 
....................          glcd_pixel(b+x, y-a, color); 
....................          glcd_pixel(a+x, y-b, color); 
....................          glcd_pixel(x-a, y-b, color); 
....................          glcd_pixel(x-b, y-a, color); 
....................       } 
....................  
....................       if(P < 0) 
....................          P += 3 + 2 * a++; 
....................       else 
....................          P += 5 + 2 * (a++ - b--); 
....................     } while(a <= b); 
.................... } 
....................  
....................  
.................... ///////////////////////////////////////////////////////////////////////// 
.................... // Purpose:       Write text on a graphic LCD 
.................... // Inputs:        (x,y) - The upper left coordinate of the first letter 
.................... //                textptr - A pointer to an array of text to display 
.................... //                size - The size of the text: 1 = 5x7, 2 = 10x14, ... 
.................... //                color - ON or OFF 
.................... ///////////////////////////////////////////////////////////////////////// 
.................... #ifdef LARGE_LCD 
.................... void glcd_text57(int16 x, int16 y, char* textptr, int8 size, int1 color) 
.................... #else 
.................... void glcd_text57(int8 x, int8 y, char* textptr, int8 size, int1 color) 
.................... #endif 
.................... { 
....................    int8 j, k, l, m;                       // Loop counters 
....................    int8 pixelData[5];                     // Stores character data 
....................  
....................    for(; *textptr != '\0'; ++textptr, ++x)// Loop through the passed string 
0498A:  MOVFF  5FC,03
0498E:  MOVLB  5
04990:  MOVFF  5FB,FE9
04994:  MOVFF  5FC,FEA
04998:  MOVF   FEF,F
0499A:  BTFSC  FD8.2
0499C:  BRA    4B60
....................    { 
....................       if(*textptr < 'S') // Checks if the letter is in the first font array 
0499E:  MOVFF  5FC,03
049A2:  MOVFF  5FB,FE9
049A6:  MOVFF  5FC,FEA
049AA:  MOVF   FEF,W
049AC:  SUBLW  52
049AE:  BNC   4A02
....................          memcpy(pixelData, FONT[*textptr - ' '], 5); 
049B0:  MOVFF  5FC,03
049B4:  MOVFF  5FB,FE9
049B8:  MOVFF  5FC,FEA
049BC:  MOVLW  20
049BE:  SUBWF  FEF,W
049C0:  MULLW  05
049C2:  MOVF   FF3,W
049C4:  CLRF   03
049C6:  MOVLB  6
049C8:  MOVWF  x08
049CA:  MOVLW  06
049CC:  MOVWF  FEA
049CE:  MOVLW  03
049D0:  MOVWF  FE9
049D2:  CLRF   x0C
049D4:  MOVFF  608,60B
049D8:  MOVFF  FF2,609
049DC:  BCF    FF2.7
049DE:  MOVLW  05
049E0:  MOVWF  01
049E2:  CLRF   FF7
049E4:  MOVF   x08,W
049E6:  MOVLB  0
049E8:  CALL   009E
049EC:  TBLRD*-
049EE:  TBLRD*+
049F0:  MOVFF  FF5,FEE
049F4:  DECFSZ 01,F
049F6:  BRA    49EE
049F8:  MOVLB  6
049FA:  BTFSC  x09.7
049FC:  BSF    FF2.7
....................       else if(*textptr <= '~') // Check if the letter is in the second font array 
049FE:  BRA    4A70
04A00:  MOVLB  5
04A02:  MOVFF  5FC,03
04A06:  MOVFF  5FB,FE9
04A0A:  MOVFF  5FC,FEA
04A0E:  MOVF   FEF,W
04A10:  SUBLW  7E
04A12:  BNC   4A64
....................          memcpy(pixelData, FONT2[*textptr - 'S'], 5); 
04A14:  MOVFF  5FC,03
04A18:  MOVFF  5FB,FE9
04A1C:  MOVFF  5FC,FEA
04A20:  MOVLW  53
04A22:  SUBWF  FEF,W
04A24:  MULLW  05
04A26:  MOVF   FF3,W
04A28:  CLRF   03
04A2A:  MOVLB  6
04A2C:  MOVWF  x08
04A2E:  MOVLW  06
04A30:  MOVWF  FEA
04A32:  MOVLW  03
04A34:  MOVWF  FE9
04A36:  CLRF   x0C
04A38:  MOVFF  608,60B
04A3C:  MOVFF  FF2,609
04A40:  BCF    FF2.7
04A42:  MOVLW  05
04A44:  MOVWF  01
04A46:  CLRF   FF7
04A48:  MOVF   x08,W
04A4A:  MOVLB  0
04A4C:  CALL   01BC
04A50:  TBLRD*-
04A52:  TBLRD*+
04A54:  MOVFF  FF5,FEE
04A58:  DECFSZ 01,F
04A5A:  BRA    4A52
04A5C:  MOVLB  6
04A5E:  BTFSC  x09.7
04A60:  BSF    FF2.7
....................       else 
04A62:  BRA    4A70
....................          memcpy(pixelData, FONT[0], 5);   // Default to space 
04A64:  MOVLB  6
04A66:  CLRF   x03
04A68:  CLRF   x04
04A6A:  CLRF   x05
04A6C:  CLRF   x06
04A6E:  CLRF   x07
....................  
....................       // Handles newline and carriage returns 
....................       switch(*textptr) 
....................       { 
04A70:  MOVFF  5FC,03
04A74:  MOVLB  5
04A76:  MOVF   xFB,W
04A78:  MOVWF  FE9
04A7A:  MOVFF  03,FEA
04A7E:  MOVF   FEF,W
04A80:  XORLW  0A
04A82:  MOVLB  0
04A84:  BZ    4A8C
04A86:  XORLW  07
04A88:  BZ    4A9C
04A8A:  BRA    4AA2
....................          case '\n': 
....................             y += 7*size + 1; 
04A8C:  MOVLB  5
04A8E:  MOVF   xFD,W
04A90:  MULLW  07
04A92:  MOVF   FF3,W
04A94:  ADDLW  01
04A96:  ADDWF  xFA,F
....................             continue; 
04A98:  BRA    4B52
04A9A:  MOVLB  0
....................          case '\r': 
....................             x = 0; 
04A9C:  MOVLB  5
04A9E:  CLRF   xF9
....................             continue; 
04AA0:  BRA    4B52
....................       } 
....................  
....................       if(x+5*size >= GLCD_WIDTH)          // Performs character wrapping 
04AA2:  MOVLB  5
04AA4:  MOVF   xFD,W
04AA6:  MULLW  05
04AA8:  MOVF   FF3,W
04AAA:  ADDWF  xF9,W
04AAC:  SUBLW  7F
04AAE:  BC    4ABC
....................       { 
....................          x = 0;                           // Set x at far left position 
04AB0:  CLRF   xF9
....................          y += 7*size + 1;                 // Set y at next position down 
04AB2:  MOVF   xFD,W
04AB4:  MULLW  07
04AB6:  MOVF   FF3,W
04AB8:  ADDLW  01
04ABA:  ADDWF  xFA,F
....................       } 
....................       for(j=0; j<5; ++j, x+=size)         // Loop through character byte data 
04ABC:  CLRF   xFF
04ABE:  MOVF   xFF,W
04AC0:  SUBLW  04
04AC2:  BNC   4B52
....................       { 
....................          for(k=0; k < 7; ++k)             // Loop through the vertical pixels 
04AC4:  MOVLB  6
04AC6:  CLRF   x00
04AC8:  MOVF   x00,W
04ACA:  SUBLW  06
04ACC:  BNC   4B48
....................          { 
....................             if(bit_test(pixelData[j], k)) // Check if the pixel should be set 
04ACE:  CLRF   03
04AD0:  MOVLB  5
04AD2:  MOVF   xFF,W
04AD4:  ADDLW  03
04AD6:  MOVWF  FE9
04AD8:  MOVLW  06
04ADA:  ADDWFC 03,W
04ADC:  MOVWF  FEA
04ADE:  MOVFF  FEF,608
04AE2:  MOVFF  608,00
04AE6:  MOVLB  6
04AE8:  MOVF   x00,W
04AEA:  MOVWF  01
04AEC:  BZ    4AF6
04AEE:  BCF    FD8.0
04AF0:  RRCF   00,F
04AF2:  DECFSZ 01,F
04AF4:  BRA    4AEE
04AF6:  BTFSS  00.0
04AF8:  BRA    4B44
....................             { 
....................                for(l=0; l < size; ++l)    // These two loops change the 
04AFA:  CLRF   x01
04AFC:  MOVLB  5
04AFE:  MOVF   xFD,W
04B00:  MOVLB  6
04B02:  SUBWF  x01,W
04B04:  BC    4B44
....................                {                          // character's size 
....................                   for(m=0; m < size; ++m) 
04B06:  CLRF   x02
04B08:  MOVLB  5
04B0A:  MOVF   xFD,W
04B0C:  MOVLB  6
04B0E:  SUBWF  x02,W
04B10:  BC    4B40
....................                   { 
....................                      glcd_pixel(x+m, y+k*size+l, color); // Draws the pixel 
04B12:  MOVF   x02,W
04B14:  MOVLB  5
04B16:  ADDWF  xF9,W
04B18:  MOVLB  6
04B1A:  MOVWF  x08
04B1C:  MOVF   x00,W
04B1E:  MOVLB  5
04B20:  MULWF  xFD
04B22:  MOVF   FF3,W
04B24:  ADDWF  xFA,W
04B26:  MOVLB  6
04B28:  ADDWF  x01,W
04B2A:  MOVWF  x09
04B2C:  MOVFF  608,614
04B30:  MOVWF  x15
04B32:  MOVFF  5FE,616
04B36:  MOVLB  0
04B38:  RCALL  46C4
....................                   } 
04B3A:  MOVLB  6
04B3C:  INCF   x02,F
04B3E:  BRA    4B08
....................                } 
04B40:  INCF   x01,F
04B42:  BRA    4AFC
....................             } 
....................          } 
04B44:  INCF   x00,F
04B46:  BRA    4AC8
....................       } 
04B48:  MOVLB  5
04B4A:  INCF   xFF,F
04B4C:  MOVF   xFD,W
04B4E:  ADDWF  xF9,F
04B50:  BRA    4ABE
....................    } 
04B52:  INCF   xFB,F
04B54:  BTFSC  FD8.2
04B56:  INCF   xFC,F
04B58:  INCF   xF9,F
04B5A:  MOVLB  0
04B5C:  BRA    498A
04B5E:  MOVLB  5
.................... } 
04B60:  MOVLB  0
04B62:  RETLW  00
....................  
.................... #endif 
....................  
.................... #include "imagen.h" 
.................... const int8 Bombillo [64][16] = { 
.................... 0x00, 0x00, 0x00, 0x00, 0x00, 0x00, 0x00, 0x00, 0x00, 0x00, 0x00, 0x00, 0x00, 0x00, 0x00, 0x00, 
.................... 0x00, 0x00, 0x00, 0x00, 0x00, 0x00, 0x00, 0x00, 0x00, 0x00, 0x00, 0x00, 0x00, 0x00, 0x00, 0x00, 
.................... 0x00, 0x00, 0x00, 0x00, 0x00, 0x00, 0x00, 0x00, 0x00, 0x00, 0x00, 0x00, 0x00, 0x00, 0x00, 0x00, 
.................... 0x00, 0x00, 0x00, 0x00, 0x00, 0x00, 0x00, 0x00, 0x00, 0x00, 0x00, 0x00, 0x00, 0x00, 0x00, 0x00, 
.................... 0x00, 0x00, 0x00, 0x00, 0x00, 0x00, 0x00, 0x00, 0x00, 0x00, 0x00, 0x00, 0x00, 0x00, 0x00, 0x00, 
.................... 0x00, 0x00, 0x00, 0x00, 0x00, 0x00, 0x00, 0x00, 0x00, 0x00, 0x00, 0x00, 0x00, 0x00, 0x00, 0x00, 
.................... 0x00, 0x00, 0x00, 0x00, 0x00, 0x00, 0x00, 0x00, 0x00, 0x00, 0x00, 0x00, 0x00, 0x00, 0x00, 0x00, 
.................... 0x00, 0x00, 0x00, 0x00, 0x00, 0x00, 0x00, 0x00, 0x00, 0x00, 0x00, 0x00, 0x00, 0x00, 0x00, 0x00, 
.................... 0x00, 0x00, 0x00, 0x00, 0x00, 0x00, 0x00, 0x00, 0x00, 0x00, 0x00, 0x00, 0x00, 0x00, 0x00, 0x00, 
.................... 0x00, 0x00, 0x00, 0x00, 0x00, 0x00, 0x00, 0x00, 0x00, 0x00, 0x00, 0x00, 0x00, 0x00, 0x00, 0x00, 
.................... 0x00, 0x00, 0x00, 0x00, 0x00, 0x00, 0x00, 0x00, 0x00, 0x00, 0x00, 0x00, 0x00, 0x00, 0x00, 0x00, 
.................... 0x00, 0x00, 0x00, 0x00, 0x00, 0x00, 0x00, 0x00, 0x00, 0x00, 0x00, 0x00, 0x00, 0x00, 0x00, 0x00, 
.................... 0x00, 0x00, 0x00, 0x00, 0x00, 0x00, 0x00, 0x00, 0x00, 0x00, 0x00, 0x00, 0x00, 0x00, 0x00, 0x00, 
.................... 0x00, 0x00, 0x00, 0x00, 0x00, 0x00, 0x00, 0x00, 0x00, 0x00, 0x00, 0x00, 0x00, 0x00, 0x00, 0x00, 
.................... 0x00, 0x00, 0x00, 0x00, 0x00, 0x00, 0x00, 0x00, 0x00, 0x00, 0x00, 0x00, 0x00, 0x00, 0x00, 0x00, 
.................... 0x00, 0x00, 0x00, 0x00, 0x00, 0x00, 0x00, 0x00, 0x00, 0x00, 0x00, 0x00, 0x00, 0x08, 0x00, 0x80, 
.................... 0x00, 0x00, 0x00, 0x00, 0x00, 0x00, 0x00, 0x00, 0x00, 0x00, 0x00, 0x00, 0x00, 0x04, 0x01, 0x00, 
.................... 0x00, 0x00, 0x00, 0x00, 0x00, 0x00, 0x00, 0x00, 0x00, 0x00, 0x00, 0x00, 0x00, 0x02, 0x02, 0x00, 
.................... 0x00, 0x00, 0x00, 0x00, 0x00, 0x00, 0x00, 0x00, 0x00, 0x00, 0x00, 0x00, 0x00, 0x00, 0x78, 0x00, 
.................... 0x00, 0x00, 0x00, 0x00, 0x00, 0x00, 0x00, 0x00, 0x00, 0x00, 0x00, 0x00, 0x00, 0x00, 0x84, 0x00, 
.................... 0x00, 0x00, 0x00, 0x00, 0x00, 0x00, 0x00, 0x00, 0x00, 0x00, 0x00, 0x00, 0x00, 0x01, 0x02, 0x00, 
.................... 0x00, 0x00, 0x00, 0x00, 0x00, 0x00, 0x00, 0x00, 0x00, 0x00, 0x00, 0x00, 0x00, 0xF9, 0x02, 0xF8, 
.................... 0x00, 0x00, 0x00, 0x00, 0x00, 0x00, 0x00, 0x00, 0x00, 0x00, 0x00, 0x00, 0x00, 0x01, 0x02, 0x00, 
.................... 0x00, 0x00, 0x00, 0x00, 0x00, 0x00, 0x00, 0x00, 0x00, 0x00, 0x00, 0x00, 0x00, 0x01, 0x02, 0x00, 
.................... 0x00, 0x00, 0x00, 0x00, 0x00, 0x00, 0x00, 0x00, 0x00, 0x00, 0x00, 0x00, 0x00, 0x04, 0x84, 0x80, 
.................... 0x00, 0x00, 0x00, 0x00, 0x00, 0x00, 0x00, 0x00, 0x00, 0x00, 0x00, 0x00, 0x00, 0x08, 0x78, 0x40, 
.................... 0x00, 0x00, 0x00, 0x00, 0x00, 0x00, 0x00, 0x00, 0x00, 0x00, 0x00, 0x00, 0x00, 0x10, 0x48, 0x20, 
.................... 0x00, 0x00, 0x00, 0x00, 0x00, 0x00, 0x00, 0x00, 0x00, 0x00, 0x00, 0x00, 0x00, 0x20, 0x48, 0x10, 
.................... 0x00, 0x00, 0x00, 0x00, 0x00, 0x00, 0x00, 0x00, 0x00, 0x00, 0x00, 0x00, 0x00, 0x00, 0x78, 0x00, 
.................... 0x00, 0x00, 0x00, 0x00, 0x00, 0x00, 0x00, 0x00, 0x00, 0x00, 0x00, 0x00, 0x00, 0x00, 0x00, 0x00, 
.................... 0x00, 0x00, 0x00, 0x00, 0x00, 0x00, 0x00, 0x00, 0x00, 0x00, 0x00, 0x00, 0x00, 0x00, 0x00, 0x00, 
.................... 0x00, 0x00, 0x00, 0x00, 0x00, 0x00, 0x00, 0x00, 0x00, 0x00, 0x00, 0x00, 0x00, 0x00, 0x00, 0x00, 
.................... 0x00, 0x00, 0x00, 0x00, 0x00, 0x00, 0x00, 0x00, 0x00, 0x00, 0x00, 0x00, 0x00, 0x00, 0x00, 0x00, 
.................... 0x00, 0x00, 0x00, 0x00, 0x00, 0x00, 0x00, 0x00, 0x00, 0x00, 0x00, 0x00, 0x00, 0x00, 0x00, 0x00, 
.................... 0x00, 0x00, 0x00, 0x00, 0x00, 0x00, 0x00, 0x00, 0x00, 0x00, 0x00, 0x00, 0x00, 0x00, 0x00, 0x00, 
.................... 0x00, 0x00, 0x00, 0x00, 0x00, 0x00, 0x00, 0x00, 0x00, 0x00, 0x00, 0x00, 0x00, 0x00, 0x00, 0x00, 
.................... 0x00, 0x00, 0x00, 0x00, 0x00, 0x00, 0x00, 0x00, 0x00, 0x00, 0x00, 0x00, 0x00, 0x00, 0x00, 0x00, 
.................... 0x00, 0x00, 0x00, 0x00, 0x00, 0x00, 0x00, 0x00, 0x00, 0x00, 0x00, 0x00, 0x00, 0x00, 0x00, 0x00, 
.................... 0x00, 0x00, 0x00, 0x00, 0x00, 0x00, 0x00, 0x00, 0x00, 0x00, 0x00, 0x00, 0x00, 0x00, 0x00, 0x00, 
.................... 0x00, 0x00, 0x00, 0x00, 0x00, 0x00, 0x00, 0x00, 0x00, 0x00, 0x00, 0x00, 0x00, 0x00, 0x00, 0x00, 
.................... 0x00, 0x00, 0x00, 0x00, 0x00, 0x00, 0x00, 0x00, 0x00, 0x00, 0x00, 0x00, 0x00, 0x00, 0x00, 0x00, 
.................... 0x00, 0x00, 0x00, 0x00, 0x00, 0x00, 0x00, 0x00, 0x00, 0x00, 0x00, 0x00, 0x00, 0x00, 0x00, 0x00, 
.................... 0x00, 0x00, 0x00, 0x00, 0x00, 0x00, 0x00, 0x00, 0x00, 0x00, 0x00, 0x00, 0x00, 0x00, 0x00, 0x00, 
.................... 0x00, 0x00, 0x00, 0x00, 0x00, 0x00, 0x00, 0x00, 0x00, 0x00, 0x00, 0x00, 0x00, 0x00, 0x00, 0x00, 
.................... 0x00, 0x00, 0x00, 0x00, 0x00, 0x00, 0x00, 0x00, 0x00, 0x00, 0x00, 0x00, 0x00, 0x00, 0x00, 0x00, 
.................... 0x00, 0x00, 0x00, 0x00, 0x00, 0x00, 0x00, 0x00, 0x00, 0x00, 0x00, 0x00, 0x00, 0x00, 0x00, 0x00, 
.................... 0x00, 0x00, 0x00, 0x00, 0x00, 0x00, 0x00, 0x00, 0x00, 0x00, 0x00, 0x00, 0x00, 0x00, 0x00, 0x00, 
.................... 0x00, 0x00, 0x00, 0x00, 0x00, 0x00, 0x00, 0x00, 0x00, 0x00, 0x00, 0x00, 0x00, 0x00, 0x00, 0x00, 
.................... 0x00, 0x00, 0x00, 0x00, 0x00, 0x00, 0x00, 0x00, 0x00, 0x00, 0x00, 0x00, 0x00, 0x00, 0x00, 0x00, 
.................... 0x00, 0x00, 0x00, 0x00, 0x00, 0x00, 0x00, 0x00, 0x00, 0x00, 0x00, 0x00, 0x00, 0x00, 0x00, 0x00, 
.................... 0x00, 0x00, 0x00, 0x00, 0x00, 0x00, 0x00, 0x00, 0x00, 0x00, 0x00, 0x00, 0x00, 0x00, 0x00, 0x00, 
.................... 0x00, 0x00, 0x00, 0x00, 0x00, 0x00, 0x00, 0x00, 0x00, 0x00, 0x00, 0x00, 0x00, 0x00, 0x00, 0x00, 
.................... 0x00, 0x00, 0x00, 0x00, 0x00, 0x00, 0x00, 0x00, 0x00, 0x00, 0x00, 0x00, 0x00, 0x00, 0x00, 0x00, 
.................... 0x00, 0x00, 0x00, 0x00, 0x00, 0x00, 0x00, 0x00, 0x00, 0x00, 0x00, 0x00, 0x00, 0x00, 0x00, 0x00, 
.................... 0x00, 0x00, 0x00, 0x00, 0x00, 0x00, 0x00, 0x00, 0x00, 0x00, 0x00, 0x00, 0x00, 0x00, 0x00, 0x00, 
.................... 0x00, 0x00, 0x00, 0x00, 0x00, 0x00, 0x00, 0x00, 0x00, 0x00, 0x00, 0x00, 0x00, 0x00, 0x00, 0x00, 
.................... 0x00, 0x00, 0x00, 0x00, 0x00, 0x00, 0x00, 0x00, 0x00, 0x00, 0x00, 0x00, 0x00, 0x00, 0x00, 0x00, 
.................... 0x00, 0x00, 0x00, 0x00, 0x00, 0x00, 0x00, 0x00, 0x00, 0x00, 0x00, 0x00, 0x00, 0x00, 0x00, 0x00, 
.................... 0x00, 0x00, 0x00, 0x00, 0x00, 0x00, 0x00, 0x00, 0x00, 0x00, 0x00, 0x00, 0x00, 0x00, 0x00, 0x00, 
.................... 0x00, 0x00, 0x00, 0x00, 0x00, 0x00, 0x00, 0x00, 0x00, 0x00, 0x00, 0x00, 0x00, 0x00, 0x00, 0x00, 
.................... 0x00, 0x00, 0x00, 0x00, 0x00, 0x00, 0x00, 0x00, 0x00, 0x00, 0x00, 0x00, 0x00, 0x00, 0x00, 0x00, 
.................... 0x00, 0x00, 0x00, 0x00, 0x00, 0x00, 0x00, 0x00, 0x00, 0x00, 0x00, 0x00, 0x00, 0x00, 0x00, 0x00, 
.................... 0x00, 0x00, 0x00, 0x00, 0x00, 0x00, 0x00, 0x00, 0x00, 0x00, 0x00, 0x00, 0x00, 0x00, 0x00, 0x00, 
.................... 0x00, 0x00, 0x00, 0x00, 0x00, 0x00, 0x00, 0x00, 0x00, 0x00, 0x00, 0x00, 0x00, 0x00, 0x00, 0x00 
.................... }; 
....................  
.................... const int8 Tomai [64][16] = { 
.................... 0x00, 0x00, 0x00, 0x00, 0x00, 0x00, 0x00, 0x00, 0x00, 0x00, 0x00, 0x00, 0x00, 0x00, 0x00, 0x00, 
.................... 0x00, 0x00, 0x00, 0x00, 0x00, 0x00, 0x00, 0x00, 0x00, 0x00, 0x00, 0x00, 0x00, 0x00, 0x00, 0x00, 
.................... 0x00, 0x00, 0x00, 0x00, 0x00, 0x00, 0x00, 0x00, 0x00, 0x00, 0x00, 0x00, 0x00, 0x00, 0x00, 0x00, 
.................... 0x00, 0x00, 0x00, 0x00, 0x00, 0x00, 0x00, 0x00, 0x00, 0x00, 0x00, 0x00, 0x00, 0x00, 0x00, 0x00, 
.................... 0x00, 0x00, 0x00, 0x00, 0x00, 0x00, 0x00, 0x00, 0x00, 0x00, 0x00, 0x00, 0x00, 0x00, 0x00, 0x00, 
.................... 0x00, 0x00, 0x00, 0x00, 0x00, 0x00, 0x00, 0x00, 0x00, 0x00, 0x00, 0x00, 0x00, 0x00, 0x00, 0x00, 
.................... 0x00, 0x00, 0x00, 0x00, 0x00, 0x00, 0x00, 0x00, 0x00, 0x00, 0x00, 0x00, 0x00, 0x00, 0x00, 0x00, 
.................... 0x00, 0x00, 0x00, 0x00, 0x00, 0x00, 0x00, 0x00, 0x00, 0x00, 0x00, 0x00, 0x00, 0x00, 0x00, 0x00, 
.................... 0x00, 0x00, 0x00, 0x00, 0x00, 0x00, 0x00, 0x00, 0x00, 0x00, 0x00, 0x00, 0x00, 0x00, 0x00, 0x00, 
.................... 0x00, 0x00, 0x00, 0x00, 0x00, 0x00, 0x00, 0x00, 0x00, 0x00, 0x00, 0x00, 0x00, 0x00, 0x00, 0x00, 
.................... 0x00, 0x00, 0x00, 0x00, 0x00, 0x00, 0x00, 0x00, 0x00, 0x00, 0x00, 0x00, 0x00, 0x00, 0x00, 0x00, 
.................... 0x00, 0x00, 0x00, 0x00, 0x00, 0x00, 0x00, 0x00, 0x00, 0x00, 0x00, 0x00, 0x00, 0x00, 0x00, 0x00, 
.................... 0x00, 0x00, 0x00, 0x00, 0x00, 0x00, 0x00, 0x00, 0x00, 0x00, 0x00, 0x00, 0x00, 0x00, 0x00, 0x00, 
.................... 0x00, 0x00, 0x00, 0x00, 0x00, 0x00, 0x00, 0x00, 0x00, 0x00, 0x00, 0x00, 0x00, 0x00, 0x00, 0x00, 
.................... 0x00, 0x00, 0x00, 0x00, 0x00, 0x00, 0x00, 0x00, 0x00, 0x00, 0x00, 0x00, 0x00, 0x00, 0x00, 0x00, 
.................... 0x00, 0x00, 0x00, 0x00, 0x00, 0x00, 0x00, 0x00, 0x00, 0x00, 0x00, 0x00, 0x00, 0x00, 0x00, 0x00, 
.................... 0x00, 0x00, 0x00, 0x00, 0x00, 0x00, 0x00, 0x00, 0x00, 0x00, 0x00, 0x00, 0x00, 0x00, 0x00, 0x00, 
.................... 0x00, 0x00, 0x00, 0x00, 0x00, 0x00, 0x00, 0x00, 0x00, 0x00, 0x00, 0x00, 0x00, 0x00, 0x00, 0x00, 
.................... 0x00, 0x00, 0x00, 0x00, 0x00, 0x00, 0x00, 0x00, 0x00, 0x00, 0x00, 0x00, 0x00, 0x00, 0x00, 0x00, 
.................... 0x00, 0x00, 0x00, 0x00, 0x00, 0x00, 0x00, 0x00, 0x00, 0x00, 0x00, 0x00, 0x00, 0x00, 0x00, 0x00, 
.................... 0x00, 0x00, 0x00, 0x00, 0x00, 0x00, 0x00, 0x00, 0x00, 0x00, 0x00, 0x00, 0x00, 0x00, 0x00, 0x00, 
.................... 0x00, 0x00, 0x00, 0x00, 0x00, 0x00, 0x00, 0x00, 0x00, 0x00, 0x00, 0x00, 0x00, 0x00, 0x00, 0x00, 
.................... 0x00, 0x00, 0x00, 0x00, 0x00, 0x00, 0x00, 0x00, 0x00, 0x00, 0x00, 0x00, 0x00, 0x00, 0x00, 0x00, 
.................... 0x00, 0x00, 0x00, 0x00, 0x00, 0x00, 0x00, 0x00, 0x00, 0x00, 0x00, 0x00, 0x00, 0x00, 0x00, 0x00, 
.................... 0x00, 0x00, 0x00, 0x00, 0x00, 0x00, 0x00, 0x00, 0x00, 0x00, 0x00, 0x00, 0x00, 0x00, 0x00, 0x00, 
.................... 0x00, 0x00, 0x00, 0x00, 0x00, 0x00, 0x00, 0x00, 0x00, 0x00, 0x00, 0x00, 0x00, 0x00, 0x00, 0x00, 
.................... 0x00, 0x00, 0x00, 0x00, 0x00, 0x00, 0x00, 0x00, 0x00, 0x00, 0x00, 0x00, 0x00, 0x00, 0x00, 0x00, 
.................... 0x00, 0x00, 0x00, 0x00, 0x00, 0x00, 0x00, 0x00, 0x00, 0x00, 0x00, 0x00, 0x00, 0x00, 0x00, 0x00, 
.................... 0x00, 0x00, 0x00, 0x00, 0x00, 0x00, 0x00, 0x00, 0x00, 0x00, 0x00, 0x00, 0x00, 0x00, 0x00, 0x00, 
.................... 0x00, 0x00, 0x00, 0x00, 0x00, 0x00, 0x00, 0x00, 0x00, 0x00, 0x00, 0x00, 0x00, 0x00, 0x00, 0x00, 
.................... 0x00, 0x00, 0x00, 0x00, 0x00, 0x00, 0x00, 0x00, 0x00, 0x00, 0x00, 0x00, 0x00, 0x7F, 0xFF, 0xF8, 
.................... 0x00, 0x00, 0x00, 0x00, 0x00, 0x00, 0x00, 0x00, 0x00, 0x00, 0x00, 0x00, 0x00, 0x40, 0x00, 0x08, 
.................... 0x00, 0x00, 0x00, 0x00, 0x00, 0x00, 0x00, 0x00, 0x00, 0x00, 0x00, 0x00, 0x00, 0x47, 0x03, 0x88, 
.................... 0x00, 0x00, 0x00, 0x00, 0x00, 0x00, 0x00, 0x00, 0x00, 0x00, 0x00, 0x00, 0x00, 0x45, 0x02, 0x88, 
.................... 0x00, 0x00, 0x00, 0x00, 0x00, 0x00, 0x00, 0x00, 0x00, 0x00, 0x00, 0x00, 0x00, 0x45, 0x02, 0x88, 
.................... 0x00, 0x00, 0x00, 0x00, 0x00, 0x00, 0x00, 0x00, 0x00, 0x00, 0x00, 0x00, 0x00, 0x45, 0x02, 0x88, 
.................... 0x00, 0x00, 0x00, 0x00, 0x00, 0x00, 0x00, 0x00, 0x00, 0x00, 0x00, 0x00, 0x00, 0x45, 0x02, 0x88, 
.................... 0x00, 0x00, 0x00, 0x00, 0x00, 0x00, 0x00, 0x00, 0x00, 0x00, 0x00, 0x00, 0x00, 0x47, 0x03, 0x88, 
.................... 0x00, 0x00, 0x00, 0x00, 0x00, 0x00, 0x00, 0x00, 0x00, 0x00, 0x00, 0x00, 0x00, 0x40, 0x00, 0x08, 
.................... 0x00, 0x00, 0x00, 0x00, 0x00, 0x00, 0x00, 0x00, 0x00, 0x00, 0x00, 0x00, 0x00, 0x40, 0xFC, 0x08, 
.................... 0x00, 0x00, 0x00, 0x00, 0x00, 0x00, 0x00, 0x00, 0x00, 0x00, 0x00, 0x00, 0x00, 0x40, 0x84, 0x08, 
.................... 0x00, 0x00, 0x00, 0x00, 0x00, 0x00, 0x00, 0x00, 0x00, 0x00, 0x00, 0x00, 0x00, 0x40, 0x84, 0x08, 
.................... 0x00, 0x00, 0x00, 0x00, 0x00, 0x00, 0x00, 0x00, 0x00, 0x00, 0x00, 0x00, 0x00, 0x40, 0xFC, 0x08, 
.................... 0x00, 0x00, 0x00, 0x00, 0x00, 0x00, 0x00, 0x00, 0x00, 0x00, 0x00, 0x00, 0x00, 0x40, 0x00, 0x08, 
.................... 0x00, 0x00, 0x00, 0x00, 0x00, 0x00, 0x00, 0x00, 0x00, 0x00, 0x00, 0x00, 0x00, 0x7F, 0xFF, 0xF8, 
.................... 0x00, 0x00, 0x00, 0x00, 0x00, 0x00, 0x00, 0x00, 0x00, 0x00, 0x00, 0x00, 0x00, 0x00, 0x00, 0x00, 
.................... 0x00, 0x00, 0x00, 0x00, 0x00, 0x00, 0x00, 0x00, 0x00, 0x00, 0x00, 0x00, 0x00, 0x00, 0x00, 0x00, 
.................... 0x00, 0x00, 0x00, 0x00, 0x00, 0x00, 0x00, 0x00, 0x00, 0x00, 0x00, 0x00, 0x00, 0x00, 0x00, 0x00, 
.................... 0x00, 0x00, 0x00, 0x00, 0x00, 0x00, 0x00, 0x00, 0x00, 0x00, 0x00, 0x00, 0x00, 0x00, 0x00, 0x00, 
.................... 0x00, 0x00, 0x00, 0x00, 0x00, 0x00, 0x00, 0x00, 0x00, 0x00, 0x00, 0x00, 0x00, 0x00, 0x00, 0x00, 
.................... 0x00, 0x00, 0x00, 0x00, 0x00, 0x00, 0x00, 0x00, 0x00, 0x00, 0x00, 0x00, 0x00, 0x00, 0x00, 0x00, 
.................... 0x00, 0x00, 0x00, 0x00, 0x00, 0x00, 0x00, 0x00, 0x00, 0x00, 0x00, 0x00, 0x00, 0x00, 0x00, 0x00, 
.................... 0x00, 0x00, 0x00, 0x00, 0x00, 0x00, 0x00, 0x00, 0x00, 0x00, 0x00, 0x00, 0x00, 0x00, 0x00, 0x00, 
.................... 0x00, 0x00, 0x00, 0x00, 0x00, 0x00, 0x00, 0x00, 0x00, 0x00, 0x00, 0x00, 0x00, 0x00, 0x00, 0x00, 
.................... 0x00, 0x00, 0x00, 0x00, 0x00, 0x00, 0x00, 0x00, 0x00, 0x00, 0x00, 0x00, 0x00, 0x00, 0x00, 0x00, 
.................... 0x00, 0x00, 0x00, 0x00, 0x00, 0x00, 0x00, 0x00, 0x00, 0x00, 0x00, 0x00, 0x00, 0x00, 0x00, 0x00, 
.................... 0x00, 0x00, 0x00, 0x00, 0x00, 0x00, 0x00, 0x00, 0x00, 0x00, 0x00, 0x00, 0x00, 0x00, 0x00, 0x00, 
.................... 0x00, 0x00, 0x00, 0x00, 0x00, 0x00, 0x00, 0x00, 0x00, 0x00, 0x00, 0x00, 0x00, 0x00, 0x00, 0x00, 
.................... 0x00, 0x00, 0x00, 0x00, 0x00, 0x00, 0x00, 0x00, 0x00, 0x00, 0x00, 0x00, 0x00, 0x00, 0x00, 0x00, 
.................... 0x00, 0x00, 0x00, 0x00, 0x00, 0x00, 0x00, 0x00, 0x00, 0x00, 0x00, 0x00, 0x00, 0x00, 0x00, 0x00, 
.................... 0x00, 0x00, 0x00, 0x00, 0x00, 0x00, 0x00, 0x00, 0x00, 0x00, 0x00, 0x00, 0x00, 0x00, 0x00, 0x00, 
.................... 0x00, 0x00, 0x00, 0x00, 0x00, 0x00, 0x00, 0x00, 0x00, 0x00, 0x00, 0x00, 0x00, 0x00, 0x00, 0x00, 
.................... 0x00, 0x00, 0x00, 0x00, 0x00, 0x00, 0x00, 0x00, 0x00, 0x00, 0x00, 0x00, 0x00, 0x00, 0x00, 0x00, 
.................... 0x00, 0x00, 0x00, 0x00, 0x00, 0x00, 0x00, 0x00, 0x00, 0x00, 0x00, 0x00, 0x00, 0x00, 0x00, 0x00 
.................... }; 
....................  
.................... const int8 Ventilador [64][16] = { 
.................... 0x00, 0x00, 0x00, 0x00, 0x00, 0x00, 0x00, 0x00, 0x00, 0x00, 0x00, 0x00, 0x00, 0x00, 0x00, 0x00, 
.................... 0x00, 0x00, 0x00, 0x00, 0x00, 0x00, 0x00, 0x00, 0x00, 0x00, 0x00, 0x00, 0x00, 0x00, 0x00, 0x00, 
.................... 0x00, 0x00, 0x00, 0x00, 0x00, 0x00, 0x00, 0x00, 0x00, 0x00, 0x00, 0x00, 0x00, 0x00, 0x00, 0x00, 
.................... 0x00, 0x00, 0x00, 0x00, 0x00, 0x00, 0x00, 0x00, 0x00, 0x00, 0x00, 0x00, 0x00, 0x00, 0x00, 0x00, 
.................... 0x00, 0x00, 0x00, 0x00, 0x00, 0x00, 0x00, 0x00, 0x00, 0x00, 0x00, 0x00, 0x00, 0x00, 0x00, 0x00, 
.................... 0x00, 0x00, 0x00, 0x00, 0x00, 0x00, 0x00, 0x00, 0x00, 0x00, 0x00, 0x00, 0x00, 0x00, 0x00, 0x00, 
.................... 0x00, 0x00, 0x00, 0x00, 0x00, 0x00, 0x00, 0x00, 0x00, 0x00, 0x00, 0x00, 0x00, 0x00, 0x00, 0x00, 
.................... 0x00, 0x00, 0x00, 0x00, 0x00, 0x00, 0x00, 0x00, 0x00, 0x00, 0x00, 0x00, 0x00, 0x00, 0x00, 0x00, 
.................... 0x00, 0x00, 0x00, 0x00, 0x00, 0x00, 0x00, 0x00, 0x00, 0x00, 0x00, 0x00, 0x00, 0x00, 0x00, 0x00, 
.................... 0x00, 0x00, 0x00, 0x00, 0x00, 0x00, 0x00, 0x00, 0x00, 0x00, 0x00, 0x00, 0x00, 0x00, 0x00, 0x00, 
.................... 0x00, 0x00, 0x00, 0x00, 0x00, 0x00, 0x00, 0x00, 0x00, 0x00, 0x00, 0x00, 0x00, 0x00, 0x00, 0x00, 
.................... 0x00, 0x00, 0x00, 0x00, 0x00, 0x00, 0x00, 0x00, 0x00, 0x00, 0x00, 0x00, 0x00, 0x00, 0x00, 0x00, 
.................... 0x00, 0x00, 0x00, 0x00, 0x00, 0x00, 0x00, 0x00, 0x00, 0x00, 0x00, 0x00, 0x00, 0x00, 0x00, 0x00, 
.................... 0x00, 0x00, 0x00, 0x00, 0x00, 0x00, 0x00, 0x00, 0x00, 0x00, 0x00, 0x00, 0x00, 0x00, 0x00, 0x00, 
.................... 0x00, 0x00, 0x00, 0x00, 0x00, 0x00, 0x00, 0x00, 0x00, 0x00, 0x00, 0x00, 0x00, 0x00, 0x00, 0x00, 
.................... 0x00, 0x00, 0x00, 0x00, 0x00, 0x00, 0x00, 0x00, 0x00, 0x00, 0x00, 0x00, 0x00, 0x00, 0x00, 0x00, 
.................... 0x00, 0x00, 0x00, 0x00, 0x00, 0x00, 0x00, 0x00, 0x00, 0x00, 0x00, 0x00, 0x00, 0x00, 0x00, 0x00, 
.................... 0x00, 0x00, 0x00, 0x00, 0x00, 0x00, 0x00, 0x00, 0x00, 0x00, 0x00, 0x00, 0x00, 0x00, 0x00, 0x00, 
.................... 0x00, 0x00, 0x00, 0x00, 0x00, 0x00, 0x00, 0x00, 0x00, 0x00, 0x00, 0x00, 0x00, 0x00, 0x00, 0x00, 
.................... 0x00, 0x00, 0x00, 0x00, 0x00, 0x00, 0x00, 0x00, 0x00, 0x00, 0x00, 0x00, 0x00, 0x00, 0x00, 0x00, 
.................... 0x00, 0x00, 0x00, 0x00, 0x00, 0x00, 0x00, 0x00, 0x00, 0x00, 0x00, 0x00, 0x00, 0x00, 0x00, 0x00, 
.................... 0x00, 0x00, 0x00, 0x00, 0x00, 0x00, 0x00, 0x00, 0x00, 0x00, 0x00, 0x00, 0x00, 0x00, 0x00, 0x00, 
.................... 0x00, 0x00, 0x00, 0x00, 0x00, 0x00, 0x00, 0x00, 0x00, 0x00, 0x00, 0x00, 0x00, 0x00, 0x00, 0x00, 
.................... 0x00, 0x00, 0x00, 0x00, 0x00, 0x00, 0x00, 0x00, 0x00, 0x00, 0x00, 0x00, 0x00, 0x00, 0x00, 0x00, 
.................... 0x00, 0x00, 0x00, 0x00, 0x00, 0x00, 0x00, 0x00, 0x00, 0x00, 0x00, 0x00, 0x00, 0x00, 0x00, 0x00, 
.................... 0x00, 0x00, 0x00, 0x00, 0x00, 0x00, 0x00, 0x00, 0x00, 0x00, 0x00, 0x00, 0x00, 0x00, 0x00, 0x00, 
.................... 0x00, 0x00, 0x00, 0x00, 0x00, 0x00, 0x00, 0x00, 0x00, 0x00, 0x00, 0x00, 0x00, 0x00, 0x00, 0x00, 
.................... 0x00, 0x00, 0x00, 0x00, 0x00, 0x00, 0x00, 0x00, 0x00, 0x00, 0x00, 0x00, 0x00, 0x00, 0x00, 0x00, 
.................... 0x00, 0x00, 0x00, 0x00, 0x00, 0x00, 0x00, 0x00, 0x00, 0x00, 0x00, 0x00, 0x00, 0x00, 0x00, 0x00, 
.................... 0x00, 0x00, 0x00, 0x00, 0x00, 0x00, 0x00, 0x00, 0x00, 0x00, 0x00, 0x00, 0x00, 0x00, 0x00, 0x00, 
.................... 0x00, 0x00, 0x00, 0x00, 0x00, 0x00, 0x00, 0x00, 0x00, 0x00, 0x00, 0x00, 0x00, 0x00, 0x00, 0x00, 
.................... 0x00, 0x00, 0x00, 0x00, 0x00, 0x00, 0x00, 0x00, 0x00, 0x00, 0x00, 0x00, 0x00, 0x00, 0x00, 0x00, 
.................... 0x00, 0x00, 0x00, 0x00, 0x00, 0x00, 0x00, 0x00, 0x00, 0x00, 0x00, 0x00, 0x00, 0x00, 0x00, 0x00, 
.................... 0x00, 0x00, 0x00, 0x00, 0x00, 0x00, 0x00, 0x00, 0x00, 0x00, 0x00, 0x00, 0x00, 0x00, 0x00, 0x00, 
.................... 0x00, 0x00, 0x00, 0x00, 0x00, 0x00, 0x00, 0x00, 0x00, 0x00, 0x00, 0x00, 0x00, 0x00, 0x00, 0x00, 
.................... 0x00, 0x00, 0x00, 0x00, 0x00, 0x00, 0x00, 0x00, 0x00, 0x00, 0x00, 0x00, 0x00, 0x00, 0x00, 0x00, 
.................... 0x00, 0x00, 0x00, 0x00, 0x00, 0x00, 0x00, 0x00, 0x00, 0x00, 0x00, 0x00, 0x00, 0x00, 0x00, 0x00, 
.................... 0x00, 0x00, 0x00, 0x00, 0x00, 0x00, 0x00, 0x00, 0x00, 0x00, 0x00, 0x00, 0x00, 0x00, 0x00, 0x00, 
.................... 0x00, 0x00, 0x00, 0x00, 0x00, 0x00, 0x00, 0x00, 0x00, 0x00, 0x00, 0x00, 0x00, 0x00, 0x00, 0x00, 
.................... 0x00, 0x00, 0x00, 0x00, 0x00, 0x00, 0x00, 0x00, 0x00, 0x00, 0x00, 0x00, 0x00, 0x00, 0x00, 0x00, 
.................... 0x00, 0x00, 0x00, 0x00, 0x00, 0x00, 0x00, 0x00, 0x00, 0x00, 0x00, 0x00, 0x00, 0x00, 0x00, 0x00, 
.................... 0x00, 0x00, 0x00, 0x00, 0x00, 0x00, 0x00, 0x00, 0x00, 0x00, 0x00, 0x00, 0x00, 0x00, 0x00, 0x00, 
.................... 0x00, 0x00, 0x00, 0x00, 0x00, 0x00, 0x00, 0x00, 0x00, 0x00, 0x00, 0x00, 0x00, 0x00, 0x00, 0x00, 
.................... 0x00, 0x00, 0x00, 0x00, 0x00, 0x00, 0x00, 0x00, 0x00, 0x00, 0x00, 0x00, 0x00, 0x00, 0x00, 0x00, 
.................... 0x00, 0x00, 0x00, 0x00, 0x00, 0x00, 0x00, 0x00, 0x00, 0x00, 0x00, 0x00, 0x00, 0x00, 0x00, 0x00, 
.................... 0x00, 0x00, 0x00, 0x00, 0x00, 0x00, 0x00, 0x00, 0x00, 0x00, 0x00, 0x00, 0x00, 0x00, 0x00, 0x00, 
.................... 0x00, 0x00, 0x00, 0x00, 0x00, 0x00, 0x00, 0x00, 0x00, 0x00, 0x00, 0x00, 0x00, 0x00, 0x60, 0x00, 
.................... 0x00, 0x00, 0x00, 0x00, 0x00, 0x00, 0x00, 0x00, 0x00, 0x00, 0x00, 0x00, 0x00, 0x00, 0xF0, 0x00, 
.................... 0x00, 0x00, 0x00, 0x00, 0x00, 0x00, 0x00, 0x00, 0x00, 0x00, 0x00, 0x00, 0x00, 0x01, 0xF8, 0x00, 
.................... 0x00, 0x00, 0x00, 0x00, 0x00, 0x00, 0x00, 0x00, 0x00, 0x00, 0x00, 0x00, 0x00, 0x01, 0xF8, 0x00, 
.................... 0x00, 0x00, 0x00, 0x00, 0x00, 0x00, 0x00, 0x00, 0x00, 0x00, 0x00, 0x00, 0x00, 0x01, 0xF8, 0x00, 
.................... 0x00, 0x00, 0x00, 0x00, 0x00, 0x00, 0x00, 0x00, 0x00, 0x00, 0x00, 0x00, 0x00, 0x00, 0xF0, 0x00, 
.................... 0x00, 0x00, 0x00, 0x00, 0x00, 0x00, 0x00, 0x00, 0x00, 0x00, 0x00, 0x00, 0x00, 0x38, 0x71, 0xC0, 
.................... 0x00, 0x00, 0x00, 0x00, 0x00, 0x00, 0x00, 0x00, 0x00, 0x00, 0x00, 0x00, 0x00, 0x7C, 0x93, 0xE0, 
.................... 0x00, 0x00, 0x00, 0x00, 0x00, 0x00, 0x00, 0x00, 0x00, 0x00, 0x00, 0x00, 0x00, 0xFF, 0x0F, 0xF0, 
.................... 0x00, 0x00, 0x00, 0x00, 0x00, 0x00, 0x00, 0x00, 0x00, 0x00, 0x00, 0x00, 0x00, 0xFF, 0x0F, 0xF0, 
.................... 0x00, 0x00, 0x00, 0x00, 0x00, 0x00, 0x00, 0x00, 0x00, 0x00, 0x00, 0x00, 0x00, 0x7D, 0x93, 0xE0, 
.................... 0x00, 0x00, 0x00, 0x00, 0x00, 0x00, 0x00, 0x00, 0x00, 0x00, 0x00, 0x00, 0x00, 0x38, 0x61, 0xC0, 
.................... 0x00, 0x00, 0x00, 0x00, 0x00, 0x00, 0x00, 0x00, 0x00, 0x00, 0x00, 0x00, 0x00, 0x00, 0xF0, 0x00, 
.................... 0x00, 0x00, 0x00, 0x00, 0x00, 0x00, 0x00, 0x00, 0x00, 0x00, 0x00, 0x00, 0x00, 0x01, 0xF8, 0x00, 
.................... 0x00, 0x00, 0x00, 0x00, 0x00, 0x00, 0x00, 0x00, 0x00, 0x00, 0x00, 0x00, 0x00, 0x01, 0xF8, 0x00, 
.................... 0x00, 0x00, 0x00, 0x00, 0x00, 0x00, 0x00, 0x00, 0x00, 0x00, 0x00, 0x00, 0x00, 0x01, 0xF8, 0x00, 
.................... 0x00, 0x00, 0x00, 0x00, 0x00, 0x00, 0x00, 0x00, 0x00, 0x00, 0x00, 0x00, 0x00, 0x00, 0xF0, 0x00, 
.................... 0x00, 0x00, 0x00, 0x00, 0x00, 0x00, 0x00, 0x00, 0x00, 0x00, 0x00, 0x00, 0x00, 0x00, 0x60, 0x00 
.................... }; 
....................  
.................... #include "FuncionesDisplay.h" 
....................  
.................... typedef struct{ 
....................    char Letra[20]; 
.................... }MENUU; 
....................  
.................... MENUU Menus; 
....................   
.................... void displayContrasena(int digito, int x, int y, int sombreado) 
.................... { 
....................    char voltage[9]; 
....................    sprintf(voltage, "%i", digito); 
04B64:  MOVLW  05
04B66:  MOVLB  4
04B68:  MOVWF  x2C
04B6A:  MOVLW  EE
04B6C:  MOVWF  x2B
04B6E:  MOVFF  5EA,5F7
04B72:  MOVLW  1F
04B74:  MOVLB  5
04B76:  MOVWF  xF8
04B78:  MOVLB  0
04B7A:  RCALL  45E6
....................     
....................    if(sombreado==1) 
04B7C:  MOVLB  5
04B7E:  DECFSZ xED,W
04B80:  BRA    4BD0
....................       {glcd_rect(x, y, x+18, y+24, YES, ON);glcd_text57(x+2, y+1, voltage, 2, OFF);} 
04B82:  MOVLW  12
04B84:  ADDWF  xEB,W
04B86:  MOVWF  xF7
04B88:  MOVLW  18
04B8A:  ADDWF  xEC,W
04B8C:  MOVWF  xF8
04B8E:  MOVFF  5EB,5F9
04B92:  MOVFF  5EC,5FA
04B96:  MOVFF  5F7,5FB
04B9A:  MOVWF  xFC
04B9C:  MOVLW  01
04B9E:  MOVWF  xFD
04BA0:  MOVWF  xFE
04BA2:  MOVLB  0
04BA4:  RCALL  48BE
04BA6:  MOVLW  02
04BA8:  MOVLB  5
04BAA:  ADDWF  xEB,W
04BAC:  MOVWF  xF7
04BAE:  MOVLW  01
04BB0:  ADDWF  xEC,W
04BB2:  MOVWF  xF8
04BB4:  MOVFF  5F7,5F9
04BB8:  MOVWF  xFA
04BBA:  MOVLW  05
04BBC:  MOVWF  xFC
04BBE:  MOVLW  EE
04BC0:  MOVWF  xFB
04BC2:  MOVLW  02
04BC4:  MOVWF  xFD
04BC6:  CLRF   xFE
04BC8:  MOVLB  0
04BCA:  RCALL  498A
....................    else    
04BCC:  BRA    4C1A
04BCE:  MOVLB  5
....................       {glcd_rect(x, y, x+18, y+24, NO, OFF);glcd_text57(x+2, y+1, voltage, 2, ON);} 
04BD0:  MOVLW  12
04BD2:  ADDWF  xEB,W
04BD4:  MOVWF  xF7
04BD6:  MOVLW  18
04BD8:  ADDWF  xEC,W
04BDA:  MOVWF  xF8
04BDC:  MOVFF  5EB,5F9
04BE0:  MOVFF  5EC,5FA
04BE4:  MOVFF  5F7,5FB
04BE8:  MOVWF  xFC
04BEA:  CLRF   xFD
04BEC:  CLRF   xFE
04BEE:  MOVLB  0
04BF0:  RCALL  48BE
04BF2:  MOVLW  02
04BF4:  MOVLB  5
04BF6:  ADDWF  xEB,W
04BF8:  MOVWF  xF7
04BFA:  MOVLW  01
04BFC:  ADDWF  xEC,W
04BFE:  MOVWF  xF8
04C00:  MOVFF  5F7,5F9
04C04:  MOVWF  xFA
04C06:  MOVLW  05
04C08:  MOVWF  xFC
04C0A:  MOVLW  EE
04C0C:  MOVWF  xFB
04C0E:  MOVLW  02
04C10:  MOVWF  xFD
04C12:  MOVLW  01
04C14:  MOVWF  xFE
04C16:  MOVLB  0
04C18:  RCALL  498A
....................  
.................... } 
04C1A:  RETLW  00
....................  
.................... void displayTiempo(int digito, int x, int y, int sombreado, int tamano) 
.................... { 
....................    char voltage[9]; 
....................    sprintf(voltage, "%i", digito); 
*
053CA:  MOVLW  05
053CC:  MOVLB  4
053CE:  MOVWF  x2C
053D0:  MOVLW  E5
053D2:  MOVWF  x2B
053D4:  MOVFF  5E0,5F7
053D8:  MOVLW  1F
053DA:  MOVLB  5
053DC:  MOVWF  xF8
053DE:  MOVLB  0
053E0:  CALL   45E6
....................     
....................    if(sombreado==1) 
053E4:  MOVLB  5
053E6:  DECFSZ xE3,W
053E8:  BRA    5442
....................       {glcd_rect(x, y, x+(tamano*6), y+(tamano*8), YES, ON);glcd_text57(x+2, y+1, voltage, tamano, OFF);} 
053EA:  MOVF   xE4,W
053EC:  MULLW  06
053EE:  MOVF   FF3,W
053F0:  ADDWF  xE1,W
053F2:  MOVWF  xEE
053F4:  MOVF   xE4,W
053F6:  MULLW  08
053F8:  MOVF   FF3,W
053FA:  ADDWF  xE2,W
053FC:  MOVWF  xEF
053FE:  MOVFF  5E1,5F9
05402:  MOVFF  5E2,5FA
05406:  MOVFF  5EE,5FB
0540A:  MOVWF  xFC
0540C:  MOVLW  01
0540E:  MOVWF  xFD
05410:  MOVWF  xFE
05412:  MOVLB  0
05414:  CALL   48BE
05418:  MOVLW  02
0541A:  MOVLB  5
0541C:  ADDWF  xE1,W
0541E:  MOVWF  xEE
05420:  MOVLW  01
05422:  ADDWF  xE2,W
05424:  MOVWF  xEF
05426:  MOVFF  5EE,5F9
0542A:  MOVWF  xFA
0542C:  MOVLW  05
0542E:  MOVWF  xFC
05430:  MOVLW  E5
05432:  MOVWF  xFB
05434:  MOVFF  5E4,5FD
05438:  CLRF   xFE
0543A:  MOVLB  0
0543C:  CALL   498A
05440:  MOVLB  5
....................    if(sombreado==0) 
05442:  MOVF   xE3,F
05444:  BNZ   54A0
....................       {glcd_rect(x, y, x+(tamano*6), y+(tamano*8), YES, OFF);glcd_text57(x+2, y+1, voltage, tamano, ON);} 
05446:  MOVF   xE4,W
05448:  MULLW  06
0544A:  MOVF   FF3,W
0544C:  ADDWF  xE1,W
0544E:  MOVWF  xEE
05450:  MOVF   xE4,W
05452:  MULLW  08
05454:  MOVF   FF3,W
05456:  ADDWF  xE2,W
05458:  MOVWF  xEF
0545A:  MOVFF  5E1,5F9
0545E:  MOVFF  5E2,5FA
05462:  MOVFF  5EE,5FB
05466:  MOVWF  xFC
05468:  MOVLW  01
0546A:  MOVWF  xFD
0546C:  CLRF   xFE
0546E:  MOVLB  0
05470:  CALL   48BE
05474:  MOVLW  02
05476:  MOVLB  5
05478:  ADDWF  xE1,W
0547A:  MOVWF  xEE
0547C:  MOVLW  01
0547E:  ADDWF  xE2,W
05480:  MOVWF  xEF
05482:  MOVFF  5EE,5F9
05486:  MOVWF  xFA
05488:  MOVLW  05
0548A:  MOVWF  xFC
0548C:  MOVLW  E5
0548E:  MOVWF  xFB
05490:  MOVFF  5E4,5FD
05494:  MOVLW  01
05496:  MOVWF  xFE
05498:  MOVLB  0
0549A:  CALL   498A
0549E:  MOVLB  5
....................  
.................... } 
054A0:  MOVLB  0
054A2:  RETLW  00
....................  
.................... void displayMenu(char palabra[100], int x, int y, int sombreado, int tamano) 
.................... { 
....................    strcpy(Menus.Letra,palabra); 
*
04C1C:  MOVLB  5
04C1E:  MOVFF  5E8,01
04C22:  MOVFF  5E9,03
04C26:  MOVFF  5E8,5EE
04C2A:  MOVFF  5E9,5EF
04C2E:  MOVLW  04
04C30:  MOVWF  FEA
04C32:  MOVLW  17
04C34:  MOVWF  FE9
04C36:  MOVFF  5E9,FE2
04C3A:  MOVFF  5E8,FE1
04C3E:  MOVF   FE7,F
04C40:  MOVFF  FE6,FEE
04C44:  BNZ   4C3E
....................    if(sombreado==1) 
04C46:  DECFSZ xEC,W
04C48:  BRA    4C94
....................       {glcd_rect(0, y, 127, y+(tamano*8), YES, ON);glcd_text57(x+1, y+1, Menus.Letra, tamano, OFF);} 
04C4A:  MOVF   xED,W
04C4C:  MULLW  08
04C4E:  MOVF   FF3,W
04C50:  ADDWF  xEB,W
04C52:  MOVWF  xEE
04C54:  CLRF   xF9
04C56:  MOVFF  5EB,5FA
04C5A:  MOVLW  7F
04C5C:  MOVWF  xFB
04C5E:  MOVFF  5EE,5FC
04C62:  MOVLW  01
04C64:  MOVWF  xFD
04C66:  MOVWF  xFE
04C68:  MOVLB  0
04C6A:  RCALL  48BE
04C6C:  MOVLW  01
04C6E:  MOVLB  5
04C70:  ADDWF  xEA,W
04C72:  MOVWF  xEE
04C74:  MOVLW  01
04C76:  ADDWF  xEB,W
04C78:  MOVWF  xEF
04C7A:  MOVFF  5EE,5F9
04C7E:  MOVWF  xFA
04C80:  MOVLW  04
04C82:  MOVWF  xFC
04C84:  MOVLW  17
04C86:  MOVWF  xFB
04C88:  MOVFF  5ED,5FD
04C8C:  CLRF   xFE
04C8E:  MOVLB  0
04C90:  RCALL  498A
04C92:  MOVLB  5
....................    if(sombreado==0) 
04C94:  MOVF   xEC,F
04C96:  BNZ   4CE4
....................       {glcd_rect(0, y, 127, y+(tamano*8), YES, OFF);glcd_text57(x+1, y+1, Menus.Letra, tamano, ON);} 
04C98:  MOVF   xED,W
04C9A:  MULLW  08
04C9C:  MOVF   FF3,W
04C9E:  ADDWF  xEB,W
04CA0:  MOVWF  xEE
04CA2:  CLRF   xF9
04CA4:  MOVFF  5EB,5FA
04CA8:  MOVLW  7F
04CAA:  MOVWF  xFB
04CAC:  MOVFF  5EE,5FC
04CB0:  MOVLW  01
04CB2:  MOVWF  xFD
04CB4:  CLRF   xFE
04CB6:  MOVLB  0
04CB8:  RCALL  48BE
04CBA:  MOVLW  01
04CBC:  MOVLB  5
04CBE:  ADDWF  xEA,W
04CC0:  MOVWF  xEE
04CC2:  MOVLW  01
04CC4:  ADDWF  xEB,W
04CC6:  MOVWF  xEF
04CC8:  MOVFF  5EE,5F9
04CCC:  MOVWF  xFA
04CCE:  MOVLW  04
04CD0:  MOVWF  xFC
04CD2:  MOVLW  17
04CD4:  MOVWF  xFB
04CD6:  MOVFF  5ED,5FD
04CDA:  MOVLW  01
04CDC:  MOVWF  xFE
04CDE:  MOVLB  0
04CE0:  RCALL  498A
04CE2:  MOVLB  5
....................  
.................... } 
04CE4:  MOVLB  0
04CE6:  RETLW  00
....................  
.................... void displayfloat(float adc,int x,int y,int sombreado, int tamano) { 
....................    char voltage[9];     
....................       sprintf(voltage, "%2.0fC",adc); // Converts adc to text 
*
05956:  MOVLW  05
05958:  MOVLB  4
0595A:  MOVWF  x2C
0595C:  MOVLW  EC
0595E:  MOVWF  x2B
05960:  MOVLW  01
05962:  MOVWF  FE9
05964:  MOVFF  5E7,5F8
05968:  MOVFF  5E6,5F7
0596C:  MOVFF  5E5,5F6
05970:  MOVFF  5E4,5F5
05974:  MOVLB  5
05976:  CLRF   xF9
05978:  MOVLB  0
0597A:  BRA    5794
0597C:  MOVLW  B0
0597E:  MOVLB  6
05980:  MOVWF  x02
05982:  MOVLB  0
05984:  CALL   45C4
05988:  MOVLW  43
0598A:  MOVLB  6
0598C:  MOVWF  x02
0598E:  MOVLB  0
05990:  CALL   45C4
....................        
....................    if(sombreado==1) 
05994:  MOVLB  5
05996:  DECFSZ xEA,W
05998:  BRA    59F2
....................       {glcd_rect(x, y, x+(tamano*20), y+(tamano*8), YES, ON);glcd_text57(x+2, y+1, voltage, tamano, OFF);} 
0599A:  MOVF   xEB,W
0599C:  MULLW  14
0599E:  MOVF   FF3,W
059A0:  ADDWF  xE8,W
059A2:  MOVWF  xF5
059A4:  MOVF   xEB,W
059A6:  MULLW  08
059A8:  MOVF   FF3,W
059AA:  ADDWF  xE9,W
059AC:  MOVWF  xF6
059AE:  MOVFF  5E8,5F9
059B2:  MOVFF  5E9,5FA
059B6:  MOVFF  5F5,5FB
059BA:  MOVWF  xFC
059BC:  MOVLW  01
059BE:  MOVWF  xFD
059C0:  MOVWF  xFE
059C2:  MOVLB  0
059C4:  CALL   48BE
059C8:  MOVLW  02
059CA:  MOVLB  5
059CC:  ADDWF  xE8,W
059CE:  MOVWF  xF5
059D0:  MOVLW  01
059D2:  ADDWF  xE9,W
059D4:  MOVWF  xF6
059D6:  MOVFF  5F5,5F9
059DA:  MOVWF  xFA
059DC:  MOVLW  05
059DE:  MOVWF  xFC
059E0:  MOVLW  EC
059E2:  MOVWF  xFB
059E4:  MOVFF  5EB,5FD
059E8:  CLRF   xFE
059EA:  MOVLB  0
059EC:  CALL   498A
059F0:  MOVLB  5
....................    if(sombreado==0) 
059F2:  MOVF   xEA,F
059F4:  BNZ   5A50
....................       {glcd_rect(x, y, x+(tamano*20), y+(tamano*8), YES, OFF);glcd_text57(x+2, y+1, voltage, tamano, ON);} 
059F6:  MOVF   xEB,W
059F8:  MULLW  14
059FA:  MOVF   FF3,W
059FC:  ADDWF  xE8,W
059FE:  MOVWF  xF5
05A00:  MOVF   xEB,W
05A02:  MULLW  08
05A04:  MOVF   FF3,W
05A06:  ADDWF  xE9,W
05A08:  MOVWF  xF6
05A0A:  MOVFF  5E8,5F9
05A0E:  MOVFF  5E9,5FA
05A12:  MOVFF  5F5,5FB
05A16:  MOVWF  xFC
05A18:  MOVLW  01
05A1A:  MOVWF  xFD
05A1C:  CLRF   xFE
05A1E:  MOVLB  0
05A20:  CALL   48BE
05A24:  MOVLW  02
05A26:  MOVLB  5
05A28:  ADDWF  xE8,W
05A2A:  MOVWF  xF5
05A2C:  MOVLW  01
05A2E:  ADDWF  xE9,W
05A30:  MOVWF  xF6
05A32:  MOVFF  5F5,5F9
05A36:  MOVWF  xFA
05A38:  MOVLW  05
05A3A:  MOVWF  xFC
05A3C:  MOVLW  EC
05A3E:  MOVWF  xFB
05A40:  MOVFF  5EB,5FD
05A44:  MOVLW  01
05A46:  MOVWF  xFE
05A48:  MOVLB  0
05A4A:  CALL   498A
05A4E:  MOVLB  5
....................        
.................... } 
05A50:  MOVLB  0
05A52:  RETLW  00
....................  
.................... // Funcion para conversor analogo-digital 
.................... unsigned int16 sensores(int x){ 
.................... unsigned int16 y;set_adc_channel(x);delay_ms(1);y=read_adc();return (y); 
*
02D3A:  MOVLB  5
02D3C:  RLCF   xF1,W
02D3E:  MOVWF  00
02D40:  RLCF   00,F
02D42:  MOVLW  FC
02D44:  ANDWF  00,F
02D46:  MOVFF  00,01
02D4A:  MOVF   FC2,W
02D4C:  ANDLW  C3
02D4E:  IORWF  00,W
02D50:  MOVWF  FC2
02D52:  MOVLW  01
02D54:  MOVWF  xF4
02D56:  MOVLB  0
02D58:  CALL   1514
02D5C:  BSF    FC2.1
02D5E:  BTFSC  FC2.1
02D60:  BRA    2D5E
02D62:  MOVFF  FC4,5F3
02D66:  MOVLB  5
02D68:  MOVFF  FC3,5F2
02D6C:  MOVFF  5F2,01
02D70:  MOVFF  5F3,02
.................... } 
02D74:  MOVLB  0
02D76:  RETLW  00
....................  
....................  
.................... #define   UP               !input(PIN_A5) 
.................... #define   DOWN             !input(PIN_E0) 
.................... #define   RIGHT            !input(PIN_E1) 
.................... #define   LEFT             !input(PIN_E2) 
.................... #define   VIDRIOUP         input(PIN_A3) 
.................... #define   VIDRIODN         input(PIN_A4) 
....................  
.................... #define   Alarma_on           output_bit(PIN_C7,1) 
.................... #define   Alarma_off          output_bit(PIN_C7,0) 
.................... #define   LuzBlanca_on        output_bit(PIN_C0,1) 
.................... #define   LuzBlanca_off       output_bit(PIN_C0,0) 
.................... #define   Aux_on              output_bit(PIN_C1,1) 
.................... #define   Aux_off             output_bit(PIN_C1,0) 
.................... #define   Motor_on            output_bit(PIN_C2,1) 
.................... #define   Motor_off           output_bit(PIN_C2,0) 
.................... #define   Display_on          output_bit(PIN_B1,1) 
.................... #define   Display_off         output_bit(PIN_B1,0) 
....................  
.................... short Flanco=0,Flanco1=0,Flanco2=0,Flanco3=0,Flanco4=0,Flanco5=0,imprimir=0,flag_blower=0,flag_toma=0,flag_luz=0,flag_alarma=0,w=0,flag_uv=0; 
.................... short tiempo_purga=0,tiempo_trabajo=0,flag_latencia=0,tiempo_postpurga=0; 
.................... short guardatrabajo=0,Lectura=0,n=0; 
.................... char  JP[] = "JP Inglobal", Cabina[] = "Cabina Extractora",Dos_puntos[]=":",UV[]="UV"; 
.................... char  Clase[] = "Con Ductos", Tiempo[] = "Tiempo de Purga"; 
.................... char  Inflowt[] = "Vel:",Downflowt[] = "Temperatura", ZF[] = "Fabrica:208.0", ZA[] = "Actual:",AJ[]="Ajuste:"; 
.................... char  Vida_Filtro[] = "T. Filtro:",ZFP[] = "Fabrica:235.0", Perdida[]="!Filtro Saturado!"; 
.................... int8 Menu=200, unidad=1, Opcion=1,negativo=10,G_l=0,G_h=0,tiemporeset=0; 
.................... int8 q=0,r=0,l=0,h=0,Entero=0,Decimal1=0,Alarma=10; 
....................  
.................... unsigned int16 Inflow_adc=0,Filtro_Downflow_adc=0,Temporal1=0; 
....................  
.................... int16 t_latencia=0,minutos_uv=0,minutos_trabajo=0,G16=0,tup=0,tdown=0,tright=0,tleft=0,tvidrio=0; 
.................... signed int  Tpurga[4]={0,0,0,0};       // Tiempo de Purga transcurrido 
.................... signed int  Tpurgap[4]={9,0,0,0};      // Tiempo de Purga programado 
.................... signed int  Tppurga[4]={0,0,0,0};      // Tiempo de Post-Purga transcurrido 
.................... signed int  Tppurgap[4]={9,0,0,0};     // Tiempo de Post-Purga programado 
.................... signed int  Tuv[4]={0,0,0,0};          // Tiempo de UV transcurrido(en Horas) 
.................... signed int  Tempouvp[4]={0,0,0,0};        // Tiempo de UV transcurrido 
.................... signed int  Ttrabajo[4]={0,0,0,0};        // Tiempo de trabajo transcurrido (en Horas) 
.................... signed int  Contrasena[4]={0,0,0,0};      // Contrasena de 4 digitos 
.................... signed int  Password[4]={0,0,0,0};        // Contrasena Almacenada de 4 digitos 
.................... float Inflow=0.0,Downflow=0.0,Filtro_Downflow=0.0,Diferencia=0.0; 
.................... float Velocidad=0.0,x_uno=0.0,x_cuadrado=0.0,x_cubo=0.0,Ajuste1=0.0,Ajuste2=0.0; 
.................... float Temporal=0.0,Temporal2=0.0; 
.................... float a=0.00000957915546738639,b=-0.00727819571978831,c= 1.85375754678451,d= -156.816806902063; 
.................... //float t=378.463968402560,f=-18275.0402762787;//Sensor 2 Posible bueno 
....................  
.................... float promedio[8]={0.0,0.0,0.0,0.0,0.0,0.0,0.0,0.0}; 
.................... float promedio2[8]={0.0,0.0,0.0,0.0,0.0,0.0,0.0,0.0}; 
.................... float PromPresion[8]={0.0,0.0,0.0,0.0,0.0,0.0,0.0,0.0}; 
.................... float Flujo=0.0,zero_fabrica=208.0,zero_actual=0.0; 
.................... float V1=0.0,Presion=0.0,G=2.0; 
....................  
.................... int16 pulsos=0,retardo=0; 
.................... int8 i=0,l2=0,h2=0,Temperatura=0; 
.................... short Cruce=OFF,Purga=OFF; 
.................... int16 tiempocruce=0,tiempos=0; 
.................... int8 Porcentaje=0,VelMotor=0; 
.................... float Tcruce=0.0,Tcruce2=0; 
....................  
.................... #include "Funciones.h" 
.................... float leeTemperatura(int8 media){ 
*
043C8:  MOVLB  5
043CA:  CLRF   xE4
043CC:  CLRF   xE3
043CE:  CLRF   xE2
043D0:  CLRF   xE1
043D2:  CLRF   xE8
043D4:  CLRF   xE7
043D6:  CLRF   xE6
043D8:  CLRF   xE5
043DA:  CLRF   xEC
043DC:  CLRF   xEB
043DE:  CLRF   xEA
043E0:  CLRF   xE9
043E2:  CLRF   xF0
043E4:  CLRF   xEF
043E6:  CLRF   xEE
043E8:  CLRF   xED
....................    float ADC=0,V=0,T=0,Tempera=0; 
....................    ADC=sensores(0); 
043EA:  CLRF   xF1
043EC:  MOVLB  0
043EE:  CALL   2D3A
043F2:  MOVFF  02,616
043F6:  MOVFF  01,615
043FA:  CALL   17C2
043FE:  MOVFF  03,5E4
04402:  MOVFF  02,5E3
04406:  MOVFF  01,5E2
0440A:  MOVFF  00,5E1
....................    V=5*ADC/1023; 
0440E:  MOVLB  6
04410:  CLRF   x14
04412:  CLRF   x13
04414:  MOVLW  20
04416:  MOVWF  x12
04418:  MOVLW  81
0441A:  MOVWF  x11
0441C:  MOVFF  5E4,618
04420:  MOVFF  5E3,617
04424:  MOVFF  5E2,616
04428:  MOVFF  5E1,615
0442C:  MOVLB  0
0442E:  CALL   2DB4
04432:  MOVFF  00,5F1
04436:  MOVFF  01,5F2
0443A:  MOVFF  02,5F3
0443E:  MOVFF  03,5F4
04442:  MOVFF  03,614
04446:  MOVFF  02,613
0444A:  MOVFF  01,612
0444E:  MOVFF  00,611
04452:  MOVLB  6
04454:  CLRF   x18
04456:  MOVLW  C0
04458:  MOVWF  x17
0445A:  MOVLW  7F
0445C:  MOVWF  x16
0445E:  MOVLW  88
04460:  MOVWF  x15
04462:  MOVLB  0
04464:  CALL   17F8
04468:  MOVFF  03,5E8
0446C:  MOVFF  02,5E7
04470:  MOVFF  01,5E6
04474:  MOVFF  00,5E5
....................    T=V/0.01; 
04478:  MOVFF  5E8,614
0447C:  MOVFF  5E7,613
04480:  MOVFF  5E6,612
04484:  MOVFF  5E5,611
04488:  MOVLW  0A
0448A:  MOVLB  6
0448C:  MOVWF  x18
0448E:  MOVLW  D7
04490:  MOVWF  x17
04492:  MOVLW  23
04494:  MOVWF  x16
04496:  MOVLW  78
04498:  MOVWF  x15
0449A:  MOVLB  0
0449C:  CALL   17F8
044A0:  MOVFF  03,5EC
044A4:  MOVFF  02,5EB
044A8:  MOVFF  01,5EA
044AC:  MOVFF  00,5E9
....................    if(l2>media) 
044B0:  MOVLB  5
044B2:  MOVF   xCF,W
044B4:  SUBWF  xE0,W
044B6:  BC    44BA
....................       l2=0; 
044B8:  CLRF   xCF
....................        
....................    promedio2[l2]=T;l2++; 
044BA:  MOVF   xCF,W
044BC:  MULLW  04
044BE:  MOVF   FF3,W
044C0:  CLRF   03
044C2:  ADDLW  72
044C4:  MOVWF  FE9
044C6:  MOVLW  05
044C8:  ADDWFC 03,W
044CA:  MOVWF  FEA
044CC:  MOVFF  5E9,FEF
044D0:  MOVFF  5EA,FEC
044D4:  MOVFF  5EB,FEC
044D8:  MOVFF  5EC,FEC
044DC:  INCF   xCF,F
....................    Tempera=0; 
044DE:  CLRF   xF0
044E0:  CLRF   xEF
044E2:  CLRF   xEE
044E4:  CLRF   xED
....................       
....................      for(h2=0;h2<=(media-1);h2++){ 
044E6:  CLRF   xD0
044E8:  MOVLW  01
044EA:  SUBWF  xE0,W
044EC:  SUBWF  xD0,W
044EE:  BZ    44F2
044F0:  BC    4562
....................         Tempera+=promedio2[h2]; 
044F2:  MOVF   xD0,W
044F4:  MULLW  04
044F6:  MOVF   FF3,W
044F8:  CLRF   03
044FA:  ADDLW  72
044FC:  MOVWF  FE9
044FE:  MOVLW  05
04500:  ADDWFC 03,W
04502:  MOVWF  FEA
04504:  MOVFF  FEF,00
04508:  MOVFF  FEC,01
0450C:  MOVFF  FEC,02
04510:  MOVFF  FEC,03
04514:  MOVFF  FEA,5F2
04518:  MOVFF  FE9,5F1
0451C:  BCF    FD8.1
0451E:  MOVFF  5F0,618
04522:  MOVFF  5EF,617
04526:  MOVFF  5EE,616
0452A:  MOVFF  5ED,615
0452E:  MOVFF  03,61C
04532:  MOVFF  02,61B
04536:  MOVFF  01,61A
0453A:  MOVFF  00,619
0453E:  MOVLB  0
04540:  CALL   1956
04544:  MOVFF  5F2,FEA
04548:  MOVFF  5F1,FE9
0454C:  MOVFF  03,5F0
04550:  MOVFF  02,5EF
04554:  MOVFF  01,5EE
04558:  MOVFF  00,5ED
....................      }       
0455C:  MOVLB  5
0455E:  INCF   xD0,F
04560:  BRA    44E8
....................    return Tempera/media; 
04562:  MOVLB  6
04564:  CLRF   x16
04566:  MOVFF  5E0,615
0456A:  MOVLB  0
0456C:  CALL   17C2
04570:  MOVFF  5F0,614
04574:  MOVFF  5EF,613
04578:  MOVFF  5EE,612
0457C:  MOVFF  5ED,611
04580:  MOVFF  03,618
04584:  MOVFF  02,617
04588:  MOVFF  01,616
0458C:  MOVFF  00,615
04590:  CALL   17F8
.................... } 
04594:  GOTO   601C (RETURN)
....................  
.................... void LeeEEPROM(void){ 
....................    Password[0]=read_eeprom(0); 
*
01BCE:  MOVFF  FF2,5E0
01BD2:  BCF    FF2.7
01BD4:  CLRF   FAA
01BD6:  CLRF   FA9
01BD8:  BCF    FA6.6
01BDA:  BCF    FA6.7
01BDC:  BSF    FA6.0
01BDE:  MOVF   FA8,W
01BE0:  MOVLB  5
01BE2:  BTFSC  xE0.7
01BE4:  BSF    FF2.7
01BE6:  MOVWF  x0E
....................    delay_ms(10); 
01BE8:  MOVLW  0A
01BEA:  MOVWF  xF4
01BEC:  MOVLB  0
01BEE:  RCALL  1514
....................    Password[1]=read_eeprom(1); 
01BF0:  MOVFF  FF2,5E0
01BF4:  BCF    FF2.7
01BF6:  CLRF   FAA
01BF8:  MOVLW  01
01BFA:  MOVWF  FA9
01BFC:  BCF    FA6.6
01BFE:  BCF    FA6.7
01C00:  BSF    FA6.0
01C02:  MOVF   FA8,W
01C04:  MOVLB  5
01C06:  BTFSC  xE0.7
01C08:  BSF    FF2.7
01C0A:  MOVWF  x0F
....................    delay_ms(10); 
01C0C:  MOVLW  0A
01C0E:  MOVWF  xF4
01C10:  MOVLB  0
01C12:  RCALL  1514
....................    Password[2]=read_eeprom(2); 
01C14:  MOVFF  FF2,5E0
01C18:  BCF    FF2.7
01C1A:  CLRF   FAA
01C1C:  MOVLW  02
01C1E:  MOVWF  FA9
01C20:  BCF    FA6.6
01C22:  BCF    FA6.7
01C24:  BSF    FA6.0
01C26:  MOVF   FA8,W
01C28:  MOVLB  5
01C2A:  BTFSC  xE0.7
01C2C:  BSF    FF2.7
01C2E:  MOVWF  x10
....................    delay_ms(10); 
01C30:  MOVLW  0A
01C32:  MOVWF  xF4
01C34:  MOVLB  0
01C36:  RCALL  1514
....................    Password[3]=read_eeprom(3); 
01C38:  MOVFF  FF2,5E0
01C3C:  BCF    FF2.7
01C3E:  CLRF   FAA
01C40:  MOVLW  03
01C42:  MOVWF  FA9
01C44:  BCF    FA6.6
01C46:  BCF    FA6.7
01C48:  BSF    FA6.0
01C4A:  MOVF   FA8,W
01C4C:  MOVLB  5
01C4E:  BTFSC  xE0.7
01C50:  BSF    FF2.7
01C52:  MOVWF  x11
....................    delay_ms(10); 
01C54:  MOVLW  0A
01C56:  MOVWF  xF4
01C58:  MOVLB  0
01C5A:  RCALL  1514
....................    Tpurgap[0]=read_eeprom(4); 
01C5C:  MOVFF  FF2,5E0
01C60:  BCF    FF2.7
01C62:  CLRF   FAA
01C64:  MOVLW  04
01C66:  MOVWF  FA9
01C68:  BCF    FA6.6
01C6A:  BCF    FA6.7
01C6C:  BSF    FA6.0
01C6E:  MOVF   FA8,W
01C70:  MOVLB  5
01C72:  BTFSC  xE0.7
01C74:  BSF    FF2.7
01C76:  MOVLB  4
01C78:  MOVWF  xF2
....................    delay_ms(10); 
01C7A:  MOVLW  0A
01C7C:  MOVLB  5
01C7E:  MOVWF  xF4
01C80:  MOVLB  0
01C82:  RCALL  1514
....................    Tpurgap[1]=read_eeprom(5); 
01C84:  MOVFF  FF2,5E0
01C88:  BCF    FF2.7
01C8A:  CLRF   FAA
01C8C:  MOVLW  05
01C8E:  MOVWF  FA9
01C90:  BCF    FA6.6
01C92:  BCF    FA6.7
01C94:  BSF    FA6.0
01C96:  MOVF   FA8,W
01C98:  MOVLB  5
01C9A:  BTFSC  xE0.7
01C9C:  BSF    FF2.7
01C9E:  MOVLB  4
01CA0:  MOVWF  xF3
....................    delay_ms(10); 
01CA2:  MOVLW  0A
01CA4:  MOVLB  5
01CA6:  MOVWF  xF4
01CA8:  MOVLB  0
01CAA:  RCALL  1514
....................    Tpurgap[2]=read_eeprom(6); 
01CAC:  MOVFF  FF2,5E0
01CB0:  BCF    FF2.7
01CB2:  CLRF   FAA
01CB4:  MOVLW  06
01CB6:  MOVWF  FA9
01CB8:  BCF    FA6.6
01CBA:  BCF    FA6.7
01CBC:  BSF    FA6.0
01CBE:  MOVF   FA8,W
01CC0:  MOVLB  5
01CC2:  BTFSC  xE0.7
01CC4:  BSF    FF2.7
01CC6:  MOVLB  4
01CC8:  MOVWF  xF4
....................    delay_ms(10); 
01CCA:  MOVLW  0A
01CCC:  MOVLB  5
01CCE:  MOVWF  xF4
01CD0:  MOVLB  0
01CD2:  RCALL  1514
....................    Tpurgap[3]=read_eeprom(7); 
01CD4:  MOVFF  FF2,5E0
01CD8:  BCF    FF2.7
01CDA:  CLRF   FAA
01CDC:  MOVLW  07
01CDE:  MOVWF  FA9
01CE0:  BCF    FA6.6
01CE2:  BCF    FA6.7
01CE4:  BSF    FA6.0
01CE6:  MOVF   FA8,W
01CE8:  MOVLB  5
01CEA:  BTFSC  xE0.7
01CEC:  BSF    FF2.7
01CEE:  MOVLB  4
01CF0:  MOVWF  xF5
....................    delay_ms(10); 
01CF2:  MOVLW  0A
01CF4:  MOVLB  5
01CF6:  MOVWF  xF4
01CF8:  MOVLB  0
01CFA:  RCALL  1514
....................    Tppurgap[0]=read_eeprom(8); 
01CFC:  MOVFF  FF2,5E0
01D00:  BCF    FF2.7
01D02:  CLRF   FAA
01D04:  MOVLW  08
01D06:  MOVWF  FA9
01D08:  BCF    FA6.6
01D0A:  BCF    FA6.7
01D0C:  BSF    FA6.0
01D0E:  MOVF   FA8,W
01D10:  MOVLB  5
01D12:  BTFSC  xE0.7
01D14:  BSF    FF2.7
01D16:  MOVLB  4
01D18:  MOVWF  xFA
....................    delay_ms(10); 
01D1A:  MOVLW  0A
01D1C:  MOVLB  5
01D1E:  MOVWF  xF4
01D20:  MOVLB  0
01D22:  CALL   1514
....................    Tppurgap[1]=read_eeprom(9); 
01D26:  MOVFF  FF2,5E0
01D2A:  BCF    FF2.7
01D2C:  CLRF   FAA
01D2E:  MOVLW  09
01D30:  MOVWF  FA9
01D32:  BCF    FA6.6
01D34:  BCF    FA6.7
01D36:  BSF    FA6.0
01D38:  MOVF   FA8,W
01D3A:  MOVLB  5
01D3C:  BTFSC  xE0.7
01D3E:  BSF    FF2.7
01D40:  MOVLB  4
01D42:  MOVWF  xFB
....................    delay_ms(10); 
01D44:  MOVLW  0A
01D46:  MOVLB  5
01D48:  MOVWF  xF4
01D4A:  MOVLB  0
01D4C:  CALL   1514
....................    Tppurgap[2]=read_eeprom(10); 
01D50:  MOVFF  FF2,5E0
01D54:  BCF    FF2.7
01D56:  CLRF   FAA
01D58:  MOVLW  0A
01D5A:  MOVWF  FA9
01D5C:  BCF    FA6.6
01D5E:  BCF    FA6.7
01D60:  BSF    FA6.0
01D62:  MOVF   FA8,W
01D64:  MOVLB  5
01D66:  BTFSC  xE0.7
01D68:  BSF    FF2.7
01D6A:  MOVLB  4
01D6C:  MOVWF  xFC
....................    delay_ms(10); 
01D6E:  MOVLW  0A
01D70:  MOVLB  5
01D72:  MOVWF  xF4
01D74:  MOVLB  0
01D76:  CALL   1514
....................    Tppurgap[3]=read_eeprom(11); 
01D7A:  MOVFF  FF2,5E0
01D7E:  BCF    FF2.7
01D80:  CLRF   FAA
01D82:  MOVLW  0B
01D84:  MOVWF  FA9
01D86:  BCF    FA6.6
01D88:  BCF    FA6.7
01D8A:  BSF    FA6.0
01D8C:  MOVF   FA8,W
01D8E:  MOVLB  5
01D90:  BTFSC  xE0.7
01D92:  BSF    FF2.7
01D94:  MOVLB  4
01D96:  MOVWF  xFD
....................    delay_ms(10); 
01D98:  MOVLW  0A
01D9A:  MOVLB  5
01D9C:  MOVWF  xF4
01D9E:  MOVLB  0
01DA0:  CALL   1514
....................    Tuv[0]=read_eeprom(12); 
01DA4:  MOVFF  FF2,5E0
01DA8:  BCF    FF2.7
01DAA:  CLRF   FAA
01DAC:  MOVLW  0C
01DAE:  MOVWF  FA9
01DB0:  BCF    FA6.6
01DB2:  BCF    FA6.7
01DB4:  BSF    FA6.0
01DB6:  MOVF   FA8,W
01DB8:  MOVLB  5
01DBA:  BTFSC  xE0.7
01DBC:  BSF    FF2.7
01DBE:  MOVLB  4
01DC0:  MOVWF  xFE
....................    delay_ms(10); 
01DC2:  MOVLW  0A
01DC4:  MOVLB  5
01DC6:  MOVWF  xF4
01DC8:  MOVLB  0
01DCA:  CALL   1514
....................    Tuv[1]=read_eeprom(13); 
01DCE:  MOVFF  FF2,5E0
01DD2:  BCF    FF2.7
01DD4:  CLRF   FAA
01DD6:  MOVLW  0D
01DD8:  MOVWF  FA9
01DDA:  BCF    FA6.6
01DDC:  BCF    FA6.7
01DDE:  BSF    FA6.0
01DE0:  MOVF   FA8,W
01DE2:  MOVLB  5
01DE4:  BTFSC  xE0.7
01DE6:  BSF    FF2.7
01DE8:  MOVLB  4
01DEA:  MOVWF  xFF
....................    delay_ms(10); 
01DEC:  MOVLW  0A
01DEE:  MOVLB  5
01DF0:  MOVWF  xF4
01DF2:  MOVLB  0
01DF4:  CALL   1514
....................    Tuv[2]=read_eeprom(14); 
01DF8:  MOVFF  FF2,5E0
01DFC:  BCF    FF2.7
01DFE:  CLRF   FAA
01E00:  MOVLW  0E
01E02:  MOVWF  FA9
01E04:  BCF    FA6.6
01E06:  BCF    FA6.7
01E08:  BSF    FA6.0
01E0A:  MOVF   FA8,W
01E0C:  MOVLB  5
01E0E:  BTFSC  xE0.7
01E10:  BSF    FF2.7
01E12:  MOVWF  x00
....................    delay_ms(10); 
01E14:  MOVLW  0A
01E16:  MOVWF  xF4
01E18:  MOVLB  0
01E1A:  CALL   1514
....................    Tuv[3]=read_eeprom(15); 
01E1E:  MOVFF  FF2,5E0
01E22:  BCF    FF2.7
01E24:  CLRF   FAA
01E26:  MOVLW  0F
01E28:  MOVWF  FA9
01E2A:  BCF    FA6.6
01E2C:  BCF    FA6.7
01E2E:  BSF    FA6.0
01E30:  MOVF   FA8,W
01E32:  MOVLB  5
01E34:  BTFSC  xE0.7
01E36:  BSF    FF2.7
01E38:  MOVWF  x01
....................    delay_ms(10); 
01E3A:  MOVLW  0A
01E3C:  MOVWF  xF4
01E3E:  MOVLB  0
01E40:  CALL   1514
....................    Ttrabajo[0]=read_eeprom(16); 
01E44:  MOVFF  FF2,5E0
01E48:  BCF    FF2.7
01E4A:  CLRF   FAA
01E4C:  MOVLW  10
01E4E:  MOVWF  FA9
01E50:  BCF    FA6.6
01E52:  BCF    FA6.7
01E54:  BSF    FA6.0
01E56:  MOVF   FA8,W
01E58:  MOVLB  5
01E5A:  BTFSC  xE0.7
01E5C:  BSF    FF2.7
01E5E:  MOVWF  x06
....................    delay_ms(10); 
01E60:  MOVLW  0A
01E62:  MOVWF  xF4
01E64:  MOVLB  0
01E66:  CALL   1514
....................    Ttrabajo[1]=read_eeprom(17); 
01E6A:  MOVFF  FF2,5E0
01E6E:  BCF    FF2.7
01E70:  CLRF   FAA
01E72:  MOVLW  11
01E74:  MOVWF  FA9
01E76:  BCF    FA6.6
01E78:  BCF    FA6.7
01E7A:  BSF    FA6.0
01E7C:  MOVF   FA8,W
01E7E:  MOVLB  5
01E80:  BTFSC  xE0.7
01E82:  BSF    FF2.7
01E84:  MOVWF  x07
....................    delay_ms(10); 
01E86:  MOVLW  0A
01E88:  MOVWF  xF4
01E8A:  MOVLB  0
01E8C:  CALL   1514
....................    Ttrabajo[2]=read_eeprom(18); 
01E90:  MOVFF  FF2,5E0
01E94:  BCF    FF2.7
01E96:  CLRF   FAA
01E98:  MOVLW  12
01E9A:  MOVWF  FA9
01E9C:  BCF    FA6.6
01E9E:  BCF    FA6.7
01EA0:  BSF    FA6.0
01EA2:  MOVF   FA8,W
01EA4:  MOVLB  5
01EA6:  BTFSC  xE0.7
01EA8:  BSF    FF2.7
01EAA:  MOVWF  x08
....................    delay_ms(10); 
01EAC:  MOVLW  0A
01EAE:  MOVWF  xF4
01EB0:  MOVLB  0
01EB2:  CALL   1514
....................    Ttrabajo[3]=read_eeprom(19); 
01EB6:  MOVFF  FF2,5E0
01EBA:  BCF    FF2.7
01EBC:  CLRF   FAA
01EBE:  MOVLW  13
01EC0:  MOVWF  FA9
01EC2:  BCF    FA6.6
01EC4:  BCF    FA6.7
01EC6:  BSF    FA6.0
01EC8:  MOVF   FA8,W
01ECA:  MOVLB  5
01ECC:  BTFSC  xE0.7
01ECE:  BSF    FF2.7
01ED0:  MOVWF  x09
....................    delay_ms(10); 
01ED2:  MOVLW  0A
01ED4:  MOVWF  xF4
01ED6:  MOVLB  0
01ED8:  CALL   1514
....................    //flag_alarma=read_eeprom(20); 
....................    //delay_ms(10); 
....................    Tempouvp[0]=read_eeprom(21); 
01EDC:  MOVFF  FF2,5E0
01EE0:  BCF    FF2.7
01EE2:  CLRF   FAA
01EE4:  MOVLW  15
01EE6:  MOVWF  FA9
01EE8:  BCF    FA6.6
01EEA:  BCF    FA6.7
01EEC:  BSF    FA6.0
01EEE:  MOVF   FA8,W
01EF0:  MOVLB  5
01EF2:  BTFSC  xE0.7
01EF4:  BSF    FF2.7
01EF6:  MOVWF  x02
....................    delay_ms(10); 
01EF8:  MOVLW  0A
01EFA:  MOVWF  xF4
01EFC:  MOVLB  0
01EFE:  CALL   1514
....................    Tempouvp[1]=read_eeprom(22); 
01F02:  MOVFF  FF2,5E0
01F06:  BCF    FF2.7
01F08:  CLRF   FAA
01F0A:  MOVLW  16
01F0C:  MOVWF  FA9
01F0E:  BCF    FA6.6
01F10:  BCF    FA6.7
01F12:  BSF    FA6.0
01F14:  MOVF   FA8,W
01F16:  MOVLB  5
01F18:  BTFSC  xE0.7
01F1A:  BSF    FF2.7
01F1C:  MOVWF  x03
....................    delay_ms(10); 
01F1E:  MOVLW  0A
01F20:  MOVWF  xF4
01F22:  MOVLB  0
01F24:  CALL   1514
....................    Tempouvp[2]=read_eeprom(23); 
01F28:  MOVFF  FF2,5E0
01F2C:  BCF    FF2.7
01F2E:  CLRF   FAA
01F30:  MOVLW  17
01F32:  MOVWF  FA9
01F34:  BCF    FA6.6
01F36:  BCF    FA6.7
01F38:  BSF    FA6.0
01F3A:  MOVF   FA8,W
01F3C:  MOVLB  5
01F3E:  BTFSC  xE0.7
01F40:  BSF    FF2.7
01F42:  MOVWF  x04
....................    delay_ms(10); 
01F44:  MOVLW  0A
01F46:  MOVWF  xF4
01F48:  MOVLB  0
01F4A:  CALL   1514
....................    Tempouvp[3]=read_eeprom(24); 
01F4E:  MOVFF  FF2,5E0
01F52:  BCF    FF2.7
01F54:  CLRF   FAA
01F56:  MOVLW  18
01F58:  MOVWF  FA9
01F5A:  BCF    FA6.6
01F5C:  BCF    FA6.7
01F5E:  BSF    FA6.0
01F60:  MOVF   FA8,W
01F62:  MOVLB  5
01F64:  BTFSC  xE0.7
01F66:  BSF    FF2.7
01F68:  MOVWF  x05
....................     
....................    delay_ms(10); 
01F6A:  MOVLW  0A
01F6C:  MOVWF  xF4
01F6E:  MOVLB  0
01F70:  CALL   1514
....................    Entero=read_eeprom(25);//Decimal1=read_eeprom(26); 
01F74:  MOVFF  FF2,5E0
01F78:  BCF    FF2.7
01F7A:  CLRF   FAA
01F7C:  MOVLW  19
01F7E:  MOVWF  FA9
01F80:  BCF    FA6.6
01F82:  BCF    FA6.7
01F84:  BSF    FA6.0
01F86:  MOVF   FA8,W
01F88:  MOVLB  5
01F8A:  BTFSC  xE0.7
01F8C:  BSF    FF2.7
01F8E:  MOVLB  4
01F90:  MOVWF  xD3
....................    delay_ms(10); 
01F92:  MOVLW  0A
01F94:  MOVLB  5
01F96:  MOVWF  xF4
01F98:  MOVLB  0
01F9A:  CALL   1514
....................    Temporal=read_eeprom(26); 
01F9E:  MOVFF  FF2,5E0
01FA2:  BCF    FF2.7
01FA4:  CLRF   FAA
01FA6:  MOVLW  1A
01FA8:  MOVWF  FA9
01FAA:  BCF    FA6.6
01FAC:  BCF    FA6.7
01FAE:  BSF    FA6.0
01FB0:  MOVF   FA8,W
01FB2:  MOVLB  5
01FB4:  BTFSC  xE0.7
01FB6:  BSF    FF2.7
01FB8:  MOVLB  6
01FBA:  CLRF   x16
01FBC:  MOVWF  x15
01FBE:  MOVLB  0
01FC0:  RCALL  17C2
01FC2:  MOVFF  03,53D
01FC6:  MOVFF  02,53C
01FCA:  MOVFF  01,53B
01FCE:  MOVFF  00,53A
....................    delay_ms(10); 
01FD2:  MOVLW  0A
01FD4:  MOVLB  5
01FD6:  MOVWF  xF4
01FD8:  MOVLB  0
01FDA:  CALL   1514
....................    Temporal=Temporal/10.0; 
01FDE:  MOVFF  53D,614
01FE2:  MOVFF  53C,613
01FE6:  MOVFF  53B,612
01FEA:  MOVFF  53A,611
01FEE:  MOVLB  6
01FF0:  CLRF   x18
01FF2:  CLRF   x17
01FF4:  MOVLW  20
01FF6:  MOVWF  x16
01FF8:  MOVLW  82
01FFA:  MOVWF  x15
01FFC:  MOVLB  0
01FFE:  CALL   17F8
02002:  MOVFF  03,53D
02006:  MOVFF  02,53C
0200A:  MOVFF  01,53B
0200E:  MOVFF  00,53A
....................    Ajuste1=Entero+Temporal; 
02012:  MOVLB  6
02014:  CLRF   x16
02016:  MOVFF  4D3,615
0201A:  MOVLB  0
0201C:  CALL   17C2
02020:  BCF    FD8.1
02022:  MOVFF  03,618
02026:  MOVFF  02,617
0202A:  MOVFF  01,616
0202E:  MOVFF  00,615
02032:  MOVFF  53D,61C
02036:  MOVFF  53C,61B
0203A:  MOVFF  53B,61A
0203E:  MOVFF  53A,619
02042:  RCALL  1956
02044:  MOVFF  03,535
02048:  MOVFF  02,534
0204C:  MOVFF  01,533
02050:  MOVFF  00,532
....................     
....................     
....................    Entero=read_eeprom(27);//Decimal1=read_eeprom(26); 
02054:  MOVFF  FF2,5E0
02058:  BCF    FF2.7
0205A:  CLRF   FAA
0205C:  MOVLW  1B
0205E:  MOVWF  FA9
02060:  BCF    FA6.6
02062:  BCF    FA6.7
02064:  BSF    FA6.0
02066:  MOVF   FA8,W
02068:  MOVLB  5
0206A:  BTFSC  xE0.7
0206C:  BSF    FF2.7
0206E:  MOVLB  4
02070:  MOVWF  xD3
....................    delay_ms(10); 
02072:  MOVLW  0A
02074:  MOVLB  5
02076:  MOVWF  xF4
02078:  MOVLB  0
0207A:  CALL   1514
....................    Temporal=read_eeprom(28); 
0207E:  MOVFF  FF2,5E0
02082:  BCF    FF2.7
02084:  CLRF   FAA
02086:  MOVLW  1C
02088:  MOVWF  FA9
0208A:  BCF    FA6.6
0208C:  BCF    FA6.7
0208E:  BSF    FA6.0
02090:  MOVF   FA8,W
02092:  MOVLB  5
02094:  BTFSC  xE0.7
02096:  BSF    FF2.7
02098:  MOVLB  6
0209A:  CLRF   x16
0209C:  MOVWF  x15
0209E:  MOVLB  0
020A0:  CALL   17C2
020A4:  MOVFF  03,53D
020A8:  MOVFF  02,53C
020AC:  MOVFF  01,53B
020B0:  MOVFF  00,53A
....................    delay_ms(10); 
020B4:  MOVLW  0A
020B6:  MOVLB  5
020B8:  MOVWF  xF4
020BA:  MOVLB  0
020BC:  CALL   1514
....................    Temporal=Temporal/10.0; 
020C0:  MOVFF  53D,614
020C4:  MOVFF  53C,613
020C8:  MOVFF  53B,612
020CC:  MOVFF  53A,611
020D0:  MOVLB  6
020D2:  CLRF   x18
020D4:  CLRF   x17
020D6:  MOVLW  20
020D8:  MOVWF  x16
020DA:  MOVLW  82
020DC:  MOVWF  x15
020DE:  MOVLB  0
020E0:  CALL   17F8
020E4:  MOVFF  03,53D
020E8:  MOVFF  02,53C
020EC:  MOVFF  01,53B
020F0:  MOVFF  00,53A
....................    Ajuste2=Entero+Temporal; 
020F4:  MOVLB  6
020F6:  CLRF   x16
020F8:  MOVFF  4D3,615
020FC:  MOVLB  0
020FE:  CALL   17C2
02102:  BCF    FD8.1
02104:  MOVFF  03,618
02108:  MOVFF  02,617
0210C:  MOVFF  01,616
02110:  MOVFF  00,615
02114:  MOVFF  53D,61C
02118:  MOVFF  53C,61B
0211C:  MOVFF  53B,61A
02120:  MOVFF  53A,619
02124:  RCALL  1956
02126:  MOVFF  03,539
0212A:  MOVFF  02,538
0212E:  MOVFF  01,537
02132:  MOVFF  00,536
....................     
....................    zero_actual=make16(read_eeprom(30),read_eeprom(29)); 
02136:  MOVFF  FF2,5E0
0213A:  BCF    FF2.7
0213C:  CLRF   FAA
0213E:  MOVLW  1E
02140:  MOVWF  FA9
02142:  BCF    FA6.6
02144:  BCF    FA6.7
02146:  BSF    FA6.0
02148:  MOVF   FA8,W
0214A:  MOVLB  5
0214C:  BTFSC  xE0.7
0214E:  BSF    FF2.7
02150:  MOVWF  xE1
02152:  MOVFF  FF2,5E2
02156:  BCF    FF2.7
02158:  CLRF   FAA
0215A:  MOVLW  1D
0215C:  MOVWF  FA9
0215E:  BCF    FA6.6
02160:  BCF    FA6.7
02162:  BSF    FA6.0
02164:  MOVF   FA8,W
02166:  BTFSC  xE2.7
02168:  BSF    FF2.7
0216A:  MOVWF  xE3
0216C:  MOVFF  5E1,03
02170:  MOVF   xE3,W
02172:  MOVLB  6
02174:  MOVWF  x15
02176:  MOVFF  03,616
0217A:  MOVLB  0
0217C:  CALL   17C2
02180:  MOVFF  03,5BD
02184:  MOVFF  02,5BC
02188:  MOVFF  01,5BB
0218C:  MOVFF  00,5BA
....................    delay_ms(10); 
02190:  MOVLW  0A
02192:  MOVLB  5
02194:  MOVWF  xF4
02196:  MOVLB  0
02198:  CALL   1514
....................    minutos_trabajo=make16(read_eeprom(34),read_eeprom(33)); 
0219C:  MOVFF  FF2,5E0
021A0:  BCF    FF2.7
021A2:  CLRF   FAA
021A4:  MOVLW  22
021A6:  MOVWF  FA9
021A8:  BCF    FA6.6
021AA:  BCF    FA6.7
021AC:  BSF    FA6.0
021AE:  MOVF   FA8,W
021B0:  MOVLB  5
021B2:  BTFSC  xE0.7
021B4:  BSF    FF2.7
021B6:  MOVWF  xE1
021B8:  MOVFF  FF2,5E2
021BC:  BCF    FF2.7
021BE:  CLRF   FAA
021C0:  MOVLW  21
021C2:  MOVWF  FA9
021C4:  BCF    FA6.6
021C6:  BCF    FA6.7
021C8:  BSF    FA6.0
021CA:  MOVF   FA8,W
021CC:  BTFSC  xE2.7
021CE:  BSF    FF2.7
021D0:  MOVWF  xE3
021D2:  MOVFF  5E1,4E1
021D6:  MOVFF  5E3,4E0
....................    delay_ms(10); 
021DA:  MOVLW  0A
021DC:  MOVWF  xF4
021DE:  MOVLB  0
021E0:  CALL   1514
....................    minutos_uv=read_eeprom(31); 
021E4:  MOVFF  FF2,5E0
021E8:  BCF    FF2.7
021EA:  CLRF   FAA
021EC:  MOVLW  1F
021EE:  MOVWF  FA9
021F0:  BCF    FA6.6
021F2:  BCF    FA6.7
021F4:  BSF    FA6.0
021F6:  MOVF   FA8,W
021F8:  MOVLB  5
021FA:  BTFSC  xE0.7
021FC:  BSF    FF2.7
021FE:  MOVLB  4
02200:  CLRF   xDF
02202:  MOVWF  xDE
....................    delay_ms(10); 
02204:  MOVLW  0A
02206:  MOVLB  5
02208:  MOVWF  xF4
0220A:  MOVLB  0
0220C:  CALL   1514
....................    VelMotor=read_eeprom(32); 
02210:  MOVFF  FF2,5E0
02214:  BCF    FF2.7
02216:  CLRF   FAA
02218:  MOVLW  20
0221A:  MOVWF  FA9
0221C:  BCF    FA6.6
0221E:  BCF    FA6.7
02220:  BSF    FA6.0
02222:  MOVF   FA8,W
02224:  MOVLB  5
02226:  BTFSC  xE0.7
02228:  BSF    FF2.7
0222A:  MOVWF  xD7
....................    delay_ms(10); 
0222C:  MOVLW  0A
0222E:  MOVWF  xF4
02230:  MOVLB  0
02232:  CALL   1514
....................     
....................    Diferencia=make16(read_eeprom(61),read_eeprom(60)); 
02236:  MOVFF  FF2,5E0
0223A:  BCF    FF2.7
0223C:  CLRF   FAA
0223E:  MOVLW  3D
02240:  MOVWF  FA9
02242:  BCF    FA6.6
02244:  BCF    FA6.7
02246:  BSF    FA6.0
02248:  MOVF   FA8,W
0224A:  MOVLB  5
0224C:  BTFSC  xE0.7
0224E:  BSF    FF2.7
02250:  MOVWF  xE1
02252:  MOVFF  FF2,5E2
02256:  BCF    FF2.7
02258:  CLRF   FAA
0225A:  MOVLW  3C
0225C:  MOVWF  FA9
0225E:  BCF    FA6.6
02260:  BCF    FA6.7
02262:  BSF    FA6.0
02264:  MOVF   FA8,W
02266:  BTFSC  xE2.7
02268:  BSF    FF2.7
0226A:  MOVWF  xE3
0226C:  MOVFF  5E1,03
02270:  MOVF   xE3,W
02272:  MOVLB  6
02274:  MOVWF  x15
02276:  MOVFF  03,616
0227A:  MOVLB  0
0227C:  CALL   17C2
02280:  MOVFF  03,521
02284:  MOVFF  02,520
02288:  MOVFF  01,51F
0228C:  MOVFF  00,51E
....................    delay_ms(10); 
02290:  MOVLW  0A
02292:  MOVLB  5
02294:  MOVWF  xF4
02296:  MOVLB  0
02298:  CALL   1514
....................    G=make16(read_eeprom(63),read_eeprom(62)); 
0229C:  MOVFF  FF2,5E0
022A0:  BCF    FF2.7
022A2:  CLRF   FAA
022A4:  MOVLW  3F
022A6:  MOVWF  FA9
022A8:  BCF    FA6.6
022AA:  BCF    FA6.7
022AC:  BSF    FA6.0
022AE:  MOVF   FA8,W
022B0:  MOVLB  5
022B2:  BTFSC  xE0.7
022B4:  BSF    FF2.7
022B6:  MOVWF  xE1
022B8:  MOVFF  FF2,5E2
022BC:  BCF    FF2.7
022BE:  CLRF   FAA
022C0:  MOVLW  3E
022C2:  MOVWF  FA9
022C4:  BCF    FA6.6
022C6:  BCF    FA6.7
022C8:  BSF    FA6.0
022CA:  MOVF   FA8,W
022CC:  BTFSC  xE2.7
022CE:  BSF    FF2.7
022D0:  MOVWF  xE3
022D2:  MOVFF  5E1,03
022D6:  MOVF   xE3,W
022D8:  MOVLB  6
022DA:  MOVWF  x15
022DC:  MOVFF  03,616
022E0:  MOVLB  0
022E2:  CALL   17C2
022E6:  MOVFF  03,5C9
022EA:  MOVFF  02,5C8
022EE:  MOVFF  01,5C7
022F2:  MOVFF  00,5C6
....................    delay_ms(10); 
022F6:  MOVLW  0A
022F8:  MOVLB  5
022FA:  MOVWF  xF4
022FC:  MOVLB  0
022FE:  CALL   1514
....................    negativo=read_eeprom(50); 
02302:  MOVFF  FF2,5E0
02306:  BCF    FF2.7
02308:  CLRF   FAA
0230A:  MOVLW  32
0230C:  MOVWF  FA9
0230E:  BCF    FA6.6
02310:  BCF    FA6.7
02312:  BSF    FA6.0
02314:  MOVF   FA8,W
02316:  MOVLB  5
02318:  BTFSC  xE0.7
0231A:  BSF    FF2.7
0231C:  MOVLB  4
0231E:  MOVWF  xCB
....................    delay_ms(10); 
02320:  MOVLW  0A
02322:  MOVLB  5
02324:  MOVWF  xF4
02326:  MOVLB  0
02328:  CALL   1514
....................  
.................... } 
0232C:  GOTO   5FE4 (RETURN)
....................  
.................... void LimitaValores(void){ 
....................    if(Password[0]>9 || Password[0]<0){ 
*
023AA:  MOVLB  5
023AC:  BTFSC  x0E.7
023AE:  BRA    23B6
023B0:  MOVF   x0E,W
023B2:  SUBLW  09
023B4:  BNC   23BC
023B6:  BTFSC  x0E.7
023B8:  BRA    23BC
023BA:  BRA    23E8
....................       Password[0]=0;write_eeprom(0,0); 
023BC:  CLRF   x0E
023BE:  CLRF   FAA
023C0:  CLRF   FA9
023C2:  CLRF   FA8
023C4:  BCF    FA6.6
023C6:  BCF    FA6.7
023C8:  BSF    FA6.2
023CA:  MOVF   FF2,W
023CC:  MOVWF  00
023CE:  BCF    FF2.7
023D0:  MOVLB  F
023D2:  MOVLW  55
023D4:  MOVWF  FA7
023D6:  MOVLW  AA
023D8:  MOVWF  FA7
023DA:  BSF    FA6.1
023DC:  BTFSC  FA6.1
023DE:  BRA    23DC
023E0:  BCF    FA6.2
023E2:  MOVF   00,W
023E4:  IORWF  FF2,F
023E6:  MOVLB  5
....................    } 
....................    if(Password[1]>9 || Password[1]<0){ 
023E8:  BTFSC  x0F.7
023EA:  BRA    23F2
023EC:  MOVF   x0F,W
023EE:  SUBLW  09
023F0:  BNC   23F8
023F2:  BTFSC  x0F.7
023F4:  BRA    23F8
023F6:  BRA    2426
....................       Password[1]=0;write_eeprom(1,0); 
023F8:  CLRF   x0F
023FA:  CLRF   FAA
023FC:  MOVLW  01
023FE:  MOVWF  FA9
02400:  CLRF   FA8
02402:  BCF    FA6.6
02404:  BCF    FA6.7
02406:  BSF    FA6.2
02408:  MOVF   FF2,W
0240A:  MOVWF  00
0240C:  BCF    FF2.7
0240E:  MOVLB  F
02410:  MOVLW  55
02412:  MOVWF  FA7
02414:  MOVLW  AA
02416:  MOVWF  FA7
02418:  BSF    FA6.1
0241A:  BTFSC  FA6.1
0241C:  BRA    241A
0241E:  BCF    FA6.2
02420:  MOVF   00,W
02422:  IORWF  FF2,F
02424:  MOVLB  5
....................    } 
....................    if(Password[2]>9 || Password[2]<0){ 
02426:  BTFSC  x10.7
02428:  BRA    2430
0242A:  MOVF   x10,W
0242C:  SUBLW  09
0242E:  BNC   2436
02430:  BTFSC  x10.7
02432:  BRA    2436
02434:  BRA    2464
....................       Password[2]=0;write_eeprom(2,0); 
02436:  CLRF   x10
02438:  CLRF   FAA
0243A:  MOVLW  02
0243C:  MOVWF  FA9
0243E:  CLRF   FA8
02440:  BCF    FA6.6
02442:  BCF    FA6.7
02444:  BSF    FA6.2
02446:  MOVF   FF2,W
02448:  MOVWF  00
0244A:  BCF    FF2.7
0244C:  MOVLB  F
0244E:  MOVLW  55
02450:  MOVWF  FA7
02452:  MOVLW  AA
02454:  MOVWF  FA7
02456:  BSF    FA6.1
02458:  BTFSC  FA6.1
0245A:  BRA    2458
0245C:  BCF    FA6.2
0245E:  MOVF   00,W
02460:  IORWF  FF2,F
02462:  MOVLB  5
....................    } 
....................    if(Password[3]>9 || Password[3]<0){ 
02464:  BTFSC  x11.7
02466:  BRA    246E
02468:  MOVF   x11,W
0246A:  SUBLW  09
0246C:  BNC   2474
0246E:  BTFSC  x11.7
02470:  BRA    2474
02472:  BRA    24A0
....................       Password[3]=0;write_eeprom(3,0); 
02474:  CLRF   x11
02476:  CLRF   FAA
02478:  MOVLW  03
0247A:  MOVWF  FA9
0247C:  CLRF   FA8
0247E:  BCF    FA6.6
02480:  BCF    FA6.7
02482:  BSF    FA6.2
02484:  MOVF   FF2,W
02486:  MOVWF  00
02488:  BCF    FF2.7
0248A:  MOVLB  F
0248C:  MOVLW  55
0248E:  MOVWF  FA7
02490:  MOVLW  AA
02492:  MOVWF  FA7
02494:  BSF    FA6.1
02496:  BTFSC  FA6.1
02498:  BRA    2496
0249A:  BCF    FA6.2
0249C:  MOVF   00,W
0249E:  IORWF  FF2,F
....................    } 
....................    if(Tpurgap[0]>9 || Tpurgap[0]<0){ 
024A0:  MOVLB  4
024A2:  BTFSC  xF2.7
024A4:  BRA    24AC
024A6:  MOVF   xF2,W
024A8:  SUBLW  09
024AA:  BNC   24B2
024AC:  BTFSC  xF2.7
024AE:  BRA    24B2
024B0:  BRA    24E0
....................       Tpurgap[0]=0;write_eeprom(4,0); 
024B2:  CLRF   xF2
024B4:  CLRF   FAA
024B6:  MOVLW  04
024B8:  MOVWF  FA9
024BA:  CLRF   FA8
024BC:  BCF    FA6.6
024BE:  BCF    FA6.7
024C0:  BSF    FA6.2
024C2:  MOVF   FF2,W
024C4:  MOVWF  00
024C6:  BCF    FF2.7
024C8:  MOVLB  F
024CA:  MOVLW  55
024CC:  MOVWF  FA7
024CE:  MOVLW  AA
024D0:  MOVWF  FA7
024D2:  BSF    FA6.1
024D4:  BTFSC  FA6.1
024D6:  BRA    24D4
024D8:  BCF    FA6.2
024DA:  MOVF   00,W
024DC:  IORWF  FF2,F
024DE:  MOVLB  4
....................    } 
....................    if(Tpurgap[1]>9 || Tpurgap[1]<0){ 
024E0:  BTFSC  xF3.7
024E2:  BRA    24EA
024E4:  MOVF   xF3,W
024E6:  SUBLW  09
024E8:  BNC   24F0
024EA:  BTFSC  xF3.7
024EC:  BRA    24F0
024EE:  BRA    251E
....................       Tpurgap[1]=0;write_eeprom(5,0); 
024F0:  CLRF   xF3
024F2:  CLRF   FAA
024F4:  MOVLW  05
024F6:  MOVWF  FA9
024F8:  CLRF   FA8
024FA:  BCF    FA6.6
024FC:  BCF    FA6.7
024FE:  BSF    FA6.2
02500:  MOVF   FF2,W
02502:  MOVWF  00
02504:  BCF    FF2.7
02506:  MOVLB  F
02508:  MOVLW  55
0250A:  MOVWF  FA7
0250C:  MOVLW  AA
0250E:  MOVWF  FA7
02510:  BSF    FA6.1
02512:  BTFSC  FA6.1
02514:  BRA    2512
02516:  BCF    FA6.2
02518:  MOVF   00,W
0251A:  IORWF  FF2,F
0251C:  MOVLB  4
....................    } 
....................    if(Tpurgap[2]>9 || Tpurgap[2]<0){ 
0251E:  BTFSC  xF4.7
02520:  BRA    2528
02522:  MOVF   xF4,W
02524:  SUBLW  09
02526:  BNC   252E
02528:  BTFSC  xF4.7
0252A:  BRA    252E
0252C:  BRA    2560
....................       Tpurgap[2]=2;write_eeprom(6,2); 
0252E:  MOVLW  02
02530:  MOVWF  xF4
02532:  CLRF   FAA
02534:  MOVLW  06
02536:  MOVWF  FA9
02538:  MOVLW  02
0253A:  MOVWF  FA8
0253C:  BCF    FA6.6
0253E:  BCF    FA6.7
02540:  BSF    FA6.2
02542:  MOVF   FF2,W
02544:  MOVWF  00
02546:  BCF    FF2.7
02548:  MOVLB  F
0254A:  MOVLW  55
0254C:  MOVWF  FA7
0254E:  MOVLW  AA
02550:  MOVWF  FA7
02552:  BSF    FA6.1
02554:  BTFSC  FA6.1
02556:  BRA    2554
02558:  BCF    FA6.2
0255A:  MOVF   00,W
0255C:  IORWF  FF2,F
0255E:  MOVLB  4
....................    } 
....................    if(Tpurgap[3]>9 || Tpurgap[3]<0){ 
02560:  BTFSC  xF5.7
02562:  BRA    256A
02564:  MOVF   xF5,W
02566:  SUBLW  09
02568:  BNC   2570
0256A:  BTFSC  xF5.7
0256C:  BRA    2570
0256E:  BRA    259E
....................       Tpurgap[3]=0;write_eeprom(7,0); 
02570:  CLRF   xF5
02572:  CLRF   FAA
02574:  MOVLW  07
02576:  MOVWF  FA9
02578:  CLRF   FA8
0257A:  BCF    FA6.6
0257C:  BCF    FA6.7
0257E:  BSF    FA6.2
02580:  MOVF   FF2,W
02582:  MOVWF  00
02584:  BCF    FF2.7
02586:  MOVLB  F
02588:  MOVLW  55
0258A:  MOVWF  FA7
0258C:  MOVLW  AA
0258E:  MOVWF  FA7
02590:  BSF    FA6.1
02592:  BTFSC  FA6.1
02594:  BRA    2592
02596:  BCF    FA6.2
02598:  MOVF   00,W
0259A:  IORWF  FF2,F
0259C:  MOVLB  4
....................    } 
....................    if(Tppurgap[0]>9 || Tppurgap[0]<0){ 
0259E:  BTFSC  xFA.7
025A0:  BRA    25A8
025A2:  MOVF   xFA,W
025A4:  SUBLW  09
025A6:  BNC   25AE
025A8:  BTFSC  xFA.7
025AA:  BRA    25AE
025AC:  BRA    25DC
....................       Tppurgap[0]=0;write_eeprom(8,0); 
025AE:  CLRF   xFA
025B0:  CLRF   FAA
025B2:  MOVLW  08
025B4:  MOVWF  FA9
025B6:  CLRF   FA8
025B8:  BCF    FA6.6
025BA:  BCF    FA6.7
025BC:  BSF    FA6.2
025BE:  MOVF   FF2,W
025C0:  MOVWF  00
025C2:  BCF    FF2.7
025C4:  MOVLB  F
025C6:  MOVLW  55
025C8:  MOVWF  FA7
025CA:  MOVLW  AA
025CC:  MOVWF  FA7
025CE:  BSF    FA6.1
025D0:  BTFSC  FA6.1
025D2:  BRA    25D0
025D4:  BCF    FA6.2
025D6:  MOVF   00,W
025D8:  IORWF  FF2,F
025DA:  MOVLB  4
....................    } 
....................    if(Tppurgap[1]>9 || Tppurgap[1]<0){ 
025DC:  BTFSC  xFB.7
025DE:  BRA    25E6
025E0:  MOVF   xFB,W
025E2:  SUBLW  09
025E4:  BNC   25EC
025E6:  BTFSC  xFB.7
025E8:  BRA    25EC
025EA:  BRA    261A
....................       Tppurgap[1]=0;write_eeprom(9,0); 
025EC:  CLRF   xFB
025EE:  CLRF   FAA
025F0:  MOVLW  09
025F2:  MOVWF  FA9
025F4:  CLRF   FA8
025F6:  BCF    FA6.6
025F8:  BCF    FA6.7
025FA:  BSF    FA6.2
025FC:  MOVF   FF2,W
025FE:  MOVWF  00
02600:  BCF    FF2.7
02602:  MOVLB  F
02604:  MOVLW  55
02606:  MOVWF  FA7
02608:  MOVLW  AA
0260A:  MOVWF  FA7
0260C:  BSF    FA6.1
0260E:  BTFSC  FA6.1
02610:  BRA    260E
02612:  BCF    FA6.2
02614:  MOVF   00,W
02616:  IORWF  FF2,F
02618:  MOVLB  4
....................    } 
....................    if(Tppurgap[2]>9 || Tppurgap[2]<0){ 
0261A:  BTFSC  xFC.7
0261C:  BRA    2624
0261E:  MOVF   xFC,W
02620:  SUBLW  09
02622:  BNC   262A
02624:  BTFSC  xFC.7
02626:  BRA    262A
02628:  BRA    265C
....................       Tppurgap[2]=2;write_eeprom(10,2); 
0262A:  MOVLW  02
0262C:  MOVWF  xFC
0262E:  CLRF   FAA
02630:  MOVLW  0A
02632:  MOVWF  FA9
02634:  MOVLW  02
02636:  MOVWF  FA8
02638:  BCF    FA6.6
0263A:  BCF    FA6.7
0263C:  BSF    FA6.2
0263E:  MOVF   FF2,W
02640:  MOVWF  00
02642:  BCF    FF2.7
02644:  MOVLB  F
02646:  MOVLW  55
02648:  MOVWF  FA7
0264A:  MOVLW  AA
0264C:  MOVWF  FA7
0264E:  BSF    FA6.1
02650:  BTFSC  FA6.1
02652:  BRA    2650
02654:  BCF    FA6.2
02656:  MOVF   00,W
02658:  IORWF  FF2,F
0265A:  MOVLB  4
....................    } 
....................    if(Tppurgap[3]>9 || Tppurgap[3]<0){ 
0265C:  BTFSC  xFD.7
0265E:  BRA    2666
02660:  MOVF   xFD,W
02662:  SUBLW  09
02664:  BNC   266C
02666:  BTFSC  xFD.7
02668:  BRA    266C
0266A:  BRA    269A
....................       Tppurgap[3]=0;write_eeprom(11,0); 
0266C:  CLRF   xFD
0266E:  CLRF   FAA
02670:  MOVLW  0B
02672:  MOVWF  FA9
02674:  CLRF   FA8
02676:  BCF    FA6.6
02678:  BCF    FA6.7
0267A:  BSF    FA6.2
0267C:  MOVF   FF2,W
0267E:  MOVWF  00
02680:  BCF    FF2.7
02682:  MOVLB  F
02684:  MOVLW  55
02686:  MOVWF  FA7
02688:  MOVLW  AA
0268A:  MOVWF  FA7
0268C:  BSF    FA6.1
0268E:  BTFSC  FA6.1
02690:  BRA    268E
02692:  BCF    FA6.2
02694:  MOVF   00,W
02696:  IORWF  FF2,F
02698:  MOVLB  4
....................    } 
....................    if(Tuv[0]>9 || Tuv[0]<0){ 
0269A:  BTFSC  xFE.7
0269C:  BRA    26A4
0269E:  MOVF   xFE,W
026A0:  SUBLW  09
026A2:  BNC   26AA
026A4:  BTFSC  xFE.7
026A6:  BRA    26AA
026A8:  BRA    26D8
....................       Tuv[0]=0;write_eeprom(12,0); 
026AA:  CLRF   xFE
026AC:  CLRF   FAA
026AE:  MOVLW  0C
026B0:  MOVWF  FA9
026B2:  CLRF   FA8
026B4:  BCF    FA6.6
026B6:  BCF    FA6.7
026B8:  BSF    FA6.2
026BA:  MOVF   FF2,W
026BC:  MOVWF  00
026BE:  BCF    FF2.7
026C0:  MOVLB  F
026C2:  MOVLW  55
026C4:  MOVWF  FA7
026C6:  MOVLW  AA
026C8:  MOVWF  FA7
026CA:  BSF    FA6.1
026CC:  BTFSC  FA6.1
026CE:  BRA    26CC
026D0:  BCF    FA6.2
026D2:  MOVF   00,W
026D4:  IORWF  FF2,F
026D6:  MOVLB  4
....................    } 
....................    if(Tuv[1]>9 || Tuv[1]<0){ 
026D8:  BTFSC  xFF.7
026DA:  BRA    26E2
026DC:  MOVF   xFF,W
026DE:  SUBLW  09
026E0:  BNC   26E8
026E2:  BTFSC  xFF.7
026E4:  BRA    26E8
026E6:  BRA    2714
....................       Tuv[1]=0;write_eeprom(13,0); 
026E8:  CLRF   xFF
026EA:  CLRF   FAA
026EC:  MOVLW  0D
026EE:  MOVWF  FA9
026F0:  CLRF   FA8
026F2:  BCF    FA6.6
026F4:  BCF    FA6.7
026F6:  BSF    FA6.2
026F8:  MOVF   FF2,W
026FA:  MOVWF  00
026FC:  BCF    FF2.7
026FE:  MOVLB  F
02700:  MOVLW  55
02702:  MOVWF  FA7
02704:  MOVLW  AA
02706:  MOVWF  FA7
02708:  BSF    FA6.1
0270A:  BTFSC  FA6.1
0270C:  BRA    270A
0270E:  BCF    FA6.2
02710:  MOVF   00,W
02712:  IORWF  FF2,F
....................    } 
....................    if(Tuv[2]>9 || Tuv[2]<0){ 
02714:  MOVLB  5
02716:  BTFSC  x00.7
02718:  BRA    2720
0271A:  MOVF   x00,W
0271C:  SUBLW  09
0271E:  BNC   2726
02720:  BTFSC  x00.7
02722:  BRA    2726
02724:  BRA    2754
....................       Tuv[2]=0;write_eeprom(14,0); 
02726:  CLRF   x00
02728:  CLRF   FAA
0272A:  MOVLW  0E
0272C:  MOVWF  FA9
0272E:  CLRF   FA8
02730:  BCF    FA6.6
02732:  BCF    FA6.7
02734:  BSF    FA6.2
02736:  MOVF   FF2,W
02738:  MOVWF  00
0273A:  BCF    FF2.7
0273C:  MOVLB  F
0273E:  MOVLW  55
02740:  MOVWF  FA7
02742:  MOVLW  AA
02744:  MOVWF  FA7
02746:  BSF    FA6.1
02748:  BTFSC  FA6.1
0274A:  BRA    2748
0274C:  BCF    FA6.2
0274E:  MOVF   00,W
02750:  IORWF  FF2,F
02752:  MOVLB  5
....................    } 
....................    if(Tuv[3]>9 || Tuv[3]<0){ 
02754:  BTFSC  x01.7
02756:  BRA    275E
02758:  MOVF   x01,W
0275A:  SUBLW  09
0275C:  BNC   2764
0275E:  BTFSC  x01.7
02760:  BRA    2764
02762:  BRA    2792
....................       Tuv[3]=0;write_eeprom(15,0); 
02764:  CLRF   x01
02766:  CLRF   FAA
02768:  MOVLW  0F
0276A:  MOVWF  FA9
0276C:  CLRF   FA8
0276E:  BCF    FA6.6
02770:  BCF    FA6.7
02772:  BSF    FA6.2
02774:  MOVF   FF2,W
02776:  MOVWF  00
02778:  BCF    FF2.7
0277A:  MOVLB  F
0277C:  MOVLW  55
0277E:  MOVWF  FA7
02780:  MOVLW  AA
02782:  MOVWF  FA7
02784:  BSF    FA6.1
02786:  BTFSC  FA6.1
02788:  BRA    2786
0278A:  BCF    FA6.2
0278C:  MOVF   00,W
0278E:  IORWF  FF2,F
02790:  MOVLB  5
....................    } 
....................    if(Ttrabajo[0]>9 || Ttrabajo[0]<0){ 
02792:  BTFSC  x06.7
02794:  BRA    279C
02796:  MOVF   x06,W
02798:  SUBLW  09
0279A:  BNC   27A2
0279C:  BTFSC  x06.7
0279E:  BRA    27A2
027A0:  BRA    27D0
....................       Ttrabajo[0]=0;write_eeprom(16,0); 
027A2:  CLRF   x06
027A4:  CLRF   FAA
027A6:  MOVLW  10
027A8:  MOVWF  FA9
027AA:  CLRF   FA8
027AC:  BCF    FA6.6
027AE:  BCF    FA6.7
027B0:  BSF    FA6.2
027B2:  MOVF   FF2,W
027B4:  MOVWF  00
027B6:  BCF    FF2.7
027B8:  MOVLB  F
027BA:  MOVLW  55
027BC:  MOVWF  FA7
027BE:  MOVLW  AA
027C0:  MOVWF  FA7
027C2:  BSF    FA6.1
027C4:  BTFSC  FA6.1
027C6:  BRA    27C4
027C8:  BCF    FA6.2
027CA:  MOVF   00,W
027CC:  IORWF  FF2,F
027CE:  MOVLB  5
....................    } 
....................    if(Ttrabajo[1]>9 || Ttrabajo[1]<0){ 
027D0:  BTFSC  x07.7
027D2:  BRA    27DA
027D4:  MOVF   x07,W
027D6:  SUBLW  09
027D8:  BNC   27E0
027DA:  BTFSC  x07.7
027DC:  BRA    27E0
027DE:  BRA    280E
....................       Ttrabajo[1]=0;write_eeprom(17,0); 
027E0:  CLRF   x07
027E2:  CLRF   FAA
027E4:  MOVLW  11
027E6:  MOVWF  FA9
027E8:  CLRF   FA8
027EA:  BCF    FA6.6
027EC:  BCF    FA6.7
027EE:  BSF    FA6.2
027F0:  MOVF   FF2,W
027F2:  MOVWF  00
027F4:  BCF    FF2.7
027F6:  MOVLB  F
027F8:  MOVLW  55
027FA:  MOVWF  FA7
027FC:  MOVLW  AA
027FE:  MOVWF  FA7
02800:  BSF    FA6.1
02802:  BTFSC  FA6.1
02804:  BRA    2802
02806:  BCF    FA6.2
02808:  MOVF   00,W
0280A:  IORWF  FF2,F
0280C:  MOVLB  5
....................    } 
....................    if(Ttrabajo[2]>9 || Ttrabajo[2]<0){ 
0280E:  BTFSC  x08.7
02810:  BRA    2818
02812:  MOVF   x08,W
02814:  SUBLW  09
02816:  BNC   281E
02818:  BTFSC  x08.7
0281A:  BRA    281E
0281C:  BRA    284C
....................       Ttrabajo[2]=0;write_eeprom(18,0); 
0281E:  CLRF   x08
02820:  CLRF   FAA
02822:  MOVLW  12
02824:  MOVWF  FA9
02826:  CLRF   FA8
02828:  BCF    FA6.6
0282A:  BCF    FA6.7
0282C:  BSF    FA6.2
0282E:  MOVF   FF2,W
02830:  MOVWF  00
02832:  BCF    FF2.7
02834:  MOVLB  F
02836:  MOVLW  55
02838:  MOVWF  FA7
0283A:  MOVLW  AA
0283C:  MOVWF  FA7
0283E:  BSF    FA6.1
02840:  BTFSC  FA6.1
02842:  BRA    2840
02844:  BCF    FA6.2
02846:  MOVF   00,W
02848:  IORWF  FF2,F
0284A:  MOVLB  5
....................    } 
....................    if(Ttrabajo[3]>9 || Ttrabajo[3]<0){ 
0284C:  BTFSC  x09.7
0284E:  BRA    2856
02850:  MOVF   x09,W
02852:  SUBLW  09
02854:  BNC   285C
02856:  BTFSC  x09.7
02858:  BRA    285C
0285A:  BRA    288A
....................       Ttrabajo[3]=0;write_eeprom(19,0); 
0285C:  CLRF   x09
0285E:  CLRF   FAA
02860:  MOVLW  13
02862:  MOVWF  FA9
02864:  CLRF   FA8
02866:  BCF    FA6.6
02868:  BCF    FA6.7
0286A:  BSF    FA6.2
0286C:  MOVF   FF2,W
0286E:  MOVWF  00
02870:  BCF    FF2.7
02872:  MOVLB  F
02874:  MOVLW  55
02876:  MOVWF  FA7
02878:  MOVLW  AA
0287A:  MOVWF  FA7
0287C:  BSF    FA6.1
0287E:  BTFSC  FA6.1
02880:  BRA    287E
02882:  BCF    FA6.2
02884:  MOVF   00,W
02886:  IORWF  FF2,F
02888:  MOVLB  5
....................    } 
....................    if(Tempouvp[0]>9 || Tempouvp[0]<0){ 
0288A:  BTFSC  x02.7
0288C:  BRA    2894
0288E:  MOVF   x02,W
02890:  SUBLW  09
02892:  BNC   289A
02894:  BTFSC  x02.7
02896:  BRA    289A
02898:  BRA    28C8
....................       Tempouvp[0]=0;write_eeprom(21,0); 
0289A:  CLRF   x02
0289C:  CLRF   FAA
0289E:  MOVLW  15
028A0:  MOVWF  FA9
028A2:  CLRF   FA8
028A4:  BCF    FA6.6
028A6:  BCF    FA6.7
028A8:  BSF    FA6.2
028AA:  MOVF   FF2,W
028AC:  MOVWF  00
028AE:  BCF    FF2.7
028B0:  MOVLB  F
028B2:  MOVLW  55
028B4:  MOVWF  FA7
028B6:  MOVLW  AA
028B8:  MOVWF  FA7
028BA:  BSF    FA6.1
028BC:  BTFSC  FA6.1
028BE:  BRA    28BC
028C0:  BCF    FA6.2
028C2:  MOVF   00,W
028C4:  IORWF  FF2,F
028C6:  MOVLB  5
....................    } 
....................    if(Tempouvp[1]>9 || Tempouvp[1]<0){ 
028C8:  BTFSC  x03.7
028CA:  BRA    28D2
028CC:  MOVF   x03,W
028CE:  SUBLW  09
028D0:  BNC   28D8
028D2:  BTFSC  x03.7
028D4:  BRA    28D8
028D6:  BRA    2906
....................       Tempouvp[1]=0;write_eeprom(22,0); 
028D8:  CLRF   x03
028DA:  CLRF   FAA
028DC:  MOVLW  16
028DE:  MOVWF  FA9
028E0:  CLRF   FA8
028E2:  BCF    FA6.6
028E4:  BCF    FA6.7
028E6:  BSF    FA6.2
028E8:  MOVF   FF2,W
028EA:  MOVWF  00
028EC:  BCF    FF2.7
028EE:  MOVLB  F
028F0:  MOVLW  55
028F2:  MOVWF  FA7
028F4:  MOVLW  AA
028F6:  MOVWF  FA7
028F8:  BSF    FA6.1
028FA:  BTFSC  FA6.1
028FC:  BRA    28FA
028FE:  BCF    FA6.2
02900:  MOVF   00,W
02902:  IORWF  FF2,F
02904:  MOVLB  5
....................    } 
....................    if(Tempouvp[2]>9 || Tempouvp[2]<0){ 
02906:  BTFSC  x04.7
02908:  BRA    2910
0290A:  MOVF   x04,W
0290C:  SUBLW  09
0290E:  BNC   2916
02910:  BTFSC  x04.7
02912:  BRA    2916
02914:  BRA    2944
....................       Tempouvp[2]=0;write_eeprom(23,0); 
02916:  CLRF   x04
02918:  CLRF   FAA
0291A:  MOVLW  17
0291C:  MOVWF  FA9
0291E:  CLRF   FA8
02920:  BCF    FA6.6
02922:  BCF    FA6.7
02924:  BSF    FA6.2
02926:  MOVF   FF2,W
02928:  MOVWF  00
0292A:  BCF    FF2.7
0292C:  MOVLB  F
0292E:  MOVLW  55
02930:  MOVWF  FA7
02932:  MOVLW  AA
02934:  MOVWF  FA7
02936:  BSF    FA6.1
02938:  BTFSC  FA6.1
0293A:  BRA    2938
0293C:  BCF    FA6.2
0293E:  MOVF   00,W
02940:  IORWF  FF2,F
02942:  MOVLB  5
....................    } 
....................    if(Tempouvp[3]>9 || Tempouvp[3]<0){ 
02944:  BTFSC  x05.7
02946:  BRA    294E
02948:  MOVF   x05,W
0294A:  SUBLW  09
0294C:  BNC   2954
0294E:  BTFSC  x05.7
02950:  BRA    2954
02952:  BRA    2984
....................       Tempouvp[3]=1;write_eeprom(24,1); 
02954:  MOVLW  01
02956:  MOVWF  x05
02958:  CLRF   FAA
0295A:  MOVLW  18
0295C:  MOVWF  FA9
0295E:  MOVLW  01
02960:  MOVWF  FA8
02962:  BCF    FA6.6
02964:  BCF    FA6.7
02966:  BSF    FA6.2
02968:  MOVF   FF2,W
0296A:  MOVWF  00
0296C:  BCF    FF2.7
0296E:  MOVLB  F
02970:  MOVLW  55
02972:  MOVWF  FA7
02974:  MOVLW  AA
02976:  MOVWF  FA7
02978:  BSF    FA6.1
0297A:  BTFSC  FA6.1
0297C:  BRA    297A
0297E:  BCF    FA6.2
02980:  MOVF   00,W
02982:  IORWF  FF2,F
....................    } 
....................    if(Ajuste1>25.0){ 
02984:  MOVLB  6
02986:  CLRF   x14
02988:  CLRF   x13
0298A:  MOVLW  48
0298C:  MOVWF  x12
0298E:  MOVLW  83
02990:  MOVWF  x11
02992:  MOVFF  535,618
02996:  MOVFF  534,617
0299A:  MOVFF  533,616
0299E:  MOVFF  532,615
029A2:  MOVLB  0
029A4:  RCALL  2330
029A6:  BNC   2A0C
....................       Ajuste1=1.5;write_eeprom(25,1);write_eeprom(26,5); 
029A8:  MOVLB  5
029AA:  CLRF   x35
029AC:  CLRF   x34
029AE:  MOVLW  40
029B0:  MOVWF  x33
029B2:  MOVLW  7F
029B4:  MOVWF  x32
029B6:  CLRF   FAA
029B8:  MOVLW  19
029BA:  MOVWF  FA9
029BC:  MOVLW  01
029BE:  MOVWF  FA8
029C0:  BCF    FA6.6
029C2:  BCF    FA6.7
029C4:  BSF    FA6.2
029C6:  MOVF   FF2,W
029C8:  MOVWF  00
029CA:  BCF    FF2.7
029CC:  MOVLB  F
029CE:  MOVLW  55
029D0:  MOVWF  FA7
029D2:  MOVLW  AA
029D4:  MOVWF  FA7
029D6:  BSF    FA6.1
029D8:  BTFSC  FA6.1
029DA:  BRA    29D8
029DC:  BCF    FA6.2
029DE:  MOVF   00,W
029E0:  IORWF  FF2,F
029E2:  CLRF   FAA
029E4:  MOVLW  1A
029E6:  MOVWF  FA9
029E8:  MOVLW  05
029EA:  MOVWF  FA8
029EC:  BCF    FA6.6
029EE:  BCF    FA6.7
029F0:  BSF    FA6.2
029F2:  MOVF   FF2,W
029F4:  MOVWF  00
029F6:  BCF    FF2.7
029F8:  MOVLW  55
029FA:  MOVWF  FA7
029FC:  MOVLW  AA
029FE:  MOVWF  FA7
02A00:  BSF    FA6.1
02A02:  BTFSC  FA6.1
02A04:  BRA    2A02
02A06:  BCF    FA6.2
02A08:  MOVF   00,W
02A0A:  IORWF  FF2,F
....................    } 
....................    if(Ajuste2>25.0){ 
02A0C:  MOVLB  6
02A0E:  CLRF   x14
02A10:  CLRF   x13
02A12:  MOVLW  48
02A14:  MOVWF  x12
02A16:  MOVLW  83
02A18:  MOVWF  x11
02A1A:  MOVFF  539,618
02A1E:  MOVFF  538,617
02A22:  MOVFF  537,616
02A26:  MOVFF  536,615
02A2A:  MOVLB  0
02A2C:  RCALL  2330
02A2E:  BNC   2A90
....................       Ajuste2=1.0;write_eeprom(27,1);write_eeprom(28,0); 
02A30:  MOVLB  5
02A32:  CLRF   x39
02A34:  CLRF   x38
02A36:  CLRF   x37
02A38:  MOVLW  7F
02A3A:  MOVWF  x36
02A3C:  CLRF   FAA
02A3E:  MOVLW  1B
02A40:  MOVWF  FA9
02A42:  MOVLW  01
02A44:  MOVWF  FA8
02A46:  BCF    FA6.6
02A48:  BCF    FA6.7
02A4A:  BSF    FA6.2
02A4C:  MOVF   FF2,W
02A4E:  MOVWF  00
02A50:  BCF    FF2.7
02A52:  MOVLB  F
02A54:  MOVLW  55
02A56:  MOVWF  FA7
02A58:  MOVLW  AA
02A5A:  MOVWF  FA7
02A5C:  BSF    FA6.1
02A5E:  BTFSC  FA6.1
02A60:  BRA    2A5E
02A62:  BCF    FA6.2
02A64:  MOVF   00,W
02A66:  IORWF  FF2,F
02A68:  CLRF   FAA
02A6A:  MOVLW  1C
02A6C:  MOVWF  FA9
02A6E:  CLRF   FA8
02A70:  BCF    FA6.6
02A72:  BCF    FA6.7
02A74:  BSF    FA6.2
02A76:  MOVF   FF2,W
02A78:  MOVWF  00
02A7A:  BCF    FF2.7
02A7C:  MOVLW  55
02A7E:  MOVWF  FA7
02A80:  MOVLW  AA
02A82:  MOVWF  FA7
02A84:  BSF    FA6.1
02A86:  BTFSC  FA6.1
02A88:  BRA    2A86
02A8A:  BCF    FA6.2
02A8C:  MOVF   00,W
02A8E:  IORWF  FF2,F
....................    } 
....................    if(zero_actual>300){ 
02A90:  MOVLB  6
02A92:  CLRF   x14
02A94:  CLRF   x13
02A96:  MOVLW  16
02A98:  MOVWF  x12
02A9A:  MOVLW  87
02A9C:  MOVWF  x11
02A9E:  MOVFF  5BD,618
02AA2:  MOVFF  5BC,617
02AA6:  MOVFF  5BB,616
02AAA:  MOVFF  5BA,615
02AAE:  MOVLB  0
02AB0:  RCALL  2330
02AB2:  BNC   2B16
....................       zero_actual=203;write_eeprom(29,203);write_eeprom(30,0); 
02AB4:  MOVLB  5
02AB6:  CLRF   xBD
02AB8:  CLRF   xBC
02ABA:  MOVLW  4B
02ABC:  MOVWF  xBB
02ABE:  MOVLW  86
02AC0:  MOVWF  xBA
02AC2:  CLRF   FAA
02AC4:  MOVLW  1D
02AC6:  MOVWF  FA9
02AC8:  MOVLW  CB
02ACA:  MOVWF  FA8
02ACC:  BCF    FA6.6
02ACE:  BCF    FA6.7
02AD0:  BSF    FA6.2
02AD2:  MOVF   FF2,W
02AD4:  MOVWF  00
02AD6:  BCF    FF2.7
02AD8:  MOVLB  F
02ADA:  MOVLW  55
02ADC:  MOVWF  FA7
02ADE:  MOVLW  AA
02AE0:  MOVWF  FA7
02AE2:  BSF    FA6.1
02AE4:  BTFSC  FA6.1
02AE6:  BRA    2AE4
02AE8:  BCF    FA6.2
02AEA:  MOVF   00,W
02AEC:  IORWF  FF2,F
02AEE:  CLRF   FAA
02AF0:  MOVLW  1E
02AF2:  MOVWF  FA9
02AF4:  CLRF   FA8
02AF6:  BCF    FA6.6
02AF8:  BCF    FA6.7
02AFA:  BSF    FA6.2
02AFC:  MOVF   FF2,W
02AFE:  MOVWF  00
02B00:  BCF    FF2.7
02B02:  MOVLW  55
02B04:  MOVWF  FA7
02B06:  MOVLW  AA
02B08:  MOVWF  FA7
02B0A:  BSF    FA6.1
02B0C:  BTFSC  FA6.1
02B0E:  BRA    2B0C
02B10:  BCF    FA6.2
02B12:  MOVF   00,W
02B14:  IORWF  FF2,F
....................    } 
....................    if(minutos_uv>60){ 
02B16:  MOVLB  4
02B18:  MOVF   xDF,F
02B1A:  BNZ   2B22
02B1C:  MOVF   xDE,W
02B1E:  SUBLW  3C
02B20:  BC    2B50
....................       minutos_uv=0;write_eeprom(31,0); 
02B22:  CLRF   xDF
02B24:  CLRF   xDE
02B26:  CLRF   FAA
02B28:  MOVLW  1F
02B2A:  MOVWF  FA9
02B2C:  CLRF   FA8
02B2E:  BCF    FA6.6
02B30:  BCF    FA6.7
02B32:  BSF    FA6.2
02B34:  MOVF   FF2,W
02B36:  MOVWF  00
02B38:  BCF    FF2.7
02B3A:  MOVLB  F
02B3C:  MOVLW  55
02B3E:  MOVWF  FA7
02B40:  MOVLW  AA
02B42:  MOVWF  FA7
02B44:  BSF    FA6.1
02B46:  BTFSC  FA6.1
02B48:  BRA    2B46
02B4A:  BCF    FA6.2
02B4C:  MOVF   00,W
02B4E:  IORWF  FF2,F
....................    } 
....................    if(VelMotor>6){ 
02B50:  MOVLB  5
02B52:  MOVF   xD7,W
02B54:  SUBLW  06
02B56:  BC    2B88
....................       VelMotor=2;write_eeprom(32,2); 
02B58:  MOVLW  02
02B5A:  MOVWF  xD7
02B5C:  CLRF   FAA
02B5E:  MOVLW  20
02B60:  MOVWF  FA9
02B62:  MOVLW  02
02B64:  MOVWF  FA8
02B66:  BCF    FA6.6
02B68:  BCF    FA6.7
02B6A:  BSF    FA6.2
02B6C:  MOVF   FF2,W
02B6E:  MOVWF  00
02B70:  BCF    FF2.7
02B72:  MOVLB  F
02B74:  MOVLW  55
02B76:  MOVWF  FA7
02B78:  MOVLW  AA
02B7A:  MOVWF  FA7
02B7C:  BSF    FA6.1
02B7E:  BTFSC  FA6.1
02B80:  BRA    2B7E
02B82:  BCF    FA6.2
02B84:  MOVF   00,W
02B86:  IORWF  FF2,F
....................    }    
....................    if(minutos_trabajo>3600){ 
02B88:  MOVLB  4
02B8A:  MOVF   xE1,W
02B8C:  SUBLW  0D
02B8E:  BC    2BF0
02B90:  XORLW  FF
02B92:  BNZ   2B9A
02B94:  MOVF   xE0,W
02B96:  SUBLW  10
02B98:  BC    2BF0
....................       minutos_trabajo=0;write_eeprom(33,0);write_eeprom(34,0); 
02B9A:  CLRF   xE1
02B9C:  CLRF   xE0
02B9E:  CLRF   FAA
02BA0:  MOVLW  21
02BA2:  MOVWF  FA9
02BA4:  CLRF   FA8
02BA6:  BCF    FA6.6
02BA8:  BCF    FA6.7
02BAA:  BSF    FA6.2
02BAC:  MOVF   FF2,W
02BAE:  MOVWF  00
02BB0:  BCF    FF2.7
02BB2:  MOVLB  F
02BB4:  MOVLW  55
02BB6:  MOVWF  FA7
02BB8:  MOVLW  AA
02BBA:  MOVWF  FA7
02BBC:  BSF    FA6.1
02BBE:  BTFSC  FA6.1
02BC0:  BRA    2BBE
02BC2:  BCF    FA6.2
02BC4:  MOVF   00,W
02BC6:  IORWF  FF2,F
02BC8:  CLRF   FAA
02BCA:  MOVLW  22
02BCC:  MOVWF  FA9
02BCE:  CLRF   FA8
02BD0:  BCF    FA6.6
02BD2:  BCF    FA6.7
02BD4:  BSF    FA6.2
02BD6:  MOVF   FF2,W
02BD8:  MOVWF  00
02BDA:  BCF    FF2.7
02BDC:  MOVLW  55
02BDE:  MOVWF  FA7
02BE0:  MOVLW  AA
02BE2:  MOVWF  FA7
02BE4:  BSF    FA6.1
02BE6:  BTFSC  FA6.1
02BE8:  BRA    2BE6
02BEA:  BCF    FA6.2
02BEC:  MOVF   00,W
02BEE:  IORWF  FF2,F
....................    } 
....................    //if(Relacion>2.0){ 
....................       //Relacion=0.57;write_eeprom(35,0);write_eeprom(36,57); 
....................    //} 
....................    if(Diferencia>200){ 
02BF0:  MOVLB  6
02BF2:  CLRF   x14
02BF4:  CLRF   x13
02BF6:  MOVLW  48
02BF8:  MOVWF  x12
02BFA:  MOVLW  86
02BFC:  MOVWF  x11
02BFE:  MOVFF  521,618
02C02:  MOVFF  520,617
02C06:  MOVFF  51F,616
02C0A:  MOVFF  51E,615
02C0E:  MOVLB  0
02C10:  CALL   2330
02C14:  BNC   2C72
....................       Diferencia=0;write_eeprom(60,0);write_eeprom(61,0); 
02C16:  MOVLB  5
02C18:  CLRF   x21
02C1A:  CLRF   x20
02C1C:  CLRF   x1F
02C1E:  CLRF   x1E
02C20:  CLRF   FAA
02C22:  MOVLW  3C
02C24:  MOVWF  FA9
02C26:  CLRF   FA8
02C28:  BCF    FA6.6
02C2A:  BCF    FA6.7
02C2C:  BSF    FA6.2
02C2E:  MOVF   FF2,W
02C30:  MOVWF  00
02C32:  BCF    FF2.7
02C34:  MOVLB  F
02C36:  MOVLW  55
02C38:  MOVWF  FA7
02C3A:  MOVLW  AA
02C3C:  MOVWF  FA7
02C3E:  BSF    FA6.1
02C40:  BTFSC  FA6.1
02C42:  BRA    2C40
02C44:  BCF    FA6.2
02C46:  MOVF   00,W
02C48:  IORWF  FF2,F
02C4A:  CLRF   FAA
02C4C:  MOVLW  3D
02C4E:  MOVWF  FA9
02C50:  CLRF   FA8
02C52:  BCF    FA6.6
02C54:  BCF    FA6.7
02C56:  BSF    FA6.2
02C58:  MOVF   FF2,W
02C5A:  MOVWF  00
02C5C:  BCF    FF2.7
02C5E:  MOVLW  55
02C60:  MOVWF  FA7
02C62:  MOVLW  AA
02C64:  MOVWF  FA7
02C66:  BSF    FA6.1
02C68:  BTFSC  FA6.1
02C6A:  BRA    2C68
02C6C:  BCF    FA6.2
02C6E:  MOVF   00,W
02C70:  IORWF  FF2,F
....................    } 
....................    if(G>900){ 
02C72:  MOVLB  6
02C74:  CLRF   x14
02C76:  CLRF   x13
02C78:  MOVLW  61
02C7A:  MOVWF  x12
02C7C:  MOVLW  88
02C7E:  MOVWF  x11
02C80:  MOVFF  5C9,618
02C84:  MOVFF  5C8,617
02C88:  MOVFF  5C7,616
02C8C:  MOVFF  5C6,615
02C90:  MOVLB  0
02C92:  CALL   2330
02C96:  BNC   2CFA
....................       G=240;write_eeprom(62,240);write_eeprom(63,0); 
02C98:  MOVLB  5
02C9A:  CLRF   xC9
02C9C:  CLRF   xC8
02C9E:  MOVLW  70
02CA0:  MOVWF  xC7
02CA2:  MOVLW  86
02CA4:  MOVWF  xC6
02CA6:  CLRF   FAA
02CA8:  MOVLW  3E
02CAA:  MOVWF  FA9
02CAC:  MOVLW  F0
02CAE:  MOVWF  FA8
02CB0:  BCF    FA6.6
02CB2:  BCF    FA6.7
02CB4:  BSF    FA6.2
02CB6:  MOVF   FF2,W
02CB8:  MOVWF  00
02CBA:  BCF    FF2.7
02CBC:  MOVLB  F
02CBE:  MOVLW  55
02CC0:  MOVWF  FA7
02CC2:  MOVLW  AA
02CC4:  MOVWF  FA7
02CC6:  BSF    FA6.1
02CC8:  BTFSC  FA6.1
02CCA:  BRA    2CC8
02CCC:  BCF    FA6.2
02CCE:  MOVF   00,W
02CD0:  IORWF  FF2,F
02CD2:  CLRF   FAA
02CD4:  MOVLW  3F
02CD6:  MOVWF  FA9
02CD8:  CLRF   FA8
02CDA:  BCF    FA6.6
02CDC:  BCF    FA6.7
02CDE:  BSF    FA6.2
02CE0:  MOVF   FF2,W
02CE2:  MOVWF  00
02CE4:  BCF    FF2.7
02CE6:  MOVLW  55
02CE8:  MOVWF  FA7
02CEA:  MOVLW  AA
02CEC:  MOVWF  FA7
02CEE:  BSF    FA6.1
02CF0:  BTFSC  FA6.1
02CF2:  BRA    2CF0
02CF4:  BCF    FA6.2
02CF6:  MOVF   00,W
02CF8:  IORWF  FF2,F
....................    } 
....................    if(negativo>20){ 
02CFA:  MOVLB  4
02CFC:  MOVF   xCB,W
02CFE:  SUBLW  14
02D00:  BC    2D34
....................       negativo=10;write_eeprom(50,10); 
02D02:  MOVLW  0A
02D04:  MOVWF  xCB
02D06:  CLRF   FAA
02D08:  MOVLW  32
02D0A:  MOVWF  FA9
02D0C:  MOVLW  0A
02D0E:  MOVWF  FA8
02D10:  BCF    FA6.6
02D12:  BCF    FA6.7
02D14:  BSF    FA6.2
02D16:  MOVF   FF2,W
02D18:  MOVWF  00
02D1A:  BCF    FF2.7
02D1C:  MOVLB  F
02D1E:  MOVLW  55
02D20:  MOVWF  FA7
02D22:  MOVLW  AA
02D24:  MOVWF  FA7
02D26:  BSF    FA6.1
02D28:  BTFSC  FA6.1
02D2A:  BRA    2D28
02D2C:  BCF    FA6.2
02D2E:  MOVF   00,W
02D30:  IORWF  FF2,F
02D32:  MOVLB  4
....................    } 
.................... } 
02D34:  MOVLB  0
02D36:  GOTO   5FE8 (RETURN)
....................  
.................... void VelocidadMotor(int8 Vel){ 
....................    if(Vel==6){ 
*
0153C:  MOVLB  5
0153E:  MOVF   xE0,W
01540:  SUBLW  06
01542:  BNZ   154C
....................       Porcentaje=0; 
01544:  CLRF   xD6
....................       Motor_on; 
01546:  BSF    F8B.2
01548:  BCF    F94.2
....................    }else if(Vel==5){ 
0154A:  BRA    15CE
0154C:  MOVF   xE0,W
0154E:  SUBLW  05
01550:  BNZ   1564
....................       Porcentaje=15; 
01552:  MOVLW  0F
01554:  MOVWF  xD6
....................       retardo=2000; 
01556:  MOVLW  07
01558:  MOVWF  xCD
0155A:  MOVLW  D0
0155C:  MOVWF  xCC
....................       Motor_on; 
0155E:  BSF    F8B.2
01560:  BCF    F94.2
....................    }else if(Vel==4){ 
01562:  BRA    15CE
01564:  MOVF   xE0,W
01566:  SUBLW  04
01568:  BNZ   157C
....................       Porcentaje=25; 
0156A:  MOVLW  19
0156C:  MOVWF  xD6
....................       retardo=3000; 
0156E:  MOVLW  0B
01570:  MOVWF  xCD
01572:  MOVLW  B8
01574:  MOVWF  xCC
....................       Motor_on; 
01576:  BSF    F8B.2
01578:  BCF    F94.2
....................    }else if(Vel==3){ 
0157A:  BRA    15CE
0157C:  MOVF   xE0,W
0157E:  SUBLW  03
01580:  BNZ   1594
....................       Porcentaje=35; 
01582:  MOVLW  23
01584:  MOVWF  xD6
....................       retardo=3600; 
01586:  MOVLW  0E
01588:  MOVWF  xCD
0158A:  MOVLW  10
0158C:  MOVWF  xCC
....................       Motor_on; 
0158E:  BSF    F8B.2
01590:  BCF    F94.2
....................    }else if(Vel==2){ 
01592:  BRA    15CE
01594:  MOVF   xE0,W
01596:  SUBLW  02
01598:  BNZ   15AC
....................       Porcentaje=45; 
0159A:  MOVLW  2D
0159C:  MOVWF  xD6
....................       retardo=4300; 
0159E:  MOVLW  10
015A0:  MOVWF  xCD
015A2:  MOVLW  CC
015A4:  MOVWF  xCC
....................       Motor_on; 
015A6:  BSF    F8B.2
015A8:  BCF    F94.2
....................    }else if(Vel==1){ 
015AA:  BRA    15CE
015AC:  DECFSZ xE0,W
015AE:  BRA    15C2
....................       Porcentaje=50; 
015B0:  MOVLW  32
015B2:  MOVWF  xD6
....................       retardo=5000; 
015B4:  MOVLW  13
015B6:  MOVWF  xCD
015B8:  MOVLW  88
015BA:  MOVWF  xCC
....................       Motor_on; 
015BC:  BSF    F8B.2
015BE:  BCF    F94.2
....................    }else if(Vel==0){ 
015C0:  BRA    15CE
015C2:  MOVF   xE0,F
015C4:  BNZ   15CE
....................       Porcentaje=100; 
015C6:  MOVLW  64
015C8:  MOVWF  xD6
....................       Motor_off; 
015CA:  BCF    F8B.2
015CC:  BCF    F94.2
....................    } 
.................... } 
015CE:  MOVLB  0
015D0:  RETLW  00
....................  
.................... short PidePassword(int8 MenuAnt, int8 MenuActual, int8 MenuPost, int8 clave0,int8 clave1, int8 clave2,int8 clave3){ 
....................       if(n==0) 
*
04CE8:  MOVLB  4
04CEA:  BTFSC  x2F.3
04CEC:  BRA    4D84
....................       { 
....................          displayContrasena(Contrasena[0],20,30,1);displayContrasena(Contrasena[1],40,30,0); 
04CEE:  MOVFF  50A,5EA
04CF2:  MOVLW  14
04CF4:  MOVLB  5
04CF6:  MOVWF  xEB
04CF8:  MOVLW  1E
04CFA:  MOVWF  xEC
04CFC:  MOVLW  01
04CFE:  MOVWF  xED
04D00:  MOVLB  0
04D02:  RCALL  4B64
04D04:  MOVFF  50B,5EA
04D08:  MOVLW  28
04D0A:  MOVLB  5
04D0C:  MOVWF  xEB
04D0E:  MOVLW  1E
04D10:  MOVWF  xEC
04D12:  CLRF   xED
04D14:  MOVLB  0
04D16:  RCALL  4B64
....................          displayContrasena(Contrasena[2],60,30,0);displayContrasena(Contrasena[0],80,30,0); 
04D18:  MOVFF  50C,5EA
04D1C:  MOVLW  3C
04D1E:  MOVLB  5
04D20:  MOVWF  xEB
04D22:  MOVLW  1E
04D24:  MOVWF  xEC
04D26:  CLRF   xED
04D28:  MOVLB  0
04D2A:  RCALL  4B64
04D2C:  MOVFF  50A,5EA
04D30:  MOVLW  50
04D32:  MOVLB  5
04D34:  MOVWF  xEB
04D36:  MOVLW  1E
04D38:  MOVWF  xEC
04D3A:  CLRF   xED
04D3C:  MOVLB  0
04D3E:  RCALL  4B64
....................          strcpy(Menus.Letra,"Clave"); 
04D40:  MOVLW  04
04D42:  MOVWF  FEA
04D44:  MOVLW  17
04D46:  MOVWF  FE9
04D48:  MOVFF  FF2,5E8
04D4C:  BCF    FF2.7
04D4E:  MOVLW  00
04D50:  CALL   0F0A
04D54:  TBLRD*-
04D56:  TBLRD*+
04D58:  MOVF   FF5,W
04D5A:  MOVWF  FEE
04D5C:  IORLW  00
04D5E:  BNZ   4D56
04D60:  MOVLB  5
04D62:  BTFSC  xE8.7
04D64:  BSF    FF2.7
....................          displayMenu(Menus.Letra,20,0,1,3); 
04D66:  MOVLW  04
04D68:  MOVWF  xE9
04D6A:  MOVLW  17
04D6C:  MOVWF  xE8
04D6E:  MOVLW  14
04D70:  MOVWF  xEA
04D72:  CLRF   xEB
04D74:  MOVLW  01
04D76:  MOVWF  xEC
04D78:  MOVLW  03
04D7A:  MOVWF  xED
04D7C:  MOVLB  0
04D7E:  RCALL  4C1C
....................          n=1; 
04D80:  MOVLB  4
04D82:  BSF    x2F.3
....................       } 
....................        
....................       if(UP){ 
04D84:  BSF    F92.5
04D86:  BTFSC  F80.5
04D88:  BRA    4E64
....................          flag_latencia=0;t_latencia=0; 
04D8A:  BCF    x2E.7
04D8C:  CLRF   xDD
04D8E:  CLRF   xDC
....................          if(Flanco == 0){ 
04D90:  BTFSC  x2D.0
04D92:  BRA    4E62
....................             Flanco = 1;delay_ms(5); 
04D94:  BSF    x2D.0
04D96:  MOVLW  05
04D98:  MOVLB  5
04D9A:  MOVWF  xF4
04D9C:  MOVLB  0
04D9E:  CALL   1514
....................             for(i=1;i<=4;i++){ 
04DA2:  MOVLW  01
04DA4:  MOVLB  5
04DA6:  MOVWF  xCE
04DA8:  MOVF   xCE,W
04DAA:  SUBLW  04
04DAC:  BNC   4E60
....................                if(unidad==i){ 
04DAE:  MOVF   xCE,W
04DB0:  MOVLB  4
04DB2:  SUBWF  xC9,W
04DB4:  BNZ   4E2A
....................                   Contrasena[i-1]++; 
04DB6:  MOVLW  01
04DB8:  MOVLB  5
04DBA:  SUBWF  xCE,W
04DBC:  CLRF   03
04DBE:  ADDLW  0A
04DC0:  MOVWF  FE9
04DC2:  MOVLW  05
04DC4:  ADDWFC 03,W
04DC6:  MOVWF  FEA
04DC8:  INCF   FEF,F
....................                   if(Contrasena[i-1]>9){ 
04DCA:  MOVLW  01
04DCC:  SUBWF  xCE,W
04DCE:  CLRF   03
04DD0:  ADDLW  0A
04DD2:  MOVWF  FE9
04DD4:  MOVLW  05
04DD6:  ADDWFC 03,W
04DD8:  MOVWF  FEA
04DDA:  BTFSC  FEF.7
04DDC:  BRA    4DF6
04DDE:  MOVF   FEF,W
04DE0:  SUBLW  09
04DE2:  BC    4DF6
....................                      Contrasena[i-1]=0; 
04DE4:  MOVLW  01
04DE6:  SUBWF  xCE,W
04DE8:  CLRF   03
04DEA:  ADDLW  0A
04DEC:  MOVWF  FE9
04DEE:  MOVLW  05
04DF0:  ADDWFC 03,W
04DF2:  MOVWF  FEA
04DF4:  CLRF   FEF
....................                   } 
....................                   displayContrasena(Contrasena[i-1],i*20,30,1); 
04DF6:  MOVLW  01
04DF8:  SUBWF  xCE,W
04DFA:  CLRF   03
04DFC:  ADDLW  0A
04DFE:  MOVWF  FE9
04E00:  MOVLW  05
04E02:  ADDWFC 03,W
04E04:  MOVWF  FEA
04E06:  MOVFF  FEF,5E8
04E0A:  MOVF   xCE,W
04E0C:  MULLW  14
04E0E:  MOVFF  FF3,5E9
04E12:  MOVFF  5E8,5EA
04E16:  MOVFF  5E9,5EB
04E1A:  MOVLW  1E
04E1C:  MOVWF  xEC
04E1E:  MOVLW  01
04E20:  MOVWF  xED
04E22:  MOVLB  0
04E24:  RCALL  4B64
....................                }else{ 
04E26:  BRA    4E5A
04E28:  MOVLB  4
....................                   displayContrasena(Contrasena[i-1],i*20,30,0); 
04E2A:  MOVLW  01
04E2C:  MOVLB  5
04E2E:  SUBWF  xCE,W
04E30:  CLRF   03
04E32:  ADDLW  0A
04E34:  MOVWF  FE9
04E36:  MOVLW  05
04E38:  ADDWFC 03,W
04E3A:  MOVWF  FEA
04E3C:  MOVFF  FEF,5E8
04E40:  MOVF   xCE,W
04E42:  MULLW  14
04E44:  MOVFF  FF3,5E9
04E48:  MOVFF  5E8,5EA
04E4C:  MOVFF  5E9,5EB
04E50:  MOVLW  1E
04E52:  MOVWF  xEC
04E54:  CLRF   xED
04E56:  MOVLB  0
04E58:  RCALL  4B64
....................                } 
....................             } 
04E5A:  MOVLB  5
04E5C:  INCF   xCE,F
04E5E:  BRA    4DA8
04E60:  MOVLB  4
....................          } 
....................       }else{ 
04E62:  BRA    4E66
....................          Flanco = 0; 
04E64:  BCF    x2D.0
....................       } 
....................              
....................       if(DOWN){ 
04E66:  BSF    F96.0
04E68:  BTFSC  F84.0
04E6A:  BRA    4F44
....................          flag_latencia=0;t_latencia=0; 
04E6C:  BCF    x2E.7
04E6E:  CLRF   xDD
04E70:  CLRF   xDC
....................          if(Flanco2 == 0){ 
04E72:  BTFSC  x2D.2
04E74:  BRA    4F42
....................             Flanco2 = 1;delay_ms(5); 
04E76:  BSF    x2D.2
04E78:  MOVLW  05
04E7A:  MOVLB  5
04E7C:  MOVWF  xF4
04E7E:  MOVLB  0
04E80:  CALL   1514
....................             for(i=1;i<=4;i++){ 
04E84:  MOVLW  01
04E86:  MOVLB  5
04E88:  MOVWF  xCE
04E8A:  MOVF   xCE,W
04E8C:  SUBLW  04
04E8E:  BNC   4F40
....................                if(unidad==i){ 
04E90:  MOVF   xCE,W
04E92:  MOVLB  4
04E94:  SUBWF  xC9,W
04E96:  BNZ   4F0A
....................                   Contrasena[i-1]--; 
04E98:  MOVLW  01
04E9A:  MOVLB  5
04E9C:  SUBWF  xCE,W
04E9E:  CLRF   03
04EA0:  ADDLW  0A
04EA2:  MOVWF  FE9
04EA4:  MOVLW  05
04EA6:  ADDWFC 03,W
04EA8:  MOVWF  FEA
04EAA:  DECF   FEF,F
....................                   if(Contrasena[i-1]<0){ 
04EAC:  MOVLW  01
04EAE:  SUBWF  xCE,W
04EB0:  CLRF   03
04EB2:  ADDLW  0A
04EB4:  MOVWF  FE9
04EB6:  MOVLW  05
04EB8:  ADDWFC 03,W
04EBA:  MOVWF  FEA
04EBC:  BTFSC  FEF.7
04EBE:  BRA    4EC2
04EC0:  BRA    4ED6
....................                      Contrasena[i-1]=9; 
04EC2:  MOVLW  01
04EC4:  SUBWF  xCE,W
04EC6:  CLRF   03
04EC8:  ADDLW  0A
04ECA:  MOVWF  FE9
04ECC:  MOVLW  05
04ECE:  ADDWFC 03,W
04ED0:  MOVWF  FEA
04ED2:  MOVLW  09
04ED4:  MOVWF  FEF
....................                   } 
....................                   displayContrasena(Contrasena[i-1],i*20,30,1); 
04ED6:  MOVLW  01
04ED8:  SUBWF  xCE,W
04EDA:  CLRF   03
04EDC:  ADDLW  0A
04EDE:  MOVWF  FE9
04EE0:  MOVLW  05
04EE2:  ADDWFC 03,W
04EE4:  MOVWF  FEA
04EE6:  MOVFF  FEF,5E8
04EEA:  MOVF   xCE,W
04EEC:  MULLW  14
04EEE:  MOVFF  FF3,5E9
04EF2:  MOVFF  5E8,5EA
04EF6:  MOVFF  5E9,5EB
04EFA:  MOVLW  1E
04EFC:  MOVWF  xEC
04EFE:  MOVLW  01
04F00:  MOVWF  xED
04F02:  MOVLB  0
04F04:  RCALL  4B64
....................                }else{ 
04F06:  BRA    4F3A
04F08:  MOVLB  4
....................                   displayContrasena(Contrasena[i-1],i*20,30,0); 
04F0A:  MOVLW  01
04F0C:  MOVLB  5
04F0E:  SUBWF  xCE,W
04F10:  CLRF   03
04F12:  ADDLW  0A
04F14:  MOVWF  FE9
04F16:  MOVLW  05
04F18:  ADDWFC 03,W
04F1A:  MOVWF  FEA
04F1C:  MOVFF  FEF,5E8
04F20:  MOVF   xCE,W
04F22:  MULLW  14
04F24:  MOVFF  FF3,5E9
04F28:  MOVFF  5E8,5EA
04F2C:  MOVFF  5E9,5EB
04F30:  MOVLW  1E
04F32:  MOVWF  xEC
04F34:  CLRF   xED
04F36:  MOVLB  0
04F38:  RCALL  4B64
....................                } 
....................             }       
04F3A:  MOVLB  5
04F3C:  INCF   xCE,F
04F3E:  BRA    4E8A
04F40:  MOVLB  4
....................          }      
....................       }else{ 
04F42:  BRA    4F46
....................          Flanco2 = 0; 
04F44:  BCF    x2D.2
....................       } 
....................              
....................       if(RIGHT){ 
04F46:  BSF    F96.1
04F48:  BTFSC  F84.1
04F4A:  BRA    4FEC
....................          flag_latencia=0;t_latencia=0; 
04F4C:  BCF    x2E.7
04F4E:  CLRF   xDD
04F50:  CLRF   xDC
....................          if(Flanco1 == 0){ 
04F52:  BTFSC  x2D.1
04F54:  BRA    4FEA
....................             Flanco1 = 1;delay_ms(5);unidad++; 
04F56:  BSF    x2D.1
04F58:  MOVLW  05
04F5A:  MOVLB  5
04F5C:  MOVWF  xF4
04F5E:  MOVLB  0
04F60:  CALL   1514
04F64:  MOVLB  4
04F66:  INCF   xC9,F
....................             for(i=1;i<=4;i++){ 
04F68:  MOVLW  01
04F6A:  MOVLB  5
04F6C:  MOVWF  xCE
04F6E:  MOVF   xCE,W
04F70:  SUBLW  04
04F72:  BNC   4FE8
....................                if(unidad==i){ 
04F74:  MOVF   xCE,W
04F76:  MOVLB  4
04F78:  SUBWF  xC9,W
04F7A:  BNZ   4FB2
....................                   displayContrasena(Contrasena[i-1],i*20,30,1); 
04F7C:  MOVLW  01
04F7E:  MOVLB  5
04F80:  SUBWF  xCE,W
04F82:  CLRF   03
04F84:  ADDLW  0A
04F86:  MOVWF  FE9
04F88:  MOVLW  05
04F8A:  ADDWFC 03,W
04F8C:  MOVWF  FEA
04F8E:  MOVFF  FEF,5E8
04F92:  MOVF   xCE,W
04F94:  MULLW  14
04F96:  MOVFF  FF3,5E9
04F9A:  MOVFF  5E8,5EA
04F9E:  MOVFF  5E9,5EB
04FA2:  MOVLW  1E
04FA4:  MOVWF  xEC
04FA6:  MOVLW  01
04FA8:  MOVWF  xED
04FAA:  MOVLB  0
04FAC:  RCALL  4B64
....................                }else{ 
04FAE:  BRA    4FE2
04FB0:  MOVLB  4
....................                   displayContrasena(Contrasena[i-1],i*20,30,0); 
04FB2:  MOVLW  01
04FB4:  MOVLB  5
04FB6:  SUBWF  xCE,W
04FB8:  CLRF   03
04FBA:  ADDLW  0A
04FBC:  MOVWF  FE9
04FBE:  MOVLW  05
04FC0:  ADDWFC 03,W
04FC2:  MOVWF  FEA
04FC4:  MOVFF  FEF,5E8
04FC8:  MOVF   xCE,W
04FCA:  MULLW  14
04FCC:  MOVFF  FF3,5E9
04FD0:  MOVFF  5E8,5EA
04FD4:  MOVFF  5E9,5EB
04FD8:  MOVLW  1E
04FDA:  MOVWF  xEC
04FDC:  CLRF   xED
04FDE:  MOVLB  0
04FE0:  RCALL  4B64
....................                } 
....................             } 
04FE2:  MOVLB  5
04FE4:  INCF   xCE,F
04FE6:  BRA    4F6E
04FE8:  MOVLB  4
....................          } 
....................       }else{ 
04FEA:  BRA    4FEE
....................          Flanco1 = 0; 
04FEC:  BCF    x2D.1
....................       } 
....................        
....................       if(LEFT){ 
04FEE:  BSF    F96.2
04FF0:  BTFSC  F84.2
04FF2:  BRA    503C
....................          delay_ms(100); 
04FF4:  MOVLW  64
04FF6:  MOVLB  5
04FF8:  MOVWF  xF4
04FFA:  MOVLB  0
04FFC:  CALL   1514
....................          if(LEFT){ 
05000:  BSF    F96.2
05002:  BTFSC  F84.2
05004:  BRA    503A
....................             Menu=MenuAnt;glcd_fillScreen(OFF);n=0;Opcion=1;unidad=1; 
05006:  MOVFF  5E1,4C8
0500A:  MOVLB  5
0500C:  CLRF   xE8
0500E:  MOVLB  0
05010:  CALL   1608
05014:  MOVLB  4
05016:  BCF    x2F.3
05018:  MOVLW  01
0501A:  MOVWF  xCA
0501C:  MOVWF  xC9
....................             Contrasena[0]=0;Contrasena[1]=0;Contrasena[2]=0;Contrasena[3]=0; 
0501E:  MOVLB  5
05020:  CLRF   x0A
05022:  CLRF   x0B
05024:  CLRF   x0C
05026:  CLRF   x0D
....................             glcd_fillScreen(OFF);glcd_update(); 
05028:  CLRF   xE8
0502A:  MOVLB  0
0502C:  CALL   1608
05030:  CALL   1662
....................             return 1; 
05034:  MOVLW  01
05036:  MOVWF  01
05038:  BRA    53C4
0503A:  MOVLB  4
....................          } 
....................       } 
....................      
....................       if(unidad>4){ 
0503C:  MOVF   xC9,W
0503E:  SUBLW  04
05040:  BTFSC  FD8.0
05042:  BRA    53C6
....................          glcd_fillScreen(OFF);unidad=1;flag_latencia=0;t_latencia=0; 
05044:  MOVLB  5
05046:  CLRF   xE8
05048:  MOVLB  0
0504A:  CALL   1608
0504E:  MOVLW  01
05050:  MOVLB  4
05052:  MOVWF  xC9
05054:  BCF    x2E.7
05056:  CLRF   xDD
05058:  CLRF   xDC
....................           
....................          if(Contrasena[0]==3&&Contrasena[1]==8&&Contrasena[2]==9&&Contrasena[3]==2 && MenuActual==0){ // Si Ingresa clave para reset general del sistema. 
0505A:  MOVLB  5
0505C:  MOVF   x0A,W
0505E:  SUBLW  03
05060:  BTFSS  FD8.2
05062:  BRA    5156
05064:  MOVF   x0B,W
05066:  SUBLW  08
05068:  BTFSS  FD8.2
0506A:  BRA    5156
0506C:  MOVF   x0C,W
0506E:  SUBLW  09
05070:  BNZ   5156
05072:  MOVF   x0D,W
05074:  SUBLW  02
05076:  BNZ   5156
05078:  MOVF   xE2,F
0507A:  BNZ   5156
....................             write_eeprom(0,0);delay_ms(20);write_eeprom(1,0);delay_ms(20);// Reestablece a contrasea de Fabrica y reinicia Programa. 
0507C:  CLRF   FAA
0507E:  CLRF   FA9
05080:  CLRF   FA8
05082:  BCF    FA6.6
05084:  BCF    FA6.7
05086:  BSF    FA6.2
05088:  MOVF   FF2,W
0508A:  MOVWF  00
0508C:  BCF    FF2.7
0508E:  MOVLB  F
05090:  MOVLW  55
05092:  MOVWF  FA7
05094:  MOVLW  AA
05096:  MOVWF  FA7
05098:  BSF    FA6.1
0509A:  BTFSC  FA6.1
0509C:  BRA    509A
0509E:  BCF    FA6.2
050A0:  MOVF   00,W
050A2:  IORWF  FF2,F
050A4:  MOVLW  14
050A6:  MOVLB  5
050A8:  MOVWF  xF4
050AA:  MOVLB  0
050AC:  CALL   1514
050B0:  CLRF   FAA
050B2:  MOVLW  01
050B4:  MOVWF  FA9
050B6:  CLRF   FA8
050B8:  BCF    FA6.6
050BA:  BCF    FA6.7
050BC:  BSF    FA6.2
050BE:  MOVF   FF2,W
050C0:  MOVWF  00
050C2:  BCF    FF2.7
050C4:  MOVLB  F
050C6:  MOVLW  55
050C8:  MOVWF  FA7
050CA:  MOVLW  AA
050CC:  MOVWF  FA7
050CE:  BSF    FA6.1
050D0:  BTFSC  FA6.1
050D2:  BRA    50D0
050D4:  BCF    FA6.2
050D6:  MOVF   00,W
050D8:  IORWF  FF2,F
050DA:  MOVLW  14
050DC:  MOVLB  5
050DE:  MOVWF  xF4
050E0:  MOVLB  0
050E2:  CALL   1514
....................             write_eeprom(2,0);delay_ms(20);write_eeprom(3,0);delay_ms(20); 
050E6:  CLRF   FAA
050E8:  MOVLW  02
050EA:  MOVWF  FA9
050EC:  CLRF   FA8
050EE:  BCF    FA6.6
050F0:  BCF    FA6.7
050F2:  BSF    FA6.2
050F4:  MOVF   FF2,W
050F6:  MOVWF  00
050F8:  BCF    FF2.7
050FA:  MOVLB  F
050FC:  MOVLW  55
050FE:  MOVWF  FA7
05100:  MOVLW  AA
05102:  MOVWF  FA7
05104:  BSF    FA6.1
05106:  BTFSC  FA6.1
05108:  BRA    5106
0510A:  BCF    FA6.2
0510C:  MOVF   00,W
0510E:  IORWF  FF2,F
05110:  MOVLW  14
05112:  MOVLB  5
05114:  MOVWF  xF4
05116:  MOVLB  0
05118:  CALL   1514
0511C:  CLRF   FAA
0511E:  MOVLW  03
05120:  MOVWF  FA9
05122:  CLRF   FA8
05124:  BCF    FA6.6
05126:  BCF    FA6.7
05128:  BSF    FA6.2
0512A:  MOVF   FF2,W
0512C:  MOVWF  00
0512E:  BCF    FF2.7
05130:  MOVLB  F
05132:  MOVLW  55
05134:  MOVWF  FA7
05136:  MOVLW  AA
05138:  MOVWF  FA7
0513A:  BSF    FA6.1
0513C:  BTFSC  FA6.1
0513E:  BRA    513C
05140:  BCF    FA6.2
05142:  MOVF   00,W
05144:  IORWF  FF2,F
05146:  MOVLW  14
05148:  MOVLB  5
0514A:  MOVWF  xF4
0514C:  MOVLB  0
0514E:  CALL   1514
....................             reset_cpu(); 
05152:  RESET
05154:  MOVLB  5
....................          } 
....................        
....................          if((Contrasena[0]==clave0)&&(Contrasena[1]==clave1)&&(Contrasena[2]==clave2)&&(Contrasena[3]==clave3)){ 
05156:  MOVF   xE4,W
05158:  SUBWF  x0A,W
0515A:  BTFSS  FD8.2
0515C:  BRA    523E
0515E:  MOVF   xE5,W
05160:  SUBWF  x0B,W
05162:  BNZ   523E
05164:  MOVF   xE6,W
05166:  SUBWF  x0C,W
05168:  BNZ   523E
0516A:  MOVF   xE7,W
0516C:  SUBWF  x0D,W
0516E:  BNZ   523E
....................             glcd_fillScreen(OFF); 
05170:  CLRF   xE8
05172:  MOVLB  0
05174:  CALL   1608
....................             strcpy(Menus.Letra,"Clave"); 
05178:  MOVLW  04
0517A:  MOVWF  FEA
0517C:  MOVLW  17
0517E:  MOVWF  FE9
05180:  MOVFF  FF2,5E8
05184:  BCF    FF2.7
05186:  MOVLW  00
05188:  CALL   0F0A
0518C:  TBLRD*-
0518E:  TBLRD*+
05190:  MOVF   FF5,W
05192:  MOVWF  FEE
05194:  IORLW  00
05196:  BNZ   518E
05198:  MOVLB  5
0519A:  BTFSC  xE8.7
0519C:  BSF    FF2.7
....................             displayMenu(Menus.Letra,30,0,0,2); 
0519E:  MOVLW  04
051A0:  MOVWF  xE9
051A2:  MOVLW  17
051A4:  MOVWF  xE8
051A6:  MOVLW  1E
051A8:  MOVWF  xEA
051AA:  CLRF   xEB
051AC:  CLRF   xEC
051AE:  MOVLW  02
051B0:  MOVWF  xED
051B2:  MOVLB  0
051B4:  RCALL  4C1C
....................             strcpy(Menus.Letra,"Correcta"); 
051B6:  MOVLW  04
051B8:  MOVWF  FEA
051BA:  MOVLW  17
051BC:  MOVWF  FE9
051BE:  MOVFF  FF2,5E8
051C2:  BCF    FF2.7
051C4:  MOVLW  00
051C6:  CALL   0F2E
051CA:  TBLRD*-
051CC:  TBLRD*+
051CE:  MOVF   FF5,W
051D0:  MOVWF  FEE
051D2:  IORLW  00
051D4:  BNZ   51CC
051D6:  MOVLB  5
051D8:  BTFSC  xE8.7
051DA:  BSF    FF2.7
....................             displayMenu(Menus.Letra,15,30,0,2); 
051DC:  MOVLW  04
051DE:  MOVWF  xE9
051E0:  MOVLW  17
051E2:  MOVWF  xE8
051E4:  MOVLW  0F
051E6:  MOVWF  xEA
051E8:  MOVLW  1E
051EA:  MOVWF  xEB
051EC:  CLRF   xEC
051EE:  MOVLW  02
051F0:  MOVWF  xED
051F2:  MOVLB  0
051F4:  RCALL  4C1C
....................             Menu=MenuPost;glcd_update();delay_ms(1000);glcd_fillScreen(OFF); 
051F6:  MOVFF  5E3,4C8
051FA:  CALL   1662
051FE:  MOVLW  04
05200:  MOVLB  5
05202:  MOVWF  xE8
05204:  MOVLW  FA
05206:  MOVWF  xF4
05208:  MOVLB  0
0520A:  CALL   1514
0520E:  MOVLB  5
05210:  DECFSZ xE8,F
05212:  BRA    5204
05214:  CLRF   xE8
05216:  MOVLB  0
05218:  CALL   1608
....................             Contrasena[0]=0;Contrasena[1]=0;Contrasena[2]=0;Contrasena[3]=0; 
0521C:  MOVLB  5
0521E:  CLRF   x0A
05220:  CLRF   x0B
05222:  CLRF   x0C
05224:  CLRF   x0D
....................             if(MenuActual==0)tiempo_purga=1;n=0; 
05226:  MOVF   xE2,F
05228:  BNZ   522E
0522A:  MOVLB  4
0522C:  BSF    x2E.5
0522E:  MOVLB  4
05230:  BCF    x2F.3
....................             return 1; 
05232:  MOVLW  01
05234:  MOVWF  01
05236:  MOVLB  0
05238:  BRA    53C4
....................          }else{ 
0523A:  BRA    53C4
0523C:  MOVLB  5
....................             glcd_fillScreen(OFF); 
0523E:  CLRF   xE8
05240:  MOVLB  0
05242:  CALL   1608
....................             strcpy(Menus.Letra,"Clave"); 
05246:  MOVLW  04
05248:  MOVWF  FEA
0524A:  MOVLW  17
0524C:  MOVWF  FE9
0524E:  MOVFF  FF2,5E8
05252:  BCF    FF2.7
05254:  MOVLW  00
05256:  CALL   0F0A
0525A:  TBLRD*-
0525C:  TBLRD*+
0525E:  MOVF   FF5,W
05260:  MOVWF  FEE
05262:  IORLW  00
05264:  BNZ   525C
05266:  MOVLB  5
05268:  BTFSC  xE8.7
0526A:  BSF    FF2.7
....................             displayMenu(Menus.Letra,30,0,0,2); 
0526C:  MOVLW  04
0526E:  MOVWF  xE9
05270:  MOVLW  17
05272:  MOVWF  xE8
05274:  MOVLW  1E
05276:  MOVWF  xEA
05278:  CLRF   xEB
0527A:  CLRF   xEC
0527C:  MOVLW  02
0527E:  MOVWF  xED
05280:  MOVLB  0
05282:  RCALL  4C1C
....................             strcpy(Menus.Letra,"Incorrecta"); 
05284:  MOVLW  04
05286:  MOVWF  FEA
05288:  MOVLW  17
0528A:  MOVWF  FE9
0528C:  MOVFF  FF2,5E8
05290:  BCF    FF2.7
05292:  MOVLW  00
05294:  CALL   0F56
05298:  TBLRD*-
0529A:  TBLRD*+
0529C:  MOVF   FF5,W
0529E:  MOVWF  FEE
052A0:  IORLW  00
052A2:  BNZ   529A
052A4:  MOVLB  5
052A6:  BTFSC  xE8.7
052A8:  BSF    FF2.7
....................             displayMenu(Menus.Letra,0,30,0,2); 
052AA:  MOVLW  04
052AC:  MOVWF  xE9
052AE:  MOVLW  17
052B0:  MOVWF  xE8
052B2:  CLRF   xEA
052B4:  MOVLW  1E
052B6:  MOVWF  xEB
052B8:  CLRF   xEC
052BA:  MOVLW  02
052BC:  MOVWF  xED
052BE:  MOVLB  0
052C0:  RCALL  4C1C
....................             unidad=1;glcd_update();delay_ms(1000);Contrasena[0]=0;Contrasena[1]=0;Contrasena[2]=0;Contrasena[3]=0;glcd_fillScreen(OFF); 
052C2:  MOVLW  01
052C4:  MOVLB  4
052C6:  MOVWF  xC9
052C8:  MOVLB  0
052CA:  CALL   1662
052CE:  MOVLW  04
052D0:  MOVLB  5
052D2:  MOVWF  xE8
052D4:  MOVLW  FA
052D6:  MOVWF  xF4
052D8:  MOVLB  0
052DA:  CALL   1514
052DE:  MOVLB  5
052E0:  DECFSZ xE8,F
052E2:  BRA    52D4
052E4:  CLRF   x0A
052E6:  CLRF   x0B
052E8:  CLRF   x0C
052EA:  CLRF   x0D
052EC:  CLRF   xE8
052EE:  MOVLB  0
052F0:  CALL   1608
....................             glcd_rect(0, 0, 127, 25, YES, ON);strcpy(Menus.Letra,"Clave");glcd_text57(25, 1, Menus.Letra, 3, OFF);displayContrasena(Contrasena[0],20,30,1); 
052F4:  MOVLB  5
052F6:  CLRF   xF9
052F8:  CLRF   xFA
052FA:  MOVLW  7F
052FC:  MOVWF  xFB
052FE:  MOVLW  19
05300:  MOVWF  xFC
05302:  MOVLW  01
05304:  MOVWF  xFD
05306:  MOVWF  xFE
05308:  MOVLB  0
0530A:  CALL   48BE
0530E:  MOVLW  04
05310:  MOVWF  FEA
05312:  MOVLW  17
05314:  MOVWF  FE9
05316:  MOVFF  FF2,5E8
0531A:  BCF    FF2.7
0531C:  MOVLW  00
0531E:  CALL   0F0A
05322:  TBLRD*-
05324:  TBLRD*+
05326:  MOVF   FF5,W
05328:  MOVWF  FEE
0532A:  IORLW  00
0532C:  BNZ   5324
0532E:  MOVLB  5
05330:  BTFSC  xE8.7
05332:  BSF    FF2.7
05334:  MOVLW  19
05336:  MOVWF  xF9
05338:  MOVLW  01
0533A:  MOVWF  xFA
0533C:  MOVLW  04
0533E:  MOVWF  xFC
05340:  MOVLW  17
05342:  MOVWF  xFB
05344:  MOVLW  03
05346:  MOVWF  xFD
05348:  CLRF   xFE
0534A:  MOVLB  0
0534C:  CALL   498A
05350:  MOVFF  50A,5EA
05354:  MOVLW  14
05356:  MOVLB  5
05358:  MOVWF  xEB
0535A:  MOVLW  1E
0535C:  MOVWF  xEC
0535E:  MOVLW  01
05360:  MOVWF  xED
05362:  MOVLB  0
05364:  CALL   4B64
....................             displayContrasena(Contrasena[1],40,30,0);displayContrasena(Contrasena[2],60,30,0);displayContrasena(Contrasena[0],80,30,0); 
05368:  MOVFF  50B,5EA
0536C:  MOVLW  28
0536E:  MOVLB  5
05370:  MOVWF  xEB
05372:  MOVLW  1E
05374:  MOVWF  xEC
05376:  CLRF   xED
05378:  MOVLB  0
0537A:  CALL   4B64
0537E:  MOVFF  50C,5EA
05382:  MOVLW  3C
05384:  MOVLB  5
05386:  MOVWF  xEB
05388:  MOVLW  1E
0538A:  MOVWF  xEC
0538C:  CLRF   xED
0538E:  MOVLB  0
05390:  CALL   4B64
05394:  MOVFF  50A,5EA
05398:  MOVLW  50
0539A:  MOVLB  5
0539C:  MOVWF  xEB
0539E:  MOVLW  1E
053A0:  MOVWF  xEC
053A2:  CLRF   xED
053A4:  MOVLB  0
053A6:  CALL   4B64
....................             Menu=MenuAnt;glcd_fillScreen(OFF);n=0; 
053AA:  MOVFF  5E1,4C8
053AE:  MOVLB  5
053B0:  CLRF   xE8
053B2:  MOVLB  0
053B4:  CALL   1608
053B8:  MOVLB  4
053BA:  BCF    x2F.3
....................             return 0; 
053BC:  MOVLW  00
053BE:  MOVWF  01
053C0:  MOVLB  0
053C2:  BRA    53C4
053C4:  MOVLB  4
....................          } 
....................       } 
.................... } 
053C6:  MOVLB  0
053C8:  RETLW  00
....................  
....................  
.................... #int_TIMER1 
.................... void temp1s(void){ 
....................    set_timer1(40536); 
*
0140C:  MOVLW  9E
0140E:  MOVWF  FCF
01410:  MOVLW  58
01412:  MOVWF  FCE
....................    tiempos++; 
01414:  MOVLB  5
01416:  INCF   xD4,F
01418:  BTFSC  FD8.2
0141A:  INCF   xD5,F
....................     if(UP) 
0141C:  BSF    F92.5
0141E:  BTFSC  F80.5
01420:  BRA    142C
....................          tup++; 
01422:  MOVLB  4
01424:  INCF   xE4,F
01426:  BTFSC  FD8.2
01428:  INCF   xE5,F
....................       else 
0142A:  BRA    1432
....................          tup=0; 
0142C:  MOVLB  4
0142E:  CLRF   xE5
01430:  CLRF   xE4
....................           
....................       if(DOWN) 
01432:  BSF    F96.0
01434:  BTFSC  F84.0
01436:  BRA    1440
....................          tdown++; 
01438:  INCF   xE6,F
0143A:  BTFSC  FD8.2
0143C:  INCF   xE7,F
....................       else 
0143E:  BRA    1444
....................          tdown=0; 
01440:  CLRF   xE7
01442:  CLRF   xE6
....................           
....................       if(RIGHT) 
01444:  BSF    F96.1
01446:  BTFSC  F84.1
01448:  BRA    1452
....................          tright++; 
0144A:  INCF   xE8,F
0144C:  BTFSC  FD8.2
0144E:  INCF   xE9,F
....................       else 
01450:  BRA    1456
....................          tright=0; 
01452:  CLRF   xE9
01454:  CLRF   xE8
....................        
....................       if(LEFT) 
01456:  BSF    F96.2
01458:  BTFSC  F84.2
0145A:  BRA    1464
....................          tleft++; 
0145C:  INCF   xEA,F
0145E:  BTFSC  FD8.2
01460:  INCF   xEB,F
....................       else 
01462:  BRA    1468
....................          tleft=0; 
01464:  CLRF   xEB
01466:  CLRF   xEA
....................           
....................    //pulsos++; 
....................    if(tiempos>=200){ 
01468:  MOVLB  5
0146A:  MOVF   xD5,F
0146C:  BNZ   1474
0146E:  MOVF   xD4,W
01470:  SUBLW  C7
01472:  BC    150C
....................       pulsos=0; 
01474:  CLRF   xCB
01476:  CLRF   xCA
....................       tiempos=0; 
01478:  CLRF   xD5
0147A:  CLRF   xD4
....................       imprimir=1;Lectura=1;tiemporeset++; 
0147C:  MOVLB  4
0147E:  BSF    x2D.6
01480:  BSF    x2F.2
01482:  INCF   xCE,F
....................     
....................       if(flag_blower==1) 
01484:  BTFSS  x2D.7
01486:  BRA    148E
....................          minutos_trabajo++;  
01488:  INCF   xE0,F
0148A:  BTFSC  FD8.2
0148C:  INCF   xE1,F
....................    
....................       if(tiempo_purga==1 || Purga){                   
0148E:  BTFSC  x2E.5
01490:  BRA    1496
01492:  BTFSS  x2F.5
01494:  BRA    14CE
....................          Tpurga[0]++; 
01496:  INCF   xEE,F
....................          if(Tpurga[0]>9){ 
01498:  BTFSC  xEE.7
0149A:  BRA    14A6
0149C:  MOVF   xEE,W
0149E:  SUBLW  09
014A0:  BC    14A6
....................             Tpurga[0]=0; 
014A2:  CLRF   xEE
....................             Tpurga[1]++; 
014A4:  INCF   xEF,F
....................          } 
....................          if(Tpurga[1]>5){ 
014A6:  BTFSC  xEF.7
014A8:  BRA    14B4
014AA:  MOVF   xEF,W
014AC:  SUBLW  05
014AE:  BC    14B4
....................             Tpurga[1]=0; 
014B0:  CLRF   xEF
....................             Tpurga[2]++; 
014B2:  INCF   xF0,F
....................          } 
....................          if(Tpurga[2]>9){ 
014B4:  BTFSC  xF0.7
014B6:  BRA    14C2
014B8:  MOVF   xF0,W
014BA:  SUBLW  09
014BC:  BC    14C2
....................             Tpurga[2]=0; 
014BE:  CLRF   xF0
....................             Tpurga[3]++; 
014C0:  INCF   xF1,F
....................          } 
....................          if(Tpurga[3]>5){ 
014C2:  BTFSC  xF1.7
014C4:  BRA    14CE
014C6:  MOVF   xF1,W
014C8:  SUBLW  05
014CA:  BC    14CE
....................             Tpurga[3]=0; 
014CC:  CLRF   xF1
....................          } 
....................       } 
....................        
....................       if(tiempo_postpurga){ 
014CE:  BTFSS  x2F.0
014D0:  BRA    150A
....................          Tppurga[0]++; 
014D2:  INCF   xF6,F
....................          if(Tppurga[0]>9){ 
014D4:  BTFSC  xF6.7
014D6:  BRA    14E2
014D8:  MOVF   xF6,W
014DA:  SUBLW  09
014DC:  BC    14E2
....................             Tppurga[0]=0; 
014DE:  CLRF   xF6
....................             Tppurga[1]++; 
014E0:  INCF   xF7,F
....................          } 
....................          if(Tppurga[1]>5){   
014E2:  BTFSC  xF7.7
014E4:  BRA    14F0
014E6:  MOVF   xF7,W
014E8:  SUBLW  05
014EA:  BC    14F0
....................             Tppurga[1]=0; 
014EC:  CLRF   xF7
....................             Tppurga[2]++; 
014EE:  INCF   xF8,F
....................          } 
....................          if(Tppurga[2]>9){ 
014F0:  BTFSC  xF8.7
014F2:  BRA    14FE
014F4:  MOVF   xF8,W
014F6:  SUBLW  09
014F8:  BC    14FE
....................             Tppurga[2]=0; 
014FA:  CLRF   xF8
....................             Tppurga[3]++; 
014FC:  INCF   xF9,F
....................          } 
....................          if(Tppurga[3]>5){ 
014FE:  BTFSC  xF9.7
01500:  BRA    150A
01502:  MOVF   xF9,W
01504:  SUBLW  05
01506:  BC    150A
....................             Tppurga[3]=0; 
01508:  CLRF   xF9
0150A:  MOVLB  5
....................          } 
....................       } 
....................    } 
.................... } 
....................  
0150C:  BCF    F9E.0
0150E:  MOVLB  0
01510:  GOTO   0058
.................... void glcd_imagen(int8 x) 
.................... { 
....................    char i,j; 
....................    signed char k;  
....................       
....................    if(x==3){ 
*
054C6:  MOVLB  5
054C8:  MOVF   xE0,W
054CA:  SUBLW  03
054CC:  BNZ   5574
....................    for( i = 0 ; i < 64 ; i ++ ) 
054CE:  CLRF   xE1
054D0:  MOVF   xE1,W
054D2:  SUBLW  3F
054D4:  BNC   5574
....................    {  for( j = 0 ; j < 16 ; j ++) 
054D6:  CLRF   xE2
054D8:  MOVF   xE2,W
054DA:  SUBLW  0F
054DC:  BNC   5570
....................       {  for(k=7;k>-1;k--) 
054DE:  MOVLW  07
054E0:  MOVWF  xE3
054E2:  MOVF   xE3,W
054E4:  XORLW  80
054E6:  SUBLW  7F
054E8:  BC    556C
....................          {       
....................             if( bit_test(Bombillo[i][j] ,7-k ))  
054EA:  CLRF   xE5
054EC:  MOVFF  5E1,5E4
054F0:  CLRF   xE7
054F2:  MOVLW  10
054F4:  MOVWF  xE6
054F6:  MOVLB  0
054F8:  RCALL  54A4
054FA:  MOVFF  02,5E5
054FE:  MOVFF  01,5E4
05502:  MOVLB  5
05504:  MOVF   xE2,W
05506:  ADDWF  01,W
05508:  MOVWF  01
0550A:  MOVLW  00
0550C:  ADDWFC 02,W
0550E:  MOVWF  03
05510:  MOVF   01,W
05512:  MOVFF  FF2,5E4
05516:  BCF    FF2.7
05518:  MOVFF  03,FF7
0551C:  MOVLB  0
0551E:  CALL   02B6
05522:  MOVLB  5
05524:  BTFSC  xE4.7
05526:  BSF    FF2.7
05528:  MOVWF  xE4
0552A:  MOVLW  07
0552C:  BSF    FD8.0
0552E:  SUBFWB xE3,W
05530:  MOVWF  xE5
05532:  MOVFF  5E4,00
05536:  MOVF   xE5,W
05538:  MOVWF  01
0553A:  BZ    5544
0553C:  BCF    FD8.0
0553E:  RRCF   00,F
05540:  DECFSZ 01,F
05542:  BRA    553C
05544:  BTFSS  00.0
05546:  BRA    5568
....................                glcd_pixel( j*8+k,i, ON ); 
05548:  MOVF   xE2,W
0554A:  MULLW  08
0554C:  MOVF   FF3,W
0554E:  ADDWF  xE3,W
05550:  MOVWF  xE4
05552:  MOVFF  FE8,614
05556:  MOVFF  5E1,615
0555A:  MOVLW  01
0555C:  MOVLB  6
0555E:  MOVWF  x16
05560:  MOVLB  0
05562:  CALL   46C4
05566:  MOVLB  5
....................          }   
05568:  DECF   xE3,F
0556A:  BRA    54E2
....................       } 
0556C:  INCF   xE2,F
0556E:  BRA    54D8
....................    } 
05570:  INCF   xE1,F
05572:  BRA    54D0
....................    } 
....................     
....................    if(x==4){ 
05574:  MOVF   xE0,W
05576:  SUBLW  04
05578:  BNZ   5620
....................    for( i = 0 ; i < 64 ; i ++ ) 
0557A:  CLRF   xE1
0557C:  MOVF   xE1,W
0557E:  SUBLW  3F
05580:  BNC   5620
....................    {  for( j = 0 ; j < 16 ; j ++) 
05582:  CLRF   xE2
05584:  MOVF   xE2,W
05586:  SUBLW  0F
05588:  BNC   561C
....................       {  for(k=7;k>-1;k--) 
0558A:  MOVLW  07
0558C:  MOVWF  xE3
0558E:  MOVF   xE3,W
05590:  XORLW  80
05592:  SUBLW  7F
05594:  BC    5618
....................          {       
....................             if( bit_test(Tomai[i][j] ,7-k ))  
05596:  CLRF   xE5
05598:  MOVFF  5E1,5E4
0559C:  CLRF   xE7
0559E:  MOVLW  10
055A0:  MOVWF  xE6
055A2:  MOVLB  0
055A4:  RCALL  54A4
055A6:  MOVFF  02,5E5
055AA:  MOVFF  01,5E4
055AE:  MOVLB  5
055B0:  MOVF   xE2,W
055B2:  ADDWF  01,W
055B4:  MOVWF  01
055B6:  MOVLW  00
055B8:  ADDWFC 02,W
055BA:  MOVWF  03
055BC:  MOVF   01,W
055BE:  MOVFF  FF2,5E4
055C2:  BCF    FF2.7
055C4:  MOVFF  03,FF7
055C8:  MOVLB  0
055CA:  CALL   06D2
055CE:  MOVLB  5
055D0:  BTFSC  xE4.7
055D2:  BSF    FF2.7
055D4:  MOVWF  xE4
055D6:  MOVLW  07
055D8:  BSF    FD8.0
055DA:  SUBFWB xE3,W
055DC:  MOVWF  xE5
055DE:  MOVFF  5E4,00
055E2:  MOVF   xE5,W
055E4:  MOVWF  01
055E6:  BZ    55F0
055E8:  BCF    FD8.0
055EA:  RRCF   00,F
055EC:  DECFSZ 01,F
055EE:  BRA    55E8
055F0:  BTFSS  00.0
055F2:  BRA    5614
....................                glcd_pixel( j*8+k,i, ON ); 
055F4:  MOVF   xE2,W
055F6:  MULLW  08
055F8:  MOVF   FF3,W
055FA:  ADDWF  xE3,W
055FC:  MOVWF  xE4
055FE:  MOVFF  FE8,614
05602:  MOVFF  5E1,615
05606:  MOVLW  01
05608:  MOVLB  6
0560A:  MOVWF  x16
0560C:  MOVLB  0
0560E:  CALL   46C4
05612:  MOVLB  5
....................          }   
05614:  DECF   xE3,F
05616:  BRA    558E
....................       } 
05618:  INCF   xE2,F
0561A:  BRA    5584
....................    } 
0561C:  INCF   xE1,F
0561E:  BRA    557C
....................    } 
....................     
....................    if(x==5){ 
05620:  MOVF   xE0,W
05622:  SUBLW  05
05624:  BNZ   56CC
....................    for( i = 0 ; i < 64 ; i ++ ) 
05626:  CLRF   xE1
05628:  MOVF   xE1,W
0562A:  SUBLW  3F
0562C:  BNC   56CC
....................    {  for( j = 0 ; j < 16 ; j ++) 
0562E:  CLRF   xE2
05630:  MOVF   xE2,W
05632:  SUBLW  0F
05634:  BNC   56C8
....................       {  for(k=7;k>-1;k--) 
05636:  MOVLW  07
05638:  MOVWF  xE3
0563A:  MOVF   xE3,W
0563C:  XORLW  80
0563E:  SUBLW  7F
05640:  BC    56C4
....................          {       
....................             if( bit_test(Ventilador[i][j] ,7-k ))  
05642:  CLRF   xE5
05644:  MOVFF  5E1,5E4
05648:  CLRF   xE7
0564A:  MOVLW  10
0564C:  MOVWF  xE6
0564E:  MOVLB  0
05650:  RCALL  54A4
05652:  MOVFF  02,5E5
05656:  MOVFF  01,5E4
0565A:  MOVLB  5
0565C:  MOVF   xE2,W
0565E:  ADDWF  01,W
05660:  MOVWF  01
05662:  MOVLW  00
05664:  ADDWFC 02,W
05666:  MOVWF  03
05668:  MOVF   01,W
0566A:  MOVFF  FF2,5E4
0566E:  BCF    FF2.7
05670:  MOVFF  03,FF7
05674:  MOVLB  0
05676:  CALL   0AEE
0567A:  MOVLB  5
0567C:  BTFSC  xE4.7
0567E:  BSF    FF2.7
05680:  MOVWF  xE4
05682:  MOVLW  07
05684:  BSF    FD8.0
05686:  SUBFWB xE3,W
05688:  MOVWF  xE5
0568A:  MOVFF  5E4,00
0568E:  MOVF   xE5,W
05690:  MOVWF  01
05692:  BZ    569C
05694:  BCF    FD8.0
05696:  RRCF   00,F
05698:  DECFSZ 01,F
0569A:  BRA    5694
0569C:  BTFSS  00.0
0569E:  BRA    56C0
....................                glcd_pixel( j*8+k,i, ON ); 
056A0:  MOVF   xE2,W
056A2:  MULLW  08
056A4:  MOVF   FF3,W
056A6:  ADDWF  xE3,W
056A8:  MOVWF  xE4
056AA:  MOVFF  FE8,614
056AE:  MOVFF  5E1,615
056B2:  MOVLW  01
056B4:  MOVLB  6
056B6:  MOVWF  x16
056B8:  MOVLB  0
056BA:  CALL   46C4
056BE:  MOVLB  5
....................          }   
056C0:  DECF   xE3,F
056C2:  BRA    563A
....................       } 
056C4:  INCF   xE2,F
056C6:  BRA    5630
....................    } 
056C8:  INCF   xE1,F
056CA:  BRA    5628
....................    } 
.................... } 
056CC:  MOVLB  0
056CE:  RETLW  00
....................  
....................  
.................... Float LeerFlujoInFlow(int media) 
.................... { 
....................     InFlow_adc=sensores(1); 
*
03FFA:  MOVLW  01
03FFC:  MOVLB  5
03FFE:  MOVWF  xF1
04000:  MOVLB  0
04002:  CALL   2D3A
04006:  MOVFF  02,4D7
0400A:  MOVFF  01,4D6
....................        
....................     if(negativo==10) 
0400E:  MOVLB  4
04010:  MOVF   xCB,W
04012:  SUBLW  0A
04014:  BNZ   405C
....................     { 
....................       x_uno=Inflow_adc+Diferencia; 
04016:  MOVFF  4D7,616
0401A:  MOVFF  4D6,615
0401E:  MOVLB  0
04020:  CALL   17C2
04024:  BCF    FD8.1
04026:  MOVFF  03,618
0402A:  MOVFF  02,617
0402E:  MOVFF  01,616
04032:  MOVFF  00,615
04036:  MOVFF  521,61C
0403A:  MOVFF  520,61B
0403E:  MOVFF  51F,61A
04042:  MOVFF  51E,619
04046:  CALL   1956
0404A:  MOVFF  03,529
0404E:  MOVFF  02,528
04052:  MOVFF  01,527
04056:  MOVFF  00,526
0405A:  MOVLB  4
....................     } 
....................     if(negativo==20) 
0405C:  MOVF   xCB,W
0405E:  SUBLW  14
04060:  BNZ   40A6
....................     { 
....................       x_uno=Inflow_adc-Diferencia; 
04062:  MOVFF  4D7,616
04066:  MOVFF  4D6,615
0406A:  MOVLB  0
0406C:  CALL   17C2
04070:  BSF    FD8.1
04072:  MOVFF  03,618
04076:  MOVFF  02,617
0407A:  MOVFF  01,616
0407E:  MOVFF  00,615
04082:  MOVFF  521,61C
04086:  MOVFF  520,61B
0408A:  MOVFF  51F,61A
0408E:  MOVFF  51E,619
04092:  CALL   1956
04096:  MOVFF  03,529
0409A:  MOVFF  02,528
0409E:  MOVFF  01,527
040A2:  MOVFF  00,526
....................     } 
....................     Velocidad=(pow(x_uno,3)*a)+(pow(x_uno,2)*b)+(x_uno*c)+(d); 
040A6:  MOVFF  529,5E8
040AA:  MOVFF  528,5E7
040AE:  MOVFF  527,5E6
040B2:  MOVFF  526,5E5
040B6:  MOVLB  5
040B8:  CLRF   xEC
040BA:  CLRF   xEB
040BC:  MOVLW  40
040BE:  MOVWF  xEA
040C0:  MOVLW  80
040C2:  MOVWF  xE9
040C4:  MOVLB  0
040C6:  RCALL  3CEE
040C8:  MOVFF  00,5E1
040CC:  MOVFF  01,5E2
040D0:  MOVFF  02,5E3
040D4:  MOVFF  03,5E4
040D8:  MOVFF  03,614
040DC:  MOVFF  02,613
040E0:  MOVFF  01,612
040E4:  MOVFF  00,611
040E8:  MOVFF  545,618
040EC:  MOVFF  544,617
040F0:  MOVFF  543,616
040F4:  MOVFF  542,615
040F8:  CALL   2DB4
040FC:  MOVFF  00,5E1
04100:  MOVFF  01,5E2
04104:  MOVFF  02,5E3
04108:  MOVFF  03,5E4
0410C:  MOVFF  529,5E8
04110:  MOVFF  528,5E7
04114:  MOVFF  527,5E6
04118:  MOVFF  526,5E5
0411C:  MOVLB  5
0411E:  CLRF   xEC
04120:  CLRF   xEB
04122:  CLRF   xEA
04124:  MOVLW  80
04126:  MOVWF  xE9
04128:  MOVLB  0
0412A:  RCALL  3CEE
0412C:  MOVFF  00,5E5
04130:  MOVFF  01,5E6
04134:  MOVFF  02,5E7
04138:  MOVFF  03,5E8
0413C:  MOVFF  03,614
04140:  MOVFF  02,613
04144:  MOVFF  01,612
04148:  MOVFF  00,611
0414C:  MOVFF  549,618
04150:  MOVFF  548,617
04154:  MOVFF  547,616
04158:  MOVFF  546,615
0415C:  CALL   2DB4
04160:  MOVFF  FEA,5E6
04164:  MOVFF  FE9,5E5
04168:  BCF    FD8.1
0416A:  MOVFF  5E4,618
0416E:  MOVFF  5E3,617
04172:  MOVFF  5E2,616
04176:  MOVFF  5E1,615
0417A:  MOVFF  03,61C
0417E:  MOVFF  02,61B
04182:  MOVFF  01,61A
04186:  MOVFF  00,619
0418A:  CALL   1956
0418E:  MOVFF  5E6,FEA
04192:  MOVFF  5E5,FE9
04196:  MOVFF  00,5E1
0419A:  MOVFF  01,5E2
0419E:  MOVFF  02,5E3
041A2:  MOVFF  03,5E4
041A6:  MOVFF  529,614
041AA:  MOVFF  528,613
041AE:  MOVFF  527,612
041B2:  MOVFF  526,611
041B6:  MOVFF  54D,618
041BA:  MOVFF  54C,617
041BE:  MOVFF  54B,616
041C2:  MOVFF  54A,615
041C6:  CALL   2DB4
041CA:  MOVFF  FEA,5E8
041CE:  MOVFF  FE9,5E7
041D2:  BCF    FD8.1
041D4:  MOVFF  5E4,618
041D8:  MOVFF  5E3,617
041DC:  MOVFF  5E2,616
041E0:  MOVFF  5E1,615
041E4:  MOVFF  03,61C
041E8:  MOVFF  02,61B
041EC:  MOVFF  01,61A
041F0:  MOVFF  00,619
041F4:  CALL   1956
041F8:  MOVFF  5E8,FEA
041FC:  MOVFF  5E7,FE9
04200:  MOVFF  00,5E1
04204:  MOVFF  01,5E2
04208:  MOVFF  02,5E3
0420C:  MOVFF  03,5E4
04210:  MOVFF  FEA,5EA
04214:  MOVFF  FE9,5E9
04218:  BCF    FD8.1
0421A:  MOVFF  03,618
0421E:  MOVFF  02,617
04222:  MOVFF  01,616
04226:  MOVFF  00,615
0422A:  MOVFF  551,61C
0422E:  MOVFF  550,61B
04232:  MOVFF  54F,61A
04236:  MOVFF  54E,619
0423A:  CALL   1956
0423E:  MOVFF  5EA,FEA
04242:  MOVFF  5E9,FE9
04246:  MOVFF  03,525
0424A:  MOVFF  02,524
0424E:  MOVFF  01,523
04252:  MOVFF  00,522
....................     //Velocidad=Velocidad*correccion;//Ajuste de Temperatura 
....................      
....................     if(Velocidad<0.0) 
04256:  MOVFF  525,614
0425A:  MOVFF  524,613
0425E:  MOVFF  523,612
04262:  MOVFF  522,611
04266:  MOVLB  6
04268:  CLRF   x18
0426A:  CLRF   x17
0426C:  CLRF   x16
0426E:  CLRF   x15
04270:  MOVLB  0
04272:  CALL   2330
04276:  BNC   4282
....................      {Velocidad=0.0;} 
04278:  MOVLB  5
0427A:  CLRF   x25
0427C:  CLRF   x24
0427E:  CLRF   x23
04280:  CLRF   x22
....................       
....................      if(l>=media) 
04282:  MOVLB  5
04284:  MOVF   xE0,W
04286:  MOVLB  4
04288:  SUBWF  xD1,W
0428A:  BNC   428E
....................        {l=0;} 
0428C:  CLRF   xD1
....................       
....................      promedio[l]=Velocidad;l++; 
0428E:  MOVF   xD1,W
04290:  MULLW  04
04292:  MOVF   FF3,W
04294:  CLRF   03
04296:  ADDLW  52
04298:  MOVWF  FE9
0429A:  MOVLW  05
0429C:  ADDWFC 03,W
0429E:  MOVWF  FEA
042A0:  MOVFF  522,FEF
042A4:  MOVFF  523,FEC
042A8:  MOVFF  524,FEC
042AC:  MOVFF  525,FEC
042B0:  INCF   xD1,F
....................      Flujo=0; 
042B2:  MOVLB  5
042B4:  CLRF   xB5
042B6:  CLRF   xB4
042B8:  CLRF   xB3
042BA:  CLRF   xB2
....................         for(h=0;h<=(media-1);h++) 
042BC:  MOVLB  4
042BE:  CLRF   xD2
042C0:  MOVLW  01
042C2:  MOVLB  5
042C4:  SUBWF  xE0,W
042C6:  MOVLB  4
042C8:  SUBWF  xD2,W
042CA:  BZ    42CE
042CC:  BC    433E
....................         { 
....................            Flujo+=promedio[h]; 
042CE:  MOVF   xD2,W
042D0:  MULLW  04
042D2:  MOVF   FF3,W
042D4:  CLRF   03
042D6:  ADDLW  52
042D8:  MOVWF  FE9
042DA:  MOVLW  05
042DC:  ADDWFC 03,W
042DE:  MOVWF  FEA
042E0:  MOVFF  FEF,00
042E4:  MOVFF  FEC,01
042E8:  MOVFF  FEC,02
042EC:  MOVFF  FEC,03
042F0:  MOVFF  FEA,5E2
042F4:  MOVFF  FE9,5E1
042F8:  BCF    FD8.1
042FA:  MOVFF  5B5,618
042FE:  MOVFF  5B4,617
04302:  MOVFF  5B3,616
04306:  MOVFF  5B2,615
0430A:  MOVFF  03,61C
0430E:  MOVFF  02,61B
04312:  MOVFF  01,61A
04316:  MOVFF  00,619
0431A:  MOVLB  0
0431C:  CALL   1956
04320:  MOVFF  5E2,FEA
04324:  MOVFF  5E1,FE9
04328:  MOVFF  03,5B5
0432C:  MOVFF  02,5B4
04330:  MOVFF  01,5B3
04334:  MOVFF  00,5B2
....................         }  
04338:  MOVLB  4
0433A:  INCF   xD2,F
0433C:  BRA    42C0
....................            Flujo=(Flujo/media)*Ajuste1;  
0433E:  MOVLB  6
04340:  CLRF   x16
04342:  MOVFF  5E0,615
04346:  MOVLB  0
04348:  CALL   17C2
0434C:  MOVFF  5B5,614
04350:  MOVFF  5B4,613
04354:  MOVFF  5B3,612
04358:  MOVFF  5B2,611
0435C:  MOVFF  03,618
04360:  MOVFF  02,617
04364:  MOVFF  01,616
04368:  MOVFF  00,615
0436C:  CALL   17F8
04370:  MOVFF  00,5E1
04374:  MOVFF  01,5E2
04378:  MOVFF  02,5E3
0437C:  MOVFF  03,5E4
04380:  MOVFF  03,614
04384:  MOVFF  02,613
04388:  MOVFF  01,612
0438C:  MOVFF  00,611
04390:  MOVFF  535,618
04394:  MOVFF  534,617
04398:  MOVFF  533,616
0439C:  MOVFF  532,615
043A0:  CALL   2DB4
043A4:  MOVFF  03,5B5
043A8:  MOVFF  02,5B4
043AC:  MOVFF  01,5B3
043B0:  MOVFF  00,5B2
....................            return Flujo; 
043B4:  MOVFF  5B2,00
043B8:  MOVFF  5B3,01
043BC:  MOVFF  5B4,02
043C0:  MOVFF  5B5,03
.................... } 
043C4:  GOTO   6000 (RETURN)
....................  
.................... void main(){ 
*
05A54:  CLRF   FF8
05A56:  BCF    FD0.7
05A58:  BSF    07.7
05A5A:  CLRF   FEA
05A5C:  CLRF   FE9
05A5E:  MOVLB  4
05A60:  BCF    x2D.0
05A62:  BCF    x2D.1
05A64:  BCF    x2D.2
05A66:  BCF    x2D.3
05A68:  BCF    x2D.4
05A6A:  BCF    x2D.5
05A6C:  BCF    x2D.6
05A6E:  BCF    x2D.7
05A70:  BCF    x2E.0
05A72:  BCF    x2E.1
05A74:  BCF    x2E.2
05A76:  BCF    x2E.3
05A78:  BCF    x2E.4
05A7A:  BCF    x2E.5
05A7C:  BCF    x2E.6
05A7E:  BCF    x2E.7
05A80:  BCF    x2F.0
05A82:  BCF    x2F.1
05A84:  BCF    x2F.2
05A86:  BCF    x2F.3
05A88:  MOVLW  C8
05A8A:  MOVWF  xC8
05A8C:  MOVLW  01
05A8E:  MOVWF  xC9
05A90:  MOVWF  xCA
05A92:  MOVLW  0A
05A94:  MOVWF  xCB
05A96:  CLRF   xCC
05A98:  CLRF   xCD
05A9A:  CLRF   xCE
05A9C:  CLRF   xCF
05A9E:  CLRF   xD0
05AA0:  CLRF   xD1
05AA2:  CLRF   xD2
05AA4:  CLRF   xD3
05AA6:  CLRF   xD4
05AA8:  MOVWF  xD5
05AAA:  CLRF   xD7
05AAC:  CLRF   xD6
05AAE:  CLRF   xD9
05AB0:  CLRF   xD8
05AB2:  CLRF   xDB
05AB4:  CLRF   xDA
05AB6:  CLRF   xDD
05AB8:  CLRF   xDC
05ABA:  CLRF   xDF
05ABC:  CLRF   xDE
05ABE:  CLRF   xE1
05AC0:  CLRF   xE0
05AC2:  CLRF   xE3
05AC4:  CLRF   xE2
05AC6:  CLRF   xE5
05AC8:  CLRF   xE4
05ACA:  CLRF   xE7
05ACC:  CLRF   xE6
05ACE:  CLRF   xE9
05AD0:  CLRF   xE8
05AD2:  CLRF   xEB
05AD4:  CLRF   xEA
05AD6:  CLRF   xED
05AD8:  CLRF   xEC
05ADA:  MOVLB  5
05ADC:  CLRF   x15
05ADE:  CLRF   x14
05AE0:  CLRF   x13
05AE2:  CLRF   x12
05AE4:  CLRF   x19
05AE6:  CLRF   x18
05AE8:  CLRF   x17
05AEA:  CLRF   x16
05AEC:  CLRF   x1D
05AEE:  CLRF   x1C
05AF0:  CLRF   x1B
05AF2:  CLRF   x1A
05AF4:  CLRF   x21
05AF6:  CLRF   x20
05AF8:  CLRF   x1F
05AFA:  CLRF   x1E
05AFC:  CLRF   x25
05AFE:  CLRF   x24
05B00:  CLRF   x23
05B02:  CLRF   x22
05B04:  CLRF   x29
05B06:  CLRF   x28
05B08:  CLRF   x27
05B0A:  CLRF   x26
05B0C:  CLRF   x2D
05B0E:  CLRF   x2C
05B10:  CLRF   x2B
05B12:  CLRF   x2A
05B14:  CLRF   x31
05B16:  CLRF   x30
05B18:  CLRF   x2F
05B1A:  CLRF   x2E
05B1C:  CLRF   x35
05B1E:  CLRF   x34
05B20:  CLRF   x33
05B22:  CLRF   x32
05B24:  CLRF   x39
05B26:  CLRF   x38
05B28:  CLRF   x37
05B2A:  CLRF   x36
05B2C:  CLRF   x3D
05B2E:  CLRF   x3C
05B30:  CLRF   x3B
05B32:  CLRF   x3A
05B34:  CLRF   x41
05B36:  CLRF   x40
05B38:  CLRF   x3F
05B3A:  CLRF   x3E
05B3C:  MOVLW  29
05B3E:  MOVWF  x45
05B40:  MOVLW  B6
05B42:  MOVWF  x44
05B44:  MOVLW  20
05B46:  MOVWF  x43
05B48:  MOVLW  6E
05B4A:  MOVWF  x42
05B4C:  MOVLW  EE
05B4E:  MOVWF  x49
05B50:  MOVLW  7D
05B52:  MOVWF  x48
05B54:  MOVLW  EE
05B56:  MOVWF  x47
05B58:  MOVLW  77
05B5A:  MOVWF  x46
05B5C:  MOVLW  ED
05B5E:  MOVWF  x4D
05B60:  MOVLW  47
05B62:  MOVWF  x4C
05B64:  MOVLW  6D
05B66:  MOVWF  x4B
05B68:  MOVLW  7F
05B6A:  MOVWF  x4A
05B6C:  MOVLW  1A
05B6E:  MOVWF  x51
05B70:  MOVLW  D1
05B72:  MOVWF  x50
05B74:  MOVLW  9C
05B76:  MOVWF  x4F
05B78:  MOVLW  86
05B7A:  MOVWF  x4E
05B7C:  CLRF   xB5
05B7E:  CLRF   xB4
05B80:  CLRF   xB3
05B82:  CLRF   xB2
05B84:  CLRF   xB9
05B86:  CLRF   xB8
05B88:  MOVLW  50
05B8A:  MOVWF  xB7
05B8C:  MOVLW  86
05B8E:  MOVWF  xB6
05B90:  CLRF   xBD
05B92:  CLRF   xBC
05B94:  CLRF   xBB
05B96:  CLRF   xBA
05B98:  CLRF   xC1
05B9A:  CLRF   xC0
05B9C:  CLRF   xBF
05B9E:  CLRF   xBE
05BA0:  CLRF   xC5
05BA2:  CLRF   xC4
05BA4:  CLRF   xC3
05BA6:  CLRF   xC2
05BA8:  CLRF   xC9
05BAA:  CLRF   xC8
05BAC:  CLRF   xC7
05BAE:  MOVLW  80
05BB0:  MOVWF  xC6
05BB2:  CLRF   xCB
05BB4:  CLRF   xCA
05BB6:  CLRF   xCD
05BB8:  CLRF   xCC
05BBA:  CLRF   xCE
05BBC:  CLRF   xCF
05BBE:  CLRF   xD0
05BC0:  CLRF   xD1
05BC2:  MOVLB  4
05BC4:  BCF    x2F.4
05BC6:  BCF    x2F.5
05BC8:  MOVLB  5
05BCA:  CLRF   xD3
05BCC:  CLRF   xD2
05BCE:  CLRF   xD5
05BD0:  CLRF   xD4
05BD2:  CLRF   xD6
05BD4:  CLRF   xD7
05BD6:  CLRF   xDB
05BD8:  CLRF   xDA
05BDA:  CLRF   xD9
05BDC:  CLRF   xD8
05BDE:  CLRF   xDF
05BE0:  CLRF   xDE
05BE2:  CLRF   xDD
05BE4:  CLRF   xDC
05BE6:  MOVF   FC1,W
05BE8:  ANDLW  C0
05BEA:  IORLW  0F
05BEC:  MOVWF  FC1
05BEE:  MOVLW  07
05BF0:  MOVWF  FB4
05BF2:  MOVLB  4
05BF4:  CLRF   x2B
05BF6:  CLRF   x2C
05BF8:  MOVLW  4A
05BFA:  MOVWF  x30
05BFC:  MOVLW  50
05BFE:  MOVWF  x31
05C00:  MOVLW  20
05C02:  MOVWF  x32
05C04:  MOVLW  49
05C06:  MOVWF  x33
05C08:  MOVLW  6E
05C0A:  MOVWF  x34
05C0C:  MOVLW  67
05C0E:  MOVWF  x35
05C10:  MOVLW  6C
05C12:  MOVWF  x36
05C14:  MOVLW  6F
05C16:  MOVWF  x37
05C18:  MOVLW  62
05C1A:  MOVWF  x38
05C1C:  MOVLW  61
05C1E:  MOVWF  x39
05C20:  MOVLW  6C
05C22:  MOVWF  x3A
05C24:  CLRF   x3B
05C26:  MOVLW  43
05C28:  MOVWF  x3C
05C2A:  MOVLW  61
05C2C:  MOVWF  x3D
05C2E:  MOVLW  62
05C30:  MOVWF  x3E
05C32:  MOVLW  69
05C34:  MOVWF  x3F
05C36:  MOVLW  6E
05C38:  MOVWF  x40
05C3A:  MOVLW  61
05C3C:  MOVWF  x41
05C3E:  MOVLW  20
05C40:  MOVWF  x42
05C42:  MOVLW  45
05C44:  MOVWF  x43
05C46:  MOVLW  78
05C48:  MOVWF  x44
05C4A:  MOVLW  74
05C4C:  MOVWF  x45
05C4E:  MOVLW  72
05C50:  MOVWF  x46
05C52:  MOVLW  61
05C54:  MOVWF  x47
05C56:  MOVLW  63
05C58:  MOVWF  x48
05C5A:  MOVLW  74
05C5C:  MOVWF  x49
05C5E:  MOVLW  6F
05C60:  MOVWF  x4A
05C62:  MOVLW  72
05C64:  MOVWF  x4B
05C66:  MOVLW  61
05C68:  MOVWF  x4C
05C6A:  CLRF   x4D
05C6C:  MOVLW  3A
05C6E:  MOVWF  x4E
05C70:  CLRF   x4F
05C72:  MOVLW  55
05C74:  MOVWF  x50
05C76:  MOVLW  56
05C78:  MOVWF  x51
05C7A:  CLRF   x52
05C7C:  MOVLW  43
05C7E:  MOVWF  x53
05C80:  MOVLW  6F
05C82:  MOVWF  x54
05C84:  MOVLW  6E
05C86:  MOVWF  x55
05C88:  MOVLW  20
05C8A:  MOVWF  x56
05C8C:  MOVLW  44
05C8E:  MOVWF  x57
05C90:  MOVLW  75
05C92:  MOVWF  x58
05C94:  MOVLW  63
05C96:  MOVWF  x59
05C98:  MOVLW  74
05C9A:  MOVWF  x5A
05C9C:  MOVLW  6F
05C9E:  MOVWF  x5B
05CA0:  MOVLW  73
05CA2:  MOVWF  x5C
05CA4:  CLRF   x5D
05CA6:  MOVLW  54
05CA8:  MOVWF  x5E
05CAA:  MOVLW  69
05CAC:  MOVWF  x5F
05CAE:  MOVLW  65
05CB0:  MOVWF  x60
05CB2:  MOVLW  6D
05CB4:  MOVWF  x61
05CB6:  MOVLW  70
05CB8:  MOVWF  x62
05CBA:  MOVLW  6F
05CBC:  MOVWF  x63
05CBE:  MOVLW  20
05CC0:  MOVWF  x64
05CC2:  MOVLW  64
05CC4:  MOVWF  x65
05CC6:  MOVLW  65
05CC8:  MOVWF  x66
05CCA:  MOVLW  20
05CCC:  MOVWF  x67
05CCE:  MOVLW  50
05CD0:  MOVWF  x68
05CD2:  MOVLW  75
05CD4:  MOVWF  x69
05CD6:  MOVLW  72
05CD8:  MOVWF  x6A
05CDA:  MOVLW  67
05CDC:  MOVWF  x6B
05CDE:  MOVLW  61
05CE0:  MOVWF  x6C
05CE2:  CLRF   x6D
05CE4:  MOVLW  56
05CE6:  MOVWF  x6E
05CE8:  MOVLW  65
05CEA:  MOVWF  x6F
05CEC:  MOVLW  6C
05CEE:  MOVWF  x70
05CF0:  MOVLW  3A
05CF2:  MOVWF  x71
05CF4:  CLRF   x72
05CF6:  MOVLW  54
05CF8:  MOVWF  x73
05CFA:  MOVLW  65
05CFC:  MOVWF  x74
05CFE:  MOVLW  6D
05D00:  MOVWF  x75
05D02:  MOVLW  70
05D04:  MOVWF  x76
05D06:  MOVLW  65
05D08:  MOVWF  x77
05D0A:  MOVLW  72
05D0C:  MOVWF  x78
05D0E:  MOVLW  61
05D10:  MOVWF  x79
05D12:  MOVLW  74
05D14:  MOVWF  x7A
05D16:  MOVLW  75
05D18:  MOVWF  x7B
05D1A:  MOVLW  72
05D1C:  MOVWF  x7C
05D1E:  MOVLW  61
05D20:  MOVWF  x7D
05D22:  CLRF   x7E
05D24:  MOVLW  46
05D26:  MOVWF  x7F
05D28:  MOVLW  61
05D2A:  MOVWF  x80
05D2C:  MOVLW  62
05D2E:  MOVWF  x81
05D30:  MOVLW  72
05D32:  MOVWF  x82
05D34:  MOVLW  69
05D36:  MOVWF  x83
05D38:  MOVLW  63
05D3A:  MOVWF  x84
05D3C:  MOVLW  61
05D3E:  MOVWF  x85
05D40:  MOVLW  3A
05D42:  MOVWF  x86
05D44:  MOVLW  32
05D46:  MOVWF  x87
05D48:  MOVLW  30
05D4A:  MOVWF  x88
05D4C:  MOVLW  38
05D4E:  MOVWF  x89
05D50:  MOVLW  2E
05D52:  MOVWF  x8A
05D54:  MOVLW  30
05D56:  MOVWF  x8B
05D58:  CLRF   x8C
05D5A:  MOVLW  41
05D5C:  MOVWF  x8D
05D5E:  MOVLW  63
05D60:  MOVWF  x8E
05D62:  MOVLW  74
05D64:  MOVWF  x8F
05D66:  MOVLW  75
05D68:  MOVWF  x90
05D6A:  MOVLW  61
05D6C:  MOVWF  x91
05D6E:  MOVLW  6C
05D70:  MOVWF  x92
05D72:  MOVLW  3A
05D74:  MOVWF  x93
05D76:  CLRF   x94
05D78:  MOVLW  41
05D7A:  MOVWF  x95
05D7C:  MOVLW  6A
05D7E:  MOVWF  x96
05D80:  MOVLW  75
05D82:  MOVWF  x97
05D84:  MOVLW  73
05D86:  MOVWF  x98
05D88:  MOVLW  74
05D8A:  MOVWF  x99
05D8C:  MOVLW  65
05D8E:  MOVWF  x9A
05D90:  MOVLW  3A
05D92:  MOVWF  x9B
05D94:  CLRF   x9C
05D96:  MOVLW  54
05D98:  MOVWF  x9D
05D9A:  MOVLW  2E
05D9C:  MOVWF  x9E
05D9E:  MOVLW  20
05DA0:  MOVWF  x9F
05DA2:  MOVLW  46
05DA4:  MOVWF  xA0
05DA6:  MOVLW  69
05DA8:  MOVWF  xA1
05DAA:  MOVLW  6C
05DAC:  MOVWF  xA2
05DAE:  MOVLW  74
05DB0:  MOVWF  xA3
05DB2:  MOVLW  72
05DB4:  MOVWF  xA4
05DB6:  MOVLW  6F
05DB8:  MOVWF  xA5
05DBA:  MOVLW  3A
05DBC:  MOVWF  xA6
05DBE:  CLRF   xA7
05DC0:  MOVLW  46
05DC2:  MOVWF  xA8
05DC4:  MOVLW  61
05DC6:  MOVWF  xA9
05DC8:  MOVLW  62
05DCA:  MOVWF  xAA
05DCC:  MOVLW  72
05DCE:  MOVWF  xAB
05DD0:  MOVLW  69
05DD2:  MOVWF  xAC
05DD4:  MOVLW  63
05DD6:  MOVWF  xAD
05DD8:  MOVLW  61
05DDA:  MOVWF  xAE
05DDC:  MOVLW  3A
05DDE:  MOVWF  xAF
05DE0:  MOVLW  32
05DE2:  MOVWF  xB0
05DE4:  MOVLW  33
05DE6:  MOVWF  xB1
05DE8:  MOVLW  35
05DEA:  MOVWF  xB2
05DEC:  MOVLW  2E
05DEE:  MOVWF  xB3
05DF0:  MOVLW  30
05DF2:  MOVWF  xB4
05DF4:  CLRF   xB5
05DF6:  MOVLW  21
05DF8:  MOVWF  xB6
05DFA:  MOVLW  46
05DFC:  MOVWF  xB7
05DFE:  MOVLW  69
05E00:  MOVWF  xB8
05E02:  MOVLW  6C
05E04:  MOVWF  xB9
05E06:  MOVLW  74
05E08:  MOVWF  xBA
05E0A:  MOVLW  72
05E0C:  MOVWF  xBB
05E0E:  MOVLW  6F
05E10:  MOVWF  xBC
05E12:  MOVLW  20
05E14:  MOVWF  xBD
05E16:  MOVLW  53
05E18:  MOVWF  xBE
05E1A:  MOVLW  61
05E1C:  MOVWF  xBF
05E1E:  MOVLW  74
05E20:  MOVWF  xC0
05E22:  MOVLW  75
05E24:  MOVWF  xC1
05E26:  MOVLW  72
05E28:  MOVWF  xC2
05E2A:  MOVLW  61
05E2C:  MOVWF  xC3
05E2E:  MOVLW  64
05E30:  MOVWF  xC4
05E32:  MOVLW  6F
05E34:  MOVWF  xC5
05E36:  MOVLW  21
05E38:  MOVWF  xC6
05E3A:  CLRF   xC7
05E3C:  CLRF   xEE
05E3E:  CLRF   xEF
05E40:  CLRF   xF0
05E42:  CLRF   xF1
05E44:  MOVLW  09
05E46:  MOVWF  xF2
05E48:  CLRF   xF3
05E4A:  CLRF   xF4
05E4C:  CLRF   xF5
05E4E:  CLRF   xF6
05E50:  CLRF   xF7
05E52:  CLRF   xF8
05E54:  CLRF   xF9
05E56:  MOVWF  xFA
05E58:  CLRF   xFB
05E5A:  CLRF   xFC
05E5C:  CLRF   xFD
05E5E:  CLRF   xFE
05E60:  CLRF   xFF
05E62:  MOVLB  5
05E64:  CLRF   x00
05E66:  CLRF   x01
05E68:  CLRF   x02
05E6A:  CLRF   x03
05E6C:  CLRF   x04
05E6E:  CLRF   x05
05E70:  CLRF   x06
05E72:  CLRF   x07
05E74:  CLRF   x08
05E76:  CLRF   x09
05E78:  CLRF   x0A
05E7A:  CLRF   x0B
05E7C:  CLRF   x0C
05E7E:  CLRF   x0D
05E80:  CLRF   x0E
05E82:  CLRF   x0F
05E84:  CLRF   x10
05E86:  CLRF   x11
05E88:  CLRF   x52
05E8A:  CLRF   x53
05E8C:  CLRF   x54
05E8E:  CLRF   x55
05E90:  CLRF   x56
05E92:  CLRF   x57
05E94:  CLRF   x58
05E96:  CLRF   x59
05E98:  CLRF   x5A
05E9A:  CLRF   x5B
05E9C:  CLRF   x5C
05E9E:  CLRF   x5D
05EA0:  CLRF   x5E
05EA2:  CLRF   x5F
05EA4:  CLRF   x60
05EA6:  CLRF   x61
05EA8:  CLRF   x62
05EAA:  CLRF   x63
05EAC:  CLRF   x64
05EAE:  CLRF   x65
05EB0:  CLRF   x66
05EB2:  CLRF   x67
05EB4:  CLRF   x68
05EB6:  CLRF   x69
05EB8:  CLRF   x6A
05EBA:  CLRF   x6B
05EBC:  CLRF   x6C
05EBE:  CLRF   x6D
05EC0:  CLRF   x6E
05EC2:  CLRF   x6F
05EC4:  CLRF   x70
05EC6:  CLRF   x71
05EC8:  CLRF   x72
05ECA:  CLRF   x73
05ECC:  CLRF   x74
05ECE:  CLRF   x75
05ED0:  CLRF   x76
05ED2:  CLRF   x77
05ED4:  CLRF   x78
05ED6:  CLRF   x79
05ED8:  CLRF   x7A
05EDA:  CLRF   x7B
05EDC:  CLRF   x7C
05EDE:  CLRF   x7D
05EE0:  CLRF   x7E
05EE2:  CLRF   x7F
05EE4:  CLRF   x80
05EE6:  CLRF   x81
05EE8:  CLRF   x82
05EEA:  CLRF   x83
05EEC:  CLRF   x84
05EEE:  CLRF   x85
05EF0:  CLRF   x86
05EF2:  CLRF   x87
05EF4:  CLRF   x88
05EF6:  CLRF   x89
05EF8:  CLRF   x8A
05EFA:  CLRF   x8B
05EFC:  CLRF   x8C
05EFE:  CLRF   x8D
05F00:  CLRF   x8E
05F02:  CLRF   x8F
05F04:  CLRF   x90
05F06:  CLRF   x91
05F08:  CLRF   x92
05F0A:  CLRF   x93
05F0C:  CLRF   x94
05F0E:  CLRF   x95
05F10:  CLRF   x96
05F12:  CLRF   x97
05F14:  CLRF   x98
05F16:  CLRF   x99
05F18:  CLRF   x9A
05F1A:  CLRF   x9B
05F1C:  CLRF   x9C
05F1E:  CLRF   x9D
05F20:  CLRF   x9E
05F22:  CLRF   x9F
05F24:  CLRF   xA0
05F26:  CLRF   xA1
05F28:  CLRF   xA2
05F2A:  CLRF   xA3
05F2C:  CLRF   xA4
05F2E:  CLRF   xA5
05F30:  CLRF   xA6
05F32:  CLRF   xA7
05F34:  CLRF   xA8
05F36:  CLRF   xA9
05F38:  CLRF   xAA
05F3A:  CLRF   xAB
05F3C:  CLRF   xAC
05F3E:  CLRF   xAD
05F40:  CLRF   xAE
05F42:  CLRF   xAF
05F44:  CLRF   xB0
05F46:  CLRF   xB1
....................    delay_ms(1000); 
05F48:  MOVLW  04
05F4A:  MOVWF  xE0
05F4C:  MOVLW  FA
05F4E:  MOVWF  xF4
05F50:  MOVLB  0
05F52:  CALL   1514
05F56:  MOVLB  5
05F58:  DECFSZ xE0,F
05F5A:  BRA    5F4C
....................    Cruce=OFF; 
05F5C:  MOVLB  4
05F5E:  BCF    x2F.4
....................    VelocidadMotor(0); 
05F60:  MOVLB  5
05F62:  CLRF   xE0
05F64:  MOVLB  0
05F66:  CALL   153C
....................    Tcruce2=83; 
05F6A:  MOVLB  5
05F6C:  CLRF   xDF
05F6E:  CLRF   xDE
05F70:  MOVLW  26
05F72:  MOVWF  xDD
05F74:  MOVLW  85
05F76:  MOVWF  xDC
....................    Tcruce=8300; 
05F78:  CLRF   xDB
05F7A:  MOVLW  B0
05F7C:  MOVWF  xDA
05F7E:  MOVLW  01
05F80:  MOVWF  xD9
05F82:  MOVLW  8C
05F84:  MOVWF  xD8
....................    Motor_off; 
05F86:  BCF    F8B.2
05F88:  BCF    F94.2
....................    setup_timer_1(T1_INTERNAL|T1_DIV_BY_1); 
05F8A:  MOVLW  85
05F8C:  MOVWF  FCD
....................    enable_interrupts(INT_TIMER1); 
05F8E:  BSF    F9D.0
....................    //enable_interrupts(INT_EXT_L2H); 
....................    setup_adc_ports(AN0_TO_AN1); 
05F90:  MOVF   FC1,W
05F92:  ANDLW  C0
05F94:  IORLW  0D
05F96:  MOVWF  FC1
....................    setup_adc(ADC_CLOCK_DIV_32 ); 
05F98:  MOVF   FC0,W
05F9A:  ANDLW  C0
05F9C:  IORLW  02
05F9E:  MOVWF  FC0
05FA0:  BSF    FC0.7
05FA2:  BSF    FC2.0
....................    enable_interrupts(global);   
05FA4:  MOVLW  C0
05FA6:  IORWF  FF2,F
....................    VelocidadMotor(0); 
05FA8:  CLRF   xE0
05FAA:  MOVLB  0
05FAC:  CALL   153C
....................    Motor_off; 
05FB0:  BCF    F8B.2
05FB2:  BCF    F94.2
.................... //-------Inicio de Cabina-------------------------------------------------------------------------// 
....................    //Display_on; 
....................    //glcd_init(ON);             //Inicializa la glcd 
....................    //glcd_fillScreen(OFF);      //Limpia la pantalla 
....................    //glcd_text57(0, 0, JP, 2, ON);glcd_text57(5, 20, Cabina, 1, ON);glcd_text57(10, 40, Clase, 2, ON);              
....................    //glcd_update(); 
....................    //delay_ms(3000); 
....................                         
....................    //glcd_fillScreen(OFF);      //Limpia la pantalla 
....................    glcd_init(ON); 
05FB4:  MOVLW  01
05FB6:  MOVLB  5
05FB8:  MOVWF  xE0
05FBA:  MOVLB  0
05FBC:  CALL   171A
....................    Menu=200; 
05FC0:  MOVLW  C8
05FC2:  MOVLB  4
05FC4:  MOVWF  xC8
....................    LuzBlanca_off;Alarma_off;Aux_off; 
05FC6:  BCF    F8B.0
05FC8:  BCF    F94.0
05FCA:  BCF    F8B.7
05FCC:  BCF    F94.7
05FCE:  BCF    F8B.1
05FD0:  BCF    F94.1
.................... //-------Inicio de Cabina-------------------------------------------------------------------------// 
....................    VelocidadMotor(0); 
05FD2:  MOVLB  5
05FD4:  CLRF   xE0
05FD6:  MOVLB  0
05FD8:  CALL   153C
....................    Motor_off; 
05FDC:  BCF    F8B.2
05FDE:  BCF    F94.2
....................    LeeEEPROM(); // Lectura de variables almacenadas en la EEPROM  
05FE0:  GOTO   1BCE
....................    LimitaValores(); 
05FE4:  GOTO   23AA
....................    //Menu=2; 
....................    while(true){  
....................    glcd_update(); 
05FE8:  CALL   1662
.................... //**Actualizacin de Lectura de Sensores**//    
....................    if(Lectura==1){ 
05FEC:  MOVLB  4
05FEE:  BTFSS  x2F.2
05FF0:  BRA    6036
....................       Lectura=0; 
05FF2:  BCF    x2F.2
....................       InFlow=LeerFlujoInFlow(8); 
05FF4:  MOVLW  08
05FF6:  MOVLB  5
05FF8:  MOVWF  xE0
05FFA:  MOVLB  0
05FFC:  GOTO   3FFA
06000:  MOVFF  03,515
06004:  MOVFF  02,514
06008:  MOVFF  01,513
0600C:  MOVFF  00,512
....................       Temperatura=leeTemperatura(5); 
06010:  MOVLW  05
06012:  MOVLB  5
06014:  MOVWF  xE0
06016:  MOVLB  0
06018:  GOTO   43C8
0601C:  MOVFF  03,614
06020:  MOVFF  02,613
06024:  MOVFF  01,612
06028:  MOVFF  00,611
0602C:  CALL   2D78
06030:  MOVFF  01,5D1
06034:  MOVLB  4
....................    } 
.................... //----------------------------------------// 
....................  
.................... //**Contador de Tiempo de Trabajo del filtro**// 
....................    if(minutos_trabajo>=3600){ // Tiempo de Trabajo 
06036:  MOVF   xE1,W
06038:  SUBLW  0D
0603A:  BTFSC  FD8.0
0603C:  BRA    61E4
0603E:  XORLW  FF
06040:  BNZ   604A
06042:  MOVF   xE0,W
06044:  SUBLW  0F
06046:  BTFSC  FD8.0
06048:  BRA    61E4
....................       minutos_trabajo=0; //Minutos Trabajo realmente son segundos. 
0604A:  CLRF   xE1
0604C:  CLRF   xE0
....................       write_eeprom(33,make8(minutos_trabajo,0)); 
0604E:  MOVFF  4E0,5E0
06052:  CLRF   FAA
06054:  MOVLW  21
06056:  MOVWF  FA9
06058:  MOVFF  5E0,FA8
0605C:  BCF    FA6.6
0605E:  BCF    FA6.7
06060:  BSF    FA6.2
06062:  MOVF   FF2,W
06064:  MOVWF  00
06066:  BCF    FF2.7
06068:  MOVLB  F
0606A:  MOVLW  55
0606C:  MOVWF  FA7
0606E:  MOVLW  AA
06070:  MOVWF  FA7
06072:  BSF    FA6.1
06074:  BTFSC  FA6.1
06076:  BRA    6074
06078:  BCF    FA6.2
0607A:  MOVF   00,W
0607C:  IORWF  FF2,F
....................       delay_ms(20); 
0607E:  MOVLW  14
06080:  MOVLB  5
06082:  MOVWF  xF4
06084:  MOVLB  0
06086:  CALL   1514
....................       write_eeprom(34,make8(minutos_trabajo,1)); 
0608A:  MOVFF  4E1,5E0
0608E:  CLRF   FAA
06090:  MOVLW  22
06092:  MOVWF  FA9
06094:  MOVFF  5E0,FA8
06098:  BCF    FA6.6
0609A:  BCF    FA6.7
0609C:  BSF    FA6.2
0609E:  MOVF   FF2,W
060A0:  MOVWF  00
060A2:  BCF    FF2.7
060A4:  MOVLB  F
060A6:  MOVLW  55
060A8:  MOVWF  FA7
060AA:  MOVLW  AA
060AC:  MOVWF  FA7
060AE:  BSF    FA6.1
060B0:  BTFSC  FA6.1
060B2:  BRA    60B0
060B4:  BCF    FA6.2
060B6:  MOVF   00,W
060B8:  IORWF  FF2,F
....................       delay_ms(20); 
060BA:  MOVLW  14
060BC:  MOVLB  5
060BE:  MOVWF  xF4
060C0:  MOVLB  0
060C2:  CALL   1514
....................       Ttrabajo[0]++; 
060C6:  MOVLB  5
060C8:  INCF   x06,F
....................       if(Ttrabajo[0]>9){ 
060CA:  BTFSC  x06.7
060CC:  BRA    60D8
060CE:  MOVF   x06,W
060D0:  SUBLW  09
060D2:  BC    60D8
....................          Ttrabajo[0]=0; 
060D4:  CLRF   x06
....................          Ttrabajo[1]++; 
060D6:  INCF   x07,F
....................       } 
....................       if(Ttrabajo[1]>9){ 
060D8:  BTFSC  x07.7
060DA:  BRA    60E6
060DC:  MOVF   x07,W
060DE:  SUBLW  09
060E0:  BC    60E6
....................          Ttrabajo[1]=0; 
060E2:  CLRF   x07
....................          Ttrabajo[2]++; 
060E4:  INCF   x08,F
....................       } 
....................       if(Ttrabajo[2]>9){ 
060E6:  BTFSC  x08.7
060E8:  BRA    60F4
060EA:  MOVF   x08,W
060EC:  SUBLW  09
060EE:  BC    60F4
....................          Ttrabajo[2]=0; 
060F0:  CLRF   x08
....................          Ttrabajo[3]++; 
060F2:  INCF   x09,F
....................       } 
....................       if(Ttrabajo[3]>9){ 
060F4:  BTFSC  x09.7
060F6:  BRA    6100
060F8:  MOVF   x09,W
060FA:  SUBLW  09
060FC:  BC    6100
....................          Ttrabajo[3]=0; 
060FE:  CLRF   x09
....................       } 
....................       write_eeprom(16,Ttrabajo[0]); 
06100:  CLRF   FAA
06102:  MOVLW  10
06104:  MOVWF  FA9
06106:  MOVFF  506,FA8
0610A:  BCF    FA6.6
0610C:  BCF    FA6.7
0610E:  BSF    FA6.2
06110:  MOVF   FF2,W
06112:  MOVWF  00
06114:  BCF    FF2.7
06116:  MOVLB  F
06118:  MOVLW  55
0611A:  MOVWF  FA7
0611C:  MOVLW  AA
0611E:  MOVWF  FA7
06120:  BSF    FA6.1
06122:  BTFSC  FA6.1
06124:  BRA    6122
06126:  BCF    FA6.2
06128:  MOVF   00,W
0612A:  IORWF  FF2,F
....................       delay_ms(20); 
0612C:  MOVLW  14
0612E:  MOVLB  5
06130:  MOVWF  xF4
06132:  MOVLB  0
06134:  CALL   1514
....................       write_eeprom(17,Ttrabajo[1]); 
06138:  CLRF   FAA
0613A:  MOVLW  11
0613C:  MOVWF  FA9
0613E:  MOVFF  507,FA8
06142:  BCF    FA6.6
06144:  BCF    FA6.7
06146:  BSF    FA6.2
06148:  MOVF   FF2,W
0614A:  MOVWF  00
0614C:  BCF    FF2.7
0614E:  MOVLB  F
06150:  MOVLW  55
06152:  MOVWF  FA7
06154:  MOVLW  AA
06156:  MOVWF  FA7
06158:  BSF    FA6.1
0615A:  BTFSC  FA6.1
0615C:  BRA    615A
0615E:  BCF    FA6.2
06160:  MOVF   00,W
06162:  IORWF  FF2,F
....................       delay_ms(20); 
06164:  MOVLW  14
06166:  MOVLB  5
06168:  MOVWF  xF4
0616A:  MOVLB  0
0616C:  CALL   1514
....................       write_eeprom(18,Ttrabajo[2]); 
06170:  CLRF   FAA
06172:  MOVLW  12
06174:  MOVWF  FA9
06176:  MOVFF  508,FA8
0617A:  BCF    FA6.6
0617C:  BCF    FA6.7
0617E:  BSF    FA6.2
06180:  MOVF   FF2,W
06182:  MOVWF  00
06184:  BCF    FF2.7
06186:  MOVLB  F
06188:  MOVLW  55
0618A:  MOVWF  FA7
0618C:  MOVLW  AA
0618E:  MOVWF  FA7
06190:  BSF    FA6.1
06192:  BTFSC  FA6.1
06194:  BRA    6192
06196:  BCF    FA6.2
06198:  MOVF   00,W
0619A:  IORWF  FF2,F
....................       delay_ms(20); 
0619C:  MOVLW  14
0619E:  MOVLB  5
061A0:  MOVWF  xF4
061A2:  MOVLB  0
061A4:  CALL   1514
....................       write_eeprom(19,Ttrabajo[3]); 
061A8:  CLRF   FAA
061AA:  MOVLW  13
061AC:  MOVWF  FA9
061AE:  MOVFF  509,FA8
061B2:  BCF    FA6.6
061B4:  BCF    FA6.7
061B6:  BSF    FA6.2
061B8:  MOVF   FF2,W
061BA:  MOVWF  00
061BC:  BCF    FF2.7
061BE:  MOVLB  F
061C0:  MOVLW  55
061C2:  MOVWF  FA7
061C4:  MOVLW  AA
061C6:  MOVWF  FA7
061C8:  BSF    FA6.1
061CA:  BTFSC  FA6.1
061CC:  BRA    61CA
061CE:  BCF    FA6.2
061D0:  MOVF   00,W
061D2:  IORWF  FF2,F
....................       delay_ms(20); 
061D4:  MOVLW  14
061D6:  MOVLB  5
061D8:  MOVWF  xF4
061DA:  MOVLB  0
061DC:  CALL   1514
....................    }else if(minutos_trabajo==900 || minutos_trabajo==1800 || minutos_trabajo==2700 ){ 
061E0:  BRA    6280
061E2:  MOVLB  4
061E4:  MOVF   xE0,W
061E6:  SUBLW  84
061E8:  BNZ   61F0
061EA:  MOVF   xE1,W
061EC:  SUBLW  03
061EE:  BZ    6208
061F0:  MOVF   xE0,W
061F2:  SUBLW  08
061F4:  BNZ   61FC
061F6:  MOVF   xE1,W
061F8:  SUBLW  07
061FA:  BZ    6208
061FC:  MOVF   xE0,W
061FE:  SUBLW  8C
06200:  BNZ   6282
06202:  MOVF   xE1,W
06204:  SUBLW  0A
06206:  BNZ   6282
....................       write_eeprom(33,make8(minutos_trabajo,0)); 
06208:  MOVFF  4E0,5E0
0620C:  CLRF   FAA
0620E:  MOVLW  21
06210:  MOVWF  FA9
06212:  MOVFF  5E0,FA8
06216:  BCF    FA6.6
06218:  BCF    FA6.7
0621A:  BSF    FA6.2
0621C:  MOVF   FF2,W
0621E:  MOVWF  00
06220:  BCF    FF2.7
06222:  MOVLB  F
06224:  MOVLW  55
06226:  MOVWF  FA7
06228:  MOVLW  AA
0622A:  MOVWF  FA7
0622C:  BSF    FA6.1
0622E:  BTFSC  FA6.1
06230:  BRA    622E
06232:  BCF    FA6.2
06234:  MOVF   00,W
06236:  IORWF  FF2,F
....................       delay_ms(20); 
06238:  MOVLW  14
0623A:  MOVLB  5
0623C:  MOVWF  xF4
0623E:  MOVLB  0
06240:  CALL   1514
....................       write_eeprom(34,make8(minutos_trabajo,1)); 
06244:  MOVFF  4E1,5E0
06248:  CLRF   FAA
0624A:  MOVLW  22
0624C:  MOVWF  FA9
0624E:  MOVFF  5E0,FA8
06252:  BCF    FA6.6
06254:  BCF    FA6.7
06256:  BSF    FA6.2
06258:  MOVF   FF2,W
0625A:  MOVWF  00
0625C:  BCF    FF2.7
0625E:  MOVLB  F
06260:  MOVLW  55
06262:  MOVWF  FA7
06264:  MOVLW  AA
06266:  MOVWF  FA7
06268:  BSF    FA6.1
0626A:  BTFSC  FA6.1
0626C:  BRA    626A
0626E:  BCF    FA6.2
06270:  MOVF   00,W
06272:  IORWF  FF2,F
....................       delay_ms(20); 
06274:  MOVLW  14
06276:  MOVLB  5
06278:  MOVWF  xF4
0627A:  MOVLB  0
0627C:  CALL   1514
06280:  MOVLB  4
....................    } 
.................... //----------------------------------------//       
....................     
....................    if(Menu!=2){// Si no esta en el menu de estados apaga la alarma 
06282:  MOVF   xC8,W
06284:  SUBLW  02
06286:  BZ    6290
....................       Alarma_off; 
06288:  BCF    F8B.7
0628A:  BCF    F94.7
....................       Alarma=10; 
0628C:  MOVLW  0A
0628E:  MOVWF  xD5
....................    } 
....................     
.................... //_-------------------------------------------------------------------------------------------------------------------------------------------------------- 
....................    if(Menu==0){ //Menu de Contrasea. 
06290:  MOVF   xC8,F
06292:  BNZ   62CA
....................       while(PidePassword(0,0,1,Password[0],Password[1],Password[2],Password[3])==0){ 
06294:  MOVLB  5
06296:  CLRF   xE1
06298:  CLRF   xE2
0629A:  MOVLW  01
0629C:  MOVWF  xE3
0629E:  MOVFF  50E,5E4
062A2:  MOVFF  50F,5E5
062A6:  MOVFF  510,5E6
062AA:  MOVFF  511,5E7
062AE:  MOVLB  0
062B0:  CALL   4CE8
062B4:  MOVF   01,F
062B6:  BNZ   62CC
....................          VelocidadMotor(0); 
062B8:  MOVLB  5
062BA:  CLRF   xE0
062BC:  MOVLB  0
062BE:  CALL   153C
....................          glcd_update(); 
062C2:  CALL   1662
....................       }        
062C6:  MOVLB  4
062C8:  BRA    6294
062CA:  MOVLB  0
....................    } 
.................... //_--------------------------------------------------------------------------------------------------------------------------------------------------------        
....................  
.................... //_-------------------------------------------------------------------------------------------------------------------------------------------------------- 
....................       if(Menu==1){//Menu de Purga. 
062CC:  MOVLB  4
062CE:  DECFSZ xC8,W
062D0:  BRA    643A
....................          Purga=ON; 
062D2:  BSF    x2F.5
....................          glcd_text57(15, 1, Tiempo, 1, ON); 
062D4:  MOVLW  0F
062D6:  MOVLB  5
062D8:  MOVWF  xF9
062DA:  MOVLW  01
062DC:  MOVWF  xFA
062DE:  MOVLW  04
062E0:  MOVWF  xFC
062E2:  MOVLW  5E
062E4:  MOVWF  xFB
062E6:  MOVLW  01
062E8:  MOVWF  xFD
062EA:  MOVWF  xFE
062EC:  MOVLB  0
062EE:  CALL   498A
....................          tiempo_purga=1;LuzBlanca_off;//Alarma_off; 
062F2:  MOVLB  4
062F4:  BSF    x2E.5
062F6:  BCF    F8B.0
062F8:  BCF    F94.0
....................          glcd_rect(9, 54, 120, 64, YES, OFF);          
062FA:  MOVLW  09
062FC:  MOVLB  5
062FE:  MOVWF  xF9
06300:  MOVLW  36
06302:  MOVWF  xFA
06304:  MOVLW  78
06306:  MOVWF  xFB
06308:  MOVLW  40
0630A:  MOVWF  xFC
0630C:  MOVLW  01
0630E:  MOVWF  xFD
06310:  CLRF   xFE
06312:  MOVLB  0
06314:  CALL   48BE
....................          displayTiempo(Tpurga[3],20,20,0,2);displayTiempo(Tpurga[2],40,20,0,2);glcd_text57(60, 22, Dos_puntos, 2, ON); 
06318:  MOVFF  4F1,5E0
0631C:  MOVLW  14
0631E:  MOVLB  5
06320:  MOVWF  xE1
06322:  MOVWF  xE2
06324:  CLRF   xE3
06326:  MOVLW  02
06328:  MOVWF  xE4
0632A:  MOVLB  0
0632C:  CALL   53CA
06330:  MOVFF  4F0,5E0
06334:  MOVLW  28
06336:  MOVLB  5
06338:  MOVWF  xE1
0633A:  MOVLW  14
0633C:  MOVWF  xE2
0633E:  CLRF   xE3
06340:  MOVLW  02
06342:  MOVWF  xE4
06344:  MOVLB  0
06346:  CALL   53CA
0634A:  MOVLW  3C
0634C:  MOVLB  5
0634E:  MOVWF  xF9
06350:  MOVLW  16
06352:  MOVWF  xFA
06354:  MOVLW  04
06356:  MOVWF  xFC
06358:  MOVLW  4E
0635A:  MOVWF  xFB
0635C:  MOVLW  02
0635E:  MOVWF  xFD
06360:  MOVLW  01
06362:  MOVWF  xFE
06364:  MOVLB  0
06366:  CALL   498A
....................          displayTiempo(Tpurga[1],70,20,0,2);displayTiempo(Tpurga[0],90,20,0,2);         
0636A:  MOVFF  4EF,5E0
0636E:  MOVLW  46
06370:  MOVLB  5
06372:  MOVWF  xE1
06374:  MOVLW  14
06376:  MOVWF  xE2
06378:  CLRF   xE3
0637A:  MOVLW  02
0637C:  MOVWF  xE4
0637E:  MOVLB  0
06380:  CALL   53CA
06384:  MOVFF  4EE,5E0
06388:  MOVLW  5A
0638A:  MOVLB  5
0638C:  MOVWF  xE1
0638E:  MOVLW  14
06390:  MOVWF  xE2
06392:  CLRF   xE3
06394:  MOVLW  02
06396:  MOVWF  xE4
06398:  MOVLB  0
0639A:  CALL   53CA
....................           
....................          VelocidadMotor(VelMotor); 
0639E:  MOVFF  5D7,5E0
063A2:  CALL   153C
....................           
....................          if(RIGHT){ 
063A6:  BSF    F96.1
063A8:  BTFSC  F84.1
063AA:  BRA    63E0
....................             delay_ms(500); 
063AC:  MOVLW  02
063AE:  MOVLB  5
063B0:  MOVWF  xE0
063B2:  MOVLW  FA
063B4:  MOVWF  xF4
063B6:  MOVLB  0
063B8:  CALL   1514
063BC:  MOVLB  5
063BE:  DECFSZ xE0,F
063C0:  BRA    63B2
....................             if(RIGHT){ 
063C2:  BSF    F96.1
063C4:  BTFSC  F84.1
063C6:  BRA    63E0
....................                tiempo_purga=0;Menu=2;glcd_fillScreen(OFF);Flanco3=1; 
063C8:  MOVLB  4
063CA:  BCF    x2E.5
063CC:  MOVLW  02
063CE:  MOVWF  xC8
063D0:  MOVLB  5
063D2:  CLRF   xE8
063D4:  MOVLB  0
063D6:  CALL   1608
063DA:  MOVLB  4
063DC:  BSF    x2D.3
063DE:  MOVLB  5
....................             } 
....................          } 
....................         
....................          if((Tpurga[0]>=Tpurgap[0])&&(Tpurga[1]>=Tpurgap[1])&&(Tpurga[2]>=Tpurgap[2])&&(Tpurga[3]>=Tpurgap[3])){ 
063E0:  MOVLB  4
063E2:  MOVF   xF2,W
063E4:  XORLW  80
063E6:  MOVWF  00
063E8:  MOVF   xEE,W
063EA:  XORLW  80
063EC:  SUBWF  00,W
063EE:  BZ    63F2
063F0:  BC    643A
063F2:  MOVF   xF3,W
063F4:  XORLW  80
063F6:  MOVWF  00
063F8:  MOVF   xEF,W
063FA:  XORLW  80
063FC:  SUBWF  00,W
063FE:  BZ    6402
06400:  BC    643A
06402:  MOVF   xF4,W
06404:  XORLW  80
06406:  MOVWF  00
06408:  MOVF   xF0,W
0640A:  XORLW  80
0640C:  SUBWF  00,W
0640E:  BZ    6412
06410:  BC    643A
06412:  MOVF   xF5,W
06414:  XORLW  80
06416:  MOVWF  00
06418:  MOVF   xF1,W
0641A:  XORLW  80
0641C:  SUBWF  00,W
0641E:  BZ    6422
06420:  BC    643A
....................             tiempo_purga=0;Menu=2;glcd_fillScreen(OFF);flag_luz=!flag_luz;flag_blower=1;flag_toma=1; 
06422:  BCF    x2E.5
06424:  MOVLW  02
06426:  MOVWF  xC8
06428:  MOVLB  5
0642A:  CLRF   xE8
0642C:  MOVLB  0
0642E:  CALL   1608
06432:  MOVLB  4
06434:  BTG    x2E.1
06436:  BSF    x2D.7
06438:  BSF    x2E.0
....................          }       
....................       } 
.................... //_--------------------------------------------------------------------------------------------------------------------------------------------------------        
....................  
.................... //_-------------------------------------------------------------------------------------------------------------------------------------------------------- 
....................       if(Menu==2){ //Menu General. 
0643A:  MOVF   xC8,W
0643C:  SUBLW  02
0643E:  BTFSS  FD8.2
06440:  GOTO   6E96
....................          Purga=OFF; 
06444:  BCF    x2F.5
....................          w=0; 
06446:  BCF    x2E.3
....................          glcd_imagen(4); 
06448:  MOVLW  04
0644A:  MOVLB  5
0644C:  MOVWF  xE0
0644E:  MOVLB  0
06450:  CALL   54C6
....................           
....................          if(VelMotor==1){ 
06454:  MOVLB  5
06456:  DECFSZ xD7,W
06458:  BRA    650E
....................             glcd_rect(0, 29, 13, 39, YES, ON); 
0645A:  CLRF   xF9
0645C:  MOVLW  1D
0645E:  MOVWF  xFA
06460:  MOVLW  0D
06462:  MOVWF  xFB
06464:  MOVLW  27
06466:  MOVWF  xFC
06468:  MOVLW  01
0646A:  MOVWF  xFD
0646C:  MOVWF  xFE
0646E:  MOVLB  0
06470:  CALL   48BE
....................             glcd_rect(15, 26, 28, 39, NO, ON); 
06474:  MOVLW  0F
06476:  MOVLB  5
06478:  MOVWF  xF9
0647A:  MOVLW  1A
0647C:  MOVWF  xFA
0647E:  MOVLW  1C
06480:  MOVWF  xFB
06482:  MOVLW  27
06484:  MOVWF  xFC
06486:  CLRF   xFD
06488:  MOVLW  01
0648A:  MOVWF  xFE
0648C:  MOVLB  0
0648E:  CALL   48BE
....................             glcd_rect(30, 23, 43, 39, NO, ON); 
06492:  MOVLW  1E
06494:  MOVLB  5
06496:  MOVWF  xF9
06498:  MOVLW  17
0649A:  MOVWF  xFA
0649C:  MOVLW  2B
0649E:  MOVWF  xFB
064A0:  MOVLW  27
064A2:  MOVWF  xFC
064A4:  CLRF   xFD
064A6:  MOVLW  01
064A8:  MOVWF  xFE
064AA:  MOVLB  0
064AC:  CALL   48BE
....................             glcd_rect(45, 20, 58, 39, NO, ON); 
064B0:  MOVLW  2D
064B2:  MOVLB  5
064B4:  MOVWF  xF9
064B6:  MOVLW  14
064B8:  MOVWF  xFA
064BA:  MOVLW  3A
064BC:  MOVWF  xFB
064BE:  MOVLW  27
064C0:  MOVWF  xFC
064C2:  CLRF   xFD
064C4:  MOVLW  01
064C6:  MOVWF  xFE
064C8:  MOVLB  0
064CA:  CALL   48BE
....................             glcd_rect(60, 17, 73, 39, NO, ON); 
064CE:  MOVLW  3C
064D0:  MOVLB  5
064D2:  MOVWF  xF9
064D4:  MOVLW  11
064D6:  MOVWF  xFA
064D8:  MOVLW  49
064DA:  MOVWF  xFB
064DC:  MOVLW  27
064DE:  MOVWF  xFC
064E0:  CLRF   xFD
064E2:  MOVLW  01
064E4:  MOVWF  xFE
064E6:  MOVLB  0
064E8:  CALL   48BE
....................             glcd_rect(75, 14, 88, 39, NO, ON); 
064EC:  MOVLW  4B
064EE:  MOVLB  5
064F0:  MOVWF  xF9
064F2:  MOVLW  0E
064F4:  MOVWF  xFA
064F6:  MOVLW  58
064F8:  MOVWF  xFB
064FA:  MOVLW  27
064FC:  MOVWF  xFC
064FE:  CLRF   xFD
06500:  MOVLW  01
06502:  MOVWF  xFE
06504:  MOVLB  0
06506:  CALL   48BE
....................          }else if(VelMotor==2){ 
0650A:  BRA    68AC
0650C:  MOVLB  5
0650E:  MOVF   xD7,W
06510:  SUBLW  02
06512:  BNZ   65C8
....................             glcd_rect(0, 29, 13, 39, YES, ON); 
06514:  CLRF   xF9
06516:  MOVLW  1D
06518:  MOVWF  xFA
0651A:  MOVLW  0D
0651C:  MOVWF  xFB
0651E:  MOVLW  27
06520:  MOVWF  xFC
06522:  MOVLW  01
06524:  MOVWF  xFD
06526:  MOVWF  xFE
06528:  MOVLB  0
0652A:  CALL   48BE
....................             glcd_rect(15, 26, 28, 39, YES, ON); 
0652E:  MOVLW  0F
06530:  MOVLB  5
06532:  MOVWF  xF9
06534:  MOVLW  1A
06536:  MOVWF  xFA
06538:  MOVLW  1C
0653A:  MOVWF  xFB
0653C:  MOVLW  27
0653E:  MOVWF  xFC
06540:  MOVLW  01
06542:  MOVWF  xFD
06544:  MOVWF  xFE
06546:  MOVLB  0
06548:  CALL   48BE
....................             glcd_rect(30, 23, 43, 39, NO, ON); 
0654C:  MOVLW  1E
0654E:  MOVLB  5
06550:  MOVWF  xF9
06552:  MOVLW  17
06554:  MOVWF  xFA
06556:  MOVLW  2B
06558:  MOVWF  xFB
0655A:  MOVLW  27
0655C:  MOVWF  xFC
0655E:  CLRF   xFD
06560:  MOVLW  01
06562:  MOVWF  xFE
06564:  MOVLB  0
06566:  CALL   48BE
....................             glcd_rect(45, 20, 58, 39, NO, ON); 
0656A:  MOVLW  2D
0656C:  MOVLB  5
0656E:  MOVWF  xF9
06570:  MOVLW  14
06572:  MOVWF  xFA
06574:  MOVLW  3A
06576:  MOVWF  xFB
06578:  MOVLW  27
0657A:  MOVWF  xFC
0657C:  CLRF   xFD
0657E:  MOVLW  01
06580:  MOVWF  xFE
06582:  MOVLB  0
06584:  CALL   48BE
....................             glcd_rect(60, 17, 73, 39, NO, ON); 
06588:  MOVLW  3C
0658A:  MOVLB  5
0658C:  MOVWF  xF9
0658E:  MOVLW  11
06590:  MOVWF  xFA
06592:  MOVLW  49
06594:  MOVWF  xFB
06596:  MOVLW  27
06598:  MOVWF  xFC
0659A:  CLRF   xFD
0659C:  MOVLW  01
0659E:  MOVWF  xFE
065A0:  MOVLB  0
065A2:  CALL   48BE
....................             glcd_rect(75, 14, 88, 39, NO, ON); 
065A6:  MOVLW  4B
065A8:  MOVLB  5
065AA:  MOVWF  xF9
065AC:  MOVLW  0E
065AE:  MOVWF  xFA
065B0:  MOVLW  58
065B2:  MOVWF  xFB
065B4:  MOVLW  27
065B6:  MOVWF  xFC
065B8:  CLRF   xFD
065BA:  MOVLW  01
065BC:  MOVWF  xFE
065BE:  MOVLB  0
065C0:  CALL   48BE
....................          }else if(VelMotor==3){ 
065C4:  BRA    68AC
065C6:  MOVLB  5
065C8:  MOVF   xD7,W
065CA:  SUBLW  03
065CC:  BNZ   6682
....................             glcd_rect(0, 29, 13, 39, YES, ON); 
065CE:  CLRF   xF9
065D0:  MOVLW  1D
065D2:  MOVWF  xFA
065D4:  MOVLW  0D
065D6:  MOVWF  xFB
065D8:  MOVLW  27
065DA:  MOVWF  xFC
065DC:  MOVLW  01
065DE:  MOVWF  xFD
065E0:  MOVWF  xFE
065E2:  MOVLB  0
065E4:  CALL   48BE
....................             glcd_rect(15, 26, 28, 39, YES, ON); 
065E8:  MOVLW  0F
065EA:  MOVLB  5
065EC:  MOVWF  xF9
065EE:  MOVLW  1A
065F0:  MOVWF  xFA
065F2:  MOVLW  1C
065F4:  MOVWF  xFB
065F6:  MOVLW  27
065F8:  MOVWF  xFC
065FA:  MOVLW  01
065FC:  MOVWF  xFD
065FE:  MOVWF  xFE
06600:  MOVLB  0
06602:  CALL   48BE
....................             glcd_rect(30, 23, 43, 39, YES, ON); 
06606:  MOVLW  1E
06608:  MOVLB  5
0660A:  MOVWF  xF9
0660C:  MOVLW  17
0660E:  MOVWF  xFA
06610:  MOVLW  2B
06612:  MOVWF  xFB
06614:  MOVLW  27
06616:  MOVWF  xFC
06618:  MOVLW  01
0661A:  MOVWF  xFD
0661C:  MOVWF  xFE
0661E:  MOVLB  0
06620:  CALL   48BE
....................             glcd_rect(45, 20, 58, 39, NO, ON); 
06624:  MOVLW  2D
06626:  MOVLB  5
06628:  MOVWF  xF9
0662A:  MOVLW  14
0662C:  MOVWF  xFA
0662E:  MOVLW  3A
06630:  MOVWF  xFB
06632:  MOVLW  27
06634:  MOVWF  xFC
06636:  CLRF   xFD
06638:  MOVLW  01
0663A:  MOVWF  xFE
0663C:  MOVLB  0
0663E:  CALL   48BE
....................             glcd_rect(60, 17, 73, 39, NO, ON); 
06642:  MOVLW  3C
06644:  MOVLB  5
06646:  MOVWF  xF9
06648:  MOVLW  11
0664A:  MOVWF  xFA
0664C:  MOVLW  49
0664E:  MOVWF  xFB
06650:  MOVLW  27
06652:  MOVWF  xFC
06654:  CLRF   xFD
06656:  MOVLW  01
06658:  MOVWF  xFE
0665A:  MOVLB  0
0665C:  CALL   48BE
....................             glcd_rect(75, 14, 88, 39, NO, ON); 
06660:  MOVLW  4B
06662:  MOVLB  5
06664:  MOVWF  xF9
06666:  MOVLW  0E
06668:  MOVWF  xFA
0666A:  MOVLW  58
0666C:  MOVWF  xFB
0666E:  MOVLW  27
06670:  MOVWF  xFC
06672:  CLRF   xFD
06674:  MOVLW  01
06676:  MOVWF  xFE
06678:  MOVLB  0
0667A:  CALL   48BE
....................          }else if(VelMotor==4){ 
0667E:  BRA    68AC
06680:  MOVLB  5
06682:  MOVF   xD7,W
06684:  SUBLW  04
06686:  BNZ   673C
....................             glcd_rect(0, 29, 13, 39, YES, ON); 
06688:  CLRF   xF9
0668A:  MOVLW  1D
0668C:  MOVWF  xFA
0668E:  MOVLW  0D
06690:  MOVWF  xFB
06692:  MOVLW  27
06694:  MOVWF  xFC
06696:  MOVLW  01
06698:  MOVWF  xFD
0669A:  MOVWF  xFE
0669C:  MOVLB  0
0669E:  CALL   48BE
....................             glcd_rect(15, 26, 28, 39, YES, ON); 
066A2:  MOVLW  0F
066A4:  MOVLB  5
066A6:  MOVWF  xF9
066A8:  MOVLW  1A
066AA:  MOVWF  xFA
066AC:  MOVLW  1C
066AE:  MOVWF  xFB
066B0:  MOVLW  27
066B2:  MOVWF  xFC
066B4:  MOVLW  01
066B6:  MOVWF  xFD
066B8:  MOVWF  xFE
066BA:  MOVLB  0
066BC:  CALL   48BE
....................             glcd_rect(30, 23, 43, 39, YES, ON); 
066C0:  MOVLW  1E
066C2:  MOVLB  5
066C4:  MOVWF  xF9
066C6:  MOVLW  17
066C8:  MOVWF  xFA
066CA:  MOVLW  2B
066CC:  MOVWF  xFB
066CE:  MOVLW  27
066D0:  MOVWF  xFC
066D2:  MOVLW  01
066D4:  MOVWF  xFD
066D6:  MOVWF  xFE
066D8:  MOVLB  0
066DA:  CALL   48BE
....................             glcd_rect(45, 20, 58, 39, YES, ON); 
066DE:  MOVLW  2D
066E0:  MOVLB  5
066E2:  MOVWF  xF9
066E4:  MOVLW  14
066E6:  MOVWF  xFA
066E8:  MOVLW  3A
066EA:  MOVWF  xFB
066EC:  MOVLW  27
066EE:  MOVWF  xFC
066F0:  MOVLW  01
066F2:  MOVWF  xFD
066F4:  MOVWF  xFE
066F6:  MOVLB  0
066F8:  CALL   48BE
....................             glcd_rect(60, 17, 73, 39, NO, ON); 
066FC:  MOVLW  3C
066FE:  MOVLB  5
06700:  MOVWF  xF9
06702:  MOVLW  11
06704:  MOVWF  xFA
06706:  MOVLW  49
06708:  MOVWF  xFB
0670A:  MOVLW  27
0670C:  MOVWF  xFC
0670E:  CLRF   xFD
06710:  MOVLW  01
06712:  MOVWF  xFE
06714:  MOVLB  0
06716:  CALL   48BE
....................             glcd_rect(75, 14, 88, 39, NO, ON); 
0671A:  MOVLW  4B
0671C:  MOVLB  5
0671E:  MOVWF  xF9
06720:  MOVLW  0E
06722:  MOVWF  xFA
06724:  MOVLW  58
06726:  MOVWF  xFB
06728:  MOVLW  27
0672A:  MOVWF  xFC
0672C:  CLRF   xFD
0672E:  MOVLW  01
06730:  MOVWF  xFE
06732:  MOVLB  0
06734:  CALL   48BE
....................          }else if(VelMotor==5){ 
06738:  BRA    68AC
0673A:  MOVLB  5
0673C:  MOVF   xD7,W
0673E:  SUBLW  05
06740:  BNZ   67F6
....................             glcd_rect(0, 29, 13, 39, YES, ON); 
06742:  CLRF   xF9
06744:  MOVLW  1D
06746:  MOVWF  xFA
06748:  MOVLW  0D
0674A:  MOVWF  xFB
0674C:  MOVLW  27
0674E:  MOVWF  xFC
06750:  MOVLW  01
06752:  MOVWF  xFD
06754:  MOVWF  xFE
06756:  MOVLB  0
06758:  CALL   48BE
....................             glcd_rect(15, 26, 28, 39, YES, ON); 
0675C:  MOVLW  0F
0675E:  MOVLB  5
06760:  MOVWF  xF9
06762:  MOVLW  1A
06764:  MOVWF  xFA
06766:  MOVLW  1C
06768:  MOVWF  xFB
0676A:  MOVLW  27
0676C:  MOVWF  xFC
0676E:  MOVLW  01
06770:  MOVWF  xFD
06772:  MOVWF  xFE
06774:  MOVLB  0
06776:  CALL   48BE
....................             glcd_rect(30, 23, 43, 39, YES, ON); 
0677A:  MOVLW  1E
0677C:  MOVLB  5
0677E:  MOVWF  xF9
06780:  MOVLW  17
06782:  MOVWF  xFA
06784:  MOVLW  2B
06786:  MOVWF  xFB
06788:  MOVLW  27
0678A:  MOVWF  xFC
0678C:  MOVLW  01
0678E:  MOVWF  xFD
06790:  MOVWF  xFE
06792:  MOVLB  0
06794:  CALL   48BE
....................             glcd_rect(45, 20, 58, 39, YES, ON); 
06798:  MOVLW  2D
0679A:  MOVLB  5
0679C:  MOVWF  xF9
0679E:  MOVLW  14
067A0:  MOVWF  xFA
067A2:  MOVLW  3A
067A4:  MOVWF  xFB
067A6:  MOVLW  27
067A8:  MOVWF  xFC
067AA:  MOVLW  01
067AC:  MOVWF  xFD
067AE:  MOVWF  xFE
067B0:  MOVLB  0
067B2:  CALL   48BE
....................             glcd_rect(60, 17, 73, 39, YES, ON); 
067B6:  MOVLW  3C
067B8:  MOVLB  5
067BA:  MOVWF  xF9
067BC:  MOVLW  11
067BE:  MOVWF  xFA
067C0:  MOVLW  49
067C2:  MOVWF  xFB
067C4:  MOVLW  27
067C6:  MOVWF  xFC
067C8:  MOVLW  01
067CA:  MOVWF  xFD
067CC:  MOVWF  xFE
067CE:  MOVLB  0
067D0:  CALL   48BE
....................             glcd_rect(75, 14, 88, 39, NO, ON); 
067D4:  MOVLW  4B
067D6:  MOVLB  5
067D8:  MOVWF  xF9
067DA:  MOVLW  0E
067DC:  MOVWF  xFA
067DE:  MOVLW  58
067E0:  MOVWF  xFB
067E2:  MOVLW  27
067E4:  MOVWF  xFC
067E6:  CLRF   xFD
067E8:  MOVLW  01
067EA:  MOVWF  xFE
067EC:  MOVLB  0
067EE:  CALL   48BE
....................          }else if(VelMotor==6){ 
067F2:  BRA    68AC
067F4:  MOVLB  5
067F6:  MOVF   xD7,W
067F8:  SUBLW  06
067FA:  BNZ   68AC
....................             glcd_rect(0, 29, 13, 39, YES, ON); 
067FC:  CLRF   xF9
067FE:  MOVLW  1D
06800:  MOVWF  xFA
06802:  MOVLW  0D
06804:  MOVWF  xFB
06806:  MOVLW  27
06808:  MOVWF  xFC
0680A:  MOVLW  01
0680C:  MOVWF  xFD
0680E:  MOVWF  xFE
06810:  MOVLB  0
06812:  CALL   48BE
....................             glcd_rect(15, 26, 28, 39, YES, ON); 
06816:  MOVLW  0F
06818:  MOVLB  5
0681A:  MOVWF  xF9
0681C:  MOVLW  1A
0681E:  MOVWF  xFA
06820:  MOVLW  1C
06822:  MOVWF  xFB
06824:  MOVLW  27
06826:  MOVWF  xFC
06828:  MOVLW  01
0682A:  MOVWF  xFD
0682C:  MOVWF  xFE
0682E:  MOVLB  0
06830:  CALL   48BE
....................             glcd_rect(30, 23, 43, 39, YES, ON); 
06834:  MOVLW  1E
06836:  MOVLB  5
06838:  MOVWF  xF9
0683A:  MOVLW  17
0683C:  MOVWF  xFA
0683E:  MOVLW  2B
06840:  MOVWF  xFB
06842:  MOVLW  27
06844:  MOVWF  xFC
06846:  MOVLW  01
06848:  MOVWF  xFD
0684A:  MOVWF  xFE
0684C:  MOVLB  0
0684E:  CALL   48BE
....................             glcd_rect(45, 20, 58, 39, YES, ON); 
06852:  MOVLW  2D
06854:  MOVLB  5
06856:  MOVWF  xF9
06858:  MOVLW  14
0685A:  MOVWF  xFA
0685C:  MOVLW  3A
0685E:  MOVWF  xFB
06860:  MOVLW  27
06862:  MOVWF  xFC
06864:  MOVLW  01
06866:  MOVWF  xFD
06868:  MOVWF  xFE
0686A:  MOVLB  0
0686C:  CALL   48BE
....................             glcd_rect(60, 17, 73, 39, YES, ON); 
06870:  MOVLW  3C
06872:  MOVLB  5
06874:  MOVWF  xF9
06876:  MOVLW  11
06878:  MOVWF  xFA
0687A:  MOVLW  49
0687C:  MOVWF  xFB
0687E:  MOVLW  27
06880:  MOVWF  xFC
06882:  MOVLW  01
06884:  MOVWF  xFD
06886:  MOVWF  xFE
06888:  MOVLB  0
0688A:  CALL   48BE
....................             glcd_rect(75, 14, 88, 39, YES, ON); 
0688E:  MOVLW  4B
06890:  MOVLB  5
06892:  MOVWF  xF9
06894:  MOVLW  0E
06896:  MOVWF  xFA
06898:  MOVLW  58
0689A:  MOVWF  xFB
0689C:  MOVLW  27
0689E:  MOVWF  xFC
068A0:  MOVLW  01
068A2:  MOVWF  xFD
068A4:  MOVWF  xFE
068A6:  MOVLB  0
068A8:  CALL   48BE
....................          } 
....................           
....................          if(imprimir==1){ 
068AC:  MOVLB  4
068AE:  BTFSS  x2D.6
068B0:  BRA    6A50
....................             glcd_text57(2, 12, Inflowt, 1, ON); 
068B2:  MOVLW  02
068B4:  MOVLB  5
068B6:  MOVWF  xF9
068B8:  MOVLW  0C
068BA:  MOVWF  xFA
068BC:  MOVLW  04
068BE:  MOVWF  xFC
068C0:  MOVLW  6E
068C2:  MOVWF  xFB
068C4:  MOVLW  01
068C6:  MOVWF  xFD
068C8:  MOVWF  xFE
068CA:  MOVLB  0
068CC:  CALL   498A
....................             displayTiempo(VelMotor,25,11,0,1);   
068D0:  MOVFF  5D7,5E0
068D4:  MOVLW  19
068D6:  MOVLB  5
068D8:  MOVWF  xE1
068DA:  MOVLW  0B
068DC:  MOVWF  xE2
068DE:  CLRF   xE3
068E0:  MOVLW  01
068E2:  MOVWF  xE4
068E4:  MOVLB  0
068E6:  CALL   53CA
....................             glcd_rect(0, 10, 95, 63, NO, ON); 
068EA:  MOVLB  5
068EC:  CLRF   xF9
068EE:  MOVLW  0A
068F0:  MOVWF  xFA
068F2:  MOVLW  5F
068F4:  MOVWF  xFB
068F6:  MOVLW  3F
068F8:  MOVWF  xFC
068FA:  CLRF   xFD
068FC:  MOVLW  01
068FE:  MOVWF  xFE
06900:  MOVLB  0
06902:  CALL   48BE
....................             glcd_rect(100, 10, 127, 63, NO, ON); 
06906:  MOVLW  64
06908:  MOVLB  5
0690A:  MOVWF  xF9
0690C:  MOVLW  0A
0690E:  MOVWF  xFA
06910:  MOVLW  7F
06912:  MOVWF  xFB
06914:  MOVLW  3F
06916:  MOVWF  xFC
06918:  CLRF   xFD
0691A:  MOVLW  01
0691C:  MOVWF  xFE
0691E:  MOVLB  0
06920:  CALL   48BE
....................             glcd_text57(2, 51, Downflowt, 1, ON); 
06924:  MOVLW  02
06926:  MOVLB  5
06928:  MOVWF  xF9
0692A:  MOVLW  33
0692C:  MOVWF  xFA
0692E:  MOVLW  04
06930:  MOVWF  xFC
06932:  MOVLW  73
06934:  MOVWF  xFB
06936:  MOVLW  01
06938:  MOVWF  xFD
0693A:  MOVWF  xFE
0693C:  MOVLB  0
0693E:  CALL   498A
....................             glcd_text57(2, 41, Vida_Filtro, 1, ON); 
06942:  MOVLW  02
06944:  MOVLB  5
06946:  MOVWF  xF9
06948:  MOVLW  29
0694A:  MOVWF  xFA
0694C:  MOVLW  04
0694E:  MOVWF  xFC
06950:  MOVLW  9D
06952:  MOVWF  xFB
06954:  MOVLW  01
06956:  MOVWF  xFD
06958:  MOVWF  xFE
0695A:  MOVLB  0
0695C:  CALL   498A
....................             displayTiempo(Ttrabajo[3],60,41,0,1);displayTiempo(Ttrabajo[2],67,41,0,1);displayTiempo(Ttrabajo[1],74,41,0,1);displayTiempo(Ttrabajo[0],82,41,0,1); 
06960:  MOVFF  509,5E0
06964:  MOVLW  3C
06966:  MOVLB  5
06968:  MOVWF  xE1
0696A:  MOVLW  29
0696C:  MOVWF  xE2
0696E:  CLRF   xE3
06970:  MOVLW  01
06972:  MOVWF  xE4
06974:  MOVLB  0
06976:  CALL   53CA
0697A:  MOVFF  508,5E0
0697E:  MOVLW  43
06980:  MOVLB  5
06982:  MOVWF  xE1
06984:  MOVLW  29
06986:  MOVWF  xE2
06988:  CLRF   xE3
0698A:  MOVLW  01
0698C:  MOVWF  xE4
0698E:  MOVLB  0
06990:  CALL   53CA
06994:  MOVFF  507,5E0
06998:  MOVLW  4A
0699A:  MOVLB  5
0699C:  MOVWF  xE1
0699E:  MOVLW  29
069A0:  MOVWF  xE2
069A2:  CLRF   xE3
069A4:  MOVLW  01
069A6:  MOVWF  xE4
069A8:  MOVLB  0
069AA:  CALL   53CA
069AE:  MOVFF  506,5E0
069B2:  MOVLW  52
069B4:  MOVLB  5
069B6:  MOVWF  xE1
069B8:  MOVLW  29
069BA:  MOVWF  xE2
069BC:  CLRF   xE3
069BE:  MOVLW  01
069C0:  MOVWF  xE4
069C2:  MOVLB  0
069C4:  CALL   53CA
....................             strcpy(Menus.Letra,"JPCEGH110-AC"); 
069C8:  MOVLW  04
069CA:  MOVWF  FEA
069CC:  MOVLW  17
069CE:  MOVWF  FE9
069D0:  MOVFF  FF2,5E0
069D4:  BCF    FF2.7
069D6:  MOVLW  00
069D8:  CALL   0F80
069DC:  TBLRD*-
069DE:  TBLRD*+
069E0:  MOVF   FF5,W
069E2:  MOVWF  FEE
069E4:  IORLW  00
069E6:  BNZ   69DE
069E8:  MOVLB  5
069EA:  BTFSC  xE0.7
069EC:  BSF    FF2.7
....................             displayMenu(Menus.Letra,20,0,1,1); 
069EE:  MOVLW  04
069F0:  MOVWF  xE9
069F2:  MOVLW  17
069F4:  MOVWF  xE8
069F6:  MOVLW  14
069F8:  MOVWF  xEA
069FA:  CLRF   xEB
069FC:  MOVLW  01
069FE:  MOVWF  xEC
06A00:  MOVWF  xED
06A02:  MOVLB  0
06A04:  CALL   4C1C
....................             displayfloat(Temperatura,69,50,0,1); 
06A08:  MOVLB  6
06A0A:  CLRF   x16
06A0C:  MOVFF  5D1,615
06A10:  MOVLB  0
06A12:  CALL   17C2
06A16:  MOVFF  00,5E0
06A1A:  MOVFF  01,5E1
06A1E:  MOVFF  02,5E2
06A22:  MOVFF  03,5E3
06A26:  MOVFF  03,5E7
06A2A:  MOVFF  02,5E6
06A2E:  MOVFF  01,5E5
06A32:  MOVFF  00,5E4
06A36:  MOVLW  45
06A38:  MOVLB  5
06A3A:  MOVWF  xE8
06A3C:  MOVLW  32
06A3E:  MOVWF  xE9
06A40:  CLRF   xEA
06A42:  MOVLW  01
06A44:  MOVWF  xEB
06A46:  MOVLB  0
06A48:  CALL   5956
....................             imprimir=0; 
06A4C:  MOVLB  4
06A4E:  BCF    x2D.6
....................          } 
....................                    
....................          if(flag_blower==1){ 
06A50:  BTFSS  x2D.7
06A52:  BRA    6BF8
....................             glcd_imagen(5);tiempo_trabajo=1; 
06A54:  MOVLW  05
06A56:  MOVLB  5
06A58:  MOVWF  xE0
06A5A:  MOVLB  0
06A5C:  CALL   54C6
06A60:  MOVLB  4
06A62:  BSF    x2E.6
....................             if(guardatrabajo==1){ 
06A64:  BTFSS  x2F.1
06A66:  BRA    6BEA
....................                VelocidadMotor(6); 
06A68:  MOVLW  06
06A6A:  MOVLB  5
06A6C:  MOVWF  xE0
06A6E:  MOVLB  0
06A70:  CALL   153C
....................                guardatrabajo=0; 
06A74:  MOVLB  4
06A76:  BCF    x2F.1
....................                write_eeprom(33,make8(minutos_trabajo,0)); 
06A78:  MOVFF  4E0,5E0
06A7C:  CLRF   FAA
06A7E:  MOVLW  21
06A80:  MOVWF  FA9
06A82:  MOVFF  5E0,FA8
06A86:  BCF    FA6.6
06A88:  BCF    FA6.7
06A8A:  BSF    FA6.2
06A8C:  MOVF   FF2,W
06A8E:  MOVWF  00
06A90:  BCF    FF2.7
06A92:  MOVLB  F
06A94:  MOVLW  55
06A96:  MOVWF  FA7
06A98:  MOVLW  AA
06A9A:  MOVWF  FA7
06A9C:  BSF    FA6.1
06A9E:  BTFSC  FA6.1
06AA0:  BRA    6A9E
06AA2:  BCF    FA6.2
06AA4:  MOVF   00,W
06AA6:  IORWF  FF2,F
....................                delay_ms(20); 
06AA8:  MOVLW  14
06AAA:  MOVLB  5
06AAC:  MOVWF  xF4
06AAE:  MOVLB  0
06AB0:  CALL   1514
....................                write_eeprom(34,make8(minutos_trabajo,1)); 
06AB4:  MOVFF  4E1,5E0
06AB8:  CLRF   FAA
06ABA:  MOVLW  22
06ABC:  MOVWF  FA9
06ABE:  MOVFF  5E0,FA8
06AC2:  BCF    FA6.6
06AC4:  BCF    FA6.7
06AC6:  BSF    FA6.2
06AC8:  MOVF   FF2,W
06ACA:  MOVWF  00
06ACC:  BCF    FF2.7
06ACE:  MOVLB  F
06AD0:  MOVLW  55
06AD2:  MOVWF  FA7
06AD4:  MOVLW  AA
06AD6:  MOVWF  FA7
06AD8:  BSF    FA6.1
06ADA:  BTFSC  FA6.1
06ADC:  BRA    6ADA
06ADE:  BCF    FA6.2
06AE0:  MOVF   00,W
06AE2:  IORWF  FF2,F
....................                delay_ms(20); 
06AE4:  MOVLW  14
06AE6:  MOVLB  5
06AE8:  MOVWF  xF4
06AEA:  MOVLB  0
06AEC:  CALL   1514
....................                write_eeprom(16,Ttrabajo[0]); 
06AF0:  CLRF   FAA
06AF2:  MOVLW  10
06AF4:  MOVWF  FA9
06AF6:  MOVFF  506,FA8
06AFA:  BCF    FA6.6
06AFC:  BCF    FA6.7
06AFE:  BSF    FA6.2
06B00:  MOVF   FF2,W
06B02:  MOVWF  00
06B04:  BCF    FF2.7
06B06:  MOVLB  F
06B08:  MOVLW  55
06B0A:  MOVWF  FA7
06B0C:  MOVLW  AA
06B0E:  MOVWF  FA7
06B10:  BSF    FA6.1
06B12:  BTFSC  FA6.1
06B14:  BRA    6B12
06B16:  BCF    FA6.2
06B18:  MOVF   00,W
06B1A:  IORWF  FF2,F
....................                delay_ms(20); 
06B1C:  MOVLW  14
06B1E:  MOVLB  5
06B20:  MOVWF  xF4
06B22:  MOVLB  0
06B24:  CALL   1514
....................                write_eeprom(17,Ttrabajo[1]); 
06B28:  CLRF   FAA
06B2A:  MOVLW  11
06B2C:  MOVWF  FA9
06B2E:  MOVFF  507,FA8
06B32:  BCF    FA6.6
06B34:  BCF    FA6.7
06B36:  BSF    FA6.2
06B38:  MOVF   FF2,W
06B3A:  MOVWF  00
06B3C:  BCF    FF2.7
06B3E:  MOVLB  F
06B40:  MOVLW  55
06B42:  MOVWF  FA7
06B44:  MOVLW  AA
06B46:  MOVWF  FA7
06B48:  BSF    FA6.1
06B4A:  BTFSC  FA6.1
06B4C:  BRA    6B4A
06B4E:  BCF    FA6.2
06B50:  MOVF   00,W
06B52:  IORWF  FF2,F
....................                delay_ms(20); 
06B54:  MOVLW  14
06B56:  MOVLB  5
06B58:  MOVWF  xF4
06B5A:  MOVLB  0
06B5C:  CALL   1514
....................                write_eeprom(18,Ttrabajo[2]); 
06B60:  CLRF   FAA
06B62:  MOVLW  12
06B64:  MOVWF  FA9
06B66:  MOVFF  508,FA8
06B6A:  BCF    FA6.6
06B6C:  BCF    FA6.7
06B6E:  BSF    FA6.2
06B70:  MOVF   FF2,W
06B72:  MOVWF  00
06B74:  BCF    FF2.7
06B76:  MOVLB  F
06B78:  MOVLW  55
06B7A:  MOVWF  FA7
06B7C:  MOVLW  AA
06B7E:  MOVWF  FA7
06B80:  BSF    FA6.1
06B82:  BTFSC  FA6.1
06B84:  BRA    6B82
06B86:  BCF    FA6.2
06B88:  MOVF   00,W
06B8A:  IORWF  FF2,F
....................                delay_ms(20); 
06B8C:  MOVLW  14
06B8E:  MOVLB  5
06B90:  MOVWF  xF4
06B92:  MOVLB  0
06B94:  CALL   1514
....................                write_eeprom(19,Ttrabajo[3]); 
06B98:  CLRF   FAA
06B9A:  MOVLW  13
06B9C:  MOVWF  FA9
06B9E:  MOVFF  509,FA8
06BA2:  BCF    FA6.6
06BA4:  BCF    FA6.7
06BA6:  BSF    FA6.2
06BA8:  MOVF   FF2,W
06BAA:  MOVWF  00
06BAC:  BCF    FF2.7
06BAE:  MOVLB  F
06BB0:  MOVLW  55
06BB2:  MOVWF  FA7
06BB4:  MOVLW  AA
06BB6:  MOVWF  FA7
06BB8:  BSF    FA6.1
06BBA:  BTFSC  FA6.1
06BBC:  BRA    6BBA
06BBE:  BCF    FA6.2
06BC0:  MOVF   00,W
06BC2:  IORWF  FF2,F
....................                delay_ms(20); 
06BC4:  MOVLW  14
06BC6:  MOVLB  5
06BC8:  MOVWF  xF4
06BCA:  MOVLB  0
06BCC:  CALL   1514
....................                glcd_init(ON);             //Inicializa la glcd 
06BD0:  MOVLW  01
06BD2:  MOVLB  5
06BD4:  MOVWF  xE0
06BD6:  MOVLB  0
06BD8:  CALL   171A
....................                glcd_fillScreen(OFF);      //Limpia la pantalla 
06BDC:  MOVLB  5
06BDE:  CLRF   xE8
06BE0:  MOVLB  0
06BE2:  CALL   1608
....................                glcd_update();   
06BE6:  CALL   1662
....................             } 
....................             VelocidadMotor(VelMotor); 
06BEA:  MOVFF  5D7,5E0
06BEE:  MOVLB  0
06BF0:  CALL   153C
....................          }else{ 
06BF4:  BRA    6D90
06BF6:  MOVLB  4
....................             Filtro_Downflow=0; 
06BF8:  MOVLB  5
06BFA:  CLRF   x1D
06BFC:  CLRF   x1C
06BFE:  CLRF   x1B
06C00:  CLRF   x1A
....................             glcd_rect(102, 45, 126, 62, YES, OFF);tiempo_trabajo=0;VelocidadMotor(0); 
06C02:  MOVLW  66
06C04:  MOVWF  xF9
06C06:  MOVLW  2D
06C08:  MOVWF  xFA
06C0A:  MOVLW  7E
06C0C:  MOVWF  xFB
06C0E:  MOVLW  3E
06C10:  MOVWF  xFC
06C12:  MOVLW  01
06C14:  MOVWF  xFD
06C16:  CLRF   xFE
06C18:  MOVLB  0
06C1A:  CALL   48BE
06C1E:  MOVLB  4
06C20:  BCF    x2E.6
06C22:  MOVLB  5
06C24:  CLRF   xE0
06C26:  MOVLB  0
06C28:  CALL   153C
....................             if(guardatrabajo==0){ 
06C2C:  MOVLB  4
06C2E:  BTFSC  x2F.1
06C30:  BRA    6D92
....................                guardatrabajo=1; 
06C32:  BSF    x2F.1
....................                write_eeprom(33,make8(minutos_trabajo,0)); 
06C34:  MOVFF  4E0,5E0
06C38:  CLRF   FAA
06C3A:  MOVLW  21
06C3C:  MOVWF  FA9
06C3E:  MOVFF  5E0,FA8
06C42:  BCF    FA6.6
06C44:  BCF    FA6.7
06C46:  BSF    FA6.2
06C48:  MOVF   FF2,W
06C4A:  MOVWF  00
06C4C:  BCF    FF2.7
06C4E:  MOVLB  F
06C50:  MOVLW  55
06C52:  MOVWF  FA7
06C54:  MOVLW  AA
06C56:  MOVWF  FA7
06C58:  BSF    FA6.1
06C5A:  BTFSC  FA6.1
06C5C:  BRA    6C5A
06C5E:  BCF    FA6.2
06C60:  MOVF   00,W
06C62:  IORWF  FF2,F
....................                delay_ms(20); 
06C64:  MOVLW  14
06C66:  MOVLB  5
06C68:  MOVWF  xF4
06C6A:  MOVLB  0
06C6C:  CALL   1514
....................                write_eeprom(34,make8(minutos_trabajo,1)); 
06C70:  MOVFF  4E1,5E0
06C74:  CLRF   FAA
06C76:  MOVLW  22
06C78:  MOVWF  FA9
06C7A:  MOVFF  5E0,FA8
06C7E:  BCF    FA6.6
06C80:  BCF    FA6.7
06C82:  BSF    FA6.2
06C84:  MOVF   FF2,W
06C86:  MOVWF  00
06C88:  BCF    FF2.7
06C8A:  MOVLB  F
06C8C:  MOVLW  55
06C8E:  MOVWF  FA7
06C90:  MOVLW  AA
06C92:  MOVWF  FA7
06C94:  BSF    FA6.1
06C96:  BTFSC  FA6.1
06C98:  BRA    6C96
06C9A:  BCF    FA6.2
06C9C:  MOVF   00,W
06C9E:  IORWF  FF2,F
....................                delay_ms(20); 
06CA0:  MOVLW  14
06CA2:  MOVLB  5
06CA4:  MOVWF  xF4
06CA6:  MOVLB  0
06CA8:  CALL   1514
....................                write_eeprom(16,Ttrabajo[0]); 
06CAC:  CLRF   FAA
06CAE:  MOVLW  10
06CB0:  MOVWF  FA9
06CB2:  MOVFF  506,FA8
06CB6:  BCF    FA6.6
06CB8:  BCF    FA6.7
06CBA:  BSF    FA6.2
06CBC:  MOVF   FF2,W
06CBE:  MOVWF  00
06CC0:  BCF    FF2.7
06CC2:  MOVLB  F
06CC4:  MOVLW  55
06CC6:  MOVWF  FA7
06CC8:  MOVLW  AA
06CCA:  MOVWF  FA7
06CCC:  BSF    FA6.1
06CCE:  BTFSC  FA6.1
06CD0:  BRA    6CCE
06CD2:  BCF    FA6.2
06CD4:  MOVF   00,W
06CD6:  IORWF  FF2,F
....................                delay_ms(20); 
06CD8:  MOVLW  14
06CDA:  MOVLB  5
06CDC:  MOVWF  xF4
06CDE:  MOVLB  0
06CE0:  CALL   1514
....................                write_eeprom(17,Ttrabajo[1]); 
06CE4:  CLRF   FAA
06CE6:  MOVLW  11
06CE8:  MOVWF  FA9
06CEA:  MOVFF  507,FA8
06CEE:  BCF    FA6.6
06CF0:  BCF    FA6.7
06CF2:  BSF    FA6.2
06CF4:  MOVF   FF2,W
06CF6:  MOVWF  00
06CF8:  BCF    FF2.7
06CFA:  MOVLB  F
06CFC:  MOVLW  55
06CFE:  MOVWF  FA7
06D00:  MOVLW  AA
06D02:  MOVWF  FA7
06D04:  BSF    FA6.1
06D06:  BTFSC  FA6.1
06D08:  BRA    6D06
06D0A:  BCF    FA6.2
06D0C:  MOVF   00,W
06D0E:  IORWF  FF2,F
....................                delay_ms(20); 
06D10:  MOVLW  14
06D12:  MOVLB  5
06D14:  MOVWF  xF4
06D16:  MOVLB  0
06D18:  CALL   1514
....................                write_eeprom(18,Ttrabajo[2]); 
06D1C:  CLRF   FAA
06D1E:  MOVLW  12
06D20:  MOVWF  FA9
06D22:  MOVFF  508,FA8
06D26:  BCF    FA6.6
06D28:  BCF    FA6.7
06D2A:  BSF    FA6.2
06D2C:  MOVF   FF2,W
06D2E:  MOVWF  00
06D30:  BCF    FF2.7
06D32:  MOVLB  F
06D34:  MOVLW  55
06D36:  MOVWF  FA7
06D38:  MOVLW  AA
06D3A:  MOVWF  FA7
06D3C:  BSF    FA6.1
06D3E:  BTFSC  FA6.1
06D40:  BRA    6D3E
06D42:  BCF    FA6.2
06D44:  MOVF   00,W
06D46:  IORWF  FF2,F
....................                delay_ms(20); 
06D48:  MOVLW  14
06D4A:  MOVLB  5
06D4C:  MOVWF  xF4
06D4E:  MOVLB  0
06D50:  CALL   1514
....................                write_eeprom(19,Ttrabajo[3]); 
06D54:  CLRF   FAA
06D56:  MOVLW  13
06D58:  MOVWF  FA9
06D5A:  MOVFF  509,FA8
06D5E:  BCF    FA6.6
06D60:  BCF    FA6.7
06D62:  BSF    FA6.2
06D64:  MOVF   FF2,W
06D66:  MOVWF  00
06D68:  BCF    FF2.7
06D6A:  MOVLB  F
06D6C:  MOVLW  55
06D6E:  MOVWF  FA7
06D70:  MOVLW  AA
06D72:  MOVWF  FA7
06D74:  BSF    FA6.1
06D76:  BTFSC  FA6.1
06D78:  BRA    6D76
06D7A:  BCF    FA6.2
06D7C:  MOVF   00,W
06D7E:  IORWF  FF2,F
....................                delay_ms(20); 
06D80:  MOVLW  14
06D82:  MOVLB  5
06D84:  MOVWF  xF4
06D86:  MOVLB  0
06D88:  CALL   1514
....................                //glcd_init(ON);             //Inicializa la glcd 
....................                //glcd_fillScreen(OFF);      //Limpia la pantalla 
....................                glcd_update();   
06D8C:  CALL   1662
06D90:  MOVLB  4
....................             } 
....................          } 
....................           
....................          if(flag_luz==1){ 
06D92:  BTFSS  x2E.1
06D94:  BRA    6DAA
....................             glcd_imagen(3);LuzBlanca_on; 
06D96:  MOVLW  03
06D98:  MOVLB  5
06D9A:  MOVWF  xE0
06D9C:  MOVLB  0
06D9E:  CALL   54C6
06DA2:  BSF    F8B.0
06DA4:  BCF    F94.0
....................          }else{ 
06DA6:  BRA    6DCC
06DA8:  MOVLB  4
....................             glcd_rect(102, 14, 126, 28, YES, OFF);LuzBlanca_off; 
06DAA:  MOVLW  66
06DAC:  MOVLB  5
06DAE:  MOVWF  xF9
06DB0:  MOVLW  0E
06DB2:  MOVWF  xFA
06DB4:  MOVLW  7E
06DB6:  MOVWF  xFB
06DB8:  MOVLW  1C
06DBA:  MOVWF  xFC
06DBC:  MOVLW  01
06DBE:  MOVWF  xFD
06DC0:  CLRF   xFE
06DC2:  MOVLB  0
06DC4:  CALL   48BE
06DC8:  BCF    F8B.0
06DCA:  BCF    F94.0
....................          } 
....................           
....................       if(tleft>=30){ 
06DCC:  MOVLB  4
06DCE:  MOVF   xEB,F
06DD0:  BNZ   6DD8
06DD2:  MOVF   xEA,W
06DD4:  SUBLW  1D
06DD6:  BC    6DF0
....................          if(Flanco4 == 0){ 
06DD8:  BTFSC  x2D.4
06DDA:  BRA    6DEE
....................             Flanco4 = 1;delay_ms(3);flag_blower=!flag_blower; 
06DDC:  BSF    x2D.4
06DDE:  MOVLW  03
06DE0:  MOVLB  5
06DE2:  MOVWF  xF4
06DE4:  MOVLB  0
06DE6:  CALL   1514
06DEA:  MOVLB  4
06DEC:  BTG    x2D.7
....................          } 
....................       }else{ 
06DEE:  BRA    6DF2
....................          Flanco4 = 0; 
06DF0:  BCF    x2D.4
....................       } 
....................           
....................       if(tright>=30){//Si oprime boton de Blower. 
06DF2:  MOVF   xE9,F
06DF4:  BNZ   6DFC
06DF6:  MOVF   xE8,W
06DF8:  SUBLW  1D
06DFA:  BC    6E22
....................          if(Flanco3 == 0){ 
06DFC:  BTFSC  x2D.3
06DFE:  BRA    6E20
....................             Flanco3 = 1;delay_ms(3);Menu=33;glcd_fillScreen(OFF);      //Limpia la pantalla 
06E00:  BSF    x2D.3
06E02:  MOVLW  03
06E04:  MOVLB  5
06E06:  MOVWF  xF4
06E08:  MOVLB  0
06E0A:  CALL   1514
06E0E:  MOVLW  21
06E10:  MOVLB  4
06E12:  MOVWF  xC8
06E14:  MOVLB  5
06E16:  CLRF   xE8
06E18:  MOVLB  0
06E1A:  CALL   1608
06E1E:  MOVLB  4
....................          } 
....................       }else{ 
06E20:  BRA    6E24
....................          Flanco3 = 0; 
06E22:  BCF    x2D.3
....................       } 
....................              
....................       if(tdown>=30){//Si oprime boton de Luz Blanca. 
06E24:  MOVF   xE7,F
06E26:  BNZ   6E2E
06E28:  MOVF   xE6,W
06E2A:  SUBLW  1D
06E2C:  BC    6E46
....................          if(Flanco5 == 0){ 
06E2E:  BTFSC  x2D.5
06E30:  BRA    6E44
....................             Flanco5 = 1;delay_ms(3);flag_luz=!flag_luz; 
06E32:  BSF    x2D.5
06E34:  MOVLW  03
06E36:  MOVLB  5
06E38:  MOVWF  xF4
06E3A:  MOVLB  0
06E3C:  CALL   1514
06E40:  MOVLB  4
06E42:  BTG    x2E.1
....................          } 
....................       }else{ 
06E44:  BRA    6E48
....................          Flanco5 = 0; 
06E46:  BCF    x2D.5
....................       } 
....................        
....................       if(tup>=30){//Si oprime boton de Toma. 
06E48:  MOVF   xE5,F
06E4A:  BNZ   6E52
06E4C:  MOVF   xE4,W
06E4E:  SUBLW  1D
06E50:  BC    6E96
....................          delay_ms(20); 
06E52:  MOVLW  14
06E54:  MOVLB  5
06E56:  MOVWF  xF4
06E58:  MOVLB  0
06E5A:  CALL   1514
....................          if(UP){//Si oprime boton de Toma. 
06E5E:  BSF    F92.5
06E60:  BTFSC  F80.5
06E62:  BRA    6E94
....................             delay_ms(5);Menu=3;//glcd_fillScreen(OFF); 
06E64:  MOVLW  05
06E66:  MOVLB  5
06E68:  MOVWF  xF4
06E6A:  MOVLB  0
06E6C:  CALL   1514
06E70:  MOVLW  03
06E72:  MOVLB  4
06E74:  MOVWF  xC8
....................             glcd_init(ON);             //Inicializa la glcd 
06E76:  MOVLW  01
06E78:  MOVLB  5
06E7A:  MOVWF  xE0
06E7C:  MOVLB  0
06E7E:  CALL   171A
....................             glcd_fillScreen(OFF);      //Limpia la pantalla 
06E82:  MOVLB  5
06E84:  CLRF   xE8
06E86:  MOVLB  0
06E88:  CALL   1608
....................             glcd_update();   
06E8C:  CALL   1662
....................             LuzBlanca_off; 
06E90:  BCF    F8B.0
06E92:  BCF    F94.0
06E94:  MOVLB  4
....................          } 
....................       } 
....................              
....................     } 
.................... //_--------------------------------------------------------------------------------------------------------------------------------------------------------        
....................  
.................... //_-------------------------------------------------------------------------------------------------------------------------------------------------------- 
....................       if(Menu==3){ //Menu Principal. 
06E96:  MOVF   xC8,W
06E98:  SUBLW  03
06E9A:  BTFSS  FD8.2
06E9C:  BRA    7184
....................              
....................       strcpy(Menus.Letra,"Menu"); 
06E9E:  MOVLW  04
06EA0:  MOVWF  FEA
06EA2:  MOVLW  17
06EA4:  MOVWF  FE9
06EA6:  MOVFF  FF2,5E0
06EAA:  BCF    FF2.7
06EAC:  MOVLW  00
06EAE:  MOVLB  0
06EB0:  CALL   0FAC
06EB4:  TBLRD*-
06EB6:  TBLRD*+
06EB8:  MOVF   FF5,W
06EBA:  MOVWF  FEE
06EBC:  IORLW  00
06EBE:  BNZ   6EB6
06EC0:  MOVLB  5
06EC2:  BTFSC  xE0.7
06EC4:  BSF    FF2.7
....................       displayMenu(Menus.Letra,40,0,1,2); 
06EC6:  MOVLW  04
06EC8:  MOVWF  xE9
06ECA:  MOVLW  17
06ECC:  MOVWF  xE8
06ECE:  MOVLW  28
06ED0:  MOVWF  xEA
06ED2:  CLRF   xEB
06ED4:  MOVLW  01
06ED6:  MOVWF  xEC
06ED8:  MOVLW  02
06EDA:  MOVWF  xED
06EDC:  MOVLB  0
06EDE:  CALL   4C1C
....................        
....................       if(Opcion==1){ 
06EE2:  MOVLB  4
06EE4:  DECFSZ xCA,W
06EE6:  BRA    6F2E
....................          strcpy(Menus.Letra,"Ajustes"); 
06EE8:  MOVLW  04
06EEA:  MOVWF  FEA
06EEC:  MOVLW  17
06EEE:  MOVWF  FE9
06EF0:  MOVFF  FF2,5E0
06EF4:  BCF    FF2.7
06EF6:  MOVLW  00
06EF8:  MOVLB  0
06EFA:  CALL   0FD0
06EFE:  TBLRD*-
06F00:  TBLRD*+
06F02:  MOVF   FF5,W
06F04:  MOVWF  FEE
06F06:  IORLW  00
06F08:  BNZ   6F00
06F0A:  MOVLB  5
06F0C:  BTFSC  xE0.7
06F0E:  BSF    FF2.7
....................          displayMenu(Menus.Letra,0,19,1,1); 
06F10:  MOVLW  04
06F12:  MOVWF  xE9
06F14:  MOVLW  17
06F16:  MOVWF  xE8
06F18:  CLRF   xEA
06F1A:  MOVLW  13
06F1C:  MOVWF  xEB
06F1E:  MOVLW  01
06F20:  MOVWF  xEC
06F22:  MOVWF  xED
06F24:  MOVLB  0
06F26:  CALL   4C1C
....................       }else{ 
06F2A:  BRA    6F70
06F2C:  MOVLB  4
....................          strcpy(Menus.Letra,"Ajustes"); 
06F2E:  MOVLW  04
06F30:  MOVWF  FEA
06F32:  MOVLW  17
06F34:  MOVWF  FE9
06F36:  MOVFF  FF2,5E0
06F3A:  BCF    FF2.7
06F3C:  MOVLW  00
06F3E:  MOVLB  0
06F40:  CALL   0FD0
06F44:  TBLRD*-
06F46:  TBLRD*+
06F48:  MOVF   FF5,W
06F4A:  MOVWF  FEE
06F4C:  IORLW  00
06F4E:  BNZ   6F46
06F50:  MOVLB  5
06F52:  BTFSC  xE0.7
06F54:  BSF    FF2.7
....................          displayMenu(Menus.Letra,0,19,0,1); 
06F56:  MOVLW  04
06F58:  MOVWF  xE9
06F5A:  MOVLW  17
06F5C:  MOVWF  xE8
06F5E:  CLRF   xEA
06F60:  MOVLW  13
06F62:  MOVWF  xEB
06F64:  CLRF   xEC
06F66:  MOVLW  01
06F68:  MOVWF  xED
06F6A:  MOVLB  0
06F6C:  CALL   4C1C
....................       } 
....................           
....................       if(Opcion==2){ 
06F70:  MOVLB  4
06F72:  MOVF   xCA,W
06F74:  SUBLW  02
06F76:  BNZ   6FBE
....................          strcpy(Menus.Letra,"Cambio de Clave"); 
06F78:  MOVLW  04
06F7A:  MOVWF  FEA
06F7C:  MOVLW  17
06F7E:  MOVWF  FE9
06F80:  MOVFF  FF2,5E0
06F84:  BCF    FF2.7
06F86:  MOVLW  00
06F88:  MOVLB  0
06F8A:  CALL   0FF6
06F8E:  TBLRD*-
06F90:  TBLRD*+
06F92:  MOVF   FF5,W
06F94:  MOVWF  FEE
06F96:  IORLW  00
06F98:  BNZ   6F90
06F9A:  MOVLB  5
06F9C:  BTFSC  xE0.7
06F9E:  BSF    FF2.7
....................          displayMenu(Menus.Letra,0,35,1,1); 
06FA0:  MOVLW  04
06FA2:  MOVWF  xE9
06FA4:  MOVLW  17
06FA6:  MOVWF  xE8
06FA8:  CLRF   xEA
06FAA:  MOVLW  23
06FAC:  MOVWF  xEB
06FAE:  MOVLW  01
06FB0:  MOVWF  xEC
06FB2:  MOVWF  xED
06FB4:  MOVLB  0
06FB6:  CALL   4C1C
....................       }else{ 
06FBA:  BRA    7000
06FBC:  MOVLB  4
....................          strcpy(Menus.Letra,"Cambio de Clave"); 
06FBE:  MOVLW  04
06FC0:  MOVWF  FEA
06FC2:  MOVLW  17
06FC4:  MOVWF  FE9
06FC6:  MOVFF  FF2,5E0
06FCA:  BCF    FF2.7
06FCC:  MOVLW  00
06FCE:  MOVLB  0
06FD0:  CALL   0FF6
06FD4:  TBLRD*-
06FD6:  TBLRD*+
06FD8:  MOVF   FF5,W
06FDA:  MOVWF  FEE
06FDC:  IORLW  00
06FDE:  BNZ   6FD6
06FE0:  MOVLB  5
06FE2:  BTFSC  xE0.7
06FE4:  BSF    FF2.7
....................          displayMenu(Menus.Letra,0,35,0,1); 
06FE6:  MOVLW  04
06FE8:  MOVWF  xE9
06FEA:  MOVLW  17
06FEC:  MOVWF  xE8
06FEE:  CLRF   xEA
06FF0:  MOVLW  23
06FF2:  MOVWF  xEB
06FF4:  CLRF   xEC
06FF6:  MOVLW  01
06FF8:  MOVWF  xED
06FFA:  MOVLB  0
06FFC:  CALL   4C1C
....................       } 
....................           
....................       if(Opcion==3){ 
07000:  MOVLB  4
07002:  MOVF   xCA,W
07004:  SUBLW  03
07006:  BNZ   704E
....................          strcpy(Menus.Letra,"Modo"); 
07008:  MOVLW  04
0700A:  MOVWF  FEA
0700C:  MOVLW  17
0700E:  MOVWF  FE9
07010:  MOVFF  FF2,5E0
07014:  BCF    FF2.7
07016:  MOVLW  00
07018:  MOVLB  0
0701A:  CALL   1024
0701E:  TBLRD*-
07020:  TBLRD*+
07022:  MOVF   FF5,W
07024:  MOVWF  FEE
07026:  IORLW  00
07028:  BNZ   7020
0702A:  MOVLB  5
0702C:  BTFSC  xE0.7
0702E:  BSF    FF2.7
....................          displayMenu(Menus.Letra,0,51,1,1); 
07030:  MOVLW  04
07032:  MOVWF  xE9
07034:  MOVLW  17
07036:  MOVWF  xE8
07038:  CLRF   xEA
0703A:  MOVLW  33
0703C:  MOVWF  xEB
0703E:  MOVLW  01
07040:  MOVWF  xEC
07042:  MOVWF  xED
07044:  MOVLB  0
07046:  CALL   4C1C
....................       }else{ 
0704A:  BRA    7090
0704C:  MOVLB  4
....................          strcpy(Menus.Letra,"Modo"); 
0704E:  MOVLW  04
07050:  MOVWF  FEA
07052:  MOVLW  17
07054:  MOVWF  FE9
07056:  MOVFF  FF2,5E0
0705A:  BCF    FF2.7
0705C:  MOVLW  00
0705E:  MOVLB  0
07060:  CALL   1024
07064:  TBLRD*-
07066:  TBLRD*+
07068:  MOVF   FF5,W
0706A:  MOVWF  FEE
0706C:  IORLW  00
0706E:  BNZ   7066
07070:  MOVLB  5
07072:  BTFSC  xE0.7
07074:  BSF    FF2.7
....................          displayMenu(Menus.Letra,0,51,0,1); 
07076:  MOVLW  04
07078:  MOVWF  xE9
0707A:  MOVLW  17
0707C:  MOVWF  xE8
0707E:  CLRF   xEA
07080:  MOVLW  33
07082:  MOVWF  xEB
07084:  CLRF   xEC
07086:  MOVLW  01
07088:  MOVWF  xED
0708A:  MOVLB  0
0708C:  CALL   4C1C
....................       } 
....................       glcd_update();  
07090:  CALL   1662
....................        
....................       if(w==0){ 
07094:  MOVLB  4
07096:  BTFSC  x2E.3
07098:  BRA    70B4
....................          delay_ms(500);w=1; 
0709A:  MOVLW  02
0709C:  MOVLB  5
0709E:  MOVWF  xE0
070A0:  MOVLW  FA
070A2:  MOVWF  xF4
070A4:  MOVLB  0
070A6:  CALL   1514
070AA:  MOVLB  5
070AC:  DECFSZ xE0,F
070AE:  BRA    70A0
070B0:  MOVLB  4
070B2:  BSF    x2E.3
....................       } 
....................           
....................       if(UP){//Si oprime hacia arriba         
070B4:  BSF    F92.5
070B6:  BTFSC  F80.5
070B8:  BRA    70D2
....................          if(Flanco == 0){ 
070BA:  BTFSC  x2D.0
070BC:  BRA    70D0
....................             Flanco = 1;delay_ms(30);Opcion--; 
070BE:  BSF    x2D.0
070C0:  MOVLW  1E
070C2:  MOVLB  5
070C4:  MOVWF  xF4
070C6:  MOVLB  0
070C8:  CALL   1514
070CC:  MOVLB  4
070CE:  DECF   xCA,F
....................          } 
....................       }else{ 
070D0:  BRA    70D4
....................          Flanco = 0; 
070D2:  BCF    x2D.0
....................       } 
....................              
....................       if(DOWN){//Si oprime hacia abajo 
070D4:  BSF    F96.0
070D6:  BTFSC  F84.0
070D8:  BRA    70F2
....................          if(Flanco2 == 0){ 
070DA:  BTFSC  x2D.2
070DC:  BRA    70F0
....................             Flanco2 = 1;delay_ms(30);Opcion++; 
070DE:  BSF    x2D.2
070E0:  MOVLW  1E
070E2:  MOVLB  5
070E4:  MOVWF  xF4
070E6:  MOVLB  0
070E8:  CALL   1514
070EC:  MOVLB  4
070EE:  INCF   xCA,F
....................          } 
....................       }else{ 
070F0:  BRA    70F4
....................          Flanco2 = 0; 
070F2:  BCF    x2D.2
....................       } 
....................              
....................       if(RIGHT){//Si oprime SET 
070F4:  BSF    F96.1
070F6:  BTFSC  F84.1
070F8:  BRA    7142
....................          if(Flanco1 == 0){ 
070FA:  BTFSC  x2D.1
070FC:  BRA    7140
....................             Flanco1 = 1;delay_ms(500);Menu=Opcion+3;Opcion=1;glcd_fillscreen(OFF);unidad=1; 
070FE:  BSF    x2D.1
07100:  MOVLW  02
07102:  MOVLB  5
07104:  MOVWF  xE0
07106:  MOVLW  FA
07108:  MOVWF  xF4
0710A:  MOVLB  0
0710C:  CALL   1514
07110:  MOVLB  5
07112:  DECFSZ xE0,F
07114:  BRA    7106
07116:  MOVLW  03
07118:  MOVLB  4
0711A:  ADDWF  xCA,W
0711C:  MOVWF  xC8
0711E:  MOVLW  01
07120:  MOVWF  xCA
07122:  MOVLB  5
07124:  CLRF   xE8
07126:  MOVLB  0
07128:  CALL   1608
0712C:  MOVLW  01
0712E:  MOVLB  4
07130:  MOVWF  xC9
....................             Contrasena[0]=0;Contrasena[1]=0;Contrasena[2]=0;Contrasena[3]=0;n=0; 
07132:  MOVLB  5
07134:  CLRF   x0A
07136:  CLRF   x0B
07138:  CLRF   x0C
0713A:  CLRF   x0D
0713C:  MOVLB  4
0713E:  BCF    x2F.3
....................          } 
....................       }else{ 
07140:  BRA    7144
....................          Flanco1 = 0; 
07142:  BCF    x2D.1
....................       } 
....................              
....................       if(LEFT){//Si oprime boton de Toma. 
07144:  BSF    F96.2
07146:  BTFSC  F84.2
07148:  BRA    7172
....................          delay_ms(700);Menu=2;glcd_fillscreen(OFF); 
0714A:  MOVLW  04
0714C:  MOVLB  5
0714E:  MOVWF  xE0
07150:  MOVLW  AF
07152:  MOVWF  xF4
07154:  MOVLB  0
07156:  CALL   1514
0715A:  MOVLB  5
0715C:  DECFSZ xE0,F
0715E:  BRA    7150
07160:  MOVLW  02
07162:  MOVLB  4
07164:  MOVWF  xC8
07166:  MOVLB  5
07168:  CLRF   xE8
0716A:  MOVLB  0
0716C:  CALL   1608
07170:  MOVLB  4
....................       } 
....................              
....................       if(Opcion>3) 
07172:  MOVF   xCA,W
07174:  SUBLW  03
07176:  BC    717C
....................          Opcion=1; 
07178:  MOVLW  01
0717A:  MOVWF  xCA
....................       if(Opcion<1) 
0717C:  MOVF   xCA,F
0717E:  BNZ   7184
....................          Opcion=3; 
07180:  MOVLW  03
07182:  MOVWF  xCA
....................     } 
.................... //_--------------------------------------------------------------------------------------------------------------------------------------------------------        
....................  
.................... //_-------------------------------------------------------------------------------------------------------------------------------------------------------- 
....................       if(Menu==4){ //Menu de Ajustes. 
07184:  MOVF   xC8,W
07186:  SUBLW  04
07188:  BTFSS  FD8.2
0718A:  BRA    743A
....................        
....................       strcpy(Menus.Letra,"Ajustes"); 
0718C:  MOVLW  04
0718E:  MOVWF  FEA
07190:  MOVLW  17
07192:  MOVWF  FE9
07194:  MOVFF  FF2,5E0
07198:  BCF    FF2.7
0719A:  MOVLW  00
0719C:  MOVLB  0
0719E:  CALL   0FD0
071A2:  TBLRD*-
071A4:  TBLRD*+
071A6:  MOVF   FF5,W
071A8:  MOVWF  FEE
071AA:  IORLW  00
071AC:  BNZ   71A4
071AE:  MOVLB  5
071B0:  BTFSC  xE0.7
071B2:  BSF    FF2.7
....................       displayMenu(Menus.Letra,0,0,1,2); 
071B4:  MOVLW  04
071B6:  MOVWF  xE9
071B8:  MOVLW  17
071BA:  MOVWF  xE8
071BC:  CLRF   xEA
071BE:  CLRF   xEB
071C0:  MOVLW  01
071C2:  MOVWF  xEC
071C4:  MOVLW  02
071C6:  MOVWF  xED
071C8:  MOVLB  0
071CA:  CALL   4C1C
....................        
....................       if(Opcion==1)    
071CE:  MOVLB  4
071D0:  DECFSZ xCA,W
071D2:  BRA    721A
....................          {strcpy(Menus.Letra,"Tiempo Purga"); 
071D4:  MOVLW  04
071D6:  MOVWF  FEA
071D8:  MOVLW  17
071DA:  MOVWF  FE9
071DC:  MOVFF  FF2,5E0
071E0:  BCF    FF2.7
071E2:  MOVLW  00
071E4:  MOVLB  0
071E6:  CALL   1048
071EA:  TBLRD*-
071EC:  TBLRD*+
071EE:  MOVF   FF5,W
071F0:  MOVWF  FEE
071F2:  IORLW  00
071F4:  BNZ   71EC
071F6:  MOVLB  5
071F8:  BTFSC  xE0.7
071FA:  BSF    FF2.7
....................          displayMenu(Menus.Letra,0,20,1,1);} 
071FC:  MOVLW  04
071FE:  MOVWF  xE9
07200:  MOVLW  17
07202:  MOVWF  xE8
07204:  CLRF   xEA
07206:  MOVLW  14
07208:  MOVWF  xEB
0720A:  MOVLW  01
0720C:  MOVWF  xEC
0720E:  MOVWF  xED
07210:  MOVLB  0
07212:  CALL   4C1C
....................       else 
07216:  BRA    725C
07218:  MOVLB  4
....................          {strcpy(Menus.Letra,"Tiempo Purga"); 
0721A:  MOVLW  04
0721C:  MOVWF  FEA
0721E:  MOVLW  17
07220:  MOVWF  FE9
07222:  MOVFF  FF2,5E0
07226:  BCF    FF2.7
07228:  MOVLW  00
0722A:  MOVLB  0
0722C:  CALL   1048
07230:  TBLRD*-
07232:  TBLRD*+
07234:  MOVF   FF5,W
07236:  MOVWF  FEE
07238:  IORLW  00
0723A:  BNZ   7232
0723C:  MOVLB  5
0723E:  BTFSC  xE0.7
07240:  BSF    FF2.7
....................          displayMenu(Menus.Letra,0,20,0,1);}              
07242:  MOVLW  04
07244:  MOVWF  xE9
07246:  MOVLW  17
07248:  MOVWF  xE8
0724A:  CLRF   xEA
0724C:  MOVLW  14
0724E:  MOVWF  xEB
07250:  CLRF   xEC
07252:  MOVLW  01
07254:  MOVWF  xED
07256:  MOVLB  0
07258:  CALL   4C1C
....................        
....................       if(Opcion==2)    
0725C:  MOVLB  4
0725E:  MOVF   xCA,W
07260:  SUBLW  02
07262:  BNZ   72AA
....................          {strcpy(Menus.Letra,"Tiempo Post-Purga"); 
07264:  MOVLW  04
07266:  MOVWF  FEA
07268:  MOVLW  17
0726A:  MOVWF  FE9
0726C:  MOVFF  FF2,5E0
07270:  BCF    FF2.7
07272:  MOVLW  00
07274:  MOVLB  0
07276:  CALL   1074
0727A:  TBLRD*-
0727C:  TBLRD*+
0727E:  MOVF   FF5,W
07280:  MOVWF  FEE
07282:  IORLW  00
07284:  BNZ   727C
07286:  MOVLB  5
07288:  BTFSC  xE0.7
0728A:  BSF    FF2.7
....................          displayMenu(Menus.Letra,0,35,1,1);} 
0728C:  MOVLW  04
0728E:  MOVWF  xE9
07290:  MOVLW  17
07292:  MOVWF  xE8
07294:  CLRF   xEA
07296:  MOVLW  23
07298:  MOVWF  xEB
0729A:  MOVLW  01
0729C:  MOVWF  xEC
0729E:  MOVWF  xED
072A0:  MOVLB  0
072A2:  CALL   4C1C
....................       else 
072A6:  BRA    72EC
072A8:  MOVLB  4
....................          {strcpy(Menus.Letra,"Tiempo Post-Purga"); 
072AA:  MOVLW  04
072AC:  MOVWF  FEA
072AE:  MOVLW  17
072B0:  MOVWF  FE9
072B2:  MOVFF  FF2,5E0
072B6:  BCF    FF2.7
072B8:  MOVLW  00
072BA:  MOVLB  0
072BC:  CALL   1074
072C0:  TBLRD*-
072C2:  TBLRD*+
072C4:  MOVF   FF5,W
072C6:  MOVWF  FEE
072C8:  IORLW  00
072CA:  BNZ   72C2
072CC:  MOVLB  5
072CE:  BTFSC  xE0.7
072D0:  BSF    FF2.7
....................          displayMenu(Menus.Letra,0,35,0,1);} 
072D2:  MOVLW  04
072D4:  MOVWF  xE9
072D6:  MOVLW  17
072D8:  MOVWF  xE8
072DA:  CLRF   xEA
072DC:  MOVLW  23
072DE:  MOVWF  xEB
072E0:  CLRF   xEC
072E2:  MOVLW  01
072E4:  MOVWF  xED
072E6:  MOVLB  0
072E8:  CALL   4C1C
....................        
....................       if(Opcion==3)    
072EC:  MOVLB  4
072EE:  MOVF   xCA,W
072F0:  SUBLW  03
072F2:  BNZ   733A
....................          {strcpy(Menus.Letra,"Luz UV"); 
072F4:  MOVLW  04
072F6:  MOVWF  FEA
072F8:  MOVLW  17
072FA:  MOVWF  FE9
072FC:  MOVFF  FF2,5E0
07300:  BCF    FF2.7
07302:  MOVLW  00
07304:  MOVLB  0
07306:  CALL   10A4
0730A:  TBLRD*-
0730C:  TBLRD*+
0730E:  MOVF   FF5,W
07310:  MOVWF  FEE
07312:  IORLW  00
07314:  BNZ   730C
07316:  MOVLB  5
07318:  BTFSC  xE0.7
0731A:  BSF    FF2.7
....................          displayMenu(Menus.Letra,0,50,1,1);} 
0731C:  MOVLW  04
0731E:  MOVWF  xE9
07320:  MOVLW  17
07322:  MOVWF  xE8
07324:  CLRF   xEA
07326:  MOVLW  32
07328:  MOVWF  xEB
0732A:  MOVLW  01
0732C:  MOVWF  xEC
0732E:  MOVWF  xED
07330:  MOVLB  0
07332:  CALL   4C1C
....................       else 
07336:  BRA    737C
07338:  MOVLB  4
....................          {strcpy(Menus.Letra,"Luz UV"); 
0733A:  MOVLW  04
0733C:  MOVWF  FEA
0733E:  MOVLW  17
07340:  MOVWF  FE9
07342:  MOVFF  FF2,5E0
07346:  BCF    FF2.7
07348:  MOVLW  00
0734A:  MOVLB  0
0734C:  CALL   10A4
07350:  TBLRD*-
07352:  TBLRD*+
07354:  MOVF   FF5,W
07356:  MOVWF  FEE
07358:  IORLW  00
0735A:  BNZ   7352
0735C:  MOVLB  5
0735E:  BTFSC  xE0.7
07360:  BSF    FF2.7
....................          displayMenu(Menus.Letra,0,50,0,1);}    
07362:  MOVLW  04
07364:  MOVWF  xE9
07366:  MOVLW  17
07368:  MOVWF  xE8
0736A:  CLRF   xEA
0736C:  MOVLW  32
0736E:  MOVWF  xEB
07370:  CLRF   xEC
07372:  MOVLW  01
07374:  MOVWF  xED
07376:  MOVLB  0
07378:  CALL   4C1C
....................           
....................       if(UP)//Si oprime hacia arriba 
0737C:  BSF    F92.5
0737E:  BTFSC  F80.5
07380:  BRA    739C
....................       {  if(Flanco == 0)  
07382:  MOVLB  4
07384:  BTFSC  x2D.0
07386:  BRA    739A
....................             {Flanco = 1;delay_ms(30);Opcion--; 
07388:  BSF    x2D.0
0738A:  MOVLW  1E
0738C:  MOVLB  5
0738E:  MOVWF  xF4
07390:  MOVLB  0
07392:  CALL   1514
07396:  MOVLB  4
07398:  DECF   xCA,F
....................             } 
....................       } 
....................          else 
0739A:  BRA    73A0
....................             {Flanco = 0;} 
0739C:  MOVLB  4
0739E:  BCF    x2D.0
....................              
....................       if(DOWN)//Si oprime hacia abajo 
073A0:  BSF    F96.0
073A2:  BTFSC  F84.0
073A4:  BRA    73BE
....................       {  if(Flanco2 == 0)  
073A6:  BTFSC  x2D.2
073A8:  BRA    73BC
....................             {Flanco2 = 1;delay_ms(30);Opcion++; 
073AA:  BSF    x2D.2
073AC:  MOVLW  1E
073AE:  MOVLB  5
073B0:  MOVWF  xF4
073B2:  MOVLB  0
073B4:  CALL   1514
073B8:  MOVLB  4
073BA:  INCF   xCA,F
....................             }      
....................       } 
....................          else 
073BC:  BRA    73C0
....................             {Flanco2 = 0;}   
073BE:  BCF    x2D.2
....................              
....................       if(RIGHT)//Si oprime SET 
073C0:  BSF    F96.1
073C2:  BTFSC  F84.1
073C4:  BRA    73F8
....................       {  if(Flanco1 == 0)  
073C6:  BTFSC  x2D.1
073C8:  BRA    73F6
....................             {Flanco1 = 1;delay_ms(500);Menu=Opcion+10;glcd_fillScreen(OFF); 
073CA:  BSF    x2D.1
073CC:  MOVLW  02
073CE:  MOVLB  5
073D0:  MOVWF  xE0
073D2:  MOVLW  FA
073D4:  MOVWF  xF4
073D6:  MOVLB  0
073D8:  CALL   1514
073DC:  MOVLB  5
073DE:  DECFSZ xE0,F
073E0:  BRA    73D2
073E2:  MOVLW  0A
073E4:  MOVLB  4
073E6:  ADDWF  xCA,W
073E8:  MOVWF  xC8
073EA:  MOVLB  5
073EC:  CLRF   xE8
073EE:  MOVLB  0
073F0:  CALL   1608
073F4:  MOVLB  4
....................             } 
....................       } 
....................          else 
073F6:  BRA    73FA
....................             {Flanco1 = 0;}   
073F8:  BCF    x2D.1
....................              
....................       if(LEFT)//Si oprime boton de Toma. 
073FA:  BSF    F96.2
073FC:  BTFSC  F84.2
073FE:  BRA    7428
....................         {delay_ms(700);Menu=3;glcd_fillscreen(OFF);} 
07400:  MOVLW  04
07402:  MOVLB  5
07404:  MOVWF  xE0
07406:  MOVLW  AF
07408:  MOVWF  xF4
0740A:  MOVLB  0
0740C:  CALL   1514
07410:  MOVLB  5
07412:  DECFSZ xE0,F
07414:  BRA    7406
07416:  MOVLW  03
07418:  MOVLB  4
0741A:  MOVWF  xC8
0741C:  MOVLB  5
0741E:  CLRF   xE8
07420:  MOVLB  0
07422:  CALL   1608
07426:  MOVLB  4
....................        
....................       if(Opcion>3) 
07428:  MOVF   xCA,W
0742A:  SUBLW  03
0742C:  BC    7432
....................       {Opcion=1;} 
0742E:  MOVLW  01
07430:  MOVWF  xCA
....................       if(Opcion<1) 
07432:  MOVF   xCA,F
07434:  BNZ   743A
....................       {Opcion=3;} 
07436:  MOVLW  03
07438:  MOVWF  xCA
....................      
....................     } 
.................... //_--------------------------------------------------------------------------------------------------------------------------------------------------------        
....................  
.................... //_-------------------------------------------------------------------------------------------------------------------------------------------------------- 
....................       if(Menu==6){ //Menu de Modo. 
0743A:  MOVF   xC8,W
0743C:  SUBLW  06
0743E:  BTFSS  FD8.2
07440:  BRA    7668
....................        
....................       strcpy(Menus.Letra,"Modo"); 
07442:  MOVLW  04
07444:  MOVWF  FEA
07446:  MOVLW  17
07448:  MOVWF  FE9
0744A:  MOVFF  FF2,5E0
0744E:  BCF    FF2.7
07450:  MOVLW  00
07452:  MOVLB  0
07454:  CALL   1024
07458:  TBLRD*-
0745A:  TBLRD*+
0745C:  MOVF   FF5,W
0745E:  MOVWF  FEE
07460:  IORLW  00
07462:  BNZ   745A
07464:  MOVLB  5
07466:  BTFSC  xE0.7
07468:  BSF    FF2.7
....................       displayMenu(Menus.Letra,40,0,1,2); 
0746A:  MOVLW  04
0746C:  MOVWF  xE9
0746E:  MOVLW  17
07470:  MOVWF  xE8
07472:  MOVLW  28
07474:  MOVWF  xEA
07476:  CLRF   xEB
07478:  MOVLW  01
0747A:  MOVWF  xEC
0747C:  MOVLW  02
0747E:  MOVWF  xED
07480:  MOVLB  0
07482:  CALL   4C1C
....................           
....................       if(Opcion==1)    
07486:  MOVLB  4
07488:  DECFSZ xCA,W
0748A:  BRA    74D2
....................          {strcpy(Menus.Letra,"Mantenimiento"); 
0748C:  MOVLW  04
0748E:  MOVWF  FEA
07490:  MOVLW  17
07492:  MOVWF  FE9
07494:  MOVFF  FF2,5E0
07498:  BCF    FF2.7
0749A:  MOVLW  00
0749C:  MOVLB  0
0749E:  CALL   10CA
074A2:  TBLRD*-
074A4:  TBLRD*+
074A6:  MOVF   FF5,W
074A8:  MOVWF  FEE
074AA:  IORLW  00
074AC:  BNZ   74A4
074AE:  MOVLB  5
074B0:  BTFSC  xE0.7
074B2:  BSF    FF2.7
....................          displayMenu(Menus.Letra,0,19,1,1);} 
074B4:  MOVLW  04
074B6:  MOVWF  xE9
074B8:  MOVLW  17
074BA:  MOVWF  xE8
074BC:  CLRF   xEA
074BE:  MOVLW  13
074C0:  MOVWF  xEB
074C2:  MOVLW  01
074C4:  MOVWF  xEC
074C6:  MOVWF  xED
074C8:  MOVLB  0
074CA:  CALL   4C1C
....................       else 
074CE:  BRA    7514
074D0:  MOVLB  4
....................          {strcpy(Menus.Letra,"Mantenimiento"); 
074D2:  MOVLW  04
074D4:  MOVWF  FEA
074D6:  MOVLW  17
074D8:  MOVWF  FE9
074DA:  MOVFF  FF2,5E0
074DE:  BCF    FF2.7
074E0:  MOVLW  00
074E2:  MOVLB  0
074E4:  CALL   10CA
074E8:  TBLRD*-
074EA:  TBLRD*+
074EC:  MOVF   FF5,W
074EE:  MOVWF  FEE
074F0:  IORLW  00
074F2:  BNZ   74EA
074F4:  MOVLB  5
074F6:  BTFSC  xE0.7
074F8:  BSF    FF2.7
....................          displayMenu(Menus.Letra,0,19,0,1);}    
074FA:  MOVLW  04
074FC:  MOVWF  xE9
074FE:  MOVLW  17
07500:  MOVWF  xE8
07502:  CLRF   xEA
07504:  MOVLW  13
07506:  MOVWF  xEB
07508:  CLRF   xEC
0750A:  MOVLW  01
0750C:  MOVWF  xED
0750E:  MOVLB  0
07510:  CALL   4C1C
....................           
....................       if(Opcion==2)    
07514:  MOVLB  4
07516:  MOVF   xCA,W
07518:  SUBLW  02
0751A:  BNZ   7562
....................          {strcpy(Menus.Letra,"Servicio"); 
0751C:  MOVLW  04
0751E:  MOVWF  FEA
07520:  MOVLW  17
07522:  MOVWF  FE9
07524:  MOVFF  FF2,5E0
07528:  BCF    FF2.7
0752A:  MOVLW  00
0752C:  MOVLB  0
0752E:  CALL   10F6
07532:  TBLRD*-
07534:  TBLRD*+
07536:  MOVF   FF5,W
07538:  MOVWF  FEE
0753A:  IORLW  00
0753C:  BNZ   7534
0753E:  MOVLB  5
07540:  BTFSC  xE0.7
07542:  BSF    FF2.7
....................          displayMenu(Menus.Letra,0,35,1,1);} 
07544:  MOVLW  04
07546:  MOVWF  xE9
07548:  MOVLW  17
0754A:  MOVWF  xE8
0754C:  CLRF   xEA
0754E:  MOVLW  23
07550:  MOVWF  xEB
07552:  MOVLW  01
07554:  MOVWF  xEC
07556:  MOVWF  xED
07558:  MOVLB  0
0755A:  CALL   4C1C
....................       else 
0755E:  BRA    75A4
07560:  MOVLB  4
....................          {strcpy(Menus.Letra,"Servicio"); 
07562:  MOVLW  04
07564:  MOVWF  FEA
07566:  MOVLW  17
07568:  MOVWF  FE9
0756A:  MOVFF  FF2,5E0
0756E:  BCF    FF2.7
07570:  MOVLW  00
07572:  MOVLB  0
07574:  CALL   10F6
07578:  TBLRD*-
0757A:  TBLRD*+
0757C:  MOVF   FF5,W
0757E:  MOVWF  FEE
07580:  IORLW  00
07582:  BNZ   757A
07584:  MOVLB  5
07586:  BTFSC  xE0.7
07588:  BSF    FF2.7
....................          displayMenu(Menus.Letra,0,35,0,1);} 
0758A:  MOVLW  04
0758C:  MOVWF  xE9
0758E:  MOVLW  17
07590:  MOVWF  xE8
07592:  CLRF   xEA
07594:  MOVLW  23
07596:  MOVWF  xEB
07598:  CLRF   xEC
0759A:  MOVLW  01
0759C:  MOVWF  xED
0759E:  MOVLB  0
075A0:  CALL   4C1C
....................           
....................       if(UP)//Si oprime hacia arriba 
075A4:  BSF    F92.5
075A6:  BTFSC  F80.5
075A8:  BRA    75C4
....................       {  if(Flanco == 0)  
075AA:  MOVLB  4
075AC:  BTFSC  x2D.0
075AE:  BRA    75C2
....................             {Flanco = 1;delay_ms(30);Opcion--; 
075B0:  BSF    x2D.0
075B2:  MOVLW  1E
075B4:  MOVLB  5
075B6:  MOVWF  xF4
075B8:  MOVLB  0
075BA:  CALL   1514
075BE:  MOVLB  4
075C0:  DECF   xCA,F
....................             } 
....................       } 
....................          else 
075C2:  BRA    75C8
....................             {Flanco = 0;} 
075C4:  MOVLB  4
075C6:  BCF    x2D.0
....................              
....................       if(DOWN)//Si oprime hacia abajo 
075C8:  BSF    F96.0
075CA:  BTFSC  F84.0
075CC:  BRA    75E6
....................       {  if(Flanco2 == 0)  
075CE:  BTFSC  x2D.2
075D0:  BRA    75E4
....................             {Flanco2 = 1;delay_ms(30);Opcion++; 
075D2:  BSF    x2D.2
075D4:  MOVLW  1E
075D6:  MOVLB  5
075D8:  MOVWF  xF4
075DA:  MOVLB  0
075DC:  CALL   1514
075E0:  MOVLB  4
075E2:  INCF   xCA,F
....................             }      
....................       } 
....................          else 
075E4:  BRA    75E8
....................             {Flanco2 = 0;}   
075E6:  BCF    x2D.2
....................              
....................       if(RIGHT)//Si oprime SET 
075E8:  BSF    F96.1
075EA:  BTFSC  F84.1
075EC:  BRA    7626
....................       {  if(Flanco1 == 0)  
075EE:  BTFSC  x2D.1
075F0:  BRA    7624
....................             {Flanco1 = 1;delay_ms(500);Menu=Opcion+30;glcd_fillScreen(OFF);Opcion=1;unidad=1; 
075F2:  BSF    x2D.1
075F4:  MOVLW  02
075F6:  MOVLB  5
075F8:  MOVWF  xE0
075FA:  MOVLW  FA
075FC:  MOVWF  xF4
075FE:  MOVLB  0
07600:  CALL   1514
07604:  MOVLB  5
07606:  DECFSZ xE0,F
07608:  BRA    75FA
0760A:  MOVLW  1E
0760C:  MOVLB  4
0760E:  ADDWF  xCA,W
07610:  MOVWF  xC8
07612:  MOVLB  5
07614:  CLRF   xE8
07616:  MOVLB  0
07618:  CALL   1608
0761C:  MOVLW  01
0761E:  MOVLB  4
07620:  MOVWF  xCA
07622:  MOVWF  xC9
....................             } 
....................       } 
....................          else 
07624:  BRA    7628
....................             {Flanco1 = 0;}   
07626:  BCF    x2D.1
....................              
....................       if(LEFT)//Si oprime boton de Toma. 
07628:  BSF    F96.2
0762A:  BTFSC  F84.2
0762C:  BRA    7656
....................         {delay_ms(700);Menu=3;glcd_fillscreen(OFF);} 
0762E:  MOVLW  04
07630:  MOVLB  5
07632:  MOVWF  xE0
07634:  MOVLW  AF
07636:  MOVWF  xF4
07638:  MOVLB  0
0763A:  CALL   1514
0763E:  MOVLB  5
07640:  DECFSZ xE0,F
07642:  BRA    7634
07644:  MOVLW  03
07646:  MOVLB  4
07648:  MOVWF  xC8
0764A:  MOVLB  5
0764C:  CLRF   xE8
0764E:  MOVLB  0
07650:  CALL   1608
07654:  MOVLB  4
....................       if(Opcion>2) 
07656:  MOVF   xCA,W
07658:  SUBLW  02
0765A:  BC    7660
....................       {Opcion=1;} 
0765C:  MOVLW  01
0765E:  MOVWF  xCA
....................       if(Opcion<1) 
07660:  MOVF   xCA,F
07662:  BNZ   7668
....................       {Opcion=2;} 
07664:  MOVLW  02
07666:  MOVWF  xCA
....................      
....................     } 
.................... //_--------------------------------------------------------------------------------------------------------------------------------------------------------        
....................  
.................... //_-------------------------------------------------------------------------------------------------------------------------------------------------------- 
....................       if(Menu==13){ //Menu de Tempo UV. 
07668:  MOVF   xC8,W
0766A:  SUBLW  0D
0766C:  BTFSS  FD8.2
0766E:  BRA    77CC
....................        
....................       strcpy(Menus.Letra,"Luz UV"); 
07670:  MOVLW  04
07672:  MOVWF  FEA
07674:  MOVLW  17
07676:  MOVWF  FE9
07678:  MOVFF  FF2,5E0
0767C:  BCF    FF2.7
0767E:  MOVLW  00
07680:  MOVLB  0
07682:  CALL   10A4
07686:  TBLRD*-
07688:  TBLRD*+
0768A:  MOVF   FF5,W
0768C:  MOVWF  FEE
0768E:  IORLW  00
07690:  BNZ   7688
07692:  MOVLB  5
07694:  BTFSC  xE0.7
07696:  BSF    FF2.7
....................       displayMenu(Menus.Letra,30,0,1,2); 
07698:  MOVLW  04
0769A:  MOVWF  xE9
0769C:  MOVLW  17
0769E:  MOVWF  xE8
076A0:  MOVLW  1E
076A2:  MOVWF  xEA
076A4:  CLRF   xEB
076A6:  MOVLW  01
076A8:  MOVWF  xEC
076AA:  MOVLW  02
076AC:  MOVWF  xED
076AE:  MOVLB  0
076B0:  CALL   4C1C
....................        
....................       if(!flag_uv){ 
076B4:  MOVLB  4
076B6:  BTFSC  x2E.4
076B8:  BRA    7706
....................          strcpy(Menus.Letra,"UV Off"); 
076BA:  MOVLW  04
076BC:  MOVWF  FEA
076BE:  MOVLW  17
076C0:  MOVWF  FE9
076C2:  MOVFF  FF2,5E0
076C6:  BCF    FF2.7
076C8:  MOVLW  00
076CA:  MOVLB  0
076CC:  CALL   111E
076D0:  TBLRD*-
076D2:  TBLRD*+
076D4:  MOVF   FF5,W
076D6:  MOVWF  FEE
076D8:  IORLW  00
076DA:  BNZ   76D2
076DC:  MOVLB  5
076DE:  BTFSC  xE0.7
076E0:  BSF    FF2.7
....................          displayMenu(Menus.Letra,30,30,1,2); 
076E2:  MOVLW  04
076E4:  MOVWF  xE9
076E6:  MOVLW  17
076E8:  MOVWF  xE8
076EA:  MOVLW  1E
076EC:  MOVWF  xEA
076EE:  MOVWF  xEB
076F0:  MOVLW  01
076F2:  MOVWF  xEC
076F4:  MOVLW  02
076F6:  MOVWF  xED
076F8:  MOVLB  0
076FA:  CALL   4C1C
....................          Aux_off; 
076FE:  BCF    F8B.1
07700:  BCF    F94.1
....................       }else{ 
07702:  BRA    774E
07704:  MOVLB  4
....................          strcpy(Menus.Letra,"UV On"); 
07706:  MOVLW  04
07708:  MOVWF  FEA
0770A:  MOVLW  17
0770C:  MOVWF  FE9
0770E:  MOVFF  FF2,5E0
07712:  BCF    FF2.7
07714:  MOVLW  00
07716:  MOVLB  0
07718:  CALL   1144
0771C:  TBLRD*-
0771E:  TBLRD*+
07720:  MOVF   FF5,W
07722:  MOVWF  FEE
07724:  IORLW  00
07726:  BNZ   771E
07728:  MOVLB  5
0772A:  BTFSC  xE0.7
0772C:  BSF    FF2.7
....................          displayMenu(Menus.Letra,30,30,1,2); 
0772E:  MOVLW  04
07730:  MOVWF  xE9
07732:  MOVLW  17
07734:  MOVWF  xE8
07736:  MOVLW  1E
07738:  MOVWF  xEA
0773A:  MOVWF  xEB
0773C:  MOVLW  01
0773E:  MOVWF  xEC
07740:  MOVLW  02
07742:  MOVWF  xED
07744:  MOVLB  0
07746:  CALL   4C1C
....................          Aux_on; 
0774A:  BSF    F8B.1
0774C:  BCF    F94.1
....................       } 
....................          
....................       if(UP)//Si oprime hacia arriba 
0774E:  BSF    F92.5
07750:  BTFSC  F80.5
07752:  BRA    7770
....................       {  if(Flanco == 0)  
07754:  MOVLB  4
07756:  BTFSC  x2D.0
07758:  BRA    776C
....................             {Flanco = 1;delay_ms(30);flag_uv=1; 
0775A:  BSF    x2D.0
0775C:  MOVLW  1E
0775E:  MOVLB  5
07760:  MOVWF  xF4
07762:  MOVLB  0
07764:  CALL   1514
07768:  MOVLB  4
0776A:  BSF    x2E.4
....................             } 
....................       }else{ 
0776C:  BRA    7774
0776E:  MOVLB  0
....................          Flanco = 0; 
07770:  MOVLB  4
07772:  BCF    x2D.0
....................       } 
....................              
....................       if(DOWN )//Si oprime hacia abajo 
07774:  BSF    F96.0
07776:  BTFSC  F84.0
07778:  BRA    7792
....................       {  if(Flanco2 == 0)  
0777A:  BTFSC  x2D.2
0777C:  BRA    7790
....................             {Flanco2 = 1;delay_ms(30);flag_uv=0; 
0777E:  BSF    x2D.2
07780:  MOVLW  1E
07782:  MOVLB  5
07784:  MOVWF  xF4
07786:  MOVLB  0
07788:  CALL   1514
0778C:  MOVLB  4
0778E:  BCF    x2E.4
....................             }      
....................       }else{ 
07790:  BRA    7794
....................          Flanco2 = 0; 
07792:  BCF    x2D.2
....................       } 
....................              
....................       if(LEFT)//Si oprime boton de Toma. 
07794:  BSF    F96.2
07796:  BTFSC  F84.2
07798:  BRA    77CC
....................       { 
....................          delay_ms(700);Menu=4;glcd_fillscreen(OFF);Opcion=1;unidad=1;Aux_off; 
0779A:  MOVLW  04
0779C:  MOVLB  5
0779E:  MOVWF  xE0
077A0:  MOVLW  AF
077A2:  MOVWF  xF4
077A4:  MOVLB  0
077A6:  CALL   1514
077AA:  MOVLB  5
077AC:  DECFSZ xE0,F
077AE:  BRA    77A0
077B0:  MOVLW  04
077B2:  MOVLB  4
077B4:  MOVWF  xC8
077B6:  MOVLB  5
077B8:  CLRF   xE8
077BA:  MOVLB  0
077BC:  CALL   1608
077C0:  MOVLW  01
077C2:  MOVLB  4
077C4:  MOVWF  xCA
077C6:  MOVWF  xC9
077C8:  BCF    F8B.1
077CA:  BCF    F94.1
....................       } 
....................      
....................     } 
.................... //_--------------------------------------------------------------------------------------------------------------------------------------------------------        
....................  
.................... //_-------------------------------------------------------------------------------------------------------------------------------------------------------- 
....................       if(Menu==11){ //Menu de Purga. 
077CC:  MOVF   xC8,W
077CE:  SUBLW  0B
077D0:  BTFSS  FD8.2
077D2:  BRA    7B96
....................        
....................       strcpy(Menus.Letra,"T. Purga"); 
077D4:  MOVLW  04
077D6:  MOVWF  FEA
077D8:  MOVLW  17
077DA:  MOVWF  FE9
077DC:  MOVFF  FF2,5E0
077E0:  BCF    FF2.7
077E2:  MOVLW  00
077E4:  MOVLB  0
077E6:  CALL   1168
077EA:  TBLRD*-
077EC:  TBLRD*+
077EE:  MOVF   FF5,W
077F0:  MOVWF  FEE
077F2:  IORLW  00
077F4:  BNZ   77EC
077F6:  MOVLB  5
077F8:  BTFSC  xE0.7
077FA:  BSF    FF2.7
....................       displayMenu(Menus.Letra,10,0,1,2); 
077FC:  MOVLW  04
077FE:  MOVWF  xE9
07800:  MOVLW  17
07802:  MOVWF  xE8
07804:  MOVLW  0A
07806:  MOVWF  xEA
07808:  CLRF   xEB
0780A:  MOVLW  01
0780C:  MOVWF  xEC
0780E:  MOVLW  02
07810:  MOVWF  xED
07812:  MOVLB  0
07814:  CALL   4C1C
....................        
....................       if(unidad==4) 
07818:  MOVLB  4
0781A:  MOVF   xC9,W
0781C:  SUBLW  04
0781E:  BNZ   783E
....................       {displayTiempo(Tpurgap[3],20,40,1,2);} 
07820:  MOVFF  4F5,5E0
07824:  MOVLW  14
07826:  MOVLB  5
07828:  MOVWF  xE1
0782A:  MOVLW  28
0782C:  MOVWF  xE2
0782E:  MOVLW  01
07830:  MOVWF  xE3
07832:  MOVLW  02
07834:  MOVWF  xE4
07836:  MOVLB  0
07838:  CALL   53CA
....................       else 
0783C:  BRA    7858
....................       {displayTiempo(Tpurgap[3],20,40,0,2);} 
0783E:  MOVFF  4F5,5E0
07842:  MOVLW  14
07844:  MOVLB  5
07846:  MOVWF  xE1
07848:  MOVLW  28
0784A:  MOVWF  xE2
0784C:  CLRF   xE3
0784E:  MOVLW  02
07850:  MOVWF  xE4
07852:  MOVLB  0
07854:  CALL   53CA
....................        
....................       if(unidad==3) 
07858:  MOVLB  4
0785A:  MOVF   xC9,W
0785C:  SUBLW  03
0785E:  BNZ   787C
....................       {displayTiempo(Tpurgap[2],40,40,1,2);} 
07860:  MOVFF  4F4,5E0
07864:  MOVLW  28
07866:  MOVLB  5
07868:  MOVWF  xE1
0786A:  MOVWF  xE2
0786C:  MOVLW  01
0786E:  MOVWF  xE3
07870:  MOVLW  02
07872:  MOVWF  xE4
07874:  MOVLB  0
07876:  CALL   53CA
....................       else 
0787A:  BRA    7894
....................       {displayTiempo(Tpurgap[2],40,40,0,2);} 
0787C:  MOVFF  4F4,5E0
07880:  MOVLW  28
07882:  MOVLB  5
07884:  MOVWF  xE1
07886:  MOVWF  xE2
07888:  CLRF   xE3
0788A:  MOVLW  02
0788C:  MOVWF  xE4
0788E:  MOVLB  0
07890:  CALL   53CA
....................        
....................       if(unidad==2) 
07894:  MOVLB  4
07896:  MOVF   xC9,W
07898:  SUBLW  02
0789A:  BNZ   78BA
....................       {displayTiempo(Tpurgap[1],70,40,1,2);} 
0789C:  MOVFF  4F3,5E0
078A0:  MOVLW  46
078A2:  MOVLB  5
078A4:  MOVWF  xE1
078A6:  MOVLW  28
078A8:  MOVWF  xE2
078AA:  MOVLW  01
078AC:  MOVWF  xE3
078AE:  MOVLW  02
078B0:  MOVWF  xE4
078B2:  MOVLB  0
078B4:  CALL   53CA
....................       else 
078B8:  BRA    78D4
....................       {displayTiempo(Tpurgap[1],70,40,0,2);} 
078BA:  MOVFF  4F3,5E0
078BE:  MOVLW  46
078C0:  MOVLB  5
078C2:  MOVWF  xE1
078C4:  MOVLW  28
078C6:  MOVWF  xE2
078C8:  CLRF   xE3
078CA:  MOVLW  02
078CC:  MOVWF  xE4
078CE:  MOVLB  0
078D0:  CALL   53CA
....................        
....................       if(unidad==1) 
078D4:  MOVLB  4
078D6:  DECFSZ xC9,W
078D8:  BRA    78F8
....................       {displayTiempo(Tpurgap[0],90,40,1,2);} 
078DA:  MOVFF  4F2,5E0
078DE:  MOVLW  5A
078E0:  MOVLB  5
078E2:  MOVWF  xE1
078E4:  MOVLW  28
078E6:  MOVWF  xE2
078E8:  MOVLW  01
078EA:  MOVWF  xE3
078EC:  MOVLW  02
078EE:  MOVWF  xE4
078F0:  MOVLB  0
078F2:  CALL   53CA
....................       else 
078F6:  BRA    7912
....................       {displayTiempo(Tpurgap[0],90,40,0,2);} 
078F8:  MOVFF  4F2,5E0
078FC:  MOVLW  5A
078FE:  MOVLB  5
07900:  MOVWF  xE1
07902:  MOVLW  28
07904:  MOVWF  xE2
07906:  CLRF   xE3
07908:  MOVLW  02
0790A:  MOVWF  xE4
0790C:  MOVLB  0
0790E:  CALL   53CA
....................        
....................       glcd_text57(60, 42, Dos_puntos, 2, ON); 
07912:  MOVLW  3C
07914:  MOVLB  5
07916:  MOVWF  xF9
07918:  MOVLW  2A
0791A:  MOVWF  xFA
0791C:  MOVLW  04
0791E:  MOVWF  xFC
07920:  MOVLW  4E
07922:  MOVWF  xFB
07924:  MOVLW  02
07926:  MOVWF  xFD
07928:  MOVLW  01
0792A:  MOVWF  xFE
0792C:  MOVLB  0
0792E:  CALL   498A
....................           
....................          
....................       if(UP)//Si oprime hacia arriba 
07932:  BSF    F92.5
07934:  BTFSC  F80.5
07936:  BRA    7962
....................       {  if(Flanco == 0)  
07938:  MOVLB  4
0793A:  BTFSC  x2D.0
0793C:  BRA    7960
....................             {Flanco = 1;delay_ms(30);Tpurgap[unidad-1]++; 
0793E:  BSF    x2D.0
07940:  MOVLW  1E
07942:  MOVLB  5
07944:  MOVWF  xF4
07946:  MOVLB  0
07948:  CALL   1514
0794C:  MOVLW  01
0794E:  MOVLB  4
07950:  SUBWF  xC9,W
07952:  CLRF   03
07954:  ADDLW  F2
07956:  MOVWF  FE9
07958:  MOVLW  04
0795A:  ADDWFC 03,W
0795C:  MOVWF  FEA
0795E:  INCF   FEF,F
....................             } 
....................       } 
....................          else 
07960:  BRA    7966
....................             {Flanco = 0;} 
07962:  MOVLB  4
07964:  BCF    x2D.0
....................              
....................       if(DOWN)//Si oprime hacia abajo 
07966:  BSF    F96.0
07968:  BTFSC  F84.0
0796A:  BRA    7994
....................       {  if(Flanco2 == 0)  
0796C:  BTFSC  x2D.2
0796E:  BRA    7992
....................             {Flanco2 = 1;delay_ms(30);Tpurgap[unidad-1]--; 
07970:  BSF    x2D.2
07972:  MOVLW  1E
07974:  MOVLB  5
07976:  MOVWF  xF4
07978:  MOVLB  0
0797A:  CALL   1514
0797E:  MOVLW  01
07980:  MOVLB  4
07982:  SUBWF  xC9,W
07984:  CLRF   03
07986:  ADDLW  F2
07988:  MOVWF  FE9
0798A:  MOVLW  04
0798C:  ADDWFC 03,W
0798E:  MOVWF  FEA
07990:  DECF   FEF,F
....................             }      
....................       } 
....................          else 
07992:  BRA    7996
....................             {Flanco2 = 0;}   
07994:  BCF    x2D.2
....................              
....................       if(RIGHT)//Si oprime SET 
07996:  BSF    F96.1
07998:  BTFSC  F84.1
0799A:  BRA    79B4
....................       {  if(Flanco1 == 0)  
0799C:  BTFSC  x2D.1
0799E:  BRA    79B2
....................             {Flanco1 = 1;delay_ms(30);unidad--; 
079A0:  BSF    x2D.1
079A2:  MOVLW  1E
079A4:  MOVLB  5
079A6:  MOVWF  xF4
079A8:  MOVLB  0
079AA:  CALL   1514
079AE:  MOVLB  4
079B0:  DECF   xC9,F
....................             } 
....................       } 
....................          else 
079B2:  BRA    79B6
....................             {Flanco1 = 0;}   
079B4:  BCF    x2D.1
....................              
....................       if(LEFT)//Si oprime boton de Toma. 
079B6:  BSF    F96.2
079B8:  BTFSC  F84.2
079BA:  BRA    7ACA
....................       { 
....................          delay_ms(700);Menu=4;glcd_fillscreen(OFF);Opcion=1;unidad=1; 
079BC:  MOVLW  04
079BE:  MOVLB  5
079C0:  MOVWF  xE0
079C2:  MOVLW  AF
079C4:  MOVWF  xF4
079C6:  MOVLB  0
079C8:  CALL   1514
079CC:  MOVLB  5
079CE:  DECFSZ xE0,F
079D0:  BRA    79C2
079D2:  MOVLW  04
079D4:  MOVLB  4
079D6:  MOVWF  xC8
079D8:  MOVLB  5
079DA:  CLRF   xE8
079DC:  MOVLB  0
079DE:  CALL   1608
079E2:  MOVLW  01
079E4:  MOVLB  4
079E6:  MOVWF  xCA
079E8:  MOVWF  xC9
....................          write_eeprom(4,Tpurgap[0]); 
079EA:  CLRF   FAA
079EC:  MOVLW  04
079EE:  MOVWF  FA9
079F0:  MOVFF  4F2,FA8
079F4:  BCF    FA6.6
079F6:  BCF    FA6.7
079F8:  BSF    FA6.2
079FA:  MOVF   FF2,W
079FC:  MOVWF  00
079FE:  BCF    FF2.7
07A00:  MOVLB  F
07A02:  MOVLW  55
07A04:  MOVWF  FA7
07A06:  MOVLW  AA
07A08:  MOVWF  FA7
07A0A:  BSF    FA6.1
07A0C:  BTFSC  FA6.1
07A0E:  BRA    7A0C
07A10:  BCF    FA6.2
07A12:  MOVF   00,W
07A14:  IORWF  FF2,F
....................          delay_ms(20); 
07A16:  MOVLW  14
07A18:  MOVLB  5
07A1A:  MOVWF  xF4
07A1C:  MOVLB  0
07A1E:  CALL   1514
....................          write_eeprom(5,Tpurgap[1]); 
07A22:  CLRF   FAA
07A24:  MOVLW  05
07A26:  MOVWF  FA9
07A28:  MOVFF  4F3,FA8
07A2C:  BCF    FA6.6
07A2E:  BCF    FA6.7
07A30:  BSF    FA6.2
07A32:  MOVF   FF2,W
07A34:  MOVWF  00
07A36:  BCF    FF2.7
07A38:  MOVLB  F
07A3A:  MOVLW  55
07A3C:  MOVWF  FA7
07A3E:  MOVLW  AA
07A40:  MOVWF  FA7
07A42:  BSF    FA6.1
07A44:  BTFSC  FA6.1
07A46:  BRA    7A44
07A48:  BCF    FA6.2
07A4A:  MOVF   00,W
07A4C:  IORWF  FF2,F
....................          delay_ms(20); 
07A4E:  MOVLW  14
07A50:  MOVLB  5
07A52:  MOVWF  xF4
07A54:  MOVLB  0
07A56:  CALL   1514
....................          write_eeprom(6,Tpurgap[2]); 
07A5A:  CLRF   FAA
07A5C:  MOVLW  06
07A5E:  MOVWF  FA9
07A60:  MOVFF  4F4,FA8
07A64:  BCF    FA6.6
07A66:  BCF    FA6.7
07A68:  BSF    FA6.2
07A6A:  MOVF   FF2,W
07A6C:  MOVWF  00
07A6E:  BCF    FF2.7
07A70:  MOVLB  F
07A72:  MOVLW  55
07A74:  MOVWF  FA7
07A76:  MOVLW  AA
07A78:  MOVWF  FA7
07A7A:  BSF    FA6.1
07A7C:  BTFSC  FA6.1
07A7E:  BRA    7A7C
07A80:  BCF    FA6.2
07A82:  MOVF   00,W
07A84:  IORWF  FF2,F
....................          delay_ms(20); 
07A86:  MOVLW  14
07A88:  MOVLB  5
07A8A:  MOVWF  xF4
07A8C:  MOVLB  0
07A8E:  CALL   1514
....................          write_eeprom(7,Tpurgap[3]); 
07A92:  CLRF   FAA
07A94:  MOVLW  07
07A96:  MOVWF  FA9
07A98:  MOVFF  4F5,FA8
07A9C:  BCF    FA6.6
07A9E:  BCF    FA6.7
07AA0:  BSF    FA6.2
07AA2:  MOVF   FF2,W
07AA4:  MOVWF  00
07AA6:  BCF    FF2.7
07AA8:  MOVLB  F
07AAA:  MOVLW  55
07AAC:  MOVWF  FA7
07AAE:  MOVLW  AA
07AB0:  MOVWF  FA7
07AB2:  BSF    FA6.1
07AB4:  BTFSC  FA6.1
07AB6:  BRA    7AB4
07AB8:  BCF    FA6.2
07ABA:  MOVF   00,W
07ABC:  IORWF  FF2,F
....................          delay_ms(20); 
07ABE:  MOVLW  14
07AC0:  MOVLB  5
07AC2:  MOVWF  xF4
07AC4:  MOVLB  0
07AC6:  CALL   1514
....................       } 
....................        
....................       for(i=0;i<4;i++) 
07ACA:  MOVLB  5
07ACC:  CLRF   xCE
07ACE:  MOVF   xCE,W
07AD0:  SUBLW  03
07AD2:  BNC   7B26
....................       { 
....................          if(Tpurgap[i]>9) 
07AD4:  CLRF   03
07AD6:  MOVF   xCE,W
07AD8:  ADDLW  F2
07ADA:  MOVWF  FE9
07ADC:  MOVLW  04
07ADE:  ADDWFC 03,W
07AE0:  MOVWF  FEA
07AE2:  BTFSC  FEF.7
07AE4:  BRA    7AFC
07AE6:  MOVF   FEF,W
07AE8:  SUBLW  09
07AEA:  BC    7AFC
....................          {Tpurgap[i]=0;} 
07AEC:  CLRF   03
07AEE:  MOVF   xCE,W
07AF0:  ADDLW  F2
07AF2:  MOVWF  FE9
07AF4:  MOVLW  04
07AF6:  ADDWFC 03,W
07AF8:  MOVWF  FEA
07AFA:  CLRF   FEF
....................           
....................          if(Tpurgap[i]<0) 
07AFC:  CLRF   03
07AFE:  MOVF   xCE,W
07B00:  ADDLW  F2
07B02:  MOVWF  FE9
07B04:  MOVLW  04
07B06:  ADDWFC 03,W
07B08:  MOVWF  FEA
07B0A:  BTFSC  FEF.7
07B0C:  BRA    7B10
07B0E:  BRA    7B22
....................          {Tpurgap[i]=9;} 
07B10:  CLRF   03
07B12:  MOVF   xCE,W
07B14:  ADDLW  F2
07B16:  MOVWF  FE9
07B18:  MOVLW  04
07B1A:  ADDWFC 03,W
07B1C:  MOVWF  FEA
07B1E:  MOVLW  09
07B20:  MOVWF  FEF
....................       }       
07B22:  INCF   xCE,F
07B24:  BRA    7ACE
....................       for(i=1;i<4;i++) 
07B26:  MOVLW  01
07B28:  MOVWF  xCE
07B2A:  MOVF   xCE,W
07B2C:  SUBLW  03
07B2E:  BNC   7B84
....................       { 
....................          if(Tpurgap[i]>5) 
07B30:  CLRF   03
07B32:  MOVF   xCE,W
07B34:  ADDLW  F2
07B36:  MOVWF  FE9
07B38:  MOVLW  04
07B3A:  ADDWFC 03,W
07B3C:  MOVWF  FEA
07B3E:  BTFSC  FEF.7
07B40:  BRA    7B58
07B42:  MOVF   FEF,W
07B44:  SUBLW  05
07B46:  BC    7B58
....................          {Tpurgap[i]=0;} 
07B48:  CLRF   03
07B4A:  MOVF   xCE,W
07B4C:  ADDLW  F2
07B4E:  MOVWF  FE9
07B50:  MOVLW  04
07B52:  ADDWFC 03,W
07B54:  MOVWF  FEA
07B56:  CLRF   FEF
....................           
....................          if(Tpurgap[i]<0) 
07B58:  CLRF   03
07B5A:  MOVF   xCE,W
07B5C:  ADDLW  F2
07B5E:  MOVWF  FE9
07B60:  MOVLW  04
07B62:  ADDWFC 03,W
07B64:  MOVWF  FEA
07B66:  BTFSC  FEF.7
07B68:  BRA    7B6C
07B6A:  BRA    7B7E
....................          {Tpurgap[i]=5;} 
07B6C:  CLRF   03
07B6E:  MOVF   xCE,W
07B70:  ADDLW  F2
07B72:  MOVWF  FE9
07B74:  MOVLW  04
07B76:  ADDWFC 03,W
07B78:  MOVWF  FEA
07B7A:  MOVLW  05
07B7C:  MOVWF  FEF
....................         i++;  
07B7E:  INCF   xCE,F
....................       } 
07B80:  INCF   xCE,F
07B82:  BRA    7B2A
....................       if(unidad<1) 
07B84:  MOVLB  4
07B86:  MOVF   xC9,F
07B88:  BNZ   7B8E
....................       {unidad=4;} 
07B8A:  MOVLW  04
07B8C:  MOVWF  xC9
....................       if(Opcion<1) 
07B8E:  MOVF   xCA,F
07B90:  BNZ   7B96
....................       {Opcion=4;} 
07B92:  MOVLW  04
07B94:  MOVWF  xCA
....................      
....................     } 
.................... //_--------------------------------------------------------------------------------------------------------------------------------------------------------        
....................  
.................... //_-------------------------------------------------------------------------------------------------------------------------------------------------------- 
....................       if(Menu==12){ //Menu de Post-Purga. 
07B96:  MOVF   xC8,W
07B98:  SUBLW  0C
07B9A:  BTFSS  FD8.2
07B9C:  BRA    7F5E
....................        
....................       strcpy(Menus.Letra,"T. Post-Purga"); 
07B9E:  MOVLW  04
07BA0:  MOVWF  FEA
07BA2:  MOVLW  17
07BA4:  MOVWF  FE9
07BA6:  MOVFF  FF2,5E0
07BAA:  BCF    FF2.7
07BAC:  MOVLW  00
07BAE:  MOVLB  0
07BB0:  CALL   1190
07BB4:  TBLRD*-
07BB6:  TBLRD*+
07BB8:  MOVF   FF5,W
07BBA:  MOVWF  FEE
07BBC:  IORLW  00
07BBE:  BNZ   7BB6
07BC0:  MOVLB  5
07BC2:  BTFSC  xE0.7
07BC4:  BSF    FF2.7
....................       displayMenu(Menus.Letra,0,0,1,2); 
07BC6:  MOVLW  04
07BC8:  MOVWF  xE9
07BCA:  MOVLW  17
07BCC:  MOVWF  xE8
07BCE:  CLRF   xEA
07BD0:  CLRF   xEB
07BD2:  MOVLW  01
07BD4:  MOVWF  xEC
07BD6:  MOVLW  02
07BD8:  MOVWF  xED
07BDA:  MOVLB  0
07BDC:  CALL   4C1C
....................        
....................       if(unidad==4) 
07BE0:  MOVLB  4
07BE2:  MOVF   xC9,W
07BE4:  SUBLW  04
07BE6:  BNZ   7C06
....................       {displayTiempo(Tppurgap[3],20,40,1,2);} 
07BE8:  MOVFF  4FD,5E0
07BEC:  MOVLW  14
07BEE:  MOVLB  5
07BF0:  MOVWF  xE1
07BF2:  MOVLW  28
07BF4:  MOVWF  xE2
07BF6:  MOVLW  01
07BF8:  MOVWF  xE3
07BFA:  MOVLW  02
07BFC:  MOVWF  xE4
07BFE:  MOVLB  0
07C00:  CALL   53CA
....................       else 
07C04:  BRA    7C20
....................       {displayTiempo(Tppurgap[3],20,40,0,2);} 
07C06:  MOVFF  4FD,5E0
07C0A:  MOVLW  14
07C0C:  MOVLB  5
07C0E:  MOVWF  xE1
07C10:  MOVLW  28
07C12:  MOVWF  xE2
07C14:  CLRF   xE3
07C16:  MOVLW  02
07C18:  MOVWF  xE4
07C1A:  MOVLB  0
07C1C:  CALL   53CA
....................        
....................       if(unidad==3) 
07C20:  MOVLB  4
07C22:  MOVF   xC9,W
07C24:  SUBLW  03
07C26:  BNZ   7C44
....................       {displayTiempo(Tppurgap[2],40,40,1,2);} 
07C28:  MOVFF  4FC,5E0
07C2C:  MOVLW  28
07C2E:  MOVLB  5
07C30:  MOVWF  xE1
07C32:  MOVWF  xE2
07C34:  MOVLW  01
07C36:  MOVWF  xE3
07C38:  MOVLW  02
07C3A:  MOVWF  xE4
07C3C:  MOVLB  0
07C3E:  CALL   53CA
....................       else 
07C42:  BRA    7C5C
....................       {displayTiempo(Tppurgap[2],40,40,0,2);} 
07C44:  MOVFF  4FC,5E0
07C48:  MOVLW  28
07C4A:  MOVLB  5
07C4C:  MOVWF  xE1
07C4E:  MOVWF  xE2
07C50:  CLRF   xE3
07C52:  MOVLW  02
07C54:  MOVWF  xE4
07C56:  MOVLB  0
07C58:  CALL   53CA
....................        
....................       if(unidad==2) 
07C5C:  MOVLB  4
07C5E:  MOVF   xC9,W
07C60:  SUBLW  02
07C62:  BNZ   7C82
....................       {displayTiempo(Tppurgap[1],70,40,1,2);} 
07C64:  MOVFF  4FB,5E0
07C68:  MOVLW  46
07C6A:  MOVLB  5
07C6C:  MOVWF  xE1
07C6E:  MOVLW  28
07C70:  MOVWF  xE2
07C72:  MOVLW  01
07C74:  MOVWF  xE3
07C76:  MOVLW  02
07C78:  MOVWF  xE4
07C7A:  MOVLB  0
07C7C:  CALL   53CA
....................       else 
07C80:  BRA    7C9C
....................       {displayTiempo(Tppurgap[1],70,40,0,2);} 
07C82:  MOVFF  4FB,5E0
07C86:  MOVLW  46
07C88:  MOVLB  5
07C8A:  MOVWF  xE1
07C8C:  MOVLW  28
07C8E:  MOVWF  xE2
07C90:  CLRF   xE3
07C92:  MOVLW  02
07C94:  MOVWF  xE4
07C96:  MOVLB  0
07C98:  CALL   53CA
....................        
....................       if(unidad==1) 
07C9C:  MOVLB  4
07C9E:  DECFSZ xC9,W
07CA0:  BRA    7CC0
....................       {displayTiempo(Tppurgap[0],90,40,1,2);} 
07CA2:  MOVFF  4FA,5E0
07CA6:  MOVLW  5A
07CA8:  MOVLB  5
07CAA:  MOVWF  xE1
07CAC:  MOVLW  28
07CAE:  MOVWF  xE2
07CB0:  MOVLW  01
07CB2:  MOVWF  xE3
07CB4:  MOVLW  02
07CB6:  MOVWF  xE4
07CB8:  MOVLB  0
07CBA:  CALL   53CA
....................       else 
07CBE:  BRA    7CDA
....................       {displayTiempo(Tppurgap[0],90,40,0,2);} 
07CC0:  MOVFF  4FA,5E0
07CC4:  MOVLW  5A
07CC6:  MOVLB  5
07CC8:  MOVWF  xE1
07CCA:  MOVLW  28
07CCC:  MOVWF  xE2
07CCE:  CLRF   xE3
07CD0:  MOVLW  02
07CD2:  MOVWF  xE4
07CD4:  MOVLB  0
07CD6:  CALL   53CA
....................        
....................       glcd_text57(60, 42, Dos_puntos, 2, ON); 
07CDA:  MOVLW  3C
07CDC:  MOVLB  5
07CDE:  MOVWF  xF9
07CE0:  MOVLW  2A
07CE2:  MOVWF  xFA
07CE4:  MOVLW  04
07CE6:  MOVWF  xFC
07CE8:  MOVLW  4E
07CEA:  MOVWF  xFB
07CEC:  MOVLW  02
07CEE:  MOVWF  xFD
07CF0:  MOVLW  01
07CF2:  MOVWF  xFE
07CF4:  MOVLB  0
07CF6:  CALL   498A
....................           
....................          
....................       if(UP)//Si oprime hacia arriba 
07CFA:  BSF    F92.5
07CFC:  BTFSC  F80.5
07CFE:  BRA    7D2A
....................       {  if(Flanco == 0)  
07D00:  MOVLB  4
07D02:  BTFSC  x2D.0
07D04:  BRA    7D28
....................             {Flanco = 1;delay_ms(30);Tppurgap[unidad-1]++; 
07D06:  BSF    x2D.0
07D08:  MOVLW  1E
07D0A:  MOVLB  5
07D0C:  MOVWF  xF4
07D0E:  MOVLB  0
07D10:  CALL   1514
07D14:  MOVLW  01
07D16:  MOVLB  4
07D18:  SUBWF  xC9,W
07D1A:  CLRF   03
07D1C:  ADDLW  FA
07D1E:  MOVWF  FE9
07D20:  MOVLW  04
07D22:  ADDWFC 03,W
07D24:  MOVWF  FEA
07D26:  INCF   FEF,F
....................             } 
....................       } 
....................          else 
07D28:  BRA    7D2E
....................             {Flanco = 0;} 
07D2A:  MOVLB  4
07D2C:  BCF    x2D.0
....................              
....................       if(DOWN)//Si oprime hacia abajo 
07D2E:  BSF    F96.0
07D30:  BTFSC  F84.0
07D32:  BRA    7D5C
....................       {  if(Flanco2 == 0)  
07D34:  BTFSC  x2D.2
07D36:  BRA    7D5A
....................             {Flanco2 = 1;delay_ms(30);Tppurgap[unidad-1]--; 
07D38:  BSF    x2D.2
07D3A:  MOVLW  1E
07D3C:  MOVLB  5
07D3E:  MOVWF  xF4
07D40:  MOVLB  0
07D42:  CALL   1514
07D46:  MOVLW  01
07D48:  MOVLB  4
07D4A:  SUBWF  xC9,W
07D4C:  CLRF   03
07D4E:  ADDLW  FA
07D50:  MOVWF  FE9
07D52:  MOVLW  04
07D54:  ADDWFC 03,W
07D56:  MOVWF  FEA
07D58:  DECF   FEF,F
....................             }      
....................       } 
....................          else 
07D5A:  BRA    7D5E
....................             {Flanco2 = 0;}   
07D5C:  BCF    x2D.2
....................              
....................       if(RIGHT)//Si oprime SET 
07D5E:  BSF    F96.1
07D60:  BTFSC  F84.1
07D62:  BRA    7D7C
....................       {  if(Flanco1 == 0)  
07D64:  BTFSC  x2D.1
07D66:  BRA    7D7A
....................             {Flanco1 = 1;delay_ms(30);unidad--; 
07D68:  BSF    x2D.1
07D6A:  MOVLW  1E
07D6C:  MOVLB  5
07D6E:  MOVWF  xF4
07D70:  MOVLB  0
07D72:  CALL   1514
07D76:  MOVLB  4
07D78:  DECF   xC9,F
....................             } 
....................       } 
....................          else 
07D7A:  BRA    7D7E
....................             {Flanco1 = 0;}   
07D7C:  BCF    x2D.1
....................              
....................       if(LEFT)//Si oprime boton de Toma. 
07D7E:  BSF    F96.2
07D80:  BTFSC  F84.2
07D82:  BRA    7E92
....................       { 
....................          delay_ms(700);Menu=4;glcd_fillscreen(OFF);Opcion=1;unidad=1; 
07D84:  MOVLW  04
07D86:  MOVLB  5
07D88:  MOVWF  xE0
07D8A:  MOVLW  AF
07D8C:  MOVWF  xF4
07D8E:  MOVLB  0
07D90:  CALL   1514
07D94:  MOVLB  5
07D96:  DECFSZ xE0,F
07D98:  BRA    7D8A
07D9A:  MOVLW  04
07D9C:  MOVLB  4
07D9E:  MOVWF  xC8
07DA0:  MOVLB  5
07DA2:  CLRF   xE8
07DA4:  MOVLB  0
07DA6:  CALL   1608
07DAA:  MOVLW  01
07DAC:  MOVLB  4
07DAE:  MOVWF  xCA
07DB0:  MOVWF  xC9
....................          write_eeprom(8,Tppurgap[0]); 
07DB2:  CLRF   FAA
07DB4:  MOVLW  08
07DB6:  MOVWF  FA9
07DB8:  MOVFF  4FA,FA8
07DBC:  BCF    FA6.6
07DBE:  BCF    FA6.7
07DC0:  BSF    FA6.2
07DC2:  MOVF   FF2,W
07DC4:  MOVWF  00
07DC6:  BCF    FF2.7
07DC8:  MOVLB  F
07DCA:  MOVLW  55
07DCC:  MOVWF  FA7
07DCE:  MOVLW  AA
07DD0:  MOVWF  FA7
07DD2:  BSF    FA6.1
07DD4:  BTFSC  FA6.1
07DD6:  BRA    7DD4
07DD8:  BCF    FA6.2
07DDA:  MOVF   00,W
07DDC:  IORWF  FF2,F
....................          delay_ms(20); 
07DDE:  MOVLW  14
07DE0:  MOVLB  5
07DE2:  MOVWF  xF4
07DE4:  MOVLB  0
07DE6:  CALL   1514
....................          write_eeprom(9,Tppurgap[1]); 
07DEA:  CLRF   FAA
07DEC:  MOVLW  09
07DEE:  MOVWF  FA9
07DF0:  MOVFF  4FB,FA8
07DF4:  BCF    FA6.6
07DF6:  BCF    FA6.7
07DF8:  BSF    FA6.2
07DFA:  MOVF   FF2,W
07DFC:  MOVWF  00
07DFE:  BCF    FF2.7
07E00:  MOVLB  F
07E02:  MOVLW  55
07E04:  MOVWF  FA7
07E06:  MOVLW  AA
07E08:  MOVWF  FA7
07E0A:  BSF    FA6.1
07E0C:  BTFSC  FA6.1
07E0E:  BRA    7E0C
07E10:  BCF    FA6.2
07E12:  MOVF   00,W
07E14:  IORWF  FF2,F
....................          delay_ms(20); 
07E16:  MOVLW  14
07E18:  MOVLB  5
07E1A:  MOVWF  xF4
07E1C:  MOVLB  0
07E1E:  CALL   1514
....................          write_eeprom(10,Tppurgap[2]); 
07E22:  CLRF   FAA
07E24:  MOVLW  0A
07E26:  MOVWF  FA9
07E28:  MOVFF  4FC,FA8
07E2C:  BCF    FA6.6
07E2E:  BCF    FA6.7
07E30:  BSF    FA6.2
07E32:  MOVF   FF2,W
07E34:  MOVWF  00
07E36:  BCF    FF2.7
07E38:  MOVLB  F
07E3A:  MOVLW  55
07E3C:  MOVWF  FA7
07E3E:  MOVLW  AA
07E40:  MOVWF  FA7
07E42:  BSF    FA6.1
07E44:  BTFSC  FA6.1
07E46:  BRA    7E44
07E48:  BCF    FA6.2
07E4A:  MOVF   00,W
07E4C:  IORWF  FF2,F
....................          delay_ms(20); 
07E4E:  MOVLW  14
07E50:  MOVLB  5
07E52:  MOVWF  xF4
07E54:  MOVLB  0
07E56:  CALL   1514
....................          write_eeprom(11,Tppurgap[3]); 
07E5A:  CLRF   FAA
07E5C:  MOVLW  0B
07E5E:  MOVWF  FA9
07E60:  MOVFF  4FD,FA8
07E64:  BCF    FA6.6
07E66:  BCF    FA6.7
07E68:  BSF    FA6.2
07E6A:  MOVF   FF2,W
07E6C:  MOVWF  00
07E6E:  BCF    FF2.7
07E70:  MOVLB  F
07E72:  MOVLW  55
07E74:  MOVWF  FA7
07E76:  MOVLW  AA
07E78:  MOVWF  FA7
07E7A:  BSF    FA6.1
07E7C:  BTFSC  FA6.1
07E7E:  BRA    7E7C
07E80:  BCF    FA6.2
07E82:  MOVF   00,W
07E84:  IORWF  FF2,F
....................          delay_ms(20); 
07E86:  MOVLW  14
07E88:  MOVLB  5
07E8A:  MOVWF  xF4
07E8C:  MOVLB  0
07E8E:  CALL   1514
....................       } 
....................              
....................       for(i=0;i<4;i++) 
07E92:  MOVLB  5
07E94:  CLRF   xCE
07E96:  MOVF   xCE,W
07E98:  SUBLW  03
07E9A:  BNC   7EEE
....................       { 
....................          if(Tppurgap[i]>9) 
07E9C:  CLRF   03
07E9E:  MOVF   xCE,W
07EA0:  ADDLW  FA
07EA2:  MOVWF  FE9
07EA4:  MOVLW  04
07EA6:  ADDWFC 03,W
07EA8:  MOVWF  FEA
07EAA:  BTFSC  FEF.7
07EAC:  BRA    7EC4
07EAE:  MOVF   FEF,W
07EB0:  SUBLW  09
07EB2:  BC    7EC4
....................          {Tppurgap[i]=0;} 
07EB4:  CLRF   03
07EB6:  MOVF   xCE,W
07EB8:  ADDLW  FA
07EBA:  MOVWF  FE9
07EBC:  MOVLW  04
07EBE:  ADDWFC 03,W
07EC0:  MOVWF  FEA
07EC2:  CLRF   FEF
....................           
....................          if(Tppurgap[i]<0) 
07EC4:  CLRF   03
07EC6:  MOVF   xCE,W
07EC8:  ADDLW  FA
07ECA:  MOVWF  FE9
07ECC:  MOVLW  04
07ECE:  ADDWFC 03,W
07ED0:  MOVWF  FEA
07ED2:  BTFSC  FEF.7
07ED4:  BRA    7ED8
07ED6:  BRA    7EEA
....................          {Tppurgap[i]=9;} 
07ED8:  CLRF   03
07EDA:  MOVF   xCE,W
07EDC:  ADDLW  FA
07EDE:  MOVWF  FE9
07EE0:  MOVLW  04
07EE2:  ADDWFC 03,W
07EE4:  MOVWF  FEA
07EE6:  MOVLW  09
07EE8:  MOVWF  FEF
....................       } 
07EEA:  INCF   xCE,F
07EEC:  BRA    7E96
....................        
....................       for(i=1;i<4;i++) 
07EEE:  MOVLW  01
07EF0:  MOVWF  xCE
07EF2:  MOVF   xCE,W
07EF4:  SUBLW  03
07EF6:  BNC   7F4C
....................       { 
....................          if(Tppurgap[i]>5) 
07EF8:  CLRF   03
07EFA:  MOVF   xCE,W
07EFC:  ADDLW  FA
07EFE:  MOVWF  FE9
07F00:  MOVLW  04
07F02:  ADDWFC 03,W
07F04:  MOVWF  FEA
07F06:  BTFSC  FEF.7
07F08:  BRA    7F20
07F0A:  MOVF   FEF,W
07F0C:  SUBLW  05
07F0E:  BC    7F20
....................          {Tppurgap[i]=0;} 
07F10:  CLRF   03
07F12:  MOVF   xCE,W
07F14:  ADDLW  FA
07F16:  MOVWF  FE9
07F18:  MOVLW  04
07F1A:  ADDWFC 03,W
07F1C:  MOVWF  FEA
07F1E:  CLRF   FEF
....................           
....................          if(Tppurgap[i]<0) 
07F20:  CLRF   03
07F22:  MOVF   xCE,W
07F24:  ADDLW  FA
07F26:  MOVWF  FE9
07F28:  MOVLW  04
07F2A:  ADDWFC 03,W
07F2C:  MOVWF  FEA
07F2E:  BTFSC  FEF.7
07F30:  BRA    7F34
07F32:  BRA    7F46
....................          {Tppurgap[i]=5;} 
07F34:  CLRF   03
07F36:  MOVF   xCE,W
07F38:  ADDLW  FA
07F3A:  MOVWF  FE9
07F3C:  MOVLW  04
07F3E:  ADDWFC 03,W
07F40:  MOVWF  FEA
07F42:  MOVLW  05
07F44:  MOVWF  FEF
....................         i++;  
07F46:  INCF   xCE,F
....................       } 
07F48:  INCF   xCE,F
07F4A:  BRA    7EF2
....................       if(unidad<1) 
07F4C:  MOVLB  4
07F4E:  MOVF   xC9,F
07F50:  BNZ   7F56
....................       {unidad=4;} 
07F52:  MOVLW  04
07F54:  MOVWF  xC9
....................       if(Opcion<1) 
07F56:  MOVF   xCA,F
07F58:  BNZ   7F5E
....................       {Opcion=4;} 
07F5A:  MOVLW  04
07F5C:  MOVWF  xCA
....................      
....................     } 
.................... //_--------------------------------------------------------------------------------------------------------------------------------------------------------        
....................  
.................... //_-------------------------------------------------------------------------------------------------------------------------------------------------------- 
....................       if(Menu==5){ //Menu de Clave. 
07F5E:  MOVF   xC8,W
07F60:  SUBLW  05
07F62:  BNZ   7FC2
....................  
....................       PidePassword(3,5,211,Password[0],Password[1],Password[2],Password[3]); 
07F64:  MOVLW  03
07F66:  MOVLB  5
07F68:  MOVWF  xE1
07F6A:  MOVLW  05
07F6C:  MOVWF  xE2
07F6E:  MOVLW  D3
07F70:  MOVWF  xE3
07F72:  MOVFF  50E,5E4
07F76:  MOVFF  50F,5E5
07F7A:  MOVFF  510,5E6
07F7E:  MOVFF  511,5E7
07F82:  MOVLB  0
07F84:  CALL   4CE8
....................              
....................       if(LEFT)//Si oprime boton de Toma. 
07F88:  BSF    F96.2
07F8A:  BTFSC  F84.2
07F8C:  BRA    7FC4
....................       { 
....................          delay_ms(200); 
07F8E:  MOVLW  C8
07F90:  MOVLB  5
07F92:  MOVWF  xF4
07F94:  MOVLB  0
07F96:  CALL   1514
....................          if(unidad==1){ 
07F9A:  MOVLB  4
07F9C:  DECFSZ xC9,W
07F9E:  BRA    7FC2
....................             Menu=3;glcd_fillscreen(OFF);Opcion=1;unidad=1;Contrasena[0]=0;Contrasena[1]=0;Contrasena[2]=0;Contrasena[3]=0; 
07FA0:  MOVLW  03
07FA2:  MOVWF  xC8
07FA4:  MOVLB  5
07FA6:  CLRF   xE8
07FA8:  MOVLB  0
07FAA:  CALL   1608
07FAE:  MOVLW  01
07FB0:  MOVLB  4
07FB2:  MOVWF  xCA
07FB4:  MOVWF  xC9
07FB6:  MOVLB  5
07FB8:  CLRF   x0A
07FBA:  CLRF   x0B
07FBC:  CLRF   x0C
07FBE:  CLRF   x0D
07FC0:  MOVLB  4
07FC2:  MOVLB  0
....................          } 
....................       }  
....................     } 
.................... //_--------------------------------------------------------------------------------------------------------------------------------------------------------        
....................  
.................... //_-------------------------------------------------------------------------------------------------------------------------------------------------------- 
....................       if(Menu==211){ //Menu de Cambio Clave. 
07FC4:  MOVLB  4
07FC6:  MOVF   xC8,W
07FC8:  SUBLW  D3
07FCA:  BTFSS  FD8.2
07FCC:  BRA    846C
....................        
....................       if(n==0) 
07FCE:  BTFSC  x2F.3
07FD0:  BRA    8030
....................       { 
....................          displayContrasena(Contrasena[0],20,30,1);displayContrasena(Contrasena[1],40,30,0); 
07FD2:  MOVFF  50A,5EA
07FD6:  MOVLW  14
07FD8:  MOVLB  5
07FDA:  MOVWF  xEB
07FDC:  MOVLW  1E
07FDE:  MOVWF  xEC
07FE0:  MOVLW  01
07FE2:  MOVWF  xED
07FE4:  MOVLB  0
07FE6:  CALL   4B64
07FEA:  MOVFF  50B,5EA
07FEE:  MOVLW  28
07FF0:  MOVLB  5
07FF2:  MOVWF  xEB
07FF4:  MOVLW  1E
07FF6:  MOVWF  xEC
07FF8:  CLRF   xED
07FFA:  MOVLB  0
07FFC:  CALL   4B64
....................          displayContrasena(Contrasena[2],60,30,0);displayContrasena(Contrasena[0],80,30,0); 
08000:  MOVFF  50C,5EA
08004:  MOVLW  3C
08006:  MOVLB  5
08008:  MOVWF  xEB
0800A:  MOVLW  1E
0800C:  MOVWF  xEC
0800E:  CLRF   xED
08010:  MOVLB  0
08012:  CALL   4B64
08016:  MOVFF  50A,5EA
0801A:  MOVLW  50
0801C:  MOVLB  5
0801E:  MOVWF  xEB
08020:  MOVLW  1E
08022:  MOVWF  xEC
08024:  CLRF   xED
08026:  MOVLB  0
08028:  CALL   4B64
....................          n=1; 
0802C:  MOVLB  4
0802E:  BSF    x2F.3
....................       } 
....................       strcpy(Menus.Letra,"Clave Nueva"); 
08030:  MOVLW  04
08032:  MOVWF  FEA
08034:  MOVLW  17
08036:  MOVWF  FE9
08038:  MOVFF  FF2,5E0
0803C:  BCF    FF2.7
0803E:  MOVLW  00
08040:  MOVLB  0
08042:  CALL   11BC
08046:  TBLRD*-
08048:  TBLRD*+
0804A:  MOVF   FF5,W
0804C:  MOVWF  FEE
0804E:  IORLW  00
08050:  BNZ   8048
08052:  MOVLB  5
08054:  BTFSC  xE0.7
08056:  BSF    FF2.7
....................       displayMenu(Menus.Letra,0,0,1,2); 
08058:  MOVLW  04
0805A:  MOVWF  xE9
0805C:  MOVLW  17
0805E:  MOVWF  xE8
08060:  CLRF   xEA
08062:  CLRF   xEB
08064:  MOVLW  01
08066:  MOVWF  xEC
08068:  MOVLW  02
0806A:  MOVWF  xED
0806C:  MOVLB  0
0806E:  CALL   4C1C
....................          
....................        
....................       if(UP)//Si oprime hacia arriba 
08072:  BSF    F92.5
08074:  BTFSC  F80.5
08076:  BRA    8150
....................       {  if(Flanco == 0)  
08078:  MOVLB  4
0807A:  BTFSC  x2D.0
0807C:  BRA    814E
....................             {Flanco = 1;delay_ms(30); 
0807E:  BSF    x2D.0
08080:  MOVLW  1E
08082:  MOVLB  5
08084:  MOVWF  xF4
08086:  MOVLB  0
08088:  CALL   1514
....................             for(i=1;i<=4;i++) 
0808C:  MOVLW  01
0808E:  MOVLB  5
08090:  MOVWF  xCE
08092:  MOVF   xCE,W
08094:  SUBLW  04
08096:  BNC   814C
....................                { 
....................                   if(unidad==i) 
08098:  MOVF   xCE,W
0809A:  MOVLB  4
0809C:  SUBWF  xC9,W
0809E:  BNZ   8114
....................                   {Contrasena[i-1]++; 
080A0:  MOVLW  01
080A2:  MOVLB  5
080A4:  SUBWF  xCE,W
080A6:  CLRF   03
080A8:  ADDLW  0A
080AA:  MOVWF  FE9
080AC:  MOVLW  05
080AE:  ADDWFC 03,W
080B0:  MOVWF  FEA
080B2:  INCF   FEF,F
....................                   if(Contrasena[i-1]>9) 
080B4:  MOVLW  01
080B6:  SUBWF  xCE,W
080B8:  CLRF   03
080BA:  ADDLW  0A
080BC:  MOVWF  FE9
080BE:  MOVLW  05
080C0:  ADDWFC 03,W
080C2:  MOVWF  FEA
080C4:  BTFSC  FEF.7
080C6:  BRA    80E0
080C8:  MOVF   FEF,W
080CA:  SUBLW  09
080CC:  BC    80E0
....................                         {Contrasena[i-1]=0;} 
080CE:  MOVLW  01
080D0:  SUBWF  xCE,W
080D2:  CLRF   03
080D4:  ADDLW  0A
080D6:  MOVWF  FE9
080D8:  MOVLW  05
080DA:  ADDWFC 03,W
080DC:  MOVWF  FEA
080DE:  CLRF   FEF
....................                   displayContrasena(Contrasena[i-1],i*20,30,1);} 
080E0:  MOVLW  01
080E2:  SUBWF  xCE,W
080E4:  CLRF   03
080E6:  ADDLW  0A
080E8:  MOVWF  FE9
080EA:  MOVLW  05
080EC:  ADDWFC 03,W
080EE:  MOVWF  FEA
080F0:  MOVFF  FEF,5E0
080F4:  MOVF   xCE,W
080F6:  MULLW  14
080F8:  MOVFF  FF3,5E1
080FC:  MOVFF  5E0,5EA
08100:  MOVFF  5E1,5EB
08104:  MOVLW  1E
08106:  MOVWF  xEC
08108:  MOVLW  01
0810A:  MOVWF  xED
0810C:  MOVLB  0
0810E:  CALL   4B64
....................                   else 
08112:  BRA    8146
....................                   {displayContrasena(Contrasena[i-1],i*20,30,0);} 
08114:  MOVLW  01
08116:  MOVLB  5
08118:  SUBWF  xCE,W
0811A:  CLRF   03
0811C:  ADDLW  0A
0811E:  MOVWF  FE9
08120:  MOVLW  05
08122:  ADDWFC 03,W
08124:  MOVWF  FEA
08126:  MOVFF  FEF,5E0
0812A:  MOVF   xCE,W
0812C:  MULLW  14
0812E:  MOVFF  FF3,5E1
08132:  MOVFF  5E0,5EA
08136:  MOVFF  5E1,5EB
0813A:  MOVLW  1E
0813C:  MOVWF  xEC
0813E:  CLRF   xED
08140:  MOVLB  0
08142:  CALL   4B64
....................                } 
08146:  MOVLB  5
08148:  INCF   xCE,F
0814A:  BRA    8092
0814C:  MOVLB  4
....................             } 
....................       } 
....................          else 
0814E:  BRA    8154
....................             {Flanco = 0;} 
08150:  MOVLB  4
08152:  BCF    x2D.0
....................              
....................       if(DOWN )//Si oprime hacia abajo 
08154:  BSF    F96.0
08156:  BTFSC  F84.0
08158:  BRA    822E
....................       {  if(Flanco2 == 0)  
0815A:  BTFSC  x2D.2
0815C:  BRA    822C
....................             {Flanco2 = 1;delay_ms(30); 
0815E:  BSF    x2D.2
08160:  MOVLW  1E
08162:  MOVLB  5
08164:  MOVWF  xF4
08166:  MOVLB  0
08168:  CALL   1514
....................                for(i=1;i<=4;i++) 
0816C:  MOVLW  01
0816E:  MOVLB  5
08170:  MOVWF  xCE
08172:  MOVF   xCE,W
08174:  SUBLW  04
08176:  BNC   822A
....................                { 
....................                   if(unidad==i) 
08178:  MOVF   xCE,W
0817A:  MOVLB  4
0817C:  SUBWF  xC9,W
0817E:  BNZ   81F2
....................                   {Contrasena[i-1]--;  
08180:  MOVLW  01
08182:  MOVLB  5
08184:  SUBWF  xCE,W
08186:  CLRF   03
08188:  ADDLW  0A
0818A:  MOVWF  FE9
0818C:  MOVLW  05
0818E:  ADDWFC 03,W
08190:  MOVWF  FEA
08192:  DECF   FEF,F
....................                      if(Contrasena[i-1]<0) 
08194:  MOVLW  01
08196:  SUBWF  xCE,W
08198:  CLRF   03
0819A:  ADDLW  0A
0819C:  MOVWF  FE9
0819E:  MOVLW  05
081A0:  ADDWFC 03,W
081A2:  MOVWF  FEA
081A4:  BTFSC  FEF.7
081A6:  BRA    81AA
081A8:  BRA    81BE
....................                         {Contrasena[i-1]=9;} 
081AA:  MOVLW  01
081AC:  SUBWF  xCE,W
081AE:  CLRF   03
081B0:  ADDLW  0A
081B2:  MOVWF  FE9
081B4:  MOVLW  05
081B6:  ADDWFC 03,W
081B8:  MOVWF  FEA
081BA:  MOVLW  09
081BC:  MOVWF  FEF
....................                    displayContrasena(Contrasena[i-1],i*20,30,1);} 
081BE:  MOVLW  01
081C0:  SUBWF  xCE,W
081C2:  CLRF   03
081C4:  ADDLW  0A
081C6:  MOVWF  FE9
081C8:  MOVLW  05
081CA:  ADDWFC 03,W
081CC:  MOVWF  FEA
081CE:  MOVFF  FEF,5E0
081D2:  MOVF   xCE,W
081D4:  MULLW  14
081D6:  MOVFF  FF3,5E1
081DA:  MOVFF  5E0,5EA
081DE:  MOVFF  5E1,5EB
081E2:  MOVLW  1E
081E4:  MOVWF  xEC
081E6:  MOVLW  01
081E8:  MOVWF  xED
081EA:  MOVLB  0
081EC:  CALL   4B64
....................                   else 
081F0:  BRA    8224
....................                   {displayContrasena(Contrasena[i-1],i*20,30,0);} 
081F2:  MOVLW  01
081F4:  MOVLB  5
081F6:  SUBWF  xCE,W
081F8:  CLRF   03
081FA:  ADDLW  0A
081FC:  MOVWF  FE9
081FE:  MOVLW  05
08200:  ADDWFC 03,W
08202:  MOVWF  FEA
08204:  MOVFF  FEF,5E0
08208:  MOVF   xCE,W
0820A:  MULLW  14
0820C:  MOVFF  FF3,5E1
08210:  MOVFF  5E0,5EA
08214:  MOVFF  5E1,5EB
08218:  MOVLW  1E
0821A:  MOVWF  xEC
0821C:  CLRF   xED
0821E:  MOVLB  0
08220:  CALL   4B64
....................                }       
08224:  MOVLB  5
08226:  INCF   xCE,F
08228:  BRA    8172
0822A:  MOVLB  4
....................             }      
....................       } 
....................          else 
0822C:  BRA    8230
....................             {Flanco2 = 0;}   
0822E:  BCF    x2D.2
....................              
....................       if(RIGHT)//Si oprime SET 
08230:  BSF    F96.1
08232:  BTFSC  F84.1
08234:  BRA    82D2
....................       {  if(Flanco1 == 0)  
08236:  BTFSC  x2D.1
08238:  BRA    82D0
....................             {Flanco1 = 1;delay_ms(30);unidad++; 
0823A:  BSF    x2D.1
0823C:  MOVLW  1E
0823E:  MOVLB  5
08240:  MOVWF  xF4
08242:  MOVLB  0
08244:  CALL   1514
08248:  MOVLB  4
0824A:  INCF   xC9,F
....................                for(i=1;i<=4;i++) 
0824C:  MOVLW  01
0824E:  MOVLB  5
08250:  MOVWF  xCE
08252:  MOVF   xCE,W
08254:  SUBLW  04
08256:  BNC   82CE
....................                { 
....................                   if(unidad==i) 
08258:  MOVF   xCE,W
0825A:  MOVLB  4
0825C:  SUBWF  xC9,W
0825E:  BNZ   8296
....................                   {displayContrasena(Contrasena[i-1],i*20,30,1);} 
08260:  MOVLW  01
08262:  MOVLB  5
08264:  SUBWF  xCE,W
08266:  CLRF   03
08268:  ADDLW  0A
0826A:  MOVWF  FE9
0826C:  MOVLW  05
0826E:  ADDWFC 03,W
08270:  MOVWF  FEA
08272:  MOVFF  FEF,5E0
08276:  MOVF   xCE,W
08278:  MULLW  14
0827A:  MOVFF  FF3,5E1
0827E:  MOVFF  5E0,5EA
08282:  MOVFF  5E1,5EB
08286:  MOVLW  1E
08288:  MOVWF  xEC
0828A:  MOVLW  01
0828C:  MOVWF  xED
0828E:  MOVLB  0
08290:  CALL   4B64
....................                   else 
08294:  BRA    82C8
....................                   {displayContrasena(Contrasena[i-1],i*20,30,0);} 
08296:  MOVLW  01
08298:  MOVLB  5
0829A:  SUBWF  xCE,W
0829C:  CLRF   03
0829E:  ADDLW  0A
082A0:  MOVWF  FE9
082A2:  MOVLW  05
082A4:  ADDWFC 03,W
082A6:  MOVWF  FEA
082A8:  MOVFF  FEF,5E0
082AC:  MOVF   xCE,W
082AE:  MULLW  14
082B0:  MOVFF  FF3,5E1
082B4:  MOVFF  5E0,5EA
082B8:  MOVFF  5E1,5EB
082BC:  MOVLW  1E
082BE:  MOVWF  xEC
082C0:  CLRF   xED
082C2:  MOVLB  0
082C4:  CALL   4B64
....................                } 
082C8:  MOVLB  5
082CA:  INCF   xCE,F
082CC:  BRA    8252
082CE:  MOVLB  4
....................             } 
....................       } 
....................          else 
082D0:  BRA    82D4
....................             {Flanco1 = 0;}   
082D2:  BCF    x2D.1
....................              
....................       if(LEFT)//Si oprime boton de Toma. 
082D4:  BSF    F96.2
082D6:  BTFSC  F84.2
082D8:  BRA    8318
....................       { 
....................          
....................          delay_ms(700); 
082DA:  MOVLW  04
082DC:  MOVLB  5
082DE:  MOVWF  xE0
082E0:  MOVLW  AF
082E2:  MOVWF  xF4
082E4:  MOVLB  0
082E6:  CALL   1514
082EA:  MOVLB  5
082EC:  DECFSZ xE0,F
082EE:  BRA    82E0
....................          if(unidad==1){ 
082F0:  MOVLB  4
082F2:  DECFSZ xC9,W
082F4:  BRA    8318
....................             Menu=3;glcd_fillscreen(OFF);Opcion=1;unidad=1;Contrasena[0]=0;Contrasena[1]=0;Contrasena[2]=0;Contrasena[3]=0; 
082F6:  MOVLW  03
082F8:  MOVWF  xC8
082FA:  MOVLB  5
082FC:  CLRF   xE8
082FE:  MOVLB  0
08300:  CALL   1608
08304:  MOVLW  01
08306:  MOVLB  4
08308:  MOVWF  xCA
0830A:  MOVWF  xC9
0830C:  MOVLB  5
0830E:  CLRF   x0A
08310:  CLRF   x0B
08312:  CLRF   x0C
08314:  CLRF   x0D
08316:  MOVLB  4
....................          } 
....................       } 
....................        
....................       if(unidad>4) 
08318:  MOVF   xC9,W
0831A:  SUBLW  04
0831C:  BTFSC  FD8.0
0831E:  BRA    846C
....................       { 
....................          Opcion=1;glcd_fillscreen(OFF);unidad=1;n=0; 
08320:  MOVLW  01
08322:  MOVWF  xCA
08324:  MOVLB  5
08326:  CLRF   xE8
08328:  MOVLB  0
0832A:  CALL   1608
0832E:  MOVLW  01
08330:  MOVLB  4
08332:  MOVWF  xC9
08334:  BCF    x2F.3
....................          Password[0]=Contrasena[0];Password[1]=Contrasena[1];Password[2]=Contrasena[2];Password[3]=Contrasena[3]; 
08336:  MOVFF  50A,50E
0833A:  MOVFF  50B,50F
0833E:  MOVFF  50C,510
08342:  MOVFF  50D,511
....................          write_eeprom(0,Password[0]); 
08346:  CLRF   FAA
08348:  CLRF   FA9
0834A:  MOVFF  50E,FA8
0834E:  BCF    FA6.6
08350:  BCF    FA6.7
08352:  BSF    FA6.2
08354:  MOVF   FF2,W
08356:  MOVWF  00
08358:  BCF    FF2.7
0835A:  MOVLB  F
0835C:  MOVLW  55
0835E:  MOVWF  FA7
08360:  MOVLW  AA
08362:  MOVWF  FA7
08364:  BSF    FA6.1
08366:  BTFSC  FA6.1
08368:  BRA    8366
0836A:  BCF    FA6.2
0836C:  MOVF   00,W
0836E:  IORWF  FF2,F
....................          delay_ms(20); 
08370:  MOVLW  14
08372:  MOVLB  5
08374:  MOVWF  xF4
08376:  MOVLB  0
08378:  CALL   1514
....................          write_eeprom(1,Password[1]); 
0837C:  CLRF   FAA
0837E:  MOVLW  01
08380:  MOVWF  FA9
08382:  MOVFF  50F,FA8
08386:  BCF    FA6.6
08388:  BCF    FA6.7
0838A:  BSF    FA6.2
0838C:  MOVF   FF2,W
0838E:  MOVWF  00
08390:  BCF    FF2.7
08392:  MOVLB  F
08394:  MOVLW  55
08396:  MOVWF  FA7
08398:  MOVLW  AA
0839A:  MOVWF  FA7
0839C:  BSF    FA6.1
0839E:  BTFSC  FA6.1
083A0:  BRA    839E
083A2:  BCF    FA6.2
083A4:  MOVF   00,W
083A6:  IORWF  FF2,F
....................          delay_ms(20); 
083A8:  MOVLW  14
083AA:  MOVLB  5
083AC:  MOVWF  xF4
083AE:  MOVLB  0
083B0:  CALL   1514
....................          write_eeprom(2,Password[2]); 
083B4:  CLRF   FAA
083B6:  MOVLW  02
083B8:  MOVWF  FA9
083BA:  MOVFF  510,FA8
083BE:  BCF    FA6.6
083C0:  BCF    FA6.7
083C2:  BSF    FA6.2
083C4:  MOVF   FF2,W
083C6:  MOVWF  00
083C8:  BCF    FF2.7
083CA:  MOVLB  F
083CC:  MOVLW  55
083CE:  MOVWF  FA7
083D0:  MOVLW  AA
083D2:  MOVWF  FA7
083D4:  BSF    FA6.1
083D6:  BTFSC  FA6.1
083D8:  BRA    83D6
083DA:  BCF    FA6.2
083DC:  MOVF   00,W
083DE:  IORWF  FF2,F
....................          delay_ms(20); 
083E0:  MOVLW  14
083E2:  MOVLB  5
083E4:  MOVWF  xF4
083E6:  MOVLB  0
083E8:  CALL   1514
....................          write_eeprom(3,Password[3]); 
083EC:  CLRF   FAA
083EE:  MOVLW  03
083F0:  MOVWF  FA9
083F2:  MOVFF  511,FA8
083F6:  BCF    FA6.6
083F8:  BCF    FA6.7
083FA:  BSF    FA6.2
083FC:  MOVF   FF2,W
083FE:  MOVWF  00
08400:  BCF    FF2.7
08402:  MOVLB  F
08404:  MOVLW  55
08406:  MOVWF  FA7
08408:  MOVLW  AA
0840A:  MOVWF  FA7
0840C:  BSF    FA6.1
0840E:  BTFSC  FA6.1
08410:  BRA    840E
08412:  BCF    FA6.2
08414:  MOVF   00,W
08416:  IORWF  FF2,F
....................          delay_ms(20); 
08418:  MOVLW  14
0841A:  MOVLB  5
0841C:  MOVWF  xF4
0841E:  MOVLB  0
08420:  CALL   1514
....................          glcd_imagen(1);glcd_update();Menu=211;delay_ms(1000);glcd_fillScreen(OFF);Menu=3; 
08424:  MOVLW  01
08426:  MOVLB  5
08428:  MOVWF  xE0
0842A:  MOVLB  0
0842C:  CALL   54C6
08430:  CALL   1662
08434:  MOVLW  D3
08436:  MOVLB  4
08438:  MOVWF  xC8
0843A:  MOVLW  04
0843C:  MOVLB  5
0843E:  MOVWF  xE0
08440:  MOVLW  FA
08442:  MOVWF  xF4
08444:  MOVLB  0
08446:  CALL   1514
0844A:  MOVLB  5
0844C:  DECFSZ xE0,F
0844E:  BRA    8440
08450:  CLRF   xE8
08452:  MOVLB  0
08454:  CALL   1608
08458:  MOVLW  03
0845A:  MOVLB  4
0845C:  MOVWF  xC8
....................          n=0; 
0845E:  BCF    x2F.3
....................          Contrasena[0]=0;Contrasena[1]=0;Contrasena[2]=0;Contrasena[3]=0; 
08460:  MOVLB  5
08462:  CLRF   x0A
08464:  CLRF   x0B
08466:  CLRF   x0C
08468:  CLRF   x0D
0846A:  MOVLB  4
....................       } 
....................      
....................     } 
.................... //_--------------------------------------------------------------------------------------------------------------------------------------------------------        
....................  
.................... //_-------------------------------------------------------------------------------------------------------------------------------------------------------- 
....................       if(Menu==31){ //Menu de Mantenimiento. 
0846C:  MOVF   xC8,W
0846E:  SUBLW  1F
08470:  BTFSS  FD8.2
08472:  BRA    87D2
....................        
....................          strcpy(Menus.Letra,"Manteniento"); 
08474:  MOVLW  04
08476:  MOVWF  FEA
08478:  MOVLW  17
0847A:  MOVWF  FE9
0847C:  MOVFF  FF2,5E0
08480:  BCF    FF2.7
08482:  MOVLW  00
08484:  MOVLB  0
08486:  CALL   11E6
0848A:  TBLRD*-
0848C:  TBLRD*+
0848E:  MOVF   FF5,W
08490:  MOVWF  FEE
08492:  IORLW  00
08494:  BNZ   848C
08496:  MOVLB  5
08498:  BTFSC  xE0.7
0849A:  BSF    FF2.7
....................          displayMenu(Menus.Letra,0,0,1,2); 
0849C:  MOVLW  04
0849E:  MOVWF  xE9
084A0:  MOVLW  17
084A2:  MOVWF  xE8
084A4:  CLRF   xEA
084A6:  CLRF   xEB
084A8:  MOVLW  01
084AA:  MOVWF  xEC
084AC:  MOVLW  02
084AE:  MOVWF  xED
084B0:  MOVLB  0
084B2:  CALL   4C1C
....................           
....................          strcpy(Menus.Letra,"Trabajo Filtro(h):"); 
084B6:  MOVLW  04
084B8:  MOVWF  FEA
084BA:  MOVLW  17
084BC:  MOVWF  FE9
084BE:  MOVFF  FF2,5E0
084C2:  BCF    FF2.7
084C4:  MOVLW  00
084C6:  CALL   1210
084CA:  TBLRD*-
084CC:  TBLRD*+
084CE:  MOVF   FF5,W
084D0:  MOVWF  FEE
084D2:  IORLW  00
084D4:  BNZ   84CC
084D6:  MOVLB  5
084D8:  BTFSC  xE0.7
084DA:  BSF    FF2.7
....................          displayMenu(Menus.Letra,10,20,1,1); 
084DC:  MOVLW  04
084DE:  MOVWF  xE9
084E0:  MOVLW  17
084E2:  MOVWF  xE8
084E4:  MOVLW  0A
084E6:  MOVWF  xEA
084E8:  MOVLW  14
084EA:  MOVWF  xEB
084EC:  MOVLW  01
084EE:  MOVWF  xEC
084F0:  MOVWF  xED
084F2:  MOVLB  0
084F4:  CALL   4C1C
....................          glcd_text57(0, 31, Vida_Filtro, 1, ON); 
084F8:  MOVLB  5
084FA:  CLRF   xF9
084FC:  MOVLW  1F
084FE:  MOVWF  xFA
08500:  MOVLW  04
08502:  MOVWF  xFC
08504:  MOVLW  9D
08506:  MOVWF  xFB
08508:  MOVLW  01
0850A:  MOVWF  xFD
0850C:  MOVWF  xFE
0850E:  MOVLB  0
08510:  CALL   498A
....................          displayTiempo(Ttrabajo[3],60,30,0,1);displayTiempo(Ttrabajo[2],67,30,0,1);displayTiempo(Ttrabajo[1],74,30,0,1);displayTiempo(Ttrabajo[0],82,30,0,1); 
08514:  MOVFF  509,5E0
08518:  MOVLW  3C
0851A:  MOVLB  5
0851C:  MOVWF  xE1
0851E:  MOVLW  1E
08520:  MOVWF  xE2
08522:  CLRF   xE3
08524:  MOVLW  01
08526:  MOVWF  xE4
08528:  MOVLB  0
0852A:  CALL   53CA
0852E:  MOVFF  508,5E0
08532:  MOVLW  43
08534:  MOVLB  5
08536:  MOVWF  xE1
08538:  MOVLW  1E
0853A:  MOVWF  xE2
0853C:  CLRF   xE3
0853E:  MOVLW  01
08540:  MOVWF  xE4
08542:  MOVLB  0
08544:  CALL   53CA
08548:  MOVFF  507,5E0
0854C:  MOVLW  4A
0854E:  MOVLB  5
08550:  MOVWF  xE1
08552:  MOVLW  1E
08554:  MOVWF  xE2
08556:  CLRF   xE3
08558:  MOVLW  01
0855A:  MOVWF  xE4
0855C:  MOVLB  0
0855E:  CALL   53CA
08562:  MOVFF  506,5E0
08566:  MOVLW  52
08568:  MOVLB  5
0856A:  MOVWF  xE1
0856C:  MOVLW  1E
0856E:  MOVWF  xE2
08570:  CLRF   xE3
08572:  MOVLW  01
08574:  MOVWF  xE4
08576:  MOVLB  0
08578:  CALL   53CA
....................           
....................          LuzBlanca_on; 
0857C:  BSF    F8B.0
0857E:  BCF    F94.0
....................           
....................             if(UP && RIGHT) // Reinicia Tiempo de Luz UV 
08580:  BSF    F92.5
08582:  BTFSC  F80.5
08584:  BRA    8698
08586:  BSF    F96.1
08588:  BTFSC  F84.1
0858A:  BRA    8698
....................             { 
....................                   delay_ms(2000); 
0858C:  MOVLW  08
0858E:  MOVLB  5
08590:  MOVWF  xE0
08592:  MOVLW  FA
08594:  MOVWF  xF4
08596:  MOVLB  0
08598:  CALL   1514
0859C:  MOVLB  5
0859E:  DECFSZ xE0,F
085A0:  BRA    8592
....................                   write_eeprom(12,0); 
085A2:  CLRF   FAA
085A4:  MOVLW  0C
085A6:  MOVWF  FA9
085A8:  CLRF   FA8
085AA:  BCF    FA6.6
085AC:  BCF    FA6.7
085AE:  BSF    FA6.2
085B0:  MOVF   FF2,W
085B2:  MOVWF  00
085B4:  BCF    FF2.7
085B6:  MOVLB  F
085B8:  MOVLW  55
085BA:  MOVWF  FA7
085BC:  MOVLW  AA
085BE:  MOVWF  FA7
085C0:  BSF    FA6.1
085C2:  BTFSC  FA6.1
085C4:  BRA    85C2
085C6:  BCF    FA6.2
085C8:  MOVF   00,W
085CA:  IORWF  FF2,F
....................                   delay_ms(20); 
085CC:  MOVLW  14
085CE:  MOVLB  5
085D0:  MOVWF  xF4
085D2:  MOVLB  0
085D4:  CALL   1514
....................                   write_eeprom(13,0); 
085D8:  CLRF   FAA
085DA:  MOVLW  0D
085DC:  MOVWF  FA9
085DE:  CLRF   FA8
085E0:  BCF    FA6.6
085E2:  BCF    FA6.7
085E4:  BSF    FA6.2
085E6:  MOVF   FF2,W
085E8:  MOVWF  00
085EA:  BCF    FF2.7
085EC:  MOVLB  F
085EE:  MOVLW  55
085F0:  MOVWF  FA7
085F2:  MOVLW  AA
085F4:  MOVWF  FA7
085F6:  BSF    FA6.1
085F8:  BTFSC  FA6.1
085FA:  BRA    85F8
085FC:  BCF    FA6.2
085FE:  MOVF   00,W
08600:  IORWF  FF2,F
....................                   delay_ms(20); 
08602:  MOVLW  14
08604:  MOVLB  5
08606:  MOVWF  xF4
08608:  MOVLB  0
0860A:  CALL   1514
....................                   write_eeprom(14,0); 
0860E:  CLRF   FAA
08610:  MOVLW  0E
08612:  MOVWF  FA9
08614:  CLRF   FA8
08616:  BCF    FA6.6
08618:  BCF    FA6.7
0861A:  BSF    FA6.2
0861C:  MOVF   FF2,W
0861E:  MOVWF  00
08620:  BCF    FF2.7
08622:  MOVLB  F
08624:  MOVLW  55
08626:  MOVWF  FA7
08628:  MOVLW  AA
0862A:  MOVWF  FA7
0862C:  BSF    FA6.1
0862E:  BTFSC  FA6.1
08630:  BRA    862E
08632:  BCF    FA6.2
08634:  MOVF   00,W
08636:  IORWF  FF2,F
....................                   delay_ms(20); 
08638:  MOVLW  14
0863A:  MOVLB  5
0863C:  MOVWF  xF4
0863E:  MOVLB  0
08640:  CALL   1514
....................                   write_eeprom(15,0); 
08644:  CLRF   FAA
08646:  MOVLW  0F
08648:  MOVWF  FA9
0864A:  CLRF   FA8
0864C:  BCF    FA6.6
0864E:  BCF    FA6.7
08650:  BSF    FA6.2
08652:  MOVF   FF2,W
08654:  MOVWF  00
08656:  BCF    FF2.7
08658:  MOVLB  F
0865A:  MOVLW  55
0865C:  MOVWF  FA7
0865E:  MOVLW  AA
08660:  MOVWF  FA7
08662:  BSF    FA6.1
08664:  BTFSC  FA6.1
08666:  BRA    8664
08668:  BCF    FA6.2
0866A:  MOVF   00,W
0866C:  IORWF  FF2,F
....................                   delay_ms(20); 
0866E:  MOVLW  14
08670:  MOVLB  5
08672:  MOVWF  xF4
08674:  MOVLB  0
08676:  CALL   1514
....................                   Tuv[3]=0;Tuv[2]=0;Tuv[1]=0;Tuv[0]=0; 
0867A:  MOVLB  5
0867C:  CLRF   x01
0867E:  CLRF   x00
08680:  MOVLB  4
08682:  CLRF   xFF
08684:  CLRF   xFE
....................                   Menu=3;glcd_fillscreen(OFF);LuzBlanca_off; 
08686:  MOVLW  03
08688:  MOVWF  xC8
0868A:  MOVLB  5
0868C:  CLRF   xE8
0868E:  MOVLB  0
08690:  CALL   1608
08694:  BCF    F8B.0
08696:  BCF    F94.0
....................                 
....................             } 
....................             if(DOWN && RIGHT) // Reinicia Tiempo de Trabajo 
08698:  BSF    F96.0
0869A:  BTFSC  F84.0
0869C:  BRA    87B0
0869E:  BSF    F96.1
086A0:  BTFSC  F84.1
086A2:  BRA    87B0
....................             { 
....................                   delay_ms(2000); 
086A4:  MOVLW  08
086A6:  MOVLB  5
086A8:  MOVWF  xE0
086AA:  MOVLW  FA
086AC:  MOVWF  xF4
086AE:  MOVLB  0
086B0:  CALL   1514
086B4:  MOVLB  5
086B6:  DECFSZ xE0,F
086B8:  BRA    86AA
....................                   write_eeprom(16,0); 
086BA:  CLRF   FAA
086BC:  MOVLW  10
086BE:  MOVWF  FA9
086C0:  CLRF   FA8
086C2:  BCF    FA6.6
086C4:  BCF    FA6.7
086C6:  BSF    FA6.2
086C8:  MOVF   FF2,W
086CA:  MOVWF  00
086CC:  BCF    FF2.7
086CE:  MOVLB  F
086D0:  MOVLW  55
086D2:  MOVWF  FA7
086D4:  MOVLW  AA
086D6:  MOVWF  FA7
086D8:  BSF    FA6.1
086DA:  BTFSC  FA6.1
086DC:  BRA    86DA
086DE:  BCF    FA6.2
086E0:  MOVF   00,W
086E2:  IORWF  FF2,F
....................                   delay_ms(20); 
086E4:  MOVLW  14
086E6:  MOVLB  5
086E8:  MOVWF  xF4
086EA:  MOVLB  0
086EC:  CALL   1514
....................                   write_eeprom(17,0); 
086F0:  CLRF   FAA
086F2:  MOVLW  11
086F4:  MOVWF  FA9
086F6:  CLRF   FA8
086F8:  BCF    FA6.6
086FA:  BCF    FA6.7
086FC:  BSF    FA6.2
086FE:  MOVF   FF2,W
08700:  MOVWF  00
08702:  BCF    FF2.7
08704:  MOVLB  F
08706:  MOVLW  55
08708:  MOVWF  FA7
0870A:  MOVLW  AA
0870C:  MOVWF  FA7
0870E:  BSF    FA6.1
08710:  BTFSC  FA6.1
08712:  BRA    8710
08714:  BCF    FA6.2
08716:  MOVF   00,W
08718:  IORWF  FF2,F
....................                   delay_ms(20); 
0871A:  MOVLW  14
0871C:  MOVLB  5
0871E:  MOVWF  xF4
08720:  MOVLB  0
08722:  CALL   1514
....................                   write_eeprom(18,0); 
08726:  CLRF   FAA
08728:  MOVLW  12
0872A:  MOVWF  FA9
0872C:  CLRF   FA8
0872E:  BCF    FA6.6
08730:  BCF    FA6.7
08732:  BSF    FA6.2
08734:  MOVF   FF2,W
08736:  MOVWF  00
08738:  BCF    FF2.7
0873A:  MOVLB  F
0873C:  MOVLW  55
0873E:  MOVWF  FA7
08740:  MOVLW  AA
08742:  MOVWF  FA7
08744:  BSF    FA6.1
08746:  BTFSC  FA6.1
08748:  BRA    8746
0874A:  BCF    FA6.2
0874C:  MOVF   00,W
0874E:  IORWF  FF2,F
....................                   delay_ms(20); 
08750:  MOVLW  14
08752:  MOVLB  5
08754:  MOVWF  xF4
08756:  MOVLB  0
08758:  CALL   1514
....................                   write_eeprom(19,0); 
0875C:  CLRF   FAA
0875E:  MOVLW  13
08760:  MOVWF  FA9
08762:  CLRF   FA8
08764:  BCF    FA6.6
08766:  BCF    FA6.7
08768:  BSF    FA6.2
0876A:  MOVF   FF2,W
0876C:  MOVWF  00
0876E:  BCF    FF2.7
08770:  MOVLB  F
08772:  MOVLW  55
08774:  MOVWF  FA7
08776:  MOVLW  AA
08778:  MOVWF  FA7
0877A:  BSF    FA6.1
0877C:  BTFSC  FA6.1
0877E:  BRA    877C
08780:  BCF    FA6.2
08782:  MOVF   00,W
08784:  IORWF  FF2,F
....................                   delay_ms(20); 
08786:  MOVLW  14
08788:  MOVLB  5
0878A:  MOVWF  xF4
0878C:  MOVLB  0
0878E:  CALL   1514
....................                   Ttrabajo[3]=0;Ttrabajo[2]=0;Ttrabajo[1]=0;Ttrabajo[0]=0; 
08792:  MOVLB  5
08794:  CLRF   x09
08796:  CLRF   x08
08798:  CLRF   x07
0879A:  CLRF   x06
....................                   Menu=3;glcd_fillscreen(OFF);LuzBlanca_off; 
0879C:  MOVLW  03
0879E:  MOVLB  4
087A0:  MOVWF  xC8
087A2:  MOVLB  5
087A4:  CLRF   xE8
087A6:  MOVLB  0
087A8:  CALL   1608
087AC:  BCF    F8B.0
087AE:  BCF    F94.0
....................             } 
....................              
....................             if(LEFT) 
087B0:  BSF    F96.2
087B2:  BTFSC  F84.2
087B4:  BRA    87D4
....................             { 
....................                Menu=6;glcd_fillscreen(OFF);LuzBlanca_off;Opcion=1;unidad=1; 
087B6:  MOVLW  06
087B8:  MOVLB  4
087BA:  MOVWF  xC8
087BC:  MOVLB  5
087BE:  CLRF   xE8
087C0:  MOVLB  0
087C2:  CALL   1608
087C6:  BCF    F8B.0
087C8:  BCF    F94.0
087CA:  MOVLW  01
087CC:  MOVLB  4
087CE:  MOVWF  xCA
087D0:  MOVWF  xC9
087D2:  MOVLB  0
....................             } 
....................     } 
.................... //_--------------------------------------------------------------------------------------------------------------------------------------------------------        
....................  
.................... //_-------------------------------------------------------------------------------------------------------------------------------------------------------- 
....................       if(Menu==32){ //Menu de Servicio 
087D4:  MOVLB  4
087D6:  MOVF   xC8,W
087D8:  SUBLW  20
087DA:  BTFSS  FD8.2
087DC:  BRA    8AF4
....................        
....................       strcpy(Menus.Letra,"Servicio"); 
087DE:  MOVLW  04
087E0:  MOVWF  FEA
087E2:  MOVLW  17
087E4:  MOVWF  FE9
087E6:  MOVFF  FF2,5E0
087EA:  BCF    FF2.7
087EC:  MOVLW  00
087EE:  MOVLB  0
087F0:  CALL   10F6
087F4:  TBLRD*-
087F6:  TBLRD*+
087F8:  MOVF   FF5,W
087FA:  MOVWF  FEE
087FC:  IORLW  00
087FE:  BNZ   87F6
08800:  MOVLB  5
08802:  BTFSC  xE0.7
08804:  BSF    FF2.7
....................       displayMenu(Menus.Letra,10,0,1,2); 
08806:  MOVLW  04
08808:  MOVWF  xE9
0880A:  MOVLW  17
0880C:  MOVWF  xE8
0880E:  MOVLW  0A
08810:  MOVWF  xEA
08812:  CLRF   xEB
08814:  MOVLW  01
08816:  MOVWF  xEC
08818:  MOVLW  02
0881A:  MOVWF  xED
0881C:  MOVLB  0
0881E:  CALL   4C1C
....................        
....................       if(Opcion==1)    
08822:  MOVLB  4
08824:  DECFSZ xCA,W
08826:  BRA    886E
....................          {strcpy(Menus.Letra,"Sensor de Flujo"); 
08828:  MOVLW  04
0882A:  MOVWF  FEA
0882C:  MOVLW  17
0882E:  MOVWF  FE9
08830:  MOVFF  FF2,5E0
08834:  BCF    FF2.7
08836:  MOVLW  00
08838:  MOVLB  0
0883A:  CALL   1242
0883E:  TBLRD*-
08840:  TBLRD*+
08842:  MOVF   FF5,W
08844:  MOVWF  FEE
08846:  IORLW  00
08848:  BNZ   8840
0884A:  MOVLB  5
0884C:  BTFSC  xE0.7
0884E:  BSF    FF2.7
....................          displayMenu(Menus.Letra,0,18,1,1);} 
08850:  MOVLW  04
08852:  MOVWF  xE9
08854:  MOVLW  17
08856:  MOVWF  xE8
08858:  CLRF   xEA
0885A:  MOVLW  12
0885C:  MOVWF  xEB
0885E:  MOVLW  01
08860:  MOVWF  xEC
08862:  MOVWF  xED
08864:  MOVLB  0
08866:  CALL   4C1C
....................       else 
0886A:  BRA    88B0
0886C:  MOVLB  4
....................          {strcpy(Menus.Letra,"Sensor de Flujo"); 
0886E:  MOVLW  04
08870:  MOVWF  FEA
08872:  MOVLW  17
08874:  MOVWF  FE9
08876:  MOVFF  FF2,5E0
0887A:  BCF    FF2.7
0887C:  MOVLW  00
0887E:  MOVLB  0
08880:  CALL   1242
08884:  TBLRD*-
08886:  TBLRD*+
08888:  MOVF   FF5,W
0888A:  MOVWF  FEE
0888C:  IORLW  00
0888E:  BNZ   8886
08890:  MOVLB  5
08892:  BTFSC  xE0.7
08894:  BSF    FF2.7
....................          displayMenu(Menus.Letra,0,18,0,1);}  
08896:  MOVLW  04
08898:  MOVWF  xE9
0889A:  MOVLW  17
0889C:  MOVWF  xE8
0889E:  CLRF   xEA
088A0:  MOVLW  12
088A2:  MOVWF  xEB
088A4:  CLRF   xEC
088A6:  MOVLW  01
088A8:  MOVWF  xED
088AA:  MOVLB  0
088AC:  CALL   4C1C
....................           
....................       if(Opcion==2)    
088B0:  MOVLB  4
088B2:  MOVF   xCA,W
088B4:  SUBLW  02
088B6:  BNZ   88FE
....................          {strcpy(Menus.Letra,"Sensor de Presion"); 
088B8:  MOVLW  04
088BA:  MOVWF  FEA
088BC:  MOVLW  17
088BE:  MOVWF  FE9
088C0:  MOVFF  FF2,5E0
088C4:  BCF    FF2.7
088C6:  MOVLW  00
088C8:  MOVLB  0
088CA:  CALL   1270
088CE:  TBLRD*-
088D0:  TBLRD*+
088D2:  MOVF   FF5,W
088D4:  MOVWF  FEE
088D6:  IORLW  00
088D8:  BNZ   88D0
088DA:  MOVLB  5
088DC:  BTFSC  xE0.7
088DE:  BSF    FF2.7
....................          displayMenu(Menus.Letra,0,29,1,1);} 
088E0:  MOVLW  04
088E2:  MOVWF  xE9
088E4:  MOVLW  17
088E6:  MOVWF  xE8
088E8:  CLRF   xEA
088EA:  MOVLW  1D
088EC:  MOVWF  xEB
088EE:  MOVLW  01
088F0:  MOVWF  xEC
088F2:  MOVWF  xED
088F4:  MOVLB  0
088F6:  CALL   4C1C
....................       else 
088FA:  BRA    8940
088FC:  MOVLB  4
....................          {strcpy(Menus.Letra,"Sensor de Presion"); 
088FE:  MOVLW  04
08900:  MOVWF  FEA
08902:  MOVLW  17
08904:  MOVWF  FE9
08906:  MOVFF  FF2,5E0
0890A:  BCF    FF2.7
0890C:  MOVLW  00
0890E:  MOVLB  0
08910:  CALL   1270
08914:  TBLRD*-
08916:  TBLRD*+
08918:  MOVF   FF5,W
0891A:  MOVWF  FEE
0891C:  IORLW  00
0891E:  BNZ   8916
08920:  MOVLB  5
08922:  BTFSC  xE0.7
08924:  BSF    FF2.7
....................          displayMenu(Menus.Letra,0,29,0,1);}   
08926:  MOVLW  04
08928:  MOVWF  xE9
0892A:  MOVLW  17
0892C:  MOVWF  xE8
0892E:  CLRF   xEA
08930:  MOVLW  1D
08932:  MOVWF  xEB
08934:  CLRF   xEC
08936:  MOVLW  01
08938:  MOVWF  xED
0893A:  MOVLB  0
0893C:  CALL   4C1C
....................        
....................       if(Opcion==3)    
08940:  MOVLB  4
08942:  MOVF   xCA,W
08944:  SUBLW  03
08946:  BNZ   898E
....................          {strcpy(Menus.Letra,"Velocidad Ventilador"); 
08948:  MOVLW  04
0894A:  MOVWF  FEA
0894C:  MOVLW  17
0894E:  MOVWF  FE9
08950:  MOVFF  FF2,5E0
08954:  BCF    FF2.7
08956:  MOVLW  00
08958:  MOVLB  0
0895A:  CALL   12A0
0895E:  TBLRD*-
08960:  TBLRD*+
08962:  MOVF   FF5,W
08964:  MOVWF  FEE
08966:  IORLW  00
08968:  BNZ   8960
0896A:  MOVLB  5
0896C:  BTFSC  xE0.7
0896E:  BSF    FF2.7
....................          displayMenu(Menus.Letra,0,40,1,1);} 
08970:  MOVLW  04
08972:  MOVWF  xE9
08974:  MOVLW  17
08976:  MOVWF  xE8
08978:  CLRF   xEA
0897A:  MOVLW  28
0897C:  MOVWF  xEB
0897E:  MOVLW  01
08980:  MOVWF  xEC
08982:  MOVWF  xED
08984:  MOVLB  0
08986:  CALL   4C1C
....................       else 
0898A:  BRA    89D0
0898C:  MOVLB  4
....................          {strcpy(Menus.Letra,"Velocidad Ventilador"); 
0898E:  MOVLW  04
08990:  MOVWF  FEA
08992:  MOVLW  17
08994:  MOVWF  FE9
08996:  MOVFF  FF2,5E0
0899A:  BCF    FF2.7
0899C:  MOVLW  00
0899E:  MOVLB  0
089A0:  CALL   12A0
089A4:  TBLRD*-
089A6:  TBLRD*+
089A8:  MOVF   FF5,W
089AA:  MOVWF  FEE
089AC:  IORLW  00
089AE:  BNZ   89A6
089B0:  MOVLB  5
089B2:  BTFSC  xE0.7
089B4:  BSF    FF2.7
....................          displayMenu(Menus.Letra,0,40,0,1);}  
089B6:  MOVLW  04
089B8:  MOVWF  xE9
089BA:  MOVLW  17
089BC:  MOVWF  xE8
089BE:  CLRF   xEA
089C0:  MOVLW  28
089C2:  MOVWF  xEB
089C4:  CLRF   xEC
089C6:  MOVLW  01
089C8:  MOVWF  xED
089CA:  MOVLB  0
089CC:  CALL   4C1C
....................        
....................          
....................       if(UP)//Si oprime hacia arriba 
089D0:  BSF    F92.5
089D2:  BTFSC  F80.5
089D4:  BRA    89F0
....................       {  if(Flanco == 0)  
089D6:  MOVLB  4
089D8:  BTFSC  x2D.0
089DA:  BRA    89EE
....................             {Flanco = 1;delay_ms(30);Opcion--; 
089DC:  BSF    x2D.0
089DE:  MOVLW  1E
089E0:  MOVLB  5
089E2:  MOVWF  xF4
089E4:  MOVLB  0
089E6:  CALL   1514
089EA:  MOVLB  4
089EC:  DECF   xCA,F
....................             } 
....................       } 
....................          else 
089EE:  BRA    89F4
....................             {Flanco = 0;} 
089F0:  MOVLB  4
089F2:  BCF    x2D.0
....................              
....................       if(DOWN)//Si oprime hacia abajo 
089F4:  BSF    F96.0
089F6:  BTFSC  F84.0
089F8:  BRA    8A12
....................       {  if(Flanco2 == 0)  
089FA:  BTFSC  x2D.2
089FC:  BRA    8A10
....................             {Flanco2 = 1;delay_ms(30);Opcion++; 
089FE:  BSF    x2D.2
08A00:  MOVLW  1E
08A02:  MOVLB  5
08A04:  MOVWF  xF4
08A06:  MOVLB  0
08A08:  CALL   1514
08A0C:  MOVLB  4
08A0E:  INCF   xCA,F
....................             }      
....................       } 
....................          else 
08A10:  BRA    8A14
....................             {Flanco2 = 0;}   
08A12:  BCF    x2D.2
....................              
....................       if(RIGHT)//Si oprime SET 
08A14:  BSF    F96.1
08A16:  BTFSC  F84.1
08A18:  BRA    8AAA
....................       {   
....................          delay_ms(20); 
08A1A:  MOVLW  14
08A1C:  MOVLB  5
08A1E:  MOVWF  xF4
08A20:  MOVLB  0
08A22:  CALL   1514
....................          if(RIGHT){ 
08A26:  BSF    F96.1
08A28:  BTFSC  F84.1
08A2A:  BRA    8AAC
....................             delay_ms(100); 
08A2C:  MOVLW  64
08A2E:  MOVLB  5
08A30:  MOVWF  xF4
08A32:  MOVLB  0
08A34:  CALL   1514
....................             glcd_fillScreen(OFF); 
08A38:  MOVLB  5
08A3A:  CLRF   xE8
08A3C:  MOVLB  0
08A3E:  CALL   1608
....................             while(!PidePassword(6,32,Opcion+40,4,4,4,4)){ 
08A42:  MOVLW  28
08A44:  MOVLB  4
08A46:  ADDWF  xCA,W
08A48:  MOVLB  5
08A4A:  MOVWF  xE0
08A4C:  MOVLW  06
08A4E:  MOVWF  xE1
08A50:  MOVLW  20
08A52:  MOVWF  xE2
08A54:  MOVFF  5E0,5E3
08A58:  MOVLW  04
08A5A:  MOVWF  xE4
08A5C:  MOVWF  xE5
08A5E:  MOVWF  xE6
08A60:  MOVWF  xE7
08A62:  MOVLB  0
08A64:  CALL   4CE8
08A68:  MOVF   01,F
08A6A:  BNZ   8A98
....................                PidePassword(6,32,Opcion+40,4,4,4,4);glcd_update(); 
08A6C:  MOVLW  28
08A6E:  MOVLB  4
08A70:  ADDWF  xCA,W
08A72:  MOVLB  5
08A74:  MOVWF  xE0
08A76:  MOVLW  06
08A78:  MOVWF  xE1
08A7A:  MOVLW  20
08A7C:  MOVWF  xE2
08A7E:  MOVFF  5E0,5E3
08A82:  MOVLW  04
08A84:  MOVWF  xE4
08A86:  MOVWF  xE5
08A88:  MOVWF  xE6
08A8A:  MOVWF  xE7
08A8C:  MOVLB  0
08A8E:  CALL   4CE8
08A92:  CALL   1662
....................             }             
08A96:  BRA    8A42
....................             glcd_fillScreen(OFF);Opcion=1;unidad=1; 
08A98:  MOVLB  5
08A9A:  CLRF   xE8
08A9C:  MOVLB  0
08A9E:  CALL   1608
08AA2:  MOVLW  01
08AA4:  MOVLB  4
08AA6:  MOVWF  xCA
08AA8:  MOVWF  xC9
08AAA:  MOVLB  0
....................          } 
....................       } 
....................              
....................       if(LEFT)//Si oprime boton de Toma. 
08AAC:  BSF    F96.2
08AAE:  BTFSC  F84.2
08AB0:  BRA    8AE0
....................         {delay_ms(700);Menu=6;glcd_fillscreen(OFF);Opcion=1;unidad=1;} 
08AB2:  MOVLW  04
08AB4:  MOVLB  5
08AB6:  MOVWF  xE0
08AB8:  MOVLW  AF
08ABA:  MOVWF  xF4
08ABC:  MOVLB  0
08ABE:  CALL   1514
08AC2:  MOVLB  5
08AC4:  DECFSZ xE0,F
08AC6:  BRA    8AB8
08AC8:  MOVLW  06
08ACA:  MOVLB  4
08ACC:  MOVWF  xC8
08ACE:  MOVLB  5
08AD0:  CLRF   xE8
08AD2:  MOVLB  0
08AD4:  CALL   1608
08AD8:  MOVLW  01
08ADA:  MOVLB  4
08ADC:  MOVWF  xCA
08ADE:  MOVWF  xC9
....................          
....................       if(Opcion>3) 
08AE0:  MOVLB  4
08AE2:  MOVF   xCA,W
08AE4:  SUBLW  03
08AE6:  BC    8AEC
....................       {Opcion=1;} 
08AE8:  MOVLW  01
08AEA:  MOVWF  xCA
....................       if(Opcion<1) 
08AEC:  MOVF   xCA,F
08AEE:  BNZ   8AF4
....................       {Opcion=3;} 
08AF0:  MOVLW  03
08AF2:  MOVWF  xCA
....................     } 
.................... //_--------------------------------------------------------------------------------------------------------------------------------------------------------        
....................  
.................... //_-------------------------------------------------------------------------------------------------------------------------------------------------------- 
....................       if(Menu==33){ //Menu de Apagado de Cabina. 
08AF4:  MOVF   xC8,W
08AF6:  SUBLW  21
08AF8:  BTFSS  FD8.2
08AFA:  BRA    8E70
....................        
....................       strcpy(Menus.Letra,"  Apagar?"); 
08AFC:  MOVLW  04
08AFE:  MOVWF  FEA
08B00:  MOVLW  17
08B02:  MOVWF  FE9
08B04:  MOVFF  FF2,5E0
08B08:  BCF    FF2.7
08B0A:  MOVLW  00
08B0C:  MOVLB  0
08B0E:  CALL   12D4
08B12:  TBLRD*-
08B14:  TBLRD*+
08B16:  MOVF   FF5,W
08B18:  MOVWF  FEE
08B1A:  IORLW  00
08B1C:  BNZ   8B14
08B1E:  MOVLB  5
08B20:  BTFSC  xE0.7
08B22:  BSF    FF2.7
....................       displayMenu(Menus.Letra,10,0,1,2); 
08B24:  MOVLW  04
08B26:  MOVWF  xE9
08B28:  MOVLW  17
08B2A:  MOVWF  xE8
08B2C:  MOVLW  0A
08B2E:  MOVWF  xEA
08B30:  CLRF   xEB
08B32:  MOVLW  01
08B34:  MOVWF  xEC
08B36:  MOVLW  02
08B38:  MOVWF  xED
08B3A:  MOVLB  0
08B3C:  CALL   4C1C
....................        
....................       if(unidad==1) 
08B40:  MOVLB  4
08B42:  DECFSZ xC9,W
08B44:  BRA    8BD2
....................       {strcpy(Menus.Letra,"SI"); 
08B46:  MOVLW  04
08B48:  MOVWF  FEA
08B4A:  MOVLW  17
08B4C:  MOVWF  FE9
08B4E:  MOVFF  FF2,5E0
08B52:  BCF    FF2.7
08B54:  MOVLW  00
08B56:  MOVLB  0
08B58:  CALL   12FC
08B5C:  TBLRD*-
08B5E:  TBLRD*+
08B60:  MOVF   FF5,W
08B62:  MOVWF  FEE
08B64:  IORLW  00
08B66:  BNZ   8B5E
08B68:  MOVLB  5
08B6A:  BTFSC  xE0.7
08B6C:  BSF    FF2.7
....................       displayMenu(Menus.Letra,50,25,1,2); 
08B6E:  MOVLW  04
08B70:  MOVWF  xE9
08B72:  MOVLW  17
08B74:  MOVWF  xE8
08B76:  MOVLW  32
08B78:  MOVWF  xEA
08B7A:  MOVLW  19
08B7C:  MOVWF  xEB
08B7E:  MOVLW  01
08B80:  MOVWF  xEC
08B82:  MOVLW  02
08B84:  MOVWF  xED
08B86:  MOVLB  0
08B88:  CALL   4C1C
....................       strcpy(Menus.Letra,"NO"); 
08B8C:  MOVLW  04
08B8E:  MOVWF  FEA
08B90:  MOVLW  17
08B92:  MOVWF  FE9
08B94:  MOVFF  FF2,5E0
08B98:  BCF    FF2.7
08B9A:  MOVLW  00
08B9C:  CALL   131E
08BA0:  TBLRD*-
08BA2:  TBLRD*+
08BA4:  MOVF   FF5,W
08BA6:  MOVWF  FEE
08BA8:  IORLW  00
08BAA:  BNZ   8BA2
08BAC:  MOVLB  5
08BAE:  BTFSC  xE0.7
08BB0:  BSF    FF2.7
....................       displayMenu(Menus.Letra,50,45,0,2);} 
08BB2:  MOVLW  04
08BB4:  MOVWF  xE9
08BB6:  MOVLW  17
08BB8:  MOVWF  xE8
08BBA:  MOVLW  32
08BBC:  MOVWF  xEA
08BBE:  MOVLW  2D
08BC0:  MOVWF  xEB
08BC2:  CLRF   xEC
08BC4:  MOVLW  02
08BC6:  MOVWF  xED
08BC8:  MOVLB  0
08BCA:  CALL   4C1C
....................       else 
08BCE:  BRA    8C5A
08BD0:  MOVLB  4
....................       {strcpy(Menus.Letra,"SI"); 
08BD2:  MOVLW  04
08BD4:  MOVWF  FEA
08BD6:  MOVLW  17
08BD8:  MOVWF  FE9
08BDA:  MOVFF  FF2,5E0
08BDE:  BCF    FF2.7
08BE0:  MOVLW  00
08BE2:  MOVLB  0
08BE4:  CALL   12FC
08BE8:  TBLRD*-
08BEA:  TBLRD*+
08BEC:  MOVF   FF5,W
08BEE:  MOVWF  FEE
08BF0:  IORLW  00
08BF2:  BNZ   8BEA
08BF4:  MOVLB  5
08BF6:  BTFSC  xE0.7
08BF8:  BSF    FF2.7
....................       displayMenu(Menus.Letra,50,25,0,2); 
08BFA:  MOVLW  04
08BFC:  MOVWF  xE9
08BFE:  MOVLW  17
08C00:  MOVWF  xE8
08C02:  MOVLW  32
08C04:  MOVWF  xEA
08C06:  MOVLW  19
08C08:  MOVWF  xEB
08C0A:  CLRF   xEC
08C0C:  MOVLW  02
08C0E:  MOVWF  xED
08C10:  MOVLB  0
08C12:  CALL   4C1C
....................       strcpy(Menus.Letra,"NO"); 
08C16:  MOVLW  04
08C18:  MOVWF  FEA
08C1A:  MOVLW  17
08C1C:  MOVWF  FE9
08C1E:  MOVFF  FF2,5E0
08C22:  BCF    FF2.7
08C24:  MOVLW  00
08C26:  CALL   131E
08C2A:  TBLRD*-
08C2C:  TBLRD*+
08C2E:  MOVF   FF5,W
08C30:  MOVWF  FEE
08C32:  IORLW  00
08C34:  BNZ   8C2C
08C36:  MOVLB  5
08C38:  BTFSC  xE0.7
08C3A:  BSF    FF2.7
....................       displayMenu(Menus.Letra,50,45,1,2);} 
08C3C:  MOVLW  04
08C3E:  MOVWF  xE9
08C40:  MOVLW  17
08C42:  MOVWF  xE8
08C44:  MOVLW  32
08C46:  MOVWF  xEA
08C48:  MOVLW  2D
08C4A:  MOVWF  xEB
08C4C:  MOVLW  01
08C4E:  MOVWF  xEC
08C50:  MOVLW  02
08C52:  MOVWF  xED
08C54:  MOVLB  0
08C56:  CALL   4C1C
....................        
....................        
....................          
....................       if(UP)//Si oprime hacia arriba 
08C5A:  BSF    F92.5
08C5C:  BTFSC  F80.5
08C5E:  BRA    8C72
....................       {   
....................          delay_ms(90);unidad++; 
08C60:  MOVLW  5A
08C62:  MOVLB  5
08C64:  MOVWF  xF4
08C66:  MOVLB  0
08C68:  CALL   1514
08C6C:  MOVLB  4
08C6E:  INCF   xC9,F
08C70:  MOVLB  0
....................       } 
....................              
....................       if(DOWN)//Si oprime hacia abajo 
08C72:  BSF    F96.0
08C74:  BTFSC  F84.0
08C76:  BRA    8C8A
....................       { 
....................          delay_ms(90);unidad--; 
08C78:  MOVLW  5A
08C7A:  MOVLB  5
08C7C:  MOVWF  xF4
08C7E:  MOVLB  0
08C80:  CALL   1514
08C84:  MOVLB  4
08C86:  DECF   xC9,F
08C88:  MOVLB  0
....................       } 
....................              
....................       if(RIGHT){//Si oprime SET 
08C8A:  BSF    F96.1
08C8C:  BTFSC  F84.1
08C8E:  BRA    8E26
....................          delay_ms(30); 
08C90:  MOVLW  1E
08C92:  MOVLB  5
08C94:  MOVWF  xF4
08C96:  MOVLB  0
08C98:  CALL   1514
....................          if(Flanco4==0){ 
08C9C:  MOVLB  4
08C9E:  BTFSC  x2D.4
08CA0:  BRA    8E22
....................             if(unidad==1){ 
08CA2:  DECFSZ xC9,W
08CA4:  BRA    8E10
....................                glcd_fillscreen(OFF); 
08CA6:  MOVLB  5
08CA8:  CLRF   xE8
08CAA:  MOVLB  0
08CAC:  CALL   1608
....................                write_eeprom(33,make8(minutos_trabajo,0)); 
08CB0:  MOVFF  4E0,5E0
08CB4:  CLRF   FAA
08CB6:  MOVLW  21
08CB8:  MOVWF  FA9
08CBA:  MOVFF  5E0,FA8
08CBE:  BCF    FA6.6
08CC0:  BCF    FA6.7
08CC2:  BSF    FA6.2
08CC4:  MOVF   FF2,W
08CC6:  MOVWF  00
08CC8:  BCF    FF2.7
08CCA:  MOVLB  F
08CCC:  MOVLW  55
08CCE:  MOVWF  FA7
08CD0:  MOVLW  AA
08CD2:  MOVWF  FA7
08CD4:  BSF    FA6.1
08CD6:  BTFSC  FA6.1
08CD8:  BRA    8CD6
08CDA:  BCF    FA6.2
08CDC:  MOVF   00,W
08CDE:  IORWF  FF2,F
....................                delay_ms(20); 
08CE0:  MOVLW  14
08CE2:  MOVLB  5
08CE4:  MOVWF  xF4
08CE6:  MOVLB  0
08CE8:  CALL   1514
....................                write_eeprom(34,make8(minutos_trabajo,1)); 
08CEC:  MOVFF  4E1,5E0
08CF0:  CLRF   FAA
08CF2:  MOVLW  22
08CF4:  MOVWF  FA9
08CF6:  MOVFF  5E0,FA8
08CFA:  BCF    FA6.6
08CFC:  BCF    FA6.7
08CFE:  BSF    FA6.2
08D00:  MOVF   FF2,W
08D02:  MOVWF  00
08D04:  BCF    FF2.7
08D06:  MOVLB  F
08D08:  MOVLW  55
08D0A:  MOVWF  FA7
08D0C:  MOVLW  AA
08D0E:  MOVWF  FA7
08D10:  BSF    FA6.1
08D12:  BTFSC  FA6.1
08D14:  BRA    8D12
08D16:  BCF    FA6.2
08D18:  MOVF   00,W
08D1A:  IORWF  FF2,F
....................                delay_ms(20); 
08D1C:  MOVLW  14
08D1E:  MOVLB  5
08D20:  MOVWF  xF4
08D22:  MOVLB  0
08D24:  CALL   1514
....................                write_eeprom(16,Ttrabajo[0]); 
08D28:  CLRF   FAA
08D2A:  MOVLW  10
08D2C:  MOVWF  FA9
08D2E:  MOVFF  506,FA8
08D32:  BCF    FA6.6
08D34:  BCF    FA6.7
08D36:  BSF    FA6.2
08D38:  MOVF   FF2,W
08D3A:  MOVWF  00
08D3C:  BCF    FF2.7
08D3E:  MOVLB  F
08D40:  MOVLW  55
08D42:  MOVWF  FA7
08D44:  MOVLW  AA
08D46:  MOVWF  FA7
08D48:  BSF    FA6.1
08D4A:  BTFSC  FA6.1
08D4C:  BRA    8D4A
08D4E:  BCF    FA6.2
08D50:  MOVF   00,W
08D52:  IORWF  FF2,F
....................                delay_ms(20); 
08D54:  MOVLW  14
08D56:  MOVLB  5
08D58:  MOVWF  xF4
08D5A:  MOVLB  0
08D5C:  CALL   1514
....................                write_eeprom(17,Ttrabajo[1]); 
08D60:  CLRF   FAA
08D62:  MOVLW  11
08D64:  MOVWF  FA9
08D66:  MOVFF  507,FA8
08D6A:  BCF    FA6.6
08D6C:  BCF    FA6.7
08D6E:  BSF    FA6.2
08D70:  MOVF   FF2,W
08D72:  MOVWF  00
08D74:  BCF    FF2.7
08D76:  MOVLB  F
08D78:  MOVLW  55
08D7A:  MOVWF  FA7
08D7C:  MOVLW  AA
08D7E:  MOVWF  FA7
08D80:  BSF    FA6.1
08D82:  BTFSC  FA6.1
08D84:  BRA    8D82
08D86:  BCF    FA6.2
08D88:  MOVF   00,W
08D8A:  IORWF  FF2,F
....................                delay_ms(20); 
08D8C:  MOVLW  14
08D8E:  MOVLB  5
08D90:  MOVWF  xF4
08D92:  MOVLB  0
08D94:  CALL   1514
....................                write_eeprom(18,Ttrabajo[2]); 
08D98:  CLRF   FAA
08D9A:  MOVLW  12
08D9C:  MOVWF  FA9
08D9E:  MOVFF  508,FA8
08DA2:  BCF    FA6.6
08DA4:  BCF    FA6.7
08DA6:  BSF    FA6.2
08DA8:  MOVF   FF2,W
08DAA:  MOVWF  00
08DAC:  BCF    FF2.7
08DAE:  MOVLB  F
08DB0:  MOVLW  55
08DB2:  MOVWF  FA7
08DB4:  MOVLW  AA
08DB6:  MOVWF  FA7
08DB8:  BSF    FA6.1
08DBA:  BTFSC  FA6.1
08DBC:  BRA    8DBA
08DBE:  BCF    FA6.2
08DC0:  MOVF   00,W
08DC2:  IORWF  FF2,F
....................                delay_ms(20); 
08DC4:  MOVLW  14
08DC6:  MOVLB  5
08DC8:  MOVWF  xF4
08DCA:  MOVLB  0
08DCC:  CALL   1514
....................                write_eeprom(19,Ttrabajo[3]); 
08DD0:  CLRF   FAA
08DD2:  MOVLW  13
08DD4:  MOVWF  FA9
08DD6:  MOVFF  509,FA8
08DDA:  BCF    FA6.6
08DDC:  BCF    FA6.7
08DDE:  BSF    FA6.2
08DE0:  MOVF   FF2,W
08DE2:  MOVWF  00
08DE4:  BCF    FF2.7
08DE6:  MOVLB  F
08DE8:  MOVLW  55
08DEA:  MOVWF  FA7
08DEC:  MOVLW  AA
08DEE:  MOVWF  FA7
08DF0:  BSF    FA6.1
08DF2:  BTFSC  FA6.1
08DF4:  BRA    8DF2
08DF6:  BCF    FA6.2
08DF8:  MOVF   00,W
08DFA:  IORWF  FF2,F
....................                delay_ms(20); 
08DFC:  MOVLW  14
08DFE:  MOVLB  5
08E00:  MOVWF  xF4
08E02:  MOVLB  0
08E04:  CALL   1514
....................                Menu=120; 
08E08:  MOVLW  78
08E0A:  MOVLB  4
08E0C:  MOVWF  xC8
....................                //reset_cpu(); 
....................             } 
....................             else{ 
08E0E:  BRA    8E20
....................                Menu=2;glcd_fillscreen(OFF); 
08E10:  MOVLW  02
08E12:  MOVWF  xC8
08E14:  MOVLB  5
08E16:  CLRF   xE8
08E18:  MOVLB  0
08E1A:  CALL   1608
08E1E:  MOVLB  4
....................             } 
....................             Flanco4=1; 
08E20:  BSF    x2D.4
....................          } 
....................       }else{ 
08E22:  BRA    8E2A
08E24:  MOVLB  0
....................          Flanco4=0; 
08E26:  MOVLB  4
08E28:  BCF    x2D.4
....................       } 
....................              
....................       if(LEFT)//Si oprime boton de Toma. 
08E2A:  BSF    F96.2
08E2C:  BTFSC  F84.2
08E2E:  BRA    8E5C
....................       { 
....................          if(Flanco3==0){ 
08E30:  BTFSC  x2D.3
08E32:  BRA    8E5A
....................             delay_ms(30);Menu=2;glcd_fillscreen(OFF);Opcion=1;unidad=1; 
08E34:  MOVLW  1E
08E36:  MOVLB  5
08E38:  MOVWF  xF4
08E3A:  MOVLB  0
08E3C:  CALL   1514
08E40:  MOVLW  02
08E42:  MOVLB  4
08E44:  MOVWF  xC8
08E46:  MOVLB  5
08E48:  CLRF   xE8
08E4A:  MOVLB  0
08E4C:  CALL   1608
08E50:  MOVLW  01
08E52:  MOVLB  4
08E54:  MOVWF  xCA
08E56:  MOVWF  xC9
....................             Flanco3=1; 
08E58:  BSF    x2D.3
....................          } 
....................       }else{ 
08E5A:  BRA    8E5E
....................          Flanco3=0; 
08E5C:  BCF    x2D.3
....................       } 
....................        
....................       if(unidad>2) 
08E5E:  MOVF   xC9,W
08E60:  SUBLW  02
08E62:  BC    8E68
....................       {unidad=1;} 
08E64:  MOVLW  01
08E66:  MOVWF  xC9
....................       if(unidad<1) 
08E68:  MOVF   xC9,F
08E6A:  BNZ   8E70
....................       {unidad=2;} 
08E6C:  MOVLW  02
08E6E:  MOVWF  xC9
....................      
....................     } 
.................... //_--------------------------------------------------------------------------------------------------------------------------------------------------------        
....................  
.................... //_-------------------------------------------------------------------------------------------------------------------------------------------------------- 
....................       if(Menu==41){ //Menu de Sensor de Flujo. 
08E70:  MOVF   xC8,W
08E72:  SUBLW  29
08E74:  BTFSS  FD8.2
08E76:  BRA    943A
....................        
....................       if(Ajuste1>10.0) 
08E78:  MOVLB  6
08E7A:  CLRF   x14
08E7C:  CLRF   x13
08E7E:  MOVLW  20
08E80:  MOVWF  x12
08E82:  MOVLW  82
08E84:  MOVWF  x11
08E86:  MOVFF  535,618
08E8A:  MOVFF  534,617
08E8E:  MOVFF  533,616
08E92:  MOVFF  532,615
08E96:  MOVLB  0
08E98:  CALL   2330
08E9C:  BNC   8EAA
....................          Ajuste1=0.0; 
08E9E:  MOVLB  5
08EA0:  CLRF   x35
08EA2:  CLRF   x34
08EA4:  CLRF   x33
08EA6:  CLRF   x32
08EA8:  MOVLB  0
....................        
....................       strcpy(Menus.Letra,"Sensor de Flujo"); 
08EAA:  MOVLW  04
08EAC:  MOVWF  FEA
08EAE:  MOVLW  17
08EB0:  MOVWF  FE9
08EB2:  MOVFF  FF2,5E0
08EB6:  BCF    FF2.7
08EB8:  MOVLW  00
08EBA:  CALL   1242
08EBE:  TBLRD*-
08EC0:  TBLRD*+
08EC2:  MOVF   FF5,W
08EC4:  MOVWF  FEE
08EC6:  IORLW  00
08EC8:  BNZ   8EC0
08ECA:  MOVLB  5
08ECC:  BTFSC  xE0.7
08ECE:  BSF    FF2.7
....................       displayMenu(Menus.Letra,10,0,1,1); 
08ED0:  MOVLW  04
08ED2:  MOVWF  xE9
08ED4:  MOVLW  17
08ED6:  MOVWF  xE8
08ED8:  MOVLW  0A
08EDA:  MOVWF  xEA
08EDC:  CLRF   xEB
08EDE:  MOVLW  01
08EE0:  MOVWF  xEC
08EE2:  MOVWF  xED
08EE4:  MOVLB  0
08EE6:  CALL   4C1C
....................        
....................       glcd_text57(0, 12, ZF, 1, ON); 
08EEA:  MOVLB  5
08EEC:  CLRF   xF9
08EEE:  MOVLW  0C
08EF0:  MOVWF  xFA
08EF2:  MOVLW  04
08EF4:  MOVWF  xFC
08EF6:  MOVLW  7F
08EF8:  MOVWF  xFB
08EFA:  MOVLW  01
08EFC:  MOVWF  xFD
08EFE:  MOVWF  xFE
08F00:  MOVLB  0
08F02:  CALL   498A
....................        
....................       glcd_text57(0, 20, ZA, 1, ON); 
08F06:  MOVLB  5
08F08:  CLRF   xF9
08F0A:  MOVLW  14
08F0C:  MOVWF  xFA
08F0E:  MOVLW  04
08F10:  MOVWF  xFC
08F12:  MOVLW  8D
08F14:  MOVWF  xFB
08F16:  MOVLW  01
08F18:  MOVWF  xFD
08F1A:  MOVWF  xFE
08F1C:  MOVLB  0
08F1E:  CALL   498A
....................        
....................       glcd_text57(0, 30, AJ, 1, ON);            
08F22:  MOVLB  5
08F24:  CLRF   xF9
08F26:  MOVLW  1E
08F28:  MOVWF  xFA
08F2A:  MOVLW  04
08F2C:  MOVWF  xFC
08F2E:  MOVLW  95
08F30:  MOVWF  xFB
08F32:  MOVLW  01
08F34:  MOVWF  xFD
08F36:  MOVWF  xFE
08F38:  MOVLB  0
08F3A:  CALL   498A
....................        
....................       displayfloat(zero_actual,44,20,0,1); 
08F3E:  MOVFF  5BD,5E7
08F42:  MOVFF  5BC,5E6
08F46:  MOVFF  5BB,5E5
08F4A:  MOVFF  5BA,5E4
08F4E:  MOVLW  2C
08F50:  MOVLB  5
08F52:  MOVWF  xE8
08F54:  MOVLW  14
08F56:  MOVWF  xE9
08F58:  CLRF   xEA
08F5A:  MOVLW  01
08F5C:  MOVWF  xEB
08F5E:  MOVLB  0
08F60:  CALL   5956
....................       displayfloat(Ajuste1,44,30,0,1); 
08F64:  MOVFF  535,5E7
08F68:  MOVFF  534,5E6
08F6C:  MOVFF  533,5E5
08F70:  MOVFF  532,5E4
08F74:  MOVLW  2C
08F76:  MOVLB  5
08F78:  MOVWF  xE8
08F7A:  MOVLW  1E
08F7C:  MOVWF  xE9
08F7E:  CLRF   xEA
08F80:  MOVLW  01
08F82:  MOVWF  xEB
08F84:  MOVLB  0
08F86:  CALL   5956
....................       displayfloat(Inflow_adc,0,40,0,1); 
08F8A:  MOVFF  4D7,616
08F8E:  MOVFF  4D6,615
08F92:  CALL   17C2
08F96:  MOVFF  00,5E0
08F9A:  MOVFF  01,5E1
08F9E:  MOVFF  02,5E2
08FA2:  MOVFF  03,5E3
08FA6:  MOVFF  03,5E7
08FAA:  MOVFF  02,5E6
08FAE:  MOVFF  01,5E5
08FB2:  MOVFF  00,5E4
08FB6:  MOVLB  5
08FB8:  CLRF   xE8
08FBA:  MOVLW  28
08FBC:  MOVWF  xE9
08FBE:  CLRF   xEA
08FC0:  MOVLW  01
08FC2:  MOVWF  xEB
08FC4:  MOVLB  0
08FC6:  CALL   5956
.................... //      displayfloat(Diferencia,0,50,0,1); 
....................        
....................       if(UP)//Si oprime hacia arriba 
08FCA:  BSF    F92.5
08FCC:  BTFSC  F80.5
08FCE:  BRA    9016
....................       {   
....................          delay_ms(30);Ajuste1+=0.01; 
08FD0:  MOVLW  1E
08FD2:  MOVLB  5
08FD4:  MOVWF  xF4
08FD6:  MOVLB  0
08FD8:  CALL   1514
08FDC:  BCF    FD8.1
08FDE:  MOVFF  535,618
08FE2:  MOVFF  534,617
08FE6:  MOVFF  533,616
08FEA:  MOVFF  532,615
08FEE:  MOVLW  0A
08FF0:  MOVLB  6
08FF2:  MOVWF  x1C
08FF4:  MOVLW  D7
08FF6:  MOVWF  x1B
08FF8:  MOVLW  23
08FFA:  MOVWF  x1A
08FFC:  MOVLW  78
08FFE:  MOVWF  x19
09000:  MOVLB  0
09002:  CALL   1956
09006:  MOVFF  03,535
0900A:  MOVFF  02,534
0900E:  MOVFF  01,533
09012:  MOVFF  00,532
....................       } 
....................              
....................       if(DOWN)//Si oprime hacia abajo 
09016:  BSF    F96.0
09018:  BTFSC  F84.0
0901A:  BRA    9062
....................       {    
....................          delay_ms(30);Ajuste1-=0.01; 
0901C:  MOVLW  1E
0901E:  MOVLB  5
09020:  MOVWF  xF4
09022:  MOVLB  0
09024:  CALL   1514
09028:  BSF    FD8.1
0902A:  MOVFF  535,618
0902E:  MOVFF  534,617
09032:  MOVFF  533,616
09036:  MOVFF  532,615
0903A:  MOVLW  0A
0903C:  MOVLB  6
0903E:  MOVWF  x1C
09040:  MOVLW  D7
09042:  MOVWF  x1B
09044:  MOVLW  23
09046:  MOVWF  x1A
09048:  MOVLW  78
0904A:  MOVWF  x19
0904C:  MOVLB  0
0904E:  CALL   1956
09052:  MOVFF  03,535
09056:  MOVFF  02,534
0905A:  MOVFF  01,533
0905E:  MOVFF  00,532
....................       } 
....................              
....................       if(RIGHT)//Si oprime SET 
09062:  BSF    F96.1
09064:  BTFSC  F84.1
09066:  BRA    92D4
....................       {   
....................          zero_actual=Inflow_adc; 
09068:  MOVFF  4D7,616
0906C:  MOVFF  4D6,615
09070:  CALL   17C2
09074:  MOVFF  03,5BD
09078:  MOVFF  02,5BC
0907C:  MOVFF  01,5BB
09080:  MOVFF  00,5BA
....................          Diferencia=zero_fabrica-Inflow_adc; 
09084:  MOVFF  4D7,616
09088:  MOVFF  4D6,615
0908C:  CALL   17C2
09090:  BSF    FD8.1
09092:  MOVFF  5B9,618
09096:  MOVFF  5B8,617
0909A:  MOVFF  5B7,616
0909E:  MOVFF  5B6,615
090A2:  MOVFF  03,61C
090A6:  MOVFF  02,61B
090AA:  MOVFF  01,61A
090AE:  MOVFF  00,619
090B2:  CALL   1956
090B6:  MOVFF  03,521
090BA:  MOVFF  02,520
090BE:  MOVFF  01,51F
090C2:  MOVFF  00,51E
....................              
....................          if(Diferencia>=0) 
090C6:  MOVLB  6
090C8:  CLRF   x14
090CA:  CLRF   x13
090CC:  CLRF   x12
090CE:  CLRF   x11
090D0:  MOVFF  521,618
090D4:  MOVFF  520,617
090D8:  MOVFF  51F,616
090DC:  MOVFF  51E,615
090E0:  MOVLB  0
090E2:  CALL   2330
090E6:  BC    90EA
090E8:  BNZ   9128
....................          { 
....................             negativo=10;write_eeprom(50,negativo);delay_ms(20); 
090EA:  MOVLW  0A
090EC:  MOVLB  4
090EE:  MOVWF  xCB
090F0:  CLRF   FAA
090F2:  MOVLW  32
090F4:  MOVWF  FA9
090F6:  MOVFF  4CB,FA8
090FA:  BCF    FA6.6
090FC:  BCF    FA6.7
090FE:  BSF    FA6.2
09100:  MOVF   FF2,W
09102:  MOVWF  00
09104:  BCF    FF2.7
09106:  MOVLB  F
09108:  MOVLW  55
0910A:  MOVWF  FA7
0910C:  MOVLW  AA
0910E:  MOVWF  FA7
09110:  BSF    FA6.1
09112:  BTFSC  FA6.1
09114:  BRA    9112
09116:  BCF    FA6.2
09118:  MOVF   00,W
0911A:  IORWF  FF2,F
0911C:  MOVLW  14
0911E:  MOVLB  5
09120:  MOVWF  xF4
09122:  MOVLB  0
09124:  CALL   1514
....................          } 
....................          if(Diferencia<0) 
09128:  MOVFF  521,614
0912C:  MOVFF  520,613
09130:  MOVFF  51F,612
09134:  MOVFF  51E,611
09138:  MOVLB  6
0913A:  CLRF   x18
0913C:  CLRF   x17
0913E:  CLRF   x16
09140:  CLRF   x15
09142:  MOVLB  0
09144:  CALL   2330
09148:  BNC   9188
....................          { 
....................             negativo=20;write_eeprom(50,negativo);delay_ms(20); 
0914A:  MOVLW  14
0914C:  MOVLB  4
0914E:  MOVWF  xCB
09150:  CLRF   FAA
09152:  MOVLW  32
09154:  MOVWF  FA9
09156:  MOVFF  4CB,FA8
0915A:  BCF    FA6.6
0915C:  BCF    FA6.7
0915E:  BSF    FA6.2
09160:  MOVF   FF2,W
09162:  MOVWF  00
09164:  BCF    FF2.7
09166:  MOVLB  F
09168:  MOVLW  55
0916A:  MOVWF  FA7
0916C:  MOVLW  AA
0916E:  MOVWF  FA7
09170:  BSF    FA6.1
09172:  BTFSC  FA6.1
09174:  BRA    9172
09176:  BCF    FA6.2
09178:  MOVF   00,W
0917A:  IORWF  FF2,F
0917C:  MOVLW  14
0917E:  MOVLB  5
09180:  MOVWF  xF4
09182:  MOVLB  0
09184:  CALL   1514
....................          } 
....................          Diferencia=abs(Diferencia); 
09188:  MOVFF  51E,00
0918C:  MOVFF  51F,01
09190:  MOVFF  520,02
09194:  MOVFF  521,03
09198:  BCF    01.7
0919A:  MOVFF  521,521
0919E:  MOVFF  520,520
091A2:  MOVFF  01,51F
091A6:  MOVFF  51E,51E
....................          Temporal1=(int16)Diferencia; 
091AA:  MOVFF  521,614
091AE:  MOVFF  520,613
091B2:  MOVFF  51F,612
091B6:  MOVFF  51E,611
091BA:  CALL   2D78
091BE:  MOVFF  02,4DB
091C2:  MOVFF  01,4DA
....................          write_eeprom(60,make8(Temporal1,0)); 
091C6:  MOVFF  4DA,5E0
091CA:  CLRF   FAA
091CC:  MOVLW  3C
091CE:  MOVWF  FA9
091D0:  MOVFF  5E0,FA8
091D4:  BCF    FA6.6
091D6:  BCF    FA6.7
091D8:  BSF    FA6.2
091DA:  MOVF   FF2,W
091DC:  MOVWF  00
091DE:  BCF    FF2.7
091E0:  MOVLB  F
091E2:  MOVLW  55
091E4:  MOVWF  FA7
091E6:  MOVLW  AA
091E8:  MOVWF  FA7
091EA:  BSF    FA6.1
091EC:  BTFSC  FA6.1
091EE:  BRA    91EC
091F0:  BCF    FA6.2
091F2:  MOVF   00,W
091F4:  IORWF  FF2,F
....................          delay_ms(20); 
091F6:  MOVLW  14
091F8:  MOVLB  5
091FA:  MOVWF  xF4
091FC:  MOVLB  0
091FE:  CALL   1514
....................          write_eeprom(61,make8(Temporal1,1));//Guardar valor de Setpoint en eeprom 
09202:  MOVFF  4DB,5E0
09206:  CLRF   FAA
09208:  MOVLW  3D
0920A:  MOVWF  FA9
0920C:  MOVFF  5E0,FA8
09210:  BCF    FA6.6
09212:  BCF    FA6.7
09214:  BSF    FA6.2
09216:  MOVF   FF2,W
09218:  MOVWF  00
0921A:  BCF    FF2.7
0921C:  MOVLB  F
0921E:  MOVLW  55
09220:  MOVWF  FA7
09222:  MOVLW  AA
09224:  MOVWF  FA7
09226:  BSF    FA6.1
09228:  BTFSC  FA6.1
0922A:  BRA    9228
0922C:  BCF    FA6.2
0922E:  MOVF   00,W
09230:  IORWF  FF2,F
....................          delay_ms(20); 
09232:  MOVLW  14
09234:  MOVLB  5
09236:  MOVWF  xF4
09238:  MOVLB  0
0923A:  CALL   1514
....................  
....................          Temporal1=(int16)zero_actual; 
0923E:  MOVFF  5BD,614
09242:  MOVFF  5BC,613
09246:  MOVFF  5BB,612
0924A:  MOVFF  5BA,611
0924E:  CALL   2D78
09252:  MOVFF  02,4DB
09256:  MOVFF  01,4DA
....................          write_eeprom(29,make8(Temporal1,0)); 
0925A:  MOVFF  4DA,5E0
0925E:  CLRF   FAA
09260:  MOVLW  1D
09262:  MOVWF  FA9
09264:  MOVFF  5E0,FA8
09268:  BCF    FA6.6
0926A:  BCF    FA6.7
0926C:  BSF    FA6.2
0926E:  MOVF   FF2,W
09270:  MOVWF  00
09272:  BCF    FF2.7
09274:  MOVLB  F
09276:  MOVLW  55
09278:  MOVWF  FA7
0927A:  MOVLW  AA
0927C:  MOVWF  FA7
0927E:  BSF    FA6.1
09280:  BTFSC  FA6.1
09282:  BRA    9280
09284:  BCF    FA6.2
09286:  MOVF   00,W
09288:  IORWF  FF2,F
....................          delay_ms(20); 
0928A:  MOVLW  14
0928C:  MOVLB  5
0928E:  MOVWF  xF4
09290:  MOVLB  0
09292:  CALL   1514
....................          write_eeprom(30,make8(Temporal1,1));//Guardar valor de Setpoint en eeprom 
09296:  MOVFF  4DB,5E0
0929A:  CLRF   FAA
0929C:  MOVLW  1E
0929E:  MOVWF  FA9
092A0:  MOVFF  5E0,FA8
092A4:  BCF    FA6.6
092A6:  BCF    FA6.7
092A8:  BSF    FA6.2
092AA:  MOVF   FF2,W
092AC:  MOVWF  00
092AE:  BCF    FF2.7
092B0:  MOVLB  F
092B2:  MOVLW  55
092B4:  MOVWF  FA7
092B6:  MOVLW  AA
092B8:  MOVWF  FA7
092BA:  BSF    FA6.1
092BC:  BTFSC  FA6.1
092BE:  BRA    92BC
092C0:  BCF    FA6.2
092C2:  MOVF   00,W
092C4:  IORWF  FF2,F
....................          delay_ms(20); 
092C6:  MOVLW  14
092C8:  MOVLB  5
092CA:  MOVWF  xF4
092CC:  MOVLB  0
092CE:  CALL   1514
....................       } 
....................          else 
092D2:  BRA    92DA
....................             {Flanco1 = 0;}   
092D4:  MOVLB  4
092D6:  BCF    x2D.1
092D8:  MOVLB  0
....................              
....................       if(LEFT)//Si oprime boton de Toma. 
092DA:  BSF    F96.2
092DC:  BTFSC  F84.2
092DE:  BRA    9438
....................       { 
....................          delay_ms(700);Menu=32;glcd_fillscreen(OFF);Opcion=1;unidad=1; 
092E0:  MOVLW  04
092E2:  MOVLB  5
092E4:  MOVWF  xE0
092E6:  MOVLW  AF
092E8:  MOVWF  xF4
092EA:  MOVLB  0
092EC:  CALL   1514
092F0:  MOVLB  5
092F2:  DECFSZ xE0,F
092F4:  BRA    92E6
092F6:  MOVLW  20
092F8:  MOVLB  4
092FA:  MOVWF  xC8
092FC:  MOVLB  5
092FE:  CLRF   xE8
09300:  MOVLB  0
09302:  CALL   1608
09306:  MOVLW  01
09308:  MOVLB  4
0930A:  MOVWF  xCA
0930C:  MOVWF  xC9
....................          Temporal=Ajuste1; 
0930E:  MOVFF  535,53D
09312:  MOVFF  534,53C
09316:  MOVFF  533,53B
0931A:  MOVFF  532,53A
....................          Entero=(int)Ajuste1; 
0931E:  MOVFF  535,614
09322:  MOVFF  534,613
09326:  MOVFF  533,612
0932A:  MOVFF  532,611
0932E:  MOVLB  0
09330:  CALL   2D78
09334:  MOVFF  01,4D3
....................          Temporal=Temporal-Entero; 
09338:  MOVLB  6
0933A:  CLRF   x16
0933C:  MOVFF  4D3,615
09340:  MOVLB  0
09342:  CALL   17C2
09346:  BSF    FD8.1
09348:  MOVFF  53D,618
0934C:  MOVFF  53C,617
09350:  MOVFF  53B,616
09354:  MOVFF  53A,615
09358:  MOVFF  03,61C
0935C:  MOVFF  02,61B
09360:  MOVFF  01,61A
09364:  MOVFF  00,619
09368:  CALL   1956
0936C:  MOVFF  03,53D
09370:  MOVFF  02,53C
09374:  MOVFF  01,53B
09378:  MOVFF  00,53A
....................          Temporal2=Temporal*10.0; 
0937C:  MOVFF  53D,614
09380:  MOVFF  53C,613
09384:  MOVFF  53B,612
09388:  MOVFF  53A,611
0938C:  MOVLB  6
0938E:  CLRF   x18
09390:  CLRF   x17
09392:  MOVLW  20
09394:  MOVWF  x16
09396:  MOVLW  82
09398:  MOVWF  x15
0939A:  MOVLB  0
0939C:  CALL   2DB4
093A0:  MOVFF  03,541
093A4:  MOVFF  02,540
093A8:  MOVFF  01,53F
093AC:  MOVFF  00,53E
....................          Decimal1=(int8)Temporal2; 
093B0:  MOVFF  541,614
093B4:  MOVFF  540,613
093B8:  MOVFF  53F,612
093BC:  MOVFF  53E,611
093C0:  CALL   2D78
093C4:  MOVFF  01,4D4
....................          write_eeprom(25,Entero); 
093C8:  CLRF   FAA
093CA:  MOVLW  19
093CC:  MOVWF  FA9
093CE:  MOVFF  4D3,FA8
093D2:  BCF    FA6.6
093D4:  BCF    FA6.7
093D6:  BSF    FA6.2
093D8:  MOVF   FF2,W
093DA:  MOVWF  00
093DC:  BCF    FF2.7
093DE:  MOVLB  F
093E0:  MOVLW  55
093E2:  MOVWF  FA7
093E4:  MOVLW  AA
093E6:  MOVWF  FA7
093E8:  BSF    FA6.1
093EA:  BTFSC  FA6.1
093EC:  BRA    93EA
093EE:  BCF    FA6.2
093F0:  MOVF   00,W
093F2:  IORWF  FF2,F
....................          delay_ms(20); 
093F4:  MOVLW  14
093F6:  MOVLB  5
093F8:  MOVWF  xF4
093FA:  MOVLB  0
093FC:  CALL   1514
....................          write_eeprom(26,Decimal1); 
09400:  CLRF   FAA
09402:  MOVLW  1A
09404:  MOVWF  FA9
09406:  MOVFF  4D4,FA8
0940A:  BCF    FA6.6
0940C:  BCF    FA6.7
0940E:  BSF    FA6.2
09410:  MOVF   FF2,W
09412:  MOVWF  00
09414:  BCF    FF2.7
09416:  MOVLB  F
09418:  MOVLW  55
0941A:  MOVWF  FA7
0941C:  MOVLW  AA
0941E:  MOVWF  FA7
09420:  BSF    FA6.1
09422:  BTFSC  FA6.1
09424:  BRA    9422
09426:  BCF    FA6.2
09428:  MOVF   00,W
0942A:  IORWF  FF2,F
....................          delay_ms(20); 
0942C:  MOVLW  14
0942E:  MOVLB  5
09430:  MOVWF  xF4
09432:  MOVLB  0
09434:  CALL   1514
09438:  MOVLB  4
....................       } 
....................     } 
.................... //_--------------------------------------------------------------------------------------------------------------------------------------------------------        
....................  
.................... //_-------------------------------------------------------------------------------------------------------------------------------------------------------- 
....................       if(Menu==42){ //Menu de Sensor de Presin. 
0943A:  MOVF   xC8,W
0943C:  SUBLW  2A
0943E:  BTFSS  FD8.2
09440:  BRA    986E
....................        
....................       if(Ajuste2>10.0) 
09442:  MOVLB  6
09444:  CLRF   x14
09446:  CLRF   x13
09448:  MOVLW  20
0944A:  MOVWF  x12
0944C:  MOVLW  82
0944E:  MOVWF  x11
09450:  MOVFF  539,618
09454:  MOVFF  538,617
09458:  MOVFF  537,616
0945C:  MOVFF  536,615
09460:  MOVLB  0
09462:  CALL   2330
09466:  BNC   9474
....................          Ajuste2=0.0; 
09468:  MOVLB  5
0946A:  CLRF   x39
0946C:  CLRF   x38
0946E:  CLRF   x37
09470:  CLRF   x36
09472:  MOVLB  0
....................        
....................       strcpy(Menus.Letra,"Sensor de Presion"); 
09474:  MOVLW  04
09476:  MOVWF  FEA
09478:  MOVLW  17
0947A:  MOVWF  FE9
0947C:  MOVFF  FF2,5E0
09480:  BCF    FF2.7
09482:  MOVLW  00
09484:  CALL   1270
09488:  TBLRD*-
0948A:  TBLRD*+
0948C:  MOVF   FF5,W
0948E:  MOVWF  FEE
09490:  IORLW  00
09492:  BNZ   948A
09494:  MOVLB  5
09496:  BTFSC  xE0.7
09498:  BSF    FF2.7
....................       displayMenu(Menus.Letra,10,0,1,1); 
0949A:  MOVLW  04
0949C:  MOVWF  xE9
0949E:  MOVLW  17
094A0:  MOVWF  xE8
094A2:  MOVLW  0A
094A4:  MOVWF  xEA
094A6:  CLRF   xEB
094A8:  MOVLW  01
094AA:  MOVWF  xEC
094AC:  MOVWF  xED
094AE:  MOVLB  0
094B0:  CALL   4C1C
....................        
....................       glcd_text57(0, 12, ZFP, 1, ON); 
094B4:  MOVLB  5
094B6:  CLRF   xF9
094B8:  MOVLW  0C
094BA:  MOVWF  xFA
094BC:  MOVLW  04
094BE:  MOVWF  xFC
094C0:  MOVLW  A8
094C2:  MOVWF  xFB
094C4:  MOVLW  01
094C6:  MOVWF  xFD
094C8:  MOVWF  xFE
094CA:  MOVLB  0
094CC:  CALL   498A
....................        
....................       glcd_text57(0, 20, ZA, 1, ON); 
094D0:  MOVLB  5
094D2:  CLRF   xF9
094D4:  MOVLW  14
094D6:  MOVWF  xFA
094D8:  MOVLW  04
094DA:  MOVWF  xFC
094DC:  MOVLW  8D
094DE:  MOVWF  xFB
094E0:  MOVLW  01
094E2:  MOVWF  xFD
094E4:  MOVWF  xFE
094E6:  MOVLB  0
094E8:  CALL   498A
....................        
....................       glcd_text57(0, 30, AJ, 1, ON);            
094EC:  MOVLB  5
094EE:  CLRF   xF9
094F0:  MOVLW  1E
094F2:  MOVWF  xFA
094F4:  MOVLW  04
094F6:  MOVWF  xFC
094F8:  MOVLW  95
094FA:  MOVWF  xFB
094FC:  MOVLW  01
094FE:  MOVWF  xFD
09500:  MOVWF  xFE
09502:  MOVLB  0
09504:  CALL   498A
....................        
....................       displayfloat(G,44,20,0,1); 
09508:  MOVFF  5C9,5E7
0950C:  MOVFF  5C8,5E6
09510:  MOVFF  5C7,5E5
09514:  MOVFF  5C6,5E4
09518:  MOVLW  2C
0951A:  MOVLB  5
0951C:  MOVWF  xE8
0951E:  MOVLW  14
09520:  MOVWF  xE9
09522:  CLRF   xEA
09524:  MOVLW  01
09526:  MOVWF  xEB
09528:  MOVLB  0
0952A:  CALL   5956
....................       displayfloat(Ajuste2,44,30,0,1); 
0952E:  MOVFF  539,5E7
09532:  MOVFF  538,5E6
09536:  MOVFF  537,5E5
0953A:  MOVFF  536,5E4
0953E:  MOVLW  2C
09540:  MOVLB  5
09542:  MOVWF  xE8
09544:  MOVLW  1E
09546:  MOVWF  xE9
09548:  CLRF   xEA
0954A:  MOVLW  01
0954C:  MOVWF  xEB
0954E:  MOVLB  0
09550:  CALL   5956
....................       displayfloat(Filtro_DownFlow_adc,0,40,0,1); 
09554:  MOVFF  4D9,616
09558:  MOVFF  4D8,615
0955C:  CALL   17C2
09560:  MOVFF  00,5E0
09564:  MOVFF  01,5E1
09568:  MOVFF  02,5E2
0956C:  MOVFF  03,5E3
09570:  MOVFF  03,5E7
09574:  MOVFF  02,5E6
09578:  MOVFF  01,5E5
0957C:  MOVFF  00,5E4
09580:  MOVLB  5
09582:  CLRF   xE8
09584:  MOVLW  28
09586:  MOVWF  xE9
09588:  CLRF   xEA
0958A:  MOVLW  01
0958C:  MOVWF  xEB
0958E:  MOVLB  0
09590:  CALL   5956
....................       displayfloat(Filtro_DownFlow,0,50,0,1); 
09594:  MOVFF  51D,5E7
09598:  MOVFF  51C,5E6
0959C:  MOVFF  51B,5E5
095A0:  MOVFF  51A,5E4
095A4:  MOVLB  5
095A6:  CLRF   xE8
095A8:  MOVLW  32
095AA:  MOVWF  xE9
095AC:  CLRF   xEA
095AE:  MOVLW  01
095B0:  MOVWF  xEB
095B2:  MOVLB  0
095B4:  CALL   5956
....................        
....................       if(UP)//Si oprime hacia arriba 
095B8:  BSF    F92.5
095BA:  BTFSC  F80.5
095BC:  BRA    9604
....................       {   
....................          delay_ms(30);Ajuste2+=0.01; 
095BE:  MOVLW  1E
095C0:  MOVLB  5
095C2:  MOVWF  xF4
095C4:  MOVLB  0
095C6:  CALL   1514
095CA:  BCF    FD8.1
095CC:  MOVFF  539,618
095D0:  MOVFF  538,617
095D4:  MOVFF  537,616
095D8:  MOVFF  536,615
095DC:  MOVLW  0A
095DE:  MOVLB  6
095E0:  MOVWF  x1C
095E2:  MOVLW  D7
095E4:  MOVWF  x1B
095E6:  MOVLW  23
095E8:  MOVWF  x1A
095EA:  MOVLW  78
095EC:  MOVWF  x19
095EE:  MOVLB  0
095F0:  CALL   1956
095F4:  MOVFF  03,539
095F8:  MOVFF  02,538
095FC:  MOVFF  01,537
09600:  MOVFF  00,536
....................       } 
....................              
....................       if(DOWN)//Si oprime hacia abajo 
09604:  BSF    F96.0
09606:  BTFSC  F84.0
09608:  BRA    9650
....................       {   
....................          delay_ms(30);Ajuste2-=0.01; 
0960A:  MOVLW  1E
0960C:  MOVLB  5
0960E:  MOVWF  xF4
09610:  MOVLB  0
09612:  CALL   1514
09616:  BSF    FD8.1
09618:  MOVFF  539,618
0961C:  MOVFF  538,617
09620:  MOVFF  537,616
09624:  MOVFF  536,615
09628:  MOVLW  0A
0962A:  MOVLB  6
0962C:  MOVWF  x1C
0962E:  MOVLW  D7
09630:  MOVWF  x1B
09632:  MOVLW  23
09634:  MOVWF  x1A
09636:  MOVLW  78
09638:  MOVWF  x19
0963A:  MOVLB  0
0963C:  CALL   1956
09640:  MOVFF  03,539
09644:  MOVFF  02,538
09648:  MOVFF  01,537
0964C:  MOVFF  00,536
....................       } 
....................              
....................       if(RIGHT)//Si oprime SET 
09650:  BSF    F96.1
09652:  BTFSC  F84.1
09654:  BRA    9708
....................       {            
....................          G=Filtro_Downflow_adc; 
09656:  MOVFF  4D9,616
0965A:  MOVFF  4D8,615
0965E:  CALL   17C2
09662:  MOVFF  03,5C9
09666:  MOVFF  02,5C8
0966A:  MOVFF  01,5C7
0966E:  MOVFF  00,5C6
....................          G16=(int16)G; 
09672:  MOVFF  5C9,614
09676:  MOVFF  5C8,613
0967A:  MOVFF  5C7,612
0967E:  MOVFF  5C6,611
09682:  CALL   2D78
09686:  MOVFF  02,4E3
0968A:  MOVFF  01,4E2
....................          G_l=G16; G_h=(G16>>8); 
0968E:  MOVFF  4E2,4CC
09692:  MOVFF  4E3,4CD
....................              
....................          write_eeprom(62,G_l); 
09696:  CLRF   FAA
09698:  MOVLW  3E
0969A:  MOVWF  FA9
0969C:  MOVFF  4CC,FA8
096A0:  BCF    FA6.6
096A2:  BCF    FA6.7
096A4:  BSF    FA6.2
096A6:  MOVF   FF2,W
096A8:  MOVWF  00
096AA:  BCF    FF2.7
096AC:  MOVLB  F
096AE:  MOVLW  55
096B0:  MOVWF  FA7
096B2:  MOVLW  AA
096B4:  MOVWF  FA7
096B6:  BSF    FA6.1
096B8:  BTFSC  FA6.1
096BA:  BRA    96B8
096BC:  BCF    FA6.2
096BE:  MOVF   00,W
096C0:  IORWF  FF2,F
....................          delay_ms(20); 
096C2:  MOVLW  14
096C4:  MOVLB  5
096C6:  MOVWF  xF4
096C8:  MOVLB  0
096CA:  CALL   1514
....................          write_eeprom(63,G_h);//Guardar valor de Setpoint en eeprom 
096CE:  CLRF   FAA
096D0:  MOVLW  3F
096D2:  MOVWF  FA9
096D4:  MOVFF  4CD,FA8
096D8:  BCF    FA6.6
096DA:  BCF    FA6.7
096DC:  BSF    FA6.2
096DE:  MOVF   FF2,W
096E0:  MOVWF  00
096E2:  BCF    FF2.7
096E4:  MOVLB  F
096E6:  MOVLW  55
096E8:  MOVWF  FA7
096EA:  MOVLW  AA
096EC:  MOVWF  FA7
096EE:  BSF    FA6.1
096F0:  BTFSC  FA6.1
096F2:  BRA    96F0
096F4:  BCF    FA6.2
096F6:  MOVF   00,W
096F8:  IORWF  FF2,F
....................          delay_ms(20); 
096FA:  MOVLW  14
096FC:  MOVLB  5
096FE:  MOVWF  xF4
09700:  MOVLB  0
09702:  CALL   1514
....................       } 
....................          else 
09706:  BRA    970E
....................             {Flanco1 = 0;}   
09708:  MOVLB  4
0970A:  BCF    x2D.1
0970C:  MOVLB  0
....................              
....................       if(LEFT)//Si oprime boton de Toma. 
0970E:  BSF    F96.2
09710:  BTFSC  F84.2
09712:  BRA    986C
....................       {                   
....................          delay_ms(700);Menu=32;glcd_fillscreen(OFF);Opcion=1;unidad=1; 
09714:  MOVLW  04
09716:  MOVLB  5
09718:  MOVWF  xE0
0971A:  MOVLW  AF
0971C:  MOVWF  xF4
0971E:  MOVLB  0
09720:  CALL   1514
09724:  MOVLB  5
09726:  DECFSZ xE0,F
09728:  BRA    971A
0972A:  MOVLW  20
0972C:  MOVLB  4
0972E:  MOVWF  xC8
09730:  MOVLB  5
09732:  CLRF   xE8
09734:  MOVLB  0
09736:  CALL   1608
0973A:  MOVLW  01
0973C:  MOVLB  4
0973E:  MOVWF  xCA
09740:  MOVWF  xC9
....................          Temporal=Ajuste2; 
09742:  MOVFF  539,53D
09746:  MOVFF  538,53C
0974A:  MOVFF  537,53B
0974E:  MOVFF  536,53A
....................          Entero=(int)Ajuste2; 
09752:  MOVFF  539,614
09756:  MOVFF  538,613
0975A:  MOVFF  537,612
0975E:  MOVFF  536,611
09762:  MOVLB  0
09764:  CALL   2D78
09768:  MOVFF  01,4D3
....................          Temporal=Temporal-Entero; 
0976C:  MOVLB  6
0976E:  CLRF   x16
09770:  MOVFF  4D3,615
09774:  MOVLB  0
09776:  CALL   17C2
0977A:  BSF    FD8.1
0977C:  MOVFF  53D,618
09780:  MOVFF  53C,617
09784:  MOVFF  53B,616
09788:  MOVFF  53A,615
0978C:  MOVFF  03,61C
09790:  MOVFF  02,61B
09794:  MOVFF  01,61A
09798:  MOVFF  00,619
0979C:  CALL   1956
097A0:  MOVFF  03,53D
097A4:  MOVFF  02,53C
097A8:  MOVFF  01,53B
097AC:  MOVFF  00,53A
....................          Temporal2=Temporal*10.0; 
097B0:  MOVFF  53D,614
097B4:  MOVFF  53C,613
097B8:  MOVFF  53B,612
097BC:  MOVFF  53A,611
097C0:  MOVLB  6
097C2:  CLRF   x18
097C4:  CLRF   x17
097C6:  MOVLW  20
097C8:  MOVWF  x16
097CA:  MOVLW  82
097CC:  MOVWF  x15
097CE:  MOVLB  0
097D0:  CALL   2DB4
097D4:  MOVFF  03,541
097D8:  MOVFF  02,540
097DC:  MOVFF  01,53F
097E0:  MOVFF  00,53E
....................          Decimal1=(int8)Temporal2; 
097E4:  MOVFF  541,614
097E8:  MOVFF  540,613
097EC:  MOVFF  53F,612
097F0:  MOVFF  53E,611
097F4:  CALL   2D78
097F8:  MOVFF  01,4D4
....................          write_eeprom(27,Entero); 
097FC:  CLRF   FAA
097FE:  MOVLW  1B
09800:  MOVWF  FA9
09802:  MOVFF  4D3,FA8
09806:  BCF    FA6.6
09808:  BCF    FA6.7
0980A:  BSF    FA6.2
0980C:  MOVF   FF2,W
0980E:  MOVWF  00
09810:  BCF    FF2.7
09812:  MOVLB  F
09814:  MOVLW  55
09816:  MOVWF  FA7
09818:  MOVLW  AA
0981A:  MOVWF  FA7
0981C:  BSF    FA6.1
0981E:  BTFSC  FA6.1
09820:  BRA    981E
09822:  BCF    FA6.2
09824:  MOVF   00,W
09826:  IORWF  FF2,F
....................          delay_ms(20); 
09828:  MOVLW  14
0982A:  MOVLB  5
0982C:  MOVWF  xF4
0982E:  MOVLB  0
09830:  CALL   1514
....................          write_eeprom(28,Decimal1); 
09834:  CLRF   FAA
09836:  MOVLW  1C
09838:  MOVWF  FA9
0983A:  MOVFF  4D4,FA8
0983E:  BCF    FA6.6
09840:  BCF    FA6.7
09842:  BSF    FA6.2
09844:  MOVF   FF2,W
09846:  MOVWF  00
09848:  BCF    FF2.7
0984A:  MOVLB  F
0984C:  MOVLW  55
0984E:  MOVWF  FA7
09850:  MOVLW  AA
09852:  MOVWF  FA7
09854:  BSF    FA6.1
09856:  BTFSC  FA6.1
09858:  BRA    9856
0985A:  BCF    FA6.2
0985C:  MOVF   00,W
0985E:  IORWF  FF2,F
....................          delay_ms(20); 
09860:  MOVLW  14
09862:  MOVLB  5
09864:  MOVWF  xF4
09866:  MOVLB  0
09868:  CALL   1514
0986C:  MOVLB  4
....................       } 
....................     } 
.................... //_--------------------------------------------------------------------------------------------------------------------------------------------------------        
....................  
.................... //_-------------------------------------------------------------------------------------------------------------------------------------------------------- 
....................       if(Menu==43){ //Menu de Velocidad de Motor 
0986E:  MOVF   xC8,W
09870:  SUBLW  2B
09872:  BTFSS  FD8.2
09874:  BRA    9A40
....................        
....................       if(VelMotor>6)VelMotor=6; 
09876:  MOVLB  5
09878:  MOVF   xD7,W
0987A:  SUBLW  06
0987C:  BC    9882
0987E:  MOVLW  06
09880:  MOVWF  xD7
....................        
....................       strcpy(Menus.Letra,"Seleccion Vel"); 
09882:  MOVLW  04
09884:  MOVWF  FEA
09886:  MOVLW  17
09888:  MOVWF  FE9
0988A:  MOVFF  FF2,5E0
0988E:  BCF    FF2.7
09890:  MOVLW  00
09892:  MOVLB  0
09894:  CALL   1340
09898:  TBLRD*-
0989A:  TBLRD*+
0989C:  MOVF   FF5,W
0989E:  MOVWF  FEE
098A0:  IORLW  00
098A2:  BNZ   989A
098A4:  MOVLB  5
098A6:  BTFSC  xE0.7
098A8:  BSF    FF2.7
....................       displayMenu(Menus.Letra,10,0,1,1); 
098AA:  MOVLW  04
098AC:  MOVWF  xE9
098AE:  MOVLW  17
098B0:  MOVWF  xE8
098B2:  MOVLW  0A
098B4:  MOVWF  xEA
098B6:  CLRF   xEB
098B8:  MOVLW  01
098BA:  MOVWF  xEC
098BC:  MOVWF  xED
098BE:  MOVLB  0
098C0:  CALL   4C1C
....................        
....................       displayTiempo(VelMotor,50,40,1,2); 
098C4:  MOVFF  5D7,5E0
098C8:  MOVLW  32
098CA:  MOVLB  5
098CC:  MOVWF  xE1
098CE:  MOVLW  28
098D0:  MOVWF  xE2
098D2:  MOVLW  01
098D4:  MOVWF  xE3
098D6:  MOVLW  02
098D8:  MOVWF  xE4
098DA:  MOVLB  0
098DC:  CALL   53CA
....................        
....................       if(UP && VelMotor<6)//Si oprime hacia arriba 
098E0:  BSF    F92.5
098E2:  BTFSC  F80.5
098E4:  BRA    9904
098E6:  MOVLB  5
098E8:  MOVF   xD7,W
098EA:  SUBLW  05
098EC:  BTFSC  FD8.0
098EE:  BRA    98F4
098F0:  MOVLB  0
098F2:  BRA    9904
....................       {   
....................          delay_ms(200);VelMotor++; 
098F4:  MOVLW  C8
098F6:  MOVWF  xF4
098F8:  MOVLB  0
098FA:  CALL   1514
098FE:  MOVLB  5
09900:  INCF   xD7,F
09902:  MOVLB  0
....................       } 
....................              
....................       if(DOWN && VelMotor>0)//Si oprime hacia abajo 
09904:  BSF    F96.0
09906:  BTFSC  F84.0
09908:  BRA    9926
0990A:  MOVLB  5
0990C:  MOVF   xD7,F
0990E:  BTFSS  FD8.2
09910:  BRA    9916
09912:  MOVLB  0
09914:  BRA    9926
....................       {   
....................          delay_ms(200);VelMotor--; 
09916:  MOVLW  C8
09918:  MOVWF  xF4
0991A:  MOVLB  0
0991C:  CALL   1514
09920:  MOVLB  5
09922:  DECF   xD7,F
09924:  MOVLB  0
....................       } 
....................              
....................       if(RIGHT)//Si oprime SET 
09926:  BSF    F96.1
09928:  BTFSC  F84.1
0992A:  BRA    9934
....................       {            
....................          VelocidadMotor(VelMotor); 
0992C:  MOVFF  5D7,5E0
09930:  CALL   153C
....................       }  
....................              
....................       if(LEFT)//Si oprime boton de Toma. 
09934:  BSF    F96.2
09936:  BTFSC  F84.2
09938:  BRA    9A42
....................       {                   
....................          delay_ms(100);glcd_fillscreen(OFF);Opcion=1;unidad=1; 
0993A:  MOVLW  64
0993C:  MOVLB  5
0993E:  MOVWF  xF4
09940:  MOVLB  0
09942:  CALL   1514
09946:  MOVLB  5
09948:  CLRF   xE8
0994A:  MOVLB  0
0994C:  CALL   1608
09950:  MOVLW  01
09952:  MOVLB  4
09954:  MOVWF  xCA
09956:  MOVWF  xC9
....................          write_eeprom(32,VelMotor);//Guardar valor de Setpoint en eeprom 
09958:  CLRF   FAA
0995A:  MOVLW  20
0995C:  MOVWF  FA9
0995E:  MOVFF  5D7,FA8
09962:  BCF    FA6.6
09964:  BCF    FA6.7
09966:  BSF    FA6.2
09968:  MOVF   FF2,W
0996A:  MOVWF  00
0996C:  BCF    FF2.7
0996E:  MOVLB  F
09970:  MOVLW  55
09972:  MOVWF  FA7
09974:  MOVLW  AA
09976:  MOVWF  FA7
09978:  BSF    FA6.1
0997A:  BTFSC  FA6.1
0997C:  BRA    997A
0997E:  BCF    FA6.2
09980:  MOVF   00,W
09982:  IORWF  FF2,F
....................          delay_ms(20); 
09984:  MOVLW  14
09986:  MOVLB  5
09988:  MOVWF  xF4
0998A:  MOVLB  0
0998C:  CALL   1514
....................          glcd_fillScreen(OFF); 
09990:  MOVLB  5
09992:  CLRF   xE8
09994:  MOVLB  0
09996:  CALL   1608
....................          strcpy(Menus.Letra,"Velocidad"); 
0999A:  MOVLW  04
0999C:  MOVWF  FEA
0999E:  MOVLW  17
099A0:  MOVWF  FE9
099A2:  MOVFF  FF2,5E0
099A6:  BCF    FF2.7
099A8:  MOVLW  00
099AA:  CALL   136C
099AE:  TBLRD*-
099B0:  TBLRD*+
099B2:  MOVF   FF5,W
099B4:  MOVWF  FEE
099B6:  IORLW  00
099B8:  BNZ   99B0
099BA:  MOVLB  5
099BC:  BTFSC  xE0.7
099BE:  BSF    FF2.7
....................          displayMenu(Menus.Letra,0,0,0,2); 
099C0:  MOVLW  04
099C2:  MOVWF  xE9
099C4:  MOVLW  17
099C6:  MOVWF  xE8
099C8:  CLRF   xEA
099CA:  CLRF   xEB
099CC:  CLRF   xEC
099CE:  MOVLW  02
099D0:  MOVWF  xED
099D2:  MOVLB  0
099D4:  CALL   4C1C
....................          strcpy(Menus.Letra,"Guardada"); 
099D8:  MOVLW  04
099DA:  MOVWF  FEA
099DC:  MOVLW  17
099DE:  MOVWF  FE9
099E0:  MOVFF  FF2,5E0
099E4:  BCF    FF2.7
099E6:  MOVLW  00
099E8:  CALL   1394
099EC:  TBLRD*-
099EE:  TBLRD*+
099F0:  MOVF   FF5,W
099F2:  MOVWF  FEE
099F4:  IORLW  00
099F6:  BNZ   99EE
099F8:  MOVLB  5
099FA:  BTFSC  xE0.7
099FC:  BSF    FF2.7
....................          displayMenu(Menus.Letra,0,30,0,2); 
099FE:  MOVLW  04
09A00:  MOVWF  xE9
09A02:  MOVLW  17
09A04:  MOVWF  xE8
09A06:  CLRF   xEA
09A08:  MOVLW  1E
09A0A:  MOVWF  xEB
09A0C:  CLRF   xEC
09A0E:  MOVLW  02
09A10:  MOVWF  xED
09A12:  MOVLB  0
09A14:  CALL   4C1C
....................          glcd_update(); 
09A18:  CALL   1662
....................          delay_ms(1000); 
09A1C:  MOVLW  04
09A1E:  MOVLB  5
09A20:  MOVWF  xE0
09A22:  MOVLW  FA
09A24:  MOVWF  xF4
09A26:  MOVLB  0
09A28:  CALL   1514
09A2C:  MOVLB  5
09A2E:  DECFSZ xE0,F
09A30:  BRA    9A22
....................          glcd_fillScreen(OFF); 
09A32:  CLRF   xE8
09A34:  MOVLB  0
09A36:  CALL   1608
....................          Menu=32; 
09A3A:  MOVLW  20
09A3C:  MOVLB  4
09A3E:  MOVWF  xC8
09A40:  MOVLB  0
....................       } 
....................     } 
.................... //_--------------------------------------------------------------------------------------------------------------------------------------------------------        
....................  
.................... //_-------------------------------------------------------------------------------------------------------------------------------------------------------- 
....................       if(Menu==120){ //Menu de Post-Purga. 
09A42:  MOVLB  4
09A44:  MOVF   xC8,W
09A46:  SUBLW  78
09A48:  BTFSS  FD8.2
09A4A:  BRA    9BD6
....................        
....................       // Para que inicie el tiempo de Post-Purga se debe oprimir el boton de encendido en el Microcontrolador esclavo. 
....................       strcpy(Menus.Letra,"Tiempo"); 
09A4C:  MOVLW  04
09A4E:  MOVWF  FEA
09A50:  MOVLW  17
09A52:  MOVWF  FE9
09A54:  MOVFF  FF2,5E0
09A58:  BCF    FF2.7
09A5A:  MOVLW  00
09A5C:  MOVLB  0
09A5E:  CALL   13BC
09A62:  TBLRD*-
09A64:  TBLRD*+
09A66:  MOVF   FF5,W
09A68:  MOVWF  FEE
09A6A:  IORLW  00
09A6C:  BNZ   9A64
09A6E:  MOVLB  5
09A70:  BTFSC  xE0.7
09A72:  BSF    FF2.7
....................       displayMenu(Menus.Letra,30,0,1,2); 
09A74:  MOVLW  04
09A76:  MOVWF  xE9
09A78:  MOVLW  17
09A7A:  MOVWF  xE8
09A7C:  MOVLW  1E
09A7E:  MOVWF  xEA
09A80:  CLRF   xEB
09A82:  MOVLW  01
09A84:  MOVWF  xEC
09A86:  MOVLW  02
09A88:  MOVWF  xED
09A8A:  MOVLB  0
09A8C:  CALL   4C1C
....................       strcpy(Menus.Letra,"Post-Purga"); 
09A90:  MOVLW  04
09A92:  MOVWF  FEA
09A94:  MOVLW  17
09A96:  MOVWF  FE9
09A98:  MOVFF  FF2,5E0
09A9C:  BCF    FF2.7
09A9E:  MOVLW  00
09AA0:  CALL   13E2
09AA4:  TBLRD*-
09AA6:  TBLRD*+
09AA8:  MOVF   FF5,W
09AAA:  MOVWF  FEE
09AAC:  IORLW  00
09AAE:  BNZ   9AA6
09AB0:  MOVLB  5
09AB2:  BTFSC  xE0.7
09AB4:  BSF    FF2.7
....................       displayMenu(Menus.Letra,10,17,1,2); 
09AB6:  MOVLW  04
09AB8:  MOVWF  xE9
09ABA:  MOVLW  17
09ABC:  MOVWF  xE8
09ABE:  MOVLW  0A
09AC0:  MOVWF  xEA
09AC2:  MOVLW  11
09AC4:  MOVWF  xEB
09AC6:  MOVLW  01
09AC8:  MOVWF  xEC
09ACA:  MOVLW  02
09ACC:  MOVWF  xED
09ACE:  MOVLB  0
09AD0:  CALL   4C1C
....................        
....................       tiempo_postpurga=1; 
09AD4:  MOVLB  4
09AD6:  BSF    x2F.0
....................       LuzBlanca_off;  
09AD8:  BCF    F8B.0
09ADA:  BCF    F94.0
....................       Aux_off; 
09ADC:  BCF    F8B.1
09ADE:  BCF    F94.1
....................       VelocidadMotor(VelMotor); 
09AE0:  MOVFF  5D7,5E0
09AE4:  MOVLB  0
09AE6:  CALL   153C
....................       flag_blower=1; 
09AEA:  MOVLB  4
09AEC:  BSF    x2D.7
....................        
....................        displayTiempo(Tppurga[3],20,40,0,2);displayTiempo(Tppurga[2],40,40,0,2);glcd_text57(60, 42, Dos_puntos, 2, ON); 
09AEE:  MOVFF  4F9,5E0
09AF2:  MOVLW  14
09AF4:  MOVLB  5
09AF6:  MOVWF  xE1
09AF8:  MOVLW  28
09AFA:  MOVWF  xE2
09AFC:  CLRF   xE3
09AFE:  MOVLW  02
09B00:  MOVWF  xE4
09B02:  MOVLB  0
09B04:  CALL   53CA
09B08:  MOVFF  4F8,5E0
09B0C:  MOVLW  28
09B0E:  MOVLB  5
09B10:  MOVWF  xE1
09B12:  MOVWF  xE2
09B14:  CLRF   xE3
09B16:  MOVLW  02
09B18:  MOVWF  xE4
09B1A:  MOVLB  0
09B1C:  CALL   53CA
09B20:  MOVLW  3C
09B22:  MOVLB  5
09B24:  MOVWF  xF9
09B26:  MOVLW  2A
09B28:  MOVWF  xFA
09B2A:  MOVLW  04
09B2C:  MOVWF  xFC
09B2E:  MOVLW  4E
09B30:  MOVWF  xFB
09B32:  MOVLW  02
09B34:  MOVWF  xFD
09B36:  MOVLW  01
09B38:  MOVWF  xFE
09B3A:  MOVLB  0
09B3C:  CALL   498A
....................        displayTiempo(Tppurga[1],70,40,0,2);displayTiempo(Tppurga[0],90,40,0,2);  
09B40:  MOVFF  4F7,5E0
09B44:  MOVLW  46
09B46:  MOVLB  5
09B48:  MOVWF  xE1
09B4A:  MOVLW  28
09B4C:  MOVWF  xE2
09B4E:  CLRF   xE3
09B50:  MOVLW  02
09B52:  MOVWF  xE4
09B54:  MOVLB  0
09B56:  CALL   53CA
09B5A:  MOVFF  4F6,5E0
09B5E:  MOVLW  5A
09B60:  MOVLB  5
09B62:  MOVWF  xE1
09B64:  MOVLW  28
09B66:  MOVWF  xE2
09B68:  CLRF   xE3
09B6A:  MOVLW  02
09B6C:  MOVWF  xE4
09B6E:  MOVLB  0
09B70:  CALL   53CA
....................        
....................       if(RIGHT) 
09B74:  BSF    F96.1
09B76:  BTFSC  F84.1
09B78:  BRA    9BAC
....................       { 
....................          delay_ms(1000); 
09B7A:  MOVLW  04
09B7C:  MOVLB  5
09B7E:  MOVWF  xE0
09B80:  MOVLW  FA
09B82:  MOVWF  xF4
09B84:  MOVLB  0
09B86:  CALL   1514
09B8A:  MOVLB  5
09B8C:  DECFSZ xE0,F
09B8E:  BRA    9B80
....................          if(RIGHT ) 
09B90:  BSF    F96.1
09B92:  BTFSC  F84.1
09B94:  BRA    9BAC
....................          { 
....................             delay_ms(1500); 
09B96:  MOVLW  06
09B98:  MOVWF  xE0
09B9A:  MOVLW  FA
09B9C:  MOVWF  xF4
09B9E:  MOVLB  0
09BA0:  CALL   1514
09BA4:  MOVLB  5
09BA6:  DECFSZ xE0,F
09BA8:  BRA    9B9A
....................             reset_cpu(); 
09BAA:  RESET
....................          } 
....................       } 
....................        
....................       if((Tppurga[0]==Tppurgap[0])&&(Tppurga[1]==Tppurgap[1])&&(Tppurga[2]==Tppurgap[2])&&(Tppurga[3]==Tppurgap[3])) 
09BAC:  MOVLB  4
09BAE:  MOVF   xFA,W
09BB0:  SUBWF  xF6,W
09BB2:  BNZ   9BD6
09BB4:  MOVF   xFB,W
09BB6:  SUBWF  xF7,W
09BB8:  BNZ   9BD6
09BBA:  MOVF   xFC,W
09BBC:  SUBWF  xF8,W
09BBE:  BNZ   9BD6
09BC0:  MOVF   xFD,W
09BC2:  SUBWF  xF9,W
09BC4:  BNZ   9BD6
....................       {tiempo_postpurga=0;glcd_fillScreen(OFF);reset_cpu();} 
09BC6:  BCF    x2F.0
09BC8:  MOVLB  5
09BCA:  CLRF   xE8
09BCC:  MOVLB  0
09BCE:  CALL   1608
09BD2:  RESET
09BD4:  MOVLB  4
....................       
....................     } 
.................... //_--------------------------------------------------------------------------------------------------------------------------------------------------------        
....................  
.................... //_-------------------------------------------------------------------------------------------------------------------------------------------------------- 
....................       if(Menu==200){ //Menu de Inicio. 
09BD6:  MOVF   xC8,W
09BD8:  SUBLW  C8
09BDA:  BTFSS  FD8.2
09BDC:  BRA    9D78
....................           
....................       if(RIGHT){ 
09BDE:  BSF    F96.1
09BE0:  BTFSC  F84.1
09BE2:  BRA    9D54
....................          delay_ms(1000); 
09BE4:  MOVLW  04
09BE6:  MOVLB  5
09BE8:  MOVWF  xE0
09BEA:  MOVLW  FA
09BEC:  MOVWF  xF4
09BEE:  MOVLB  0
09BF0:  CALL   1514
09BF4:  MOVLB  5
09BF6:  DECFSZ xE0,F
09BF8:  BRA    9BEA
....................          if(RIGHT){  
09BFA:  BSF    F96.1
09BFC:  BTFSC  F84.1
09BFE:  BRA    9D50
....................             Display_on; 
09C00:  BSF    F8A.1
09C02:  BCF    F93.1
....................             glcd_init(ON);             //Inicializa la glcd 
09C04:  MOVLW  01
09C06:  MOVWF  xE0
09C08:  MOVLB  0
09C0A:  CALL   171A
....................             glcd_fillScreen(OFF);      //Limpia la pantalla 
09C0E:  MOVLB  5
09C10:  CLRF   xE8
09C12:  MOVLB  0
09C14:  CALL   1608
....................             glcd_text57(0, 0, JP, 2, ON);glcd_text57(5, 20, Cabina, 1, ON);glcd_text57(10, 40, Clase, 2, ON);              
09C18:  MOVLB  5
09C1A:  CLRF   xF9
09C1C:  CLRF   xFA
09C1E:  MOVLW  04
09C20:  MOVWF  xFC
09C22:  MOVLW  30
09C24:  MOVWF  xFB
09C26:  MOVLW  02
09C28:  MOVWF  xFD
09C2A:  MOVLW  01
09C2C:  MOVWF  xFE
09C2E:  MOVLB  0
09C30:  CALL   498A
09C34:  MOVLW  05
09C36:  MOVLB  5
09C38:  MOVWF  xF9
09C3A:  MOVLW  14
09C3C:  MOVWF  xFA
09C3E:  MOVLW  04
09C40:  MOVWF  xFC
09C42:  MOVLW  3C
09C44:  MOVWF  xFB
09C46:  MOVLW  01
09C48:  MOVWF  xFD
09C4A:  MOVWF  xFE
09C4C:  MOVLB  0
09C4E:  CALL   498A
09C52:  MOVLW  0A
09C54:  MOVLB  5
09C56:  MOVWF  xF9
09C58:  MOVLW  28
09C5A:  MOVWF  xFA
09C5C:  MOVLW  04
09C5E:  MOVWF  xFC
09C60:  MOVLW  53
09C62:  MOVWF  xFB
09C64:  MOVLW  02
09C66:  MOVWF  xFD
09C68:  MOVLW  01
09C6A:  MOVWF  xFE
09C6C:  MOVLB  0
09C6E:  CALL   498A
....................             glcd_update();    
09C72:  CALL   1662
....................             delay_ms(3000); 
09C76:  MOVLW  0C
09C78:  MOVLB  5
09C7A:  MOVWF  xE0
09C7C:  MOVLW  FA
09C7E:  MOVWF  xF4
09C80:  MOVLB  0
09C82:  CALL   1514
09C86:  MOVLB  5
09C88:  DECFSZ xE0,F
09C8A:  BRA    9C7C
....................                         
....................             glcd_fillScreen(OFF);      //Limpia la pantalla 
09C8C:  CLRF   xE8
09C8E:  MOVLB  0
09C90:  CALL   1608
....................             displayContrasena(Contrasena[0],20,30,1);displayContrasena(Contrasena[1],40,30,0); 
09C94:  MOVFF  50A,5EA
09C98:  MOVLW  14
09C9A:  MOVLB  5
09C9C:  MOVWF  xEB
09C9E:  MOVLW  1E
09CA0:  MOVWF  xEC
09CA2:  MOVLW  01
09CA4:  MOVWF  xED
09CA6:  MOVLB  0
09CA8:  CALL   4B64
09CAC:  MOVFF  50B,5EA
09CB0:  MOVLW  28
09CB2:  MOVLB  5
09CB4:  MOVWF  xEB
09CB6:  MOVLW  1E
09CB8:  MOVWF  xEC
09CBA:  CLRF   xED
09CBC:  MOVLB  0
09CBE:  CALL   4B64
....................             displayContrasena(Contrasena[2],60,30,0);displayContrasena(Contrasena[0],80,30,0); 
09CC2:  MOVFF  50C,5EA
09CC6:  MOVLW  3C
09CC8:  MOVLB  5
09CCA:  MOVWF  xEB
09CCC:  MOVLW  1E
09CCE:  MOVWF  xEC
09CD0:  CLRF   xED
09CD2:  MOVLB  0
09CD4:  CALL   4B64
09CD8:  MOVFF  50A,5EA
09CDC:  MOVLW  50
09CDE:  MOVLB  5
09CE0:  MOVWF  xEB
09CE2:  MOVLW  1E
09CE4:  MOVWF  xEC
09CE6:  CLRF   xED
09CE8:  MOVLB  0
09CEA:  CALL   4B64
....................             glcd_rect(0, 0, 127, 25, YES, ON);strcpy(Menus.Letra,"Clave");glcd_text57(25, 1, Menus.Letra, 3, OFF);    
09CEE:  MOVLB  5
09CF0:  CLRF   xF9
09CF2:  CLRF   xFA
09CF4:  MOVLW  7F
09CF6:  MOVWF  xFB
09CF8:  MOVLW  19
09CFA:  MOVWF  xFC
09CFC:  MOVLW  01
09CFE:  MOVWF  xFD
09D00:  MOVWF  xFE
09D02:  MOVLB  0
09D04:  CALL   48BE
09D08:  MOVLW  04
09D0A:  MOVWF  FEA
09D0C:  MOVLW  17
09D0E:  MOVWF  FE9
09D10:  MOVFF  FF2,5E0
09D14:  BCF    FF2.7
09D16:  MOVLW  00
09D18:  CALL   0F0A
09D1C:  TBLRD*-
09D1E:  TBLRD*+
09D20:  MOVF   FF5,W
09D22:  MOVWF  FEE
09D24:  IORLW  00
09D26:  BNZ   9D1E
09D28:  MOVLB  5
09D2A:  BTFSC  xE0.7
09D2C:  BSF    FF2.7
09D2E:  MOVLW  19
09D30:  MOVWF  xF9
09D32:  MOVLW  01
09D34:  MOVWF  xFA
09D36:  MOVLW  04
09D38:  MOVWF  xFC
09D3A:  MOVLW  17
09D3C:  MOVWF  xFB
09D3E:  MOVLW  03
09D40:  MOVWF  xFD
09D42:  CLRF   xFE
09D44:  MOVLB  0
09D46:  CALL   498A
....................             Menu=0; 
09D4A:  MOVLB  4
09D4C:  CLRF   xC8
09D4E:  MOVLB  5
....................          } 
....................       } 
....................       else 
09D50:  BRA    9D76
09D52:  MOVLB  4
....................       { 
....................          Display_off;VelocidadMotor(0);LuzBlanca_off;Aux_off;glcd_fillScreen(OFF);      //Limpia la pantalla 
09D54:  BCF    F8A.1
09D56:  BCF    F93.1
09D58:  MOVLB  5
09D5A:  CLRF   xE0
09D5C:  MOVLB  0
09D5E:  CALL   153C
09D62:  BCF    F8B.0
09D64:  BCF    F94.0
09D66:  BCF    F8B.1
09D68:  BCF    F94.1
09D6A:  MOVLB  5
09D6C:  CLRF   xE8
09D6E:  MOVLB  0
09D70:  CALL   1608
09D74:  MOVLB  5
09D76:  MOVLB  4
....................       } 
....................     } 
.................... //_--------------------------------------------------------------------------------------------------------------------------------------------------------        
....................    if(tiemporeset>=60) 
09D78:  MOVF   xCE,W
09D7A:  SUBLW  3B
09D7C:  BC    9D94
....................    { 
....................       if(Menu!=200){ 
09D7E:  MOVF   xC8,W
09D80:  SUBLW  C8
09D82:  BZ    9D94
....................          glcd_init(ON); 
09D84:  MOVLW  01
09D86:  MOVLB  5
09D88:  MOVWF  xE0
09D8A:  MOVLB  0
09D8C:  CALL   171A
....................          tiemporeset=0; 
09D90:  MOVLB  4
09D92:  CLRF   xCE
....................       } 
....................    }  
.................... } 
09D94:  MOVLB  0
09D96:  GOTO   5FE8
....................  
.................... } 
....................  
09D9A:  SLEEP 

Configuration Fuses:
   Word  1: 0200   HS NOIESO NOFCMEN
   Word  2: 1E1F   BROWNOUT NOWDT BORV20 NOPUT WDT32768
   Word  3: 0000   NOPBADEN NOLPT1OSC NOMCLR
   Word  4: 00B0   NOSTVREN NODEBUG NOLVP NOXINST BBSIZ4K
   Word  5: C03F   NOPROTECT NOCPD NOCPB
   Word  6: E03F   NOWRT NOWRTD NOWRTC NOWRTB
   Word  7: 403F   NOEBTR NOEBTRB
