CCS PCH C Compiler, Version 4.104, 5967               25-abr.-18 12:25

               Filename: H:\JP\JP\Laboratorio\Cabina Extractora de Gases y  Humos\2018\Cabina Extractora 120 Sin Ductos Medidor Flujo #0045877XX\Firmware\Maestro_v2.lst

               ROM used: 32650 bytes (33%)
                         Largest free fragment is 32882
               RAM used: 1615 (49%) at main() level
                         1680 (50%) worst case
               Stack:    8 worst case (6 in main + 2 for interrupts)

*
00000:  GOTO   4062
*
00008:  MOVWF  04
0000A:  MOVFF  FD8,05
0000E:  MOVFF  FE0,06
00012:  MOVLB  0
00014:  MOVFF  FE9,0C
00018:  MOVFF  FEA,07
0001C:  MOVFF  FE1,08
00020:  MOVFF  FE2,09
00024:  MOVFF  FD9,0A
00028:  MOVFF  FDA,0B
0002C:  MOVFF  FF3,12
00030:  MOVFF  FF4,13
00034:  MOVFF  FFA,14
00038:  MOVFF  FFB,15
0003C:  MOVFF  00,0E
00040:  MOVFF  01,0F
00044:  MOVFF  02,10
00048:  MOVFF  03,11
0004C:  BTFSS  FF2.5
0004E:  GOTO   0058
00052:  BTFSC  FF2.2
00054:  GOTO   121A
00058:  BTFSS  FF2.4
0005A:  GOTO   0064
0005E:  BTFSC  FF2.1
00060:  GOTO   1120
00064:  MOVFF  0E,00
00068:  MOVFF  0F,01
0006C:  MOVFF  10,02
00070:  MOVFF  11,03
00074:  MOVFF  0C,FE9
00078:  MOVFF  07,FEA
0007C:  BSF    07.7
0007E:  MOVFF  08,FE1
00082:  MOVFF  09,FE2
00086:  MOVFF  0A,FD9
0008A:  MOVFF  0B,FDA
0008E:  MOVFF  12,FF3
00092:  MOVFF  13,FF4
00096:  MOVFF  14,FFA
0009A:  MOVFF  15,FFB
0009E:  MOVF   04,W
000A0:  MOVFF  06,FE0
000A4:  MOVFF  05,FD8
000A8:  RETFIE 0
.................... //Programa para Cabina de Bioseguridad 
....................  
.................... #include <18F4685.h> 
.................... //////// Standard Header file for the PIC18F4685 device //////////////// 
.................... #device PIC18F4685 
.................... #list 
....................  
.................... #device adc=10 
.................... #fuses HS,NOWDT,NOPROTECT,NOLVP,NODEBUG,NOSTVREN,NOPUT,NOCPD,NOWRT,NOIESO,NOFCMEN,NOPBADEN,NOWRTC,NOWRTB,NOEBTR,NOEBTRB,NOCPB,NOXINST,,NOLPT1OSC,MCLR 
.................... #use delay(clock=20000000) 
*
01396:  MOVLW  06
01398:  MOVWF  FEA
0139A:  MOVLW  4F
0139C:  MOVWF  FE9
0139E:  MOVF   FEF,W
013A0:  BZ    13BC
013A2:  MOVLW  06
013A4:  MOVWF  01
013A6:  CLRF   00
013A8:  DECFSZ 00,F
013AA:  BRA    13A8
013AC:  DECFSZ 01,F
013AE:  BRA    13A6
013B0:  MOVLW  7B
013B2:  MOVWF  00
013B4:  DECFSZ 00,F
013B6:  BRA    13B4
013B8:  DECFSZ FEF,F
013BA:  BRA    13A2
013BC:  RETLW  00
.................... #include <MATH.h> 
.................... //////////////////////////////////////////////////////////////////////////// 
.................... ////        (C) Copyright 1996,2008 Custom Computer Services            //// 
.................... //// This source code may only be used by licensed users of the CCS C   //// 
.................... //// compiler.  This source code may only be distributed to other       //// 
.................... //// licensed users of the CCS C compiler.  No other use, reproduction  //// 
.................... //// or distribution is permitted without written permission.           //// 
.................... //// Derivative programs created using this software in object code     //// 
.................... //// form are not restricted in any way.                                //// 
.................... //////////////////////////////////////////////////////////////////////////// 
.................... ////                                                                    //// 
.................... //// History:                                                           //// 
.................... ////  * 9/20/2001 :  Improvments are made to sin/cos code.              //// 
.................... ////                 The code now is small, much faster,                //// 
.................... ////                 and more accurate.                                 //// 
.................... ////  * 2/21/2007 :  Compiler handles & operator differently and does 
.................... ////                 not return generic (int8 *) so type cast is done   //// 
.................... ////                                                                    //// 
.................... //////////////////////////////////////////////////////////////////////////// 
....................  
.................... #ifndef MATH_H 
.................... #define MATH_H 
....................  
.................... #ifdef PI 
.................... #undef  PI 
.................... #endif 
.................... #define PI     3.1415926535897932 
....................  
....................  
.................... #define SQRT2  1.4142135623730950 
....................  
.................... //float const ps[4] = {5.9304945, 21.125224, 8.9403076, 0.29730279}; 
.................... //float const qs[4] = {1.0000000, 15.035723, 17.764134, 2.4934718}; 
....................  
.................... ///////////////////////////// Round Functions ////////////////////////////// 
....................  
.................... float32 CEIL_FLOOR(float32 x, unsigned int8 n) 
.................... { 
....................    float32 y, res; 
....................    unsigned int16 l; 
....................    int1 s; 
....................  
....................    s = 0; 
*
01AE4:  MOVLB  6
01AE6:  BCF    x77.0
....................    y = x; 
01AE8:  MOVFF  66B,670
01AEC:  MOVFF  66A,66F
01AF0:  MOVFF  669,66E
01AF4:  MOVFF  668,66D
....................  
....................    if (x < 0) 
01AF8:  MOVFF  66B,67B
01AFC:  MOVFF  66A,67A
01B00:  MOVFF  669,679
01B04:  MOVFF  668,678
01B08:  CLRF   x7F
01B0A:  CLRF   x7E
01B0C:  CLRF   x7D
01B0E:  CLRF   x7C
01B10:  MOVLB  0
01B12:  RCALL  1938
01B14:  BNC   1B20
....................    { 
....................       s = 1; 
01B16:  MOVLB  6
01B18:  BSF    x77.0
....................       y = -y; 
01B1A:  MOVF   x6E,W
01B1C:  XORLW  80
01B1E:  MOVWF  x6E
....................    } 
....................  
....................    if (y <= 32768.0) 
01B20:  MOVFF  670,67B
01B24:  MOVFF  66F,67A
01B28:  MOVFF  66E,679
01B2C:  MOVFF  66D,678
01B30:  MOVLB  6
01B32:  CLRF   x7F
01B34:  CLRF   x7E
01B36:  CLRF   x7D
01B38:  MOVLW  8E
01B3A:  MOVWF  x7C
01B3C:  MOVLB  0
01B3E:  RCALL  1938
01B40:  BC    1B44
01B42:  BNZ   1B72
....................   res = (float32)(unsigned int16)y; 
01B44:  MOVFF  670,67B
01B48:  MOVFF  66F,67A
01B4C:  MOVFF  66E,679
01B50:  MOVFF  66D,678
01B54:  RCALL  19B2
01B56:  MOVFF  02,67D
01B5A:  MOVFF  01,67C
01B5E:  RCALL  13BE
01B60:  MOVFF  03,674
01B64:  MOVFF  02,673
01B68:  MOVFF  01,672
01B6C:  MOVFF  00,671
....................  
....................  else if (y < 10000000.0) 
01B70:  BRA    1D08
01B72:  MOVFF  670,67B
01B76:  MOVFF  66F,67A
01B7A:  MOVFF  66E,679
01B7E:  MOVFF  66D,678
01B82:  MOVLW  80
01B84:  MOVLB  6
01B86:  MOVWF  x7F
01B88:  MOVLW  96
01B8A:  MOVWF  x7E
01B8C:  MOVLW  18
01B8E:  MOVWF  x7D
01B90:  MOVLW  96
01B92:  MOVWF  x7C
01B94:  MOVLB  0
01B96:  RCALL  1938
01B98:  BTFSS  FD8.0
01B9A:  BRA    1CF8
....................    { 
....................   l = (unsigned int16)(y/32768.0); 
01B9C:  MOVFF  670,67B
01BA0:  MOVFF  66F,67A
01BA4:  MOVFF  66E,679
01BA8:  MOVFF  66D,678
01BAC:  MOVLB  6
01BAE:  CLRF   x7F
01BB0:  CLRF   x7E
01BB2:  CLRF   x7D
01BB4:  MOVLW  8E
01BB6:  MOVWF  x7C
01BB8:  MOVLB  0
01BBA:  RCALL  13F4
01BBC:  MOVFF  03,67B
01BC0:  MOVFF  02,67A
01BC4:  MOVFF  01,679
01BC8:  MOVFF  00,678
01BCC:  RCALL  19B2
01BCE:  MOVFF  02,676
01BD2:  MOVFF  01,675
....................       y = 32768.0*(y/32768.0 - (float32)l); 
01BD6:  MOVFF  670,67B
01BDA:  MOVFF  66F,67A
01BDE:  MOVFF  66E,679
01BE2:  MOVFF  66D,678
01BE6:  MOVLB  6
01BE8:  CLRF   x7F
01BEA:  CLRF   x7E
01BEC:  CLRF   x7D
01BEE:  MOVLW  8E
01BF0:  MOVWF  x7C
01BF2:  MOVLB  0
01BF4:  CALL   13F4
01BF8:  MOVFF  00,678
01BFC:  MOVFF  01,679
01C00:  MOVFF  02,67A
01C04:  MOVFF  03,67B
01C08:  MOVFF  676,67D
01C0C:  MOVFF  675,67C
01C10:  CALL   13BE
01C14:  BSF    FD8.1
01C16:  MOVFF  67B,67F
01C1A:  MOVFF  67A,67E
01C1E:  MOVFF  679,67D
01C22:  MOVFF  678,67C
01C26:  MOVFF  03,683
01C2A:  MOVFF  02,682
01C2E:  MOVFF  01,681
01C32:  MOVFF  00,680
01C36:  RCALL  1552
01C38:  MOVLB  6
01C3A:  CLRF   x7B
01C3C:  CLRF   x7A
01C3E:  CLRF   x79
01C40:  MOVLW  8E
01C42:  MOVWF  x78
01C44:  MOVFF  03,67F
01C48:  MOVFF  02,67E
01C4C:  MOVFF  01,67D
01C50:  MOVFF  00,67C
01C54:  MOVLB  0
01C56:  RCALL  19EE
01C58:  MOVFF  03,670
01C5C:  MOVFF  02,66F
01C60:  MOVFF  01,66E
01C64:  MOVFF  00,66D
....................   res = 32768.0*(float32)l; 
01C68:  MOVFF  676,67D
01C6C:  MOVFF  675,67C
01C70:  CALL   13BE
01C74:  MOVLB  6
01C76:  CLRF   x7B
01C78:  CLRF   x7A
01C7A:  CLRF   x79
01C7C:  MOVLW  8E
01C7E:  MOVWF  x78
01C80:  MOVFF  03,67F
01C84:  MOVFF  02,67E
01C88:  MOVFF  01,67D
01C8C:  MOVFF  00,67C
01C90:  MOVLB  0
01C92:  RCALL  19EE
01C94:  MOVFF  03,674
01C98:  MOVFF  02,673
01C9C:  MOVFF  01,672
01CA0:  MOVFF  00,671
....................   res += (float32)(unsigned int16)y; 
01CA4:  MOVFF  670,67B
01CA8:  MOVFF  66F,67A
01CAC:  MOVFF  66E,679
01CB0:  MOVFF  66D,678
01CB4:  RCALL  19B2
01CB6:  MOVFF  02,67D
01CBA:  MOVFF  01,67C
01CBE:  CALL   13BE
01CC2:  BCF    FD8.1
01CC4:  MOVFF  674,67F
01CC8:  MOVFF  673,67E
01CCC:  MOVFF  672,67D
01CD0:  MOVFF  671,67C
01CD4:  MOVFF  03,683
01CD8:  MOVFF  02,682
01CDC:  MOVFF  01,681
01CE0:  MOVFF  00,680
01CE4:  RCALL  1552
01CE6:  MOVFF  03,674
01CEA:  MOVFF  02,673
01CEE:  MOVFF  01,672
01CF2:  MOVFF  00,671
....................  } 
....................  
....................  else 
01CF6:  BRA    1D08
....................   res = y; 
01CF8:  MOVFF  670,674
01CFC:  MOVFF  66F,673
01D00:  MOVFF  66E,672
01D04:  MOVFF  66D,671
....................  
....................  y = y - (float32)(unsigned int16)y; 
01D08:  MOVFF  670,67B
01D0C:  MOVFF  66F,67A
01D10:  MOVFF  66E,679
01D14:  MOVFF  66D,678
01D18:  RCALL  19B2
01D1A:  MOVFF  02,67D
01D1E:  MOVFF  01,67C
01D22:  CALL   13BE
01D26:  BSF    FD8.1
01D28:  MOVFF  670,67F
01D2C:  MOVFF  66F,67E
01D30:  MOVFF  66E,67D
01D34:  MOVFF  66D,67C
01D38:  MOVFF  03,683
01D3C:  MOVFF  02,682
01D40:  MOVFF  01,681
01D44:  MOVFF  00,680
01D48:  RCALL  1552
01D4A:  MOVFF  03,670
01D4E:  MOVFF  02,66F
01D52:  MOVFF  01,66E
01D56:  MOVFF  00,66D
....................  
....................  if (s) 
01D5A:  MOVLB  6
01D5C:  BTFSS  x77.0
01D5E:  BRA    1D66
....................   res = -res; 
01D60:  MOVF   x72,W
01D62:  XORLW  80
01D64:  MOVWF  x72
....................  
....................  if (y != 0) 
01D66:  MOVFF  670,67B
01D6A:  MOVFF  66F,67A
01D6E:  MOVFF  66E,679
01D72:  MOVFF  66D,678
01D76:  CLRF   x7F
01D78:  CLRF   x7E
01D7A:  CLRF   x7D
01D7C:  CLRF   x7C
01D7E:  MOVLB  0
01D80:  RCALL  1938
01D82:  BZ    1DFC
....................  { 
....................   if (s == 1 && n == 0) 
01D84:  MOVLB  6
01D86:  BTFSS  x77.0
01D88:  BRA    1DC2
01D8A:  MOVF   x6C,F
01D8C:  BNZ   1DC2
....................    res -= 1.0; 
01D8E:  BSF    FD8.1
01D90:  MOVFF  674,67F
01D94:  MOVFF  673,67E
01D98:  MOVFF  672,67D
01D9C:  MOVFF  671,67C
01DA0:  CLRF   x83
01DA2:  CLRF   x82
01DA4:  CLRF   x81
01DA6:  MOVLW  7F
01DA8:  MOVWF  x80
01DAA:  MOVLB  0
01DAC:  CALL   1552
01DB0:  MOVFF  03,674
01DB4:  MOVFF  02,673
01DB8:  MOVFF  01,672
01DBC:  MOVFF  00,671
01DC0:  MOVLB  6
....................  
....................   if (s == 0 && n == 1) 
01DC2:  BTFSC  x77.0
01DC4:  BRA    1DFE
01DC6:  DECFSZ x6C,W
01DC8:  BRA    1DFE
....................    res += 1.0; 
01DCA:  BCF    FD8.1
01DCC:  MOVFF  674,67F
01DD0:  MOVFF  673,67E
01DD4:  MOVFF  672,67D
01DD8:  MOVFF  671,67C
01DDC:  CLRF   x83
01DDE:  CLRF   x82
01DE0:  CLRF   x81
01DE2:  MOVLW  7F
01DE4:  MOVWF  x80
01DE6:  MOVLB  0
01DE8:  CALL   1552
01DEC:  MOVFF  03,674
01DF0:  MOVFF  02,673
01DF4:  MOVFF  01,672
01DF8:  MOVFF  00,671
01DFC:  MOVLB  6
....................  } 
....................  if (x == 0) 
01DFE:  MOVFF  66B,67B
01E02:  MOVFF  66A,67A
01E06:  MOVFF  669,679
01E0A:  MOVFF  668,678
01E0E:  CLRF   x7F
01E10:  CLRF   x7E
01E12:  CLRF   x7D
01E14:  CLRF   x7C
01E16:  MOVLB  0
01E18:  RCALL  1938
01E1A:  BNZ   1E28
....................     res = 0; 
01E1C:  MOVLB  6
01E1E:  CLRF   x74
01E20:  CLRF   x73
01E22:  CLRF   x72
01E24:  CLRF   x71
01E26:  MOVLB  0
....................  
....................  return (res); 
01E28:  MOVFF  671,00
01E2C:  MOVFF  672,01
01E30:  MOVFF  673,02
01E34:  MOVFF  674,03
.................... } 
01E38:  RETLW  00
....................  
.................... // Overloaded Functions to take care for new Data types in PCD 
.................... // Overloaded function CEIL_FLOOR() for data type - Float48 
.................... #if defined(__PCD__) 
.................... float48 CEIL_FLOOR(float48 x, unsigned int8 n) 
.................... { 
....................    float48 y, res; 
....................    unsigned int16 l; 
....................    int1 s; 
....................  
....................    s = 0; 
....................    y = x; 
....................  
....................    if (x < 0) 
....................    { 
....................       s = 1; 
....................       y = -y; 
....................    } 
....................  
....................    if (y <= 32768.0) 
....................   res = (float48)(unsigned int16)y; 
....................  
....................  else if (y < 10000000.0) 
....................    { 
....................   l = (unsigned int16)(y/32768.0); 
....................       y = 32768.0*(y/32768.0 - (float48)l); 
....................   res = 32768.0*(float32)l; 
....................   res += (float48)(unsigned int16)y; 
....................  } 
....................  
....................  else 
....................   res = y; 
....................  
....................  y = y - (float48)(unsigned int16)y; 
....................  
....................  if (s) 
....................   res = -res; 
....................  
....................  if (y != 0) 
....................  { 
....................   if (s == 1 && n == 0) 
....................    res -= 1.0; 
....................  
....................   if (s == 0 && n == 1) 
....................    res += 1.0; 
....................  } 
....................  if (x == 0) 
....................     res = 0; 
....................  
....................  return (res); 
.................... } 
....................  
....................  
.................... // Overloaded function CEIL_FLOOR() for data type - Float64 
.................... float64 CEIL_FLOOR(float64 x, unsigned int8 n) 
.................... { 
....................    float64 y, res; 
....................    unsigned int16 l; 
....................    int1 s; 
....................  
....................    s = 0; 
....................    y = x; 
....................  
....................    if (x < 0) 
....................    { 
....................       s = 1; 
....................       y = -y; 
....................    } 
....................  
....................    if (y <= 32768.0) 
....................   res = (float64)(unsigned int16)y; 
....................  
....................  else if (y < 10000000.0) 
....................    { 
....................   l = (unsigned int16)(y/32768.0); 
....................       y = 32768.0*(y/32768.0 - (float64)l); 
....................   res = 32768.0*(float64)l; 
....................   res += (float64)(unsigned int16)y; 
....................  } 
....................  
....................  else 
....................   res = y; 
....................  
....................  y = y - (float64)(unsigned int16)y; 
....................  
....................  if (s) 
....................   res = -res; 
....................  
....................  if (y != 0) 
....................  { 
....................   if (s == 1 && n == 0) 
....................    res -= 1.0; 
....................  
....................   if (s == 0 && n == 1) 
....................    res += 1.0; 
....................  } 
....................  if (x == 0) 
....................     res = 0; 
....................  
....................  return (res); 
.................... } 
.................... #endif 
....................  
.................... //////////////////////////////////////////////////////////////////////////// 
.................... //   float floor(float x) 
.................... //////////////////////////////////////////////////////////////////////////// 
.................... // Description : rounds down the number x. 
.................... // Date : N/A 
.................... // 
.................... float32 floor(float32 x) 
.................... { 
....................    return CEIL_FLOOR(x, 0); 
*
01E58:  MOVFF  667,66B
01E5C:  MOVFF  666,66A
01E60:  MOVFF  665,669
01E64:  MOVFF  664,668
01E68:  MOVLB  6
01E6A:  CLRF   x6C
01E6C:  MOVLB  0
01E6E:  RCALL  1AE4
.................... } 
01E70:  GOTO   1F78 (RETURN)
.................... // Following 2 functions are overloaded functions of floor() for PCD 
.................... // Overloaded function floor() for data type - Float48 
.................... #if defined(__PCD__) 
.................... float48 floor(float48 x) 
.................... { 
....................    return CEIL_FLOOR(x, 0); 
.................... } 
....................  
.................... // Overloaded function floor() for data type - Float64 
.................... float64 floor(float64 x) 
.................... { 
....................    return CEIL_FLOOR(x, 0); 
.................... } 
.................... #endif 
....................  
....................  
.................... //////////////////////////////////////////////////////////////////////////// 
.................... //   float ceil(float x) 
.................... //////////////////////////////////////////////////////////////////////////// 
.................... // Description : rounds up the number x. 
.................... // Date : N/A 
.................... // 
.................... float32 ceil(float32 x) 
.................... { 
....................    return CEIL_FLOOR(x, 1); 
*
01E3A:  MOVFF  667,66B
01E3E:  MOVFF  666,66A
01E42:  MOVFF  665,669
01E46:  MOVFF  664,668
01E4A:  MOVLW  01
01E4C:  MOVLB  6
01E4E:  MOVWF  x6C
01E50:  MOVLB  0
01E52:  RCALL  1AE4
.................... } 
01E54:  GOTO   1F30 (RETURN)
.................... // Following 2 functions are overloaded functions of ceil() for PCD 
.................... // Overloaded function ceil() for data type - Float48 
.................... #if defined(__PCD__) 
.................... float48 ceil(float48 x) 
.................... { 
....................    return CEIL_FLOOR(x, 1); 
.................... } 
....................  
.................... // Overloaded function ceil() for data type - Float64 
.................... float64 ceil(float64 x) 
.................... { 
....................    return CEIL_FLOOR(x, 1); 
.................... } 
.................... #endif 
....................  
....................  //////////////////////////////////////////////////////////////////////////// 
.................... //   float fabs(float x) 
.................... //////////////////////////////////////////////////////////////////////////// 
.................... // Description : Computes the absolute value of floating point number x 
.................... // Returns : returns the absolute value of x 
.................... // Date : N/A 
.................... // 
.................... #define fabs abs 
....................  
.................... //////////////////////////////////////////////////////////////////////////// 
.................... //   float fmod(float x) 
.................... //////////////////////////////////////////////////////////////////////////// 
.................... // Description : Computes the floating point remainder of x/y 
.................... // Returns : returns the value of x= i*y, for some integer i such that, if y 
.................... // is non zero, the result has the same isgn of x na dmagnitude less than the 
.................... // magnitude of y. If y is zero then a domain error occurs. 
.................... // Date : N/A 
.................... // 
....................  
.................... float fmod(float32 x,float32 y) 
.................... { 
....................    float32 i; 
....................    if (y!=0.0) 
*
01E74:  MOVFF  65B,67B
01E78:  MOVFF  65A,67A
01E7C:  MOVFF  659,679
01E80:  MOVFF  658,678
01E84:  MOVLB  6
01E86:  CLRF   x7F
01E88:  CLRF   x7E
01E8A:  CLRF   x7D
01E8C:  CLRF   x7C
01E8E:  MOVLB  0
01E90:  RCALL  1938
01E92:  BTFSC  FD8.2
01E94:  BRA    1FD4
....................    { 
....................       i=(x/y < 0.0)? ceil(x/y): floor(x/y); 
01E96:  MOVFF  657,67B
01E9A:  MOVFF  656,67A
01E9E:  MOVFF  655,679
01EA2:  MOVFF  654,678
01EA6:  MOVFF  65B,67F
01EAA:  MOVFF  65A,67E
01EAE:  MOVFF  659,67D
01EB2:  MOVFF  658,67C
01EB6:  CALL   13F4
01EBA:  MOVFF  00,660
01EBE:  MOVFF  01,661
01EC2:  MOVFF  02,662
01EC6:  MOVFF  03,663
01ECA:  MOVFF  03,67B
01ECE:  MOVFF  02,67A
01ED2:  MOVFF  01,679
01ED6:  MOVFF  00,678
01EDA:  MOVLB  6
01EDC:  CLRF   x7F
01EDE:  CLRF   x7E
01EE0:  CLRF   x7D
01EE2:  CLRF   x7C
01EE4:  MOVLB  0
01EE6:  RCALL  1938
01EE8:  BNC   1F32
01EEA:  MOVFF  657,67B
01EEE:  MOVFF  656,67A
01EF2:  MOVFF  655,679
01EF6:  MOVFF  654,678
01EFA:  MOVFF  65B,67F
01EFE:  MOVFF  65A,67E
01F02:  MOVFF  659,67D
01F06:  MOVFF  658,67C
01F0A:  CALL   13F4
01F0E:  MOVFF  00,660
01F12:  MOVFF  01,661
01F16:  MOVFF  02,662
01F1A:  MOVFF  03,663
01F1E:  MOVFF  03,667
01F22:  MOVFF  02,666
01F26:  MOVFF  01,665
01F2A:  MOVFF  00,664
01F2E:  BRA    1E3A
01F30:  BRA    1F78
01F32:  MOVFF  657,67B
01F36:  MOVFF  656,67A
01F3A:  MOVFF  655,679
01F3E:  MOVFF  654,678
01F42:  MOVFF  65B,67F
01F46:  MOVFF  65A,67E
01F4A:  MOVFF  659,67D
01F4E:  MOVFF  658,67C
01F52:  CALL   13F4
01F56:  MOVFF  00,660
01F5A:  MOVFF  01,661
01F5E:  MOVFF  02,662
01F62:  MOVFF  03,663
01F66:  MOVFF  03,667
01F6A:  MOVFF  02,666
01F6E:  MOVFF  01,665
01F72:  MOVFF  00,664
01F76:  BRA    1E58
01F78:  MOVFF  03,65F
01F7C:  MOVFF  02,65E
01F80:  MOVFF  01,65D
01F84:  MOVFF  00,65C
....................       return(x-(i*y)); 
01F88:  MOVFF  65F,67B
01F8C:  MOVFF  65E,67A
01F90:  MOVFF  65D,679
01F94:  MOVFF  65C,678
01F98:  MOVFF  65B,67F
01F9C:  MOVFF  65A,67E
01FA0:  MOVFF  659,67D
01FA4:  MOVFF  658,67C
01FA8:  RCALL  19EE
01FAA:  BSF    FD8.1
01FAC:  MOVFF  657,67F
01FB0:  MOVFF  656,67E
01FB4:  MOVFF  655,67D
01FB8:  MOVFF  654,67C
01FBC:  MOVFF  03,683
01FC0:  MOVFF  02,682
01FC4:  MOVFF  01,681
01FC8:  MOVFF  00,680
01FCC:  CALL   1552
01FD0:  BRA    1FD4
....................    } 
....................    else 
01FD2:  BRA    1FD4
....................    { 
....................    #ifdef _ERRNO 
....................    { 
....................       errno=EDOM; 
....................    } 
....................    #endif 
....................    } 
.................... } 
01FD4:  RETLW  00
.................... //Overloaded function for fmod() for PCD 
.................... // Overloaded function fmod() for data type - Float48 
.................... #if defined(__PCD__) 
.................... float48 fmod(float48 x,float48 y) 
.................... { 
....................    float48 i; 
....................    if (y!=0.0) 
....................    { 
....................       i=(x/y < 0.0)? ceil(x/y): floor(x/y); 
....................       return(x-(i*y)); 
....................    } 
....................    else 
....................    { 
....................    #ifdef _ERRNO 
....................    { 
....................       errno=EDOM; 
....................    } 
....................    #endif 
....................    } 
.................... } 
.................... // Overloaded function fmod() for data type - Float64 
.................... float64 fmod(float64 x,float64 y) 
.................... { 
....................    float64 i; 
....................    if (y!=0.0) 
....................    { 
....................       i=(x/y < 0.0)? ceil(x/y): floor(x/y); 
....................       return(x-(i*y)); 
....................    } 
....................    else 
....................    { 
....................    #ifdef _ERRNO 
....................    { 
....................       errno=EDOM; 
....................    } 
....................    #endif 
....................    } 
.................... } 
.................... #endif 
.................... //////////////////// Exponential and logarithmic functions //////////////////// 
.................... //////////////////////////////////////////////////////////////////////////// 
.................... //   float exp(float x) 
.................... //////////////////////////////////////////////////////////////////////////// 
.................... // Description : returns the value (e^x) 
.................... // Date : N/A 
.................... // 
.................... #define LN2 0.6931471805599453 
....................  
.................... float const pe[6] = {0.000207455774, 0.00127100575, 0.00965065093, 
....................                      0.0554965651,  0.240227138,  0.693147172}; 
....................  
....................  
.................... float32 exp(float32 x) 
.................... { 
....................    float32 y, res, r; 
....................    #if defined(__PCD__) 
....................    int8 data1; 
....................    #endif 
....................    signed int8 n; 
....................    int1 s; 
....................    #ifdef _ERRNO 
....................    if(x > 88.722838) 
....................    { 
....................       errno=ERANGE; 
....................       return(0); 
....................    } 
....................    #endif 
....................    n = (signed int16)(x/LN2); 
*
024FE:  MOVFF  65B,67B
02502:  MOVFF  65A,67A
02506:  MOVFF  659,679
0250A:  MOVFF  658,678
0250E:  MOVLW  18
02510:  MOVLB  6
02512:  MOVWF  x7F
02514:  MOVLW  72
02516:  MOVWF  x7E
02518:  MOVLW  31
0251A:  MOVWF  x7D
0251C:  MOVLW  7E
0251E:  MOVWF  x7C
02520:  MOVLB  0
02522:  CALL   13F4
02526:  MOVFF  03,67B
0252A:  MOVFF  02,67A
0252E:  MOVFF  01,679
02532:  MOVFF  00,678
02536:  CALL   19B2
0253A:  MOVFF  01,668
....................    s = 0; 
0253E:  MOVLB  6
02540:  BCF    x69.0
....................    y = x; 
02542:  MOVFF  65B,65F
02546:  MOVFF  65A,65E
0254A:  MOVFF  659,65D
0254E:  MOVFF  658,65C
....................  
....................    if (x < 0) 
02552:  MOVFF  65B,67B
02556:  MOVFF  65A,67A
0255A:  MOVFF  659,679
0255E:  MOVFF  658,678
02562:  CLRF   x7F
02564:  CLRF   x7E
02566:  CLRF   x7D
02568:  CLRF   x7C
0256A:  MOVLB  0
0256C:  CALL   1938
02570:  BNC   257E
....................    { 
....................       s = 1; 
02572:  MOVLB  6
02574:  BSF    x69.0
....................       n = -n; 
02576:  NEGF   x68
....................       y = -y; 
02578:  MOVF   x5D,W
0257A:  XORLW  80
0257C:  MOVWF  x5D
....................    } 
....................  
....................    res = 0.0; 
0257E:  MOVLB  6
02580:  CLRF   x63
02582:  CLRF   x62
02584:  CLRF   x61
02586:  CLRF   x60
.................... #if !defined(__PCD__) 
....................    *((unsigned int8 *)(&res)) = n + 0x7F; 
02588:  MOVLW  06
0258A:  MOVWF  x6B
0258C:  MOVLW  60
0258E:  MOVWF  FE9
02590:  MOVFF  66B,FEA
02594:  MOVLW  7F
02596:  ADDWF  x68,W
02598:  MOVWF  FEF
.................... #endif 
....................  
.................... #if defined(__PCD__)  // Takes care of IEEE format for PCD 
....................    data1 = n+0x7F; 
....................    if(bit_test(data1,0)) 
....................    bit_set(*(((unsigned int8 *)(&res)+2)),7); 
....................    rotate_right(&data1,1); 
....................    bit_clear(data1,7); 
....................    *(((unsigned int8 *)(&res)+3)) = data1; 
.................... #endif 
....................  
....................    y = y/LN2 - (float32)n; 
0259A:  MOVFF  65F,67B
0259E:  MOVFF  65E,67A
025A2:  MOVFF  65D,679
025A6:  MOVFF  65C,678
025AA:  MOVLW  18
025AC:  MOVWF  x7F
025AE:  MOVLW  72
025B0:  MOVWF  x7E
025B2:  MOVLW  31
025B4:  MOVWF  x7D
025B6:  MOVLW  7E
025B8:  MOVWF  x7C
025BA:  MOVLB  0
025BC:  CALL   13F4
025C0:  MOVFF  00,66A
025C4:  MOVFF  01,66B
025C8:  MOVFF  02,66C
025CC:  MOVFF  03,66D
025D0:  MOVLB  6
025D2:  CLRF   x6F
025D4:  MOVFF  668,66E
025D8:  BTFSC  x6E.7
025DA:  DECF   x6F,F
025DC:  MOVLB  0
025DE:  RCALL  1FD6
025E0:  BSF    FD8.1
025E2:  MOVFF  66D,67F
025E6:  MOVFF  66C,67E
025EA:  MOVFF  66B,67D
025EE:  MOVFF  66A,67C
025F2:  MOVFF  03,683
025F6:  MOVFF  02,682
025FA:  MOVFF  01,681
025FE:  MOVFF  00,680
02602:  CALL   1552
02606:  MOVFF  03,65F
0260A:  MOVFF  02,65E
0260E:  MOVFF  01,65D
02612:  MOVFF  00,65C
....................  
....................    r = pe[0]*y + pe[1]; 
02616:  MOVLW  7C
02618:  MOVLB  6
0261A:  MOVWF  x7B
0261C:  MOVLW  88
0261E:  MOVWF  x7A
02620:  MOVLW  59
02622:  MOVWF  x79
02624:  MOVLW  72
02626:  MOVWF  x78
02628:  MOVFF  65F,67F
0262C:  MOVFF  65E,67E
02630:  MOVFF  65D,67D
02634:  MOVFF  65C,67C
02638:  MOVLB  0
0263A:  CALL   19EE
0263E:  MOVFF  00,66A
02642:  MOVFF  01,66B
02646:  MOVFF  02,66C
0264A:  MOVFF  03,66D
0264E:  BCF    FD8.1
02650:  MOVFF  03,67F
02654:  MOVFF  02,67E
02658:  MOVFF  01,67D
0265C:  MOVFF  00,67C
02660:  MOVLW  E0
02662:  MOVLB  6
02664:  MOVWF  x83
02666:  MOVLW  97
02668:  MOVWF  x82
0266A:  MOVLW  26
0266C:  MOVWF  x81
0266E:  MOVLW  75
02670:  MOVWF  x80
02672:  MOVLB  0
02674:  CALL   1552
02678:  MOVFF  03,667
0267C:  MOVFF  02,666
02680:  MOVFF  01,665
02684:  MOVFF  00,664
....................    r = r*y + pe[2]; 
02688:  MOVFF  667,67B
0268C:  MOVFF  666,67A
02690:  MOVFF  665,679
02694:  MOVFF  664,678
02698:  MOVFF  65F,67F
0269C:  MOVFF  65E,67E
026A0:  MOVFF  65D,67D
026A4:  MOVFF  65C,67C
026A8:  CALL   19EE
026AC:  MOVFF  00,66A
026B0:  MOVFF  01,66B
026B4:  MOVFF  02,66C
026B8:  MOVFF  03,66D
026BC:  BCF    FD8.1
026BE:  MOVFF  03,67F
026C2:  MOVFF  02,67E
026C6:  MOVFF  01,67D
026CA:  MOVFF  00,67C
026CE:  MOVLW  C4
026D0:  MOVLB  6
026D2:  MOVWF  x83
026D4:  MOVLW  1D
026D6:  MOVWF  x82
026D8:  MOVLW  1E
026DA:  MOVWF  x81
026DC:  MOVLW  78
026DE:  MOVWF  x80
026E0:  MOVLB  0
026E2:  CALL   1552
026E6:  MOVFF  03,667
026EA:  MOVFF  02,666
026EE:  MOVFF  01,665
026F2:  MOVFF  00,664
....................    r = r*y + pe[3]; 
026F6:  MOVFF  667,67B
026FA:  MOVFF  666,67A
026FE:  MOVFF  665,679
02702:  MOVFF  664,678
02706:  MOVFF  65F,67F
0270A:  MOVFF  65E,67E
0270E:  MOVFF  65D,67D
02712:  MOVFF  65C,67C
02716:  CALL   19EE
0271A:  MOVFF  00,66A
0271E:  MOVFF  01,66B
02722:  MOVFF  02,66C
02726:  MOVFF  03,66D
0272A:  BCF    FD8.1
0272C:  MOVFF  03,67F
02730:  MOVFF  02,67E
02734:  MOVFF  01,67D
02738:  MOVFF  00,67C
0273C:  MOVLW  5E
0273E:  MOVLB  6
02740:  MOVWF  x83
02742:  MOVLW  50
02744:  MOVWF  x82
02746:  MOVLW  63
02748:  MOVWF  x81
0274A:  MOVLW  7A
0274C:  MOVWF  x80
0274E:  MOVLB  0
02750:  CALL   1552
02754:  MOVFF  03,667
02758:  MOVFF  02,666
0275C:  MOVFF  01,665
02760:  MOVFF  00,664
....................    r = r*y + pe[4]; 
02764:  MOVFF  667,67B
02768:  MOVFF  666,67A
0276C:  MOVFF  665,679
02770:  MOVFF  664,678
02774:  MOVFF  65F,67F
02778:  MOVFF  65E,67E
0277C:  MOVFF  65D,67D
02780:  MOVFF  65C,67C
02784:  CALL   19EE
02788:  MOVFF  00,66A
0278C:  MOVFF  01,66B
02790:  MOVFF  02,66C
02794:  MOVFF  03,66D
02798:  BCF    FD8.1
0279A:  MOVFF  03,67F
0279E:  MOVFF  02,67E
027A2:  MOVFF  01,67D
027A6:  MOVFF  00,67C
027AA:  MOVLW  1A
027AC:  MOVLB  6
027AE:  MOVWF  x83
027B0:  MOVLW  FE
027B2:  MOVWF  x82
027B4:  MOVLW  75
027B6:  MOVWF  x81
027B8:  MOVLW  7C
027BA:  MOVWF  x80
027BC:  MOVLB  0
027BE:  CALL   1552
027C2:  MOVFF  03,667
027C6:  MOVFF  02,666
027CA:  MOVFF  01,665
027CE:  MOVFF  00,664
....................    r = r*y + pe[5]; 
027D2:  MOVFF  667,67B
027D6:  MOVFF  666,67A
027DA:  MOVFF  665,679
027DE:  MOVFF  664,678
027E2:  MOVFF  65F,67F
027E6:  MOVFF  65E,67E
027EA:  MOVFF  65D,67D
027EE:  MOVFF  65C,67C
027F2:  CALL   19EE
027F6:  MOVFF  00,66A
027FA:  MOVFF  01,66B
027FE:  MOVFF  02,66C
02802:  MOVFF  03,66D
02806:  BCF    FD8.1
02808:  MOVFF  03,67F
0280C:  MOVFF  02,67E
02810:  MOVFF  01,67D
02814:  MOVFF  00,67C
02818:  MOVLW  18
0281A:  MOVLB  6
0281C:  MOVWF  x83
0281E:  MOVLW  72
02820:  MOVWF  x82
02822:  MOVLW  31
02824:  MOVWF  x81
02826:  MOVLW  7E
02828:  MOVWF  x80
0282A:  MOVLB  0
0282C:  CALL   1552
02830:  MOVFF  03,667
02834:  MOVFF  02,666
02838:  MOVFF  01,665
0283C:  MOVFF  00,664
....................  
....................    res = res*(1.0 + y*r); 
02840:  MOVFF  65F,67B
02844:  MOVFF  65E,67A
02848:  MOVFF  65D,679
0284C:  MOVFF  65C,678
02850:  MOVFF  667,67F
02854:  MOVFF  666,67E
02858:  MOVFF  665,67D
0285C:  MOVFF  664,67C
02860:  CALL   19EE
02864:  BCF    FD8.1
02866:  MOVLB  6
02868:  CLRF   x7F
0286A:  CLRF   x7E
0286C:  CLRF   x7D
0286E:  MOVLW  7F
02870:  MOVWF  x7C
02872:  MOVFF  03,683
02876:  MOVFF  02,682
0287A:  MOVFF  01,681
0287E:  MOVFF  00,680
02882:  MOVLB  0
02884:  CALL   1552
02888:  MOVFF  663,67B
0288C:  MOVFF  662,67A
02890:  MOVFF  661,679
02894:  MOVFF  660,678
02898:  MOVFF  03,67F
0289C:  MOVFF  02,67E
028A0:  MOVFF  01,67D
028A4:  MOVFF  00,67C
028A8:  CALL   19EE
028AC:  MOVFF  03,663
028B0:  MOVFF  02,662
028B4:  MOVFF  01,661
028B8:  MOVFF  00,660
....................  
....................    if (s) 
028BC:  MOVLB  6
028BE:  BTFSS  x69.0
028C0:  BRA    28F4
....................       res = 1.0/res; 
028C2:  CLRF   x7B
028C4:  CLRF   x7A
028C6:  CLRF   x79
028C8:  MOVLW  7F
028CA:  MOVWF  x78
028CC:  MOVFF  663,67F
028D0:  MOVFF  662,67E
028D4:  MOVFF  661,67D
028D8:  MOVFF  660,67C
028DC:  MOVLB  0
028DE:  CALL   13F4
028E2:  MOVFF  03,663
028E6:  MOVFF  02,662
028EA:  MOVFF  01,661
028EE:  MOVFF  00,660
028F2:  MOVLB  6
....................    return(res); 
028F4:  MOVFF  660,00
028F8:  MOVFF  661,01
028FC:  MOVFF  662,02
02900:  MOVFF  663,03
.................... } 
02904:  MOVLB  0
02906:  RETLW  00
....................  
....................  
.................... //Overloaded function for exp() for PCD 
.................... // Overloaded function exp() for data type - Float48 
.................... #if defined(__PCD__) 
.................... float48 exp(float48 x) 
.................... { 
....................    float48 y, res, r; 
....................    int8 data1; 
....................    signed int8 n; 
....................    int1 s; 
....................    #ifdef _ERRNO 
....................    if(x > 88.722838) 
....................    { 
....................       errno=ERANGE; 
....................       return(0); 
....................    } 
....................    #endif 
....................    n = (signed int16)(x/LN2); 
....................    s = 0; 
....................    y = x; 
....................  
....................    if (x < 0) 
....................    { 
....................       s = 1; 
....................       n = -n; 
....................       y = -y; 
....................    } 
....................  
....................    res = 0.0; 
....................  
....................    data1 = n+0x7F; 
....................    if(bit_test(data1,0)) 
....................    bit_set(*(((unsigned int8 *)(&res)+4)),7); 
....................    rotate_right(&data1,1); 
....................    bit_clear(data1,7); 
....................    *(((unsigned int8 *)(&res)+5)) = data1; 
....................  
....................    y = y/LN2 - (float48)n; 
....................  
....................    r = pe[0]*y + pe[1]; 
....................    r = r*y + pe[2]; 
....................    r = r*y + pe[3]; 
....................    r = r*y + pe[4]; 
....................    r = r*y + pe[5]; 
....................  
....................    res = res*(1.0 + y*r); 
....................  
....................    if (s) 
....................       res = 1.0/res; 
....................    return(res); 
.................... } 
....................  
.................... // Overloaded function exp() for data type - Float64 
.................... float64 exp(float64 x) 
.................... { 
....................    float64 y, res, r; 
....................    unsigned int16 data1, data2; 
....................    unsigned int16 *p; 
....................    signed int16 n; 
....................    int1 s; 
....................    #ifdef _ERRNO 
....................    if(x > 709.7827128) 
....................    { 
....................       errno=ERANGE; 
....................       return(0); 
....................    } 
....................    #endif 
....................    n = (signed int16)(x/LN2); 
....................    s = 0; 
....................    y = x; 
....................  
....................    if (x < 0) 
....................    { 
....................       s = 1; 
....................       n = -n; 
....................       y = -y; 
....................    } 
....................  
....................    res = 0.0; 
....................  
.................... #if !defined(__PCD__) 
....................    *((unsigned int16 *)(&res)) = n + 0x7F; 
.................... #endif 
....................    p= (((unsigned int16 *)(&res))+3); 
....................    data1 = *p; 
....................    data2 = *p;    
....................    data1 = n + 0x3FF; 
....................    data1 = data1 <<4; 
....................    if(bit_test(data2,15)) 
....................    bit_set(data1,15); 
....................    data2 = data2 & 0x000F; 
....................    data1 ^= data2; 
....................  
....................    *(((unsigned int16 *)(&res)+3)) = data1; 
....................  
....................  
....................    y = y/LN2 - (float64)n; 
....................  
....................    r = pe[0]*y + pe[1]; 
....................    r = r*y + pe[2]; 
....................    r = r*y + pe[3]; 
....................    r = r*y + pe[4]; 
....................    r = r*y + pe[5]; 
....................  
....................    res = res*(1.0 + y*r); 
....................  
....................    if (s) 
....................       res = 1.0/res; 
....................    return(res); 
.................... } 
....................  
.................... #ENDIF 
....................  
....................  
.................... /************************************************************/ 
....................  
.................... float32 const pl[4] = {0.45145214, -9.0558803, 26.940971, -19.860189}; 
.................... float32 const ql[4] = {1.0000000,  -8.1354259, 16.780517, -9.9300943}; 
....................  
.................... //////////////////////////////////////////////////////////////////////////// 
.................... //   float log(float x) 
.................... //////////////////////////////////////////////////////////////////////////// 
.................... // Description : returns the the natural log of x 
.................... // Date : N/A 
.................... // 
.................... float32 log(float32 x) 
.................... { 
....................    float32 y, res, r, y2; 
....................    #if defined(__PCD__) 
....................    unsigned int8  data1,data2; 
....................    #endif 
....................    signed int8 n; 
....................    #ifdef _ERRNO 
....................    if(x <0) 
....................    { 
....................       errno=EDOM; 
....................    } 
....................    if(x ==0) 
....................    { 
....................       errno=ERANGE; 
....................       return(0); 
....................    } 
....................    #endif 
....................    y = x; 
*
02026:  MOVFF  65B,65F
0202A:  MOVFF  65A,65E
0202E:  MOVFF  659,65D
02032:  MOVFF  658,65C
....................  
....................    if (y != 1.0) 
02036:  MOVFF  65F,67B
0203A:  MOVFF  65E,67A
0203E:  MOVFF  65D,679
02042:  MOVFF  65C,678
02046:  MOVLB  6
02048:  CLRF   x7F
0204A:  CLRF   x7E
0204C:  CLRF   x7D
0204E:  MOVLW  7F
02050:  MOVWF  x7C
02052:  MOVLB  0
02054:  RCALL  1938
02056:  BTFSC  FD8.2
02058:  BRA    24E0
....................    { 
.................... #if !defined(__PCD__) 
....................     *((unsigned int8 *)(&y)) = 0x7E;  
0205A:  MOVLW  06
0205C:  MOVLB  6
0205E:  MOVWF  x6E
02060:  MOVLW  5C
02062:  MOVWF  FE9
02064:  MOVFF  66E,FEA
02068:  MOVLW  7E
0206A:  MOVWF  FEF
.................... #endif 
....................  
.................... #if defined(__PCD__) // Takes care of IEEE format 
....................    data2 = *(((unsigned int8 *)(&y))+3); 
....................    *(((unsigned int8 *)(&y))+3) = 0x3F; 
....................    data1 = *(((unsigned int8 *)(&y))+2); 
....................    bit_clear(data1,7); 
....................    *(((unsigned int8 *)(&y))+2) = data1; 
....................    if(bit_test(data2,7)) 
....................    bit_set(*(((unsigned int8 *)(&y))+3),7); 
.................... #endif 
....................  
....................       y = (y - 1.0)/(y + 1.0); 
0206C:  BSF    FD8.1
0206E:  MOVFF  65F,67F
02072:  MOVFF  65E,67E
02076:  MOVFF  65D,67D
0207A:  MOVFF  65C,67C
0207E:  CLRF   x83
02080:  CLRF   x82
02082:  CLRF   x81
02084:  MOVLW  7F
02086:  MOVWF  x80
02088:  MOVLB  0
0208A:  CALL   1552
0208E:  MOVFF  00,66D
02092:  MOVFF  01,66E
02096:  MOVFF  02,66F
0209A:  MOVFF  03,670
0209E:  BCF    FD8.1
020A0:  MOVFF  65F,67F
020A4:  MOVFF  65E,67E
020A8:  MOVFF  65D,67D
020AC:  MOVFF  65C,67C
020B0:  MOVLB  6
020B2:  CLRF   x83
020B4:  CLRF   x82
020B6:  CLRF   x81
020B8:  MOVLW  7F
020BA:  MOVWF  x80
020BC:  MOVLB  0
020BE:  CALL   1552
020C2:  MOVFF  670,67B
020C6:  MOVFF  66F,67A
020CA:  MOVFF  66E,679
020CE:  MOVFF  66D,678
020D2:  MOVFF  03,67F
020D6:  MOVFF  02,67E
020DA:  MOVFF  01,67D
020DE:  MOVFF  00,67C
020E2:  CALL   13F4
020E6:  MOVFF  03,65F
020EA:  MOVFF  02,65E
020EE:  MOVFF  01,65D
020F2:  MOVFF  00,65C
....................  
....................       y2=y*y; 
020F6:  MOVFF  65F,67B
020FA:  MOVFF  65E,67A
020FE:  MOVFF  65D,679
02102:  MOVFF  65C,678
02106:  MOVFF  65F,67F
0210A:  MOVFF  65E,67E
0210E:  MOVFF  65D,67D
02112:  MOVFF  65C,67C
02116:  RCALL  19EE
02118:  MOVFF  03,66B
0211C:  MOVFF  02,66A
02120:  MOVFF  01,669
02124:  MOVFF  00,668
....................  
....................       res = pl[0]*y2 + pl[1]; 
02128:  MOVLW  BC
0212A:  MOVLB  6
0212C:  MOVWF  x7B
0212E:  MOVLW  24
02130:  MOVWF  x7A
02132:  MOVLW  67
02134:  MOVWF  x79
02136:  MOVLW  7D
02138:  MOVWF  x78
0213A:  MOVFF  66B,67F
0213E:  MOVFF  66A,67E
02142:  MOVFF  669,67D
02146:  MOVFF  668,67C
0214A:  MOVLB  0
0214C:  RCALL  19EE
0214E:  MOVFF  00,66D
02152:  MOVFF  01,66E
02156:  MOVFF  02,66F
0215A:  MOVFF  03,670
0215E:  BCF    FD8.1
02160:  MOVFF  03,67F
02164:  MOVFF  02,67E
02168:  MOVFF  01,67D
0216C:  MOVFF  00,67C
02170:  MOVLW  E3
02172:  MOVLB  6
02174:  MOVWF  x83
02176:  MOVLW  E4
02178:  MOVWF  x82
0217A:  MOVLW  90
0217C:  MOVWF  x81
0217E:  MOVLW  82
02180:  MOVWF  x80
02182:  MOVLB  0
02184:  CALL   1552
02188:  MOVFF  03,663
0218C:  MOVFF  02,662
02190:  MOVFF  01,661
02194:  MOVFF  00,660
....................       res = res*y2 + pl[2]; 
02198:  MOVFF  663,67B
0219C:  MOVFF  662,67A
021A0:  MOVFF  661,679
021A4:  MOVFF  660,678
021A8:  MOVFF  66B,67F
021AC:  MOVFF  66A,67E
021B0:  MOVFF  669,67D
021B4:  MOVFF  668,67C
021B8:  RCALL  19EE
021BA:  MOVFF  00,66D
021BE:  MOVFF  01,66E
021C2:  MOVFF  02,66F
021C6:  MOVFF  03,670
021CA:  BCF    FD8.1
021CC:  MOVFF  03,67F
021D0:  MOVFF  02,67E
021D4:  MOVFF  01,67D
021D8:  MOVFF  00,67C
021DC:  MOVLW  1C
021DE:  MOVLB  6
021E0:  MOVWF  x83
021E2:  MOVLW  87
021E4:  MOVWF  x82
021E6:  MOVLW  57
021E8:  MOVWF  x81
021EA:  MOVLW  83
021EC:  MOVWF  x80
021EE:  MOVLB  0
021F0:  CALL   1552
021F4:  MOVFF  03,663
021F8:  MOVFF  02,662
021FC:  MOVFF  01,661
02200:  MOVFF  00,660
....................       res = res*y2 + pl[3]; 
02204:  MOVFF  663,67B
02208:  MOVFF  662,67A
0220C:  MOVFF  661,679
02210:  MOVFF  660,678
02214:  MOVFF  66B,67F
02218:  MOVFF  66A,67E
0221C:  MOVFF  669,67D
02220:  MOVFF  668,67C
02224:  CALL   19EE
02228:  MOVFF  00,66D
0222C:  MOVFF  01,66E
02230:  MOVFF  02,66F
02234:  MOVFF  03,670
02238:  BCF    FD8.1
0223A:  MOVFF  03,67F
0223E:  MOVFF  02,67E
02242:  MOVFF  01,67D
02246:  MOVFF  00,67C
0224A:  MOVLW  AB
0224C:  MOVLB  6
0224E:  MOVWF  x83
02250:  MOVLW  E1
02252:  MOVWF  x82
02254:  MOVLW  9E
02256:  MOVWF  x81
02258:  MOVLW  83
0225A:  MOVWF  x80
0225C:  MOVLB  0
0225E:  CALL   1552
02262:  MOVFF  03,663
02266:  MOVFF  02,662
0226A:  MOVFF  01,661
0226E:  MOVFF  00,660
....................  
....................       r = ql[0]*y2 + ql[1]; 
02272:  MOVLB  6
02274:  CLRF   x7B
02276:  CLRF   x7A
02278:  CLRF   x79
0227A:  MOVLW  7F
0227C:  MOVWF  x78
0227E:  MOVFF  66B,67F
02282:  MOVFF  66A,67E
02286:  MOVFF  669,67D
0228A:  MOVFF  668,67C
0228E:  MOVLB  0
02290:  CALL   19EE
02294:  MOVFF  00,66D
02298:  MOVFF  01,66E
0229C:  MOVFF  02,66F
022A0:  MOVFF  03,670
022A4:  BCF    FD8.1
022A6:  MOVFF  03,67F
022AA:  MOVFF  02,67E
022AE:  MOVFF  01,67D
022B2:  MOVFF  00,67C
022B6:  MOVLW  B4
022B8:  MOVLB  6
022BA:  MOVWF  x83
022BC:  MOVLW  2A
022BE:  MOVWF  x82
022C0:  MOVLW  82
022C2:  MOVWF  x81
022C4:  MOVWF  x80
022C6:  MOVLB  0
022C8:  CALL   1552
022CC:  MOVFF  03,667
022D0:  MOVFF  02,666
022D4:  MOVFF  01,665
022D8:  MOVFF  00,664
....................       r = r*y2 + ql[2]; 
022DC:  MOVFF  667,67B
022E0:  MOVFF  666,67A
022E4:  MOVFF  665,679
022E8:  MOVFF  664,678
022EC:  MOVFF  66B,67F
022F0:  MOVFF  66A,67E
022F4:  MOVFF  669,67D
022F8:  MOVFF  668,67C
022FC:  CALL   19EE
02300:  MOVFF  00,66D
02304:  MOVFF  01,66E
02308:  MOVFF  02,66F
0230C:  MOVFF  03,670
02310:  BCF    FD8.1
02312:  MOVFF  03,67F
02316:  MOVFF  02,67E
0231A:  MOVFF  01,67D
0231E:  MOVFF  00,67C
02322:  MOVLW  80
02324:  MOVLB  6
02326:  MOVWF  x83
02328:  MOVLW  3E
0232A:  MOVWF  x82
0232C:  MOVLW  06
0232E:  MOVWF  x81
02330:  MOVLW  83
02332:  MOVWF  x80
02334:  MOVLB  0
02336:  CALL   1552
0233A:  MOVFF  03,667
0233E:  MOVFF  02,666
02342:  MOVFF  01,665
02346:  MOVFF  00,664
....................       r = r*y2 + ql[3]; 
0234A:  MOVFF  667,67B
0234E:  MOVFF  666,67A
02352:  MOVFF  665,679
02356:  MOVFF  664,678
0235A:  MOVFF  66B,67F
0235E:  MOVFF  66A,67E
02362:  MOVFF  669,67D
02366:  MOVFF  668,67C
0236A:  CALL   19EE
0236E:  MOVFF  00,66D
02372:  MOVFF  01,66E
02376:  MOVFF  02,66F
0237A:  MOVFF  03,670
0237E:  BCF    FD8.1
02380:  MOVFF  03,67F
02384:  MOVFF  02,67E
02388:  MOVFF  01,67D
0238C:  MOVFF  00,67C
02390:  MOVLW  AB
02392:  MOVLB  6
02394:  MOVWF  x83
02396:  MOVLW  E1
02398:  MOVWF  x82
0239A:  MOVLW  9E
0239C:  MOVWF  x81
0239E:  MOVLW  82
023A0:  MOVWF  x80
023A2:  MOVLB  0
023A4:  CALL   1552
023A8:  MOVFF  03,667
023AC:  MOVFF  02,666
023B0:  MOVFF  01,665
023B4:  MOVFF  00,664
....................  
....................       res = y*res/r; 
023B8:  MOVFF  65F,67B
023BC:  MOVFF  65E,67A
023C0:  MOVFF  65D,679
023C4:  MOVFF  65C,678
023C8:  MOVFF  663,67F
023CC:  MOVFF  662,67E
023D0:  MOVFF  661,67D
023D4:  MOVFF  660,67C
023D8:  CALL   19EE
023DC:  MOVFF  00,66D
023E0:  MOVFF  01,66E
023E4:  MOVFF  02,66F
023E8:  MOVFF  03,670
023EC:  MOVFF  03,67B
023F0:  MOVFF  02,67A
023F4:  MOVFF  01,679
023F8:  MOVFF  00,678
023FC:  MOVFF  667,67F
02400:  MOVFF  666,67E
02404:  MOVFF  665,67D
02408:  MOVFF  664,67C
0240C:  CALL   13F4
02410:  MOVFF  03,663
02414:  MOVFF  02,662
02418:  MOVFF  01,661
0241C:  MOVFF  00,660
.................... #if !defined(__PCD__) 
....................       n = *((unsigned int8 *)(&x)) - 0x7E; 
02420:  MOVLW  06
02422:  MOVLB  6
02424:  MOVWF  x6E
02426:  MOVLW  58
02428:  MOVWF  FE9
0242A:  MOVFF  66E,FEA
0242E:  MOVLW  7E
02430:  SUBWF  FEF,W
02432:  MOVWF  x6C
.................... #endif 
.................... #if defined(__PCD__)  
....................     data1 = *(((unsigned int8 *)(&x)+3)); 
....................     rotate_left(&data1,1); 
....................     data2 = *(((unsigned int8 *)(&x)+2)); 
....................     if(bit_test (data2,7)) 
....................       bit_set(data1,0); 
....................     n = data1 - 0x7E; 
.................... #endif 
....................  
....................       if (n<0)  
02434:  BTFSC  x6C.7
02436:  BRA    243A
02438:  BRA    2462
....................          r = -(float32)-n; 
0243A:  MOVLW  00
0243C:  BSF    FD8.0
0243E:  SUBFWB x6C,W
02440:  CLRF   x6F
02442:  MOVWF  x6E
02444:  BTFSC  x6E.7
02446:  DECF   x6F,F
02448:  MOVLB  0
0244A:  RCALL  1FD6
0244C:  MOVFF  00,664
02450:  MOVF   01,W
02452:  XORLW  80
02454:  MOVLB  6
02456:  MOVWF  x65
02458:  MOVFF  02,666
0245C:  MOVFF  03,667
....................       else 
02460:  BRA    2482
....................          r = (float32)n; 
02462:  CLRF   x6F
02464:  MOVFF  66C,66E
02468:  BTFSC  x6E.7
0246A:  DECF   x6F,F
0246C:  MOVLB  0
0246E:  RCALL  1FD6
02470:  MOVFF  03,667
02474:  MOVFF  02,666
02478:  MOVFF  01,665
0247C:  MOVFF  00,664
02480:  MOVLB  6
....................  
....................       res += r*LN2; 
02482:  MOVFF  667,67B
02486:  MOVFF  666,67A
0248A:  MOVFF  665,679
0248E:  MOVFF  664,678
02492:  MOVLW  18
02494:  MOVWF  x7F
02496:  MOVLW  72
02498:  MOVWF  x7E
0249A:  MOVLW  31
0249C:  MOVWF  x7D
0249E:  MOVLW  7E
024A0:  MOVWF  x7C
024A2:  MOVLB  0
024A4:  CALL   19EE
024A8:  BCF    FD8.1
024AA:  MOVFF  663,67F
024AE:  MOVFF  662,67E
024B2:  MOVFF  661,67D
024B6:  MOVFF  660,67C
024BA:  MOVFF  03,683
024BE:  MOVFF  02,682
024C2:  MOVFF  01,681
024C6:  MOVFF  00,680
024CA:  CALL   1552
024CE:  MOVFF  03,663
024D2:  MOVFF  02,662
024D6:  MOVFF  01,661
024DA:  MOVFF  00,660
....................    } 
....................  
....................    else 
024DE:  BRA    24EC
....................       res = 0.0; 
024E0:  MOVLB  6
024E2:  CLRF   x63
024E4:  CLRF   x62
024E6:  CLRF   x61
024E8:  CLRF   x60
024EA:  MOVLB  0
....................  
....................    return(res); 
024EC:  MOVFF  660,00
024F0:  MOVFF  661,01
024F4:  MOVFF  662,02
024F8:  MOVFF  663,03
.................... } 
024FC:  RETLW  00
....................  
.................... //Overloaded function for log() for PCD 
.................... // Overloaded function log() for data type - Float48 
.................... #if defined(__PCD__) 
.................... float48 log(float48 x) 
.................... { 
....................    float48 y, res, r, y2; 
....................    unsigned int8  data1,data2; 
....................    signed int8 n; 
....................    #ifdef _ERRNO 
....................    if(x <0) 
....................    { 
....................       errno=EDOM; 
....................    } 
....................    if(x ==0) 
....................    { 
....................       errno=ERANGE; 
....................       return(0); 
....................    } 
....................    #endif 
....................    y = x; 
....................  
....................    if (y != 1.0) 
....................    { 
....................     
....................    #if !defined(__PCD__) 
....................        *((unsigned int8 *)(&y)) = 0x7E;  
....................    #endif 
....................       data2 = *(((unsigned int8 *)(&y))+5); 
....................       *(((unsigned int8 *)(&y))+5) = 0x3F; 
....................       data1 = *(((unsigned int8 *)(&y))+4); 
....................       bit_clear(data1,7); 
....................       *(((unsigned int8 *)(&y))+4) = data1; 
....................    
....................       if(bit_test(data2,7)) 
....................          bit_set(*(((unsigned int8 *)(&y))+4),7); 
....................       y = (y - 1.0)/(y + 1.0); 
....................  
....................       y2=y*y; 
....................  
....................       res = pl[0]*y2 + pl[1]; 
....................       res = res*y2 + pl[2]; 
....................       res = res*y2 + pl[3]; 
....................  
....................       r = ql[0]*y2 + ql[1]; 
....................       r = r*y2 + ql[2]; 
....................       r = r*y2 + ql[3]; 
....................  
....................       res = y*res/r; 
....................  
....................     data1 = *(((unsigned int8 *)(&x)+5)); 
....................     rotate_left(&data1,1); 
....................     data2 = *(((unsigned int8 *)(&x)+4)); 
....................     if(bit_test (data2,7)) 
....................        bit_set(data1,0); 
....................       
....................     n = data1 - 0x7E; 
....................  
....................       if (n<0) 
....................          r = -(float48)-n; 
....................       else 
....................          r = (float48)n; 
....................  
....................       res += r*LN2; 
....................    } 
....................  
....................    else 
....................       res = 0.0; 
....................  
....................    return(res); 
.................... } 
....................  
.................... // Overloaded function log() for data type - Float48 
.................... #if defined(__PCD__) 
.................... float32 const pl_64[4] = {0.45145214, -9.0558803, 26.940971, -19.860189}; 
.................... float32 const ql_64[4] = {1.0000000,  -8.1354259, 16.780517, -9.9300943}; 
.................... #endif 
.................... float64 log(float64 x) 
.................... { 
....................    float64 y, res, r, y2; 
....................    unsigned int16  data1,data2; 
....................    unsigned int16 *p; 
....................    signed int16 n; 
....................    #ifdef _ERRNO 
....................    if(x <0) 
....................    { 
....................       errno=EDOM; 
....................    } 
....................    if(x ==0) 
....................    { 
....................       errno=ERANGE; 
....................       return(0); 
....................    } 
....................    #endif 
....................    y = x; 
....................  
....................    if (y != 1.0) 
....................    { 
....................    #if !defined(__PCD__) 
....................        *((unsigned int8 *)(&y)) = 0x7E;  
....................    #endif 
....................       p= (((unsigned int16 *)(&y))+3); 
....................       data1 = *p; 
....................       data2 = *p; 
....................       data1 = 0x3FE; 
....................       data1 = data1 <<4; 
....................       if(bit_test (data2,15)) 
....................       bit_set(data1,15); 
....................       data2 = data2 & 0x000F; 
....................       data1 ^=data2; 
....................  
....................       *p = data1; 
....................  
....................       y = (y - 1.0)/(y + 1.0); 
....................  
....................       y2=y*y; 
....................  
....................       res = pl_64[0]*y2 + pl_64[1]; 
....................       res = res*y2 + pl_64[2]; 
....................       res = res*y2 + pl_64[3]; 
....................  
....................       r = ql_64[0]*y2 + ql_64[1]; 
....................       r = r*y2 + ql_64[2]; 
....................       r = r*y2 + ql_64[3]; 
....................  
....................       res = y*res/r; 
....................   
....................       p= (((unsigned int16 *)(&x))+3); 
....................       data1 = *p; 
....................       bit_clear(data1,15); 
....................       data1 = data1 >>4;     
....................       n = data1 - 0x3FE; 
....................  
....................  
....................       if (n<0) 
....................          r = -(float64)-n; 
....................       else 
....................          r = (float64)n; 
....................  
....................       res += r*LN2; 
....................    } 
....................  
....................    else 
....................       res = 0.0; 
....................  
....................    return(res); 
.................... } 
.................... #endif 
....................  
....................  
.................... #define LN10 2.3025850929940456 
....................  
.................... //////////////////////////////////////////////////////////////////////////// 
.................... //   float log10(float x) 
.................... //////////////////////////////////////////////////////////////////////////// 
.................... // Description : returns the the log base 10 of x 
.................... // Date : N/A 
.................... // 
.................... float32 log10(float32 x) 
.................... { 
....................    float32 r; 
....................  
....................    r = log(x); 
....................    r = r/LN10; 
....................    return(r); 
.................... } 
....................  
.................... //Overloaded functions for log10() for PCD 
.................... // Overloaded function log10() for data type - Float48 
.................... #if defined(__PCD__) 
.................... float48 log10(float48 x) 
.................... { 
....................    float48 r; 
....................  
....................    r = log(x); 
....................    r = r/LN10; 
....................    return(r); 
.................... } 
....................  
.................... // Overloaded function log10() for data type - Float64 
.................... float64 log10(float64 x) 
.................... { 
....................    float64 r; 
....................  
....................    r = log(x); 
....................    r = r/LN10; 
....................    return(r); 
.................... } 
.................... #endif 
.................... //////////////////////////////////////////////////////////////////////////// 
.................... //   float modf(float x) 
.................... //////////////////////////////////////////////////////////////////////////// 
.................... // Description :breaks the argument value int integral and fractional parts, 
.................... // ach of which have the same sign as the argument.  It stores the integral part 
.................... // as a float in the object pointed to by the iptr 
.................... // Returns : returns the signed fractional part of value. 
.................... // Date : N/A 
.................... // 
....................  
.................... float32 modf(float32 value,float32 *iptr) 
.................... { 
....................    *iptr=(value < 0.0)? ceil(value): floor(value); 
....................    return(value - *iptr); 
.................... } 
.................... //Overloaded functions for modf() for PCD 
.................... // Overloaded function modf() for data type - Float48 
.................... #if defined(__PCD__) 
.................... float48 modf(float48 value,float48 *iptr) 
.................... { 
....................    *iptr=(value < 0.0)? ceil(value): floor(value); 
....................    return(value - *iptr); 
.................... } 
.................... // Overloaded function modf() for data type - Float64 
.................... float64 modf(float64 value,float64 *iptr) 
.................... { 
....................    *iptr=(value < 0.0)? ceil(value): floor(value); 
....................    return(value - *iptr); 
.................... } 
.................... #endif 
....................  
.................... //////////////////////////////////////////////////////////////////////////// 
.................... //   float pwr(float x,float y) 
.................... //////////////////////////////////////////////////////////////////////////// 
.................... // Description : returns the value (x^y) 
.................... // Date : N/A 
.................... // Note : 0 is returned when the function will generate an imaginary number 
.................... // 
.................... float32 pwr(float32 x,float32 y) 
.................... { 
....................    if(0 > x && fmod(y, 1) == 0) { 
....................       if(fmod(y, 2) == 0) { 
....................          return (exp(log(-x) * y)); 
....................       } else { 
....................          return (-exp(log(-x) * y)); 
....................       } 
....................    } else if(0 > x && fmod(y, 1) != 0) { 
....................       return 0; 
....................    } else { 
....................       if(x != 0 || 0 >= y) { 
....................          return (exp(log(x) * y)); 
....................       } 
....................    } 
.................... } 
.................... //Overloaded functions for pwr() for PCD 
.................... // Overloaded function pwr() for data type - Float48 
.................... #if defined(__PCD__) 
.................... float48 pwr(float48 x,float48 y) 
.................... { 
....................    if(0 > x && fmod(y, 1) == 0) { 
....................       if(fmod(y, 2) == 0) { 
....................          return (exp(log(-x) * y)); 
....................       } else { 
....................          return (-exp(log(-x) * y)); 
....................       } 
....................    } else if(0 > x && fmod(y, 1) != 0) { 
....................       return 0; 
....................    } else { 
....................       if(x != 0 || 0 >= y) { 
....................          return (exp(log(x) * y)); 
....................       } 
....................    } 
.................... } 
.................... // Overloaded function pwr() for data type - Float64 
.................... float64 pwr(float64 x,float64 y) 
.................... { 
....................    if(0 > x && fmod(y, 1) == 0) { 
....................       if(fmod(y, 2) == 0) { 
....................          return (exp(log(-x) * y)); 
....................       } else { 
....................          return (-exp(log(-x) * y)); 
....................       } 
....................    } else if(0 > x && fmod(y, 1) != 0) { 
....................       return 0; 
....................    } else { 
....................       if(x != 0 || 0 >= y) { 
....................          return (exp(log(x) * y)); 
....................       } 
....................    } 
.................... } 
.................... #endif 
....................  
.................... //////////////////// Power functions //////////////////// 
....................  
.................... //////////////////////////////////////////////////////////////////////////// 
.................... //   float pow(float x,float y) 
.................... //////////////////////////////////////////////////////////////////////////// 
.................... // Description : returns the value (x^y) 
.................... // Date : N/A 
.................... // Note : 0 is returned when the function will generate an imaginary number 
.................... // 
.................... float32 pow(float32 x,float32 y) 
.................... { 
....................    if(0 > x && fmod(y, 1) == 0) { 
*
02908:  MOVFF  64F,67B
0290C:  MOVFF  64E,67A
02910:  MOVFF  64D,679
02914:  MOVFF  64C,678
02918:  MOVLB  6
0291A:  CLRF   x7F
0291C:  CLRF   x7E
0291E:  CLRF   x7D
02920:  CLRF   x7C
02922:  MOVLB  0
02924:  CALL   1938
02928:  BTFSS  FD8.0
0292A:  BRA    2ADE
0292C:  MOVFF  653,657
02930:  MOVFF  652,656
02934:  MOVFF  651,655
02938:  MOVFF  650,654
0293C:  MOVLB  6
0293E:  CLRF   x5B
02940:  CLRF   x5A
02942:  CLRF   x59
02944:  MOVLW  7F
02946:  MOVWF  x58
02948:  MOVLB  0
0294A:  CALL   1E74
0294E:  MOVFF  00,654
02952:  MOVFF  01,655
02956:  MOVFF  02,656
0295A:  MOVFF  03,657
0295E:  MOVFF  03,67B
02962:  MOVFF  02,67A
02966:  MOVFF  01,679
0296A:  MOVFF  00,678
0296E:  MOVLB  6
02970:  CLRF   x7F
02972:  CLRF   x7E
02974:  CLRF   x7D
02976:  CLRF   x7C
02978:  MOVLB  0
0297A:  CALL   1938
0297E:  BTFSS  FD8.2
02980:  BRA    2ADE
....................       if(fmod(y, 2) == 0) { 
02982:  MOVFF  653,657
02986:  MOVFF  652,656
0298A:  MOVFF  651,655
0298E:  MOVFF  650,654
02992:  MOVLB  6
02994:  CLRF   x5B
02996:  CLRF   x5A
02998:  CLRF   x59
0299A:  MOVLW  80
0299C:  MOVWF  x58
0299E:  MOVLB  0
029A0:  CALL   1E74
029A4:  MOVFF  00,654
029A8:  MOVFF  01,655
029AC:  MOVFF  02,656
029B0:  MOVFF  03,657
029B4:  MOVFF  03,67B
029B8:  MOVFF  02,67A
029BC:  MOVFF  01,679
029C0:  MOVFF  00,678
029C4:  MOVLB  6
029C6:  CLRF   x7F
029C8:  CLRF   x7E
029CA:  CLRF   x7D
029CC:  CLRF   x7C
029CE:  MOVLB  0
029D0:  CALL   1938
029D4:  BNZ   2A58
....................          return (exp(log(-x) * y)); 
029D6:  MOVFF  64C,654
029DA:  MOVLB  6
029DC:  MOVF   x4D,W
029DE:  XORLW  80
029E0:  MOVWF  x55
029E2:  MOVFF  64E,656
029E6:  MOVFF  64F,657
029EA:  MOVFF  64F,65B
029EE:  MOVFF  64E,65A
029F2:  MOVWF  x59
029F4:  MOVFF  64C,658
029F8:  MOVLB  0
029FA:  CALL   2026
029FE:  MOVFF  00,654
02A02:  MOVFF  01,655
02A06:  MOVFF  02,656
02A0A:  MOVFF  03,657
02A0E:  MOVFF  03,67B
02A12:  MOVFF  02,67A
02A16:  MOVFF  01,679
02A1A:  MOVFF  00,678
02A1E:  MOVFF  653,67F
02A22:  MOVFF  652,67E
02A26:  MOVFF  651,67D
02A2A:  MOVFF  650,67C
02A2E:  CALL   19EE
02A32:  MOVFF  00,654
02A36:  MOVFF  01,655
02A3A:  MOVFF  02,656
02A3E:  MOVFF  03,657
02A42:  MOVFF  03,65B
02A46:  MOVFF  02,65A
02A4A:  MOVFF  01,659
02A4E:  MOVFF  00,658
02A52:  RCALL  24FE
02A54:  BRA    2C12
....................       } else { 
02A56:  BRA    2ADC
....................          return (-exp(log(-x) * y)); 
02A58:  MOVFF  64C,654
02A5C:  MOVLB  6
02A5E:  MOVF   x4D,W
02A60:  XORLW  80
02A62:  MOVWF  x55
02A64:  MOVFF  64E,656
02A68:  MOVFF  64F,657
02A6C:  MOVFF  64F,65B
02A70:  MOVFF  64E,65A
02A74:  MOVWF  x59
02A76:  MOVFF  64C,658
02A7A:  MOVLB  0
02A7C:  CALL   2026
02A80:  MOVFF  00,654
02A84:  MOVFF  01,655
02A88:  MOVFF  02,656
02A8C:  MOVFF  03,657
02A90:  MOVFF  03,67B
02A94:  MOVFF  02,67A
02A98:  MOVFF  01,679
02A9C:  MOVFF  00,678
02AA0:  MOVFF  653,67F
02AA4:  MOVFF  652,67E
02AA8:  MOVFF  651,67D
02AAC:  MOVFF  650,67C
02AB0:  CALL   19EE
02AB4:  MOVFF  00,654
02AB8:  MOVFF  01,655
02ABC:  MOVFF  02,656
02AC0:  MOVFF  03,657
02AC4:  MOVFF  03,65B
02AC8:  MOVFF  02,65A
02ACC:  MOVFF  01,659
02AD0:  MOVFF  00,658
02AD4:  RCALL  24FE
02AD6:  MOVLW  80
02AD8:  XORWF  01,F
02ADA:  BRA    2C12
....................       } 
....................    } else if(0 > x && fmod(y, 1) != 0) { 
02ADC:  BRA    2C12
02ADE:  MOVFF  64F,67B
02AE2:  MOVFF  64E,67A
02AE6:  MOVFF  64D,679
02AEA:  MOVFF  64C,678
02AEE:  MOVLB  6
02AF0:  CLRF   x7F
02AF2:  CLRF   x7E
02AF4:  CLRF   x7D
02AF6:  CLRF   x7C
02AF8:  MOVLB  0
02AFA:  CALL   1938
02AFE:  BNC   2B60
02B00:  MOVFF  653,657
02B04:  MOVFF  652,656
02B08:  MOVFF  651,655
02B0C:  MOVFF  650,654
02B10:  MOVLB  6
02B12:  CLRF   x5B
02B14:  CLRF   x5A
02B16:  CLRF   x59
02B18:  MOVLW  7F
02B1A:  MOVWF  x58
02B1C:  MOVLB  0
02B1E:  CALL   1E74
02B22:  MOVFF  00,654
02B26:  MOVFF  01,655
02B2A:  MOVFF  02,656
02B2E:  MOVFF  03,657
02B32:  MOVFF  03,67B
02B36:  MOVFF  02,67A
02B3A:  MOVFF  01,679
02B3E:  MOVFF  00,678
02B42:  MOVLB  6
02B44:  CLRF   x7F
02B46:  CLRF   x7E
02B48:  CLRF   x7D
02B4A:  CLRF   x7C
02B4C:  MOVLB  0
02B4E:  CALL   1938
02B52:  BZ    2B60
....................       return 0; 
02B54:  CLRF   00
02B56:  CLRF   01
02B58:  CLRF   02
02B5A:  CLRF   03
02B5C:  BRA    2C12
....................    } else { 
02B5E:  BRA    2C12
....................       if(x != 0 || 0 >= y) { 
02B60:  MOVFF  64F,67B
02B64:  MOVFF  64E,67A
02B68:  MOVFF  64D,679
02B6C:  MOVFF  64C,678
02B70:  MOVLB  6
02B72:  CLRF   x7F
02B74:  CLRF   x7E
02B76:  CLRF   x7D
02B78:  CLRF   x7C
02B7A:  MOVLB  0
02B7C:  CALL   1938
02B80:  BNZ   2BA6
02B82:  MOVFF  653,67B
02B86:  MOVFF  652,67A
02B8A:  MOVFF  651,679
02B8E:  MOVFF  650,678
02B92:  MOVLB  6
02B94:  CLRF   x7F
02B96:  CLRF   x7E
02B98:  CLRF   x7D
02B9A:  CLRF   x7C
02B9C:  MOVLB  0
02B9E:  CALL   1938
02BA2:  BC    2BA6
02BA4:  BNZ   2C12
....................          return (exp(log(x) * y)); 
02BA6:  MOVFF  64F,65B
02BAA:  MOVFF  64E,65A
02BAE:  MOVFF  64D,659
02BB2:  MOVFF  64C,658
02BB6:  CALL   2026
02BBA:  MOVFF  00,654
02BBE:  MOVFF  01,655
02BC2:  MOVFF  02,656
02BC6:  MOVFF  03,657
02BCA:  MOVFF  03,67B
02BCE:  MOVFF  02,67A
02BD2:  MOVFF  01,679
02BD6:  MOVFF  00,678
02BDA:  MOVFF  653,67F
02BDE:  MOVFF  652,67E
02BE2:  MOVFF  651,67D
02BE6:  MOVFF  650,67C
02BEA:  CALL   19EE
02BEE:  MOVFF  00,654
02BF2:  MOVFF  01,655
02BF6:  MOVFF  02,656
02BFA:  MOVFF  03,657
02BFE:  MOVFF  03,65B
02C02:  MOVFF  02,65A
02C06:  MOVFF  01,659
02C0A:  MOVFF  00,658
02C0E:  RCALL  24FE
02C10:  BRA    2C12
....................       } 
....................    } 
.................... } 
02C12:  RETLW  00
.................... //Overloaded functions for pow() for PCD 
.................... // Overloaded function for pow() data type - Float48 
.................... #if defined(__PCD__) 
.................... float48 pow(float48 x,float48 y) 
.................... { 
....................    if(0 > x && fmod(y, 1) == 0) { 
....................       if(fmod(y, 2) == 0) { 
....................          return (exp(log(-x) * y)); 
....................       } else { 
....................          return (-exp(log(-x) * y)); 
....................       } 
....................    } else if(0 > x && fmod(y, 1) != 0) { 
....................       return 0; 
....................    } else { 
....................       if(x != 0 || 0 >= y) { 
....................          return (exp(log(x) * y)); 
....................       } 
....................    } 
.................... } 
....................  
.................... // Overloaded function pow() for data type - Float64 
.................... float64 pow(float64 x,float64 y) 
.................... { 
....................    if(0 > x && fmod(y, 1) == 0) { 
....................       if(fmod(y, 2) == 0) { 
....................          return (exp(log(-x) * y)); 
....................       } else { 
....................          return (-exp(log(-x) * y)); 
....................       } 
....................    } else if(0 > x && fmod(y, 1) != 0) { 
....................       return 0; 
....................    } else { 
....................       if(x != 0 || 0 >= y) { 
....................          return (exp(log(x) * y)); 
....................       } 
....................    } 
.................... } 
.................... #endif 
....................  
.................... //////////////////////////////////////////////////////////////////////////// 
.................... //   float sqrt(float x) 
.................... //////////////////////////////////////////////////////////////////////////// 
.................... // Description : returns the square root of x 
.................... // Date : N/A 
.................... // 
.................... float32 sqrt(float32 x) 
.................... { 
....................    float32 y, res; 
....................    #if defined(__PCD__) 
....................    unsigned int16 data1,data2; 
....................    #endif 
....................    BYTE *p; 
....................  
....................    #ifdef _ERRNO 
....................    if(x < 0) 
....................    { 
....................       errno=EDOM; 
....................    } 
....................    #endif 
....................  
....................    if( x<=0.0) 
....................       return(0.0); 
....................  
....................    y=x; 
....................     
....................    #if !defined(__PCD__) 
....................     p=&y; 
....................    (*p)=(BYTE)((((unsigned int16)(*p)) + 127) >> 1); 
....................    #endif 
....................     
....................    #if defined(__PCD__) 
....................     p = (((unsigned int8 *)(&y))+3); 
....................     data1 = *(((unsigned int8 *)(&y))+3); 
....................     data2 = *(((unsigned int8 *)(&y))+2); 
....................     rotate_left(&data1,1);     
....................     if(bit_test(data2,7))     
....................     bit_set(data1,0);     
....................     data1 = ((data1+127) >>1); 
....................     bit_clear(data2,7); 
....................     if(bit_test(data1,0)) 
....................     bit_set(data2,7); 
....................     data1 = data1 >>1; 
....................     *(((unsigned int8 *)(&y))+3) = data1; 
....................     *(((unsigned int8 *)(&y))+2) = data2; 
....................      
....................   #endif 
....................  
....................    do { 
....................       res=y; 
....................       y+=(x/y); 
....................  
....................       #if !defined(__PCD__) 
....................      (*p)--; 
....................    #endif 
....................     
....................    #if defined(__PCD__) 
....................     data1 = *(((unsigned int8 *)(&y))+3); 
....................     data2 = *(((unsigned int8 *)(&y))+2); 
....................     rotate_left(&data1,1); 
....................     if(bit_test(data2,7)) 
....................     bit_set(data1,0);     
....................     data1--; 
....................     bit_clear(data2,7); 
....................     if(bit_test(data1,0)) 
....................     bit_set(data2,7); 
....................     data1 = data1 >>1; 
....................     *(((unsigned int8 *)(&y))+3) = data1; 
....................     *(((unsigned int8 *)(&y))+2) = data2; 
....................      
....................   #endif 
....................    } while(res != y); 
....................  
....................    return(res); 
.................... } 
.................... //Overloaded functions for sqrt() for PCD 
.................... // Overloaded function sqrt() for data type - Float48 
.................... #if defined(__PCD__) 
.................... float48 sqrt(float48 x) 
.................... { 
....................    float48 y, res; 
....................    unsigned int16 data1,data2; 
....................    BYTE *p; 
....................  
....................    #ifdef _ERRNO 
....................    if(x < 0) 
....................    { 
....................       errno=EDOM; 
....................    } 
....................    #endif 
....................  
....................    if( x<=0.0) 
....................       return(0.0); 
....................  
....................    y=x; 
....................     
....................    #if !defined(__PCD__) 
....................     p=&y; 
....................    (*p)=(BYTE)((((unsigned int16)(*p)) + 127) >> 1); 
....................    #endif 
....................     
....................    #if defined(__PCD__) 
....................     p = (((unsigned int8 *)(&y))+5); 
....................     data1 = *(((unsigned int8 *)(&y))+5); 
....................     data2 = *(((unsigned int8 *)(&y))+4); 
....................     rotate_left(&data1,1); 
....................     if(bit_test(data2,7)) 
....................     bit_set(data1,0);     
....................     data1 = ((data1+127) >>1); 
....................     bit_clear(data2,7); 
....................     if(bit_test(data1,0)) 
....................     bit_set(data2,7); 
....................     data1 = data1 >>1; 
....................     *(((unsigned int8 *)(&y))+5) = data1; 
....................     *(((unsigned int8 *)(&y))+4) = data2; 
....................      
....................   #endif 
....................  
....................    do { 
....................       res=y; 
....................       y+=(x/y); 
....................  
....................       #if !defined(__PCD__) 
....................      (*p)--; 
....................    #endif 
....................     
....................     data1 = *(((unsigned int8 *)(&y))+5); 
....................     data2 = *(((unsigned int8 *)(&y))+4); 
....................     rotate_left(&data1,1); 
....................     if(bit_test(data2,7)) 
....................     bit_set(data1,0);     
....................     data1--; 
....................     bit_clear(data2,7); 
....................     if(bit_test(data1,0)) 
....................     bit_set(data2,7); 
....................     data1 = data1 >>1; 
....................     *(((unsigned int8 *)(&y))+5) = data1; 
....................     *(((unsigned int8 *)(&y))+4) = data2; 
....................      
....................    } while(res != y); 
....................  
....................    return(res); 
.................... } 
....................  
.................... // Overloaded function sqrt() for data type - Float64 
.................... float64 sqrt(float64 x) 
.................... { 
....................    float64 y, res; 
....................    unsigned int16 *p; 
....................    unsigned int16 temp1,temp2; 
....................  
....................    #ifdef _ERRNO 
....................    if(x < 0) 
....................    { 
....................       errno=EDOM; 
....................    } 
....................    #endif 
....................  
....................    if( x<=0.0) 
....................       return(0.0); 
....................  
....................    y=x; 
....................    p= (((unsigned int16 *)(&y))+3); 
....................    temp1 = *p; 
....................    temp2 = *p; 
....................    bit_clear(temp1,15); 
....................    temp1 = (temp1>>4)+1023; 
....................    temp1 = temp1 >> 1; 
....................    temp1 = (temp1<<4) & 0xFFF0; 
....................    if(bit_test(temp2,15)) 
....................    bit_set(temp1,15); 
....................    temp2 = temp2 & 0x000F; 
....................    temp1 ^= temp2; 
....................     
....................    (*p) = temp1; 
....................     
....................    do { 
....................       res=y; 
....................       y+=(x/y); 
....................      temp1 = *p; 
....................      temp2 = *p; 
....................      bit_clear(temp1,15); 
....................      temp1 = (temp1>>4); 
....................      temp1--; 
....................      temp1 = (temp1<<4) & 0xFFF0; 
....................      if(bit_test(temp2,15)) 
....................      bit_set(temp1,15); 
....................      temp2 = temp2 & 0x000F; 
....................      temp1 ^= temp2; 
....................      (*p) = temp1; 
....................  
....................    } while(res != y); 
....................  
....................    return(res); 
.................... } 
.................... #endif 
....................  
.................... ////////////////////////////// Trig Functions ////////////////////////////// 
.................... #ifdef PI_DIV_BY_TWO 
.................... #undef PI_DIV_BY_TWO 
.................... #endif 
.................... #define PI_DIV_BY_TWO   1.5707963267948966 
.................... #ifdef TWOBYPI 
.................... #undef TWOBYPI 
.................... #define TWOBYPI          0.6366197723675813 
.................... #endif 
.................... //////////////////////////////////////////////////////////////////////////// 
.................... //   float cos(float x) 
.................... //////////////////////////////////////////////////////////////////////////// 
.................... // Description : returns the cosine value of the angle x, which is in radian 
.................... // Date : 9/20/2001 
.................... // 
.................... float32 cos(float32 x) 
.................... { 
....................    float32 y, t, t2 = 1.0; 
....................    unsigned int8 quad, i; 
....................    float32 frac; 
....................    float32 p[6] = {                    //by the series definition for cosine 
....................       -0.5,                            // sum ( ( (-1)^n * x^2n )/(2n)! ) 
....................        0.04166666666667, 
....................       -0.00138888888889, 
....................        0.00002480158730, 
....................       -0.00000027557319, 
....................        0.00000000208767, 
....................       //-0.00000000001147, 
....................       // 0.00000000000005 
....................    }; 
....................  
....................    if (x < 0) x = -x;                  // absolute value of input 
....................  
....................    quad = (unsigned int8)(x / PI_DIV_BY_TWO);    // quadrant 
....................    frac = (x / PI_DIV_BY_TWO) - quad;  // fractional part of input 
....................    quad = quad % 4;                    // quadrant (0 to 3) 
....................  
....................    if (quad == 0 || quad == 2) 
....................       t = frac * PI_DIV_BY_TWO; 
....................    else if (quad == 1) 
....................       t = (1-frac) * PI_DIV_BY_TWO; 
....................    else // should be 3 
....................       t = (frac-1) * PI_DIV_BY_TWO; 
....................  
....................    y = 1.0; 
....................    t = t * t; 
....................    for (i = 0; i <= 5; i++) 
....................    { 
....................       t2 = t2 * t; 
....................       y = y + p[i] * t2; 
....................    } 
....................  
....................    if (quad == 2 || quad == 1) 
....................       y = -y;  // correct sign 
....................  
....................    return (y); 
.................... } 
....................  
....................  
.................... //Overloaded functions for cos() for PCD 
.................... // Overloaded function cos() for data type - Float48 
.................... #if defined(__PCD__) 
.................... float48 cos(float48 x) 
.................... { 
....................    float48 y, t, t2 = 1.0; 
....................    unsigned int8 quad, i; 
....................    float48 frac; 
....................    float48 p[6] = {                    //by the series definition for cosine 
....................       -0.5,                            // sum ( ( (-1)^n * x^2n )/(2n)! ) 
....................        0.04166666666667, 
....................       -0.00138888888889, 
....................        0.00002480158730, 
....................       -0.00000027557319, 
....................        0.00000000208767, 
....................       //-0.00000000001147, 
....................       // 0.00000000000005 
....................    }; 
....................  
....................    if (x < 0) x = -x;                  // absolute value of input 
....................  
....................    quad = (unsigned int8)(x / PI_DIV_BY_TWO);    // quadrant 
....................    frac = (x / PI_DIV_BY_TWO) - quad;  // fractional part of input 
....................    quad = quad % 4;                    // quadrant (0 to 3) 
....................  
....................    if (quad == 0 || quad == 2) 
....................       t = frac * PI_DIV_BY_TWO; 
....................    else if (quad == 1) 
....................       t = (1-frac) * PI_DIV_BY_TWO; 
....................    else // should be 3 
....................       t = (frac-1) * PI_DIV_BY_TWO; 
....................  
....................    y = 0.999999999781; 
....................    t = t * t; 
....................    for (i = 0; i <= 5; i++) 
....................    { 
....................       t2 = t2 * t; 
....................       y = y + p[i] * t2; 
....................    } 
....................  
....................    if (quad == 2 || quad == 1) 
....................       y = -y;  // correct sign 
....................  
....................    return (y); 
.................... } 
....................  
.................... // Overloaded function cos() for data type - Float48 
.................... float64 cos(float64 x) 
.................... { 
....................    float64 y, t, t2 = 1.0; 
....................    unsigned int8 quad, i; 
....................    float64 frac; 
....................    float64 p[6] = {                    //by the series definition for cosine 
....................       -0.5,                            // sum ( ( (-1)^n * x^2n )/(2n)! ) 
....................        0.04166666666667, 
....................       -0.00138888888889, 
....................        0.00002480158730, 
....................       -0.00000027557319, 
....................        0.00000000208767, 
....................       //-0.00000000001147, 
....................       // 0.00000000000005 
....................    }; 
....................  
....................    if (x < 0) x = -x;                  // absolute value of input 
....................  
....................    quad = (unsigned int8)(x / PI_DIV_BY_TWO);    // quadrant 
....................    frac = (x / PI_DIV_BY_TWO) - quad;  // fractional part of input 
....................    quad = quad % 4;                    // quadrant (0 to 3) 
....................  
....................    if (quad == 0 || quad == 2) 
....................       t = frac * PI_DIV_BY_TWO; 
....................    else if (quad == 1) 
....................       t = (1-frac) * PI_DIV_BY_TWO; 
....................    else // should be 3 
....................       t = (frac-1) * PI_DIV_BY_TWO; 
....................  
....................    y = 0.999999999781; 
....................    t = t * t; 
....................    for (i = 0; i <= 5; i++) 
....................    { 
....................       t2 = t2 * t; 
....................       y = y + p[i] * t2; 
....................    } 
....................  
....................    if (quad == 2 || quad == 1) 
....................       y = -y;  // correct sign 
....................  
....................    return (y); 
.................... } 
....................  
.................... #endif 
....................  
.................... //////////////////////////////////////////////////////////////////////////// 
.................... //   float sin(float x) 
.................... //////////////////////////////////////////////////////////////////////////// 
.................... // Description : returns the sine value of the angle x, which is in radian 
.................... // Date : 9/20/2001 
.................... // 
.................... float32 sin(float32 x) 
.................... { 
....................    return cos(x - PI_DIV_BY_TWO); 
.................... } 
....................  
.................... //Overloaded functions for sin() for PCD 
.................... // Overloaded function sin() for data type - Float48 
.................... #if defined(__PCD__) 
.................... float48 sin(float48 x) 
.................... { 
....................    return cos(x - PI_DIV_BY_TWO); 
.................... } 
....................  
.................... // Overloaded function sin() for data type - Float48 
.................... float64 sin(float64 x) 
.................... { 
....................    return cos(x - PI_DIV_BY_TWO); 
.................... } 
.................... #endif 
....................  
.................... //////////////////////////////////////////////////////////////////////////// 
.................... //   float tan(float x) 
.................... //////////////////////////////////////////////////////////////////////////// 
.................... // Description : returns the tangent value of the angle x, which is in radian 
.................... // Date : 9/20/2001 
.................... // 
.................... float32 tan(float32 x) 
.................... { 
....................    float32 c, s; 
....................  
....................    c = cos(x); 
....................    if (c == 0.0) 
....................       return (1.0e+36); 
....................  
....................    s = sin(x); 
....................    return(s/c); 
.................... } 
.................... //Overloaded functions for tan() for PCD 
.................... // Overloaded function tan() for data type - Float48 
.................... #if defined(__PCD__) 
.................... float48 tan(float48 x) 
.................... { 
....................    float48 c, s; 
....................  
....................    c = cos(x); 
....................    if (c == 0.0) 
....................       return (1.0e+36); 
....................  
....................    s = sin(x); 
....................    return(s/c); 
.................... } 
....................  
.................... // Overloaded function tan() for data type - Float48 
.................... float64 tan(float64 x) 
.................... { 
....................    float64 c, s; 
....................  
....................    c = cos(x); 
....................    if (c == 0.0) 
....................       return (1.0e+36); 
....................  
....................    s = sin(x); 
....................    return(s/c); 
.................... } 
.................... #endif 
....................  
.................... float32 const pas[3] = {0.49559947, -4.6145309, 5.6036290}; 
.................... float32 const qas[3] = {1.0000000,  -5.5484666, 5.6036290}; 
....................  
.................... float32 ASIN_COS(float32 x, unsigned int8 n) 
.................... { 
....................    float32 y, res, r, y2; 
....................    int1 s; 
....................    #ifdef _ERRNO 
....................    if(x <-1 || x > 1) 
....................    { 
....................       errno=EDOM; 
....................    } 
....................    #endif 
....................    s = 0; 
....................    y = x; 
....................  
....................    if (x < 0) 
....................    { 
....................       s = 1; 
....................       y = -y; 
....................    } 
....................  
....................    if (y > 0.5) 
....................    { 
....................       y = sqrt((1.0 - y)/2.0); 
....................       n += 2; 
....................    } 
....................  
....................    y2=y*y; 
....................  
....................    res = pas[0]*y2 + pas[1]; 
....................    res = res*y2 + pas[2]; 
....................  
....................    r = qas[0]*y2 + qas[1]; 
....................    r = r*y2 + qas[2]; 
....................  
....................    res = y*res/r; 
....................  
....................    if (n & 2)     // |x| > 0.5 
....................       res = PI_DIV_BY_TWO - 2.0*res; 
....................    if (s) 
....................       res = -res; 
....................    if (n & 1)           // take arccos 
....................       res = PI_DIV_BY_TWO - res; 
....................  
....................    return(res); 
.................... } 
....................  
.................... //Overloaded functions for ASIN_COS() for PCD 
.................... // Overloaded function ASIN_COS() for data type - Float48 
.................... #if defined(__PCD__) 
.................... float48 ASIN_COS(float48 x, unsigned int8 n) 
.................... { 
....................    float48 y, res, r, y2; 
....................    int1 s; 
....................    #ifdef _ERRNO 
....................    if(x <-1 || x > 1) 
....................    { 
....................       errno=EDOM; 
....................    } 
....................    #endif 
....................    s = 0; 
....................    y = x; 
....................  
....................    if (x < 0) 
....................    { 
....................       s = 1; 
....................       y = -y; 
....................    } 
....................  
....................    if (y > 0.5) 
....................    { 
....................       y = sqrt((1.0 - y)/2.0); 
....................       n += 2; 
....................    } 
....................  
....................    y2=y*y; 
....................  
....................    res = pas[0]*y2 + pas[1]; 
....................    res = res*y2 + pas[2]; 
....................  
....................    r = qas[0]*y2 + qas[1]; 
....................    r = r*y2 + qas[2]; 
....................  
....................    res = y*res/r; 
....................  
....................    if (n & 2)     // |x| > 0.5 
....................       res = PI_DIV_BY_TWO - 2.0*res; 
....................    if (s) 
....................       res = -res; 
....................    if (n & 1)           // take arccos 
....................       res = PI_DIV_BY_TWO - res; 
....................  
....................    return(res); 
.................... } 
....................  
.................... // Overloaded function ASIN_COS() for data type - Float64 
.................... float64 ASIN_COS(float64 x, unsigned int8 n) 
.................... { 
....................    float64 y, res, r, y2; 
....................    int1 s; 
....................    #ifdef _ERRNO 
....................    if(x <-1 || x > 1) 
....................    { 
....................       errno=EDOM; 
....................    } 
....................    #endif 
....................    s = 0; 
....................    y = x; 
....................  
....................    if (x < 0) 
....................    { 
....................       s = 1; 
....................       y = -y; 
....................    } 
....................  
....................    if (y > 0.5) 
....................    { 
....................       y = sqrt((1.0 - y)/2.0); 
....................       n += 2; 
....................    } 
....................  
....................    y2=y*y; 
....................  
....................    res = pas[0]*y2 + pas[1]; 
....................    res = res*y2 + pas[2]; 
....................  
....................    r = qas[0]*y2 + qas[1]; 
....................    r = r*y2 + qas[2]; 
....................  
....................    res = y*res/r; 
....................  
....................    if (n & 2)     // |x| > 0.5 
....................       res = PI_DIV_BY_TWO - 2.0*res; 
....................    if (s) 
....................       res = -res; 
....................    if (n & 1)           // take arccos 
....................       res = PI_DIV_BY_TWO - res; 
....................  
....................    return(res); 
.................... } 
.................... #endif 
....................  
.................... //////////////////////////////////////////////////////////////////////////// 
.................... //   float asin(float x) 
.................... //////////////////////////////////////////////////////////////////////////// 
.................... // Description : returns the arcsine value of the value x. 
.................... // Date : N/A 
.................... // 
.................... float32 asin(float32 x) 
.................... { 
....................    float32 r; 
....................  
....................    r = ASIN_COS(x, 0); 
....................    return(r); 
.................... } 
.................... //Overloaded functions for asin() for PCD 
.................... // Overloaded function asin() for data type - Float48 
.................... #if defined(__PCD__) 
.................... float48 asin(float48 x) 
.................... { 
....................    float48 r; 
....................  
....................    r = ASIN_COS(x, 0); 
....................    return(r); 
.................... } 
....................  
.................... // Overloaded function asin() for data type - Float64 
.................... float64 asin(float64 x) 
.................... { 
....................    float64 r; 
....................  
....................    r = ASIN_COS(x, 0); 
....................    return(r); 
.................... } 
.................... #endif 
....................  
.................... //////////////////////////////////////////////////////////////////////////// 
.................... //   float acos(float x) 
.................... //////////////////////////////////////////////////////////////////////////// 
.................... // Description : returns the arccosine value of the value x. 
.................... // Date : N/A 
.................... // 
.................... float32 acos(float32 x) 
.................... { 
....................    float32 r; 
....................  
....................    r = ASIN_COS(x, 1); 
....................    return(r); 
.................... } 
.................... //Overloaded functions for acos() for PCD 
.................... // Overloaded function acos() for data type - Float48 
.................... #if defined(__PCD__) 
.................... float48 acos(float48 x) 
.................... { 
....................    float48 r; 
....................  
....................    r = ASIN_COS(x, 1); 
....................    return(r); 
.................... } 
....................  
.................... // Overloaded function acos() for data type - Float64 
.................... float64 acos(float64 x) 
.................... { 
....................    float64 r; 
....................  
....................    r = ASIN_COS(x, 1); 
....................    return(r); 
.................... } 
.................... #endif 
....................  
.................... float32 const pat[4] = {0.17630401, 5.6710795, 22.376096, 19.818457}; 
.................... float32 const qat[4] = {1.0000000,  11.368190, 28.982246, 19.818457}; 
....................  
.................... //////////////////////////////////////////////////////////////////////////// 
.................... //   float atan(float x) 
.................... //////////////////////////////////////////////////////////////////////////// 
.................... // Description : returns the arctangent value of the value x. 
.................... // Date : N/A 
.................... // 
.................... float32 atan(float32 x) 
.................... { 
....................    float32 y, res, r; 
....................    int1 s, flag; 
....................  
....................    s = 0; 
....................    flag = 0; 
....................    y = x; 
....................  
....................    if (x < 0) 
....................    { 
....................       s = 1; 
....................       y = -y; 
....................    } 
....................  
....................    if (y > 1.0) 
....................    { 
....................       y = 1.0/y; 
....................       flag = 1; 
....................    } 
....................  
....................    res = pat[0]*y*y + pat[1]; 
....................    res = res*y*y + pat[2]; 
....................    res = res*y*y + pat[3]; 
....................  
....................    r = qat[0]*y*y + qat[1]; 
....................    r = r*y*y + qat[2]; 
....................    r = r*y*y + qat[3]; 
....................  
....................    res = y*res/r; 
....................  
....................  
....................    if (flag)                              // for |x| > 1 
....................       res = PI_DIV_BY_TWO - res; 
....................    if (s) 
....................       res = -res; 
....................  
....................    return(res); 
.................... } 
.................... //Overloaded functions for atan() for PCD 
.................... // Overloaded function atan() for data type - Float48 
.................... #if defined(__PCD__) 
.................... float48 atan(float48 x) 
.................... { 
....................    float48 y, res, r; 
....................    int1 s, flag; 
....................  
....................    s = 0; 
....................    flag = 0; 
....................    y = x; 
....................  
....................    if (x < 0) 
....................    { 
....................       s = 1; 
....................       y = -y; 
....................    } 
....................  
....................    if (y > 1.0) 
....................    { 
....................       y = 1.0/y; 
....................       flag = 1; 
....................    } 
....................  
....................    res = pat[0]*y*y + pat[1]; 
....................    res = res*y*y + pat[2]; 
....................    res = res*y*y + pat[3]; 
....................  
....................    r = qat[0]*y*y + qat[1]; 
....................    r = r*y*y + qat[2]; 
....................    r = r*y*y + qat[3]; 
....................  
....................    res = y*res/r; 
....................  
....................  
....................    if (flag)                              // for |x| > 1 
....................       res = PI_DIV_BY_TWO - res; 
....................    if (s) 
....................       res = -res; 
....................  
....................    return(res); 
.................... } 
....................  
.................... // Overloaded function atan() for data type - Float64 
.................... float64 atan(float64 x) 
.................... { 
....................    float64 y, res, r; 
....................    int1 s, flag; 
....................  
....................    s = 0; 
....................    flag = 0; 
....................    y = x; 
....................  
....................    if (x < 0) 
....................    { 
....................       s = 1; 
....................       y = -y; 
....................    } 
....................  
....................    if (y > 1.0) 
....................    { 
....................       y = 1.0/y; 
....................       flag = 1; 
....................    } 
....................  
....................    res = pat[0]*y*y + pat[1]; 
....................    res = res*y*y + pat[2]; 
....................    res = res*y*y + pat[3]; 
....................  
....................    r = qat[0]*y*y + qat[1]; 
....................    r = r*y*y + qat[2]; 
....................    r = r*y*y + qat[3]; 
....................  
....................    res = y*res/r; 
....................  
....................  
....................    if (flag)                              // for |x| > 1 
....................       res = PI_DIV_BY_TWO - res; 
....................    if (s) 
....................       res = -res; 
....................  
....................    return(res); 
.................... } 
.................... #endif 
....................  
.................... ///////////////////////////////////////////////////////////////////////////// 
.................... //   float atan2(float y, float x) 
.................... ///////////////////////////////////////////////////////////////////////////// 
.................... // Description :computes the principal value of arc tangent of y/x, using the 
.................... // signs of both the arguments to determine the quadrant of the return value 
.................... // Returns : returns the arc tangent of y/x. 
.................... // Date : N/A 
.................... // 
....................  
.................... float32 atan2(float32 y,float32 x) 
.................... { 
....................    float32 z; 
....................    int1 sign; 
....................    unsigned int8 quad; 
....................    sign=0; 
....................    quad=0; //quadrant 
....................    quad=((y<=0.0)?((x<=0.0)?3:4):((x<0.0)?2:1)); 
....................    if(y<0.0) 
....................    { 
....................       sign=1; 
....................       y=-y; 
....................    } 
....................    if(x<0.0) 
....................    { 
....................       x=-x; 
....................    } 
....................    if (x==0.0) 
....................    { 
....................       if(y==0.0) 
....................       { 
....................       #ifdef _ERRNO 
....................       { 
....................          errno=EDOM; 
....................       } 
....................       #endif 
....................       } 
....................       else 
....................       { 
....................          if(sign) 
....................          { 
....................          return (-(PI_DIV_BY_TWO)); 
....................          } 
....................          else 
....................          { 
....................          return (PI_DIV_BY_TWO); 
....................          } 
....................       } 
....................    } 
....................    else 
....................    { 
....................       z=y/x; 
....................       switch(quad) 
....................       { 
....................          case 1: 
....................          { 
....................             return atan(z); 
....................             break; 
....................          } 
....................          case 2: 
....................          { 
.................... //            return (atan(z)+PI_DIV_BY_TWO);  //2L3122 
....................             return (PI-atan(z)); 
....................             break; 
....................          } 
....................          case 3: 
....................          { 
....................             return (atan(z)-PI); 
....................             break; 
....................          } 
....................          case 4: 
....................          { 
....................             return (-atan(z)); 
....................             break; 
....................          } 
....................       } 
....................    } 
.................... } 
....................  
.................... //Overloaded functions for atan2() for PCD 
.................... // Overloaded function atan2() for data type - Float48 
.................... #if defined(__PCD__) 
.................... float48 atan2(float48 y,float48 x) 
.................... { 
....................    float48 z; 
....................    int1 sign; 
....................    unsigned int8 quad; 
....................    sign=0; 
....................    quad=0; //quadrant 
....................    quad=((y<=0.0)?((x<=0.0)?3:4):((x<0.0)?2:1)); 
....................    if(y<0.0) 
....................    { 
....................       sign=1; 
....................       y=-y; 
....................    } 
....................    if(x<0.0) 
....................    { 
....................       x=-x; 
....................    } 
....................    if (x==0.0) 
....................    { 
....................       if(y==0.0) 
....................       { 
....................       #ifdef _ERRNO 
....................       { 
....................          errno=EDOM; 
....................       } 
....................       #endif 
....................       } 
....................       else 
....................       { 
....................          if(sign) 
....................          { 
....................          return (-(PI_DIV_BY_TWO)); 
....................          } 
....................          else 
....................          { 
....................          return (PI_DIV_BY_TWO); 
....................          } 
....................       } 
....................    } 
....................    else 
....................    { 
....................       z=y/x; 
....................       switch(quad) 
....................       { 
....................          case 1: 
....................          { 
....................             return atan(z); 
....................             break; 
....................          } 
....................          case 2: 
....................          { 
.................... //            return (atan(z)+PI_DIV_BY_TWO);  //2L3122 
....................             return (PI-atan(z)); 
....................             break; 
....................          } 
....................          case 3: 
....................          { 
....................             return (atan(z)-PI); 
....................             break; 
....................          } 
....................          case 4: 
....................          { 
....................             return (-atan(z)); 
....................             break; 
....................          } 
....................       } 
....................    } 
.................... } 
....................  
.................... // Overloaded function atan2() for data type - Float64 
.................... float64 atan2(float64 y,float64 x) 
.................... { 
....................    float64 z; 
....................    int1 sign; 
....................    unsigned int8 quad; 
....................    sign=0; 
....................    quad=0; //quadrant 
....................    quad=((y<=0.0)?((x<=0.0)?3:4):((x<0.0)?2:1)); 
....................    if(y<0.0) 
....................    { 
....................       sign=1; 
....................       y=-y; 
....................    } 
....................    if(x<0.0) 
....................    { 
....................       x=-x; 
....................    } 
....................    if (x==0.0) 
....................    { 
....................       if(y==0.0) 
....................       { 
....................       #ifdef _ERRNO 
....................       { 
....................          errno=EDOM; 
....................       } 
....................       #endif 
....................       } 
....................       else 
....................       { 
....................          if(sign) 
....................          { 
....................          return (-(PI_DIV_BY_TWO)); 
....................          } 
....................          else 
....................          { 
....................          return (PI_DIV_BY_TWO); 
....................          } 
....................       } 
....................    } 
....................    else 
....................    { 
....................       z=y/x; 
....................       switch(quad) 
....................       { 
....................          case 1: 
....................          { 
....................             return atan(z); 
....................             break; 
....................          } 
....................          case 2: 
....................          { 
.................... //            return (atan(z)+PI_DIV_BY_TWO);  //2L3122 
....................             return (PI-atan(z)); 
....................             break; 
....................          } 
....................          case 3: 
....................          { 
....................             return (atan(z)-PI); 
....................             break; 
....................          } 
....................          case 4: 
....................          { 
....................             return (-atan(z)); 
....................             break; 
....................          } 
....................       } 
....................    } 
.................... } 
.................... #endif 
....................  
.................... //////////////////// Hyperbolic functions //////////////////// 
....................  
.................... //////////////////////////////////////////////////////////////////////////// 
.................... //   float cosh(float x) 
.................... //////////////////////////////////////////////////////////////////////////// 
.................... // Description : Computes the hyperbolic cosine value of x 
.................... // Returns : returns the hyperbolic cosine value of x 
.................... // Date : N/A 
.................... // 
....................  
.................... float32 cosh(float32 x) 
.................... { 
....................    return ((exp(x)+exp(-x))/2); 
.................... } 
.................... //Overloaded functions for cosh() for PCD 
.................... // Overloaded function cosh() for data type - Float48 
.................... #if defined(__PCD__) 
.................... float48 cosh(float48 x) 
.................... { 
....................    return ((exp(x)+exp(-x))/2); 
.................... } 
....................  
.................... // Overloaded function cosh() for data type - Float64 
.................... float64 cosh(float64 x) 
.................... { 
....................    return ((exp(x)+exp(-x))/2); 
.................... } 
.................... #endif 
....................  
.................... //////////////////////////////////////////////////////////////////////////// 
.................... //   float sinh(float x) 
.................... //////////////////////////////////////////////////////////////////////////// 
.................... // Description : Computes the hyperbolic sine value of x 
.................... // Returns : returns the hyperbolic sine value of x 
.................... // Date : N/A 
.................... // 
....................  
.................... float32 sinh(float32 x) 
.................... { 
....................  
....................    return ((exp(x) - exp(-x))/2); 
.................... } 
.................... //Overloaded functions for sinh() for PCD 
.................... // Overloaded function sinh() for data type - Float48 
.................... #if defined(__PCD__) 
.................... float48 sinh(float48 x) 
.................... { 
....................  
....................    return ((exp(x) - exp(-x))/2); 
.................... } 
....................  
.................... // Overloaded function sinh() for data type - Float48 
.................... float64 sinh(float64 x) 
.................... { 
....................  
....................    return ((exp(x) - exp(-x))/2); 
.................... } 
.................... #endif 
....................  
.................... //////////////////////////////////////////////////////////////////////////// 
.................... //   float tanh(float x) 
.................... //////////////////////////////////////////////////////////////////////////// 
.................... // Description : Computes the hyperbolic tangent value of x 
.................... // Returns : returns the hyperbolic tangent value of x 
.................... // Date : N/A 
.................... // 
....................  
.................... float32 tanh(float32 x) 
.................... { 
....................    return(sinh(x)/cosh(x)); 
.................... } 
.................... //Overloaded functions for tanh() for PCD 
.................... // Overloaded function tanh() for data type - Float48 
.................... #if defined(__PCD__) 
.................... float48 tanh(float48 x) 
.................... { 
....................    return(sinh(x)/cosh(x)); 
.................... } 
....................  
.................... // Overloaded function tanh() for data type - Float64 
.................... float64 tanh(float64 x) 
.................... { 
....................    return(sinh(x)/cosh(x)); 
.................... } 
.................... #endif 
....................  
.................... //////////////////////////////////////////////////////////////////////////// 
.................... //   float frexp(float x, signed int *exp) 
.................... //////////////////////////////////////////////////////////////////////////// 
.................... // Description : breaks a floating point number into a normalized fraction and an integral 
.................... // power of 2. It stores the integer in the signed int object pointed to by exp. 
.................... // Returns : returns the value x, such that x is a double with magnitude in the interval 
.................... // [1/2,1) or zero, and value equals x times 2 raised to the power *exp.If value is zero, 
.................... // both parts of the result are zero. 
.................... // Date : N/A 
.................... // 
....................  
.................... #define LOG2 .30102999566398119521 
.................... float32 frexp(float32 x, signed int8 *exp) 
.................... { 
....................    float32 res; 
....................    int1 sign = 0; 
....................    if(x == 0.0) 
....................    { 
....................       *exp=0; 
....................       return (0.0); 
....................    } 
....................    if(x < 0.0) 
....................    { 
....................      x=-x; 
....................      sign=1; 
....................    } 
....................    if (x > 1.0) 
....................    { 
....................       *exp=(ceil(log10(x)/LOG2)); 
....................       res=x/(pow(2, *exp)); 
....................       if (res == 1) 
....................       { 
....................          *exp=*exp+1; 
....................           res=.5; 
....................       } 
....................    } 
....................    else 
....................    { 
....................       if(x < 0.5) 
....................       { 
....................          *exp=-1; 
....................          res=x*2; 
....................       } 
....................       else 
....................       { 
....................          *exp=0; 
....................           res=x; 
....................       } 
....................    } 
....................    if(sign) 
....................    { 
....................       res=-res; 
....................    } 
....................    return res; 
.................... } 
....................  
.................... //Overloaded functions for frexp() for PCD 
.................... // Overloaded function frexp() for data type - Float48 
.................... #if defined(__PCD__) 
.................... float48 frexp(float48 x, signed int8 *exp) 
.................... { 
....................    float48 res; 
....................    int1 sign = 0; 
....................    if(x == 0.0) 
....................    { 
....................       *exp=0; 
....................       return (0.0); 
....................    } 
....................    if(x < 0.0) 
....................    { 
....................      x=-x; 
....................      sign=1; 
....................    } 
....................    if (x > 1.0) 
....................    { 
....................       *exp=(ceil(log10(x)/LOG2)); 
....................       res=x/(pow(2, *exp)); 
....................       if (res == 1) 
....................       { 
....................          *exp=*exp+1; 
....................           res=.5; 
....................       } 
....................    } 
....................    else 
....................    { 
....................       if(x < 0.5) 
....................       { 
....................          *exp=-1; 
....................          res=x*2; 
....................       } 
....................       else 
....................       { 
....................          *exp=0; 
....................           res=x; 
....................       } 
....................    } 
....................    if(sign) 
....................    { 
....................       res=-res; 
....................    } 
....................    return res; 
.................... } 
....................  
.................... // Overloaded function frexp() for data type - Float64 
.................... float64 frexp(float64 x, signed int8 *exp) 
.................... { 
....................    float64 res; 
....................    int1 sign = 0; 
....................    if(x == 0.0) 
....................    { 
....................       *exp=0; 
....................       return (0.0); 
....................    } 
....................    if(x < 0.0) 
....................    { 
....................      x=-x; 
....................      sign=1; 
....................    } 
....................    if (x > 1.0) 
....................    { 
....................       *exp=(ceil(log10(x)/LOG2)); 
....................       res=x/(pow(2, *exp)); 
....................       if (res == 1) 
....................       { 
....................          *exp=*exp+1; 
....................           res=.5; 
....................       } 
....................    } 
....................    else 
....................    { 
....................       if(x < 0.5) 
....................       { 
....................          *exp=-1; 
....................          res=x*2; 
....................       } 
....................       else 
....................       { 
....................          *exp=0; 
....................           res=x; 
....................       } 
....................    } 
....................    if(sign) 
....................    { 
....................       res=-res; 
....................    } 
....................    return res; 
.................... } 
.................... #endif 
....................  
.................... ////////////////////////////////////////////////////////////////////////////// 
.................... //   float ldexp(float x, signed int *exp) 
.................... ////////////////////////////////////////////////////////////////////////////// 
.................... // Description : multiplies a floating point number by an integral power of 2. 
.................... // Returns : returns the value of x times 2 raised to the power exp. 
.................... // Date : N/A 
.................... // 
....................  
.................... float32 ldexp(float32 value, signed int8 exp) 
.................... { 
....................    return (value * pow(2,exp)); 
.................... } 
.................... //Overloaded functions for ldexp() for PCD 
.................... // Overloaded function ldexp() for data type - Float48 
....................  
.................... #if defined(__PCD__) 
.................... float48 ldexp(float48 value, signed int8 exp) 
.................... { 
....................    return (value * pow(2,exp)); 
.................... } 
.................... // Overloaded function ldexp() for data type - Float64 
.................... float64 ldexp(float64 value, signed int8 exp) 
.................... { 
....................    return (value * pow(2,exp)); 
.................... } 
.................... #endif 
....................  
.................... #endif 
....................  
.................... #include "HDM64GS12.c" 
.................... ///////////////////////////////////////////////////////////////////////// 
.................... ////                           HDM64GS12.c                           //// 
.................... ////                                                                 //// 
.................... //// This file contains drivers for using a Hantronix HDM64GS12 with //// 
.................... //// a KS0108 display controller. The HDM64GS12 is 128 by 64 pixels. //// 
.................... //// The driver treats the upper left pixel as (0,0).                //// 
.................... ////                                                                 //// 
.................... //// Use #define FAST_GLCD if the target chip has at least 1k of RAM //// 
.................... //// to decrease the time it takes to update the display.            //// 
.................... //// glcd_update() must then be called to update the display after   //// 
.................... //// changing the pixel information.                                 //// 
.................... //// See ex_glcd.c for suggested usage.                              //// 
.................... //// See KS0108.c for controlling a single 64 by 64 display          //// 
.................... ///////////////////////////////////////////////////////////////////////// 
.................... ////                                                                 //// 
.................... //// LCD Pin connections:                                            //// 
.................... //// (These can be changed as needed in the following defines).      //// 
.................... ////  * 1: VSS is connected to GND                                   //// 
.................... ////  * 2: VDD is connected to +5V                                   //// 
.................... ////  * 3: V0  - LCD operating voltage (Constrast adjustment)        //// 
.................... ////  * 4: D/I - Data or Instruction is connected to B2              //// 
.................... ////  * 5: R/W - Read or Write is connected to B4                    //// 
.................... ////  * 6: Enable is connected to B5                                 //// 
.................... ////  *7-14: Data Bus 0 to 7 is connected to port d                  //// 
.................... ////  *15: Chip Select 1 is connected to B0                          //// 
.................... ////  *16: Chip Select 2 is connected to B1                          //// 
.................... ////  *17: Reset is connected to C0                                  //// 
.................... ////  *18: Negative voltage is also connected to the 20k Ohm POT     //// 
.................... ////  *19: Positive voltage for LED backlight is connected to +5V    //// 
.................... ////  *20: Negavtive voltage for LED backlight is connected to GND   //// 
.................... ////                                                                 //// 
.................... ///////////////////////////////////////////////////////////////////////// 
.................... ////                                                                 //// 
.................... ////  glcd_init(mode)                                                //// 
.................... ////     * Must be called before any other function.                 //// 
.................... ////       - mode can be ON or OFF to turn the LCD on or off         //// 
.................... ////                                                                 //// 
.................... ////  glcd_pixel(x,y,color)                                          //// 
.................... ////     * Sets the pixel to the given color.                        //// 
.................... ////       - color can be ON or OFF                                  //// 
.................... ////                                                                 //// 
.................... ////  glcd_fillScreen(color)                                         //// 
.................... ////     * Fills the entire LCD with the given color.                //// 
.................... ////       - color can be ON or OFF                                  //// 
.................... ////                                                                 //// 
.................... ////  glcd_update()                                                  //// 
.................... ////     * Write the display data stored in RAM to the LCD           //// 
.................... ////     * Only available if FAST_GLCD is defined                    //// 
.................... ////                                                                 //// 
.................... ///////////////////////////////////////////////////////////////////////// 
.................... ////        (C) Copyright 1996, 2004 Custom Computer Services        //// 
.................... //// This source code may only be used by licensed users of the CCS  //// 
.................... //// C compiler.  This source code may only be distributed to other  //// 
.................... //// licensed users of the CCS C compiler.  No other use,            //// 
.................... //// reproduction or distribution is permitted without written       //// 
.................... //// permission.  Derivative programs created using this software    //// 
.................... //// in object code form are not restricted in any way.              //// 
.................... ///////////////////////////////////////////////////////////////////////// 
....................  
....................  
....................  
.................... #ifndef HDM64GS12 
.................... #define HDM64GS12 
....................  
.................... #ifndef FAST_GLCD 
.................... #define FAST_GLCD 
....................  
.................... #ifndef GLCD_WIDTH 
.................... #define GLCD_WIDTH   128 
.................... #endif 
....................  
.................... #ifndef GLCD_CS1 
.................... #define GLCD_CS1     PIN_B2   // Chip Selection 1 
.................... #endif 
....................  
.................... #ifndef GLCD_CS2 
.................... #define GLCD_CS2     PIN_B3   // Chip Selection 2 
.................... #endif 
....................  
.................... #ifndef GLCD_DI 
.................... #define GLCD_DI      PIN_B5   // Data or Instruction input 
.................... #endif 
....................  
.................... #ifndef GLCD_RW 
.................... #define GLCD_RW      PIN_B6   // Read/Write 
.................... #endif 
....................  
.................... #ifndef GLCD_E 
.................... #define GLCD_E       PIN_B7   // Enable 
.................... #endif 
....................  
.................... #ifndef GLCD_RST 
.................... #define GLCD_RST     PIN_B4   // Reset 
.................... #endif 
....................  
.................... #define GLCD_LEFT    0 
.................... #define GLCD_RIGHT   1 
....................  
.................... #ifndef ON 
.................... #define ON           1 
.................... #endif 
....................  
.................... #ifndef OFF 
.................... #define OFF          0 
.................... #endif 
....................  
.................... ///////////////////////////////////////////////////////////////////////// 
.................... // Function Prototypes 
.................... ///////////////////////////////////////////////////////////////////////// 
.................... void glcd_init(int1 mode); 
.................... void glcd_pixel(int8 x, int8 y, int1 color); 
.................... void glcd_fillScreen(int1 color); 
.................... void glcd_writeByte(int1 side, BYTE data); 
.................... BYTE glcd_readByte(int1 side); 
.................... void glcd_update(); 
.................... ///////////////////////////////////////////////////////////////////////// 
....................  
.................... #ifdef FAST_GLCD 
.................... struct 
.................... { 
....................    int8 left[512]; 
....................    int8 right[512]; 
.................... } displayData; 
.................... #endif 
....................  
....................  
.................... // Purpose:       Initialize the LCD. 
.................... //                Call before using any other LCD function. 
.................... // Inputs:        OFF - Turns the LCD off 
.................... //                ON  - Turns the LCD on 
.................... void glcd_init(int1 mode) 
.................... { 
....................    // Initialze some pins 
....................    output_high(GLCD_RST); 
*
03238:  BCF    F93.4
0323A:  BSF    F8A.4
....................    output_low(GLCD_E); 
0323C:  BCF    F93.7
0323E:  BCF    F8A.7
....................    output_low(GLCD_CS1); 
03240:  BCF    F93.2
03242:  BCF    F8A.2
....................    output_low(GLCD_CS2); 
03244:  BCF    F93.3
03246:  BCF    F8A.3
....................  
....................    output_low(GLCD_DI);                 // Set for instruction 
03248:  BCF    F93.5
0324A:  BCF    F8A.5
....................    glcd_writeByte(GLCD_LEFT,  0xC0);    // Specify first RAM line at the top 
0324C:  MOVLB  6
0324E:  CLRF   x4F
03250:  MOVLW  C0
03252:  MOVWF  x50
03254:  MOVLB  0
03256:  CALL   180E
....................    glcd_writeByte(GLCD_RIGHT, 0xC0);    //   of the screen 
0325A:  MOVLW  01
0325C:  MOVLB  6
0325E:  MOVWF  x4F
03260:  MOVLW  C0
03262:  MOVWF  x50
03264:  MOVLB  0
03266:  CALL   180E
....................    glcd_writeByte(GLCD_LEFT,  0x40);    // Set the column address to 0 
0326A:  MOVLB  6
0326C:  CLRF   x4F
0326E:  MOVLW  40
03270:  MOVWF  x50
03272:  MOVLB  0
03274:  CALL   180E
....................    glcd_writeByte(GLCD_RIGHT, 0x40); 
03278:  MOVLW  01
0327A:  MOVLB  6
0327C:  MOVWF  x4F
0327E:  MOVLW  40
03280:  MOVWF  x50
03282:  MOVLB  0
03284:  CALL   180E
....................    glcd_writeByte(GLCD_LEFT,  0xB8);    // Set the page address to 0 
03288:  MOVLB  6
0328A:  CLRF   x4F
0328C:  MOVLW  B8
0328E:  MOVWF  x50
03290:  MOVLB  0
03292:  CALL   180E
....................    glcd_writeByte(GLCD_RIGHT, 0xB8); 
03296:  MOVLW  01
03298:  MOVLB  6
0329A:  MOVWF  x4F
0329C:  MOVLW  B8
0329E:  MOVWF  x50
032A0:  MOVLB  0
032A2:  CALL   180E
....................  
....................    if(mode == ON) 
032A6:  MOVLB  6
032A8:  DECFSZ x47,W
032AA:  BRA    32CC
....................    { 
....................       glcd_writeByte(GLCD_LEFT,  0x3F); // Turn the display on 
032AC:  CLRF   x4F
032AE:  MOVLW  3F
032B0:  MOVWF  x50
032B2:  MOVLB  0
032B4:  CALL   180E
....................       glcd_writeByte(GLCD_RIGHT, 0x3F); 
032B8:  MOVLW  01
032BA:  MOVLB  6
032BC:  MOVWF  x4F
032BE:  MOVLW  3F
032C0:  MOVWF  x50
032C2:  MOVLB  0
032C4:  CALL   180E
....................    } 
....................    else 
032C8:  BRA    32E8
032CA:  MOVLB  6
....................    { 
....................       glcd_writeByte(GLCD_LEFT,  0x3E); // Turn the display off 
032CC:  CLRF   x4F
032CE:  MOVLW  3E
032D0:  MOVWF  x50
032D2:  MOVLB  0
032D4:  CALL   180E
....................       glcd_writeByte(GLCD_RIGHT, 0x3E); 
032D8:  MOVLW  01
032DA:  MOVLB  6
032DC:  MOVWF  x4F
032DE:  MOVLW  3E
032E0:  MOVWF  x50
032E2:  MOVLB  0
032E4:  CALL   180E
....................    } 
....................  
....................    glcd_fillScreen(OFF);                // Clear the display 
032E8:  MOVLB  6
032EA:  CLRF   x48
032EC:  MOVLB  0
032EE:  RCALL  31DE
....................  
....................    #ifdef FAST_GLCD 
....................    glcd_update(); 
032F0:  CALL   1844
....................    #endif 
.................... } 
032F4:  RETLW  00
....................  
....................  
.................... // Purpose:    Update the LCD with data from the display arrays 
.................... #ifdef FAST_GLCD 
.................... void glcd_update() 
.................... { 
....................    int8 i, j; 
....................    int8 *p1, *p2; 
....................  
....................    p1 = displayData.left; 
*
01844:  MOVLB  6
01846:  CLRF   x4B
01848:  MOVLW  17
0184A:  MOVWF  x4A
....................    p2 = displayData.right; 
0184C:  MOVLW  02
0184E:  MOVWF  x4D
01850:  MOVLW  17
01852:  MOVWF  x4C
....................  
....................    // Loop through the vertical pages 
....................    for(i = 0; i < 8; ++i) 
01854:  CLRF   x48
01856:  MOVF   x48,W
01858:  SUBLW  07
0185A:  BNC   18F8
....................    { 
....................       output_low(GLCD_DI);                      // Set for instruction 
0185C:  BCF    F93.5
0185E:  BCF    F8A.5
....................       glcd_writeByte(GLCD_LEFT, 0x40);          // Set horizontal address to 0 
01860:  CLRF   x4F
01862:  MOVLW  40
01864:  MOVWF  x50
01866:  MOVLB  0
01868:  RCALL  180E
....................       glcd_writeByte(GLCD_RIGHT, 0x40); 
0186A:  MOVLW  01
0186C:  MOVLB  6
0186E:  MOVWF  x4F
01870:  MOVLW  40
01872:  MOVWF  x50
01874:  MOVLB  0
01876:  RCALL  180E
....................       glcd_writeByte(GLCD_LEFT, i | 0xB8);      // Set page address 
01878:  MOVLB  6
0187A:  MOVF   x48,W
0187C:  IORLW  B8
0187E:  MOVWF  x4E
01880:  CLRF   x4F
01882:  MOVWF  x50
01884:  MOVLB  0
01886:  RCALL  180E
....................       glcd_writeByte(GLCD_RIGHT, i | 0xB8); 
01888:  MOVLB  6
0188A:  MOVF   x48,W
0188C:  IORLW  B8
0188E:  MOVWF  x4E
01890:  MOVLW  01
01892:  MOVWF  x4F
01894:  MOVFF  64E,650
01898:  MOVLB  0
0189A:  RCALL  180E
....................       output_high(GLCD_DI);                     // Set for data 
0189C:  BCF    F93.5
0189E:  BSF    F8A.5
....................  
....................       // Loop through the horizontal sections 
....................       for(j = 0; j < 64; ++j) 
018A0:  MOVLB  6
018A2:  CLRF   x49
018A4:  MOVF   x49,W
018A6:  SUBLW  3F
018A8:  BNC   18F4
....................       { 
....................          glcd_writeByte(GLCD_LEFT, *p1++);      // Turn pixels on or off 
018AA:  MOVFF  64B,03
018AE:  MOVF   x4A,W
018B0:  INCF   x4A,F
018B2:  BTFSC  FD8.2
018B4:  INCF   x4B,F
018B6:  MOVWF  FE9
018B8:  MOVFF  03,FEA
018BC:  MOVFF  FEF,64E
018C0:  CLRF   x4F
018C2:  MOVFF  64E,650
018C6:  MOVLB  0
018C8:  RCALL  180E
....................          glcd_writeByte(GLCD_RIGHT, *p2++);     // Turn pixels on or off 
018CA:  MOVLB  6
018CC:  MOVFF  64D,03
018D0:  MOVF   x4C,W
018D2:  INCF   x4C,F
018D4:  BTFSC  FD8.2
018D6:  INCF   x4D,F
018D8:  MOVWF  FE9
018DA:  MOVFF  03,FEA
018DE:  MOVFF  FEF,64E
018E2:  MOVLW  01
018E4:  MOVWF  x4F
018E6:  MOVFF  64E,650
018EA:  MOVLB  0
018EC:  RCALL  180E
....................       } 
018EE:  MOVLB  6
018F0:  INCF   x49,F
018F2:  BRA    18A4
....................    } 
018F4:  INCF   x48,F
018F6:  BRA    1856
.................... } 
018F8:  MOVLB  0
018FA:  RETLW  00
.................... #endif 
....................  
....................  
.................... // Purpose:    Turn a pixel on a graphic LCD on or off 
.................... // Inputs:     1) x - the x coordinate of the pixel 
.................... //             2) y - the y coordinate of the pixel 
.................... //             3) color - ON or OFF 
.................... void glcd_pixel(int8 x, int8 y, int1 color) 
.................... #ifdef FAST_GLCD 
.................... { 
....................    int8* p; 
....................    int16 temp; 
....................    temp =  y/8; 
*
03420:  MOVLB  6
03422:  CLRF   x7F
03424:  RRCF   x7A,W
03426:  MOVWF  x7E
03428:  RRCF   x7E,F
0342A:  RRCF   x7E,F
0342C:  MOVLW  1F
0342E:  ANDWF  x7E,F
....................    temp *= 64; 
03430:  RLCF   x7E,F
03432:  RLCF   x7F,F
03434:  RLCF   x7E,F
03436:  RLCF   x7F,F
03438:  RLCF   x7E,F
0343A:  RLCF   x7F,F
0343C:  RLCF   x7E,F
0343E:  RLCF   x7F,F
03440:  RLCF   x7E,F
03442:  RLCF   x7F,F
03444:  RLCF   x7E,F
03446:  RLCF   x7F,F
03448:  MOVLW  C0
0344A:  ANDWF  x7E,F
....................    temp += x; 
0344C:  MOVF   x79,W
0344E:  ADDWF  x7E,F
03450:  MOVLW  00
03452:  ADDWFC x7F,F
....................  
....................    if(x > 63) 
03454:  MOVF   x79,W
03456:  SUBLW  3F
03458:  BC    3474
....................    { 
....................       p = displayData.right + temp - 64; 
0345A:  MOVLW  17
0345C:  ADDWF  x7E,W
0345E:  MOVWF  x80
03460:  MOVLW  02
03462:  ADDWFC x7F,W
03464:  MOVWF  x81
03466:  MOVLW  40
03468:  SUBWF  x80,W
0346A:  MOVWF  x7C
0346C:  MOVLW  00
0346E:  SUBWFB x81,W
03470:  MOVWF  x7D
....................    } 
....................    else 
03472:  BRA    3480
....................    { 
....................       p = displayData.left + temp; 
03474:  MOVLW  17
03476:  ADDWF  x7E,W
03478:  MOVWF  x7C
0347A:  MOVLW  00
0347C:  ADDWFC x7F,W
0347E:  MOVWF  x7D
....................    } 
....................  
....................    if(color) 
03480:  MOVF   x7B,F
03482:  BZ    34AE
....................    { 
....................       bit_set(*p, y%8); 
03484:  MOVFF  67D,03
03488:  MOVFF  67C,FE9
0348C:  MOVFF  67D,FEA
03490:  MOVF   x7A,W
03492:  ANDLW  07
03494:  MOVWF  x80
03496:  MOVLW  01
03498:  MOVWF  00
0349A:  MOVF   x80,W
0349C:  MOVWF  01
0349E:  BZ    34A8
034A0:  BCF    FD8.0
034A2:  RLCF   00,F
034A4:  DECFSZ 01,F
034A6:  BRA    34A0
034A8:  MOVF   00,W
034AA:  IORWF  FEF,F
....................    } 
....................    else 
034AC:  BRA    34D8
....................    { 
....................       bit_clear(*p, y%8); 
034AE:  MOVFF  67D,03
034B2:  MOVFF  67C,FE9
034B6:  MOVFF  67D,FEA
034BA:  MOVF   x7A,W
034BC:  ANDLW  07
034BE:  MOVWF  x80
034C0:  MOVLW  01
034C2:  MOVWF  00
034C4:  MOVF   x80,W
034C6:  MOVWF  01
034C8:  BZ    34D2
034CA:  BCF    FD8.0
034CC:  RLCF   00,F
034CE:  DECFSZ 01,F
034D0:  BRA    34CA
034D2:  MOVF   00,W
034D4:  XORLW  FF
034D6:  ANDWF  FEF,F
....................    } 
.................... } 
034D8:  MOVLB  0
034DA:  RETLW  00
.................... #else 
.................... { 
....................    BYTE data; 
....................    int1 side = GLCD_LEFT;  // Stores which chip to use on the LCD 
....................  
....................    if(x > 63)              // Check for first or second display area 
....................    { 
....................       x -= 64; 
....................       side = GLCD_RIGHT; 
....................    } 
....................  
....................    output_low(GLCD_DI);                         // Set for instruction 
....................    bit_clear(x,7);                              // Clear the MSB. Part of an instruction code 
....................    bit_set(x,6);                                // Set bit 6. Also part of an instruction code 
....................    glcd_writeByte(side, x);                     // Set the horizontal address 
....................    glcd_writeByte(side, (y/8 & 0xBF) | 0xB8);   // Set the vertical page address 
....................    output_high(GLCD_DI);                        // Set for data 
....................    glcd_readByte(side);                         // Need two reads to get data 
....................    data = glcd_readByte(side);                  //  at new address 
....................  
....................    if(color == ON) 
....................       bit_set(data, y%8);        // Turn the pixel on 
....................    else                          // or 
....................       bit_clear(data, y%8);      // turn the pixel off 
....................  
....................    output_low(GLCD_DI);          // Set for instruction 
....................    glcd_writeByte(side, x);      // Set the horizontal address 
....................    output_high(GLCD_DI);         // Set for data 
....................    glcd_writeByte(side, data);   // Write the pixel data 
.................... } 
.................... #endif 
....................  
....................  
.................... // Purpose:    Fill the LCD screen with the passed in color 
.................... // Inputs:     ON  - turn all the pixels on 
.................... //             OFF - turn all the pixels off 
.................... void glcd_fillScreen(int1 color) 
.................... #ifdef FAST_GLCD 
.................... { 
....................    int8  data; 
....................    int8  *p1, *p2; 
....................    int16 i; 
....................  
....................    p1 = displayData.left; 
*
031DE:  MOVLB  6
031E0:  CLRF   x4B
031E2:  MOVLW  17
031E4:  MOVWF  x4A
....................    p2 = displayData.right; 
031E6:  MOVLW  02
031E8:  MOVWF  x4D
031EA:  MOVLW  17
031EC:  MOVWF  x4C
....................    data = 0xFF * color; 
031EE:  MOVF   x48,W
031F0:  MULLW  FF
031F2:  MOVFF  FF3,649
....................  
....................    for(i=0; i<512; ++i) 
031F6:  CLRF   x4F
031F8:  CLRF   x4E
031FA:  MOVF   x4F,W
031FC:  SUBLW  01
031FE:  BNC   3234
....................    { 
....................       *p1++ = data; 
03200:  MOVFF  64B,03
03204:  MOVF   x4A,W
03206:  INCF   x4A,F
03208:  BTFSC  FD8.2
0320A:  INCF   x4B,F
0320C:  MOVWF  FE9
0320E:  MOVFF  03,FEA
03212:  MOVFF  649,FEF
....................       *p2++ = data; 
03216:  MOVFF  64D,03
0321A:  MOVF   x4C,W
0321C:  INCF   x4C,F
0321E:  BTFSC  FD8.2
03220:  INCF   x4D,F
03222:  MOVWF  FE9
03224:  MOVFF  03,FEA
03228:  MOVFF  649,FEF
....................    } 
0322C:  INCF   x4E,F
0322E:  BTFSC  FD8.2
03230:  INCF   x4F,F
03232:  BRA    31FA
.................... } 
03234:  MOVLB  0
03236:  RETLW  00
.................... #else 
.................... { 
....................    int8 i, j; 
....................  
....................    // Loop through the vertical pages 
....................    for(i = 0; i < 8; ++i) 
....................    { 
....................       output_low(GLCD_DI);                      // Set for instruction 
....................       glcd_writeByte(GLCD_LEFT, 0b01000000);    // Set horizontal address to 0 
....................       glcd_writeByte(GLCD_RIGHT, 0b01000000); 
....................       glcd_writeByte(GLCD_LEFT, i | 0b10111000);// Set page address 
....................       glcd_writeByte(GLCD_RIGHT, i | 0b10111000); 
....................       output_high(GLCD_DI);                     // Set for data 
....................  
....................       // Loop through the horizontal sections 
....................       for(j = 0; j < 64; ++j) 
....................       { 
....................          glcd_writeByte(GLCD_LEFT, 0xFF*color);  // Turn pixels on or off 
....................          glcd_writeByte(GLCD_RIGHT, 0xFF*color); // Turn pixels on or off 
....................       } 
....................    } 
.................... } 
.................... #endif 
....................  
....................  
.................... // Purpose:    Write a byte of data to the specified chip 
.................... // Inputs:     1) chipSelect - which chip to write the data to 
.................... //             2) data - the byte of data to write 
.................... void glcd_writeByte(int1 side, BYTE data) 
.................... { 
....................    if(side)                   // Choose which side to write to 
*
0180E:  MOVLB  6
01810:  MOVF   x4F,F
01812:  BZ    181A
....................       output_high(GLCD_CS2); 
01814:  BCF    F93.3
01816:  BSF    F8A.3
....................    else 
01818:  BRA    181E
....................       output_high(GLCD_CS1); 
0181A:  BCF    F93.2
0181C:  BSF    F8A.2
....................  
....................    output_low(GLCD_RW);       // Set for writing 
0181E:  BCF    F93.6
01820:  BCF    F8A.6
....................    output_d(data);            // Put the data on the port 
01822:  CLRF   F95
01824:  MOVFF  650,F8C
....................    delay_cycles(1); 
01828:  NOP   
....................    output_high(GLCD_E);       // Pulse the enable pin 
0182A:  BCF    F93.7
0182C:  BSF    F8A.7
....................    delay_cycles(5); 
0182E:  BRA    1830
01830:  BRA    1832
01832:  NOP   
....................    output_low(GLCD_E); 
01834:  BCF    F93.7
01836:  BCF    F8A.7
....................  
....................    output_low(GLCD_CS1);      // Reset the chip select lines 
01838:  BCF    F93.2
0183A:  BCF    F8A.2
....................    output_low(GLCD_CS2); 
0183C:  BCF    F93.3
0183E:  BCF    F8A.3
.................... } 
01840:  MOVLB  0
01842:  RETLW  00
....................  
....................  
.................... // Purpose:    Reads a byte of data from the specified chip 
.................... // Ouputs:     A byte of data read from the chip 
.................... BYTE glcd_readByte(int1 side) 
.................... { 
....................    BYTE data;                 // Stores the data read from the LCD 
....................  
....................    set_tris_d(0xFF);          // Set port d to input 
....................    output_high(GLCD_RW);      // Set for reading 
....................  
....................    if(side)                   // Choose which side to write to 
....................       output_high(GLCD_CS2); 
....................    else 
....................       output_high(GLCD_CS1); 
....................  
....................    delay_cycles(1); 
....................    output_high(GLCD_E);       // Pulse the enable pin 
....................    delay_cycles(4); 
....................    data = input_d();          // Get the data from the display's output register 
....................    output_low(GLCD_E); 
....................  
....................    output_low(GLCD_CS1);      // Reset the chip select lines 
....................    output_low(GLCD_CS2); 
....................    return data;               // Return the read data 
.................... } 
....................  
.................... #endif 
....................  
.................... #include "GRAPHICS.c" 
.................... ///////////////////////////////////////////////////////////////////////// 
.................... ////                          graphics.c                             //// 
.................... ////                                                                 //// 
.................... ////   This file contains functions to draw lines, rectangles, bars, //// 
.................... ////   circles and text to a display. A function which draws a       //// 
.................... ////   single pixel must be defined before calling the functions in  //// 
.................... ////   this file. Call it glcd_pixel(x, y, color) where x is the     //// 
.................... ////   horizontal coordinate, y is the vertical coordinate, and      //// 
.................... ////   color is 1 bit to turn the pixel on or off.                   //// 
.................... ////                                                                 //// 
.................... ////   * Note: (0, 0) is treated as the upper left corner            //// 
.................... ////                                                                 //// 
.................... ///////////////////////////////////////////////////////////////////////// 
.................... ////                                                                 //// 
.................... ////  glcd_line(x1, y1, x2, y2, color)                               //// 
.................... ////     * Draws a line from the first point to the second point     //// 
.................... ////       with the given color                                      //// 
.................... ////       - color can be ON or OFF                                  //// 
.................... ////                                                                 //// 
.................... ////  glcd_rect(x1, y1, x2, y2, fill, color)                         //// 
.................... ////     * Draws a rectangle with one corner at point (x1,y1) and    //// 
.................... ////       the other corner at point (x2,y2)                         //// 
.................... ////       - fill can be YES or NO                                   //// 
.................... ////       - color can be ON or OFF                                  //// 
.................... ////                                                                 //// 
.................... ////  glcd_bar(x1, y1, x2, y2, width, color)                         //// 
.................... ////     * Draws a bar (wide line) from the first point to the       //// 
.................... ////       second point                                              //// 
.................... ////       - width is the number of pixels wide                      //// 
.................... ////       - color is ON or OFF                                      //// 
.................... ////                                                                 //// 
.................... ////  glcd_circle(x, y, radius, fill, color)                         //// 
.................... ////     * Draws a circle with center at (x,y)                       //// 
.................... ////       - fill can be YES or NO                                   //// 
.................... ////       - color can be ON or OFF                                  //// 
.................... ////                                                                 //// 
.................... ////  glcd_text57(x, y, textptr, size, color)                        //// 
.................... ////     * Write the null terminated text pointed to by textptr with //// 
.................... ////       the upper left coordinate of the first character at (x,y) //// 
.................... ////       Characters are 5 pixels wide and 7 pixels tall            //// 
.................... ////       - size is an integer that scales the size of the text     //// 
.................... ////       - color is ON or OFF                                      //// 
.................... ////     * Note - This function wraps characters to the next line    //// 
.................... ////              use #define GLCD_WIDTH to specify a display width  //// 
.................... ////                                                                 //// 
.................... ///////////////////////////////////////////////////////////////////////// 
.................... ////        (C) Copyright 1996, 2004 Custom Computer Services        //// 
.................... //// This source code may only be used by licensed users of the CCS  //// 
.................... //// C compiler.  This source code may only be distributed to other  //// 
.................... //// licensed users of the CCS C compiler.  No other use,            //// 
.................... //// reproduction or distribution is permitted without written       //// 
.................... //// permission.  Derivative programs created using this software    //// 
.................... //// in object code form are not restricted in any way.              //// 
.................... ///////////////////////////////////////////////////////////////////////// 
....................  
....................  
.................... ///////////////////////////////////////////////////////////////////////// 
.................... #ifndef GRAPHICS_DRAWING_FUNCTIONS 
.................... #define GRAPHICS_DRAWING_FUNCTIONS 
.................... ///////////////////////////////////////////////////////////////////////// 
....................  
....................  
.................... ///////////////////////////////////////////////////////////////////////// 
.................... #ifndef ON 
.................... #define ON  1 
.................... #endif 
....................  
.................... #ifndef OFF 
.................... #define OFF 0 
.................... #endif 
....................  
.................... #ifndef YES 
.................... #define YES 1 
.................... #endif 
....................  
.................... #ifndef NO 
.................... #define NO  0 
.................... #endif 
.................... ///////////////////////////////////////////////////////////////////////// 
....................  
....................  
.................... ///////////////////////////////////////////////////////////////////////// 
.................... //// Defines a 5x7 font 
.................... ///////////////////////////////////////////////////////////////////////// 
.................... const int8 FONT[51][5] ={0x00, 0x00, 0x00, 0x00, 0x00, // SPACE 
....................                          0x00, 0x00, 0x5F, 0x00, 0x00, // ! 
....................                          0x00, 0x03, 0x00, 0x03, 0x00, // " 
....................                          0x14, 0x3E, 0x14, 0x3E, 0x14, // # 
....................                          0x24, 0x2A, 0x7F, 0x2A, 0x12, // $ 
....................                          0x43, 0x33, 0x08, 0x66, 0x61, // % 
....................                          0x36, 0x49, 0x55, 0x22, 0x50, // & 
....................                          0x00, 0x05, 0x03, 0x00, 0x00, // ' 
....................                          0x00, 0x1C, 0x22, 0x41, 0x00, // ( 
....................                          0x00, 0x41, 0x22, 0x1C, 0x00, // ) 
....................                          0x14, 0x08, 0x3E, 0x08, 0x14, // * 
....................                          0x08, 0x08, 0x3E, 0x08, 0x08, // + 
....................                          0x00, 0x50, 0x30, 0x00, 0x00, // , 
....................                          0x08, 0x08, 0x08, 0x08, 0x08, // - 
....................                          0x00, 0x60, 0x60, 0x00, 0x00, // . 
....................                          0x20, 0x10, 0x08, 0x04, 0x02, // / 
....................                          0x3E, 0x51, 0x49, 0x45, 0x3E, // 0 
....................                          0x00, 0x04, 0x02, 0x7F, 0x00, // 1 
....................                          0x42, 0x61, 0x51, 0x49, 0x46, // 2 
....................                          0x22, 0x41, 0x49, 0x49, 0x36, // 3 
....................                          0x18, 0x14, 0x12, 0x7F, 0x10, // 4 
....................                          0x27, 0x45, 0x45, 0x45, 0x39, // 5 
....................                          0x3E, 0x49, 0x49, 0x49, 0x32, // 6 
....................                          0x01, 0x01, 0x71, 0x09, 0x07, // 7 
....................                          0x36, 0x49, 0x49, 0x49, 0x36, // 8 
....................                          0x26, 0x49, 0x49, 0x49, 0x3E, // 9 
....................                          0x00, 0x36, 0x36, 0x00, 0x00, // : 
....................                          0x00, 0x56, 0x36, 0x00, 0x00, // ; 
....................                          0x08, 0x14, 0x22, 0x41, 0x00, // < 
....................                          0x14, 0x14, 0x14, 0x14, 0x14, // = 
....................                          0x00, 0x41, 0x22, 0x14, 0x08, // > 
....................                          0x02, 0x01, 0x51, 0x09, 0x06, // ? 
....................                          0x3E, 0x41, 0x59, 0x55, 0x5E, // @ 
....................                          0x7E, 0x09, 0x09, 0x09, 0x7E, // A 
....................                          0x7F, 0x49, 0x49, 0x49, 0x36, // B 
....................                          0x3E, 0x41, 0x41, 0x41, 0x22, // C 
....................                          0x7F, 0x41, 0x41, 0x41, 0x3E, // D 
....................                          0x7F, 0x49, 0x49, 0x49, 0x41, // E 
....................                          0x7F, 0x09, 0x09, 0x09, 0x01, // F 
....................                          0x3E, 0x41, 0x41, 0x49, 0x3A, // G 
....................                          0x7F, 0x08, 0x08, 0x08, 0x7F, // H 
....................                          0x00, 0x41, 0x7F, 0x41, 0x00, // I 
....................                          0x30, 0x40, 0x40, 0x40, 0x3F, // J 
....................                          0x7F, 0x08, 0x14, 0x22, 0x41, // K 
....................                          0x7F, 0x40, 0x40, 0x40, 0x40, // L 
....................                          0x7F, 0x02, 0x0C, 0x02, 0x7F, // M 
....................                          0x7F, 0x02, 0x04, 0x08, 0x7F, // N 
....................                          0x3E, 0x41, 0x41, 0x41, 0x3E, // O 
....................                          0x7F, 0x09, 0x09, 0x09, 0x06, // P 
....................                          0x1E, 0x21, 0x21, 0x21, 0x5E, // Q 
....................                          0x7F, 0x09, 0x09, 0x09, 0x76};// R 
....................  
.................... const int8 FONT2[44][5]={0x26, 0x49, 0x49, 0x49, 0x32, // S 
....................                          0x01, 0x01, 0x7F, 0x01, 0x01, // T 
....................                          0x3F, 0x40, 0x40, 0x40, 0x3F, // U 
....................                          0x1F, 0x20, 0x40, 0x20, 0x1F, // V 
....................                          0x7F, 0x20, 0x10, 0x20, 0x7F, // W 
....................                          0x41, 0x22, 0x1C, 0x22, 0x41, // X 
....................                          0x07, 0x08, 0x70, 0x08, 0x07, // Y 
....................                          0x61, 0x51, 0x49, 0x45, 0x43, // Z 
....................                          0x00, 0x7F, 0x41, 0x00, 0x00, // [ 
....................                          0x02, 0x04, 0x08, 0x10, 0x20, // \ 
....................                          0x00, 0x00, 0x41, 0x7F, 0x00, // ] 
....................                          0x04, 0x02, 0x01, 0x02, 0x04, // ^ 
....................                          0x40, 0x40, 0x40, 0x40, 0x40, // _ 
....................                          0x00, 0x01, 0x02, 0x04, 0x00, // ` 
....................                          0x20, 0x54, 0x54, 0x54, 0x78, // a 
....................                          0x7F, 0x44, 0x44, 0x44, 0x38, // b 
....................                          0x38, 0x44, 0x44, 0x44, 0x44, // c 
....................                          0x38, 0x44, 0x44, 0x44, 0x7F, // d 
....................                          0x38, 0x54, 0x54, 0x54, 0x18, // e 
....................                          0x04, 0x04, 0x7E, 0x05, 0x05, // f 
....................                          0x08, 0x54, 0x54, 0x54, 0x3C, // g 
....................                          0x7F, 0x08, 0x04, 0x04, 0x78, // h 
....................                          0x00, 0x44, 0x7D, 0x40, 0x00, // i 
....................                          0x20, 0x40, 0x44, 0x3D, 0x00, // j 
....................                          0x7F, 0x10, 0x28, 0x44, 0x00, // k 
....................                          0x00, 0x41, 0x7F, 0x40, 0x00, // l 
....................                          0x7C, 0x04, 0x78, 0x04, 0x78, // m 
....................                          0x7C, 0x08, 0x04, 0x04, 0x78, // n 
....................                          0x38, 0x44, 0x44, 0x44, 0x38, // o 
....................                          0x7C, 0x14, 0x14, 0x14, 0x08, // p 
....................                          0x08, 0x14, 0x14, 0x14, 0x7C, // q 
....................                          0x00, 0x7C, 0x08, 0x04, 0x04, // r 
....................                          0x48, 0x54, 0x54, 0x54, 0x20, // s 
....................                          0x04, 0x04, 0x3F, 0x44, 0x44, // t 
....................                          0x3C, 0x40, 0x40, 0x20, 0x7C, // u 
....................                          0x1C, 0x20, 0x40, 0x20, 0x1C, // v 
....................                          0x3C, 0x40, 0x30, 0x40, 0x3C, // w 
....................                          0x44, 0x28, 0x10, 0x28, 0x44, // x 
....................                          0x0C, 0x50, 0x50, 0x50, 0x3C, // y 
....................                          0x44, 0x64, 0x54, 0x4C, 0x44, // z 
....................                          0x00, 0x08, 0x36, 0x41, 0x41, // { 
....................                          0x00, 0x00, 0x7F, 0x00, 0x00, // | 
....................                          0x41, 0x41, 0x36, 0x08, 0x00, // } 
....................                          0x02, 0x01, 0x02, 0x04, 0x02};// ~ 
.................... ///////////////////////////////////////////////////////////////////////// 
....................  
....................  
.................... ///////////////////////////////////////////////////////////////////////// 
.................... // Purpose:       Draw a line on a graphic LCD using Bresenham's 
.................... //                line drawing algorithm 
.................... // Inputs:        (x1, y1) - the start coordinate 
.................... //                (x2, y2) - the end coordinate 
.................... //                color - ON or OFF 
.................... // Dependencies:  glcd_pixel() 
.................... ///////////////////////////////////////////////////////////////////////// 
.................... #ifdef LARGE_LCD 
.................... void glcd_line(int16 x1, int16 y1, int16 x2, int16 y2, int1 color) 
.................... #else 
.................... void glcd_line(int8 x1, int8 y1, int8 x2, int8 y2, int1 color) 
.................... #endif 
.................... { 
*
034DC:  MOVLW  01
034DE:  MOVLB  6
034E0:  MOVWF  x72
034E2:  MOVWF  x73
034E4:  CLRF   x78
....................    int16        dy, dx; 
....................    signed int8  addx=1, addy=1; 
....................    signed int16 P, diff; 
....................  
....................    #ifdef LARGE_LCD 
....................    int16 i=0; 
....................    dx = abs((signed int16)(x2 - x1)); 
....................    dy = abs((signed int16)(y2 - y1)); 
....................    #else 
....................    int8 i=0; 
....................    dx = abs((signed int8)(x2 - x1)); 
034E6:  MOVF   x69,W
034E8:  SUBWF  x6B,W
034EA:  MOVWF  x79
034EC:  MOVF   x79,W
034EE:  BTFSS  x79.7
034F0:  BRA    34F8
034F2:  MOVLW  00
034F4:  BSF    FD8.0
034F6:  SUBFWB x79,W
034F8:  CLRF   03
034FA:  MOVWF  x70
034FC:  MOVFF  03,671
....................    dy = abs((signed int8)(y2 - y1)); 
03500:  MOVF   x6A,W
03502:  SUBWF  x6C,W
03504:  MOVWF  x79
03506:  MOVF   x79,W
03508:  BTFSS  x79.7
0350A:  BRA    3512
0350C:  MOVLW  00
0350E:  BSF    FD8.0
03510:  SUBFWB x79,W
03512:  CLRF   03
03514:  MOVWF  x6E
03516:  MOVFF  03,66F
....................    #endif 
....................  
....................    if(x1 > x2) 
0351A:  MOVF   x69,W
0351C:  SUBWF  x6B,W
0351E:  BC    3524
....................       addx = -1; 
03520:  MOVLW  FF
03522:  MOVWF  x72
....................    if(y1 > y2) 
03524:  MOVF   x6A,W
03526:  SUBWF  x6C,W
03528:  BC    352E
....................       addy = -1; 
0352A:  MOVLW  FF
0352C:  MOVWF  x73
....................  
....................    if(dx >= dy) 
0352E:  MOVF   x6F,W
03530:  SUBWF  x71,W
03532:  BNC   35AA
03534:  BNZ   353C
03536:  MOVF   x6E,W
03538:  SUBWF  x70,W
0353A:  BNC   35AA
....................    { 
....................       dy *= 2; 
0353C:  BCF    FD8.0
0353E:  RLCF   x6E,F
03540:  RLCF   x6F,F
....................       P = dy - dx; 
03542:  MOVF   x70,W
03544:  SUBWF  x6E,W
03546:  MOVWF  00
03548:  MOVF   x71,W
0354A:  SUBWFB x6F,W
0354C:  MOVFF  00,674
03550:  MOVWF  x75
....................       diff = P - dx; 
03552:  MOVF   x70,W
03554:  SUBWF  x74,W
03556:  MOVWF  x76
03558:  MOVF   x71,W
0355A:  SUBWFB x75,W
0355C:  MOVWF  x77
....................  
....................       for(; i<=dx; ++i) 
0355E:  MOVF   x71,F
03560:  BNZ   3568
03562:  MOVF   x78,W
03564:  SUBWF  x70,W
03566:  BNC   35A8
....................       { 
....................          glcd_pixel(x1, y1, color); 
03568:  MOVFF  669,679
0356C:  MOVFF  66A,67A
03570:  MOVFF  66D,67B
03574:  MOVLB  0
03576:  RCALL  3420
....................  
....................          if(P < 0) 
03578:  MOVLB  6
0357A:  BTFSC  x75.7
0357C:  BRA    3580
0357E:  BRA    3590
....................          { 
....................             P  += dy; 
03580:  MOVF   x6E,W
03582:  ADDWF  x74,F
03584:  MOVF   x6F,W
03586:  ADDWFC x75,F
....................             x1 += addx; 
03588:  MOVF   x72,W
0358A:  ADDWF  x69,W
0358C:  MOVWF  x69
....................          } 
....................          else 
0358E:  BRA    35A4
....................          { 
....................             P  += diff; 
03590:  MOVF   x76,W
03592:  ADDWF  x74,F
03594:  MOVF   x77,W
03596:  ADDWFC x75,F
....................             x1 += addx; 
03598:  MOVF   x72,W
0359A:  ADDWF  x69,W
0359C:  MOVWF  x69
....................             y1 += addy; 
0359E:  MOVF   x73,W
035A0:  ADDWF  x6A,W
035A2:  MOVWF  x6A
....................          } 
....................       } 
035A4:  INCF   x78,F
035A6:  BRA    355E
....................    } 
....................    else 
035A8:  BRA    3616
....................    { 
....................       dx *= 2; 
035AA:  BCF    FD8.0
035AC:  RLCF   x70,F
035AE:  RLCF   x71,F
....................       P = dx - dy; 
035B0:  MOVF   x6E,W
035B2:  SUBWF  x70,W
035B4:  MOVWF  00
035B6:  MOVF   x6F,W
035B8:  SUBWFB x71,W
035BA:  MOVFF  00,674
035BE:  MOVWF  x75
....................       diff = P - dy; 
035C0:  MOVF   x6E,W
035C2:  SUBWF  x74,W
035C4:  MOVWF  x76
035C6:  MOVF   x6F,W
035C8:  SUBWFB x75,W
035CA:  MOVWF  x77
....................  
....................       for(; i<=dy; ++i) 
035CC:  MOVF   x6F,F
035CE:  BNZ   35D6
035D0:  MOVF   x78,W
035D2:  SUBWF  x6E,W
035D4:  BNC   3616
....................       { 
....................          glcd_pixel(x1, y1, color); 
035D6:  MOVFF  669,679
035DA:  MOVFF  66A,67A
035DE:  MOVFF  66D,67B
035E2:  MOVLB  0
035E4:  RCALL  3420
....................  
....................          if(P < 0) 
035E6:  MOVLB  6
035E8:  BTFSC  x75.7
035EA:  BRA    35EE
035EC:  BRA    35FE
....................          { 
....................             P  += dx; 
035EE:  MOVF   x70,W
035F0:  ADDWF  x74,F
035F2:  MOVF   x71,W
035F4:  ADDWFC x75,F
....................             y1 += addy; 
035F6:  MOVF   x73,W
035F8:  ADDWF  x6A,W
035FA:  MOVWF  x6A
....................          } 
....................          else 
035FC:  BRA    3612
....................          { 
....................             P  += diff; 
035FE:  MOVF   x76,W
03600:  ADDWF  x74,F
03602:  MOVF   x77,W
03604:  ADDWFC x75,F
....................             x1 += addx; 
03606:  MOVF   x72,W
03608:  ADDWF  x69,W
0360A:  MOVWF  x69
....................             y1 += addy; 
0360C:  MOVF   x73,W
0360E:  ADDWF  x6A,W
03610:  MOVWF  x6A
....................          } 
....................       } 
03612:  INCF   x78,F
03614:  BRA    35CC
....................    } 
.................... } 
03616:  MOVLB  0
03618:  RETLW  00
....................  
....................  
.................... ///////////////////////////////////////////////////////////////////////// 
.................... // Purpose:       Draw a rectangle on a graphic LCD 
.................... // Inputs:        (x1, y1) - the start coordinate 
.................... //                (x2, y2) - the end coordinate 
.................... //                fill  - YES or NO 
.................... //                color - ON or OFF 
.................... // Dependencies:  glcd_pixel(), glcd_line() 
.................... ///////////////////////////////////////////////////////////////////////// 
.................... #ifdef LARGE_LCD 
.................... void glcd_rect(int16 x1, int16 y1, int16 x2, int16 y2, int1 fill, int1 color) 
.................... #else 
.................... void glcd_rect(int8 x1, int8 y1, int8 x2, int8 y2, int1 fill, int1 color) 
.................... #endif 
.................... { 
....................    if(fill) 
0361A:  MOVLB  6
0361C:  MOVF   x62,F
0361E:  BZ    367C
....................    { 
....................       #ifdef LARGE_LCD 
....................       int16 i, xmin, xmax, ymin, ymax; 
....................       #else 
....................       int8  i, xmin, xmax, ymin, ymax; 
....................       #endif 
....................  
....................       if(x1 < x2)                            //  Find x min and max 
03620:  MOVF   x60,W
03622:  SUBWF  x5E,W
03624:  BC    3630
....................       { 
....................          xmin = x1; 
03626:  MOVFF  65E,665
....................          xmax = x2; 
0362A:  MOVFF  660,666
....................       } 
....................       else 
0362E:  BRA    3638
....................       { 
....................          xmin = x2; 
03630:  MOVFF  660,665
....................          xmax = x1; 
03634:  MOVFF  65E,666
....................       } 
....................  
....................       if(y1 < y2)                            // Find the y min and max 
03638:  MOVF   x61,W
0363A:  SUBWF  x5F,W
0363C:  BC    3648
....................       { 
....................          ymin = y1; 
0363E:  MOVFF  65F,667
....................          ymax = y2; 
03642:  MOVFF  661,668
....................       } 
....................       else 
03646:  BRA    3650
....................       { 
....................          ymin = y2; 
03648:  MOVFF  661,667
....................          ymax = y1; 
0364C:  MOVFF  65F,668
....................       } 
....................  
....................       for(; xmin <= xmax; ++xmin) 
03650:  MOVF   x65,W
03652:  SUBWF  x66,W
03654:  BNC   367A
....................       { 
....................          for(i=ymin; i<=ymax; ++i) 
03656:  MOVFF  667,664
0365A:  MOVF   x64,W
0365C:  SUBWF  x68,W
0365E:  BNC   3676
....................          { 
....................             glcd_pixel(xmin, i, color); 
03660:  MOVFF  665,679
03664:  MOVFF  664,67A
03668:  MOVFF  663,67B
0366C:  MOVLB  0
0366E:  RCALL  3420
....................          } 
03670:  MOVLB  6
03672:  INCF   x64,F
03674:  BRA    365A
....................       } 
03676:  INCF   x65,F
03678:  BRA    3650
....................    } 
....................    else 
0367A:  BRA    36D8
....................    { 
....................       glcd_line(x1, y1, x2, y1, color);      // Draw the 4 sides 
0367C:  MOVFF  65E,669
03680:  MOVFF  65F,66A
03684:  MOVFF  660,66B
03688:  MOVFF  65F,66C
0368C:  MOVFF  663,66D
03690:  MOVLB  0
03692:  RCALL  34DC
....................       glcd_line(x1, y2, x2, y2, color); 
03694:  MOVFF  65E,669
03698:  MOVFF  661,66A
0369C:  MOVFF  660,66B
036A0:  MOVFF  661,66C
036A4:  MOVFF  663,66D
036A8:  RCALL  34DC
....................       glcd_line(x1, y1, x1, y2, color); 
036AA:  MOVFF  65E,669
036AE:  MOVFF  65F,66A
036B2:  MOVFF  65E,66B
036B6:  MOVFF  661,66C
036BA:  MOVFF  663,66D
036BE:  RCALL  34DC
....................       glcd_line(x2, y1, x2, y2, color); 
036C0:  MOVFF  660,669
036C4:  MOVFF  65F,66A
036C8:  MOVFF  660,66B
036CC:  MOVFF  661,66C
036D0:  MOVFF  663,66D
036D4:  RCALL  34DC
036D6:  MOVLB  6
....................    } 
.................... } 
036D8:  MOVLB  0
036DA:  RETLW  00
....................  
.................... ///////////////////////////////////////////////////////////////////////// 
.................... // Purpose:       Draw a bar (wide line) on a graphic LCD 
.................... // Inputs:        (x1, y1) - the start coordinate 
.................... //                (x2, y2) - the end coordinate 
.................... //                width  - The number of pixels wide 
.................... //                color - ON or OFF 
.................... ///////////////////////////////////////////////////////////////////////// 
.................... #ifdef LARGE_LCD 
.................... void glcd_bar(int16 x1, int16 y1, int16 x2, int16 y2, int8 width, int1 color) 
.................... #else 
.................... void glcd_bar(int8 x1, int8 y1, int8 x2, int8 y2, int8 width, int1 color) 
.................... #endif 
.................... { 
....................    int8         half_width; 
....................    signed int16 dy, dx; 
....................    signed int8  addx=1, addy=1, j; 
....................    signed int16 P, diff, c1, c2; 
....................  
....................    #ifdef LARGE_LCD 
....................    int16 i=0; 
....................    dx = abs((signed int16)(x2 - x1)); 
....................    dy = abs((signed int16)(y2 - y1)); 
....................    #else 
....................    int8 i=0; 
....................    dx = abs((signed int8)(x2 - x1)); 
....................    dy = abs((signed int8)(y2 - y1)); 
....................    #endif 
....................  
....................    half_width = width/2; 
....................    c1 = -(dx*x1 + dy*y1); 
....................    c2 = -(dx*x2 + dy*y2); 
....................  
....................    if(x1 > x2) 
....................    { 
....................       signed int16 temp; 
....................       temp = c1; 
....................       c1 = c2; 
....................       c2 = temp; 
....................       addx = -1; 
....................    } 
....................    if(y1 > y2) 
....................    { 
....................       signed int16 temp; 
....................       temp = c1; 
....................       c1 = c2; 
....................       c2 = temp; 
....................       addy = -1; 
....................    } 
....................  
....................    if(dx >= dy) 
....................    { 
....................       P = 2*dy - dx; 
....................       diff = P - dx; 
....................  
....................       for(i=0; i<=dx; ++i) 
....................       { 
....................          for(j=-half_width; j<half_width+width%2; ++j) 
....................          { 
....................             #ifdef LARGE_LCD 
....................             int16 temp; 
....................             #else 
....................             int8 temp; 
....................             #endif 
....................  
....................             temp = dx*x1+dy*(y1+j);    // Use more RAM to increase speed 
....................             if(temp+c1 >= 0 && temp+c2 <=0) 
....................                glcd_pixel(x1, y1+j, color); 
....................          } 
....................          if(P < 0) 
....................          { 
....................             P  += 2*dy; 
....................             x1 += addx; 
....................          } 
....................          else 
....................          { 
....................             P  += diff; 
....................             x1 += addx; 
....................             y1 += addy; 
....................          } 
....................       } 
....................    } 
....................    else 
....................    { 
....................       P = 2*dx - dy; 
....................       diff = P - dy; 
....................  
....................       for(i=0; i<=dy; ++i) 
....................       { 
....................          if(P < 0) 
....................          { 
....................             P  += 2*dx; 
....................             y1 += addy; 
....................          } 
....................          else 
....................          { 
....................             P  += diff; 
....................             x1 += addx; 
....................             y1 += addy; 
....................          } 
....................          for(j=-half_width; j<half_width+width%2; ++j) 
....................          { 
....................             #ifdef LARGE_LCD 
....................             int16 temp; 
....................             #else 
....................             int8 temp; 
....................             #endif 
....................  
....................             temp = dx*x1+dy*(y1+j);    // Use more RAM to increase speed 
....................             if(temp+c1 >= 0 && temp+c2 <=0) 
....................                glcd_pixel(x1+j, y1, color); 
....................          } 
....................       } 
....................    } 
.................... } 
....................  
....................  
.................... ///////////////////////////////////////////////////////////////////////// 
.................... // Purpose:       Draw a circle on a graphic LCD 
.................... // Inputs:        (x,y) - the center of the circle 
.................... //                radius - the radius of the circle 
.................... //                fill - YES or NO 
.................... //                color - ON or OFF 
.................... ///////////////////////////////////////////////////////////////////////// 
.................... #ifdef LARGE_LCD 
.................... void glcd_circle(int16 x, int16 y, int16 radius, int1 fill, int1 color) 
.................... #else 
.................... void glcd_circle(int8 x, int8 y, int8 radius, int1 fill, int1 color) 
.................... #endif 
.................... { 
....................    #ifdef LARGE_LCD 
....................    signed int16 a, b, P; 
....................    #else 
....................    signed int8  a, b, P; 
....................    #endif 
....................  
....................    a = 0; 
....................    b = radius; 
....................    P = 1 - radius; 
....................  
....................    do 
....................    { 
....................       if(fill) 
....................       { 
....................          glcd_line(x-a, y+b, x+a, y+b, color); 
....................          glcd_line(x-a, y-b, x+a, y-b, color); 
....................          glcd_line(x-b, y+a, x+b, y+a, color); 
....................          glcd_line(x-b, y-a, x+b, y-a, color); 
....................       } 
....................       else 
....................       { 
....................          glcd_pixel(a+x, b+y, color); 
....................          glcd_pixel(b+x, a+y, color); 
....................          glcd_pixel(x-a, b+y, color); 
....................          glcd_pixel(x-b, a+y, color); 
....................          glcd_pixel(b+x, y-a, color); 
....................          glcd_pixel(a+x, y-b, color); 
....................          glcd_pixel(x-a, y-b, color); 
....................          glcd_pixel(x-b, y-a, color); 
....................       } 
....................  
....................       if(P < 0) 
....................          P += 3 + 2 * a++; 
....................       else 
....................          P += 5 + 2 * (a++ - b--); 
....................     } while(a <= b); 
.................... } 
....................  
....................  
.................... ///////////////////////////////////////////////////////////////////////// 
.................... // Purpose:       Write text on a graphic LCD 
.................... // Inputs:        (x,y) - The upper left coordinate of the first letter 
.................... //                textptr - A pointer to an array of text to display 
.................... //                size - The size of the text: 1 = 5x7, 2 = 10x14, ... 
.................... //                color - ON or OFF 
.................... ///////////////////////////////////////////////////////////////////////// 
.................... #ifdef LARGE_LCD 
.................... void glcd_text57(int16 x, int16 y, char* textptr, int8 size, int1 color) 
.................... #else 
.................... void glcd_text57(int8 x, int8 y, char* textptr, int8 size, int1 color) 
.................... #endif 
.................... { 
....................    int8 j, k, l, m;                       // Loop counters 
....................    int8 pixelData[5];                     // Stores character data 
....................  
....................    for(; *textptr != '\0'; ++textptr, ++x)// Loop through the passed string 
036DC:  MOVFF  661,03
036E0:  MOVLB  6
036E2:  MOVFF  660,FE9
036E6:  MOVFF  661,FEA
036EA:  MOVF   FEF,F
036EC:  BTFSC  FD8.2
036EE:  BRA    3890
....................    { 
....................       if(*textptr < 'S') // Checks if the letter is in the first font array 
036F0:  MOVFF  661,03
036F4:  MOVFF  660,FE9
036F8:  MOVFF  661,FEA
036FC:  MOVF   FEF,W
036FE:  SUBLW  52
03700:  BNC   3750
....................          memcpy(pixelData, FONT[*textptr - ' '], 5); 
03702:  MOVFF  661,03
03706:  MOVFF  660,FE9
0370A:  MOVFF  661,FEA
0370E:  MOVLW  20
03710:  SUBWF  FEF,W
03712:  MULLW  05
03714:  MOVF   FF3,W
03716:  CLRF   03
03718:  MOVWF  x6D
0371A:  MOVLW  06
0371C:  MOVWF  FEA
0371E:  MOVLW  68
03720:  MOVWF  FE9
03722:  CLRF   x71
03724:  MOVFF  66D,670
03728:  MOVFF  FF2,66E
0372C:  BCF    FF2.7
0372E:  MOVLW  05
03730:  MOVWF  01
03732:  CLRF   FF7
03734:  MOVF   x6D,W
03736:  MOVLB  0
03738:  CALL   00AA
0373C:  TBLRD*-
0373E:  TBLRD*+
03740:  MOVFF  FF5,FEE
03744:  DECFSZ 01,F
03746:  BRA    373E
03748:  MOVLB  6
0374A:  BTFSC  x6E.7
0374C:  BSF    FF2.7
....................       else if(*textptr <= '~') // Check if the letter is in the second font array 
0374E:  BRA    37BA
03750:  MOVFF  661,03
03754:  MOVFF  660,FE9
03758:  MOVFF  661,FEA
0375C:  MOVF   FEF,W
0375E:  SUBLW  7E
03760:  BNC   37B0
....................          memcpy(pixelData, FONT2[*textptr - 'S'], 5); 
03762:  MOVFF  661,03
03766:  MOVFF  660,FE9
0376A:  MOVFF  661,FEA
0376E:  MOVLW  53
03770:  SUBWF  FEF,W
03772:  MULLW  05
03774:  MOVF   FF3,W
03776:  CLRF   03
03778:  MOVWF  x6D
0377A:  MOVLW  06
0377C:  MOVWF  FEA
0377E:  MOVLW  68
03780:  MOVWF  FE9
03782:  CLRF   x71
03784:  MOVFF  66D,670
03788:  MOVFF  FF2,66E
0378C:  BCF    FF2.7
0378E:  MOVLW  05
03790:  MOVWF  01
03792:  CLRF   FF7
03794:  MOVF   x6D,W
03796:  MOVLB  0
03798:  CALL   01C8
0379C:  TBLRD*-
0379E:  TBLRD*+
037A0:  MOVFF  FF5,FEE
037A4:  DECFSZ 01,F
037A6:  BRA    379E
037A8:  MOVLB  6
037AA:  BTFSC  x6E.7
037AC:  BSF    FF2.7
....................       else 
037AE:  BRA    37BA
....................          memcpy(pixelData, FONT[0], 5);   // Default to space 
037B0:  CLRF   x68
037B2:  CLRF   x69
037B4:  CLRF   x6A
037B6:  CLRF   x6B
037B8:  CLRF   x6C
....................  
....................       // Handles newline and carriage returns 
....................       switch(*textptr) 
....................       { 
037BA:  MOVFF  661,03
037BE:  MOVF   x60,W
037C0:  MOVWF  FE9
037C2:  MOVFF  03,FEA
037C6:  MOVF   FEF,W
037C8:  XORLW  0A
037CA:  MOVLB  0
037CC:  BZ    37D4
037CE:  XORLW  07
037D0:  BZ    37E4
037D2:  BRA    37EA
....................          case '\n': 
....................             y += 7*size + 1; 
037D4:  MOVLB  6
037D6:  MOVF   x62,W
037D8:  MULLW  07
037DA:  MOVF   FF3,W
037DC:  ADDLW  01
037DE:  ADDWF  x5F,F
....................             continue; 
037E0:  BRA    3882
037E2:  MOVLB  0
....................          case '\r': 
....................             x = 0; 
037E4:  MOVLB  6
037E6:  CLRF   x5E
....................             continue; 
037E8:  BRA    3882
....................       } 
....................  
....................       if(x+5*size >= GLCD_WIDTH)          // Performs character wrapping 
037EA:  MOVLB  6
037EC:  MOVF   x62,W
037EE:  MULLW  05
037F0:  MOVF   FF3,W
037F2:  ADDWF  x5E,W
037F4:  SUBLW  7F
037F6:  BC    3804
....................       { 
....................          x = 0;                           // Set x at far left position 
037F8:  CLRF   x5E
....................          y += 7*size + 1;                 // Set y at next position down 
037FA:  MOVF   x62,W
037FC:  MULLW  07
037FE:  MOVF   FF3,W
03800:  ADDLW  01
03802:  ADDWF  x5F,F
....................       } 
....................       for(j=0; j<5; ++j, x+=size)         // Loop through character byte data 
03804:  CLRF   x64
03806:  MOVF   x64,W
03808:  SUBLW  04
0380A:  BNC   3882
....................       { 
....................          for(k=0; k < 7; ++k)             // Loop through the vertical pixels 
0380C:  CLRF   x65
0380E:  MOVF   x65,W
03810:  SUBLW  06
03812:  BNC   387A
....................          { 
....................             if(bit_test(pixelData[j], k)) // Check if the pixel should be set 
03814:  CLRF   03
03816:  MOVF   x64,W
03818:  ADDLW  68
0381A:  MOVWF  FE9
0381C:  MOVLW  06
0381E:  ADDWFC 03,W
03820:  MOVWF  FEA
03822:  MOVFF  FEF,66D
03826:  MOVFF  66D,00
0382A:  MOVF   x65,W
0382C:  MOVWF  01
0382E:  BZ    3838
03830:  BCF    FD8.0
03832:  RRCF   00,F
03834:  DECFSZ 01,F
03836:  BRA    3830
03838:  BTFSS  00.0
0383A:  BRA    3876
....................             { 
....................                for(l=0; l < size; ++l)    // These two loops change the 
0383C:  CLRF   x66
0383E:  MOVF   x62,W
03840:  SUBWF  x66,W
03842:  BC    3876
....................                {                          // character's size 
....................                   for(m=0; m < size; ++m) 
03844:  CLRF   x67
03846:  MOVF   x62,W
03848:  SUBWF  x67,W
0384A:  BC    3872
....................                   { 
....................                      glcd_pixel(x+m, y+k*size+l, color); // Draws the pixel 
0384C:  MOVF   x67,W
0384E:  ADDWF  x5E,W
03850:  MOVWF  x6D
03852:  MOVF   x65,W
03854:  MULWF  x62
03856:  MOVF   FF3,W
03858:  ADDWF  x5F,W
0385A:  ADDWF  x66,W
0385C:  MOVWF  x6E
0385E:  MOVFF  66D,679
03862:  MOVWF  x7A
03864:  MOVFF  663,67B
03868:  MOVLB  0
0386A:  RCALL  3420
....................                   } 
0386C:  MOVLB  6
0386E:  INCF   x67,F
03870:  BRA    3846
....................                } 
03872:  INCF   x66,F
03874:  BRA    383E
....................             } 
....................          } 
03876:  INCF   x65,F
03878:  BRA    380E
....................       } 
0387A:  INCF   x64,F
0387C:  MOVF   x62,W
0387E:  ADDWF  x5E,F
03880:  BRA    3806
....................    } 
03882:  INCF   x60,F
03884:  BTFSC  FD8.2
03886:  INCF   x61,F
03888:  INCF   x5E,F
0388A:  MOVLB  0
0388C:  BRA    36DC
0388E:  MOVLB  6
.................... } 
03890:  MOVLB  0
03892:  RETLW  00
....................  
.................... #endif 
....................  
.................... #include "imagen.h" 
.................... const int8 Bombillo [64][16] = { 
.................... 0x00, 0x00, 0x00, 0x00, 0x00, 0x00, 0x00, 0x00, 0x00, 0x00, 0x00, 0x00, 0x00, 0x00, 0x00, 0x00, 
.................... 0x00, 0x00, 0x00, 0x00, 0x00, 0x00, 0x00, 0x00, 0x00, 0x00, 0x00, 0x00, 0x00, 0x00, 0x00, 0x00, 
.................... 0x00, 0x00, 0x00, 0x00, 0x00, 0x00, 0x00, 0x00, 0x00, 0x00, 0x00, 0x00, 0x00, 0x00, 0x00, 0x00, 
.................... 0x00, 0x00, 0x00, 0x00, 0x00, 0x00, 0x00, 0x00, 0x00, 0x00, 0x00, 0x00, 0x00, 0x00, 0x00, 0x00, 
.................... 0x00, 0x00, 0x00, 0x00, 0x00, 0x00, 0x00, 0x00, 0x00, 0x00, 0x00, 0x00, 0x00, 0x00, 0x00, 0x00, 
.................... 0x00, 0x00, 0x00, 0x00, 0x00, 0x00, 0x00, 0x00, 0x00, 0x00, 0x00, 0x00, 0x00, 0x00, 0x00, 0x00, 
.................... 0x00, 0x00, 0x00, 0x00, 0x00, 0x00, 0x00, 0x00, 0x00, 0x00, 0x00, 0x00, 0x00, 0x00, 0x00, 0x00, 
.................... 0x00, 0x00, 0x00, 0x00, 0x00, 0x00, 0x00, 0x00, 0x00, 0x00, 0x00, 0x00, 0x00, 0x00, 0x00, 0x00, 
.................... 0x00, 0x00, 0x00, 0x00, 0x00, 0x00, 0x00, 0x00, 0x00, 0x00, 0x00, 0x00, 0x00, 0x00, 0x00, 0x00, 
.................... 0x00, 0x00, 0x00, 0x00, 0x00, 0x00, 0x00, 0x00, 0x00, 0x00, 0x00, 0x00, 0x00, 0x00, 0x00, 0x00, 
.................... 0x00, 0x00, 0x00, 0x00, 0x00, 0x00, 0x00, 0x00, 0x00, 0x00, 0x00, 0x00, 0x00, 0x00, 0x00, 0x00, 
.................... 0x00, 0x00, 0x00, 0x00, 0x00, 0x00, 0x00, 0x00, 0x00, 0x00, 0x00, 0x00, 0x00, 0x00, 0x00, 0x00, 
.................... 0x00, 0x00, 0x00, 0x00, 0x00, 0x00, 0x00, 0x00, 0x00, 0x00, 0x00, 0x00, 0x00, 0x00, 0x00, 0x00, 
.................... 0x00, 0x00, 0x00, 0x00, 0x00, 0x00, 0x00, 0x00, 0x00, 0x00, 0x00, 0x00, 0x00, 0x00, 0x00, 0x00, 
.................... 0x00, 0x00, 0x00, 0x00, 0x00, 0x00, 0x00, 0x00, 0x00, 0x00, 0x00, 0x00, 0x00, 0x00, 0x00, 0x00, 
.................... 0x00, 0x00, 0x00, 0x00, 0x00, 0x00, 0x00, 0x00, 0x00, 0x00, 0x00, 0x00, 0x00, 0x08, 0x00, 0x80, 
.................... 0x00, 0x00, 0x00, 0x00, 0x00, 0x00, 0x00, 0x00, 0x00, 0x00, 0x00, 0x00, 0x00, 0x04, 0x01, 0x00, 
.................... 0x00, 0x00, 0x00, 0x00, 0x00, 0x00, 0x00, 0x00, 0x00, 0x00, 0x00, 0x00, 0x00, 0x02, 0x02, 0x00, 
.................... 0x00, 0x00, 0x00, 0x00, 0x00, 0x00, 0x00, 0x00, 0x00, 0x00, 0x00, 0x00, 0x00, 0x00, 0x78, 0x00, 
.................... 0x00, 0x00, 0x00, 0x00, 0x00, 0x00, 0x00, 0x00, 0x00, 0x00, 0x00, 0x00, 0x00, 0x00, 0x84, 0x00, 
.................... 0x00, 0x00, 0x00, 0x00, 0x00, 0x00, 0x00, 0x00, 0x00, 0x00, 0x00, 0x00, 0x00, 0x01, 0x02, 0x00, 
.................... 0x00, 0x00, 0x00, 0x00, 0x00, 0x00, 0x00, 0x00, 0x00, 0x00, 0x00, 0x00, 0x00, 0xF9, 0x02, 0xF8, 
.................... 0x00, 0x00, 0x00, 0x00, 0x00, 0x00, 0x00, 0x00, 0x00, 0x00, 0x00, 0x00, 0x00, 0x01, 0x02, 0x00, 
.................... 0x00, 0x00, 0x00, 0x00, 0x00, 0x00, 0x00, 0x00, 0x00, 0x00, 0x00, 0x00, 0x00, 0x01, 0x02, 0x00, 
.................... 0x00, 0x00, 0x00, 0x00, 0x00, 0x00, 0x00, 0x00, 0x00, 0x00, 0x00, 0x00, 0x00, 0x04, 0x84, 0x80, 
.................... 0x00, 0x00, 0x00, 0x00, 0x00, 0x00, 0x00, 0x00, 0x00, 0x00, 0x00, 0x00, 0x00, 0x08, 0x78, 0x40, 
.................... 0x00, 0x00, 0x00, 0x00, 0x00, 0x00, 0x00, 0x00, 0x00, 0x00, 0x00, 0x00, 0x00, 0x10, 0x48, 0x20, 
.................... 0x00, 0x00, 0x00, 0x00, 0x00, 0x00, 0x00, 0x00, 0x00, 0x00, 0x00, 0x00, 0x00, 0x20, 0x48, 0x10, 
.................... 0x00, 0x00, 0x00, 0x00, 0x00, 0x00, 0x00, 0x00, 0x00, 0x00, 0x00, 0x00, 0x00, 0x00, 0x78, 0x00, 
.................... 0x00, 0x00, 0x00, 0x00, 0x00, 0x00, 0x00, 0x00, 0x00, 0x00, 0x00, 0x00, 0x00, 0x00, 0x00, 0x00, 
.................... 0x00, 0x00, 0x00, 0x00, 0x00, 0x00, 0x00, 0x00, 0x00, 0x00, 0x00, 0x00, 0x00, 0x00, 0x00, 0x00, 
.................... 0x00, 0x00, 0x00, 0x00, 0x00, 0x00, 0x00, 0x00, 0x00, 0x00, 0x00, 0x00, 0x00, 0x00, 0x00, 0x00, 
.................... 0x00, 0x00, 0x00, 0x00, 0x00, 0x00, 0x00, 0x00, 0x00, 0x00, 0x00, 0x00, 0x00, 0x00, 0x00, 0x00, 
.................... 0x00, 0x00, 0x00, 0x00, 0x00, 0x00, 0x00, 0x00, 0x00, 0x00, 0x00, 0x00, 0x00, 0x00, 0x00, 0x00, 
.................... 0x00, 0x00, 0x00, 0x00, 0x00, 0x00, 0x00, 0x00, 0x00, 0x00, 0x00, 0x00, 0x00, 0x00, 0x00, 0x00, 
.................... 0x00, 0x00, 0x00, 0x00, 0x00, 0x00, 0x00, 0x00, 0x00, 0x00, 0x00, 0x00, 0x00, 0x00, 0x00, 0x00, 
.................... 0x00, 0x00, 0x00, 0x00, 0x00, 0x00, 0x00, 0x00, 0x00, 0x00, 0x00, 0x00, 0x00, 0x00, 0x00, 0x00, 
.................... 0x00, 0x00, 0x00, 0x00, 0x00, 0x00, 0x00, 0x00, 0x00, 0x00, 0x00, 0x00, 0x00, 0x00, 0x00, 0x00, 
.................... 0x00, 0x00, 0x00, 0x00, 0x00, 0x00, 0x00, 0x00, 0x00, 0x00, 0x00, 0x00, 0x00, 0x00, 0x00, 0x00, 
.................... 0x00, 0x00, 0x00, 0x00, 0x00, 0x00, 0x00, 0x00, 0x00, 0x00, 0x00, 0x00, 0x00, 0x00, 0x00, 0x00, 
.................... 0x00, 0x00, 0x00, 0x00, 0x00, 0x00, 0x00, 0x00, 0x00, 0x00, 0x00, 0x00, 0x00, 0x00, 0x00, 0x00, 
.................... 0x00, 0x00, 0x00, 0x00, 0x00, 0x00, 0x00, 0x00, 0x00, 0x00, 0x00, 0x00, 0x00, 0x00, 0x00, 0x00, 
.................... 0x00, 0x00, 0x00, 0x00, 0x00, 0x00, 0x00, 0x00, 0x00, 0x00, 0x00, 0x00, 0x00, 0x00, 0x00, 0x00, 
.................... 0x00, 0x00, 0x00, 0x00, 0x00, 0x00, 0x00, 0x00, 0x00, 0x00, 0x00, 0x00, 0x00, 0x00, 0x00, 0x00, 
.................... 0x00, 0x00, 0x00, 0x00, 0x00, 0x00, 0x00, 0x00, 0x00, 0x00, 0x00, 0x00, 0x00, 0x00, 0x00, 0x00, 
.................... 0x00, 0x00, 0x00, 0x00, 0x00, 0x00, 0x00, 0x00, 0x00, 0x00, 0x00, 0x00, 0x00, 0x00, 0x00, 0x00, 
.................... 0x00, 0x00, 0x00, 0x00, 0x00, 0x00, 0x00, 0x00, 0x00, 0x00, 0x00, 0x00, 0x00, 0x00, 0x00, 0x00, 
.................... 0x00, 0x00, 0x00, 0x00, 0x00, 0x00, 0x00, 0x00, 0x00, 0x00, 0x00, 0x00, 0x00, 0x00, 0x00, 0x00, 
.................... 0x00, 0x00, 0x00, 0x00, 0x00, 0x00, 0x00, 0x00, 0x00, 0x00, 0x00, 0x00, 0x00, 0x00, 0x00, 0x00, 
.................... 0x00, 0x00, 0x00, 0x00, 0x00, 0x00, 0x00, 0x00, 0x00, 0x00, 0x00, 0x00, 0x00, 0x00, 0x00, 0x00, 
.................... 0x00, 0x00, 0x00, 0x00, 0x00, 0x00, 0x00, 0x00, 0x00, 0x00, 0x00, 0x00, 0x00, 0x00, 0x00, 0x00, 
.................... 0x00, 0x00, 0x00, 0x00, 0x00, 0x00, 0x00, 0x00, 0x00, 0x00, 0x00, 0x00, 0x00, 0x00, 0x00, 0x00, 
.................... 0x00, 0x00, 0x00, 0x00, 0x00, 0x00, 0x00, 0x00, 0x00, 0x00, 0x00, 0x00, 0x00, 0x00, 0x00, 0x00, 
.................... 0x00, 0x00, 0x00, 0x00, 0x00, 0x00, 0x00, 0x00, 0x00, 0x00, 0x00, 0x00, 0x00, 0x00, 0x00, 0x00, 
.................... 0x00, 0x00, 0x00, 0x00, 0x00, 0x00, 0x00, 0x00, 0x00, 0x00, 0x00, 0x00, 0x00, 0x00, 0x00, 0x00, 
.................... 0x00, 0x00, 0x00, 0x00, 0x00, 0x00, 0x00, 0x00, 0x00, 0x00, 0x00, 0x00, 0x00, 0x00, 0x00, 0x00, 
.................... 0x00, 0x00, 0x00, 0x00, 0x00, 0x00, 0x00, 0x00, 0x00, 0x00, 0x00, 0x00, 0x00, 0x00, 0x00, 0x00, 
.................... 0x00, 0x00, 0x00, 0x00, 0x00, 0x00, 0x00, 0x00, 0x00, 0x00, 0x00, 0x00, 0x00, 0x00, 0x00, 0x00, 
.................... 0x00, 0x00, 0x00, 0x00, 0x00, 0x00, 0x00, 0x00, 0x00, 0x00, 0x00, 0x00, 0x00, 0x00, 0x00, 0x00, 
.................... 0x00, 0x00, 0x00, 0x00, 0x00, 0x00, 0x00, 0x00, 0x00, 0x00, 0x00, 0x00, 0x00, 0x00, 0x00, 0x00, 
.................... 0x00, 0x00, 0x00, 0x00, 0x00, 0x00, 0x00, 0x00, 0x00, 0x00, 0x00, 0x00, 0x00, 0x00, 0x00, 0x00, 
.................... 0x00, 0x00, 0x00, 0x00, 0x00, 0x00, 0x00, 0x00, 0x00, 0x00, 0x00, 0x00, 0x00, 0x00, 0x00, 0x00, 
.................... 0x00, 0x00, 0x00, 0x00, 0x00, 0x00, 0x00, 0x00, 0x00, 0x00, 0x00, 0x00, 0x00, 0x00, 0x00, 0x00, 
.................... 0x00, 0x00, 0x00, 0x00, 0x00, 0x00, 0x00, 0x00, 0x00, 0x00, 0x00, 0x00, 0x00, 0x00, 0x00, 0x00 
.................... }; 
....................  
.................... const int8 Tomai [64][16] = { 
.................... 0x00, 0x00, 0x00, 0x00, 0x00, 0x00, 0x00, 0x00, 0x00, 0x00, 0x00, 0x00, 0x00, 0x00, 0x00, 0x00, 
.................... 0x00, 0x00, 0x00, 0x00, 0x00, 0x00, 0x00, 0x00, 0x00, 0x00, 0x00, 0x00, 0x00, 0x00, 0x00, 0x00, 
.................... 0x00, 0x00, 0x00, 0x00, 0x00, 0x00, 0x00, 0x00, 0x00, 0x00, 0x00, 0x00, 0x00, 0x00, 0x00, 0x00, 
.................... 0x00, 0x00, 0x00, 0x00, 0x00, 0x00, 0x00, 0x00, 0x00, 0x00, 0x00, 0x00, 0x00, 0x00, 0x00, 0x00, 
.................... 0x00, 0x00, 0x00, 0x00, 0x00, 0x00, 0x00, 0x00, 0x00, 0x00, 0x00, 0x00, 0x00, 0x00, 0x00, 0x00, 
.................... 0x00, 0x00, 0x00, 0x00, 0x00, 0x00, 0x00, 0x00, 0x00, 0x00, 0x00, 0x00, 0x00, 0x00, 0x00, 0x00, 
.................... 0x00, 0x00, 0x00, 0x00, 0x00, 0x00, 0x00, 0x00, 0x00, 0x00, 0x00, 0x00, 0x00, 0x00, 0x00, 0x00, 
.................... 0x00, 0x00, 0x00, 0x00, 0x00, 0x00, 0x00, 0x00, 0x00, 0x00, 0x00, 0x00, 0x00, 0x00, 0x00, 0x00, 
.................... 0x00, 0x00, 0x00, 0x00, 0x00, 0x00, 0x00, 0x00, 0x00, 0x00, 0x00, 0x00, 0x00, 0x00, 0x00, 0x00, 
.................... 0x00, 0x00, 0x00, 0x00, 0x00, 0x00, 0x00, 0x00, 0x00, 0x00, 0x00, 0x00, 0x00, 0x00, 0x00, 0x00, 
.................... 0x00, 0x00, 0x00, 0x00, 0x00, 0x00, 0x00, 0x00, 0x00, 0x00, 0x00, 0x00, 0x00, 0x00, 0x00, 0x00, 
.................... 0x00, 0x00, 0x00, 0x00, 0x00, 0x00, 0x00, 0x00, 0x00, 0x00, 0x00, 0x00, 0x00, 0x00, 0x00, 0x00, 
.................... 0x00, 0x00, 0x00, 0x00, 0x00, 0x00, 0x00, 0x00, 0x00, 0x00, 0x00, 0x00, 0x00, 0x00, 0x00, 0x00, 
.................... 0x00, 0x00, 0x00, 0x00, 0x00, 0x00, 0x00, 0x00, 0x00, 0x00, 0x00, 0x00, 0x00, 0x00, 0x00, 0x00, 
.................... 0x00, 0x00, 0x00, 0x00, 0x00, 0x00, 0x00, 0x00, 0x00, 0x00, 0x00, 0x00, 0x00, 0x00, 0x00, 0x00, 
.................... 0x00, 0x00, 0x00, 0x00, 0x00, 0x00, 0x00, 0x00, 0x00, 0x00, 0x00, 0x00, 0x00, 0x00, 0x00, 0x00, 
.................... 0x00, 0x00, 0x00, 0x00, 0x00, 0x00, 0x00, 0x00, 0x00, 0x00, 0x00, 0x00, 0x00, 0x00, 0x00, 0x00, 
.................... 0x00, 0x00, 0x00, 0x00, 0x00, 0x00, 0x00, 0x00, 0x00, 0x00, 0x00, 0x00, 0x00, 0x00, 0x00, 0x00, 
.................... 0x00, 0x00, 0x00, 0x00, 0x00, 0x00, 0x00, 0x00, 0x00, 0x00, 0x00, 0x00, 0x00, 0x00, 0x00, 0x00, 
.................... 0x00, 0x00, 0x00, 0x00, 0x00, 0x00, 0x00, 0x00, 0x00, 0x00, 0x00, 0x00, 0x00, 0x00, 0x00, 0x00, 
.................... 0x00, 0x00, 0x00, 0x00, 0x00, 0x00, 0x00, 0x00, 0x00, 0x00, 0x00, 0x00, 0x00, 0x00, 0x00, 0x00, 
.................... 0x00, 0x00, 0x00, 0x00, 0x00, 0x00, 0x00, 0x00, 0x00, 0x00, 0x00, 0x00, 0x00, 0x00, 0x00, 0x00, 
.................... 0x00, 0x00, 0x00, 0x00, 0x00, 0x00, 0x00, 0x00, 0x00, 0x00, 0x00, 0x00, 0x00, 0x00, 0x00, 0x00, 
.................... 0x00, 0x00, 0x00, 0x00, 0x00, 0x00, 0x00, 0x00, 0x00, 0x00, 0x00, 0x00, 0x00, 0x00, 0x00, 0x00, 
.................... 0x00, 0x00, 0x00, 0x00, 0x00, 0x00, 0x00, 0x00, 0x00, 0x00, 0x00, 0x00, 0x00, 0x00, 0x00, 0x00, 
.................... 0x00, 0x00, 0x00, 0x00, 0x00, 0x00, 0x00, 0x00, 0x00, 0x00, 0x00, 0x00, 0x00, 0x00, 0x00, 0x00, 
.................... 0x00, 0x00, 0x00, 0x00, 0x00, 0x00, 0x00, 0x00, 0x00, 0x00, 0x00, 0x00, 0x00, 0x00, 0x00, 0x00, 
.................... 0x00, 0x00, 0x00, 0x00, 0x00, 0x00, 0x00, 0x00, 0x00, 0x00, 0x00, 0x00, 0x00, 0x00, 0x00, 0x00, 
.................... 0x00, 0x00, 0x00, 0x00, 0x00, 0x00, 0x00, 0x00, 0x00, 0x00, 0x00, 0x00, 0x00, 0x00, 0x00, 0x00, 
.................... 0x00, 0x00, 0x00, 0x00, 0x00, 0x00, 0x00, 0x00, 0x00, 0x00, 0x00, 0x00, 0x00, 0x00, 0x00, 0x00, 
.................... 0x00, 0x00, 0x00, 0x00, 0x00, 0x00, 0x00, 0x00, 0x00, 0x00, 0x00, 0x00, 0x00, 0x7F, 0xFF, 0xF8, 
.................... 0x00, 0x00, 0x00, 0x00, 0x00, 0x00, 0x00, 0x00, 0x00, 0x00, 0x00, 0x00, 0x00, 0x40, 0x00, 0x08, 
.................... 0x00, 0x00, 0x00, 0x00, 0x00, 0x00, 0x00, 0x00, 0x00, 0x00, 0x00, 0x00, 0x00, 0x47, 0x03, 0x88, 
.................... 0x00, 0x00, 0x00, 0x00, 0x00, 0x00, 0x00, 0x00, 0x00, 0x00, 0x00, 0x00, 0x00, 0x45, 0x02, 0x88, 
.................... 0x00, 0x00, 0x00, 0x00, 0x00, 0x00, 0x00, 0x00, 0x00, 0x00, 0x00, 0x00, 0x00, 0x45, 0x02, 0x88, 
.................... 0x00, 0x00, 0x00, 0x00, 0x00, 0x00, 0x00, 0x00, 0x00, 0x00, 0x00, 0x00, 0x00, 0x45, 0x02, 0x88, 
.................... 0x00, 0x00, 0x00, 0x00, 0x00, 0x00, 0x00, 0x00, 0x00, 0x00, 0x00, 0x00, 0x00, 0x45, 0x02, 0x88, 
.................... 0x00, 0x00, 0x00, 0x00, 0x00, 0x00, 0x00, 0x00, 0x00, 0x00, 0x00, 0x00, 0x00, 0x47, 0x03, 0x88, 
.................... 0x00, 0x00, 0x00, 0x00, 0x00, 0x00, 0x00, 0x00, 0x00, 0x00, 0x00, 0x00, 0x00, 0x40, 0x00, 0x08, 
.................... 0x00, 0x00, 0x00, 0x00, 0x00, 0x00, 0x00, 0x00, 0x00, 0x00, 0x00, 0x00, 0x00, 0x40, 0xFC, 0x08, 
.................... 0x00, 0x00, 0x00, 0x00, 0x00, 0x00, 0x00, 0x00, 0x00, 0x00, 0x00, 0x00, 0x00, 0x40, 0x84, 0x08, 
.................... 0x00, 0x00, 0x00, 0x00, 0x00, 0x00, 0x00, 0x00, 0x00, 0x00, 0x00, 0x00, 0x00, 0x40, 0x84, 0x08, 
.................... 0x00, 0x00, 0x00, 0x00, 0x00, 0x00, 0x00, 0x00, 0x00, 0x00, 0x00, 0x00, 0x00, 0x40, 0xFC, 0x08, 
.................... 0x00, 0x00, 0x00, 0x00, 0x00, 0x00, 0x00, 0x00, 0x00, 0x00, 0x00, 0x00, 0x00, 0x40, 0x00, 0x08, 
.................... 0x00, 0x00, 0x00, 0x00, 0x00, 0x00, 0x00, 0x00, 0x00, 0x00, 0x00, 0x00, 0x00, 0x7F, 0xFF, 0xF8, 
.................... 0x00, 0x00, 0x00, 0x00, 0x00, 0x00, 0x00, 0x00, 0x00, 0x00, 0x00, 0x00, 0x00, 0x00, 0x00, 0x00, 
.................... 0x00, 0x00, 0x00, 0x00, 0x00, 0x00, 0x00, 0x00, 0x00, 0x00, 0x00, 0x00, 0x00, 0x00, 0x00, 0x00, 
.................... 0x00, 0x00, 0x00, 0x00, 0x00, 0x00, 0x00, 0x00, 0x00, 0x00, 0x00, 0x00, 0x00, 0x00, 0x00, 0x00, 
.................... 0x00, 0x00, 0x00, 0x00, 0x00, 0x00, 0x00, 0x00, 0x00, 0x00, 0x00, 0x00, 0x00, 0x00, 0x00, 0x00, 
.................... 0x00, 0x00, 0x00, 0x00, 0x00, 0x00, 0x00, 0x00, 0x00, 0x00, 0x00, 0x00, 0x00, 0x00, 0x00, 0x00, 
.................... 0x00, 0x00, 0x00, 0x00, 0x00, 0x00, 0x00, 0x00, 0x00, 0x00, 0x00, 0x00, 0x00, 0x00, 0x00, 0x00, 
.................... 0x00, 0x00, 0x00, 0x00, 0x00, 0x00, 0x00, 0x00, 0x00, 0x00, 0x00, 0x00, 0x00, 0x00, 0x00, 0x00, 
.................... 0x00, 0x00, 0x00, 0x00, 0x00, 0x00, 0x00, 0x00, 0x00, 0x00, 0x00, 0x00, 0x00, 0x00, 0x00, 0x00, 
.................... 0x00, 0x00, 0x00, 0x00, 0x00, 0x00, 0x00, 0x00, 0x00, 0x00, 0x00, 0x00, 0x00, 0x00, 0x00, 0x00, 
.................... 0x00, 0x00, 0x00, 0x00, 0x00, 0x00, 0x00, 0x00, 0x00, 0x00, 0x00, 0x00, 0x00, 0x00, 0x00, 0x00, 
.................... 0x00, 0x00, 0x00, 0x00, 0x00, 0x00, 0x00, 0x00, 0x00, 0x00, 0x00, 0x00, 0x00, 0x00, 0x00, 0x00, 
.................... 0x00, 0x00, 0x00, 0x00, 0x00, 0x00, 0x00, 0x00, 0x00, 0x00, 0x00, 0x00, 0x00, 0x00, 0x00, 0x00, 
.................... 0x00, 0x00, 0x00, 0x00, 0x00, 0x00, 0x00, 0x00, 0x00, 0x00, 0x00, 0x00, 0x00, 0x00, 0x00, 0x00, 
.................... 0x00, 0x00, 0x00, 0x00, 0x00, 0x00, 0x00, 0x00, 0x00, 0x00, 0x00, 0x00, 0x00, 0x00, 0x00, 0x00, 
.................... 0x00, 0x00, 0x00, 0x00, 0x00, 0x00, 0x00, 0x00, 0x00, 0x00, 0x00, 0x00, 0x00, 0x00, 0x00, 0x00, 
.................... 0x00, 0x00, 0x00, 0x00, 0x00, 0x00, 0x00, 0x00, 0x00, 0x00, 0x00, 0x00, 0x00, 0x00, 0x00, 0x00, 
.................... 0x00, 0x00, 0x00, 0x00, 0x00, 0x00, 0x00, 0x00, 0x00, 0x00, 0x00, 0x00, 0x00, 0x00, 0x00, 0x00, 
.................... 0x00, 0x00, 0x00, 0x00, 0x00, 0x00, 0x00, 0x00, 0x00, 0x00, 0x00, 0x00, 0x00, 0x00, 0x00, 0x00, 
.................... 0x00, 0x00, 0x00, 0x00, 0x00, 0x00, 0x00, 0x00, 0x00, 0x00, 0x00, 0x00, 0x00, 0x00, 0x00, 0x00 
.................... }; 
....................  
.................... const int8 Ventilador [64][16] = { 
.................... 0x00, 0x00, 0x00, 0x00, 0x00, 0x00, 0x00, 0x00, 0x00, 0x00, 0x00, 0x00, 0x00, 0x00, 0x00, 0x00, 
.................... 0x00, 0x00, 0x00, 0x00, 0x00, 0x00, 0x00, 0x00, 0x00, 0x00, 0x00, 0x00, 0x00, 0x00, 0x00, 0x00, 
.................... 0x00, 0x00, 0x00, 0x00, 0x00, 0x00, 0x00, 0x00, 0x00, 0x00, 0x00, 0x00, 0x00, 0x00, 0x00, 0x00, 
.................... 0x00, 0x00, 0x00, 0x00, 0x00, 0x00, 0x00, 0x00, 0x00, 0x00, 0x00, 0x00, 0x00, 0x00, 0x00, 0x00, 
.................... 0x00, 0x00, 0x00, 0x00, 0x00, 0x00, 0x00, 0x00, 0x00, 0x00, 0x00, 0x00, 0x00, 0x00, 0x00, 0x00, 
.................... 0x00, 0x00, 0x00, 0x00, 0x00, 0x00, 0x00, 0x00, 0x00, 0x00, 0x00, 0x00, 0x00, 0x00, 0x00, 0x00, 
.................... 0x00, 0x00, 0x00, 0x00, 0x00, 0x00, 0x00, 0x00, 0x00, 0x00, 0x00, 0x00, 0x00, 0x00, 0x00, 0x00, 
.................... 0x00, 0x00, 0x00, 0x00, 0x00, 0x00, 0x00, 0x00, 0x00, 0x00, 0x00, 0x00, 0x00, 0x00, 0x00, 0x00, 
.................... 0x00, 0x00, 0x00, 0x00, 0x00, 0x00, 0x00, 0x00, 0x00, 0x00, 0x00, 0x00, 0x00, 0x00, 0x00, 0x00, 
.................... 0x00, 0x00, 0x00, 0x00, 0x00, 0x00, 0x00, 0x00, 0x00, 0x00, 0x00, 0x00, 0x00, 0x00, 0x00, 0x00, 
.................... 0x00, 0x00, 0x00, 0x00, 0x00, 0x00, 0x00, 0x00, 0x00, 0x00, 0x00, 0x00, 0x00, 0x00, 0x00, 0x00, 
.................... 0x00, 0x00, 0x00, 0x00, 0x00, 0x00, 0x00, 0x00, 0x00, 0x00, 0x00, 0x00, 0x00, 0x00, 0x00, 0x00, 
.................... 0x00, 0x00, 0x00, 0x00, 0x00, 0x00, 0x00, 0x00, 0x00, 0x00, 0x00, 0x00, 0x00, 0x00, 0x00, 0x00, 
.................... 0x00, 0x00, 0x00, 0x00, 0x00, 0x00, 0x00, 0x00, 0x00, 0x00, 0x00, 0x00, 0x00, 0x00, 0x00, 0x00, 
.................... 0x00, 0x00, 0x00, 0x00, 0x00, 0x00, 0x00, 0x00, 0x00, 0x00, 0x00, 0x00, 0x00, 0x00, 0x00, 0x00, 
.................... 0x00, 0x00, 0x00, 0x00, 0x00, 0x00, 0x00, 0x00, 0x00, 0x00, 0x00, 0x00, 0x00, 0x00, 0x00, 0x00, 
.................... 0x00, 0x00, 0x00, 0x00, 0x00, 0x00, 0x00, 0x00, 0x00, 0x00, 0x00, 0x00, 0x00, 0x00, 0x00, 0x00, 
.................... 0x00, 0x00, 0x00, 0x00, 0x00, 0x00, 0x00, 0x00, 0x00, 0x00, 0x00, 0x00, 0x00, 0x00, 0x00, 0x00, 
.................... 0x00, 0x00, 0x00, 0x00, 0x00, 0x00, 0x00, 0x00, 0x00, 0x00, 0x00, 0x00, 0x00, 0x00, 0x00, 0x00, 
.................... 0x00, 0x00, 0x00, 0x00, 0x00, 0x00, 0x00, 0x00, 0x00, 0x00, 0x00, 0x00, 0x00, 0x00, 0x00, 0x00, 
.................... 0x00, 0x00, 0x00, 0x00, 0x00, 0x00, 0x00, 0x00, 0x00, 0x00, 0x00, 0x00, 0x00, 0x00, 0x00, 0x00, 
.................... 0x00, 0x00, 0x00, 0x00, 0x00, 0x00, 0x00, 0x00, 0x00, 0x00, 0x00, 0x00, 0x00, 0x00, 0x00, 0x00, 
.................... 0x00, 0x00, 0x00, 0x00, 0x00, 0x00, 0x00, 0x00, 0x00, 0x00, 0x00, 0x00, 0x00, 0x00, 0x00, 0x00, 
.................... 0x00, 0x00, 0x00, 0x00, 0x00, 0x00, 0x00, 0x00, 0x00, 0x00, 0x00, 0x00, 0x00, 0x00, 0x00, 0x00, 
.................... 0x00, 0x00, 0x00, 0x00, 0x00, 0x00, 0x00, 0x00, 0x00, 0x00, 0x00, 0x00, 0x00, 0x00, 0x00, 0x00, 
.................... 0x00, 0x00, 0x00, 0x00, 0x00, 0x00, 0x00, 0x00, 0x00, 0x00, 0x00, 0x00, 0x00, 0x00, 0x00, 0x00, 
.................... 0x00, 0x00, 0x00, 0x00, 0x00, 0x00, 0x00, 0x00, 0x00, 0x00, 0x00, 0x00, 0x00, 0x00, 0x00, 0x00, 
.................... 0x00, 0x00, 0x00, 0x00, 0x00, 0x00, 0x00, 0x00, 0x00, 0x00, 0x00, 0x00, 0x00, 0x00, 0x00, 0x00, 
.................... 0x00, 0x00, 0x00, 0x00, 0x00, 0x00, 0x00, 0x00, 0x00, 0x00, 0x00, 0x00, 0x00, 0x00, 0x00, 0x00, 
.................... 0x00, 0x00, 0x00, 0x00, 0x00, 0x00, 0x00, 0x00, 0x00, 0x00, 0x00, 0x00, 0x00, 0x00, 0x00, 0x00, 
.................... 0x00, 0x00, 0x00, 0x00, 0x00, 0x00, 0x00, 0x00, 0x00, 0x00, 0x00, 0x00, 0x00, 0x00, 0x00, 0x00, 
.................... 0x00, 0x00, 0x00, 0x00, 0x00, 0x00, 0x00, 0x00, 0x00, 0x00, 0x00, 0x00, 0x00, 0x00, 0x00, 0x00, 
.................... 0x00, 0x00, 0x00, 0x00, 0x00, 0x00, 0x00, 0x00, 0x00, 0x00, 0x00, 0x00, 0x00, 0x00, 0x00, 0x00, 
.................... 0x00, 0x00, 0x00, 0x00, 0x00, 0x00, 0x00, 0x00, 0x00, 0x00, 0x00, 0x00, 0x00, 0x00, 0x00, 0x00, 
.................... 0x00, 0x00, 0x00, 0x00, 0x00, 0x00, 0x00, 0x00, 0x00, 0x00, 0x00, 0x00, 0x00, 0x00, 0x00, 0x00, 
.................... 0x00, 0x00, 0x00, 0x00, 0x00, 0x00, 0x00, 0x00, 0x00, 0x00, 0x00, 0x00, 0x00, 0x00, 0x00, 0x00, 
.................... 0x00, 0x00, 0x00, 0x00, 0x00, 0x00, 0x00, 0x00, 0x00, 0x00, 0x00, 0x00, 0x00, 0x00, 0x00, 0x00, 
.................... 0x00, 0x00, 0x00, 0x00, 0x00, 0x00, 0x00, 0x00, 0x00, 0x00, 0x00, 0x00, 0x00, 0x00, 0x00, 0x00, 
.................... 0x00, 0x00, 0x00, 0x00, 0x00, 0x00, 0x00, 0x00, 0x00, 0x00, 0x00, 0x00, 0x00, 0x00, 0x00, 0x00, 
.................... 0x00, 0x00, 0x00, 0x00, 0x00, 0x00, 0x00, 0x00, 0x00, 0x00, 0x00, 0x00, 0x00, 0x00, 0x00, 0x00, 
.................... 0x00, 0x00, 0x00, 0x00, 0x00, 0x00, 0x00, 0x00, 0x00, 0x00, 0x00, 0x00, 0x00, 0x00, 0x00, 0x00, 
.................... 0x00, 0x00, 0x00, 0x00, 0x00, 0x00, 0x00, 0x00, 0x00, 0x00, 0x00, 0x00, 0x00, 0x00, 0x00, 0x00, 
.................... 0x00, 0x00, 0x00, 0x00, 0x00, 0x00, 0x00, 0x00, 0x00, 0x00, 0x00, 0x00, 0x00, 0x00, 0x00, 0x00, 
.................... 0x00, 0x00, 0x00, 0x00, 0x00, 0x00, 0x00, 0x00, 0x00, 0x00, 0x00, 0x00, 0x00, 0x00, 0x00, 0x00, 
.................... 0x00, 0x00, 0x00, 0x00, 0x00, 0x00, 0x00, 0x00, 0x00, 0x00, 0x00, 0x00, 0x00, 0x00, 0x00, 0x00, 
.................... 0x00, 0x00, 0x00, 0x00, 0x00, 0x00, 0x00, 0x00, 0x00, 0x00, 0x00, 0x00, 0x00, 0x00, 0x00, 0x00, 
.................... 0x00, 0x00, 0x00, 0x00, 0x00, 0x00, 0x00, 0x00, 0x00, 0x00, 0x00, 0x00, 0x00, 0x00, 0x60, 0x00, 
.................... 0x00, 0x00, 0x00, 0x00, 0x00, 0x00, 0x00, 0x00, 0x00, 0x00, 0x00, 0x00, 0x00, 0x00, 0xF0, 0x00, 
.................... 0x00, 0x00, 0x00, 0x00, 0x00, 0x00, 0x00, 0x00, 0x00, 0x00, 0x00, 0x00, 0x00, 0x01, 0xF8, 0x00, 
.................... 0x00, 0x00, 0x00, 0x00, 0x00, 0x00, 0x00, 0x00, 0x00, 0x00, 0x00, 0x00, 0x00, 0x01, 0xF8, 0x00, 
.................... 0x00, 0x00, 0x00, 0x00, 0x00, 0x00, 0x00, 0x00, 0x00, 0x00, 0x00, 0x00, 0x00, 0x01, 0xF8, 0x00, 
.................... 0x00, 0x00, 0x00, 0x00, 0x00, 0x00, 0x00, 0x00, 0x00, 0x00, 0x00, 0x00, 0x00, 0x00, 0xF0, 0x00, 
.................... 0x00, 0x00, 0x00, 0x00, 0x00, 0x00, 0x00, 0x00, 0x00, 0x00, 0x00, 0x00, 0x00, 0x38, 0x71, 0xC0, 
.................... 0x00, 0x00, 0x00, 0x00, 0x00, 0x00, 0x00, 0x00, 0x00, 0x00, 0x00, 0x00, 0x00, 0x7C, 0x93, 0xE0, 
.................... 0x00, 0x00, 0x00, 0x00, 0x00, 0x00, 0x00, 0x00, 0x00, 0x00, 0x00, 0x00, 0x00, 0xFF, 0x0F, 0xF0, 
.................... 0x00, 0x00, 0x00, 0x00, 0x00, 0x00, 0x00, 0x00, 0x00, 0x00, 0x00, 0x00, 0x00, 0xFF, 0x0F, 0xF0, 
.................... 0x00, 0x00, 0x00, 0x00, 0x00, 0x00, 0x00, 0x00, 0x00, 0x00, 0x00, 0x00, 0x00, 0x7D, 0x93, 0xE0, 
.................... 0x00, 0x00, 0x00, 0x00, 0x00, 0x00, 0x00, 0x00, 0x00, 0x00, 0x00, 0x00, 0x00, 0x38, 0x61, 0xC0, 
.................... 0x00, 0x00, 0x00, 0x00, 0x00, 0x00, 0x00, 0x00, 0x00, 0x00, 0x00, 0x00, 0x00, 0x00, 0xF0, 0x00, 
.................... 0x00, 0x00, 0x00, 0x00, 0x00, 0x00, 0x00, 0x00, 0x00, 0x00, 0x00, 0x00, 0x00, 0x01, 0xF8, 0x00, 
.................... 0x00, 0x00, 0x00, 0x00, 0x00, 0x00, 0x00, 0x00, 0x00, 0x00, 0x00, 0x00, 0x00, 0x01, 0xF8, 0x00, 
.................... 0x00, 0x00, 0x00, 0x00, 0x00, 0x00, 0x00, 0x00, 0x00, 0x00, 0x00, 0x00, 0x00, 0x01, 0xF8, 0x00, 
.................... 0x00, 0x00, 0x00, 0x00, 0x00, 0x00, 0x00, 0x00, 0x00, 0x00, 0x00, 0x00, 0x00, 0x00, 0xF0, 0x00, 
.................... 0x00, 0x00, 0x00, 0x00, 0x00, 0x00, 0x00, 0x00, 0x00, 0x00, 0x00, 0x00, 0x00, 0x00, 0x60, 0x00 
.................... }; 
....................  
....................  
.................... #define   UP               input(PIN_E1) 
.................... #define   DOWN             input(PIN_E2) 
.................... #define   RIGHT            input(PIN_C0) 
.................... #define   LEFT             input(PIN_C1) 
.................... #define   VIDRIOUP         input(PIN_A5) 
.................... #define   VIDRIODN         input(PIN_A4) 
....................  
.................... #define   Alarma_on           output_bit(PIN_C2,1) 
.................... #define   Alarma_off          output_bit(PIN_C2,0) 
.................... #define   LuzBlanca_on        output_bit(PIN_C4,1) 
.................... #define   LuzBlanca_off       output_bit(PIN_C4,0) 
.................... #define   LuzUV_on            output_bit(PIN_C5,1) 
.................... #define   LuzUV_off           output_bit(PIN_C5,0) 
.................... #define   Motor_on            output_bit(PIN_C6,1) 
.................... #define   Motor_off           output_bit(PIN_C6,0) 
.................... #define   Toma_on             output_bit(PIN_C7,1) 
.................... #define   Toma_off            output_bit(PIN_C7,0) 
.................... #define   Display_on          output_bit(PIN_B1,1) 
.................... #define   Display_off         output_bit(PIN_B1,0) 
.................... #define   O1_on               output_bit(PIN_E0,1) 
.................... #define   O1_off              output_bit(PIN_E0,0) 
.................... #define   O2_on               output_bit(PIN_C3,1) 
.................... #define   O2_off              output_bit(PIN_C3,0) 
....................  
.................... int16 tiempos=0; 
.................... int8 i=0; 
....................  
.................... short Flanco=0,Flanco1=0,Flanco2=0,Flanco3=0,Flanco4=0,Flanco5=0,Flanco6=0,imprimir=0,flag_uv=0,flag_blower=0,flag_toma=0,flag_luz=0,flag_alarma=0,w=0; 
.................... short tiempo_purga=0,tiempo_uv=0,tiempo_trabajo=0,tiempo_postpurga=0,Latencia=0,flag_latencia=0; 
.................... short guardauv=0,guardatrabajo=0,Lectura=0,n=0,flag_alarma2=0; 
.................... char  JP[] = "JP Inglobal", Cabina[] = "Cabina Extractora",tiempo_est[]="T est=", Dos_puntos[]=":"; 
.................... char  Clase[] = "Sin Ductos", Tiempo[] = "Tiempo de Purga", UV[]="UV"; 
.................... char  Baje_Vidrio[] = "!!Ubique Vidrio!!",Inflowt[] = "JPCEGH-F-A",Downflowt[] = "Inflow(m/s):", ZF[] = "Fabrica:208.0", ZA[] = "Actual:",AJ[]="Ajuste:"; 
.................... char  Vida_UV[] = "UVLife:",Vida_Filtro[] = "Filter:",ZFP[] = "Fabrica:235.0", Perdida[]="!Perdida Flujo!"; 
.................... int8 Menu=200, unidad=1, Opcion=1,inicie=0,negativo=10,G_l=0,G_h=0,tiemporeset=0; 
.................... int8 q=0,r=0,l=0,h=0,Entero=0,Decimal1=0,LuzUV=10,Motor=10,Alarma=10,UV2=0,e=0,m=0; 
....................  
.................... unsigned int16 Inflow_adc=0,Filtro_Downflow_adc=0,Temporal1=0; 
....................  
.................... int16 t_latencia=0,minutos_uv=0,minutos_trabajo=0,G16=0; 
.................... signed int  Tpurga[4]={0,0,0,0};       // Tiempo de Purga transcurrido 
.................... signed int  Tpurgap[4]={9,0,0,0};      // Tiempo de Purga programado 
.................... signed int  Tppurga[4]={0,0,0,0};      // Tiempo de Post-Purga transcurrido 
.................... signed int  Tppurgap[4]={9,0,0,0};     // Tiempo de Post-Purga programado 
.................... signed int  Tuv[4]={0,0,0,0};          // Tiempo de UV transcurrido(en Horas) 
.................... signed int  Tempouv[4]={0,0,0,0};         // Tiempo de UV transcurrido 
.................... signed int  Tempouvp[4]={0,0,0,0};        // Tiempo de UV transcurrido 
.................... signed int  Ttrabajo[4]={0,0,0,0};        // Tiempo de trabajo transcurrido (en Horas) 
.................... signed int  Contrasena[4]={0,0,0,0};      // Contrasena de 4 digitos 
.................... signed int  Password[4]={0,0,0,0};        // Contrasena Almacenada de 4 digitos 
.................... float Inflow=0.0,Downflow=0.0,Filtro_Downflow=0.0,Diferencia=0.0,barra=0.0,barra_old=0.0,barra2=0.0,barra_old2=0.0; 
.................... float Velocidad=0.0,x_uno=0.0,x_cuadrado=0.0,x_cubo=0.0,Ajuste1=0.0,Ajuste2=0.0; 
.................... float ADC=0,Temporal=0.0,Temporal2=0.0; 
.................... float a=0.00000957915546738639,b=-0.00727819571978831,c= 1.85375754678451,d= -156.816806902063; 
.................... //float t=378.463968402560,f=-18275.0402762787;//Sensor 2 Posible bueno 
....................  
.................... float promedio[8]={0.0,0.0,0.0,0.0,0.0,0.0,0.0,0.0}; 
.................... float PromPresion[8]={0.0,0.0,0.0,0.0,0.0,0.0,0.0,0.0}; 
.................... float Flujo=0.0,zero_fabrica=208.0,zero_actual=0.0; 
.................... float V1=0.0,Presion=0.0,G=2.0,UVTime=0.0; 
....................  
.................... int16 Vector[40]; 
....................  
.................... int1 BITS[32]; 
.................... int16 Ta,Tb,TICK=0; 
.................... Int1 BIT_START, NUEVO_DATO=0; 
.................... int BYTE_IR[4]; 
.................... int8 BIT_BYTE(int1 D7, int1 D6, int1 D5, int1 D4, int1 D3, int1 D2, int1 D1, int1 D0); 
....................  
.................... typedef struct{ 
....................    char Letra[20]; 
.................... }MENUU; 
....................  
.................... MENUU Menus; 
....................  
.................... void glcd_imagen(int8 x) 
.................... { 
....................    char i,j; 
....................    signed char k;  
....................       
....................    if(x==3){ 
*
03B06:  MOVLB  6
03B08:  MOVF   x47,W
03B0A:  SUBLW  03
03B0C:  BNZ   3BAE
....................    for( i = 0 ; i < 64 ; i ++ ) 
03B0E:  CLRF   x48
03B10:  MOVF   x48,W
03B12:  SUBLW  3F
03B14:  BNC   3BAE
....................    {  for( j = 0 ; j < 16 ; j ++) 
03B16:  CLRF   x49
03B18:  MOVF   x49,W
03B1A:  SUBLW  0F
03B1C:  BNC   3BAA
....................       {  for(k=7;k>-1;k--) 
03B1E:  MOVLW  07
03B20:  MOVWF  x4A
03B22:  MOVF   x4A,W
03B24:  XORLW  80
03B26:  SUBLW  7F
03B28:  BC    3BA6
....................          {       
....................             if( bit_test(Bombillo[i][j] ,7-k ))  
03B2A:  CLRF   x4C
03B2C:  MOVFF  648,64B
03B30:  CLRF   x4E
03B32:  MOVLW  10
03B34:  MOVWF  x4D
03B36:  MOVLB  0
03B38:  RCALL  3AE4
03B3A:  MOVFF  02,64C
03B3E:  MOVFF  01,64B
03B42:  MOVLB  6
03B44:  MOVF   x49,W
03B46:  ADDWF  01,W
03B48:  MOVWF  01
03B4A:  MOVLW  00
03B4C:  ADDWFC 02,W
03B4E:  MOVWF  03
03B50:  MOVF   01,W
03B52:  MOVFF  FF2,64B
03B56:  BCF    FF2.7
03B58:  MOVFF  03,FF7
03B5C:  MOVLB  0
03B5E:  CALL   02C2
03B62:  MOVLB  6
03B64:  BTFSC  x4B.7
03B66:  BSF    FF2.7
03B68:  MOVWF  x4B
03B6A:  MOVLW  07
03B6C:  BSF    FD8.0
03B6E:  SUBFWB x4A,W
03B70:  MOVWF  x4C
03B72:  MOVFF  64B,00
03B76:  MOVF   x4C,W
03B78:  MOVWF  01
03B7A:  BZ    3B84
03B7C:  BCF    FD8.0
03B7E:  RRCF   00,F
03B80:  DECFSZ 01,F
03B82:  BRA    3B7C
03B84:  BTFSS  00.0
03B86:  BRA    3BA2
....................                glcd_pixel( j*8+k,i, ON ); 
03B88:  MOVF   x49,W
03B8A:  MULLW  08
03B8C:  MOVF   FF3,W
03B8E:  ADDWF  x4A,W
03B90:  MOVWF  x4B
03B92:  MOVWF  x79
03B94:  MOVFF  648,67A
03B98:  MOVLW  01
03B9A:  MOVWF  x7B
03B9C:  MOVLB  0
03B9E:  RCALL  3420
03BA0:  MOVLB  6
....................          }   
03BA2:  DECF   x4A,F
03BA4:  BRA    3B22
....................       } 
03BA6:  INCF   x49,F
03BA8:  BRA    3B18
....................    } 
03BAA:  INCF   x48,F
03BAC:  BRA    3B10
....................    } 
....................     
....................    if(x==4){ 
03BAE:  MOVF   x47,W
03BB0:  SUBLW  04
03BB2:  BNZ   3C56
....................    for( i = 0 ; i < 64 ; i ++ ) 
03BB4:  CLRF   x48
03BB6:  MOVF   x48,W
03BB8:  SUBLW  3F
03BBA:  BNC   3C56
....................    {  for( j = 0 ; j < 16 ; j ++) 
03BBC:  CLRF   x49
03BBE:  MOVF   x49,W
03BC0:  SUBLW  0F
03BC2:  BNC   3C52
....................       {  for(k=7;k>-1;k--) 
03BC4:  MOVLW  07
03BC6:  MOVWF  x4A
03BC8:  MOVF   x4A,W
03BCA:  XORLW  80
03BCC:  SUBLW  7F
03BCE:  BC    3C4E
....................          {       
....................             if( bit_test(Tomai[i][j] ,7-k ))  
03BD0:  CLRF   x4C
03BD2:  MOVFF  648,64B
03BD6:  CLRF   x4E
03BD8:  MOVLW  10
03BDA:  MOVWF  x4D
03BDC:  MOVLB  0
03BDE:  RCALL  3AE4
03BE0:  MOVFF  02,64C
03BE4:  MOVFF  01,64B
03BE8:  MOVLB  6
03BEA:  MOVF   x49,W
03BEC:  ADDWF  01,W
03BEE:  MOVWF  01
03BF0:  MOVLW  00
03BF2:  ADDWFC 02,W
03BF4:  MOVWF  03
03BF6:  MOVF   01,W
03BF8:  MOVFF  FF2,64B
03BFC:  BCF    FF2.7
03BFE:  MOVFF  03,FF7
03C02:  MOVLB  0
03C04:  CALL   06DE
03C08:  MOVLB  6
03C0A:  BTFSC  x4B.7
03C0C:  BSF    FF2.7
03C0E:  MOVWF  x4B
03C10:  MOVLW  07
03C12:  BSF    FD8.0
03C14:  SUBFWB x4A,W
03C16:  MOVWF  x4C
03C18:  MOVFF  64B,00
03C1C:  MOVF   x4C,W
03C1E:  MOVWF  01
03C20:  BZ    3C2A
03C22:  BCF    FD8.0
03C24:  RRCF   00,F
03C26:  DECFSZ 01,F
03C28:  BRA    3C22
03C2A:  BTFSS  00.0
03C2C:  BRA    3C4A
....................                glcd_pixel( j*8+k,i, ON ); 
03C2E:  MOVF   x49,W
03C30:  MULLW  08
03C32:  MOVF   FF3,W
03C34:  ADDWF  x4A,W
03C36:  MOVWF  x4B
03C38:  MOVWF  x79
03C3A:  MOVFF  648,67A
03C3E:  MOVLW  01
03C40:  MOVWF  x7B
03C42:  MOVLB  0
03C44:  CALL   3420
03C48:  MOVLB  6
....................          }   
03C4A:  DECF   x4A,F
03C4C:  BRA    3BC8
....................       } 
03C4E:  INCF   x49,F
03C50:  BRA    3BBE
....................    } 
03C52:  INCF   x48,F
03C54:  BRA    3BB6
....................    } 
....................     
....................    if(x==5){ 
03C56:  MOVF   x47,W
03C58:  SUBLW  05
03C5A:  BNZ   3CFE
....................    for( i = 0 ; i < 64 ; i ++ ) 
03C5C:  CLRF   x48
03C5E:  MOVF   x48,W
03C60:  SUBLW  3F
03C62:  BNC   3CFE
....................    {  for( j = 0 ; j < 16 ; j ++) 
03C64:  CLRF   x49
03C66:  MOVF   x49,W
03C68:  SUBLW  0F
03C6A:  BNC   3CFA
....................       {  for(k=7;k>-1;k--) 
03C6C:  MOVLW  07
03C6E:  MOVWF  x4A
03C70:  MOVF   x4A,W
03C72:  XORLW  80
03C74:  SUBLW  7F
03C76:  BC    3CF6
....................          {       
....................             if( bit_test(Ventilador[i][j] ,7-k ))  
03C78:  CLRF   x4C
03C7A:  MOVFF  648,64B
03C7E:  CLRF   x4E
03C80:  MOVLW  10
03C82:  MOVWF  x4D
03C84:  MOVLB  0
03C86:  RCALL  3AE4
03C88:  MOVFF  02,64C
03C8C:  MOVFF  01,64B
03C90:  MOVLB  6
03C92:  MOVF   x49,W
03C94:  ADDWF  01,W
03C96:  MOVWF  01
03C98:  MOVLW  00
03C9A:  ADDWFC 02,W
03C9C:  MOVWF  03
03C9E:  MOVF   01,W
03CA0:  MOVFF  FF2,64B
03CA4:  BCF    FF2.7
03CA6:  MOVFF  03,FF7
03CAA:  MOVLB  0
03CAC:  CALL   0AFA
03CB0:  MOVLB  6
03CB2:  BTFSC  x4B.7
03CB4:  BSF    FF2.7
03CB6:  MOVWF  x4B
03CB8:  MOVLW  07
03CBA:  BSF    FD8.0
03CBC:  SUBFWB x4A,W
03CBE:  MOVWF  x4C
03CC0:  MOVFF  64B,00
03CC4:  MOVF   x4C,W
03CC6:  MOVWF  01
03CC8:  BZ    3CD2
03CCA:  BCF    FD8.0
03CCC:  RRCF   00,F
03CCE:  DECFSZ 01,F
03CD0:  BRA    3CCA
03CD2:  BTFSS  00.0
03CD4:  BRA    3CF2
....................                glcd_pixel( j*8+k,i, ON ); 
03CD6:  MOVF   x49,W
03CD8:  MULLW  08
03CDA:  MOVF   FF3,W
03CDC:  ADDWF  x4A,W
03CDE:  MOVWF  x4B
03CE0:  MOVWF  x79
03CE2:  MOVFF  648,67A
03CE6:  MOVLW  01
03CE8:  MOVWF  x7B
03CEA:  MOVLB  0
03CEC:  CALL   3420
03CF0:  MOVLB  6
....................          }   
03CF2:  DECF   x4A,F
03CF4:  BRA    3C70
....................       } 
03CF6:  INCF   x49,F
03CF8:  BRA    3C66
....................    } 
03CFA:  INCF   x48,F
03CFC:  BRA    3C5E
....................    } 
.................... } 
03CFE:  MOVLB  0
03D00:  RETLW  00
....................  
.................... #int_EXT 
.................... void RB0(){ 
....................    Ta=get_timer1(); 
*
01120:  MOVF   FCE,W
01122:  MOVLB  6
01124:  MOVWF  x27
01126:  MOVFF  FCF,628
....................    set_timer1(0); 
0112A:  CLRF   FCF
0112C:  CLRF   FCE
....................    TICK = Ta; 
0112E:  MOVFF  628,62C
01132:  MOVFF  627,62B
....................    //TICK = Ta-tb; 
....................    Tb = Ta; 
01136:  MOVFF  628,62A
0113A:  MOVFF  627,629
....................     
....................    Vector[e]=TICK; 
0113E:  BCF    FD8.0
01140:  MOVLB  4
01142:  RLCF   xEB,W
01144:  CLRF   03
01146:  ADDLW  D3
01148:  MOVWF  FE9
0114A:  MOVLW  05
0114C:  ADDWFC 03,W
0114E:  MOVWF  FEA
01150:  MOVFF  62C,FEC
01154:  MOVF   FED,F
01156:  MOVFF  62B,FEF
....................    e++; 
0115A:  INCF   xEB,F
....................    if(e>39) 
0115C:  MOVF   xEB,W
0115E:  SUBLW  27
01160:  BC    1164
....................       e=0; 
01162:  CLRF   xEB
....................     
....................    if(BIT_START==1){ 
01164:  BTFSS  x1D.1
01166:  BRA    11E2
....................        //BIT 1 
....................        if(TICK>1300 && TICK < 1500)  // 700 con Pres 4 y 20MHz  
01168:  MOVLB  6
0116A:  MOVF   x2C,W
0116C:  SUBLW  04
0116E:  BC    11A2
01170:  XORLW  FF
01172:  BNZ   117A
01174:  MOVF   x2B,W
01176:  SUBLW  14
01178:  BC    11A2
0117A:  MOVF   x2C,W
0117C:  SUBLW  05
0117E:  BNC   11A2
01180:  BNZ   1188
01182:  MOVF   x2B,W
01184:  SUBLW  DB
01186:  BNC   11A2
....................       { 
....................          BITS[m]=1; m++;    
01188:  MOVFF  4EC,68C
0118C:  MOVLW  01
0118E:  MOVWF  x8D
01190:  MOVLW  06
01192:  MOVWF  x8F
01194:  MOVLW  23
01196:  MOVWF  x8E
01198:  MOVLB  0
0119A:  RCALL  10DE
0119C:  MOVLB  4
0119E:  INCF   xEC,F
011A0:  MOVLB  6
....................       } 
....................       //BIT 0 
....................        if(TICK>600 && TICK < 800)  // 350 con Pres 4 y 20MHz  
011A2:  MOVF   x2C,W
011A4:  SUBLW  01
011A6:  BC    11D6
011A8:  XORLW  FF
011AA:  BNZ   11B2
011AC:  MOVF   x2B,W
011AE:  SUBLW  58
011B0:  BC    11D6
011B2:  MOVF   x2C,W
011B4:  SUBLW  03
011B6:  BNC   11D6
011B8:  BNZ   11C0
011BA:  MOVF   x2B,W
011BC:  SUBLW  1F
011BE:  BNC   11D6
....................       { 
....................          BITS[m]=0; m++; 
011C0:  MOVFF  4EC,68C
011C4:  CLRF   x8D
011C6:  MOVLW  06
011C8:  MOVWF  x8F
011CA:  MOVLW  23
011CC:  MOVWF  x8E
011CE:  MOVLB  0
011D0:  RCALL  10DE
011D2:  MOVLB  4
011D4:  INCF   xEC,F
....................       } 
....................       if(m>=32){ 
011D6:  MOVLB  4
011D8:  MOVF   xEC,W
011DA:  SUBLW  1F
011DC:  BC    11E2
....................          NUEVO_DATO=1; 
011DE:  BSF    x1D.2
....................          BIT_START=0;    
011E0:  BCF    x1D.1
....................       } 
....................     
....................    } 
....................    //BIT STAR 
....................    if(TICK>5000 && TICK < 8000 && BIT_START==0 )  //3500 con Pres 4 y 20MHz  
011E2:  MOVLB  6
011E4:  MOVF   x2C,W
011E6:  SUBLW  12
011E8:  BC    1212
011EA:  XORLW  FF
011EC:  BNZ   11F4
011EE:  MOVF   x2B,W
011F0:  SUBLW  88
011F2:  BC    1212
011F4:  MOVF   x2C,W
011F6:  SUBLW  1F
011F8:  BNC   1212
011FA:  BNZ   1202
011FC:  MOVF   x2B,W
011FE:  SUBLW  3F
01200:  BNC   1212
01202:  MOVLB  4
01204:  BTFSS  x1D.1
01206:  BRA    120C
01208:  MOVLB  6
0120A:  BRA    1212
....................    { 
....................       BIT_START=1; 
0120C:  BSF    x1D.1
....................       m=0;  
0120E:  CLRF   xEC
01210:  MOVLB  6
....................       //Alarma_on; 
....................    } 
.................... } 
....................  
.................... // Funcion para conversor analogo-digital 
01212:  BCF    FF2.1
01214:  MOVLB  0
01216:  GOTO   0064
.................... unsigned int16 sensores(int x){ 
.................... unsigned int16 y;set_adc_channel(x);delay_ms(1);y=read_adc();return (y); 
*
018FC:  MOVLB  6
018FE:  RLCF   x4C,W
01900:  MOVWF  00
01902:  RLCF   00,F
01904:  MOVLW  FC
01906:  ANDWF  00,F
01908:  MOVFF  00,01
0190C:  MOVF   FC2,W
0190E:  ANDLW  C3
01910:  IORWF  00,W
01912:  MOVWF  FC2
01914:  MOVLW  01
01916:  MOVWF  x4F
01918:  MOVLB  0
0191A:  RCALL  1396
0191C:  BSF    FC2.1
0191E:  BTFSC  FC2.1
01920:  BRA    191E
01922:  MOVFF  FC4,64E
01926:  MOVLB  6
01928:  MOVFF  FC3,64D
0192C:  MOVFF  64D,01
01930:  MOVFF  64E,02
.................... } 
01934:  MOVLB  0
01936:  RETLW  00
....................  
.................... void mensajes(int8 x,y){// Funcion para imprimir mensajes de Menu Principal. 
....................   if(x==1) 
....................    {glcd_text57(7, y, tiempo_est, 1, ON);} 
.................... } 
....................   
.................... void displayContrasena(int digito, int x, int y, int sombreado) 
.................... { 
....................    char voltage[9]; 
....................    sprintf(voltage, "%i", digito); 
*
03894:  MOVLW  06
03896:  MOVLB  6
03898:  MOVWF  x46
0389A:  MOVLW  4D
0389C:  MOVWF  x45
0389E:  MOVFF  649,656
038A2:  MOVLW  1F
038A4:  MOVWF  x57
038A6:  MOVLB  0
038A8:  RCALL  3342
....................     
....................    if(sombreado==1) 
038AA:  MOVLB  6
038AC:  DECFSZ x4C,W
038AE:  BRA    38FE
....................       {glcd_rect(x, y, x+18, y+24, YES, ON);glcd_text57(x+2, y+1, voltage, 2, OFF);} 
038B0:  MOVLW  12
038B2:  ADDWF  x4A,W
038B4:  MOVWF  x56
038B6:  MOVLW  18
038B8:  ADDWF  x4B,W
038BA:  MOVWF  x57
038BC:  MOVFF  64A,65E
038C0:  MOVFF  64B,65F
038C4:  MOVFF  656,660
038C8:  MOVWF  x61
038CA:  MOVLW  01
038CC:  MOVWF  x62
038CE:  MOVWF  x63
038D0:  MOVLB  0
038D2:  RCALL  361A
038D4:  MOVLW  02
038D6:  MOVLB  6
038D8:  ADDWF  x4A,W
038DA:  MOVWF  x56
038DC:  MOVLW  01
038DE:  ADDWF  x4B,W
038E0:  MOVWF  x57
038E2:  MOVFF  656,65E
038E6:  MOVWF  x5F
038E8:  MOVLW  06
038EA:  MOVWF  x61
038EC:  MOVLW  4D
038EE:  MOVWF  x60
038F0:  MOVLW  02
038F2:  MOVWF  x62
038F4:  CLRF   x63
038F6:  MOVLB  0
038F8:  RCALL  36DC
....................    else    
038FA:  BRA    3948
038FC:  MOVLB  6
....................       {glcd_rect(x, y, x+18, y+24, NO, OFF);glcd_text57(x+2, y+1, voltage, 2, ON);} 
038FE:  MOVLW  12
03900:  ADDWF  x4A,W
03902:  MOVWF  x56
03904:  MOVLW  18
03906:  ADDWF  x4B,W
03908:  MOVWF  x57
0390A:  MOVFF  64A,65E
0390E:  MOVFF  64B,65F
03912:  MOVFF  656,660
03916:  MOVWF  x61
03918:  CLRF   x62
0391A:  CLRF   x63
0391C:  MOVLB  0
0391E:  RCALL  361A
03920:  MOVLW  02
03922:  MOVLB  6
03924:  ADDWF  x4A,W
03926:  MOVWF  x56
03928:  MOVLW  01
0392A:  ADDWF  x4B,W
0392C:  MOVWF  x57
0392E:  MOVFF  656,65E
03932:  MOVWF  x5F
03934:  MOVLW  06
03936:  MOVWF  x61
03938:  MOVLW  4D
0393A:  MOVWF  x60
0393C:  MOVLW  02
0393E:  MOVWF  x62
03940:  MOVLW  01
03942:  MOVWF  x63
03944:  MOVLB  0
03946:  RCALL  36DC
....................  
.................... } 
03948:  RETLW  00
....................  
.................... void displayTiempo(int digito, int x, int y, int sombreado, int tamano) 
.................... { 
....................    char voltage[9]; 
....................    sprintf(voltage, "%i", digito); 
*
03A16:  MOVLW  06
03A18:  MOVLB  6
03A1A:  MOVWF  x46
03A1C:  MOVLW  4C
03A1E:  MOVWF  x45
03A20:  MOVFF  647,656
03A24:  MOVLW  1F
03A26:  MOVWF  x57
03A28:  MOVLB  0
03A2A:  RCALL  3342
....................     
....................    if(sombreado==1) 
03A2C:  MOVLB  6
03A2E:  DECFSZ x4A,W
03A30:  BRA    3A86
....................       {glcd_rect(x, y, x+(tamano*6), y+(tamano*8), YES, ON);glcd_text57(x+2, y+1, voltage, tamano, OFF);} 
03A32:  MOVF   x4B,W
03A34:  MULLW  06
03A36:  MOVF   FF3,W
03A38:  ADDWF  x48,W
03A3A:  MOVWF  x55
03A3C:  MOVF   x4B,W
03A3E:  MULLW  08
03A40:  MOVF   FF3,W
03A42:  ADDWF  x49,W
03A44:  MOVWF  x56
03A46:  MOVFF  648,65E
03A4A:  MOVFF  649,65F
03A4E:  MOVFF  655,660
03A52:  MOVWF  x61
03A54:  MOVLW  01
03A56:  MOVWF  x62
03A58:  MOVWF  x63
03A5A:  MOVLB  0
03A5C:  RCALL  361A
03A5E:  MOVLW  02
03A60:  MOVLB  6
03A62:  ADDWF  x48,W
03A64:  MOVWF  x55
03A66:  MOVLW  01
03A68:  ADDWF  x49,W
03A6A:  MOVWF  x56
03A6C:  MOVFF  655,65E
03A70:  MOVWF  x5F
03A72:  MOVLW  06
03A74:  MOVWF  x61
03A76:  MOVLW  4C
03A78:  MOVWF  x60
03A7A:  MOVFF  64B,662
03A7E:  CLRF   x63
03A80:  MOVLB  0
03A82:  RCALL  36DC
03A84:  MOVLB  6
....................    if(sombreado==0) 
03A86:  MOVF   x4A,F
03A88:  BNZ   3AE0
....................       {glcd_rect(x, y, x+(tamano*6), y+(tamano*8), YES, OFF);glcd_text57(x+2, y+1, voltage, tamano, ON);} 
03A8A:  MOVF   x4B,W
03A8C:  MULLW  06
03A8E:  MOVF   FF3,W
03A90:  ADDWF  x48,W
03A92:  MOVWF  x55
03A94:  MOVF   x4B,W
03A96:  MULLW  08
03A98:  MOVF   FF3,W
03A9A:  ADDWF  x49,W
03A9C:  MOVWF  x56
03A9E:  MOVFF  648,65E
03AA2:  MOVFF  649,65F
03AA6:  MOVFF  655,660
03AAA:  MOVWF  x61
03AAC:  MOVLW  01
03AAE:  MOVWF  x62
03AB0:  CLRF   x63
03AB2:  MOVLB  0
03AB4:  RCALL  361A
03AB6:  MOVLW  02
03AB8:  MOVLB  6
03ABA:  ADDWF  x48,W
03ABC:  MOVWF  x55
03ABE:  MOVLW  01
03AC0:  ADDWF  x49,W
03AC2:  MOVWF  x56
03AC4:  MOVFF  655,65E
03AC8:  MOVWF  x5F
03ACA:  MOVLW  06
03ACC:  MOVWF  x61
03ACE:  MOVLW  4C
03AD0:  MOVWF  x60
03AD2:  MOVFF  64B,662
03AD6:  MOVLW  01
03AD8:  MOVWF  x63
03ADA:  MOVLB  0
03ADC:  RCALL  36DC
03ADE:  MOVLB  6
....................  
.................... } 
03AE0:  MOVLB  0
03AE2:  RETLW  00
....................  
.................... void displayMenu(char palabra[100], int x, int y, int sombreado, int tamano) 
.................... { 
....................    strcpy(Menus.Letra,palabra); 
*
0394A:  MOVLB  6
0394C:  MOVFF  647,01
03950:  MOVFF  648,03
03954:  MOVFF  647,64D
03958:  MOVFF  648,64E
0395C:  MOVLW  06
0395E:  MOVWF  FEA
03960:  MOVLW  31
03962:  MOVWF  FE9
03964:  MOVFF  648,FE2
03968:  MOVFF  647,FE1
0396C:  MOVF   FE7,F
0396E:  MOVFF  FE6,FEE
03972:  BNZ   396C
....................    if(sombreado==1) 
03974:  DECFSZ x4B,W
03976:  BRA    39C2
....................       {glcd_rect(0, y, 127, y+(tamano*8), YES, ON);glcd_text57(x+1, y+1, Menus.Letra, tamano, OFF);} 
03978:  MOVF   x4C,W
0397A:  MULLW  08
0397C:  MOVF   FF3,W
0397E:  ADDWF  x4A,W
03980:  MOVWF  x4D
03982:  CLRF   x5E
03984:  MOVFF  64A,65F
03988:  MOVLW  7F
0398A:  MOVWF  x60
0398C:  MOVFF  64D,661
03990:  MOVLW  01
03992:  MOVWF  x62
03994:  MOVWF  x63
03996:  MOVLB  0
03998:  RCALL  361A
0399A:  MOVLW  01
0399C:  MOVLB  6
0399E:  ADDWF  x49,W
039A0:  MOVWF  x4D
039A2:  MOVLW  01
039A4:  ADDWF  x4A,W
039A6:  MOVWF  x4E
039A8:  MOVFF  64D,65E
039AC:  MOVWF  x5F
039AE:  MOVLW  06
039B0:  MOVWF  x61
039B2:  MOVLW  31
039B4:  MOVWF  x60
039B6:  MOVFF  64C,662
039BA:  CLRF   x63
039BC:  MOVLB  0
039BE:  RCALL  36DC
039C0:  MOVLB  6
....................    if(sombreado==0) 
039C2:  MOVF   x4B,F
039C4:  BNZ   3A12
....................       {glcd_rect(0, y, 127, y+(tamano*8), YES, OFF);glcd_text57(x+1, y+1, Menus.Letra, tamano, ON);} 
039C6:  MOVF   x4C,W
039C8:  MULLW  08
039CA:  MOVF   FF3,W
039CC:  ADDWF  x4A,W
039CE:  MOVWF  x4D
039D0:  CLRF   x5E
039D2:  MOVFF  64A,65F
039D6:  MOVLW  7F
039D8:  MOVWF  x60
039DA:  MOVFF  64D,661
039DE:  MOVLW  01
039E0:  MOVWF  x62
039E2:  CLRF   x63
039E4:  MOVLB  0
039E6:  RCALL  361A
039E8:  MOVLW  01
039EA:  MOVLB  6
039EC:  ADDWF  x49,W
039EE:  MOVWF  x4D
039F0:  MOVLW  01
039F2:  ADDWF  x4A,W
039F4:  MOVWF  x4E
039F6:  MOVFF  64D,65E
039FA:  MOVWF  x5F
039FC:  MOVLW  06
039FE:  MOVWF  x61
03A00:  MOVLW  31
03A02:  MOVWF  x60
03A04:  MOVFF  64C,662
03A08:  MOVLW  01
03A0A:  MOVWF  x63
03A0C:  MOVLB  0
03A0E:  RCALL  36DC
03A10:  MOVLB  6
....................  
.................... } 
03A12:  MOVLB  0
03A14:  RETLW  00
....................  
.................... void displayfloat(float adc,int x,int y,int sombreado, int tamano) { 
....................    char voltage[9];     
....................       sprintf(voltage, "%1.2f",adc); // Converts adc to text 
*
03F7C:  MOVLW  06
03F7E:  MOVLB  6
03F80:  MOVWF  x46
03F82:  MOVLW  53
03F84:  MOVWF  x45
03F86:  MOVLW  89
03F88:  MOVWF  FE9
03F8A:  MOVFF  64E,65F
03F8E:  MOVFF  64D,65E
03F92:  MOVFF  64C,65D
03F96:  MOVFF  64B,65C
03F9A:  MOVLW  02
03F9C:  MOVWF  x60
03F9E:  MOVLB  0
03FA0:  BRA    3DC6
....................        
....................    if(sombreado==1) 
03FA2:  MOVLB  6
03FA4:  DECFSZ x51,W
03FA6:  BRA    4000
....................       {glcd_rect(x, y, x+(tamano*48), y+(tamano*8), YES, ON);glcd_text57(x+2, y+1, voltage, tamano, OFF);} 
03FA8:  MOVF   x52,W
03FAA:  MULLW  30
03FAC:  MOVF   FF3,W
03FAE:  ADDWF  x4F,W
03FB0:  MOVWF  x5C
03FB2:  MOVF   x52,W
03FB4:  MULLW  08
03FB6:  MOVF   FF3,W
03FB8:  ADDWF  x50,W
03FBA:  MOVWF  x5D
03FBC:  MOVFF  64F,65E
03FC0:  MOVFF  650,65F
03FC4:  MOVFF  65C,660
03FC8:  MOVWF  x61
03FCA:  MOVLW  01
03FCC:  MOVWF  x62
03FCE:  MOVWF  x63
03FD0:  MOVLB  0
03FD2:  CALL   361A
03FD6:  MOVLW  02
03FD8:  MOVLB  6
03FDA:  ADDWF  x4F,W
03FDC:  MOVWF  x5C
03FDE:  MOVLW  01
03FE0:  ADDWF  x50,W
03FE2:  MOVWF  x5D
03FE4:  MOVFF  65C,65E
03FE8:  MOVWF  x5F
03FEA:  MOVLW  06
03FEC:  MOVWF  x61
03FEE:  MOVLW  53
03FF0:  MOVWF  x60
03FF2:  MOVFF  652,662
03FF6:  CLRF   x63
03FF8:  MOVLB  0
03FFA:  CALL   36DC
03FFE:  MOVLB  6
....................    if(sombreado==0) 
04000:  MOVF   x51,F
04002:  BNZ   405E
....................       {glcd_rect(x, y, x+(tamano*48), y+(tamano*8), YES, OFF);glcd_text57(x+2, y+1, voltage, tamano, ON);} 
04004:  MOVF   x52,W
04006:  MULLW  30
04008:  MOVF   FF3,W
0400A:  ADDWF  x4F,W
0400C:  MOVWF  x5C
0400E:  MOVF   x52,W
04010:  MULLW  08
04012:  MOVF   FF3,W
04014:  ADDWF  x50,W
04016:  MOVWF  x5D
04018:  MOVFF  64F,65E
0401C:  MOVFF  650,65F
04020:  MOVFF  65C,660
04024:  MOVWF  x61
04026:  MOVLW  01
04028:  MOVWF  x62
0402A:  CLRF   x63
0402C:  MOVLB  0
0402E:  CALL   361A
04032:  MOVLW  02
04034:  MOVLB  6
04036:  ADDWF  x4F,W
04038:  MOVWF  x5C
0403A:  MOVLW  01
0403C:  ADDWF  x50,W
0403E:  MOVWF  x5D
04040:  MOVFF  65C,65E
04044:  MOVWF  x5F
04046:  MOVLW  06
04048:  MOVWF  x61
0404A:  MOVLW  53
0404C:  MOVWF  x60
0404E:  MOVFF  652,662
04052:  MOVLW  01
04054:  MOVWF  x63
04056:  MOVLB  0
04058:  CALL   36DC
0405C:  MOVLB  6
....................        
.................... } 
0405E:  MOVLB  0
04060:  RETLW  00
....................  
.................... Float LeerFlujoInFlow(int media) 
.................... { 
....................     InFlow_adc=sensores(0); 
*
02C14:  MOVLB  6
02C16:  CLRF   x4C
02C18:  MOVLB  0
02C1A:  CALL   18FC
02C1E:  MOVFF  02,4EE
02C22:  MOVFF  01,4ED
....................        
....................     if(negativo==10) 
02C26:  MOVLB  4
02C28:  MOVF   xDD,W
02C2A:  SUBLW  0A
02C2C:  BNZ   2C74
....................     { 
....................       x_uno=Inflow_adc+Diferencia; 
02C2E:  MOVFF  4EE,67D
02C32:  MOVFF  4ED,67C
02C36:  MOVLB  0
02C38:  CALL   13BE
02C3C:  BCF    FD8.1
02C3E:  MOVFF  03,67F
02C42:  MOVFF  02,67E
02C46:  MOVFF  01,67D
02C4A:  MOVFF  00,67C
02C4E:  MOVFF  532,683
02C52:  MOVFF  531,682
02C56:  MOVFF  530,681
02C5A:  MOVFF  52F,680
02C5E:  CALL   1552
02C62:  MOVFF  03,54A
02C66:  MOVFF  02,549
02C6A:  MOVFF  01,548
02C6E:  MOVFF  00,547
02C72:  MOVLB  4
....................     } 
....................     if(negativo==20) 
02C74:  MOVF   xDD,W
02C76:  SUBLW  14
02C78:  BNZ   2CBE
....................     { 
....................       x_uno=Inflow_adc-Diferencia; 
02C7A:  MOVFF  4EE,67D
02C7E:  MOVFF  4ED,67C
02C82:  MOVLB  0
02C84:  CALL   13BE
02C88:  BSF    FD8.1
02C8A:  MOVFF  03,67F
02C8E:  MOVFF  02,67E
02C92:  MOVFF  01,67D
02C96:  MOVFF  00,67C
02C9A:  MOVFF  532,683
02C9E:  MOVFF  531,682
02CA2:  MOVFF  530,681
02CA6:  MOVFF  52F,680
02CAA:  CALL   1552
02CAE:  MOVFF  03,54A
02CB2:  MOVFF  02,549
02CB6:  MOVFF  01,548
02CBA:  MOVFF  00,547
....................     } 
....................     Velocidad=(pow(x_uno,3)*a)+(pow(x_uno,2)*b)+(x_uno*c)+(d); 
02CBE:  MOVFF  54A,64F
02CC2:  MOVFF  549,64E
02CC6:  MOVFF  548,64D
02CCA:  MOVFF  547,64C
02CCE:  MOVLB  6
02CD0:  CLRF   x53
02CD2:  CLRF   x52
02CD4:  MOVLW  40
02CD6:  MOVWF  x51
02CD8:  MOVLW  80
02CDA:  MOVWF  x50
02CDC:  MOVLB  0
02CDE:  RCALL  2908
02CE0:  MOVFF  00,648
02CE4:  MOVFF  01,649
02CE8:  MOVFF  02,64A
02CEC:  MOVFF  03,64B
02CF0:  MOVFF  03,67B
02CF4:  MOVFF  02,67A
02CF8:  MOVFF  01,679
02CFC:  MOVFF  00,678
02D00:  MOVFF  56A,67F
02D04:  MOVFF  569,67E
02D08:  MOVFF  568,67D
02D0C:  MOVFF  567,67C
02D10:  CALL   19EE
02D14:  MOVFF  00,648
02D18:  MOVFF  01,649
02D1C:  MOVFF  02,64A
02D20:  MOVFF  03,64B
02D24:  MOVFF  54A,64F
02D28:  MOVFF  549,64E
02D2C:  MOVFF  548,64D
02D30:  MOVFF  547,64C
02D34:  MOVLB  6
02D36:  CLRF   x53
02D38:  CLRF   x52
02D3A:  CLRF   x51
02D3C:  MOVLW  80
02D3E:  MOVWF  x50
02D40:  MOVLB  0
02D42:  RCALL  2908
02D44:  MOVFF  00,64C
02D48:  MOVFF  01,64D
02D4C:  MOVFF  02,64E
02D50:  MOVFF  03,64F
02D54:  MOVFF  03,67B
02D58:  MOVFF  02,67A
02D5C:  MOVFF  01,679
02D60:  MOVFF  00,678
02D64:  MOVFF  56E,67F
02D68:  MOVFF  56D,67E
02D6C:  MOVFF  56C,67D
02D70:  MOVFF  56B,67C
02D74:  CALL   19EE
02D78:  MOVFF  FEA,64D
02D7C:  MOVFF  FE9,64C
02D80:  BCF    FD8.1
02D82:  MOVFF  64B,67F
02D86:  MOVFF  64A,67E
02D8A:  MOVFF  649,67D
02D8E:  MOVFF  648,67C
02D92:  MOVFF  03,683
02D96:  MOVFF  02,682
02D9A:  MOVFF  01,681
02D9E:  MOVFF  00,680
02DA2:  CALL   1552
02DA6:  MOVFF  64D,FEA
02DAA:  MOVFF  64C,FE9
02DAE:  MOVFF  00,648
02DB2:  MOVFF  01,649
02DB6:  MOVFF  02,64A
02DBA:  MOVFF  03,64B
02DBE:  MOVFF  54A,67B
02DC2:  MOVFF  549,67A
02DC6:  MOVFF  548,679
02DCA:  MOVFF  547,678
02DCE:  MOVFF  572,67F
02DD2:  MOVFF  571,67E
02DD6:  MOVFF  570,67D
02DDA:  MOVFF  56F,67C
02DDE:  CALL   19EE
02DE2:  MOVFF  FEA,64F
02DE6:  MOVFF  FE9,64E
02DEA:  BCF    FD8.1
02DEC:  MOVFF  64B,67F
02DF0:  MOVFF  64A,67E
02DF4:  MOVFF  649,67D
02DF8:  MOVFF  648,67C
02DFC:  MOVFF  03,683
02E00:  MOVFF  02,682
02E04:  MOVFF  01,681
02E08:  MOVFF  00,680
02E0C:  CALL   1552
02E10:  MOVFF  64F,FEA
02E14:  MOVFF  64E,FE9
02E18:  MOVFF  00,648
02E1C:  MOVFF  01,649
02E20:  MOVFF  02,64A
02E24:  MOVFF  03,64B
02E28:  MOVFF  FEA,651
02E2C:  MOVFF  FE9,650
02E30:  BCF    FD8.1
02E32:  MOVFF  03,67F
02E36:  MOVFF  02,67E
02E3A:  MOVFF  01,67D
02E3E:  MOVFF  00,67C
02E42:  MOVFF  576,683
02E46:  MOVFF  575,682
02E4A:  MOVFF  574,681
02E4E:  MOVFF  573,680
02E52:  CALL   1552
02E56:  MOVFF  651,FEA
02E5A:  MOVFF  650,FE9
02E5E:  MOVFF  03,546
02E62:  MOVFF  02,545
02E66:  MOVFF  01,544
02E6A:  MOVFF  00,543
....................     //Velocidad=Velocidad*correccion;//Ajuste de Temperatura 
....................      
....................     if(Velocidad<0.0) 
02E6E:  MOVFF  546,67B
02E72:  MOVFF  545,67A
02E76:  MOVFF  544,679
02E7A:  MOVFF  543,678
02E7E:  MOVLB  6
02E80:  CLRF   x7F
02E82:  CLRF   x7E
02E84:  CLRF   x7D
02E86:  CLRF   x7C
02E88:  MOVLB  0
02E8A:  CALL   1938
02E8E:  BNC   2E9A
....................      {Velocidad=0.0;} 
02E90:  MOVLB  5
02E92:  CLRF   x46
02E94:  CLRF   x45
02E96:  CLRF   x44
02E98:  CLRF   x43
....................       
....................      if(l>=media) 
02E9A:  MOVLB  6
02E9C:  MOVF   x47,W
02E9E:  MOVLB  4
02EA0:  SUBWF  xE3,W
02EA2:  BNC   2EA6
....................        {l=0;} 
02EA4:  CLRF   xE3
....................       
....................      promedio[l]=Velocidad;l++; 
02EA6:  MOVF   xE3,W
02EA8:  MULLW  04
02EAA:  MOVF   FF3,W
02EAC:  CLRF   03
02EAE:  ADDLW  77
02EB0:  MOVWF  FE9
02EB2:  MOVLW  05
02EB4:  ADDWFC 03,W
02EB6:  MOVWF  FEA
02EB8:  MOVFF  543,FEF
02EBC:  MOVFF  544,FEC
02EC0:  MOVFF  545,FEC
02EC4:  MOVFF  546,FEC
02EC8:  INCF   xE3,F
....................      Flujo=0; 
02ECA:  MOVLB  5
02ECC:  CLRF   xBA
02ECE:  CLRF   xB9
02ED0:  CLRF   xB8
02ED2:  CLRF   xB7
....................         for(h=0;h<=(media-1);h++) 
02ED4:  MOVLB  4
02ED6:  CLRF   xE4
02ED8:  MOVLW  01
02EDA:  MOVLB  6
02EDC:  SUBWF  x47,W
02EDE:  MOVLB  4
02EE0:  SUBWF  xE4,W
02EE2:  BZ    2EE6
02EE4:  BC    2F56
....................         { 
....................            Flujo+=promedio[h]; 
02EE6:  MOVF   xE4,W
02EE8:  MULLW  04
02EEA:  MOVF   FF3,W
02EEC:  CLRF   03
02EEE:  ADDLW  77
02EF0:  MOVWF  FE9
02EF2:  MOVLW  05
02EF4:  ADDWFC 03,W
02EF6:  MOVWF  FEA
02EF8:  MOVFF  FEF,00
02EFC:  MOVFF  FEC,01
02F00:  MOVFF  FEC,02
02F04:  MOVFF  FEC,03
02F08:  MOVFF  FEA,649
02F0C:  MOVFF  FE9,648
02F10:  BCF    FD8.1
02F12:  MOVFF  5BA,67F
02F16:  MOVFF  5B9,67E
02F1A:  MOVFF  5B8,67D
02F1E:  MOVFF  5B7,67C
02F22:  MOVFF  03,683
02F26:  MOVFF  02,682
02F2A:  MOVFF  01,681
02F2E:  MOVFF  00,680
02F32:  MOVLB  0
02F34:  CALL   1552
02F38:  MOVFF  649,FEA
02F3C:  MOVFF  648,FE9
02F40:  MOVFF  03,5BA
02F44:  MOVFF  02,5B9
02F48:  MOVFF  01,5B8
02F4C:  MOVFF  00,5B7
....................         }  
02F50:  MOVLB  4
02F52:  INCF   xE4,F
02F54:  BRA    2ED8
....................            Flujo=(Flujo/media)*Ajuste1;  
02F56:  MOVLB  6
02F58:  CLRF   x7D
02F5A:  MOVFF  647,67C
02F5E:  MOVLB  0
02F60:  CALL   13BE
02F64:  MOVFF  5BA,67B
02F68:  MOVFF  5B9,67A
02F6C:  MOVFF  5B8,679
02F70:  MOVFF  5B7,678
02F74:  MOVFF  03,67F
02F78:  MOVFF  02,67E
02F7C:  MOVFF  01,67D
02F80:  MOVFF  00,67C
02F84:  CALL   13F4
02F88:  MOVFF  00,648
02F8C:  MOVFF  01,649
02F90:  MOVFF  02,64A
02F94:  MOVFF  03,64B
02F98:  MOVFF  03,67B
02F9C:  MOVFF  02,67A
02FA0:  MOVFF  01,679
02FA4:  MOVFF  00,678
02FA8:  MOVFF  556,67F
02FAC:  MOVFF  555,67E
02FB0:  MOVFF  554,67D
02FB4:  MOVFF  553,67C
02FB8:  CALL   19EE
02FBC:  MOVFF  03,5BA
02FC0:  MOVFF  02,5B9
02FC4:  MOVFF  01,5B8
02FC8:  MOVFF  00,5B7
....................            return Flujo; 
02FCC:  MOVFF  5B7,00
02FD0:  MOVFF  5B8,01
02FD4:  MOVFF  5B9,02
02FD8:  MOVFF  5BA,03
.................... } 
02FDC:  GOTO   4F92 (RETURN)
....................  
.................... float Leer_Sensor_Presion(int media){ 
02FE0:  MOVLB  6
02FE2:  CLRF   x4B
02FE4:  CLRF   x4A
02FE6:  CLRF   x49
02FE8:  CLRF   x48
....................    float promediopresion=0.0; 
....................     
....................    Filtro_Downflow_adc=sensores(3); 
02FEA:  MOVLW  03
02FEC:  MOVWF  x4C
02FEE:  MOVLB  0
02FF0:  CALL   18FC
02FF4:  MOVFF  02,4F0
02FF8:  MOVFF  01,4EF
....................    V1=Filtro_Downflow_adc;  
02FFC:  MOVFF  4F0,67D
03000:  MOVFF  4EF,67C
03004:  CALL   13BE
03008:  MOVFF  03,5C6
0300C:  MOVFF  02,5C5
03010:  MOVFF  01,5C4
03014:  MOVFF  00,5C3
....................    //V1 = (x_uno*5.0)/1023.0;   //Lectura de Divisor de Voltaje de PT100 con resistencia de 1k (+-10%) 
....................    Presion=(V1/G)-1.0;// Presion=(Voltaje/Ganancia)-1 
03018:  MOVFF  5C6,67B
0301C:  MOVFF  5C5,67A
03020:  MOVFF  5C4,679
03024:  MOVFF  5C3,678
03028:  MOVFF  5CE,67F
0302C:  MOVFF  5CD,67E
03030:  MOVFF  5CC,67D
03034:  MOVFF  5CB,67C
03038:  CALL   13F4
0303C:  MOVFF  00,64C
03040:  MOVFF  01,64D
03044:  MOVFF  02,64E
03048:  MOVFF  03,64F
0304C:  BSF    FD8.1
0304E:  MOVFF  03,67F
03052:  MOVFF  02,67E
03056:  MOVFF  01,67D
0305A:  MOVFF  00,67C
0305E:  MOVLB  6
03060:  CLRF   x83
03062:  CLRF   x82
03064:  CLRF   x81
03066:  MOVLW  7F
03068:  MOVWF  x80
0306A:  MOVLB  0
0306C:  CALL   1552
03070:  MOVFF  03,5CA
03074:  MOVFF  02,5C9
03078:  MOVFF  01,5C8
0307C:  MOVFF  00,5C7
....................     
....................    if(Presion<0.0) 
03080:  MOVFF  5CA,67B
03084:  MOVFF  5C9,67A
03088:  MOVFF  5C8,679
0308C:  MOVFF  5C7,678
03090:  MOVLB  6
03092:  CLRF   x7F
03094:  CLRF   x7E
03096:  CLRF   x7D
03098:  CLRF   x7C
0309A:  MOVLB  0
0309C:  CALL   1938
030A0:  BNC   30AC
....................    { 
....................       Presion=0.0; 
030A2:  MOVLB  5
030A4:  CLRF   xCA
030A6:  CLRF   xC9
030A8:  CLRF   xC8
030AA:  CLRF   xC7
....................    } 
....................  
....................    if(r>media-1) 
030AC:  MOVLW  01
030AE:  MOVLB  6
030B0:  SUBWF  x47,W
030B2:  MOVLB  4
030B4:  SUBWF  xE2,W
030B6:  BZ    30BC
030B8:  BNC   30BC
....................    {r=0;} 
030BA:  CLRF   xE2
....................    PromPresion[r]=Presion*4.02;r++; 
030BC:  MOVF   xE2,W
030BE:  MULLW  04
030C0:  MOVF   FF3,W
030C2:  CLRF   03
030C4:  ADDLW  97
030C6:  MOVWF  FE9
030C8:  MOVLW  05
030CA:  ADDWFC 03,W
030CC:  MOVWF  FEA
030CE:  MOVFF  5CA,67B
030D2:  MOVFF  5C9,67A
030D6:  MOVFF  5C8,679
030DA:  MOVFF  5C7,678
030DE:  MOVLW  D7
030E0:  MOVLB  6
030E2:  MOVWF  x7F
030E4:  MOVLW  A3
030E6:  MOVWF  x7E
030E8:  CLRF   x7D
030EA:  MOVLW  81
030EC:  MOVWF  x7C
030EE:  MOVLB  0
030F0:  CALL   19EE
030F4:  MOVFF  00,FEF
030F8:  MOVFF  01,FEC
030FC:  MOVFF  02,FEC
03100:  MOVFF  03,FEC
03104:  MOVLB  4
03106:  INCF   xE2,F
....................           
....................    for(q=0;q<=(media-1);q++) 
03108:  CLRF   xE1
0310A:  MOVLW  01
0310C:  MOVLB  6
0310E:  SUBWF  x47,W
03110:  MOVLB  4
03112:  SUBWF  xE1,W
03114:  BZ    3118
03116:  BC    3188
....................    { 
....................       promediopresion+=PromPresion[q]; 
03118:  MOVF   xE1,W
0311A:  MULLW  04
0311C:  MOVF   FF3,W
0311E:  CLRF   03
03120:  ADDLW  97
03122:  MOVWF  FE9
03124:  MOVLW  05
03126:  ADDWFC 03,W
03128:  MOVWF  FEA
0312A:  MOVFF  FEF,00
0312E:  MOVFF  FEC,01
03132:  MOVFF  FEC,02
03136:  MOVFF  FEC,03
0313A:  MOVFF  FEA,64D
0313E:  MOVFF  FE9,64C
03142:  BCF    FD8.1
03144:  MOVFF  64B,67F
03148:  MOVFF  64A,67E
0314C:  MOVFF  649,67D
03150:  MOVFF  648,67C
03154:  MOVFF  03,683
03158:  MOVFF  02,682
0315C:  MOVFF  01,681
03160:  MOVFF  00,680
03164:  MOVLB  0
03166:  CALL   1552
0316A:  MOVFF  64D,FEA
0316E:  MOVFF  64C,FE9
03172:  MOVFF  03,64B
03176:  MOVFF  02,64A
0317A:  MOVFF  01,649
0317E:  MOVFF  00,648
....................    }  
03182:  MOVLB  4
03184:  INCF   xE1,F
03186:  BRA    310A
....................    promediopresion=promediopresion/media;    
03188:  MOVLB  6
0318A:  CLRF   x7D
0318C:  MOVFF  647,67C
03190:  MOVLB  0
03192:  CALL   13BE
03196:  MOVFF  64B,67B
0319A:  MOVFF  64A,67A
0319E:  MOVFF  649,679
031A2:  MOVFF  648,678
031A6:  MOVFF  03,67F
031AA:  MOVFF  02,67E
031AE:  MOVFF  01,67D
031B2:  MOVFF  00,67C
031B6:  CALL   13F4
031BA:  MOVFF  03,64B
031BE:  MOVFF  02,64A
031C2:  MOVFF  01,649
031C6:  MOVFF  00,648
....................     
....................    return promediopresion; 
031CA:  MOVFF  648,00
031CE:  MOVFF  649,01
031D2:  MOVFF  64A,02
031D6:  MOVFF  64B,03
.................... } 
031DA:  GOTO   4FAE (RETURN)
....................  
.................... #int_TIMER0 
.................... void temp1s(void){ 
....................    set_timer0(61); 
*
0121A:  CLRF   FD7
0121C:  MOVLW  3D
0121E:  MOVWF  FD6
....................    tiempos++; 
01220:  MOVLB  4
01222:  INCF   x17,F
01224:  BTFSC  FD8.2
01226:  INCF   x18,F
....................     
....................    if(flag_latencia==1) 
01228:  BTFSS  x1C.3
0122A:  BRA    1232
....................    { 
....................       t_latencia++;          
0122C:  INCF   xF3,F
0122E:  BTFSC  FD8.2
01230:  INCF   xF4,F
....................    } 
....................     
....................    if(t_latencia>=3000) 
01232:  MOVF   xF4,W
01234:  SUBLW  0A
01236:  BC    1244
01238:  XORLW  FF
0123A:  BNZ   1242
0123C:  MOVF   xF3,W
0123E:  SUBLW  B7
01240:  BC    1244
....................    {Latencia=1;} 
01242:  BSF    x1C.2
....................                  
....................    if(tiempos>=200) 
01244:  MOVF   x18,F
01246:  BNZ   1250
01248:  MOVF   x17,W
0124A:  SUBLW  C7
0124C:  BTFSC  FD8.0
0124E:  BRA    138E
....................    { 
....................       tiempos=0;imprimir=1;inicie++;Lectura=1;tiemporeset++; 
01250:  CLRF   x18
01252:  CLRF   x17
01254:  BSF    x1A.7
01256:  INCF   xDC,F
01258:  BSF    x1C.6
0125A:  INCF   xE0,F
....................        
....................       if(Alarma==5) 
0125C:  MOVF   xE9,W
0125E:  SUBLW  05
01260:  BNZ   1274
....................       { 
....................          if(flag_alarma2==0) 
01262:  BTFSC  x1D.0
01264:  BRA    126E
....................          { 
....................             Alarma_on; 
01266:  BSF    F8B.2
01268:  BCF    F94.2
....................             flag_alarma2=1; 
0126A:  BSF    x1D.0
....................          } 
....................          else 
0126C:  BRA    1274
....................          { 
....................             Alarma_off; 
0126E:  BCF    F8B.2
01270:  BCF    F94.2
....................             flag_alarma2=0; 
01272:  BCF    x1D.0
....................          } 
....................       } 
....................     
....................    if(tiempo_postpurga) 
01274:  BTFSS  x1C.1
01276:  BRA    12B4
....................    { 
....................       Tppurga[0]++; 
01278:  MOVLB  5
0127A:  INCF   x03,F
....................       if(Tppurga[0]>9) 
0127C:  BTFSC  x03.7
0127E:  BRA    128A
01280:  MOVF   x03,W
01282:  SUBLW  09
01284:  BC    128A
....................       { 
....................          Tppurga[0]=0; 
01286:  CLRF   x03
....................          Tppurga[1]++; 
01288:  INCF   x04,F
....................       } 
....................       if(Tppurga[1]>5) 
0128A:  BTFSC  x04.7
0128C:  BRA    1298
0128E:  MOVF   x04,W
01290:  SUBLW  05
01292:  BC    1298
....................       {   
....................          Tppurga[1]=0; 
01294:  CLRF   x04
....................          Tppurga[2]++; 
01296:  INCF   x05,F
....................       } 
....................       if(Tppurga[2]>9) 
01298:  BTFSC  x05.7
0129A:  BRA    12A6
0129C:  MOVF   x05,W
0129E:  SUBLW  09
012A0:  BC    12A6
....................       { 
....................          Tppurga[2]=0; 
012A2:  CLRF   x05
....................          Tppurga[3]++; 
012A4:  INCF   x06,F
....................       } 
....................       if(Tppurga[3]>5) 
012A6:  BTFSC  x06.7
012A8:  BRA    12B2
012AA:  MOVF   x06,W
012AC:  SUBLW  05
012AE:  BC    12B2
....................       { 
....................          Tppurga[3]=0; 
012B0:  CLRF   x06
012B2:  MOVLB  4
....................       } 
....................    } 
....................     
....................    if(tiempo_uv==1) 
012B4:  BTFSS  x1B.7
012B6:  BRA    1348
....................    { 
....................       minutos_uv++; 
012B8:  INCF   xF5,F
012BA:  BTFSC  FD8.2
012BC:  INCF   xF6,F
....................       if(minutos_uv>=3600) 
012BE:  MOVF   xF6,W
012C0:  SUBLW  0D
012C2:  BC    130C
012C4:  XORLW  FF
012C6:  BNZ   12CE
012C8:  MOVF   xF5,W
012CA:  SUBLW  0F
012CC:  BC    130C
....................       //if(minutos_uv>=1) 
....................       {  minutos_uv=0; 
012CE:  CLRF   xF6
012D0:  CLRF   xF5
....................          Tuv[0]++; 
012D2:  MOVLB  5
012D4:  INCF   x0B,F
....................          if(Tuv[0]>9) 
012D6:  BTFSC  x0B.7
012D8:  BRA    12E4
012DA:  MOVF   x0B,W
012DC:  SUBLW  09
012DE:  BC    12E4
....................          { 
....................             Tuv[0]=0; 
012E0:  CLRF   x0B
....................             Tuv[1]++; 
012E2:  INCF   x0C,F
....................          } 
....................          if(Tuv[1]>9) 
012E4:  BTFSC  x0C.7
012E6:  BRA    12F2
012E8:  MOVF   x0C,W
012EA:  SUBLW  09
012EC:  BC    12F2
....................          { 
....................             Tuv[1]=0; 
012EE:  CLRF   x0C
....................             Tuv[2]++; 
012F0:  INCF   x0D,F
....................          } 
....................          if(Tuv[2]>9) 
012F2:  BTFSC  x0D.7
012F4:  BRA    1300
012F6:  MOVF   x0D,W
012F8:  SUBLW  09
012FA:  BC    1300
....................          { 
....................             Tuv[2]=0; 
012FC:  CLRF   x0D
....................             Tuv[3]++; 
012FE:  INCF   x0E,F
....................          } 
....................          if(Tuv[3]>9) 
01300:  BTFSC  x0E.7
01302:  BRA    130C
01304:  MOVF   x0E,W
01306:  SUBLW  09
01308:  BC    130C
....................          { 
....................             Tuv[3]=0; 
0130A:  CLRF   x0E
....................          } 
....................       }       
....................        
....................          Tempouv[0]++; 
0130C:  MOVLB  5
0130E:  INCF   x0F,F
....................          if(Tempouv[0]>9) 
01310:  BTFSC  x0F.7
01312:  BRA    131E
01314:  MOVF   x0F,W
01316:  SUBLW  09
01318:  BC    131E
....................          { 
....................             Tempouv[0]=0; 
0131A:  CLRF   x0F
....................             Tempouv[1]++; 
0131C:  INCF   x10,F
....................          } 
....................          if(Tempouv[1]>5) 
0131E:  BTFSC  x10.7
01320:  BRA    132C
01322:  MOVF   x10,W
01324:  SUBLW  05
01326:  BC    132C
....................          { 
....................             Tempouv[1]=0; 
01328:  CLRF   x10
....................             Tempouv[2]++; 
0132A:  INCF   x11,F
....................          } 
....................          if(Tempouv[2]>9) 
0132C:  BTFSC  x11.7
0132E:  BRA    133A
01330:  MOVF   x11,W
01332:  SUBLW  09
01334:  BC    133A
....................          { 
....................             Tempouv[2]=0; 
01336:  CLRF   x11
....................             Tempouv[3]++; 
01338:  INCF   x12,F
....................          } 
....................          if(Tempouv[3]>5) 
0133A:  BTFSC  x12.7
0133C:  BRA    1346
0133E:  MOVF   x12,W
01340:  SUBLW  05
01342:  BC    1346
....................          { 
....................             Tempouv[3]=0; 
01344:  CLRF   x12
01346:  MOVLB  4
....................          } 
....................                
....................    } 
....................     
....................    if(flag_blower==1) 
01348:  BTFSS  x1B.1
0134A:  BRA    1352
....................    { 
....................       minutos_trabajo++;  
0134C:  INCF   xF7,F
0134E:  BTFSC  FD8.2
01350:  INCF   xF8,F
....................    } 
....................    
....................    if(tiempo_purga==1) 
01352:  BTFSS  x1B.6
01354:  BRA    138E
....................    {                   
....................       Tpurga[0]++; 
01356:  INCF   xFB,F
....................       if(Tpurga[0]>9) 
01358:  BTFSC  xFB.7
0135A:  BRA    1366
0135C:  MOVF   xFB,W
0135E:  SUBLW  09
01360:  BC    1366
....................       { 
....................          Tpurga[0]=0; 
01362:  CLRF   xFB
....................          Tpurga[1]++; 
01364:  INCF   xFC,F
....................       } 
....................       if(Tpurga[1]>5) 
01366:  BTFSC  xFC.7
01368:  BRA    1374
0136A:  MOVF   xFC,W
0136C:  SUBLW  05
0136E:  BC    1374
....................       { 
....................          Tpurga[1]=0; 
01370:  CLRF   xFC
....................          Tpurga[2]++; 
01372:  INCF   xFD,F
....................       } 
....................       if(Tpurga[2]>9) 
01374:  BTFSC  xFD.7
01376:  BRA    1382
01378:  MOVF   xFD,W
0137A:  SUBLW  09
0137C:  BC    1382
....................       { 
....................          Tpurga[2]=0; 
0137E:  CLRF   xFD
....................          Tpurga[3]++; 
01380:  INCF   xFE,F
....................       } 
....................       if(Tpurga[3]>5) 
01382:  BTFSC  xFE.7
01384:  BRA    138E
01386:  MOVF   xFE,W
01388:  SUBLW  05
0138A:  BC    138E
....................       { 
....................          Tpurga[3]=0; 
0138C:  CLRF   xFE
....................       } 
....................    }        
....................          
....................    } 
.................... } 
....................  
0138E:  BCF    FF2.2
01390:  MOVLB  0
01392:  GOTO   0064
.................... void main(){ 
*
04062:  CLRF   FF8
04064:  BCF    FD0.7
04066:  BSF    07.7
04068:  CLRF   FEA
0406A:  CLRF   FE9
0406C:  MOVLB  4
0406E:  CLRF   x18
04070:  CLRF   x17
04072:  CLRF   x19
04074:  BCF    x1A.0
04076:  BCF    x1A.1
04078:  BCF    x1A.2
0407A:  BCF    x1A.3
0407C:  BCF    x1A.4
0407E:  BCF    x1A.5
04080:  BCF    x1A.6
04082:  BCF    x1A.7
04084:  BCF    x1B.0
04086:  BCF    x1B.1
04088:  BCF    x1B.2
0408A:  BCF    x1B.3
0408C:  BCF    x1B.4
0408E:  BCF    x1B.5
04090:  BCF    x1B.6
04092:  BCF    x1B.7
04094:  BCF    x1C.0
04096:  BCF    x1C.1
04098:  BCF    x1C.2
0409A:  BCF    x1C.3
0409C:  BCF    x1C.4
0409E:  BCF    x1C.5
040A0:  BCF    x1C.6
040A2:  BCF    x1C.7
040A4:  BCF    x1D.0
040A6:  MOVLW  C8
040A8:  MOVWF  xD9
040AA:  MOVLW  01
040AC:  MOVWF  xDA
040AE:  MOVWF  xDB
040B0:  CLRF   xDC
040B2:  MOVLW  0A
040B4:  MOVWF  xDD
040B6:  CLRF   xDE
040B8:  CLRF   xDF
040BA:  CLRF   xE0
040BC:  CLRF   xE1
040BE:  CLRF   xE2
040C0:  CLRF   xE3
040C2:  CLRF   xE4
040C4:  CLRF   xE5
040C6:  CLRF   xE6
040C8:  MOVWF  xE7
040CA:  MOVWF  xE8
040CC:  MOVWF  xE9
040CE:  CLRF   xEA
040D0:  CLRF   xEB
040D2:  CLRF   xEC
040D4:  CLRF   xEE
040D6:  CLRF   xED
040D8:  CLRF   xF0
040DA:  CLRF   xEF
040DC:  CLRF   xF2
040DE:  CLRF   xF1
040E0:  CLRF   xF4
040E2:  CLRF   xF3
040E4:  CLRF   xF6
040E6:  CLRF   xF5
040E8:  CLRF   xF8
040EA:  CLRF   xF7
040EC:  CLRF   xFA
040EE:  CLRF   xF9
040F0:  MOVLB  5
040F2:  CLRF   x26
040F4:  CLRF   x25
040F6:  CLRF   x24
040F8:  CLRF   x23
040FA:  CLRF   x2A
040FC:  CLRF   x29
040FE:  CLRF   x28
04100:  CLRF   x27
04102:  CLRF   x2E
04104:  CLRF   x2D
04106:  CLRF   x2C
04108:  CLRF   x2B
0410A:  CLRF   x32
0410C:  CLRF   x31
0410E:  CLRF   x30
04110:  CLRF   x2F
04112:  CLRF   x36
04114:  CLRF   x35
04116:  CLRF   x34
04118:  CLRF   x33
0411A:  CLRF   x3A
0411C:  CLRF   x39
0411E:  CLRF   x38
04120:  CLRF   x37
04122:  CLRF   x3E
04124:  CLRF   x3D
04126:  CLRF   x3C
04128:  CLRF   x3B
0412A:  CLRF   x42
0412C:  CLRF   x41
0412E:  CLRF   x40
04130:  CLRF   x3F
04132:  CLRF   x46
04134:  CLRF   x45
04136:  CLRF   x44
04138:  CLRF   x43
0413A:  CLRF   x4A
0413C:  CLRF   x49
0413E:  CLRF   x48
04140:  CLRF   x47
04142:  CLRF   x4E
04144:  CLRF   x4D
04146:  CLRF   x4C
04148:  CLRF   x4B
0414A:  CLRF   x52
0414C:  CLRF   x51
0414E:  CLRF   x50
04150:  CLRF   x4F
04152:  CLRF   x56
04154:  CLRF   x55
04156:  CLRF   x54
04158:  CLRF   x53
0415A:  CLRF   x5A
0415C:  CLRF   x59
0415E:  CLRF   x58
04160:  CLRF   x57
04162:  CLRF   x5E
04164:  CLRF   x5D
04166:  CLRF   x5C
04168:  CLRF   x5B
0416A:  CLRF   x62
0416C:  CLRF   x61
0416E:  CLRF   x60
04170:  CLRF   x5F
04172:  CLRF   x66
04174:  CLRF   x65
04176:  CLRF   x64
04178:  CLRF   x63
0417A:  MOVLW  29
0417C:  MOVWF  x6A
0417E:  MOVLW  B6
04180:  MOVWF  x69
04182:  MOVLW  20
04184:  MOVWF  x68
04186:  MOVLW  6E
04188:  MOVWF  x67
0418A:  MOVLW  EE
0418C:  MOVWF  x6E
0418E:  MOVLW  7D
04190:  MOVWF  x6D
04192:  MOVLW  EE
04194:  MOVWF  x6C
04196:  MOVLW  77
04198:  MOVWF  x6B
0419A:  MOVLW  ED
0419C:  MOVWF  x72
0419E:  MOVLW  47
041A0:  MOVWF  x71
041A2:  MOVLW  6D
041A4:  MOVWF  x70
041A6:  MOVLW  7F
041A8:  MOVWF  x6F
041AA:  MOVLW  1A
041AC:  MOVWF  x76
041AE:  MOVLW  D1
041B0:  MOVWF  x75
041B2:  MOVLW  9C
041B4:  MOVWF  x74
041B6:  MOVLW  86
041B8:  MOVWF  x73
041BA:  CLRF   xBA
041BC:  CLRF   xB9
041BE:  CLRF   xB8
041C0:  CLRF   xB7
041C2:  CLRF   xBE
041C4:  CLRF   xBD
041C6:  MOVLW  50
041C8:  MOVWF  xBC
041CA:  MOVLW  86
041CC:  MOVWF  xBB
041CE:  CLRF   xC2
041D0:  CLRF   xC1
041D2:  CLRF   xC0
041D4:  CLRF   xBF
041D6:  CLRF   xC6
041D8:  CLRF   xC5
041DA:  CLRF   xC4
041DC:  CLRF   xC3
041DE:  CLRF   xCA
041E0:  CLRF   xC9
041E2:  CLRF   xC8
041E4:  CLRF   xC7
041E6:  CLRF   xCE
041E8:  CLRF   xCD
041EA:  CLRF   xCC
041EC:  MOVLW  80
041EE:  MOVWF  xCB
041F0:  CLRF   xD2
041F2:  CLRF   xD1
041F4:  CLRF   xD0
041F6:  CLRF   xCF
041F8:  MOVLB  6
041FA:  CLRF   x2C
041FC:  CLRF   x2B
041FE:  MOVLB  4
04200:  BCF    x1D.2
04202:  MOVF   FC1,W
04204:  ANDLW  C0
04206:  IORLW  0F
04208:  MOVWF  FC1
0420A:  MOVLW  07
0420C:  MOVWF  FB4
0420E:  MOVLW  4A
04210:  MOVWF  x1E
04212:  MOVLW  50
04214:  MOVWF  x1F
04216:  MOVLW  20
04218:  MOVWF  x20
0421A:  MOVLW  49
0421C:  MOVWF  x21
0421E:  MOVLW  6E
04220:  MOVWF  x22
04222:  MOVLW  67
04224:  MOVWF  x23
04226:  MOVLW  6C
04228:  MOVWF  x24
0422A:  MOVLW  6F
0422C:  MOVWF  x25
0422E:  MOVLW  62
04230:  MOVWF  x26
04232:  MOVLW  61
04234:  MOVWF  x27
04236:  MOVLW  6C
04238:  MOVWF  x28
0423A:  CLRF   x29
0423C:  MOVLW  43
0423E:  MOVWF  x2A
04240:  MOVLW  61
04242:  MOVWF  x2B
04244:  MOVLW  62
04246:  MOVWF  x2C
04248:  MOVLW  69
0424A:  MOVWF  x2D
0424C:  MOVLW  6E
0424E:  MOVWF  x2E
04250:  MOVLW  61
04252:  MOVWF  x2F
04254:  MOVLW  20
04256:  MOVWF  x30
04258:  MOVLW  45
0425A:  MOVWF  x31
0425C:  MOVLW  78
0425E:  MOVWF  x32
04260:  MOVLW  74
04262:  MOVWF  x33
04264:  MOVLW  72
04266:  MOVWF  x34
04268:  MOVLW  61
0426A:  MOVWF  x35
0426C:  MOVLW  63
0426E:  MOVWF  x36
04270:  MOVLW  74
04272:  MOVWF  x37
04274:  MOVLW  6F
04276:  MOVWF  x38
04278:  MOVLW  72
0427A:  MOVWF  x39
0427C:  MOVLW  61
0427E:  MOVWF  x3A
04280:  CLRF   x3B
04282:  MOVLW  54
04284:  MOVWF  x3C
04286:  MOVLW  20
04288:  MOVWF  x3D
0428A:  MOVLW  65
0428C:  MOVWF  x3E
0428E:  MOVLW  73
04290:  MOVWF  x3F
04292:  MOVLW  74
04294:  MOVWF  x40
04296:  MOVLW  3D
04298:  MOVWF  x41
0429A:  CLRF   x42
0429C:  MOVLW  3A
0429E:  MOVWF  x43
042A0:  CLRF   x44
042A2:  MOVLW  53
042A4:  MOVWF  x45
042A6:  MOVLW  69
042A8:  MOVWF  x46
042AA:  MOVLW  6E
042AC:  MOVWF  x47
042AE:  MOVLW  20
042B0:  MOVWF  x48
042B2:  MOVLW  44
042B4:  MOVWF  x49
042B6:  MOVLW  75
042B8:  MOVWF  x4A
042BA:  MOVLW  63
042BC:  MOVWF  x4B
042BE:  MOVLW  74
042C0:  MOVWF  x4C
042C2:  MOVLW  6F
042C4:  MOVWF  x4D
042C6:  MOVLW  73
042C8:  MOVWF  x4E
042CA:  CLRF   x4F
042CC:  MOVLW  54
042CE:  MOVWF  x50
042D0:  MOVLW  69
042D2:  MOVWF  x51
042D4:  MOVLW  65
042D6:  MOVWF  x52
042D8:  MOVLW  6D
042DA:  MOVWF  x53
042DC:  MOVLW  70
042DE:  MOVWF  x54
042E0:  MOVLW  6F
042E2:  MOVWF  x55
042E4:  MOVLW  20
042E6:  MOVWF  x56
042E8:  MOVLW  64
042EA:  MOVWF  x57
042EC:  MOVLW  65
042EE:  MOVWF  x58
042F0:  MOVLW  20
042F2:  MOVWF  x59
042F4:  MOVLW  50
042F6:  MOVWF  x5A
042F8:  MOVLW  75
042FA:  MOVWF  x5B
042FC:  MOVLW  72
042FE:  MOVWF  x5C
04300:  MOVLW  67
04302:  MOVWF  x5D
04304:  MOVLW  61
04306:  MOVWF  x5E
04308:  CLRF   x5F
0430A:  MOVLW  55
0430C:  MOVWF  x60
0430E:  MOVLW  56
04310:  MOVWF  x61
04312:  CLRF   x62
04314:  MOVLW  21
04316:  MOVWF  x63
04318:  MOVWF  x64
0431A:  MOVLW  55
0431C:  MOVWF  x65
0431E:  MOVLW  62
04320:  MOVWF  x66
04322:  MOVLW  69
04324:  MOVWF  x67
04326:  MOVLW  71
04328:  MOVWF  x68
0432A:  MOVLW  75
0432C:  MOVWF  x69
0432E:  MOVLW  65
04330:  MOVWF  x6A
04332:  MOVLW  20
04334:  MOVWF  x6B
04336:  MOVLW  56
04338:  MOVWF  x6C
0433A:  MOVLW  69
0433C:  MOVWF  x6D
0433E:  MOVLW  64
04340:  MOVWF  x6E
04342:  MOVLW  72
04344:  MOVWF  x6F
04346:  MOVLW  69
04348:  MOVWF  x70
0434A:  MOVLW  6F
0434C:  MOVWF  x71
0434E:  MOVLW  21
04350:  MOVWF  x72
04352:  MOVWF  x73
04354:  CLRF   x74
04356:  MOVLW  4A
04358:  MOVWF  x75
0435A:  MOVLW  50
0435C:  MOVWF  x76
0435E:  MOVLW  43
04360:  MOVWF  x77
04362:  MOVLW  45
04364:  MOVWF  x78
04366:  MOVLW  47
04368:  MOVWF  x79
0436A:  MOVLW  48
0436C:  MOVWF  x7A
0436E:  MOVLW  2D
04370:  MOVWF  x7B
04372:  MOVLW  46
04374:  MOVWF  x7C
04376:  MOVLW  2D
04378:  MOVWF  x7D
0437A:  MOVLW  41
0437C:  MOVWF  x7E
0437E:  CLRF   x7F
04380:  MOVLW  49
04382:  MOVWF  x80
04384:  MOVLW  6E
04386:  MOVWF  x81
04388:  MOVLW  66
0438A:  MOVWF  x82
0438C:  MOVLW  6C
0438E:  MOVWF  x83
04390:  MOVLW  6F
04392:  MOVWF  x84
04394:  MOVLW  77
04396:  MOVWF  x85
04398:  MOVLW  28
0439A:  MOVWF  x86
0439C:  MOVLW  6D
0439E:  MOVWF  x87
043A0:  MOVLW  2F
043A2:  MOVWF  x88
043A4:  MOVLW  73
043A6:  MOVWF  x89
043A8:  MOVLW  29
043AA:  MOVWF  x8A
043AC:  MOVLW  3A
043AE:  MOVWF  x8B
043B0:  CLRF   x8C
043B2:  MOVLW  46
043B4:  MOVWF  x8D
043B6:  MOVLW  61
043B8:  MOVWF  x8E
043BA:  MOVLW  62
043BC:  MOVWF  x8F
043BE:  MOVLW  72
043C0:  MOVWF  x90
043C2:  MOVLW  69
043C4:  MOVWF  x91
043C6:  MOVLW  63
043C8:  MOVWF  x92
043CA:  MOVLW  61
043CC:  MOVWF  x93
043CE:  MOVLW  3A
043D0:  MOVWF  x94
043D2:  MOVLW  32
043D4:  MOVWF  x95
043D6:  MOVLW  30
043D8:  MOVWF  x96
043DA:  MOVLW  38
043DC:  MOVWF  x97
043DE:  MOVLW  2E
043E0:  MOVWF  x98
043E2:  MOVLW  30
043E4:  MOVWF  x99
043E6:  CLRF   x9A
043E8:  MOVLW  41
043EA:  MOVWF  x9B
043EC:  MOVLW  63
043EE:  MOVWF  x9C
043F0:  MOVLW  74
043F2:  MOVWF  x9D
043F4:  MOVLW  75
043F6:  MOVWF  x9E
043F8:  MOVLW  61
043FA:  MOVWF  x9F
043FC:  MOVLW  6C
043FE:  MOVWF  xA0
04400:  MOVLW  3A
04402:  MOVWF  xA1
04404:  CLRF   xA2
04406:  MOVLW  41
04408:  MOVWF  xA3
0440A:  MOVLW  6A
0440C:  MOVWF  xA4
0440E:  MOVLW  75
04410:  MOVWF  xA5
04412:  MOVLW  73
04414:  MOVWF  xA6
04416:  MOVLW  74
04418:  MOVWF  xA7
0441A:  MOVLW  65
0441C:  MOVWF  xA8
0441E:  MOVLW  3A
04420:  MOVWF  xA9
04422:  CLRF   xAA
04424:  MOVLW  55
04426:  MOVWF  xAB
04428:  MOVLW  56
0442A:  MOVWF  xAC
0442C:  MOVLW  4C
0442E:  MOVWF  xAD
04430:  MOVLW  69
04432:  MOVWF  xAE
04434:  MOVLW  66
04436:  MOVWF  xAF
04438:  MOVLW  65
0443A:  MOVWF  xB0
0443C:  MOVLW  3A
0443E:  MOVWF  xB1
04440:  CLRF   xB2
04442:  MOVLW  46
04444:  MOVWF  xB3
04446:  MOVLW  69
04448:  MOVWF  xB4
0444A:  MOVLW  6C
0444C:  MOVWF  xB5
0444E:  MOVLW  74
04450:  MOVWF  xB6
04452:  MOVLW  65
04454:  MOVWF  xB7
04456:  MOVLW  72
04458:  MOVWF  xB8
0445A:  MOVLW  3A
0445C:  MOVWF  xB9
0445E:  CLRF   xBA
04460:  MOVLW  46
04462:  MOVWF  xBB
04464:  MOVLW  61
04466:  MOVWF  xBC
04468:  MOVLW  62
0446A:  MOVWF  xBD
0446C:  MOVLW  72
0446E:  MOVWF  xBE
04470:  MOVLW  69
04472:  MOVWF  xBF
04474:  MOVLW  63
04476:  MOVWF  xC0
04478:  MOVLW  61
0447A:  MOVWF  xC1
0447C:  MOVLW  3A
0447E:  MOVWF  xC2
04480:  MOVLW  32
04482:  MOVWF  xC3
04484:  MOVLW  33
04486:  MOVWF  xC4
04488:  MOVLW  35
0448A:  MOVWF  xC5
0448C:  MOVLW  2E
0448E:  MOVWF  xC6
04490:  MOVLW  30
04492:  MOVWF  xC7
04494:  CLRF   xC8
04496:  MOVLW  21
04498:  MOVWF  xC9
0449A:  MOVLW  50
0449C:  MOVWF  xCA
0449E:  MOVLW  65
044A0:  MOVWF  xCB
044A2:  MOVLW  72
044A4:  MOVWF  xCC
044A6:  MOVLW  64
044A8:  MOVWF  xCD
044AA:  MOVLW  69
044AC:  MOVWF  xCE
044AE:  MOVLW  64
044B0:  MOVWF  xCF
044B2:  MOVLW  61
044B4:  MOVWF  xD0
044B6:  MOVLW  20
044B8:  MOVWF  xD1
044BA:  MOVLW  46
044BC:  MOVWF  xD2
044BE:  MOVLW  6C
044C0:  MOVWF  xD3
044C2:  MOVLW  75
044C4:  MOVWF  xD4
044C6:  MOVLW  6A
044C8:  MOVWF  xD5
044CA:  MOVLW  6F
044CC:  MOVWF  xD6
044CE:  MOVLW  21
044D0:  MOVWF  xD7
044D2:  CLRF   xD8
044D4:  CLRF   xFB
044D6:  CLRF   xFC
044D8:  CLRF   xFD
044DA:  CLRF   xFE
044DC:  MOVLW  09
044DE:  MOVWF  xFF
044E0:  MOVLB  5
044E2:  CLRF   x00
044E4:  CLRF   x01
044E6:  CLRF   x02
044E8:  CLRF   x03
044EA:  CLRF   x04
044EC:  CLRF   x05
044EE:  CLRF   x06
044F0:  MOVWF  x07
044F2:  CLRF   x08
044F4:  CLRF   x09
044F6:  CLRF   x0A
044F8:  CLRF   x0B
044FA:  CLRF   x0C
044FC:  CLRF   x0D
044FE:  CLRF   x0E
04500:  CLRF   x0F
04502:  CLRF   x10
04504:  CLRF   x11
04506:  CLRF   x12
04508:  CLRF   x13
0450A:  CLRF   x14
0450C:  CLRF   x15
0450E:  CLRF   x16
04510:  CLRF   x17
04512:  CLRF   x18
04514:  CLRF   x19
04516:  CLRF   x1A
04518:  CLRF   x1B
0451A:  CLRF   x1C
0451C:  CLRF   x1D
0451E:  CLRF   x1E
04520:  CLRF   x1F
04522:  CLRF   x20
04524:  CLRF   x21
04526:  CLRF   x22
04528:  CLRF   x77
0452A:  CLRF   x78
0452C:  CLRF   x79
0452E:  CLRF   x7A
04530:  CLRF   x7B
04532:  CLRF   x7C
04534:  CLRF   x7D
04536:  CLRF   x7E
04538:  CLRF   x7F
0453A:  CLRF   x80
0453C:  CLRF   x81
0453E:  CLRF   x82
04540:  CLRF   x83
04542:  CLRF   x84
04544:  CLRF   x85
04546:  CLRF   x86
04548:  CLRF   x87
0454A:  CLRF   x88
0454C:  CLRF   x89
0454E:  CLRF   x8A
04550:  CLRF   x8B
04552:  CLRF   x8C
04554:  CLRF   x8D
04556:  CLRF   x8E
04558:  CLRF   x8F
0455A:  CLRF   x90
0455C:  CLRF   x91
0455E:  CLRF   x92
04560:  CLRF   x93
04562:  CLRF   x94
04564:  CLRF   x95
04566:  CLRF   x96
04568:  CLRF   x97
0456A:  CLRF   x98
0456C:  CLRF   x99
0456E:  CLRF   x9A
04570:  CLRF   x9B
04572:  CLRF   x9C
04574:  CLRF   x9D
04576:  CLRF   x9E
04578:  CLRF   x9F
0457A:  CLRF   xA0
0457C:  CLRF   xA1
0457E:  CLRF   xA2
04580:  CLRF   xA3
04582:  CLRF   xA4
04584:  CLRF   xA5
04586:  CLRF   xA6
04588:  CLRF   xA7
0458A:  CLRF   xA8
0458C:  CLRF   xA9
0458E:  CLRF   xAA
04590:  CLRF   xAB
04592:  CLRF   xAC
04594:  CLRF   xAD
04596:  CLRF   xAE
04598:  CLRF   xAF
0459A:  CLRF   xB0
0459C:  CLRF   xB1
0459E:  CLRF   xB2
045A0:  CLRF   xB3
045A2:  CLRF   xB4
045A4:  CLRF   xB5
045A6:  CLRF   xB6
045A8:  MOVLB  6
045AA:  CLRF   x45
045AC:  CLRF   x46
....................  
....................    setup_timer_0(RTCC_8_BIT|RTCC_DIV_128); 
045AE:  MOVLW  C6
045B0:  MOVWF  FD5
....................    setup_timer_1(T1_INTERNAL|T1_DIV_BY_8); 
045B2:  MOVLW  B5
045B4:  MOVWF  FCD
....................    EXT_INT_EDGE(0,H_TO_L); //  
045B6:  BCF    FF1.6
....................    enable_interrupts(INT_EXT); 
045B8:  BSF    FF2.4
....................    enable_interrupts(INT_TIMER0); 
045BA:  BSF    FF2.5
....................    setup_adc_ports(AN0_TO_AN3); 
045BC:  MOVF   FC1,W
045BE:  ANDLW  C0
045C0:  IORLW  0B
045C2:  MOVWF  FC1
....................    setup_adc(ADC_CLOCK_DIV_32 ); 
045C4:  MOVF   FC0,W
045C6:  ANDLW  C0
045C8:  IORLW  02
045CA:  MOVWF  FC0
045CC:  BSF    FC0.7
045CE:  BSF    FC2.0
....................    enable_interrupts(global);    
045D0:  MOVLW  C0
045D2:  IORWF  FF2,F
....................     
....................    /*Display_on; 
....................    glcd_init(ON);             //Inicializa la glcd 
....................    glcd_fillScreen(OFF);      //Limpia la pantalla*/ 
....................     
....................    Password[0]=read_eeprom(0); 
045D4:  MOVFF  FF2,647
045D8:  BCF    FF2.7
045DA:  CLRF   FAA
045DC:  CLRF   FA9
045DE:  BCF    FA6.6
045E0:  BCF    FA6.7
045E2:  BSF    FA6.0
045E4:  MOVF   FA8,W
045E6:  BTFSC  x47.7
045E8:  BSF    FF2.7
045EA:  MOVLB  5
045EC:  MOVWF  x1F
....................    delay_ms(10); 
045EE:  MOVLW  0A
045F0:  MOVLB  6
045F2:  MOVWF  x4F
045F4:  MOVLB  0
045F6:  CALL   1396
....................    Password[1]=read_eeprom(1); 
045FA:  MOVFF  FF2,647
045FE:  BCF    FF2.7
04600:  CLRF   FAA
04602:  MOVLW  01
04604:  MOVWF  FA9
04606:  BCF    FA6.6
04608:  BCF    FA6.7
0460A:  BSF    FA6.0
0460C:  MOVF   FA8,W
0460E:  MOVLB  6
04610:  BTFSC  x47.7
04612:  BSF    FF2.7
04614:  MOVLB  5
04616:  MOVWF  x20
....................    delay_ms(10); 
04618:  MOVLW  0A
0461A:  MOVLB  6
0461C:  MOVWF  x4F
0461E:  MOVLB  0
04620:  CALL   1396
....................    Password[2]=read_eeprom(2); 
04624:  MOVFF  FF2,647
04628:  BCF    FF2.7
0462A:  CLRF   FAA
0462C:  MOVLW  02
0462E:  MOVWF  FA9
04630:  BCF    FA6.6
04632:  BCF    FA6.7
04634:  BSF    FA6.0
04636:  MOVF   FA8,W
04638:  MOVLB  6
0463A:  BTFSC  x47.7
0463C:  BSF    FF2.7
0463E:  MOVLB  5
04640:  MOVWF  x21
....................    delay_ms(10); 
04642:  MOVLW  0A
04644:  MOVLB  6
04646:  MOVWF  x4F
04648:  MOVLB  0
0464A:  CALL   1396
....................    Password[3]=read_eeprom(3); 
0464E:  MOVFF  FF2,647
04652:  BCF    FF2.7
04654:  CLRF   FAA
04656:  MOVLW  03
04658:  MOVWF  FA9
0465A:  BCF    FA6.6
0465C:  BCF    FA6.7
0465E:  BSF    FA6.0
04660:  MOVF   FA8,W
04662:  MOVLB  6
04664:  BTFSC  x47.7
04666:  BSF    FF2.7
04668:  MOVLB  5
0466A:  MOVWF  x22
....................    delay_ms(10); 
0466C:  MOVLW  0A
0466E:  MOVLB  6
04670:  MOVWF  x4F
04672:  MOVLB  0
04674:  CALL   1396
....................    Tpurgap[0]=read_eeprom(4); 
04678:  MOVFF  FF2,647
0467C:  BCF    FF2.7
0467E:  CLRF   FAA
04680:  MOVLW  04
04682:  MOVWF  FA9
04684:  BCF    FA6.6
04686:  BCF    FA6.7
04688:  BSF    FA6.0
0468A:  MOVF   FA8,W
0468C:  MOVLB  6
0468E:  BTFSC  x47.7
04690:  BSF    FF2.7
04692:  MOVLB  4
04694:  MOVWF  xFF
....................    delay_ms(10); 
04696:  MOVLW  0A
04698:  MOVLB  6
0469A:  MOVWF  x4F
0469C:  MOVLB  0
0469E:  CALL   1396
....................    Tpurgap[1]=read_eeprom(5); 
046A2:  MOVFF  FF2,647
046A6:  BCF    FF2.7
046A8:  CLRF   FAA
046AA:  MOVLW  05
046AC:  MOVWF  FA9
046AE:  BCF    FA6.6
046B0:  BCF    FA6.7
046B2:  BSF    FA6.0
046B4:  MOVF   FA8,W
046B6:  MOVLB  6
046B8:  BTFSC  x47.7
046BA:  BSF    FF2.7
046BC:  MOVLB  5
046BE:  MOVWF  x00
....................    delay_ms(10); 
046C0:  MOVLW  0A
046C2:  MOVLB  6
046C4:  MOVWF  x4F
046C6:  MOVLB  0
046C8:  CALL   1396
....................    Tpurgap[2]=read_eeprom(6); 
046CC:  MOVFF  FF2,647
046D0:  BCF    FF2.7
046D2:  CLRF   FAA
046D4:  MOVLW  06
046D6:  MOVWF  FA9
046D8:  BCF    FA6.6
046DA:  BCF    FA6.7
046DC:  BSF    FA6.0
046DE:  MOVF   FA8,W
046E0:  MOVLB  6
046E2:  BTFSC  x47.7
046E4:  BSF    FF2.7
046E6:  MOVLB  5
046E8:  MOVWF  x01
....................    delay_ms(10); 
046EA:  MOVLW  0A
046EC:  MOVLB  6
046EE:  MOVWF  x4F
046F0:  MOVLB  0
046F2:  CALL   1396
....................    Tpurgap[3]=read_eeprom(7); 
046F6:  MOVFF  FF2,647
046FA:  BCF    FF2.7
046FC:  CLRF   FAA
046FE:  MOVLW  07
04700:  MOVWF  FA9
04702:  BCF    FA6.6
04704:  BCF    FA6.7
04706:  BSF    FA6.0
04708:  MOVF   FA8,W
0470A:  MOVLB  6
0470C:  BTFSC  x47.7
0470E:  BSF    FF2.7
04710:  MOVLB  5
04712:  MOVWF  x02
....................    delay_ms(10); 
04714:  MOVLW  0A
04716:  MOVLB  6
04718:  MOVWF  x4F
0471A:  MOVLB  0
0471C:  CALL   1396
....................    Tppurgap[0]=read_eeprom(8); 
04720:  MOVFF  FF2,647
04724:  BCF    FF2.7
04726:  CLRF   FAA
04728:  MOVLW  08
0472A:  MOVWF  FA9
0472C:  BCF    FA6.6
0472E:  BCF    FA6.7
04730:  BSF    FA6.0
04732:  MOVF   FA8,W
04734:  MOVLB  6
04736:  BTFSC  x47.7
04738:  BSF    FF2.7
0473A:  MOVLB  5
0473C:  MOVWF  x07
....................    delay_ms(10); 
0473E:  MOVLW  0A
04740:  MOVLB  6
04742:  MOVWF  x4F
04744:  MOVLB  0
04746:  CALL   1396
....................    Tppurgap[1]=read_eeprom(9); 
0474A:  MOVFF  FF2,647
0474E:  BCF    FF2.7
04750:  CLRF   FAA
04752:  MOVLW  09
04754:  MOVWF  FA9
04756:  BCF    FA6.6
04758:  BCF    FA6.7
0475A:  BSF    FA6.0
0475C:  MOVF   FA8,W
0475E:  MOVLB  6
04760:  BTFSC  x47.7
04762:  BSF    FF2.7
04764:  MOVLB  5
04766:  MOVWF  x08
....................    delay_ms(10); 
04768:  MOVLW  0A
0476A:  MOVLB  6
0476C:  MOVWF  x4F
0476E:  MOVLB  0
04770:  CALL   1396
....................    Tppurgap[2]=read_eeprom(10); 
04774:  MOVFF  FF2,647
04778:  BCF    FF2.7
0477A:  CLRF   FAA
0477C:  MOVLW  0A
0477E:  MOVWF  FA9
04780:  BCF    FA6.6
04782:  BCF    FA6.7
04784:  BSF    FA6.0
04786:  MOVF   FA8,W
04788:  MOVLB  6
0478A:  BTFSC  x47.7
0478C:  BSF    FF2.7
0478E:  MOVLB  5
04790:  MOVWF  x09
....................    delay_ms(10); 
04792:  MOVLW  0A
04794:  MOVLB  6
04796:  MOVWF  x4F
04798:  MOVLB  0
0479A:  CALL   1396
....................    Tppurgap[3]=read_eeprom(11); 
0479E:  MOVFF  FF2,647
047A2:  BCF    FF2.7
047A4:  CLRF   FAA
047A6:  MOVLW  0B
047A8:  MOVWF  FA9
047AA:  BCF    FA6.6
047AC:  BCF    FA6.7
047AE:  BSF    FA6.0
047B0:  MOVF   FA8,W
047B2:  MOVLB  6
047B4:  BTFSC  x47.7
047B6:  BSF    FF2.7
047B8:  MOVLB  5
047BA:  MOVWF  x0A
....................    delay_ms(10); 
047BC:  MOVLW  0A
047BE:  MOVLB  6
047C0:  MOVWF  x4F
047C2:  MOVLB  0
047C4:  CALL   1396
....................    Tuv[0]=read_eeprom(12); 
047C8:  MOVFF  FF2,647
047CC:  BCF    FF2.7
047CE:  CLRF   FAA
047D0:  MOVLW  0C
047D2:  MOVWF  FA9
047D4:  BCF    FA6.6
047D6:  BCF    FA6.7
047D8:  BSF    FA6.0
047DA:  MOVF   FA8,W
047DC:  MOVLB  6
047DE:  BTFSC  x47.7
047E0:  BSF    FF2.7
047E2:  MOVLB  5
047E4:  MOVWF  x0B
....................    delay_ms(10); 
047E6:  MOVLW  0A
047E8:  MOVLB  6
047EA:  MOVWF  x4F
047EC:  MOVLB  0
047EE:  CALL   1396
....................    Tuv[1]=read_eeprom(13); 
047F2:  MOVFF  FF2,647
047F6:  BCF    FF2.7
047F8:  CLRF   FAA
047FA:  MOVLW  0D
047FC:  MOVWF  FA9
047FE:  BCF    FA6.6
04800:  BCF    FA6.7
04802:  BSF    FA6.0
04804:  MOVF   FA8,W
04806:  MOVLB  6
04808:  BTFSC  x47.7
0480A:  BSF    FF2.7
0480C:  MOVLB  5
0480E:  MOVWF  x0C
....................    delay_ms(10); 
04810:  MOVLW  0A
04812:  MOVLB  6
04814:  MOVWF  x4F
04816:  MOVLB  0
04818:  CALL   1396
....................    Tuv[2]=read_eeprom(14); 
0481C:  MOVFF  FF2,647
04820:  BCF    FF2.7
04822:  CLRF   FAA
04824:  MOVLW  0E
04826:  MOVWF  FA9
04828:  BCF    FA6.6
0482A:  BCF    FA6.7
0482C:  BSF    FA6.0
0482E:  MOVF   FA8,W
04830:  MOVLB  6
04832:  BTFSC  x47.7
04834:  BSF    FF2.7
04836:  MOVLB  5
04838:  MOVWF  x0D
....................    delay_ms(10); 
0483A:  MOVLW  0A
0483C:  MOVLB  6
0483E:  MOVWF  x4F
04840:  MOVLB  0
04842:  CALL   1396
....................    Tuv[3]=read_eeprom(15); 
04846:  MOVFF  FF2,647
0484A:  BCF    FF2.7
0484C:  CLRF   FAA
0484E:  MOVLW  0F
04850:  MOVWF  FA9
04852:  BCF    FA6.6
04854:  BCF    FA6.7
04856:  BSF    FA6.0
04858:  MOVF   FA8,W
0485A:  MOVLB  6
0485C:  BTFSC  x47.7
0485E:  BSF    FF2.7
04860:  MOVLB  5
04862:  MOVWF  x0E
....................    delay_ms(10); 
04864:  MOVLW  0A
04866:  MOVLB  6
04868:  MOVWF  x4F
0486A:  MOVLB  0
0486C:  CALL   1396
....................    Ttrabajo[0]=read_eeprom(16); 
04870:  MOVFF  FF2,647
04874:  BCF    FF2.7
04876:  CLRF   FAA
04878:  MOVLW  10
0487A:  MOVWF  FA9
0487C:  BCF    FA6.6
0487E:  BCF    FA6.7
04880:  BSF    FA6.0
04882:  MOVF   FA8,W
04884:  MOVLB  6
04886:  BTFSC  x47.7
04888:  BSF    FF2.7
0488A:  MOVLB  5
0488C:  MOVWF  x17
....................    delay_ms(10); 
0488E:  MOVLW  0A
04890:  MOVLB  6
04892:  MOVWF  x4F
04894:  MOVLB  0
04896:  CALL   1396
....................    Ttrabajo[1]=read_eeprom(17); 
0489A:  MOVFF  FF2,647
0489E:  BCF    FF2.7
048A0:  CLRF   FAA
048A2:  MOVLW  11
048A4:  MOVWF  FA9
048A6:  BCF    FA6.6
048A8:  BCF    FA6.7
048AA:  BSF    FA6.0
048AC:  MOVF   FA8,W
048AE:  MOVLB  6
048B0:  BTFSC  x47.7
048B2:  BSF    FF2.7
048B4:  MOVLB  5
048B6:  MOVWF  x18
....................    delay_ms(10); 
048B8:  MOVLW  0A
048BA:  MOVLB  6
048BC:  MOVWF  x4F
048BE:  MOVLB  0
048C0:  CALL   1396
....................    Ttrabajo[2]=read_eeprom(18); 
048C4:  MOVFF  FF2,647
048C8:  BCF    FF2.7
048CA:  CLRF   FAA
048CC:  MOVLW  12
048CE:  MOVWF  FA9
048D0:  BCF    FA6.6
048D2:  BCF    FA6.7
048D4:  BSF    FA6.0
048D6:  MOVF   FA8,W
048D8:  MOVLB  6
048DA:  BTFSC  x47.7
048DC:  BSF    FF2.7
048DE:  MOVLB  5
048E0:  MOVWF  x19
....................    delay_ms(10); 
048E2:  MOVLW  0A
048E4:  MOVLB  6
048E6:  MOVWF  x4F
048E8:  MOVLB  0
048EA:  CALL   1396
....................    Ttrabajo[3]=read_eeprom(19); 
048EE:  MOVFF  FF2,647
048F2:  BCF    FF2.7
048F4:  CLRF   FAA
048F6:  MOVLW  13
048F8:  MOVWF  FA9
048FA:  BCF    FA6.6
048FC:  BCF    FA6.7
048FE:  BSF    FA6.0
04900:  MOVF   FA8,W
04902:  MOVLB  6
04904:  BTFSC  x47.7
04906:  BSF    FF2.7
04908:  MOVLB  5
0490A:  MOVWF  x1A
....................    delay_ms(10); 
0490C:  MOVLW  0A
0490E:  MOVLB  6
04910:  MOVWF  x4F
04912:  MOVLB  0
04914:  CALL   1396
....................    flag_alarma=read_eeprom(20); 
04918:  MOVFF  FF2,647
0491C:  BCF    FF2.7
0491E:  CLRF   FAA
04920:  MOVLW  14
04922:  MOVWF  FA9
04924:  BCF    FA6.6
04926:  BCF    FA6.7
04928:  BSF    FA6.0
0492A:  MOVF   FA8,W
0492C:  MOVLB  6
0492E:  BTFSC  x47.7
04930:  BSF    FF2.7
04932:  MOVWF  01
04934:  MOVLB  4
04936:  BCF    x1B.4
04938:  BTFSC  01.0
0493A:  BSF    x1B.4
....................    delay_ms(10); 
0493C:  MOVLW  0A
0493E:  MOVLB  6
04940:  MOVWF  x4F
04942:  MOVLB  0
04944:  CALL   1396
....................    Tempouvp[0]=read_eeprom(21); 
04948:  MOVFF  FF2,647
0494C:  BCF    FF2.7
0494E:  CLRF   FAA
04950:  MOVLW  15
04952:  MOVWF  FA9
04954:  BCF    FA6.6
04956:  BCF    FA6.7
04958:  BSF    FA6.0
0495A:  MOVF   FA8,W
0495C:  MOVLB  6
0495E:  BTFSC  x47.7
04960:  BSF    FF2.7
04962:  MOVLB  5
04964:  MOVWF  x13
....................    delay_ms(10); 
04966:  MOVLW  0A
04968:  MOVLB  6
0496A:  MOVWF  x4F
0496C:  MOVLB  0
0496E:  CALL   1396
....................    Tempouvp[1]=read_eeprom(22); 
04972:  MOVFF  FF2,647
04976:  BCF    FF2.7
04978:  CLRF   FAA
0497A:  MOVLW  16
0497C:  MOVWF  FA9
0497E:  BCF    FA6.6
04980:  BCF    FA6.7
04982:  BSF    FA6.0
04984:  MOVF   FA8,W
04986:  MOVLB  6
04988:  BTFSC  x47.7
0498A:  BSF    FF2.7
0498C:  MOVLB  5
0498E:  MOVWF  x14
....................    delay_ms(10); 
04990:  MOVLW  0A
04992:  MOVLB  6
04994:  MOVWF  x4F
04996:  MOVLB  0
04998:  CALL   1396
....................    Tempouvp[2]=read_eeprom(23); 
0499C:  MOVFF  FF2,647
049A0:  BCF    FF2.7
049A2:  CLRF   FAA
049A4:  MOVLW  17
049A6:  MOVWF  FA9
049A8:  BCF    FA6.6
049AA:  BCF    FA6.7
049AC:  BSF    FA6.0
049AE:  MOVF   FA8,W
049B0:  MOVLB  6
049B2:  BTFSC  x47.7
049B4:  BSF    FF2.7
049B6:  MOVLB  5
049B8:  MOVWF  x15
....................    delay_ms(10); 
049BA:  MOVLW  0A
049BC:  MOVLB  6
049BE:  MOVWF  x4F
049C0:  MOVLB  0
049C2:  CALL   1396
....................    Tempouvp[3]=read_eeprom(24); 
049C6:  MOVFF  FF2,647
049CA:  BCF    FF2.7
049CC:  CLRF   FAA
049CE:  MOVLW  18
049D0:  MOVWF  FA9
049D2:  BCF    FA6.6
049D4:  BCF    FA6.7
049D6:  BSF    FA6.0
049D8:  MOVF   FA8,W
049DA:  MOVLB  6
049DC:  BTFSC  x47.7
049DE:  BSF    FF2.7
049E0:  MOVLB  5
049E2:  MOVWF  x16
....................     
....................    delay_ms(10); 
049E4:  MOVLW  0A
049E6:  MOVLB  6
049E8:  MOVWF  x4F
049EA:  MOVLB  0
049EC:  CALL   1396
....................    Entero=read_eeprom(25);//Decimal1=read_eeprom(26); 
049F0:  MOVFF  FF2,647
049F4:  BCF    FF2.7
049F6:  CLRF   FAA
049F8:  MOVLW  19
049FA:  MOVWF  FA9
049FC:  BCF    FA6.6
049FE:  BCF    FA6.7
04A00:  BSF    FA6.0
04A02:  MOVF   FA8,W
04A04:  MOVLB  6
04A06:  BTFSC  x47.7
04A08:  BSF    FF2.7
04A0A:  MOVLB  4
04A0C:  MOVWF  xE5
....................    delay_ms(10); 
04A0E:  MOVLW  0A
04A10:  MOVLB  6
04A12:  MOVWF  x4F
04A14:  MOVLB  0
04A16:  CALL   1396
....................    Temporal=read_eeprom(26); 
04A1A:  MOVFF  FF2,647
04A1E:  BCF    FF2.7
04A20:  CLRF   FAA
04A22:  MOVLW  1A
04A24:  MOVWF  FA9
04A26:  BCF    FA6.6
04A28:  BCF    FA6.7
04A2A:  BSF    FA6.0
04A2C:  MOVF   FA8,W
04A2E:  MOVLB  6
04A30:  BTFSC  x47.7
04A32:  BSF    FF2.7
04A34:  CLRF   x7D
04A36:  MOVWF  x7C
04A38:  MOVLB  0
04A3A:  CALL   13BE
04A3E:  MOVFF  03,562
04A42:  MOVFF  02,561
04A46:  MOVFF  01,560
04A4A:  MOVFF  00,55F
....................    delay_ms(10); 
04A4E:  MOVLW  0A
04A50:  MOVLB  6
04A52:  MOVWF  x4F
04A54:  MOVLB  0
04A56:  CALL   1396
....................    Temporal=Temporal/100.0; 
04A5A:  MOVFF  562,67B
04A5E:  MOVFF  561,67A
04A62:  MOVFF  560,679
04A66:  MOVFF  55F,678
04A6A:  MOVLB  6
04A6C:  CLRF   x7F
04A6E:  CLRF   x7E
04A70:  MOVLW  48
04A72:  MOVWF  x7D
04A74:  MOVLW  85
04A76:  MOVWF  x7C
04A78:  MOVLB  0
04A7A:  CALL   13F4
04A7E:  MOVFF  03,562
04A82:  MOVFF  02,561
04A86:  MOVFF  01,560
04A8A:  MOVFF  00,55F
....................    Ajuste1=Entero+Temporal; 
04A8E:  MOVLB  6
04A90:  CLRF   x7D
04A92:  MOVFF  4E5,67C
04A96:  MOVLB  0
04A98:  CALL   13BE
04A9C:  BCF    FD8.1
04A9E:  MOVFF  03,67F
04AA2:  MOVFF  02,67E
04AA6:  MOVFF  01,67D
04AAA:  MOVFF  00,67C
04AAE:  MOVFF  562,683
04AB2:  MOVFF  561,682
04AB6:  MOVFF  560,681
04ABA:  MOVFF  55F,680
04ABE:  CALL   1552
04AC2:  MOVFF  03,556
04AC6:  MOVFF  02,555
04ACA:  MOVFF  01,554
04ACE:  MOVFF  00,553
....................     
....................     
....................    Entero=read_eeprom(27);//Decimal1=read_eeprom(26); 
04AD2:  MOVFF  FF2,647
04AD6:  BCF    FF2.7
04AD8:  CLRF   FAA
04ADA:  MOVLW  1B
04ADC:  MOVWF  FA9
04ADE:  BCF    FA6.6
04AE0:  BCF    FA6.7
04AE2:  BSF    FA6.0
04AE4:  MOVF   FA8,W
04AE6:  MOVLB  6
04AE8:  BTFSC  x47.7
04AEA:  BSF    FF2.7
04AEC:  MOVLB  4
04AEE:  MOVWF  xE5
....................    delay_ms(10); 
04AF0:  MOVLW  0A
04AF2:  MOVLB  6
04AF4:  MOVWF  x4F
04AF6:  MOVLB  0
04AF8:  CALL   1396
....................    Temporal=read_eeprom(28); 
04AFC:  MOVFF  FF2,647
04B00:  BCF    FF2.7
04B02:  CLRF   FAA
04B04:  MOVLW  1C
04B06:  MOVWF  FA9
04B08:  BCF    FA6.6
04B0A:  BCF    FA6.7
04B0C:  BSF    FA6.0
04B0E:  MOVF   FA8,W
04B10:  MOVLB  6
04B12:  BTFSC  x47.7
04B14:  BSF    FF2.7
04B16:  CLRF   x7D
04B18:  MOVWF  x7C
04B1A:  MOVLB  0
04B1C:  CALL   13BE
04B20:  MOVFF  03,562
04B24:  MOVFF  02,561
04B28:  MOVFF  01,560
04B2C:  MOVFF  00,55F
....................    delay_ms(10); 
04B30:  MOVLW  0A
04B32:  MOVLB  6
04B34:  MOVWF  x4F
04B36:  MOVLB  0
04B38:  CALL   1396
....................    Temporal=Temporal/100.0; 
04B3C:  MOVFF  562,67B
04B40:  MOVFF  561,67A
04B44:  MOVFF  560,679
04B48:  MOVFF  55F,678
04B4C:  MOVLB  6
04B4E:  CLRF   x7F
04B50:  CLRF   x7E
04B52:  MOVLW  48
04B54:  MOVWF  x7D
04B56:  MOVLW  85
04B58:  MOVWF  x7C
04B5A:  MOVLB  0
04B5C:  CALL   13F4
04B60:  MOVFF  03,562
04B64:  MOVFF  02,561
04B68:  MOVFF  01,560
04B6C:  MOVFF  00,55F
....................    Ajuste2=Entero+Temporal; 
04B70:  MOVLB  6
04B72:  CLRF   x7D
04B74:  MOVFF  4E5,67C
04B78:  MOVLB  0
04B7A:  CALL   13BE
04B7E:  BCF    FD8.1
04B80:  MOVFF  03,67F
04B84:  MOVFF  02,67E
04B88:  MOVFF  01,67D
04B8C:  MOVFF  00,67C
04B90:  MOVFF  562,683
04B94:  MOVFF  561,682
04B98:  MOVFF  560,681
04B9C:  MOVFF  55F,680
04BA0:  CALL   1552
04BA4:  MOVFF  03,55A
04BA8:  MOVFF  02,559
04BAC:  MOVFF  01,558
04BB0:  MOVFF  00,557
....................     
....................     
....................    Entero=read_eeprom(29);//Decimal1=read_eeprom(26); 
04BB4:  MOVFF  FF2,647
04BB8:  BCF    FF2.7
04BBA:  CLRF   FAA
04BBC:  MOVLW  1D
04BBE:  MOVWF  FA9
04BC0:  BCF    FA6.6
04BC2:  BCF    FA6.7
04BC4:  BSF    FA6.0
04BC6:  MOVF   FA8,W
04BC8:  MOVLB  6
04BCA:  BTFSC  x47.7
04BCC:  BSF    FF2.7
04BCE:  MOVLB  4
04BD0:  MOVWF  xE5
....................    delay_ms(10); 
04BD2:  MOVLW  0A
04BD4:  MOVLB  6
04BD6:  MOVWF  x4F
04BD8:  MOVLB  0
04BDA:  CALL   1396
....................    Temporal=read_eeprom(30); 
04BDE:  MOVFF  FF2,647
04BE2:  BCF    FF2.7
04BE4:  CLRF   FAA
04BE6:  MOVLW  1E
04BE8:  MOVWF  FA9
04BEA:  BCF    FA6.6
04BEC:  BCF    FA6.7
04BEE:  BSF    FA6.0
04BF0:  MOVF   FA8,W
04BF2:  MOVLB  6
04BF4:  BTFSC  x47.7
04BF6:  BSF    FF2.7
04BF8:  CLRF   x7D
04BFA:  MOVWF  x7C
04BFC:  MOVLB  0
04BFE:  CALL   13BE
04C02:  MOVFF  03,562
04C06:  MOVFF  02,561
04C0A:  MOVFF  01,560
04C0E:  MOVFF  00,55F
....................    delay_ms(10); 
04C12:  MOVLW  0A
04C14:  MOVLB  6
04C16:  MOVWF  x4F
04C18:  MOVLB  0
04C1A:  CALL   1396
....................    Temporal=Temporal/100.0; 
04C1E:  MOVFF  562,67B
04C22:  MOVFF  561,67A
04C26:  MOVFF  560,679
04C2A:  MOVFF  55F,678
04C2E:  MOVLB  6
04C30:  CLRF   x7F
04C32:  CLRF   x7E
04C34:  MOVLW  48
04C36:  MOVWF  x7D
04C38:  MOVLW  85
04C3A:  MOVWF  x7C
04C3C:  MOVLB  0
04C3E:  CALL   13F4
04C42:  MOVFF  03,562
04C46:  MOVFF  02,561
04C4A:  MOVFF  01,560
04C4E:  MOVFF  00,55F
....................    zero_actual=Entero; 
04C52:  MOVLB  6
04C54:  CLRF   x7D
04C56:  MOVFF  4E5,67C
04C5A:  MOVLB  0
04C5C:  CALL   13BE
04C60:  MOVFF  03,5C2
04C64:  MOVFF  02,5C1
04C68:  MOVFF  01,5C0
04C6C:  MOVFF  00,5BF
....................     
....................    Diferencia=make16(read_eeprom(61),read_eeprom(60)); 
04C70:  MOVFF  FF2,647
04C74:  BCF    FF2.7
04C76:  CLRF   FAA
04C78:  MOVLW  3D
04C7A:  MOVWF  FA9
04C7C:  BCF    FA6.6
04C7E:  BCF    FA6.7
04C80:  BSF    FA6.0
04C82:  MOVF   FA8,W
04C84:  MOVLB  6
04C86:  BTFSC  x47.7
04C88:  BSF    FF2.7
04C8A:  MOVWF  x48
04C8C:  MOVFF  FF2,649
04C90:  BCF    FF2.7
04C92:  CLRF   FAA
04C94:  MOVLW  3C
04C96:  MOVWF  FA9
04C98:  BCF    FA6.6
04C9A:  BCF    FA6.7
04C9C:  BSF    FA6.0
04C9E:  MOVF   FA8,W
04CA0:  BTFSC  x49.7
04CA2:  BSF    FF2.7
04CA4:  MOVWF  x4A
04CA6:  MOVFF  648,03
04CAA:  MOVF   x4A,W
04CAC:  MOVWF  x7C
04CAE:  MOVFF  03,67D
04CB2:  MOVLB  0
04CB4:  CALL   13BE
04CB8:  MOVFF  03,532
04CBC:  MOVFF  02,531
04CC0:  MOVFF  01,530
04CC4:  MOVFF  00,52F
....................    delay_ms(10); 
04CC8:  MOVLW  0A
04CCA:  MOVLB  6
04CCC:  MOVWF  x4F
04CCE:  MOVLB  0
04CD0:  CALL   1396
....................    G=make16(read_eeprom(63),read_eeprom(62)); 
04CD4:  MOVFF  FF2,647
04CD8:  BCF    FF2.7
04CDA:  CLRF   FAA
04CDC:  MOVLW  3F
04CDE:  MOVWF  FA9
04CE0:  BCF    FA6.6
04CE2:  BCF    FA6.7
04CE4:  BSF    FA6.0
04CE6:  MOVF   FA8,W
04CE8:  MOVLB  6
04CEA:  BTFSC  x47.7
04CEC:  BSF    FF2.7
04CEE:  MOVWF  x48
04CF0:  MOVFF  FF2,649
04CF4:  BCF    FF2.7
04CF6:  CLRF   FAA
04CF8:  MOVLW  3E
04CFA:  MOVWF  FA9
04CFC:  BCF    FA6.6
04CFE:  BCF    FA6.7
04D00:  BSF    FA6.0
04D02:  MOVF   FA8,W
04D04:  BTFSC  x49.7
04D06:  BSF    FF2.7
04D08:  MOVWF  x4A
04D0A:  MOVFF  648,03
04D0E:  MOVF   x4A,W
04D10:  MOVWF  x7C
04D12:  MOVFF  03,67D
04D16:  MOVLB  0
04D18:  CALL   13BE
04D1C:  MOVFF  03,5CE
04D20:  MOVFF  02,5CD
04D24:  MOVFF  01,5CC
04D28:  MOVFF  00,5CB
....................    delay_ms(10); 
04D2C:  MOVLW  0A
04D2E:  MOVLB  6
04D30:  MOVWF  x4F
04D32:  MOVLB  0
04D34:  CALL   1396
....................    negativo=read_eeprom(50); 
04D38:  MOVFF  FF2,647
04D3C:  BCF    FF2.7
04D3E:  CLRF   FAA
04D40:  MOVLW  32
04D42:  MOVWF  FA9
04D44:  BCF    FA6.6
04D46:  BCF    FA6.7
04D48:  BSF    FA6.0
04D4A:  MOVF   FA8,W
04D4C:  MOVLB  6
04D4E:  BTFSC  x47.7
04D50:  BSF    FF2.7
04D52:  MOVLB  4
04D54:  MOVWF  xDD
....................    delay_ms(10); 
04D56:  MOVLW  0A
04D58:  MOVLB  6
04D5A:  MOVWF  x4F
04D5C:  MOVLB  0
04D5E:  CALL   1396
....................  
....................    while(true){ 
....................    /*while(1){ 
....................    displayfloat(Vector[f], 20 , 45, 1,1); 
....................    displayfloat(BYTE_IR[2], 30 , 55, 1,1); 
....................    displayfloat(BYTE_IR[3], 60 , 55, 1,1); 
....................    displayfloat(n, 10 , 30, 1,1); 
....................    if(UP) 
....................       f++; 
....................        
....................    if(DOWN) 
....................       f--; 
....................        
....................    if(f>39) 
....................       f=0; 
....................    */ 
....................    if(NUEVO_DATO==1){ 
04D62:  MOVLB  4
04D64:  BTFSS  x1D.2
04D66:  BRA    4F20
....................          NUEVO_DATO=0; 
04D68:  BCF    x1D.2
....................          BYTE_IR[0]=BIT_BYTE(BITS[0],BITS[1],BITS[2],BITS[3],BITS[4],BITS[5],BITS[6],BITS[7]); 
04D6A:  MOVLW  00
04D6C:  MOVLB  6
04D6E:  BTFSC  x23.0
04D70:  MOVLW  01
04D72:  MOVWF  x47
04D74:  MOVLW  00
04D76:  BTFSC  x23.1
04D78:  MOVLW  01
04D7A:  MOVWF  x48
04D7C:  MOVLW  00
04D7E:  BTFSC  x23.2
04D80:  MOVLW  01
04D82:  MOVWF  x49
04D84:  MOVLW  00
04D86:  BTFSC  x23.3
04D88:  MOVLW  01
04D8A:  MOVWF  x4A
04D8C:  MOVLW  00
04D8E:  BTFSC  x23.4
04D90:  MOVLW  01
04D92:  MOVWF  x4B
04D94:  MOVLW  00
04D96:  BTFSC  x23.5
04D98:  MOVLW  01
04D9A:  MOVWF  x4C
04D9C:  MOVLW  00
04D9E:  BTFSC  x23.6
04DA0:  MOVLW  01
04DA2:  MOVWF  x4D
04DA4:  MOVLW  00
04DA6:  BTFSC  x23.7
04DA8:  MOVLW  01
04DAA:  MOVFF  647,64F
04DAE:  MOVFF  648,650
04DB2:  MOVFF  649,651
04DB6:  MOVFF  64A,652
04DBA:  MOVFF  64B,653
04DBE:  MOVFF  64C,654
04DC2:  MOVFF  64D,655
04DC6:  MOVWF  x56
04DC8:  MOVLB  0
04DCA:  CALL   17CA
04DCE:  MOVFF  01,62D
....................          BYTE_IR[1]=BIT_BYTE(BITS[8],BITS[9],BITS[10],BITS[11],BITS[12],BITS[13],BITS[14],BITS[15]); 
04DD2:  MOVLW  00
04DD4:  MOVLB  6
04DD6:  BTFSC  x24.0
04DD8:  MOVLW  01
04DDA:  MOVWF  x47
04DDC:  MOVLW  00
04DDE:  BTFSC  x24.1
04DE0:  MOVLW  01
04DE2:  MOVWF  x48
04DE4:  MOVLW  00
04DE6:  BTFSC  x24.2
04DE8:  MOVLW  01
04DEA:  MOVWF  x49
04DEC:  MOVLW  00
04DEE:  BTFSC  x24.3
04DF0:  MOVLW  01
04DF2:  MOVWF  x4A
04DF4:  MOVLW  00
04DF6:  BTFSC  x24.4
04DF8:  MOVLW  01
04DFA:  MOVWF  x4B
04DFC:  MOVLW  00
04DFE:  BTFSC  x24.5
04E00:  MOVLW  01
04E02:  MOVWF  x4C
04E04:  MOVLW  00
04E06:  BTFSC  x24.6
04E08:  MOVLW  01
04E0A:  MOVWF  x4D
04E0C:  MOVLW  00
04E0E:  BTFSC  x24.7
04E10:  MOVLW  01
04E12:  MOVFF  647,64F
04E16:  MOVFF  648,650
04E1A:  MOVFF  649,651
04E1E:  MOVFF  64A,652
04E22:  MOVFF  64B,653
04E26:  MOVFF  64C,654
04E2A:  MOVFF  64D,655
04E2E:  MOVWF  x56
04E30:  MOVLB  0
04E32:  CALL   17CA
04E36:  MOVFF  01,62E
....................          BYTE_IR[2]=BIT_BYTE(BITS[16],BITS[17],BITS[18],BITS[19],BITS[20],BITS[21],BITS[22],BITS[23]); 
04E3A:  MOVLW  00
04E3C:  MOVLB  6
04E3E:  BTFSC  x25.0
04E40:  MOVLW  01
04E42:  MOVWF  x47
04E44:  MOVLW  00
04E46:  BTFSC  x25.1
04E48:  MOVLW  01
04E4A:  MOVWF  x48
04E4C:  MOVLW  00
04E4E:  BTFSC  x25.2
04E50:  MOVLW  01
04E52:  MOVWF  x49
04E54:  MOVLW  00
04E56:  BTFSC  x25.3
04E58:  MOVLW  01
04E5A:  MOVWF  x4A
04E5C:  MOVLW  00
04E5E:  BTFSC  x25.4
04E60:  MOVLW  01
04E62:  MOVWF  x4B
04E64:  MOVLW  00
04E66:  BTFSC  x25.5
04E68:  MOVLW  01
04E6A:  MOVWF  x4C
04E6C:  MOVLW  00
04E6E:  BTFSC  x25.6
04E70:  MOVLW  01
04E72:  MOVWF  x4D
04E74:  MOVLW  00
04E76:  BTFSC  x25.7
04E78:  MOVLW  01
04E7A:  MOVFF  647,64F
04E7E:  MOVFF  648,650
04E82:  MOVFF  649,651
04E86:  MOVFF  64A,652
04E8A:  MOVFF  64B,653
04E8E:  MOVFF  64C,654
04E92:  MOVFF  64D,655
04E96:  MOVWF  x56
04E98:  MOVLB  0
04E9A:  CALL   17CA
04E9E:  MOVFF  01,62F
....................          BYTE_IR[3]=BIT_BYTE(BITS[24],BITS[25],BITS[26],BITS[27],BITS[28],BITS[29],BITS[30],BITS[31]); 
04EA2:  MOVLW  00
04EA4:  MOVLB  6
04EA6:  BTFSC  x26.0
04EA8:  MOVLW  01
04EAA:  MOVWF  x47
04EAC:  MOVLW  00
04EAE:  BTFSC  x26.1
04EB0:  MOVLW  01
04EB2:  MOVWF  x48
04EB4:  MOVLW  00
04EB6:  BTFSC  x26.2
04EB8:  MOVLW  01
04EBA:  MOVWF  x49
04EBC:  MOVLW  00
04EBE:  BTFSC  x26.3
04EC0:  MOVLW  01
04EC2:  MOVWF  x4A
04EC4:  MOVLW  00
04EC6:  BTFSC  x26.4
04EC8:  MOVLW  01
04ECA:  MOVWF  x4B
04ECC:  MOVLW  00
04ECE:  BTFSC  x26.5
04ED0:  MOVLW  01
04ED2:  MOVWF  x4C
04ED4:  MOVLW  00
04ED6:  BTFSC  x26.6
04ED8:  MOVLW  01
04EDA:  MOVWF  x4D
04EDC:  MOVLW  00
04EDE:  BTFSC  x26.7
04EE0:  MOVLW  01
04EE2:  MOVFF  647,64F
04EE6:  MOVFF  648,650
04EEA:  MOVFF  649,651
04EEE:  MOVFF  64A,652
04EF2:  MOVFF  64B,653
04EF6:  MOVFF  64C,654
04EFA:  MOVFF  64D,655
04EFE:  MOVWF  x56
04F00:  MOVLB  0
04F02:  CALL   17CA
04F06:  MOVFF  01,630
....................           
....................          delay_ms(500); 
04F0A:  MOVLW  02
04F0C:  MOVLB  6
04F0E:  MOVWF  x47
04F10:  MOVLW  FA
04F12:  MOVWF  x4F
04F14:  MOVLB  0
04F16:  CALL   1396
04F1A:  MOVLB  6
04F1C:  DECFSZ x47,F
04F1E:  BRA    4F10
....................       } 
....................  
....................    if(BYTE_IR[3]==0XF2 && Menu!=200) //Subir Vidrio 
04F20:  MOVLB  6
04F22:  MOVF   x30,W
04F24:  SUBLW  F2
04F26:  BNZ   4F46
04F28:  MOVLB  4
04F2A:  MOVF   xD9,W
04F2C:  SUBLW  C8
04F2E:  BTFSS  FD8.2
04F30:  BRA    4F36
04F32:  MOVLB  6
04F34:  BRA    4F46
....................    { 
....................       if(!VIDRIOUP) 
04F36:  BSF    F92.5
04F38:  BTFSC  F80.5
04F3A:  BRA    4F40
....................          O1_on;O2_off; 
04F3C:  BSF    F8D.0
04F3E:  BCF    F96.0
04F40:  BCF    F8B.3
04F42:  BCF    F94.3
04F44:  MOVLB  6
....................    } 
....................     
....................    if(BYTE_IR[3]==0XE9 && Menu!=200) 
04F46:  MOVF   x30,W
04F48:  SUBLW  E9
04F4A:  BNZ   4F6A
04F4C:  MOVLB  4
04F4E:  MOVF   xD9,W
04F50:  SUBLW  C8
04F52:  BTFSS  FD8.2
04F54:  BRA    4F5A
04F56:  MOVLB  6
04F58:  BRA    4F6A
....................    { 
....................       if(!VIDRIODN) 
04F5A:  BSF    F92.4
04F5C:  BTFSC  F80.4
04F5E:  BRA    4F64
....................          O1_off;O2_on; 
04F60:  BCF    F8D.0
04F62:  BCF    F96.0
04F64:  BSF    F8B.3
04F66:  BCF    F94.3
04F68:  MOVLB  6
....................    } 
....................    
....................    if(BYTE_IR[3]==0XE6) 
04F6A:  MOVF   x30,W
04F6C:  SUBLW  E6
04F6E:  BNZ   4F78
....................    { 
....................       O1_off;O2_off; 
04F70:  BCF    F8D.0
04F72:  BCF    F96.0
04F74:  BCF    F8B.3
04F76:  BCF    F94.3
....................    } 
....................     
....................    glcd_update(); 
04F78:  MOVLB  0
04F7A:  CALL   1844
....................     
....................    if(Lectura==1) 
04F7E:  MOVLB  4
04F80:  BTFSS  x1C.6
04F82:  BRA    4FC0
....................    { 
....................       Lectura=0; 
04F84:  BCF    x1C.6
....................       InFlow=LeerFlujoInFlow(8); 
04F86:  MOVLW  08
04F88:  MOVLB  6
04F8A:  MOVWF  x47
04F8C:  MOVLB  0
04F8E:  GOTO   2C14
04F92:  MOVFF  03,526
04F96:  MOVFF  02,525
04F9A:  MOVFF  01,524
04F9E:  MOVFF  00,523
....................       Filtro_DownFlow=Leer_Sensor_Presion(8); 
04FA2:  MOVLW  08
04FA4:  MOVLB  6
04FA6:  MOVWF  x47
04FA8:  MOVLB  0
04FAA:  GOTO   2FE0
04FAE:  MOVFF  03,52E
04FB2:  MOVFF  02,52D
04FB6:  MOVFF  01,52C
04FBA:  MOVFF  00,52B
04FBE:  MOVLB  4
....................    } 
....................     
....................    if(minutos_trabajo>=3600) // Tiempo de Trabajo 
04FC0:  MOVF   xF8,W
04FC2:  SUBLW  0D
04FC4:  BC    5010
04FC6:  XORLW  FF
04FC8:  BNZ   4FD0
04FCA:  MOVF   xF7,W
04FCC:  SUBLW  0F
04FCE:  BC    5010
....................    { 
....................       minutos_trabajo=0; 
04FD0:  CLRF   xF8
04FD2:  CLRF   xF7
....................       Ttrabajo[0]++; 
04FD4:  MOVLB  5
04FD6:  INCF   x17,F
....................       if(Ttrabajo[0]>9) 
04FD8:  BTFSC  x17.7
04FDA:  BRA    4FE6
04FDC:  MOVF   x17,W
04FDE:  SUBLW  09
04FE0:  BC    4FE6
....................       { 
....................          Ttrabajo[0]=0; 
04FE2:  CLRF   x17
....................          Ttrabajo[1]++; 
04FE4:  INCF   x18,F
....................       } 
....................       if(Ttrabajo[1]>9) 
04FE6:  BTFSC  x18.7
04FE8:  BRA    4FF4
04FEA:  MOVF   x18,W
04FEC:  SUBLW  09
04FEE:  BC    4FF4
....................       { 
....................          Ttrabajo[1]=0; 
04FF0:  CLRF   x18
....................          Ttrabajo[2]++; 
04FF2:  INCF   x19,F
....................       } 
....................       if(Ttrabajo[2]>9) 
04FF4:  BTFSC  x19.7
04FF6:  BRA    5002
04FF8:  MOVF   x19,W
04FFA:  SUBLW  09
04FFC:  BC    5002
....................       { 
....................          Ttrabajo[2]=0; 
04FFE:  CLRF   x19
....................          Ttrabajo[3]++; 
05000:  INCF   x1A,F
....................       } 
....................       if(Ttrabajo[3]>9) 
05002:  BTFSC  x1A.7
05004:  BRA    500E
05006:  MOVF   x1A,W
05008:  SUBLW  09
0500A:  BC    500E
....................       { 
....................          Ttrabajo[3]=0; 
0500C:  CLRF   x1A
0500E:  MOVLB  4
....................       } 
....................    }           
....................     
....................    if(Menu!=2) 
05010:  MOVF   xD9,W
05012:  SUBLW  02
05014:  BZ    501E
....................    { 
....................       Alarma_off; 
05016:  BCF    F8B.2
05018:  BCF    F94.2
....................       Alarma=10; 
0501A:  MOVLW  0A
0501C:  MOVWF  xE9
....................    } 
.................... //_-------------------------------------------------------------------------------------------------------------------------------------------------------- 
....................       if(Menu==0){ //Menu de Contrasea. 
0501E:  MOVF   xD9,F
05020:  BTFSS  FD8.2
05022:  BRA    56EC
....................       flag_latencia=1; 
05024:  BSF    x1C.3
....................       if(Latencia==1) 
05026:  BTFSS  x1C.2
05028:  BRA    504A
....................       { 
....................          glcd_fillScreen(OFF);glcd_init(OFF);Display_off;Menu=200;reset_cpu(); 
0502A:  MOVLB  6
0502C:  CLRF   x48
0502E:  MOVLB  0
05030:  CALL   31DE
05034:  MOVLB  6
05036:  CLRF   x47
05038:  MOVLB  0
0503A:  CALL   3238
0503E:  BCF    F8A.1
05040:  BCF    F93.1
05042:  MOVLW  C8
05044:  MOVLB  4
05046:  MOVWF  xD9
05048:  RESET
....................       } 
....................        
....................       if(UP || BYTE_IR[2]==0X18)//Si oprime hacia arriba 
0504A:  BSF    F96.1
0504C:  BTFSC  F84.1
0504E:  BRA    505A
05050:  MOVLB  6
05052:  MOVF   x2F,W
05054:  SUBLW  18
05056:  BNZ   513C
05058:  MOVLB  4
....................       { 
....................          flag_latencia=0;t_latencia=0;BYTE_IR[2]=0X00; 
0505A:  BCF    x1C.3
0505C:  CLRF   xF4
0505E:  CLRF   xF3
05060:  MOVLB  6
05062:  CLRF   x2F
....................          if(Flanco == 0) 
05064:  MOVLB  4
05066:  BTFSC  x1A.0
05068:  BRA    5138
....................          { 
....................             Flanco = 1;delay_ms(5); 
0506A:  BSF    x1A.0
0506C:  MOVLW  05
0506E:  MOVLB  6
05070:  MOVWF  x4F
05072:  MOVLB  0
05074:  CALL   1396
....................             for(i=1;i<=4;i++) 
05078:  MOVLW  01
0507A:  MOVLB  4
0507C:  MOVWF  x19
0507E:  MOVF   x19,W
05080:  SUBLW  04
05082:  BNC   5138
....................             { 
....................                if(unidad==i) 
05084:  MOVF   x19,W
05086:  SUBWF  xDA,W
05088:  BNZ   5100
....................                { 
....................                   Contrasena[i-1]++; 
0508A:  MOVLW  01
0508C:  SUBWF  x19,W
0508E:  CLRF   03
05090:  ADDLW  1B
05092:  MOVWF  FE9
05094:  MOVLW  05
05096:  ADDWFC 03,W
05098:  MOVWF  FEA
0509A:  INCF   FEF,F
....................                   if(Contrasena[i-1]>9) 
0509C:  MOVLW  01
0509E:  SUBWF  x19,W
050A0:  CLRF   03
050A2:  ADDLW  1B
050A4:  MOVWF  FE9
050A6:  MOVLW  05
050A8:  ADDWFC 03,W
050AA:  MOVWF  FEA
050AC:  BTFSC  FEF.7
050AE:  BRA    50C8
050B0:  MOVF   FEF,W
050B2:  SUBLW  09
050B4:  BC    50C8
....................                   { 
....................                      Contrasena[i-1]=0; 
050B6:  MOVLW  01
050B8:  SUBWF  x19,W
050BA:  CLRF   03
050BC:  ADDLW  1B
050BE:  MOVWF  FE9
050C0:  MOVLW  05
050C2:  ADDWFC 03,W
050C4:  MOVWF  FEA
050C6:  CLRF   FEF
....................                   } 
....................                   displayContrasena(Contrasena[i-1],i*20,30,1); 
050C8:  MOVLW  01
050CA:  SUBWF  x19,W
050CC:  CLRF   03
050CE:  ADDLW  1B
050D0:  MOVWF  FE9
050D2:  MOVLW  05
050D4:  ADDWFC 03,W
050D6:  MOVWF  FEA
050D8:  MOVFF  FEF,647
050DC:  MOVF   x19,W
050DE:  MULLW  14
050E0:  MOVFF  FF3,648
050E4:  MOVLB  6
050E6:  MOVFF  647,649
050EA:  MOVFF  648,64A
050EE:  MOVLW  1E
050F0:  MOVWF  x4B
050F2:  MOVLW  01
050F4:  MOVWF  x4C
050F6:  MOVLB  0
050F8:  CALL   3894
....................                } 
....................                else 
050FC:  BRA    5132
050FE:  MOVLB  4
....................                { 
....................                   displayContrasena(Contrasena[i-1],i*20,30,0); 
05100:  MOVLW  01
05102:  SUBWF  x19,W
05104:  CLRF   03
05106:  ADDLW  1B
05108:  MOVWF  FE9
0510A:  MOVLW  05
0510C:  ADDWFC 03,W
0510E:  MOVWF  FEA
05110:  MOVFF  FEF,647
05114:  MOVF   x19,W
05116:  MULLW  14
05118:  MOVFF  FF3,648
0511C:  MOVLB  6
0511E:  MOVFF  647,649
05122:  MOVFF  648,64A
05126:  MOVLW  1E
05128:  MOVWF  x4B
0512A:  CLRF   x4C
0512C:  MOVLB  0
0512E:  CALL   3894
....................                } 
....................             } 
05132:  MOVLB  4
05134:  INCF   x19,F
05136:  BRA    507E
....................          } 
....................       } 
....................       else 
05138:  BRA    5140
0513A:  MOVLB  6
....................       { 
....................          Flanco = 0; 
0513C:  MOVLB  4
0513E:  BCF    x1A.0
....................       } 
....................              
....................       if(DOWN || BYTE_IR[2]==0X52)//Si oprime hacia abajo 
05140:  BSF    F96.2
05142:  BTFSC  F84.2
05144:  BRA    5150
05146:  MOVLB  6
05148:  MOVF   x2F,W
0514A:  SUBLW  52
0514C:  BNZ   5230
0514E:  MOVLB  4
....................       { 
....................          flag_latencia=0;t_latencia=0;BYTE_IR[2]=0X00; 
05150:  BCF    x1C.3
05152:  CLRF   xF4
05154:  CLRF   xF3
05156:  MOVLB  6
05158:  CLRF   x2F
....................          if(Flanco2 == 0) 
0515A:  MOVLB  4
0515C:  BTFSC  x1A.2
0515E:  BRA    522C
....................          { 
....................             Flanco2 = 1;delay_ms(5); 
05160:  BSF    x1A.2
05162:  MOVLW  05
05164:  MOVLB  6
05166:  MOVWF  x4F
05168:  MOVLB  0
0516A:  CALL   1396
....................             for(i=1;i<=4;i++) 
0516E:  MOVLW  01
05170:  MOVLB  4
05172:  MOVWF  x19
05174:  MOVF   x19,W
05176:  SUBLW  04
05178:  BNC   522C
....................             { 
....................                if(unidad==i) 
0517A:  MOVF   x19,W
0517C:  SUBWF  xDA,W
0517E:  BNZ   51F4
....................                { 
....................                   Contrasena[i-1]--; 
05180:  MOVLW  01
05182:  SUBWF  x19,W
05184:  CLRF   03
05186:  ADDLW  1B
05188:  MOVWF  FE9
0518A:  MOVLW  05
0518C:  ADDWFC 03,W
0518E:  MOVWF  FEA
05190:  DECF   FEF,F
....................                   if(Contrasena[i-1]<0) 
05192:  MOVLW  01
05194:  SUBWF  x19,W
05196:  CLRF   03
05198:  ADDLW  1B
0519A:  MOVWF  FE9
0519C:  MOVLW  05
0519E:  ADDWFC 03,W
051A0:  MOVWF  FEA
051A2:  BTFSC  FEF.7
051A4:  BRA    51A8
051A6:  BRA    51BC
....................                   { 
....................                      Contrasena[i-1]=9;} 
051A8:  MOVLW  01
051AA:  SUBWF  x19,W
051AC:  CLRF   03
051AE:  ADDLW  1B
051B0:  MOVWF  FE9
051B2:  MOVLW  05
051B4:  ADDWFC 03,W
051B6:  MOVWF  FEA
051B8:  MOVLW  09
051BA:  MOVWF  FEF
....................                      displayContrasena(Contrasena[i-1],i*20,30,1); 
051BC:  MOVLW  01
051BE:  SUBWF  x19,W
051C0:  CLRF   03
051C2:  ADDLW  1B
051C4:  MOVWF  FE9
051C6:  MOVLW  05
051C8:  ADDWFC 03,W
051CA:  MOVWF  FEA
051CC:  MOVFF  FEF,647
051D0:  MOVF   x19,W
051D2:  MULLW  14
051D4:  MOVFF  FF3,648
051D8:  MOVLB  6
051DA:  MOVFF  647,649
051DE:  MOVFF  648,64A
051E2:  MOVLW  1E
051E4:  MOVWF  x4B
051E6:  MOVLW  01
051E8:  MOVWF  x4C
051EA:  MOVLB  0
051EC:  CALL   3894
....................                } 
....................                else 
051F0:  BRA    5226
051F2:  MOVLB  4
....................                { 
....................                   displayContrasena(Contrasena[i-1],i*20,30,0); 
051F4:  MOVLW  01
051F6:  SUBWF  x19,W
051F8:  CLRF   03
051FA:  ADDLW  1B
051FC:  MOVWF  FE9
051FE:  MOVLW  05
05200:  ADDWFC 03,W
05202:  MOVWF  FEA
05204:  MOVFF  FEF,647
05208:  MOVF   x19,W
0520A:  MULLW  14
0520C:  MOVFF  FF3,648
05210:  MOVLB  6
05212:  MOVFF  647,649
05216:  MOVFF  648,64A
0521A:  MOVLW  1E
0521C:  MOVWF  x4B
0521E:  CLRF   x4C
05220:  MOVLB  0
05222:  CALL   3894
....................                } 
....................             }       
05226:  MOVLB  4
05228:  INCF   x19,F
0522A:  BRA    5174
....................          }      
....................       } 
....................       else 
0522C:  BRA    5234
0522E:  MOVLB  6
....................       { 
....................          Flanco2 = 0; 
05230:  MOVLB  4
05232:  BCF    x1A.2
....................       } 
....................              
....................       if(RIGHT || BYTE_IR[2]==0X5A)//Si oprime SET 
05234:  BSF    F94.0
05236:  BTFSC  F82.0
05238:  BRA    5244
0523A:  MOVLB  6
0523C:  MOVF   x2F,W
0523E:  SUBLW  5A
05240:  BNZ   52EA
05242:  MOVLB  4
....................       { 
....................          flag_latencia=0;t_latencia=0;BYTE_IR[2]=0X00; 
05244:  BCF    x1C.3
05246:  CLRF   xF4
05248:  CLRF   xF3
0524A:  MOVLB  6
0524C:  CLRF   x2F
....................          if(Flanco1 == 0) 
0524E:  MOVLB  4
05250:  BTFSC  x1A.1
05252:  BRA    52E6
....................          { 
....................             Flanco1 = 1;delay_ms(5);unidad++; 
05254:  BSF    x1A.1
05256:  MOVLW  05
05258:  MOVLB  6
0525A:  MOVWF  x4F
0525C:  MOVLB  0
0525E:  CALL   1396
05262:  MOVLB  4
05264:  INCF   xDA,F
....................             for(i=1;i<=4;i++) 
05266:  MOVLW  01
05268:  MOVWF  x19
0526A:  MOVF   x19,W
0526C:  SUBLW  04
0526E:  BNC   52E6
....................             { 
....................                if(unidad==i) 
05270:  MOVF   x19,W
05272:  SUBWF  xDA,W
05274:  BNZ   52AE
....................                { 
....................                   displayContrasena(Contrasena[i-1],i*20,30,1); 
05276:  MOVLW  01
05278:  SUBWF  x19,W
0527A:  CLRF   03
0527C:  ADDLW  1B
0527E:  MOVWF  FE9
05280:  MOVLW  05
05282:  ADDWFC 03,W
05284:  MOVWF  FEA
05286:  MOVFF  FEF,647
0528A:  MOVF   x19,W
0528C:  MULLW  14
0528E:  MOVFF  FF3,648
05292:  MOVLB  6
05294:  MOVFF  647,649
05298:  MOVFF  648,64A
0529C:  MOVLW  1E
0529E:  MOVWF  x4B
052A0:  MOVLW  01
052A2:  MOVWF  x4C
052A4:  MOVLB  0
052A6:  CALL   3894
....................                } 
....................                else 
052AA:  BRA    52E0
052AC:  MOVLB  4
....................                { 
....................                   displayContrasena(Contrasena[i-1],i*20,30,0); 
052AE:  MOVLW  01
052B0:  SUBWF  x19,W
052B2:  CLRF   03
052B4:  ADDLW  1B
052B6:  MOVWF  FE9
052B8:  MOVLW  05
052BA:  ADDWFC 03,W
052BC:  MOVWF  FEA
052BE:  MOVFF  FEF,647
052C2:  MOVF   x19,W
052C4:  MULLW  14
052C6:  MOVFF  FF3,648
052CA:  MOVLB  6
052CC:  MOVFF  647,649
052D0:  MOVFF  648,64A
052D4:  MOVLW  1E
052D6:  MOVWF  x4B
052D8:  CLRF   x4C
052DA:  MOVLB  0
052DC:  CALL   3894
....................                } 
....................             } 
052E0:  MOVLB  4
052E2:  INCF   x19,F
052E4:  BRA    526A
....................          } 
....................       } 
....................       else 
052E6:  BRA    52EE
052E8:  MOVLB  6
....................       { 
....................          Flanco1 = 0; 
052EA:  MOVLB  4
052EC:  BCF    x1A.1
....................       } 
....................      
....................       if(unidad>4) 
052EE:  MOVF   xDA,W
052F0:  SUBLW  04
052F2:  BTFSC  FD8.0
052F4:  BRA    56EC
....................       { 
....................          glcd_fillScreen(OFF);unidad=4;flag_latencia=0;t_latencia=0; 
052F6:  MOVLB  6
052F8:  CLRF   x48
052FA:  MOVLB  0
052FC:  CALL   31DE
05300:  MOVLW  04
05302:  MOVLB  4
05304:  MOVWF  xDA
05306:  BCF    x1C.3
05308:  CLRF   xF4
0530A:  CLRF   xF3
....................          if(Contrasena[0]==3&&Contrasena[1]==8&&Contrasena[2]==9&&Contrasena[3]==2) // Si Ingresa clave para reset general del sistema. 
0530C:  MOVLB  5
0530E:  MOVF   x1B,W
05310:  SUBLW  03
05312:  BTFSS  FD8.2
05314:  BRA    5402
05316:  MOVF   x1C,W
05318:  SUBLW  08
0531A:  BNZ   5402
0531C:  MOVF   x1D,W
0531E:  SUBLW  09
05320:  BNZ   5402
05322:  MOVF   x1E,W
05324:  SUBLW  02
05326:  BNZ   5402
....................          { 
....................             write_eeprom(0,0);delay_ms(20);write_eeprom(1,0);delay_ms(20);// Reestablece a contrasea de Fabrica y reinicia Programa. 
05328:  CLRF   FAA
0532A:  CLRF   FA9
0532C:  CLRF   FA8
0532E:  BCF    FA6.6
05330:  BCF    FA6.7
05332:  BSF    FA6.2
05334:  MOVF   FF2,W
05336:  MOVWF  00
05338:  BCF    FF2.7
0533A:  MOVLB  F
0533C:  MOVLW  55
0533E:  MOVWF  FA7
05340:  MOVLW  AA
05342:  MOVWF  FA7
05344:  BSF    FA6.1
05346:  BTFSC  FA6.1
05348:  BRA    5346
0534A:  BCF    FA6.2
0534C:  MOVF   00,W
0534E:  IORWF  FF2,F
05350:  MOVLW  14
05352:  MOVLB  6
05354:  MOVWF  x4F
05356:  MOVLB  0
05358:  CALL   1396
0535C:  CLRF   FAA
0535E:  MOVLW  01
05360:  MOVWF  FA9
05362:  CLRF   FA8
05364:  BCF    FA6.6
05366:  BCF    FA6.7
05368:  BSF    FA6.2
0536A:  MOVF   FF2,W
0536C:  MOVWF  00
0536E:  BCF    FF2.7
05370:  MOVLB  F
05372:  MOVLW  55
05374:  MOVWF  FA7
05376:  MOVLW  AA
05378:  MOVWF  FA7
0537A:  BSF    FA6.1
0537C:  BTFSC  FA6.1
0537E:  BRA    537C
05380:  BCF    FA6.2
05382:  MOVF   00,W
05384:  IORWF  FF2,F
05386:  MOVLW  14
05388:  MOVLB  6
0538A:  MOVWF  x4F
0538C:  MOVLB  0
0538E:  CALL   1396
....................             write_eeprom(2,0);delay_ms(20);write_eeprom(3,0);delay_ms(20); 
05392:  CLRF   FAA
05394:  MOVLW  02
05396:  MOVWF  FA9
05398:  CLRF   FA8
0539A:  BCF    FA6.6
0539C:  BCF    FA6.7
0539E:  BSF    FA6.2
053A0:  MOVF   FF2,W
053A2:  MOVWF  00
053A4:  BCF    FF2.7
053A6:  MOVLB  F
053A8:  MOVLW  55
053AA:  MOVWF  FA7
053AC:  MOVLW  AA
053AE:  MOVWF  FA7
053B0:  BSF    FA6.1
053B2:  BTFSC  FA6.1
053B4:  BRA    53B2
053B6:  BCF    FA6.2
053B8:  MOVF   00,W
053BA:  IORWF  FF2,F
053BC:  MOVLW  14
053BE:  MOVLB  6
053C0:  MOVWF  x4F
053C2:  MOVLB  0
053C4:  CALL   1396
053C8:  CLRF   FAA
053CA:  MOVLW  03
053CC:  MOVWF  FA9
053CE:  CLRF   FA8
053D0:  BCF    FA6.6
053D2:  BCF    FA6.7
053D4:  BSF    FA6.2
053D6:  MOVF   FF2,W
053D8:  MOVWF  00
053DA:  BCF    FF2.7
053DC:  MOVLB  F
053DE:  MOVLW  55
053E0:  MOVWF  FA7
053E2:  MOVLW  AA
053E4:  MOVWF  FA7
053E6:  BSF    FA6.1
053E8:  BTFSC  FA6.1
053EA:  BRA    53E8
053EC:  BCF    FA6.2
053EE:  MOVF   00,W
053F0:  IORWF  FF2,F
053F2:  MOVLW  14
053F4:  MOVLB  6
053F6:  MOVWF  x4F
053F8:  MOVLB  0
053FA:  CALL   1396
....................             reset_cpu(); 
053FE:  RESET
05400:  MOVLB  5
....................          } 
....................        
....................          if((Contrasena[0]==Password[0])&&(Contrasena[1]==Password[1])&&(Contrasena[2]==Password[2])&&(Contrasena[3]==Password[3])) 
05402:  MOVF   x1F,W
05404:  SUBWF  x1B,W
05406:  BTFSS  FD8.2
05408:  BRA    5574
0540A:  MOVF   x20,W
0540C:  SUBWF  x1C,W
0540E:  BTFSS  FD8.2
05410:  BRA    5574
05412:  MOVF   x21,W
05414:  SUBWF  x1D,W
05416:  BTFSS  FD8.2
05418:  BRA    5574
0541A:  MOVF   x22,W
0541C:  SUBWF  x1E,W
0541E:  BTFSS  FD8.2
05420:  BRA    5574
....................          { 
....................             glcd_fillScreen(OFF); 
05422:  MOVLB  6
05424:  CLRF   x48
05426:  MOVLB  0
05428:  CALL   31DE
....................             strcpy(Menus.Letra,"Clave"); 
0542C:  MOVLW  06
0542E:  MOVWF  FEA
05430:  MOVLW  31
05432:  MOVWF  FE9
05434:  MOVFF  FF2,647
05438:  BCF    FF2.7
0543A:  MOVLW  00
0543C:  CALL   0F16
05440:  TBLRD*-
05442:  TBLRD*+
05444:  MOVF   FF5,W
05446:  MOVWF  FEE
05448:  IORLW  00
0544A:  BNZ   5442
0544C:  MOVLB  6
0544E:  BTFSC  x47.7
05450:  BSF    FF2.7
....................             displayMenu(Menus.Letra,30,0,0,2); 
05452:  MOVLW  06
05454:  MOVWF  x48
05456:  MOVLW  31
05458:  MOVWF  x47
0545A:  MOVLW  1E
0545C:  MOVWF  x49
0545E:  CLRF   x4A
05460:  CLRF   x4B
05462:  MOVLW  02
05464:  MOVWF  x4C
05466:  MOVLB  0
05468:  CALL   394A
....................             strcpy(Menus.Letra,"Correcta"); 
0546C:  MOVLW  06
0546E:  MOVWF  FEA
05470:  MOVLW  31
05472:  MOVWF  FE9
05474:  MOVFF  FF2,647
05478:  BCF    FF2.7
0547A:  MOVLW  00
0547C:  CALL   0F3A
05480:  TBLRD*-
05482:  TBLRD*+
05484:  MOVF   FF5,W
05486:  MOVWF  FEE
05488:  IORLW  00
0548A:  BNZ   5482
0548C:  MOVLB  6
0548E:  BTFSC  x47.7
05490:  BSF    FF2.7
....................             displayMenu(Menus.Letra,15,30,0,2); 
05492:  MOVLW  06
05494:  MOVWF  x48
05496:  MOVLW  31
05498:  MOVWF  x47
0549A:  MOVLW  0F
0549C:  MOVWF  x49
0549E:  MOVLW  1E
054A0:  MOVWF  x4A
054A2:  CLRF   x4B
054A4:  MOVLW  02
054A6:  MOVWF  x4C
054A8:  MOVLB  0
054AA:  CALL   394A
....................             Menu=1;glcd_update();delay_ms(1000);glcd_fillScreen(OFF); 
054AE:  MOVLW  01
054B0:  MOVLB  4
054B2:  MOVWF  xD9
054B4:  MOVLB  0
054B6:  CALL   1844
054BA:  MOVLW  04
054BC:  MOVLB  6
054BE:  MOVWF  x47
054C0:  MOVLW  FA
054C2:  MOVWF  x4F
054C4:  MOVLB  0
054C6:  CALL   1396
054CA:  MOVLB  6
054CC:  DECFSZ x47,F
054CE:  BRA    54C0
054D0:  CLRF   x48
054D2:  MOVLB  0
054D4:  CALL   31DE
....................             Contrasena[0]=0;Contrasena[1]=0;Contrasena[2]=0;Contrasena[3]=0; 
054D8:  MOVLB  5
054DA:  CLRF   x1B
054DC:  CLRF   x1C
054DE:  CLRF   x1D
054E0:  CLRF   x1E
....................             displayTiempo(Tpurga[3],20,20,0,2);displayTiempo(Tpurga[2],40,20,0,2);glcd_text57(60, 22, Dos_puntos, 2, ON); 
054E2:  MOVFF  4FE,647
054E6:  MOVLW  14
054E8:  MOVLB  6
054EA:  MOVWF  x48
054EC:  MOVWF  x49
054EE:  CLRF   x4A
054F0:  MOVLW  02
054F2:  MOVWF  x4B
054F4:  MOVLB  0
054F6:  CALL   3A16
054FA:  MOVFF  4FD,647
054FE:  MOVLW  28
05500:  MOVLB  6
05502:  MOVWF  x48
05504:  MOVLW  14
05506:  MOVWF  x49
05508:  CLRF   x4A
0550A:  MOVLW  02
0550C:  MOVWF  x4B
0550E:  MOVLB  0
05510:  CALL   3A16
05514:  MOVLW  3C
05516:  MOVLB  6
05518:  MOVWF  x5E
0551A:  MOVLW  16
0551C:  MOVWF  x5F
0551E:  MOVLW  04
05520:  MOVWF  x61
05522:  MOVLW  43
05524:  MOVWF  x60
05526:  MOVLW  02
05528:  MOVWF  x62
0552A:  MOVLW  01
0552C:  MOVWF  x63
0552E:  MOVLB  0
05530:  CALL   36DC
....................             displayTiempo(Tpurga[1],70,20,0,2);displayTiempo(Tpurga[0],90,20,0,2); 
05534:  MOVFF  4FC,647
05538:  MOVLW  46
0553A:  MOVLB  6
0553C:  MOVWF  x48
0553E:  MOVLW  14
05540:  MOVWF  x49
05542:  CLRF   x4A
05544:  MOVLW  02
05546:  MOVWF  x4B
05548:  MOVLB  0
0554A:  CALL   3A16
0554E:  MOVFF  4FB,647
05552:  MOVLW  5A
05554:  MOVLB  6
05556:  MOVWF  x48
05558:  MOVLW  14
0555A:  MOVWF  x49
0555C:  CLRF   x4A
0555E:  MOVLW  02
05560:  MOVWF  x4B
05562:  MOVLB  0
05564:  CALL   3A16
....................             enable_interrupts(global);tiempo_purga=1; 
05568:  MOVLW  C0
0556A:  IORWF  FF2,F
0556C:  MOVLB  4
0556E:  BSF    x1B.6
....................          }// Esta parte se puede agregar en el Menu 1 dependiendo de la ubicacin del vidrio. 
....................          else 
05570:  BRA    56EC
05572:  MOVLB  5
....................          { 
....................             glcd_fillScreen(OFF); 
05574:  MOVLB  6
05576:  CLRF   x48
05578:  MOVLB  0
0557A:  CALL   31DE
....................             strcpy(Menus.Letra,"Clave"); 
0557E:  MOVLW  06
05580:  MOVWF  FEA
05582:  MOVLW  31
05584:  MOVWF  FE9
05586:  MOVFF  FF2,647
0558A:  BCF    FF2.7
0558C:  MOVLW  00
0558E:  CALL   0F16
05592:  TBLRD*-
05594:  TBLRD*+
05596:  MOVF   FF5,W
05598:  MOVWF  FEE
0559A:  IORLW  00
0559C:  BNZ   5594
0559E:  MOVLB  6
055A0:  BTFSC  x47.7
055A2:  BSF    FF2.7
....................             displayMenu(Menus.Letra,30,0,0,2); 
055A4:  MOVLW  06
055A6:  MOVWF  x48
055A8:  MOVLW  31
055AA:  MOVWF  x47
055AC:  MOVLW  1E
055AE:  MOVWF  x49
055B0:  CLRF   x4A
055B2:  CLRF   x4B
055B4:  MOVLW  02
055B6:  MOVWF  x4C
055B8:  MOVLB  0
055BA:  CALL   394A
....................             strcpy(Menus.Letra,"Incorrecta"); 
055BE:  MOVLW  06
055C0:  MOVWF  FEA
055C2:  MOVLW  31
055C4:  MOVWF  FE9
055C6:  MOVFF  FF2,647
055CA:  BCF    FF2.7
055CC:  MOVLW  00
055CE:  CALL   0F62
055D2:  TBLRD*-
055D4:  TBLRD*+
055D6:  MOVF   FF5,W
055D8:  MOVWF  FEE
055DA:  IORLW  00
055DC:  BNZ   55D4
055DE:  MOVLB  6
055E0:  BTFSC  x47.7
055E2:  BSF    FF2.7
....................             displayMenu(Menus.Letra,0,30,0,2); 
055E4:  MOVLW  06
055E6:  MOVWF  x48
055E8:  MOVLW  31
055EA:  MOVWF  x47
055EC:  CLRF   x49
055EE:  MOVLW  1E
055F0:  MOVWF  x4A
055F2:  CLRF   x4B
055F4:  MOVLW  02
055F6:  MOVWF  x4C
055F8:  MOVLB  0
055FA:  CALL   394A
....................             unidad=1;glcd_update();delay_ms(1000);Contrasena[0]=0;Contrasena[1]=0;Contrasena[2]=0;Contrasena[3]=0;glcd_fillScreen(OFF); 
055FE:  MOVLW  01
05600:  MOVLB  4
05602:  MOVWF  xDA
05604:  MOVLB  0
05606:  CALL   1844
0560A:  MOVLW  04
0560C:  MOVLB  6
0560E:  MOVWF  x47
05610:  MOVLW  FA
05612:  MOVWF  x4F
05614:  MOVLB  0
05616:  CALL   1396
0561A:  MOVLB  6
0561C:  DECFSZ x47,F
0561E:  BRA    5610
05620:  MOVLB  5
05622:  CLRF   x1B
05624:  CLRF   x1C
05626:  CLRF   x1D
05628:  CLRF   x1E
0562A:  MOVLB  6
0562C:  CLRF   x48
0562E:  MOVLB  0
05630:  CALL   31DE
....................             glcd_rect(0, 0, 127, 25, YES, ON);strcpy(Menus.Letra,"Clave");glcd_text57(25, 1, Menus.Letra, 3, OFF);displayContrasena(Contrasena[0],20,30,1); 
05634:  MOVLB  6
05636:  CLRF   x5E
05638:  CLRF   x5F
0563A:  MOVLW  7F
0563C:  MOVWF  x60
0563E:  MOVLW  19
05640:  MOVWF  x61
05642:  MOVLW  01
05644:  MOVWF  x62
05646:  MOVWF  x63
05648:  MOVLB  0
0564A:  CALL   361A
0564E:  MOVLW  06
05650:  MOVWF  FEA
05652:  MOVLW  31
05654:  MOVWF  FE9
05656:  MOVFF  FF2,647
0565A:  BCF    FF2.7
0565C:  MOVLW  00
0565E:  CALL   0F16
05662:  TBLRD*-
05664:  TBLRD*+
05666:  MOVF   FF5,W
05668:  MOVWF  FEE
0566A:  IORLW  00
0566C:  BNZ   5664
0566E:  MOVLB  6
05670:  BTFSC  x47.7
05672:  BSF    FF2.7
05674:  MOVLW  19
05676:  MOVWF  x5E
05678:  MOVLW  01
0567A:  MOVWF  x5F
0567C:  MOVLW  06
0567E:  MOVWF  x61
05680:  MOVLW  31
05682:  MOVWF  x60
05684:  MOVLW  03
05686:  MOVWF  x62
05688:  CLRF   x63
0568A:  MOVLB  0
0568C:  CALL   36DC
05690:  MOVFF  51B,649
05694:  MOVLW  14
05696:  MOVLB  6
05698:  MOVWF  x4A
0569A:  MOVLW  1E
0569C:  MOVWF  x4B
0569E:  MOVLW  01
056A0:  MOVWF  x4C
056A2:  MOVLB  0
056A4:  CALL   3894
....................             displayContrasena(Contrasena[1],40,30,0);displayContrasena(Contrasena[2],60,30,0);displayContrasena(Contrasena[0],80,30,0); 
056A8:  MOVFF  51C,649
056AC:  MOVLW  28
056AE:  MOVLB  6
056B0:  MOVWF  x4A
056B2:  MOVLW  1E
056B4:  MOVWF  x4B
056B6:  CLRF   x4C
056B8:  MOVLB  0
056BA:  CALL   3894
056BE:  MOVFF  51D,649
056C2:  MOVLW  3C
056C4:  MOVLB  6
056C6:  MOVWF  x4A
056C8:  MOVLW  1E
056CA:  MOVWF  x4B
056CC:  CLRF   x4C
056CE:  MOVLB  0
056D0:  CALL   3894
056D4:  MOVFF  51B,649
056D8:  MOVLW  50
056DA:  MOVLB  6
056DC:  MOVWF  x4A
056DE:  MOVLW  1E
056E0:  MOVWF  x4B
056E2:  CLRF   x4C
056E4:  MOVLB  0
056E6:  CALL   3894
056EA:  MOVLB  4
....................          } 
....................       } 
....................       } 
.................... //_--------------------------------------------------------------------------------------------------------------------------------------------------------        
....................  
.................... //_-------------------------------------------------------------------------------------------------------------------------------------------------------- 
....................       if(Menu==1)//Menu de Purga. 
056EC:  DECFSZ xD9,W
056EE:  BRA    58AA
....................       {  
....................          glcd_text57(15, 1, Tiempo, 1, ON); 
056F0:  MOVLW  0F
056F2:  MOVLB  6
056F4:  MOVWF  x5E
056F6:  MOVLW  01
056F8:  MOVWF  x5F
056FA:  MOVLW  04
056FC:  MOVWF  x61
056FE:  MOVLW  50
05700:  MOVWF  x60
05702:  MOVLW  01
05704:  MOVWF  x62
05706:  MOVWF  x63
05708:  MOVLB  0
0570A:  CALL   36DC
....................          // Para que inicie el tiempo de purga se debe tener el vidrio en la altura adecuada. 
....................          // Una vez ubicado el vidrio se debe encender la Luz Blanca y el Ventilador e iniciar el Tiempo de purga. 
....................          //Motor(1); 
....................          if(!VIDRIOUP) 
0570E:  BSF    F92.5
05710:  BTFSC  F80.5
05712:  BRA    574A
....................          { 
....................             tiempo_purga=1;LuzBlanca_off;LuzUV_off;Toma_off;Alarma_off;Motor_on; 
05714:  MOVLB  4
05716:  BSF    x1B.6
05718:  BCF    F8B.4
0571A:  BCF    F94.4
0571C:  BCF    F8B.5
0571E:  BCF    F94.5
05720:  BCF    F8B.7
05722:  BCF    F94.7
05724:  BCF    F8B.2
05726:  BCF    F94.2
05728:  BSF    F8B.6
0572A:  BCF    F94.6
....................             glcd_rect(9, 54, 120, 64, YES, OFF); 
0572C:  MOVLW  09
0572E:  MOVLB  6
05730:  MOVWF  x5E
05732:  MOVLW  36
05734:  MOVWF  x5F
05736:  MOVLW  78
05738:  MOVWF  x60
0573A:  MOVLW  40
0573C:  MOVWF  x61
0573E:  MOVLW  01
05740:  MOVWF  x62
05742:  CLRF   x63
05744:  MOVLB  0
05746:  CALL   361A
....................          }  
....................          if(VIDRIOUP) 
0574A:  BSF    F92.5
0574C:  BTFSS  F80.5
0574E:  BRA    5776
....................          { 
....................             Motor_on;tiempo_purga=0;glcd_text57(10,55, Baje_Vidrio, 1, ON); 
05750:  BSF    F8B.6
05752:  BCF    F94.6
05754:  MOVLB  4
05756:  BCF    x1B.6
05758:  MOVLW  0A
0575A:  MOVLB  6
0575C:  MOVWF  x5E
0575E:  MOVLW  37
05760:  MOVWF  x5F
05762:  MOVLW  04
05764:  MOVWF  x61
05766:  MOVLW  63
05768:  MOVWF  x60
0576A:  MOVLW  01
0576C:  MOVWF  x62
0576E:  MOVWF  x63
05770:  MOVLB  0
05772:  CALL   36DC
....................          } 
....................        
....................          displayTiempo(Tpurga[3],20,20,0,2);displayTiempo(Tpurga[2],40,20,0,2);glcd_text57(60, 22, Dos_puntos, 2, ON); 
05776:  MOVFF  4FE,647
0577A:  MOVLW  14
0577C:  MOVLB  6
0577E:  MOVWF  x48
05780:  MOVWF  x49
05782:  CLRF   x4A
05784:  MOVLW  02
05786:  MOVWF  x4B
05788:  MOVLB  0
0578A:  CALL   3A16
0578E:  MOVFF  4FD,647
05792:  MOVLW  28
05794:  MOVLB  6
05796:  MOVWF  x48
05798:  MOVLW  14
0579A:  MOVWF  x49
0579C:  CLRF   x4A
0579E:  MOVLW  02
057A0:  MOVWF  x4B
057A2:  MOVLB  0
057A4:  CALL   3A16
057A8:  MOVLW  3C
057AA:  MOVLB  6
057AC:  MOVWF  x5E
057AE:  MOVLW  16
057B0:  MOVWF  x5F
057B2:  MOVLW  04
057B4:  MOVWF  x61
057B6:  MOVLW  43
057B8:  MOVWF  x60
057BA:  MOVLW  02
057BC:  MOVWF  x62
057BE:  MOVLW  01
057C0:  MOVWF  x63
057C2:  MOVLB  0
057C4:  CALL   36DC
....................          displayTiempo(Tpurga[1],70,20,0,2);displayTiempo(Tpurga[0],90,20,0,2);         
057C8:  MOVFF  4FC,647
057CC:  MOVLW  46
057CE:  MOVLB  6
057D0:  MOVWF  x48
057D2:  MOVLW  14
057D4:  MOVWF  x49
057D6:  CLRF   x4A
057D8:  MOVLW  02
057DA:  MOVWF  x4B
057DC:  MOVLB  0
057DE:  CALL   3A16
057E2:  MOVFF  4FB,647
057E6:  MOVLW  5A
057E8:  MOVLB  6
057EA:  MOVWF  x48
057EC:  MOVLW  14
057EE:  MOVWF  x49
057F0:  CLRF   x4A
057F2:  MOVLW  02
057F4:  MOVWF  x4B
057F6:  MOVLB  0
057F8:  CALL   3A16
....................        
....................          if(RIGHT || BYTE_IR[2]==0X1C) 
057FC:  BSF    F94.0
057FE:  BTFSC  F82.0
05800:  BRA    580C
05802:  MOVLB  6
05804:  MOVF   x2F,W
05806:  SUBLW  1C
05808:  BNZ   5844
0580A:  MOVLB  0
....................          { 
....................             delay_ms(1000); 
0580C:  MOVLW  04
0580E:  MOVLB  6
05810:  MOVWF  x47
05812:  MOVLW  FA
05814:  MOVWF  x4F
05816:  MOVLB  0
05818:  CALL   1396
0581C:  MOVLB  6
0581E:  DECFSZ x47,F
05820:  BRA    5812
....................             if(RIGHT || BYTE_IR[2]==0X1C) 
05822:  BSF    F94.0
05824:  BTFSC  F82.0
05826:  BRA    582E
05828:  MOVF   x2F,W
0582A:  SUBLW  1C
0582C:  BNZ   5844
....................             { 
....................                tiempo_purga=0;Menu=2;glcd_fillScreen(OFF);BYTE_IR[2]=0X00; 
0582E:  MOVLB  4
05830:  BCF    x1B.6
05832:  MOVLW  02
05834:  MOVWF  xD9
05836:  MOVLB  6
05838:  CLRF   x48
0583A:  MOVLB  0
0583C:  CALL   31DE
05840:  MOVLB  6
05842:  CLRF   x2F
....................             } 
....................          } 
....................         
....................          if((Tpurga[0]>=Tpurgap[0])&&(Tpurga[1]>=Tpurgap[1])&&(Tpurga[2]>=Tpurgap[2])&&(Tpurga[3]>=Tpurgap[3])) 
05844:  MOVLB  4
05846:  MOVF   xFF,W
05848:  XORLW  80
0584A:  MOVWF  00
0584C:  MOVF   xFB,W
0584E:  XORLW  80
05850:  SUBWF  00,W
05852:  BZ    5856
05854:  BC    58AA
05856:  MOVLB  5
05858:  MOVF   x00,W
0585A:  XORLW  80
0585C:  MOVWF  00
0585E:  MOVLB  4
05860:  MOVF   xFC,W
05862:  XORLW  80
05864:  SUBWF  00,W
05866:  BZ    586A
05868:  BC    58AA
0586A:  MOVLB  5
0586C:  MOVF   x01,W
0586E:  XORLW  80
05870:  MOVWF  00
05872:  MOVLB  4
05874:  MOVF   xFD,W
05876:  XORLW  80
05878:  SUBWF  00,W
0587A:  BZ    587E
0587C:  BC    58AA
0587E:  MOVLB  5
05880:  MOVF   x02,W
05882:  XORLW  80
05884:  MOVWF  00
05886:  MOVLB  4
05888:  MOVF   xFE,W
0588A:  XORLW  80
0588C:  SUBWF  00,W
0588E:  BZ    5892
05890:  BC    58AA
....................          { 
....................             tiempo_purga=0;Menu=2;glcd_fillScreen(OFF);flag_luz=!flag_luz;flag_blower=1;flag_toma=1; 
05892:  BCF    x1B.6
05894:  MOVLW  02
05896:  MOVWF  xD9
05898:  MOVLB  6
0589A:  CLRF   x48
0589C:  MOVLB  0
0589E:  CALL   31DE
058A2:  MOVLB  4
058A4:  BTG    x1B.3
058A6:  BSF    x1B.1
058A8:  BSF    x1B.2
....................          }       
....................       } 
.................... //_--------------------------------------------------------------------------------------------------------------------------------------------------------        
....................  
.................... //_-------------------------------------------------------------------------------------------------------------------------------------------------------- 
....................       if(Menu==2) //Menu General. 
058AA:  MOVF   xD9,W
058AC:  SUBLW  02
058AE:  BTFSS  FD8.2
058B0:  BRA    5F7A
....................       {          
....................          w=0; 
058B2:  BCF    x1B.5
....................          glcd_imagen(4); 
058B4:  MOVLW  04
058B6:  MOVLB  6
058B8:  MOVWF  x47
058BA:  MOVLB  0
058BC:  CALL   3B06
....................          glcd_text57(0, 1, Inflowt, 1, ON); 
058C0:  MOVLB  6
058C2:  CLRF   x5E
058C4:  MOVLW  01
058C6:  MOVWF  x5F
058C8:  MOVLW  04
058CA:  MOVWF  x61
058CC:  MOVLW  75
058CE:  MOVWF  x60
058D0:  MOVLW  01
058D2:  MOVWF  x62
058D4:  MOVWF  x63
058D6:  MOVLB  0
058D8:  CALL   36DC
....................          glcd_text57(0, 21, Downflowt, 1, ON); 
058DC:  MOVLB  6
058DE:  CLRF   x5E
058E0:  MOVLW  15
058E2:  MOVWF  x5F
058E4:  MOVLW  04
058E6:  MOVWF  x61
058E8:  MOVLW  80
058EA:  MOVWF  x60
058EC:  MOVLW  01
058EE:  MOVWF  x62
058F0:  MOVWF  x63
058F2:  MOVLB  0
058F4:  CALL   36DC
....................          glcd_text57(0, 35, Vida_Filtro, 1, ON); 
058F8:  MOVLB  6
058FA:  CLRF   x5E
058FC:  MOVLW  23
058FE:  MOVWF  x5F
05900:  MOVLW  04
05902:  MOVWF  x61
05904:  MOVLW  B3
05906:  MOVWF  x60
05908:  MOVLW  01
0590A:  MOVWF  x62
0590C:  MOVWF  x63
0590E:  MOVLB  0
05910:  CALL   36DC
....................          //displayTiempo(Ttrabajo[3],60,28,0,1);displayTiempo(Ttrabajo[2],67,28,0,1);displayTiempo(Ttrabajo[1],74,28,0,1);displayTiempo(Ttrabajo[0],82,28,0,1); 
....................          //glcd_text57(0, 43, Vida_UV, 1, ON); 
....................          //displayTiempo(Tuv[3],60,42,0,1);displayTiempo(Tuv[2],67,42,0,1);displayTiempo(Tuv[1],74,42,0,1);displayTiempo(Tuv[0],82,42,0,1);        
....................          //UVTime=Tuv[0]+(Tuv[1]*10)+(Tuv[2]*100)+(Tuv[3]*1000);          
....................           
....................          if(imprimir==1) 
05914:  MOVLB  4
05916:  BTFSS  x1A.7
05918:  BRA    5954
....................          { 
....................             Downflow=Inflow; 
0591A:  MOVFF  526,52A
0591E:  MOVFF  525,529
05922:  MOVFF  524,528
05926:  MOVFF  523,527
....................             //displayfloat(Inflow,70,1,0,1); 
....................             displayfloat(Downflow,70,21,0,1);    
0592A:  MOVFF  52A,64E
0592E:  MOVFF  529,64D
05932:  MOVFF  528,64C
05936:  MOVFF  527,64B
0593A:  MOVLW  46
0593C:  MOVLB  6
0593E:  MOVWF  x4F
05940:  MOVLW  15
05942:  MOVWF  x50
05944:  CLRF   x51
05946:  MOVLW  01
05948:  MOVWF  x52
0594A:  MOVLB  0
0594C:  CALL   3F7C
....................             imprimir=0; 
05950:  MOVLB  4
05952:  BCF    x1A.7
....................          } 
....................           
....................          if(flag_blower==1) 
05954:  BTFSS  x1B.1
05956:  BRA    5A4A
....................          { 
....................             glcd_imagen(5);tiempo_trabajo=1;Motor_on; 
05958:  MOVLW  05
0595A:  MOVLB  6
0595C:  MOVWF  x47
0595E:  MOVLB  0
05960:  CALL   3B06
05964:  MOVLB  4
05966:  BSF    x1C.0
05968:  BSF    F8B.6
0596A:  BCF    F94.6
....................             if(guardatrabajo==1) 
0596C:  BTFSS  x1C.5
0596E:  BRA    5A48
....................             { 
....................                guardatrabajo=0;write_eeprom(30,minutos_trabajo); 
05970:  BCF    x1C.5
05972:  CLRF   FAA
05974:  MOVLW  1E
05976:  MOVWF  FA9
05978:  MOVFF  4F7,FA8
0597C:  BCF    FA6.6
0597E:  BCF    FA6.7
05980:  BSF    FA6.2
05982:  MOVF   FF2,W
05984:  MOVWF  00
05986:  BCF    FF2.7
05988:  MOVLB  F
0598A:  MOVLW  55
0598C:  MOVWF  FA7
0598E:  MOVLW  AA
05990:  MOVWF  FA7
05992:  BSF    FA6.1
05994:  BTFSC  FA6.1
05996:  BRA    5994
05998:  BCF    FA6.2
0599A:  MOVF   00,W
0599C:  IORWF  FF2,F
....................                write_eeprom(16,Ttrabajo[0]);write_eeprom(17,Ttrabajo[1]);write_eeprom(18,Ttrabajo[2]);write_eeprom(19,Ttrabajo[3]); 
0599E:  CLRF   FAA
059A0:  MOVLW  10
059A2:  MOVWF  FA9
059A4:  MOVFF  517,FA8
059A8:  BCF    FA6.6
059AA:  BCF    FA6.7
059AC:  BSF    FA6.2
059AE:  MOVFF  FF2,00
059B2:  BCF    FF2.7
059B4:  MOVLW  55
059B6:  MOVWF  FA7
059B8:  MOVLW  AA
059BA:  MOVWF  FA7
059BC:  BSF    FA6.1
059BE:  BTFSC  FA6.1
059C0:  BRA    59BE
059C2:  BCF    FA6.2
059C4:  MOVF   00,W
059C6:  IORWF  FF2,F
059C8:  CLRF   FAA
059CA:  MOVLW  11
059CC:  MOVWF  FA9
059CE:  MOVFF  518,FA8
059D2:  BCF    FA6.6
059D4:  BCF    FA6.7
059D6:  BSF    FA6.2
059D8:  MOVFF  FF2,00
059DC:  BCF    FF2.7
059DE:  MOVLW  55
059E0:  MOVWF  FA7
059E2:  MOVLW  AA
059E4:  MOVWF  FA7
059E6:  BSF    FA6.1
059E8:  BTFSC  FA6.1
059EA:  BRA    59E8
059EC:  BCF    FA6.2
059EE:  MOVF   00,W
059F0:  IORWF  FF2,F
059F2:  CLRF   FAA
059F4:  MOVLW  12
059F6:  MOVWF  FA9
059F8:  MOVFF  519,FA8
059FC:  BCF    FA6.6
059FE:  BCF    FA6.7
05A00:  BSF    FA6.2
05A02:  MOVFF  FF2,00
05A06:  BCF    FF2.7
05A08:  MOVLW  55
05A0A:  MOVWF  FA7
05A0C:  MOVLW  AA
05A0E:  MOVWF  FA7
05A10:  BSF    FA6.1
05A12:  BTFSC  FA6.1
05A14:  BRA    5A12
05A16:  BCF    FA6.2
05A18:  MOVF   00,W
05A1A:  IORWF  FF2,F
05A1C:  CLRF   FAA
05A1E:  MOVLW  13
05A20:  MOVWF  FA9
05A22:  MOVFF  51A,FA8
05A26:  BCF    FA6.6
05A28:  BCF    FA6.7
05A2A:  BSF    FA6.2
05A2C:  MOVFF  FF2,00
05A30:  BCF    FF2.7
05A32:  MOVLW  55
05A34:  MOVWF  FA7
05A36:  MOVLW  AA
05A38:  MOVWF  FA7
05A3A:  BSF    FA6.1
05A3C:  BTFSC  FA6.1
05A3E:  BRA    5A3C
05A40:  BCF    FA6.2
05A42:  MOVF   00,W
05A44:  IORWF  FF2,F
05A46:  MOVLB  4
....................             } 
....................          } 
....................          else 
05A48:  BRA    5B56
....................          { 
....................             Filtro_Downflow=0; 
05A4A:  MOVLB  5
05A4C:  CLRF   x2E
05A4E:  CLRF   x2D
05A50:  CLRF   x2C
05A52:  CLRF   x2B
....................             glcd_rect(102, 45, 127, 64, YES, OFF);tiempo_trabajo=0;Motor_off; 
05A54:  MOVLW  66
05A56:  MOVLB  6
05A58:  MOVWF  x5E
05A5A:  MOVLW  2D
05A5C:  MOVWF  x5F
05A5E:  MOVLW  7F
05A60:  MOVWF  x60
05A62:  MOVLW  40
05A64:  MOVWF  x61
05A66:  MOVLW  01
05A68:  MOVWF  x62
05A6A:  CLRF   x63
05A6C:  MOVLB  0
05A6E:  CALL   361A
05A72:  MOVLB  4
05A74:  BCF    x1C.0
05A76:  BCF    F8B.6
05A78:  BCF    F94.6
....................             if(guardatrabajo==0) 
05A7A:  BTFSC  x1C.5
05A7C:  BRA    5B56
....................             { 
....................                guardatrabajo=1;write_eeprom(30,minutos_trabajo); 
05A7E:  BSF    x1C.5
05A80:  CLRF   FAA
05A82:  MOVLW  1E
05A84:  MOVWF  FA9
05A86:  MOVFF  4F7,FA8
05A8A:  BCF    FA6.6
05A8C:  BCF    FA6.7
05A8E:  BSF    FA6.2
05A90:  MOVF   FF2,W
05A92:  MOVWF  00
05A94:  BCF    FF2.7
05A96:  MOVLB  F
05A98:  MOVLW  55
05A9A:  MOVWF  FA7
05A9C:  MOVLW  AA
05A9E:  MOVWF  FA7
05AA0:  BSF    FA6.1
05AA2:  BTFSC  FA6.1
05AA4:  BRA    5AA2
05AA6:  BCF    FA6.2
05AA8:  MOVF   00,W
05AAA:  IORWF  FF2,F
....................                write_eeprom(16,Ttrabajo[0]);write_eeprom(17,Ttrabajo[1]);write_eeprom(18,Ttrabajo[2]);write_eeprom(19,Ttrabajo[3]); 
05AAC:  CLRF   FAA
05AAE:  MOVLW  10
05AB0:  MOVWF  FA9
05AB2:  MOVFF  517,FA8
05AB6:  BCF    FA6.6
05AB8:  BCF    FA6.7
05ABA:  BSF    FA6.2
05ABC:  MOVFF  FF2,00
05AC0:  BCF    FF2.7
05AC2:  MOVLW  55
05AC4:  MOVWF  FA7
05AC6:  MOVLW  AA
05AC8:  MOVWF  FA7
05ACA:  BSF    FA6.1
05ACC:  BTFSC  FA6.1
05ACE:  BRA    5ACC
05AD0:  BCF    FA6.2
05AD2:  MOVF   00,W
05AD4:  IORWF  FF2,F
05AD6:  CLRF   FAA
05AD8:  MOVLW  11
05ADA:  MOVWF  FA9
05ADC:  MOVFF  518,FA8
05AE0:  BCF    FA6.6
05AE2:  BCF    FA6.7
05AE4:  BSF    FA6.2
05AE6:  MOVFF  FF2,00
05AEA:  BCF    FF2.7
05AEC:  MOVLW  55
05AEE:  MOVWF  FA7
05AF0:  MOVLW  AA
05AF2:  MOVWF  FA7
05AF4:  BSF    FA6.1
05AF6:  BTFSC  FA6.1
05AF8:  BRA    5AF6
05AFA:  BCF    FA6.2
05AFC:  MOVF   00,W
05AFE:  IORWF  FF2,F
05B00:  CLRF   FAA
05B02:  MOVLW  12
05B04:  MOVWF  FA9
05B06:  MOVFF  519,FA8
05B0A:  BCF    FA6.6
05B0C:  BCF    FA6.7
05B0E:  BSF    FA6.2
05B10:  MOVFF  FF2,00
05B14:  BCF    FF2.7
05B16:  MOVLW  55
05B18:  MOVWF  FA7
05B1A:  MOVLW  AA
05B1C:  MOVWF  FA7
05B1E:  BSF    FA6.1
05B20:  BTFSC  FA6.1
05B22:  BRA    5B20
05B24:  BCF    FA6.2
05B26:  MOVF   00,W
05B28:  IORWF  FF2,F
05B2A:  CLRF   FAA
05B2C:  MOVLW  13
05B2E:  MOVWF  FA9
05B30:  MOVFF  51A,FA8
05B34:  BCF    FA6.6
05B36:  BCF    FA6.7
05B38:  BSF    FA6.2
05B3A:  MOVFF  FF2,00
05B3E:  BCF    FF2.7
05B40:  MOVLW  55
05B42:  MOVWF  FA7
05B44:  MOVLW  AA
05B46:  MOVWF  FA7
05B48:  BSF    FA6.1
05B4A:  BTFSC  FA6.1
05B4C:  BRA    5B4A
05B4E:  BCF    FA6.2
05B50:  MOVF   00,W
05B52:  IORWF  FF2,F
05B54:  MOVLB  4
....................             } 
....................          } 
....................           
.................... // Dibujo de barra de estado de filtro                   
....................          barra=100.0*(Filtro_Downflow/2.0); 
05B56:  MOVFF  52E,67B
05B5A:  MOVFF  52D,67A
05B5E:  MOVFF  52C,679
05B62:  MOVFF  52B,678
05B66:  MOVLB  6
05B68:  CLRF   x7F
05B6A:  CLRF   x7E
05B6C:  CLRF   x7D
05B6E:  MOVLW  80
05B70:  MOVWF  x7C
05B72:  MOVLB  0
05B74:  CALL   13F4
05B78:  MOVLB  6
05B7A:  CLRF   x7B
05B7C:  CLRF   x7A
05B7E:  MOVLW  48
05B80:  MOVWF  x79
05B82:  MOVLW  85
05B84:  MOVWF  x78
05B86:  MOVFF  03,67F
05B8A:  MOVFF  02,67E
05B8E:  MOVFF  01,67D
05B92:  MOVFF  00,67C
05B96:  MOVLB  0
05B98:  CALL   19EE
05B9C:  MOVFF  03,536
05BA0:  MOVFF  02,535
05BA4:  MOVFF  01,534
05BA8:  MOVFF  00,533
....................          if(barra>100.0) 
05BAC:  MOVLB  6
05BAE:  CLRF   x7B
05BB0:  CLRF   x7A
05BB2:  MOVLW  48
05BB4:  MOVWF  x79
05BB6:  MOVLW  85
05BB8:  MOVWF  x78
05BBA:  MOVFF  536,67F
05BBE:  MOVFF  535,67E
05BC2:  MOVFF  534,67D
05BC6:  MOVFF  533,67C
05BCA:  MOVLB  0
05BCC:  CALL   1938
05BD0:  BNC   5BE0
....................             barra=100.0; 
05BD2:  MOVLB  5
05BD4:  CLRF   x36
05BD6:  CLRF   x35
05BD8:  MOVLW  48
05BDA:  MOVWF  x34
05BDC:  MOVLW  85
05BDE:  MOVWF  x33
....................          barra=barra/2; 
05BE0:  MOVFF  536,67B
05BE4:  MOVFF  535,67A
05BE8:  MOVFF  534,679
05BEC:  MOVFF  533,678
05BF0:  MOVLB  6
05BF2:  CLRF   x7F
05BF4:  CLRF   x7E
05BF6:  CLRF   x7D
05BF8:  MOVLW  80
05BFA:  MOVWF  x7C
05BFC:  MOVLB  0
05BFE:  CALL   13F4
05C02:  MOVFF  03,536
05C06:  MOVFF  02,535
05C0A:  MOVFF  01,534
05C0E:  MOVFF  00,533
....................          glcd_rect(42, 34, (int8)(barra_old)+42, 41, YES, OFF);  // Clears the old bar 
05C12:  MOVFF  53A,67B
05C16:  MOVFF  539,67A
05C1A:  MOVFF  538,679
05C1E:  MOVFF  537,678
05C22:  CALL   19B2
05C26:  MOVLW  2A
05C28:  ADDWF  01,W
05C2A:  MOVLB  6
05C2C:  MOVWF  x47
05C2E:  MOVLW  2A
05C30:  MOVWF  x5E
05C32:  MOVLW  22
05C34:  MOVWF  x5F
05C36:  MOVFF  647,660
05C3A:  MOVLW  29
05C3C:  MOVWF  x61
05C3E:  MOVLW  01
05C40:  MOVWF  x62
05C42:  CLRF   x63
05C44:  MOVLB  0
05C46:  CALL   361A
....................          glcd_rect(42, 34, (int8)(barra)+42, 41, YES, ON);             // Draws a new bar 
05C4A:  MOVFF  536,67B
05C4E:  MOVFF  535,67A
05C52:  MOVFF  534,679
05C56:  MOVFF  533,678
05C5A:  CALL   19B2
05C5E:  MOVLW  2A
05C60:  ADDWF  01,W
05C62:  MOVLB  6
05C64:  MOVWF  x47
05C66:  MOVLW  2A
05C68:  MOVWF  x5E
05C6A:  MOVLW  22
05C6C:  MOVWF  x5F
05C6E:  MOVFF  647,660
05C72:  MOVLW  29
05C74:  MOVWF  x61
05C76:  MOVLW  01
05C78:  MOVWF  x62
05C7A:  MOVWF  x63
05C7C:  MOVLB  0
05C7E:  CALL   361A
....................          glcd_rect(40, 32, 94, 43, NO, ON);             // Draws a new bar 
05C82:  MOVLW  28
05C84:  MOVLB  6
05C86:  MOVWF  x5E
05C88:  MOVLW  20
05C8A:  MOVWF  x5F
05C8C:  MOVLW  5E
05C8E:  MOVWF  x60
05C90:  MOVLW  2B
05C92:  MOVWF  x61
05C94:  CLRF   x62
05C96:  MOVLW  01
05C98:  MOVWF  x63
05C9A:  MOVLB  0
05C9C:  CALL   361A
....................          barra_old=barra; 
05CA0:  MOVFF  536,53A
05CA4:  MOVFF  535,539
05CA8:  MOVFF  534,538
05CAC:  MOVFF  533,537
.................... // Fin de Dibujo de barra de estado de Filtro 
....................  
....................          if(Downflow<0.5) 
05CB0:  MOVFF  52A,67B
05CB4:  MOVFF  529,67A
05CB8:  MOVFF  528,679
05CBC:  MOVFF  527,678
05CC0:  MOVLB  6
05CC2:  CLRF   x7F
05CC4:  CLRF   x7E
05CC6:  CLRF   x7D
05CC8:  MOVLW  7E
05CCA:  MOVWF  x7C
05CCC:  MOVLB  0
05CCE:  CALL   1938
05CD2:  BNC   5D0A
....................          { 
....................             flag_latencia=1; 
05CD4:  MOVLB  4
05CD6:  BSF    x1C.3
....................             if(Latencia==1) 
05CD8:  BTFSS  x1C.2
05CDA:  BRA    5D06
....................             {          
....................                if(Downflow<0.5) 
05CDC:  MOVFF  52A,67B
05CE0:  MOVFF  529,67A
05CE4:  MOVFF  528,679
05CE8:  MOVFF  527,678
05CEC:  MOVLB  6
05CEE:  CLRF   x7F
05CF0:  CLRF   x7E
05CF2:  CLRF   x7D
05CF4:  MOVLW  7E
05CF6:  MOVWF  x7C
05CF8:  MOVLB  0
05CFA:  CALL   1938
05CFE:  BNC   5D08
....................                { 
....................                   Alarma=5; 
05D00:  MOVLW  05
05D02:  MOVLB  4
05D04:  MOVWF  xE9
05D06:  MOVLB  0
....................                } 
....................             } 
....................          } 
....................          else 
05D08:  BRA    5D3A
....................          { 
....................             Latencia=0;t_latencia=0;flag_latencia=0; 
05D0A:  MOVLB  4
05D0C:  BCF    x1C.2
05D0E:  CLRF   xF4
05D10:  CLRF   xF3
05D12:  BCF    x1C.3
....................             glcd_rect(0, 54, 104, 64, YES, OFF);Alarma_off;Alarma=10; 
05D14:  MOVLB  6
05D16:  CLRF   x5E
05D18:  MOVLW  36
05D1A:  MOVWF  x5F
05D1C:  MOVLW  68
05D1E:  MOVWF  x60
05D20:  MOVLW  40
05D22:  MOVWF  x61
05D24:  MOVLW  01
05D26:  MOVWF  x62
05D28:  CLRF   x63
05D2A:  MOVLB  0
05D2C:  CALL   361A
05D30:  BCF    F8B.2
05D32:  BCF    F94.2
05D34:  MOVLW  0A
05D36:  MOVLB  4
05D38:  MOVWF  xE9
....................          } 
....................           
....................          if(flag_luz==1) 
05D3A:  MOVLB  4
05D3C:  BTFSS  x1B.3
05D3E:  BRA    5D54
....................          { 
....................             glcd_imagen(3);LuzBlanca_on; 
05D40:  MOVLW  03
05D42:  MOVLB  6
05D44:  MOVWF  x47
05D46:  MOVLB  0
05D48:  CALL   3B06
05D4C:  BSF    F8B.4
05D4E:  BCF    F94.4
....................          } 
....................          else 
05D50:  BRA    5D76
05D52:  MOVLB  4
....................          { 
....................             glcd_rect(102, 14, 127, 28, YES, OFF);LuzBlanca_off; 
05D54:  MOVLW  66
05D56:  MOVLB  6
05D58:  MOVWF  x5E
05D5A:  MOVLW  0E
05D5C:  MOVWF  x5F
05D5E:  MOVLW  7F
05D60:  MOVWF  x60
05D62:  MOVLW  1C
05D64:  MOVWF  x61
05D66:  MOVLW  01
05D68:  MOVWF  x62
05D6A:  CLRF   x63
05D6C:  MOVLB  0
05D6E:  CALL   361A
05D72:  BCF    F8B.4
05D74:  BCF    F94.4
....................          } 
....................              
....................          if(Alarma==5) 
05D76:  MOVLB  4
05D78:  MOVF   xE9,W
05D7A:  SUBLW  05
05D7C:  BNZ   5DBA
....................          { 
....................             glcd_rect(0, 55, 100, 63, YES, OFF); 
05D7E:  MOVLB  6
05D80:  CLRF   x5E
05D82:  MOVLW  37
05D84:  MOVWF  x5F
05D86:  MOVLW  64
05D88:  MOVWF  x60
05D8A:  MOVLW  3F
05D8C:  MOVWF  x61
05D8E:  MOVLW  01
05D90:  MOVWF  x62
05D92:  CLRF   x63
05D94:  MOVLB  0
05D96:  CALL   361A
....................             glcd_text57(0,55, Perdida, 1, ON); 
05D9A:  MOVLB  6
05D9C:  CLRF   x5E
05D9E:  MOVLW  37
05DA0:  MOVWF  x5F
05DA2:  MOVLW  04
05DA4:  MOVWF  x61
05DA6:  MOVLW  C9
05DA8:  MOVWF  x60
05DAA:  MOVLW  01
05DAC:  MOVWF  x62
05DAE:  MOVWF  x63
05DB0:  MOVLB  0
05DB2:  CALL   36DC
....................          } 
....................          else 
05DB6:  BRA    5DD6
05DB8:  MOVLB  4
....................          {                
....................             glcd_rect(0, 55, 100, 63, YES, OFF);             
05DBA:  MOVLB  6
05DBC:  CLRF   x5E
05DBE:  MOVLW  37
05DC0:  MOVWF  x5F
05DC2:  MOVLW  64
05DC4:  MOVWF  x60
05DC6:  MOVLW  3F
05DC8:  MOVWF  x61
05DCA:  MOVLW  01
05DCC:  MOVWF  x62
05DCE:  CLRF   x63
05DD0:  MOVLB  0
05DD2:  CALL   361A
....................          } 
....................           
....................              
....................       if(RIGHT || BYTE_IR[2]==0X5A)//Si oprime boton de Blower. 
05DD6:  BSF    F94.0
05DD8:  BTFSC  F82.0
05DDA:  BRA    5DE6
05DDC:  MOVLB  6
05DDE:  MOVF   x2F,W
05DE0:  SUBLW  5A
05DE2:  BNZ   5E08
05DE4:  MOVLB  0
....................       { 
....................          if(Flanco3 == 0) 
05DE6:  MOVLB  4
05DE8:  BTFSC  x1A.3
05DEA:  BRA    5E04
....................          { 
....................             Flanco3 = 1;delay_ms(5);flag_blower=!flag_blower;BYTE_IR[2]=0X00; 
05DEC:  BSF    x1A.3
05DEE:  MOVLW  05
05DF0:  MOVLB  6
05DF2:  MOVWF  x4F
05DF4:  MOVLB  0
05DF6:  CALL   1396
05DFA:  MOVLB  4
05DFC:  BTG    x1B.1
05DFE:  MOVLB  6
05E00:  CLRF   x2F
05E02:  MOVLB  4
....................          } 
....................       } 
....................       else 
05E04:  BRA    5E0C
05E06:  MOVLB  6
....................       { 
....................          Flanco3 = 0; 
05E08:  MOVLB  4
05E0A:  BCF    x1A.3
....................       } 
....................              
....................       if(LEFT || BYTE_IR[2]==0X08)//Si oprime boton de Luz UV. 
05E0C:  BSF    F94.1
05E0E:  BTFSC  F82.1
05E10:  BRA    5E1C
05E12:  MOVLB  6
05E14:  MOVF   x2F,W
05E16:  SUBLW  08
05E18:  BNZ   5E48
05E1A:  MOVLB  4
....................       { 
....................          if(Flanco4 == 0) 
05E1C:  BTFSC  x1A.4
05E1E:  BRA    5E44
....................          { 
....................             Flanco4 = 1;delay_ms(5);flag_uv=!flag_uv;BYTE_IR[2]=0X00; 
05E20:  BSF    x1A.4
05E22:  MOVLW  05
05E24:  MOVLB  6
05E26:  MOVWF  x4F
05E28:  MOVLB  0
05E2A:  CALL   1396
05E2E:  MOVLB  4
05E30:  BTG    x1B.0
05E32:  MOVLB  6
05E34:  CLRF   x2F
....................             if(UV2==0) 
05E36:  MOVLB  4
05E38:  MOVF   xEA,F
05E3A:  BNZ   5E42
....................                UV2=10; 
05E3C:  MOVLW  0A
05E3E:  MOVWF  xEA
....................             else 
05E40:  BRA    5E44
....................                UV2=0; 
05E42:  CLRF   xEA
....................          } 
....................       } 
....................       else 
05E44:  BRA    5E4C
05E46:  MOVLB  6
....................       { 
....................          Flanco4 = 0; 
05E48:  MOVLB  4
05E4A:  BCF    x1A.4
....................       } 
....................              
....................       if(DOWN || BYTE_IR[2]==0X52)//Si oprime boton de Luz Blanca. 
05E4C:  BSF    F96.2
05E4E:  BTFSC  F84.2
05E50:  BRA    5E5C
05E52:  MOVLB  6
05E54:  MOVF   x2F,W
05E56:  SUBLW  52
05E58:  BNZ   5E7C
05E5A:  MOVLB  4
....................       { 
....................          if(Flanco5 == 0) 
05E5C:  BTFSC  x1A.5
05E5E:  BRA    5E78
....................          { 
....................             Flanco5 = 1;delay_ms(5);flag_luz=!flag_luz;BYTE_IR[2]=0X00; 
05E60:  BSF    x1A.5
05E62:  MOVLW  05
05E64:  MOVLB  6
05E66:  MOVWF  x4F
05E68:  MOVLB  0
05E6A:  CALL   1396
05E6E:  MOVLB  4
05E70:  BTG    x1B.3
05E72:  MOVLB  6
05E74:  CLRF   x2F
05E76:  MOVLB  4
....................          } 
....................       } 
....................       else 
05E78:  BRA    5E80
05E7A:  MOVLB  6
....................       { 
....................          Flanco5 = 0; 
05E7C:  MOVLB  4
05E7E:  BCF    x1A.5
....................       } 
....................        
....................       if(BYTE_IR[2]==0X1C) 
05E80:  MOVLB  6
05E82:  MOVF   x2F,W
05E84:  SUBLW  1C
05E86:  BNZ   5EBE
....................       { 
....................          BYTE_IR[2]=0X00; 
05E88:  CLRF   x2F
....................          delay_ms(30);Menu=3;//glcd_fillScreen(OFF); 
05E8A:  MOVLW  1E
05E8C:  MOVWF  x4F
05E8E:  MOVLB  0
05E90:  CALL   1396
05E94:  MOVLW  03
05E96:  MOVLB  4
05E98:  MOVWF  xD9
....................          glcd_init(ON);             //Inicializa la glcd 
05E9A:  MOVLW  01
05E9C:  MOVLB  6
05E9E:  MOVWF  x47
05EA0:  MOVLB  0
05EA2:  CALL   3238
....................          glcd_fillScreen(OFF);      //Limpia la pantalla 
05EA6:  MOVLB  6
05EA8:  CLRF   x48
05EAA:  MOVLB  0
05EAC:  CALL   31DE
....................          glcd_update();   
05EB0:  CALL   1844
....................          LuzBlanca_off;LuzUV_off; 
05EB4:  BCF    F8B.4
05EB6:  BCF    F94.4
05EB8:  BCF    F8B.5
05EBA:  BCF    F94.5
05EBC:  MOVLB  6
....................       } 
....................        
....................       if(BYTE_IR[2]==0X09) 
05EBE:  MOVF   x2F,W
05EC0:  SUBLW  09
05EC2:  BNZ   5EFA
....................       { 
....................          BYTE_IR[2]=0X00; 
05EC4:  CLRF   x2F
....................          delay_ms(30);Menu=32;//glcd_fillScreen(OFF); 
05EC6:  MOVLW  1E
05EC8:  MOVWF  x4F
05ECA:  MOVLB  0
05ECC:  CALL   1396
05ED0:  MOVLW  20
05ED2:  MOVLB  4
05ED4:  MOVWF  xD9
....................          glcd_init(ON);             //Inicializa la glcd 
05ED6:  MOVLW  01
05ED8:  MOVLB  6
05EDA:  MOVWF  x47
05EDC:  MOVLB  0
05EDE:  CALL   3238
....................          glcd_fillScreen(OFF);      //Limpia la pantalla 
05EE2:  MOVLB  6
05EE4:  CLRF   x48
05EE6:  MOVLB  0
05EE8:  CALL   31DE
....................          glcd_update();   
05EEC:  CALL   1844
....................          LuzBlanca_off;LuzUV_off; 
05EF0:  BCF    F8B.4
05EF2:  BCF    F94.4
05EF4:  BCF    F8B.5
05EF6:  BCF    F94.5
05EF8:  MOVLB  6
....................       } 
....................        
....................       if(UP || BYTE_IR[2]==0X18)//Si oprime boton de Toma. 
05EFA:  BSF    F96.1
05EFC:  BTFSC  F84.1
05EFE:  BRA    5F06
05F00:  MOVF   x2F,W
05F02:  SUBLW  18
05F04:  BNZ   5F76
....................       { 
....................          BYTE_IR[2]=0X00; 
05F06:  CLRF   x2F
....................          delay_ms(500); 
05F08:  MOVLW  02
05F0A:  MOVWF  x47
05F0C:  MOVLW  FA
05F0E:  MOVWF  x4F
05F10:  MOVLB  0
05F12:  CALL   1396
05F16:  MOVLB  6
05F18:  DECFSZ x47,F
05F1A:  BRA    5F0C
....................          if(UP)//Si oprime boton de Toma. 
05F1C:  BSF    F96.1
05F1E:  BTFSS  F84.1
05F20:  BRA    5F58
....................          { 
....................             delay_ms(30);Menu=3;//glcd_fillScreen(OFF); 
05F22:  MOVLW  1E
05F24:  MOVWF  x4F
05F26:  MOVLB  0
05F28:  CALL   1396
05F2C:  MOVLW  03
05F2E:  MOVLB  4
05F30:  MOVWF  xD9
....................             glcd_init(ON);             //Inicializa la glcd 
05F32:  MOVLW  01
05F34:  MOVLB  6
05F36:  MOVWF  x47
05F38:  MOVLB  0
05F3A:  CALL   3238
....................             glcd_fillScreen(OFF);      //Limpia la pantalla 
05F3E:  MOVLB  6
05F40:  CLRF   x48
05F42:  MOVLB  0
05F44:  CALL   31DE
....................             glcd_update();   
05F48:  CALL   1844
....................             LuzBlanca_off;LuzUV_off; 
05F4C:  BCF    F8B.4
05F4E:  BCF    F94.4
05F50:  BCF    F8B.5
05F52:  BCF    F94.5
....................          } 
....................          else 
05F54:  BRA    5F72
05F56:  MOVLB  6
....................          { 
....................             if(Flanco6 == 0) 
05F58:  MOVLB  4
05F5A:  BTFSC  x1A.6
05F5C:  BRA    5F70
....................             { 
....................                Flanco6 = 1;delay_ms(30);flag_toma=!flag_toma; 
05F5E:  BSF    x1A.6
05F60:  MOVLW  1E
05F62:  MOVLB  6
05F64:  MOVWF  x4F
05F66:  MOVLB  0
05F68:  CALL   1396
05F6C:  MOVLB  4
05F6E:  BTG    x1B.2
05F70:  MOVLB  0
....................             } 
....................          } 
....................       } 
....................       else 
05F72:  BRA    5F7C
05F74:  MOVLB  6
....................       { 
....................          Flanco6 = 0; 
05F76:  MOVLB  4
05F78:  BCF    x1A.6
05F7A:  MOVLB  0
....................       } 
....................              
....................     } 
.................... //_--------------------------------------------------------------------------------------------------------------------------------------------------------        
....................  
.................... //_-------------------------------------------------------------------------------------------------------------------------------------------------------- 
....................       if(Menu==3){ //Menu Principal. 
05F7C:  MOVLB  4
05F7E:  MOVF   xD9,W
05F80:  SUBLW  03
05F82:  BTFSS  FD8.2
05F84:  BRA    62A2
....................              
....................       strcpy(Menus.Letra,"Menu"); 
05F86:  MOVLW  06
05F88:  MOVWF  FEA
05F8A:  MOVLW  31
05F8C:  MOVWF  FE9
05F8E:  MOVFF  FF2,647
05F92:  BCF    FF2.7
05F94:  MOVLW  00
05F96:  MOVLB  0
05F98:  CALL   0F8C
05F9C:  TBLRD*-
05F9E:  TBLRD*+
05FA0:  MOVF   FF5,W
05FA2:  MOVWF  FEE
05FA4:  IORLW  00
05FA6:  BNZ   5F9E
05FA8:  MOVLB  6
05FAA:  BTFSC  x47.7
05FAC:  BSF    FF2.7
....................       displayMenu(Menus.Letra,40,0,1,2); 
05FAE:  MOVLW  06
05FB0:  MOVWF  x48
05FB2:  MOVLW  31
05FB4:  MOVWF  x47
05FB6:  MOVLW  28
05FB8:  MOVWF  x49
05FBA:  CLRF   x4A
05FBC:  MOVLW  01
05FBE:  MOVWF  x4B
05FC0:  MOVLW  02
05FC2:  MOVWF  x4C
05FC4:  MOVLB  0
05FC6:  CALL   394A
....................        
....................       if(Opcion==1)    
05FCA:  MOVLB  4
05FCC:  DECFSZ xDB,W
05FCE:  BRA    6016
....................          {strcpy(Menus.Letra,"Ajustes"); 
05FD0:  MOVLW  06
05FD2:  MOVWF  FEA
05FD4:  MOVLW  31
05FD6:  MOVWF  FE9
05FD8:  MOVFF  FF2,647
05FDC:  BCF    FF2.7
05FDE:  MOVLW  00
05FE0:  MOVLB  0
05FE2:  CALL   0FB0
05FE6:  TBLRD*-
05FE8:  TBLRD*+
05FEA:  MOVF   FF5,W
05FEC:  MOVWF  FEE
05FEE:  IORLW  00
05FF0:  BNZ   5FE8
05FF2:  MOVLB  6
05FF4:  BTFSC  x47.7
05FF6:  BSF    FF2.7
....................          displayMenu(Menus.Letra,0,19,1,1);} 
05FF8:  MOVLW  06
05FFA:  MOVWF  x48
05FFC:  MOVLW  31
05FFE:  MOVWF  x47
06000:  CLRF   x49
06002:  MOVLW  13
06004:  MOVWF  x4A
06006:  MOVLW  01
06008:  MOVWF  x4B
0600A:  MOVWF  x4C
0600C:  MOVLB  0
0600E:  CALL   394A
....................       else 
06012:  BRA    6058
06014:  MOVLB  4
....................          {strcpy(Menus.Letra,"Ajustes"); 
06016:  MOVLW  06
06018:  MOVWF  FEA
0601A:  MOVLW  31
0601C:  MOVWF  FE9
0601E:  MOVFF  FF2,647
06022:  BCF    FF2.7
06024:  MOVLW  00
06026:  MOVLB  0
06028:  CALL   0FB0
0602C:  TBLRD*-
0602E:  TBLRD*+
06030:  MOVF   FF5,W
06032:  MOVWF  FEE
06034:  IORLW  00
06036:  BNZ   602E
06038:  MOVLB  6
0603A:  BTFSC  x47.7
0603C:  BSF    FF2.7
....................          displayMenu(Menus.Letra,0,19,0,1);} 
0603E:  MOVLW  06
06040:  MOVWF  x48
06042:  MOVLW  31
06044:  MOVWF  x47
06046:  CLRF   x49
06048:  MOVLW  13
0604A:  MOVWF  x4A
0604C:  CLRF   x4B
0604E:  MOVLW  01
06050:  MOVWF  x4C
06052:  MOVLB  0
06054:  CALL   394A
....................           
....................       if(Opcion==2)    
06058:  MOVLB  4
0605A:  MOVF   xDB,W
0605C:  SUBLW  02
0605E:  BNZ   60A6
....................          {strcpy(Menus.Letra,"Clave"); 
06060:  MOVLW  06
06062:  MOVWF  FEA
06064:  MOVLW  31
06066:  MOVWF  FE9
06068:  MOVFF  FF2,647
0606C:  BCF    FF2.7
0606E:  MOVLW  00
06070:  MOVLB  0
06072:  CALL   0F16
06076:  TBLRD*-
06078:  TBLRD*+
0607A:  MOVF   FF5,W
0607C:  MOVWF  FEE
0607E:  IORLW  00
06080:  BNZ   6078
06082:  MOVLB  6
06084:  BTFSC  x47.7
06086:  BSF    FF2.7
....................          displayMenu(Menus.Letra,0,35,1,1);} 
06088:  MOVLW  06
0608A:  MOVWF  x48
0608C:  MOVLW  31
0608E:  MOVWF  x47
06090:  CLRF   x49
06092:  MOVLW  23
06094:  MOVWF  x4A
06096:  MOVLW  01
06098:  MOVWF  x4B
0609A:  MOVWF  x4C
0609C:  MOVLB  0
0609E:  CALL   394A
....................       else 
060A2:  BRA    60E8
060A4:  MOVLB  4
....................          {strcpy(Menus.Letra,"Clave"); 
060A6:  MOVLW  06
060A8:  MOVWF  FEA
060AA:  MOVLW  31
060AC:  MOVWF  FE9
060AE:  MOVFF  FF2,647
060B2:  BCF    FF2.7
060B4:  MOVLW  00
060B6:  MOVLB  0
060B8:  CALL   0F16
060BC:  TBLRD*-
060BE:  TBLRD*+
060C0:  MOVF   FF5,W
060C2:  MOVWF  FEE
060C4:  IORLW  00
060C6:  BNZ   60BE
060C8:  MOVLB  6
060CA:  BTFSC  x47.7
060CC:  BSF    FF2.7
....................          displayMenu(Menus.Letra,0,35,0,1);}    
060CE:  MOVLW  06
060D0:  MOVWF  x48
060D2:  MOVLW  31
060D4:  MOVWF  x47
060D6:  CLRF   x49
060D8:  MOVLW  23
060DA:  MOVWF  x4A
060DC:  CLRF   x4B
060DE:  MOVLW  01
060E0:  MOVWF  x4C
060E2:  MOVLB  0
060E4:  CALL   394A
....................           
....................        if(Opcion==3)    
060E8:  MOVLB  4
060EA:  MOVF   xDB,W
060EC:  SUBLW  03
060EE:  BNZ   6136
....................          {strcpy(Menus.Letra,"Mantenimiento"); 
060F0:  MOVLW  06
060F2:  MOVWF  FEA
060F4:  MOVLW  31
060F6:  MOVWF  FE9
060F8:  MOVFF  FF2,647
060FC:  BCF    FF2.7
060FE:  MOVLW  00
06100:  MOVLB  0
06102:  CALL   0FD6
06106:  TBLRD*-
06108:  TBLRD*+
0610A:  MOVF   FF5,W
0610C:  MOVWF  FEE
0610E:  IORLW  00
06110:  BNZ   6108
06112:  MOVLB  6
06114:  BTFSC  x47.7
06116:  BSF    FF2.7
....................          displayMenu(Menus.Letra,0,51,1,1);} 
06118:  MOVLW  06
0611A:  MOVWF  x48
0611C:  MOVLW  31
0611E:  MOVWF  x47
06120:  CLRF   x49
06122:  MOVLW  33
06124:  MOVWF  x4A
06126:  MOVLW  01
06128:  MOVWF  x4B
0612A:  MOVWF  x4C
0612C:  MOVLB  0
0612E:  CALL   394A
....................       else 
06132:  BRA    6178
06134:  MOVLB  4
....................          {strcpy(Menus.Letra,"Mantenimiento"); 
06136:  MOVLW  06
06138:  MOVWF  FEA
0613A:  MOVLW  31
0613C:  MOVWF  FE9
0613E:  MOVFF  FF2,647
06142:  BCF    FF2.7
06144:  MOVLW  00
06146:  MOVLB  0
06148:  CALL   0FD6
0614C:  TBLRD*-
0614E:  TBLRD*+
06150:  MOVF   FF5,W
06152:  MOVWF  FEE
06154:  IORLW  00
06156:  BNZ   614E
06158:  MOVLB  6
0615A:  BTFSC  x47.7
0615C:  BSF    FF2.7
....................          displayMenu(Menus.Letra,0,51,0,1);}      
0615E:  MOVLW  06
06160:  MOVWF  x48
06162:  MOVLW  31
06164:  MOVWF  x47
06166:  CLRF   x49
06168:  MOVLW  33
0616A:  MOVWF  x4A
0616C:  CLRF   x4B
0616E:  MOVLW  01
06170:  MOVWF  x4C
06172:  MOVLB  0
06174:  CALL   394A
....................        glcd_update();  
06178:  CALL   1844
....................        if(w==0) 
0617C:  MOVLB  4
0617E:  BTFSC  x1B.5
06180:  BRA    619C
....................        {delay_ms(500);w=1;} 
06182:  MOVLW  02
06184:  MOVLB  6
06186:  MOVWF  x47
06188:  MOVLW  FA
0618A:  MOVWF  x4F
0618C:  MOVLB  0
0618E:  CALL   1396
06192:  MOVLB  6
06194:  DECFSZ x47,F
06196:  BRA    6188
06198:  MOVLB  4
0619A:  BSF    x1B.5
....................           
....................          
....................       if(UP || BYTE_IR[2]==0X18)//Si oprime hacia arriba 
0619C:  BSF    F96.1
0619E:  BTFSC  F84.1
061A0:  BRA    61AC
061A2:  MOVLB  6
061A4:  MOVF   x2F,W
061A6:  SUBLW  18
061A8:  BNZ   61CC
061AA:  MOVLB  4
....................       {   
....................          if(Flanco == 0) 
061AC:  BTFSC  x1A.0
061AE:  BRA    61C8
....................          { 
....................             Flanco = 1;delay_ms(30);Opcion--;BYTE_IR[2]=0X00; 
061B0:  BSF    x1A.0
061B2:  MOVLW  1E
061B4:  MOVLB  6
061B6:  MOVWF  x4F
061B8:  MOVLB  0
061BA:  CALL   1396
061BE:  MOVLB  4
061C0:  DECF   xDB,F
061C2:  MOVLB  6
061C4:  CLRF   x2F
061C6:  MOVLB  4
....................          } 
....................       } 
....................       else 
061C8:  BRA    61D0
061CA:  MOVLB  6
....................       { 
....................          Flanco = 0; 
061CC:  MOVLB  4
061CE:  BCF    x1A.0
....................       } 
....................              
....................       if(DOWN  || BYTE_IR[2]==0X52)//Si oprime hacia abajo 
061D0:  BSF    F96.2
061D2:  BTFSC  F84.2
061D4:  BRA    61E0
061D6:  MOVLB  6
061D8:  MOVF   x2F,W
061DA:  SUBLW  52
061DC:  BNZ   61FE
061DE:  MOVLB  4
....................       {  if(Flanco2 == 0)  
061E0:  BTFSC  x1A.2
061E2:  BRA    61FC
....................             {Flanco2 = 1;delay_ms(30);Opcion++;BYTE_IR[2]=0X00; 
061E4:  BSF    x1A.2
061E6:  MOVLW  1E
061E8:  MOVLB  6
061EA:  MOVWF  x4F
061EC:  MOVLB  0
061EE:  CALL   1396
061F2:  MOVLB  4
061F4:  INCF   xDB,F
061F6:  MOVLB  6
061F8:  CLRF   x2F
061FA:  MOVLB  4
....................             }      
....................       } 
....................          else 
061FC:  BRA    6202
....................             {Flanco2 = 0;}   
061FE:  MOVLB  4
06200:  BCF    x1A.2
....................              
....................       if(RIGHT || BYTE_IR[2]==0X5A)//Si oprime SET 
06202:  BSF    F94.0
06204:  BTFSC  F82.0
06206:  BRA    6212
06208:  MOVLB  6
0620A:  MOVF   x2F,W
0620C:  SUBLW  5A
0620E:  BNZ   6252
06210:  MOVLB  4
....................       {  if(Flanco1 == 0)  
06212:  BTFSC  x1A.1
06214:  BRA    6250
....................             {Flanco1 = 1;delay_ms(500);Menu=Opcion+3;Opcion=1;glcd_fillscreen(OFF);unidad=1;BYTE_IR[2]=0X00; 
06216:  BSF    x1A.1
06218:  MOVLW  02
0621A:  MOVLB  6
0621C:  MOVWF  x47
0621E:  MOVLW  FA
06220:  MOVWF  x4F
06222:  MOVLB  0
06224:  CALL   1396
06228:  MOVLB  6
0622A:  DECFSZ x47,F
0622C:  BRA    621E
0622E:  MOVLW  03
06230:  MOVLB  4
06232:  ADDWF  xDB,W
06234:  MOVWF  xD9
06236:  MOVLW  01
06238:  MOVWF  xDB
0623A:  MOVLB  6
0623C:  CLRF   x48
0623E:  MOVLB  0
06240:  CALL   31DE
06244:  MOVLW  01
06246:  MOVLB  4
06248:  MOVWF  xDA
0624A:  MOVLB  6
0624C:  CLRF   x2F
0624E:  MOVLB  4
....................             } 
....................       } 
....................          else 
06250:  BRA    6256
....................             {Flanco1 = 0;}   
06252:  MOVLB  4
06254:  BCF    x1A.1
....................              
....................       if(LEFT || BYTE_IR[2]==0X08)//Si oprime boton de Toma. 
06256:  BSF    F94.1
06258:  BTFSC  F82.1
0625A:  BRA    6264
0625C:  MOVLB  6
0625E:  MOVF   x2F,W
06260:  SUBLW  08
06262:  BNZ   628E
....................       {delay_ms(700);Menu=2;glcd_fillscreen(OFF);BYTE_IR[2]=0X00;} 
06264:  MOVLW  04
06266:  MOVLB  6
06268:  MOVWF  x47
0626A:  MOVLW  AF
0626C:  MOVWF  x4F
0626E:  MOVLB  0
06270:  CALL   1396
06274:  MOVLB  6
06276:  DECFSZ x47,F
06278:  BRA    626A
0627A:  MOVLW  02
0627C:  MOVLB  4
0627E:  MOVWF  xD9
06280:  MOVLB  6
06282:  CLRF   x48
06284:  MOVLB  0
06286:  CALL   31DE
0628A:  MOVLB  6
0628C:  CLRF   x2F
....................              
....................       if(Opcion>3) 
0628E:  MOVLB  4
06290:  MOVF   xDB,W
06292:  SUBLW  03
06294:  BC    629A
....................       {Opcion=1;} 
06296:  MOVLW  01
06298:  MOVWF  xDB
....................       if(Opcion<1) 
0629A:  MOVF   xDB,F
0629C:  BNZ   62A2
....................       {Opcion=3;} 
0629E:  MOVLW  03
062A0:  MOVWF  xDB
....................      
....................     } 
.................... //_--------------------------------------------------------------------------------------------------------------------------------------------------------        
....................  
.................... //_-------------------------------------------------------------------------------------------------------------------------------------------------------- 
....................       if(Menu==4){ //Menu de Ajustes. 
062A2:  MOVF   xD9,W
062A4:  SUBLW  04
062A6:  BTFSS  FD8.2
062A8:  BRA    6550
....................        
....................       if(Opcion==1)    
062AA:  DECFSZ xDB,W
062AC:  BRA    62F4
....................          {strcpy(Menus.Letra,"Tiempo Purga"); 
062AE:  MOVLW  06
062B0:  MOVWF  FEA
062B2:  MOVLW  31
062B4:  MOVWF  FE9
062B6:  MOVFF  FF2,647
062BA:  BCF    FF2.7
062BC:  MOVLW  00
062BE:  MOVLB  0
062C0:  CALL   1002
062C4:  TBLRD*-
062C6:  TBLRD*+
062C8:  MOVF   FF5,W
062CA:  MOVWF  FEE
062CC:  IORLW  00
062CE:  BNZ   62C6
062D0:  MOVLB  6
062D2:  BTFSC  x47.7
062D4:  BSF    FF2.7
....................          displayMenu(Menus.Letra,0,12,1,1);} 
062D6:  MOVLW  06
062D8:  MOVWF  x48
062DA:  MOVLW  31
062DC:  MOVWF  x47
062DE:  CLRF   x49
062E0:  MOVLW  0C
062E2:  MOVWF  x4A
062E4:  MOVLW  01
062E6:  MOVWF  x4B
062E8:  MOVWF  x4C
062EA:  MOVLB  0
062EC:  CALL   394A
....................       else 
062F0:  BRA    6336
062F2:  MOVLB  4
....................          {strcpy(Menus.Letra,"Tiempo Purga"); 
062F4:  MOVLW  06
062F6:  MOVWF  FEA
062F8:  MOVLW  31
062FA:  MOVWF  FE9
062FC:  MOVFF  FF2,647
06300:  BCF    FF2.7
06302:  MOVLW  00
06304:  MOVLB  0
06306:  CALL   1002
0630A:  TBLRD*-
0630C:  TBLRD*+
0630E:  MOVF   FF5,W
06310:  MOVWF  FEE
06312:  IORLW  00
06314:  BNZ   630C
06316:  MOVLB  6
06318:  BTFSC  x47.7
0631A:  BSF    FF2.7
....................          displayMenu(Menus.Letra,0,12,0,1);} 
0631C:  MOVLW  06
0631E:  MOVWF  x48
06320:  MOVLW  31
06322:  MOVWF  x47
06324:  CLRF   x49
06326:  MOVLW  0C
06328:  MOVWF  x4A
0632A:  CLRF   x4B
0632C:  MOVLW  01
0632E:  MOVWF  x4C
06330:  MOVLB  0
06332:  CALL   394A
....................                             
....................       if(Opcion==2)    
06336:  MOVLB  4
06338:  MOVF   xDB,W
0633A:  SUBLW  02
0633C:  BNZ   6384
....................          {strcpy(Menus.Letra,"Sensor de Flujo"); 
0633E:  MOVLW  06
06340:  MOVWF  FEA
06342:  MOVLW  31
06344:  MOVWF  FE9
06346:  MOVFF  FF2,647
0634A:  BCF    FF2.7
0634C:  MOVLW  00
0634E:  MOVLB  0
06350:  CALL   102E
06354:  TBLRD*-
06356:  TBLRD*+
06358:  MOVF   FF5,W
0635A:  MOVWF  FEE
0635C:  IORLW  00
0635E:  BNZ   6356
06360:  MOVLB  6
06362:  BTFSC  x47.7
06364:  BSF    FF2.7
....................          displayMenu(Menus.Letra,0,24,1,1);} 
06366:  MOVLW  06
06368:  MOVWF  x48
0636A:  MOVLW  31
0636C:  MOVWF  x47
0636E:  CLRF   x49
06370:  MOVLW  18
06372:  MOVWF  x4A
06374:  MOVLW  01
06376:  MOVWF  x4B
06378:  MOVWF  x4C
0637A:  MOVLB  0
0637C:  CALL   394A
....................       else 
06380:  BRA    63C6
06382:  MOVLB  4
....................          {strcpy(Menus.Letra,"Sensor de Flujo"); 
06384:  MOVLW  06
06386:  MOVWF  FEA
06388:  MOVLW  31
0638A:  MOVWF  FE9
0638C:  MOVFF  FF2,647
06390:  BCF    FF2.7
06392:  MOVLW  00
06394:  MOVLB  0
06396:  CALL   102E
0639A:  TBLRD*-
0639C:  TBLRD*+
0639E:  MOVF   FF5,W
063A0:  MOVWF  FEE
063A2:  IORLW  00
063A4:  BNZ   639C
063A6:  MOVLB  6
063A8:  BTFSC  x47.7
063AA:  BSF    FF2.7
....................          displayMenu(Menus.Letra,0,24,0,1);}  
063AC:  MOVLW  06
063AE:  MOVWF  x48
063B0:  MOVLW  31
063B2:  MOVWF  x47
063B4:  CLRF   x49
063B6:  MOVLW  18
063B8:  MOVWF  x4A
063BA:  CLRF   x4B
063BC:  MOVLW  01
063BE:  MOVWF  x4C
063C0:  MOVLB  0
063C2:  CALL   394A
....................           
....................       if(Opcion==3)    
063C6:  MOVLB  4
063C8:  MOVF   xDB,W
063CA:  SUBLW  03
063CC:  BNZ   6414
....................          {strcpy(Menus.Letra,"Sensor de Presion"); 
063CE:  MOVLW  06
063D0:  MOVWF  FEA
063D2:  MOVLW  31
063D4:  MOVWF  FE9
063D6:  MOVFF  FF2,647
063DA:  BCF    FF2.7
063DC:  MOVLW  00
063DE:  MOVLB  0
063E0:  CALL   105C
063E4:  TBLRD*-
063E6:  TBLRD*+
063E8:  MOVF   FF5,W
063EA:  MOVWF  FEE
063EC:  IORLW  00
063EE:  BNZ   63E6
063F0:  MOVLB  6
063F2:  BTFSC  x47.7
063F4:  BSF    FF2.7
....................          displayMenu(Menus.Letra,0,36,1,1);} 
063F6:  MOVLW  06
063F8:  MOVWF  x48
063FA:  MOVLW  31
063FC:  MOVWF  x47
063FE:  CLRF   x49
06400:  MOVLW  24
06402:  MOVWF  x4A
06404:  MOVLW  01
06406:  MOVWF  x4B
06408:  MOVWF  x4C
0640A:  MOVLB  0
0640C:  CALL   394A
....................       else 
06410:  BRA    6456
06412:  MOVLB  4
....................          {strcpy(Menus.Letra,"Sensor de Presion"); 
06414:  MOVLW  06
06416:  MOVWF  FEA
06418:  MOVLW  31
0641A:  MOVWF  FE9
0641C:  MOVFF  FF2,647
06420:  BCF    FF2.7
06422:  MOVLW  00
06424:  MOVLB  0
06426:  CALL   105C
0642A:  TBLRD*-
0642C:  TBLRD*+
0642E:  MOVF   FF5,W
06430:  MOVWF  FEE
06432:  IORLW  00
06434:  BNZ   642C
06436:  MOVLB  6
06438:  BTFSC  x47.7
0643A:  BSF    FF2.7
....................          displayMenu(Menus.Letra,0,36,0,1);}         
0643C:  MOVLW  06
0643E:  MOVWF  x48
06440:  MOVLW  31
06442:  MOVWF  x47
06444:  CLRF   x49
06446:  MOVLW  24
06448:  MOVWF  x4A
0644A:  CLRF   x4B
0644C:  MOVLW  01
0644E:  MOVWF  x4C
06450:  MOVLB  0
06452:  CALL   394A
....................           
....................          
....................       if(UP || BYTE_IR[2]==0X18)//Si oprime hacia arriba 
06456:  BSF    F96.1
06458:  BTFSC  F84.1
0645A:  BRA    6464
0645C:  MOVLB  6
0645E:  MOVF   x2F,W
06460:  SUBLW  18
06462:  BNZ   6484
....................       {  if(Flanco == 0)  
06464:  MOVLB  4
06466:  BTFSC  x1A.0
06468:  BRA    6482
....................             {Flanco = 1;delay_ms(30);Opcion--;BYTE_IR[2]=0X00; 
0646A:  BSF    x1A.0
0646C:  MOVLW  1E
0646E:  MOVLB  6
06470:  MOVWF  x4F
06472:  MOVLB  0
06474:  CALL   1396
06478:  MOVLB  4
0647A:  DECF   xDB,F
0647C:  MOVLB  6
0647E:  CLRF   x2F
06480:  MOVLB  4
....................             } 
....................       } 
....................          else 
06482:  BRA    6488
....................             {Flanco = 0;} 
06484:  MOVLB  4
06486:  BCF    x1A.0
....................              
....................       if(DOWN  || BYTE_IR[2]==0X52)//Si oprime hacia abajo 
06488:  BSF    F96.2
0648A:  BTFSC  F84.2
0648C:  BRA    6498
0648E:  MOVLB  6
06490:  MOVF   x2F,W
06492:  SUBLW  52
06494:  BNZ   64B6
06496:  MOVLB  4
....................       {  if(Flanco2 == 0)  
06498:  BTFSC  x1A.2
0649A:  BRA    64B4
....................             {Flanco2 = 1;delay_ms(30);Opcion++;BYTE_IR[2]=0X00; 
0649C:  BSF    x1A.2
0649E:  MOVLW  1E
064A0:  MOVLB  6
064A2:  MOVWF  x4F
064A4:  MOVLB  0
064A6:  CALL   1396
064AA:  MOVLB  4
064AC:  INCF   xDB,F
064AE:  MOVLB  6
064B0:  CLRF   x2F
064B2:  MOVLB  4
....................             }      
....................       } 
....................          else 
064B4:  BRA    64BA
....................             {Flanco2 = 0;}   
064B6:  MOVLB  4
064B8:  BCF    x1A.2
....................              
....................       if(RIGHT  || BYTE_IR[2]==0X5A)//Si oprime SET 
064BA:  BSF    F94.0
064BC:  BTFSC  F82.0
064BE:  BRA    64CA
064C0:  MOVLB  6
064C2:  MOVF   x2F,W
064C4:  SUBLW  5A
064C6:  BNZ   6500
064C8:  MOVLB  4
....................       {  if(Flanco1 == 0)  
064CA:  BTFSC  x1A.1
064CC:  BRA    64FE
....................             {Flanco1 = 1;delay_ms(500);Menu=Opcion+10;glcd_fillScreen(OFF);BYTE_IR[2]=0X00; 
064CE:  BSF    x1A.1
064D0:  MOVLW  02
064D2:  MOVLB  6
064D4:  MOVWF  x47
064D6:  MOVLW  FA
064D8:  MOVWF  x4F
064DA:  MOVLB  0
064DC:  CALL   1396
064E0:  MOVLB  6
064E2:  DECFSZ x47,F
064E4:  BRA    64D6
064E6:  MOVLW  0A
064E8:  MOVLB  4
064EA:  ADDWF  xDB,W
064EC:  MOVWF  xD9
064EE:  MOVLB  6
064F0:  CLRF   x48
064F2:  MOVLB  0
064F4:  CALL   31DE
064F8:  MOVLB  6
064FA:  CLRF   x2F
064FC:  MOVLB  4
....................             } 
....................       } 
....................          else 
064FE:  BRA    6504
....................             {Flanco1 = 0;}   
06500:  MOVLB  4
06502:  BCF    x1A.1
....................              
....................       if(LEFT || BYTE_IR[2]==0X08)//Si oprime boton de Toma. 
06504:  BSF    F94.1
06506:  BTFSC  F82.1
06508:  BRA    6512
0650A:  MOVLB  6
0650C:  MOVF   x2F,W
0650E:  SUBLW  08
06510:  BNZ   653C
....................         {delay_ms(700);Menu=3;glcd_fillscreen(OFF);BYTE_IR[2]=0X00;} 
06512:  MOVLW  04
06514:  MOVLB  6
06516:  MOVWF  x47
06518:  MOVLW  AF
0651A:  MOVWF  x4F
0651C:  MOVLB  0
0651E:  CALL   1396
06522:  MOVLB  6
06524:  DECFSZ x47,F
06526:  BRA    6518
06528:  MOVLW  03
0652A:  MOVLB  4
0652C:  MOVWF  xD9
0652E:  MOVLB  6
06530:  CLRF   x48
06532:  MOVLB  0
06534:  CALL   31DE
06538:  MOVLB  6
0653A:  CLRF   x2F
....................        
....................       if(Opcion>3) 
0653C:  MOVLB  4
0653E:  MOVF   xDB,W
06540:  SUBLW  03
06542:  BC    6548
....................       {Opcion=1;} 
06544:  MOVLW  01
06546:  MOVWF  xDB
....................       if(Opcion<1) 
06548:  MOVF   xDB,F
0654A:  BNZ   6550
....................       {Opcion=3;} 
0654C:  MOVLW  03
0654E:  MOVWF  xDB
....................      
....................     } 
.................... //_--------------------------------------------------------------------------------------------------------------------------------------------------------        
....................  
.................... //_-------------------------------------------------------------------------------------------------------------------------------------------------------- 
....................       if(Menu==11){ //Menu de Purga. 
06550:  MOVF   xD9,W
06552:  SUBLW  0B
06554:  BTFSS  FD8.2
06556:  BRA    691E
....................        
....................       strcpy(Menus.Letra,"T. Purga"); 
06558:  MOVLW  06
0655A:  MOVWF  FEA
0655C:  MOVLW  31
0655E:  MOVWF  FE9
06560:  MOVFF  FF2,647
06564:  BCF    FF2.7
06566:  MOVLW  00
06568:  MOVLB  0
0656A:  CALL   108C
0656E:  TBLRD*-
06570:  TBLRD*+
06572:  MOVF   FF5,W
06574:  MOVWF  FEE
06576:  IORLW  00
06578:  BNZ   6570
0657A:  MOVLB  6
0657C:  BTFSC  x47.7
0657E:  BSF    FF2.7
....................       displayMenu(Menus.Letra,10,0,1,2); 
06580:  MOVLW  06
06582:  MOVWF  x48
06584:  MOVLW  31
06586:  MOVWF  x47
06588:  MOVLW  0A
0658A:  MOVWF  x49
0658C:  CLRF   x4A
0658E:  MOVLW  01
06590:  MOVWF  x4B
06592:  MOVLW  02
06594:  MOVWF  x4C
06596:  MOVLB  0
06598:  CALL   394A
....................        
....................       if(unidad==4) 
0659C:  MOVLB  4
0659E:  MOVF   xDA,W
065A0:  SUBLW  04
065A2:  BNZ   65C2
....................       {displayTiempo(Tpurgap[3],20,40,1,2);} 
065A4:  MOVFF  502,647
065A8:  MOVLW  14
065AA:  MOVLB  6
065AC:  MOVWF  x48
065AE:  MOVLW  28
065B0:  MOVWF  x49
065B2:  MOVLW  01
065B4:  MOVWF  x4A
065B6:  MOVLW  02
065B8:  MOVWF  x4B
065BA:  MOVLB  0
065BC:  CALL   3A16
....................       else 
065C0:  BRA    65DC
....................       {displayTiempo(Tpurgap[3],20,40,0,2);} 
065C2:  MOVFF  502,647
065C6:  MOVLW  14
065C8:  MOVLB  6
065CA:  MOVWF  x48
065CC:  MOVLW  28
065CE:  MOVWF  x49
065D0:  CLRF   x4A
065D2:  MOVLW  02
065D4:  MOVWF  x4B
065D6:  MOVLB  0
065D8:  CALL   3A16
....................        
....................       if(unidad==3) 
065DC:  MOVLB  4
065DE:  MOVF   xDA,W
065E0:  SUBLW  03
065E2:  BNZ   6600
....................       {displayTiempo(Tpurgap[2],40,40,1,2);} 
065E4:  MOVFF  501,647
065E8:  MOVLW  28
065EA:  MOVLB  6
065EC:  MOVWF  x48
065EE:  MOVWF  x49
065F0:  MOVLW  01
065F2:  MOVWF  x4A
065F4:  MOVLW  02
065F6:  MOVWF  x4B
065F8:  MOVLB  0
065FA:  CALL   3A16
....................       else 
065FE:  BRA    6618
....................       {displayTiempo(Tpurgap[2],40,40,0,2);} 
06600:  MOVFF  501,647
06604:  MOVLW  28
06606:  MOVLB  6
06608:  MOVWF  x48
0660A:  MOVWF  x49
0660C:  CLRF   x4A
0660E:  MOVLW  02
06610:  MOVWF  x4B
06612:  MOVLB  0
06614:  CALL   3A16
....................        
....................       if(unidad==2) 
06618:  MOVLB  4
0661A:  MOVF   xDA,W
0661C:  SUBLW  02
0661E:  BNZ   663E
....................       {displayTiempo(Tpurgap[1],70,40,1,2);} 
06620:  MOVFF  500,647
06624:  MOVLW  46
06626:  MOVLB  6
06628:  MOVWF  x48
0662A:  MOVLW  28
0662C:  MOVWF  x49
0662E:  MOVLW  01
06630:  MOVWF  x4A
06632:  MOVLW  02
06634:  MOVWF  x4B
06636:  MOVLB  0
06638:  CALL   3A16
....................       else 
0663C:  BRA    6658
....................       {displayTiempo(Tpurgap[1],70,40,0,2);} 
0663E:  MOVFF  500,647
06642:  MOVLW  46
06644:  MOVLB  6
06646:  MOVWF  x48
06648:  MOVLW  28
0664A:  MOVWF  x49
0664C:  CLRF   x4A
0664E:  MOVLW  02
06650:  MOVWF  x4B
06652:  MOVLB  0
06654:  CALL   3A16
....................        
....................       if(unidad==1) 
06658:  MOVLB  4
0665A:  DECFSZ xDA,W
0665C:  BRA    667C
....................       {displayTiempo(Tpurgap[0],90,40,1,2);} 
0665E:  MOVFF  4FF,647
06662:  MOVLW  5A
06664:  MOVLB  6
06666:  MOVWF  x48
06668:  MOVLW  28
0666A:  MOVWF  x49
0666C:  MOVLW  01
0666E:  MOVWF  x4A
06670:  MOVLW  02
06672:  MOVWF  x4B
06674:  MOVLB  0
06676:  CALL   3A16
....................       else 
0667A:  BRA    6696
....................       {displayTiempo(Tpurgap[0],90,40,0,2);} 
0667C:  MOVFF  4FF,647
06680:  MOVLW  5A
06682:  MOVLB  6
06684:  MOVWF  x48
06686:  MOVLW  28
06688:  MOVWF  x49
0668A:  CLRF   x4A
0668C:  MOVLW  02
0668E:  MOVWF  x4B
06690:  MOVLB  0
06692:  CALL   3A16
....................        
....................       glcd_text57(60, 42, Dos_puntos, 2, ON); 
06696:  MOVLW  3C
06698:  MOVLB  6
0669A:  MOVWF  x5E
0669C:  MOVLW  2A
0669E:  MOVWF  x5F
066A0:  MOVLW  04
066A2:  MOVWF  x61
066A4:  MOVLW  43
066A6:  MOVWF  x60
066A8:  MOVLW  02
066AA:  MOVWF  x62
066AC:  MOVLW  01
066AE:  MOVWF  x63
066B0:  MOVLB  0
066B2:  CALL   36DC
....................           
....................          
....................       if(UP || BYTE_IR[2]==0X18)//Si oprime hacia arriba 
066B6:  BSF    F96.1
066B8:  BTFSC  F84.1
066BA:  BRA    66C4
066BC:  MOVLB  6
066BE:  MOVF   x2F,W
066C0:  SUBLW  18
066C2:  BNZ   66F4
....................       {  if(Flanco == 0)  
066C4:  MOVLB  4
066C6:  BTFSC  x1A.0
066C8:  BRA    66F2
....................             {Flanco = 1;delay_ms(30);Tpurgap[unidad-1]++;BYTE_IR[2]=0X00; 
066CA:  BSF    x1A.0
066CC:  MOVLW  1E
066CE:  MOVLB  6
066D0:  MOVWF  x4F
066D2:  MOVLB  0
066D4:  CALL   1396
066D8:  MOVLW  01
066DA:  MOVLB  4
066DC:  SUBWF  xDA,W
066DE:  CLRF   03
066E0:  ADDLW  FF
066E2:  MOVWF  FE9
066E4:  MOVLW  04
066E6:  ADDWFC 03,W
066E8:  MOVWF  FEA
066EA:  INCF   FEF,F
066EC:  MOVLB  6
066EE:  CLRF   x2F
066F0:  MOVLB  4
....................             } 
....................       } 
....................          else 
066F2:  BRA    66F8
....................             {Flanco = 0;} 
066F4:  MOVLB  4
066F6:  BCF    x1A.0
....................              
....................       if(DOWN  || BYTE_IR[2]==0X52)//Si oprime hacia abajo 
066F8:  BSF    F96.2
066FA:  BTFSC  F84.2
066FC:  BRA    6708
066FE:  MOVLB  6
06700:  MOVF   x2F,W
06702:  SUBLW  52
06704:  BNZ   6736
06706:  MOVLB  4
....................       {  if(Flanco2 == 0)  
06708:  BTFSC  x1A.2
0670A:  BRA    6734
....................             {Flanco2 = 1;delay_ms(30);Tpurgap[unidad-1]--;BYTE_IR[2]=0X00; 
0670C:  BSF    x1A.2
0670E:  MOVLW  1E
06710:  MOVLB  6
06712:  MOVWF  x4F
06714:  MOVLB  0
06716:  CALL   1396
0671A:  MOVLW  01
0671C:  MOVLB  4
0671E:  SUBWF  xDA,W
06720:  CLRF   03
06722:  ADDLW  FF
06724:  MOVWF  FE9
06726:  MOVLW  04
06728:  ADDWFC 03,W
0672A:  MOVWF  FEA
0672C:  DECF   FEF,F
0672E:  MOVLB  6
06730:  CLRF   x2F
06732:  MOVLB  4
....................             }      
....................       } 
....................          else 
06734:  BRA    673A
....................             {Flanco2 = 0;}   
06736:  MOVLB  4
06738:  BCF    x1A.2
....................              
....................       if(RIGHT || BYTE_IR[2]==0X5A)//Si oprime SET 
0673A:  BSF    F94.0
0673C:  BTFSC  F82.0
0673E:  BRA    674A
06740:  MOVLB  6
06742:  MOVF   x2F,W
06744:  SUBLW  5A
06746:  BNZ   6768
06748:  MOVLB  4
....................       {  if(Flanco1 == 0)  
0674A:  BTFSC  x1A.1
0674C:  BRA    6766
....................             {Flanco1 = 1;delay_ms(30);unidad--;BYTE_IR[2]=0X00; 
0674E:  BSF    x1A.1
06750:  MOVLW  1E
06752:  MOVLB  6
06754:  MOVWF  x4F
06756:  MOVLB  0
06758:  CALL   1396
0675C:  MOVLB  4
0675E:  DECF   xDA,F
06760:  MOVLB  6
06762:  CLRF   x2F
06764:  MOVLB  4
....................             } 
....................       } 
....................          else 
06766:  BRA    676C
....................             {Flanco1 = 0;}   
06768:  MOVLB  4
0676A:  BCF    x1A.1
....................              
....................       if(LEFT || BYTE_IR[2]==0X08)//Si oprime boton de Toma. 
0676C:  BSF    F94.1
0676E:  BTFSC  F82.1
06770:  BRA    677A
06772:  MOVLB  6
06774:  MOVF   x2F,W
06776:  SUBLW  08
06778:  BNZ   6854
....................         {delay_ms(700);Menu=3;glcd_fillscreen(OFF);Opcion=1;BYTE_IR[2]=0X00; 
0677A:  MOVLW  04
0677C:  MOVLB  6
0677E:  MOVWF  x47
06780:  MOVLW  AF
06782:  MOVWF  x4F
06784:  MOVLB  0
06786:  CALL   1396
0678A:  MOVLB  6
0678C:  DECFSZ x47,F
0678E:  BRA    6780
06790:  MOVLW  03
06792:  MOVLB  4
06794:  MOVWF  xD9
06796:  MOVLB  6
06798:  CLRF   x48
0679A:  MOVLB  0
0679C:  CALL   31DE
067A0:  MOVLW  01
067A2:  MOVLB  4
067A4:  MOVWF  xDB
067A6:  MOVLB  6
067A8:  CLRF   x2F
....................          write_eeprom(4,Tpurgap[0]);write_eeprom(5,Tpurgap[1]);write_eeprom(6,Tpurgap[2]);write_eeprom(7,Tpurgap[3]);} 
067AA:  CLRF   FAA
067AC:  MOVLW  04
067AE:  MOVWF  FA9
067B0:  MOVFF  4FF,FA8
067B4:  BCF    FA6.6
067B6:  BCF    FA6.7
067B8:  BSF    FA6.2
067BA:  MOVF   FF2,W
067BC:  MOVWF  00
067BE:  BCF    FF2.7
067C0:  MOVLB  F
067C2:  MOVLW  55
067C4:  MOVWF  FA7
067C6:  MOVLW  AA
067C8:  MOVWF  FA7
067CA:  BSF    FA6.1
067CC:  BTFSC  FA6.1
067CE:  BRA    67CC
067D0:  BCF    FA6.2
067D2:  MOVF   00,W
067D4:  IORWF  FF2,F
067D6:  CLRF   FAA
067D8:  MOVLW  05
067DA:  MOVWF  FA9
067DC:  MOVFF  500,FA8
067E0:  BCF    FA6.6
067E2:  BCF    FA6.7
067E4:  BSF    FA6.2
067E6:  MOVF   FF2,W
067E8:  MOVWF  00
067EA:  BCF    FF2.7
067EC:  MOVLW  55
067EE:  MOVWF  FA7
067F0:  MOVLW  AA
067F2:  MOVWF  FA7
067F4:  BSF    FA6.1
067F6:  BTFSC  FA6.1
067F8:  BRA    67F6
067FA:  BCF    FA6.2
067FC:  MOVF   00,W
067FE:  IORWF  FF2,F
06800:  CLRF   FAA
06802:  MOVLW  06
06804:  MOVWF  FA9
06806:  MOVFF  501,FA8
0680A:  BCF    FA6.6
0680C:  BCF    FA6.7
0680E:  BSF    FA6.2
06810:  MOVF   FF2,W
06812:  MOVWF  00
06814:  BCF    FF2.7
06816:  MOVLW  55
06818:  MOVWF  FA7
0681A:  MOVLW  AA
0681C:  MOVWF  FA7
0681E:  BSF    FA6.1
06820:  BTFSC  FA6.1
06822:  BRA    6820
06824:  BCF    FA6.2
06826:  MOVF   00,W
06828:  IORWF  FF2,F
0682A:  CLRF   FAA
0682C:  MOVLW  07
0682E:  MOVWF  FA9
06830:  MOVFF  502,FA8
06834:  BCF    FA6.6
06836:  BCF    FA6.7
06838:  BSF    FA6.2
0683A:  MOVF   FF2,W
0683C:  MOVWF  00
0683E:  BCF    FF2.7
06840:  MOVLW  55
06842:  MOVWF  FA7
06844:  MOVLW  AA
06846:  MOVWF  FA7
06848:  BSF    FA6.1
0684A:  BTFSC  FA6.1
0684C:  BRA    684A
0684E:  BCF    FA6.2
06850:  MOVF   00,W
06852:  IORWF  FF2,F
....................        
....................       for(i=0;i<4;i++) 
06854:  MOVLB  4
06856:  CLRF   x19
06858:  MOVF   x19,W
0685A:  SUBLW  03
0685C:  BNC   68B0
....................       { 
....................          if(Tpurgap[i]>9) 
0685E:  CLRF   03
06860:  MOVF   x19,W
06862:  ADDLW  FF
06864:  MOVWF  FE9
06866:  MOVLW  04
06868:  ADDWFC 03,W
0686A:  MOVWF  FEA
0686C:  BTFSC  FEF.7
0686E:  BRA    6886
06870:  MOVF   FEF,W
06872:  SUBLW  09
06874:  BC    6886
....................          {Tpurgap[i]=0;} 
06876:  CLRF   03
06878:  MOVF   x19,W
0687A:  ADDLW  FF
0687C:  MOVWF  FE9
0687E:  MOVLW  04
06880:  ADDWFC 03,W
06882:  MOVWF  FEA
06884:  CLRF   FEF
....................           
....................          if(Tpurgap[i]<0) 
06886:  CLRF   03
06888:  MOVF   x19,W
0688A:  ADDLW  FF
0688C:  MOVWF  FE9
0688E:  MOVLW  04
06890:  ADDWFC 03,W
06892:  MOVWF  FEA
06894:  BTFSC  FEF.7
06896:  BRA    689A
06898:  BRA    68AC
....................          {Tpurgap[i]=9;} 
0689A:  CLRF   03
0689C:  MOVF   x19,W
0689E:  ADDLW  FF
068A0:  MOVWF  FE9
068A2:  MOVLW  04
068A4:  ADDWFC 03,W
068A6:  MOVWF  FEA
068A8:  MOVLW  09
068AA:  MOVWF  FEF
....................       }       
068AC:  INCF   x19,F
068AE:  BRA    6858
....................       for(i=1;i<4;i++) 
068B0:  MOVLW  01
068B2:  MOVWF  x19
068B4:  MOVF   x19,W
068B6:  SUBLW  03
068B8:  BNC   690E
....................       { 
....................          if(Tpurgap[i]>5) 
068BA:  CLRF   03
068BC:  MOVF   x19,W
068BE:  ADDLW  FF
068C0:  MOVWF  FE9
068C2:  MOVLW  04
068C4:  ADDWFC 03,W
068C6:  MOVWF  FEA
068C8:  BTFSC  FEF.7
068CA:  BRA    68E2
068CC:  MOVF   FEF,W
068CE:  SUBLW  05
068D0:  BC    68E2
....................          {Tpurgap[i]=0;} 
068D2:  CLRF   03
068D4:  MOVF   x19,W
068D6:  ADDLW  FF
068D8:  MOVWF  FE9
068DA:  MOVLW  04
068DC:  ADDWFC 03,W
068DE:  MOVWF  FEA
068E0:  CLRF   FEF
....................           
....................          if(Tpurgap[i]<0) 
068E2:  CLRF   03
068E4:  MOVF   x19,W
068E6:  ADDLW  FF
068E8:  MOVWF  FE9
068EA:  MOVLW  04
068EC:  ADDWFC 03,W
068EE:  MOVWF  FEA
068F0:  BTFSC  FEF.7
068F2:  BRA    68F6
068F4:  BRA    6908
....................          {Tpurgap[i]=5;} 
068F6:  CLRF   03
068F8:  MOVF   x19,W
068FA:  ADDLW  FF
068FC:  MOVWF  FE9
068FE:  MOVLW  04
06900:  ADDWFC 03,W
06902:  MOVWF  FEA
06904:  MOVLW  05
06906:  MOVWF  FEF
....................         i++;  
06908:  INCF   x19,F
....................       } 
0690A:  INCF   x19,F
0690C:  BRA    68B4
....................       if(unidad<1) 
0690E:  MOVF   xDA,F
06910:  BNZ   6916
....................       {unidad=4;} 
06912:  MOVLW  04
06914:  MOVWF  xDA
....................       if(Opcion<1) 
06916:  MOVF   xDB,F
06918:  BNZ   691E
....................       {Opcion=4;} 
0691A:  MOVLW  04
0691C:  MOVWF  xDB
....................      
....................     } 
.................... //_--------------------------------------------------------------------------------------------------------------------------------------------------------        
....................  
.................... //_-------------------------------------------------------------------------------------------------------------------------------------------------------- 
....................       if(Menu==12){ //Menu de Sensor de Flujo. 
0691E:  MOVF   xD9,W
06920:  SUBLW  0C
06922:  BTFSS  FD8.2
06924:  BRA    6F4E
....................        
....................       if(Ajuste1>10.0) 
06926:  MOVLB  6
06928:  CLRF   x7B
0692A:  CLRF   x7A
0692C:  MOVLW  20
0692E:  MOVWF  x79
06930:  MOVLW  82
06932:  MOVWF  x78
06934:  MOVFF  556,67F
06938:  MOVFF  555,67E
0693C:  MOVFF  554,67D
06940:  MOVFF  553,67C
06944:  MOVLB  0
06946:  CALL   1938
0694A:  BNC   6958
....................          Ajuste1=0.0; 
0694C:  MOVLB  5
0694E:  CLRF   x56
06950:  CLRF   x55
06952:  CLRF   x54
06954:  CLRF   x53
06956:  MOVLB  0
....................        
....................       strcpy(Menus.Letra,"Sensor de Flujo"); 
06958:  MOVLW  06
0695A:  MOVWF  FEA
0695C:  MOVLW  31
0695E:  MOVWF  FE9
06960:  MOVFF  FF2,647
06964:  BCF    FF2.7
06966:  MOVLW  00
06968:  CALL   102E
0696C:  TBLRD*-
0696E:  TBLRD*+
06970:  MOVF   FF5,W
06972:  MOVWF  FEE
06974:  IORLW  00
06976:  BNZ   696E
06978:  MOVLB  6
0697A:  BTFSC  x47.7
0697C:  BSF    FF2.7
....................       displayMenu(Menus.Letra,10,0,1,1); 
0697E:  MOVLW  06
06980:  MOVWF  x48
06982:  MOVLW  31
06984:  MOVWF  x47
06986:  MOVLW  0A
06988:  MOVWF  x49
0698A:  CLRF   x4A
0698C:  MOVLW  01
0698E:  MOVWF  x4B
06990:  MOVWF  x4C
06992:  MOVLB  0
06994:  CALL   394A
....................        
....................       glcd_text57(0, 12, ZF, 1, ON); 
06998:  MOVLB  6
0699A:  CLRF   x5E
0699C:  MOVLW  0C
0699E:  MOVWF  x5F
069A0:  MOVLW  04
069A2:  MOVWF  x61
069A4:  MOVLW  8D
069A6:  MOVWF  x60
069A8:  MOVLW  01
069AA:  MOVWF  x62
069AC:  MOVWF  x63
069AE:  MOVLB  0
069B0:  CALL   36DC
....................        
....................       glcd_text57(0, 20, ZA, 1, ON); 
069B4:  MOVLB  6
069B6:  CLRF   x5E
069B8:  MOVLW  14
069BA:  MOVWF  x5F
069BC:  MOVLW  04
069BE:  MOVWF  x61
069C0:  MOVLW  9B
069C2:  MOVWF  x60
069C4:  MOVLW  01
069C6:  MOVWF  x62
069C8:  MOVWF  x63
069CA:  MOVLB  0
069CC:  CALL   36DC
....................        
....................       glcd_text57(0, 30, AJ, 1, ON);            
069D0:  MOVLB  6
069D2:  CLRF   x5E
069D4:  MOVLW  1E
069D6:  MOVWF  x5F
069D8:  MOVLW  04
069DA:  MOVWF  x61
069DC:  MOVLW  A3
069DE:  MOVWF  x60
069E0:  MOVLW  01
069E2:  MOVWF  x62
069E4:  MOVWF  x63
069E6:  MOVLB  0
069E8:  CALL   36DC
....................        
....................       displayfloat(zero_actual,44,20,0,1); 
069EC:  MOVFF  5C2,64E
069F0:  MOVFF  5C1,64D
069F4:  MOVFF  5C0,64C
069F8:  MOVFF  5BF,64B
069FC:  MOVLW  2C
069FE:  MOVLB  6
06A00:  MOVWF  x4F
06A02:  MOVLW  14
06A04:  MOVWF  x50
06A06:  CLRF   x51
06A08:  MOVLW  01
06A0A:  MOVWF  x52
06A0C:  MOVLB  0
06A0E:  CALL   3F7C
....................       displayfloat(Ajuste1,44,30,0,1); 
06A12:  MOVFF  556,64E
06A16:  MOVFF  555,64D
06A1A:  MOVFF  554,64C
06A1E:  MOVFF  553,64B
06A22:  MOVLW  2C
06A24:  MOVLB  6
06A26:  MOVWF  x4F
06A28:  MOVLW  1E
06A2A:  MOVWF  x50
06A2C:  CLRF   x51
06A2E:  MOVLW  01
06A30:  MOVWF  x52
06A32:  MOVLB  0
06A34:  CALL   3F7C
....................       displayfloat(Inflow_adc,0,40,0,1); 
06A38:  MOVFF  4EE,67D
06A3C:  MOVFF  4ED,67C
06A40:  CALL   13BE
06A44:  MOVFF  00,647
06A48:  MOVFF  01,648
06A4C:  MOVFF  02,649
06A50:  MOVFF  03,64A
06A54:  MOVFF  03,64E
06A58:  MOVFF  02,64D
06A5C:  MOVFF  01,64C
06A60:  MOVFF  00,64B
06A64:  MOVLB  6
06A66:  CLRF   x4F
06A68:  MOVLW  28
06A6A:  MOVWF  x50
06A6C:  CLRF   x51
06A6E:  MOVLW  01
06A70:  MOVWF  x52
06A72:  MOVLB  0
06A74:  CALL   3F7C
.................... //      displayfloat(Diferencia,0,50,0,1); 
....................        
....................       if(UP || BYTE_IR[2]==0X18)//Si oprime hacia arriba 
06A78:  BSF    F96.1
06A7A:  BTFSC  F84.1
06A7C:  BRA    6A88
06A7E:  MOVLB  6
06A80:  MOVF   x2F,W
06A82:  SUBLW  18
06A84:  BNZ   6AD2
06A86:  MOVLB  0
....................       {   
....................          delay_ms(30);Ajuste1+=0.01;BYTE_IR[2]=0X00; 
06A88:  MOVLW  1E
06A8A:  MOVLB  6
06A8C:  MOVWF  x4F
06A8E:  MOVLB  0
06A90:  CALL   1396
06A94:  BCF    FD8.1
06A96:  MOVFF  556,67F
06A9A:  MOVFF  555,67E
06A9E:  MOVFF  554,67D
06AA2:  MOVFF  553,67C
06AA6:  MOVLW  0A
06AA8:  MOVLB  6
06AAA:  MOVWF  x83
06AAC:  MOVLW  D7
06AAE:  MOVWF  x82
06AB0:  MOVLW  23
06AB2:  MOVWF  x81
06AB4:  MOVLW  78
06AB6:  MOVWF  x80
06AB8:  MOVLB  0
06ABA:  CALL   1552
06ABE:  MOVFF  03,556
06AC2:  MOVFF  02,555
06AC6:  MOVFF  01,554
06ACA:  MOVFF  00,553
06ACE:  MOVLB  6
06AD0:  CLRF   x2F
....................       } 
....................              
....................       if(DOWN  || BYTE_IR[2]==0X52)//Si oprime hacia abajo 
06AD2:  BSF    F96.2
06AD4:  BTFSC  F84.2
06AD6:  BRA    6ADE
06AD8:  MOVF   x2F,W
06ADA:  SUBLW  52
06ADC:  BNZ   6B26
....................       {    
....................          delay_ms(30);Ajuste1-=0.01;BYTE_IR[2]=0X00;                
06ADE:  MOVLW  1E
06AE0:  MOVWF  x4F
06AE2:  MOVLB  0
06AE4:  CALL   1396
06AE8:  BSF    FD8.1
06AEA:  MOVFF  556,67F
06AEE:  MOVFF  555,67E
06AF2:  MOVFF  554,67D
06AF6:  MOVFF  553,67C
06AFA:  MOVLW  0A
06AFC:  MOVLB  6
06AFE:  MOVWF  x83
06B00:  MOVLW  D7
06B02:  MOVWF  x82
06B04:  MOVLW  23
06B06:  MOVWF  x81
06B08:  MOVLW  78
06B0A:  MOVWF  x80
06B0C:  MOVLB  0
06B0E:  CALL   1552
06B12:  MOVFF  03,556
06B16:  MOVFF  02,555
06B1A:  MOVFF  01,554
06B1E:  MOVFF  00,553
06B22:  MOVLB  6
06B24:  CLRF   x2F
....................       } 
....................              
....................       if(RIGHT || BYTE_IR[2]==0X5A)//Si oprime SET 
06B26:  BSF    F94.0
06B28:  BTFSC  F82.0
06B2A:  BRA    6B34
06B2C:  MOVF   x2F,W
06B2E:  SUBLW  5A
06B30:  BTFSS  FD8.2
06B32:  BRA    6DF4
....................       {   
....................          zero_actual=Inflow_adc;BYTE_IR[2]=0X00; 
06B34:  MOVFF  4EE,67D
06B38:  MOVFF  4ED,67C
06B3C:  MOVLB  0
06B3E:  CALL   13BE
06B42:  MOVFF  03,5C2
06B46:  MOVFF  02,5C1
06B4A:  MOVFF  01,5C0
06B4E:  MOVFF  00,5BF
06B52:  MOVLB  6
06B54:  CLRF   x2F
....................          Diferencia=zero_fabrica-Inflow_adc; 
06B56:  MOVFF  4EE,67D
06B5A:  MOVFF  4ED,67C
06B5E:  MOVLB  0
06B60:  CALL   13BE
06B64:  BSF    FD8.1
06B66:  MOVFF  5BE,67F
06B6A:  MOVFF  5BD,67E
06B6E:  MOVFF  5BC,67D
06B72:  MOVFF  5BB,67C
06B76:  MOVFF  03,683
06B7A:  MOVFF  02,682
06B7E:  MOVFF  01,681
06B82:  MOVFF  00,680
06B86:  CALL   1552
06B8A:  MOVFF  03,532
06B8E:  MOVFF  02,531
06B92:  MOVFF  01,530
06B96:  MOVFF  00,52F
....................              
....................          if(Diferencia>=0) 
06B9A:  MOVLB  6
06B9C:  CLRF   x7B
06B9E:  CLRF   x7A
06BA0:  CLRF   x79
06BA2:  CLRF   x78
06BA4:  MOVFF  532,67F
06BA8:  MOVFF  531,67E
06BAC:  MOVFF  530,67D
06BB0:  MOVFF  52F,67C
06BB4:  MOVLB  0
06BB6:  CALL   1938
06BBA:  BC    6BBE
06BBC:  BNZ   6BF0
....................          { 
....................             negativo=10;write_eeprom(50,negativo); 
06BBE:  MOVLW  0A
06BC0:  MOVLB  4
06BC2:  MOVWF  xDD
06BC4:  CLRF   FAA
06BC6:  MOVLW  32
06BC8:  MOVWF  FA9
06BCA:  MOVFF  4DD,FA8
06BCE:  BCF    FA6.6
06BD0:  BCF    FA6.7
06BD2:  BSF    FA6.2
06BD4:  MOVF   FF2,W
06BD6:  MOVWF  00
06BD8:  BCF    FF2.7
06BDA:  MOVLB  F
06BDC:  MOVLW  55
06BDE:  MOVWF  FA7
06BE0:  MOVLW  AA
06BE2:  MOVWF  FA7
06BE4:  BSF    FA6.1
06BE6:  BTFSC  FA6.1
06BE8:  BRA    6BE6
06BEA:  BCF    FA6.2
06BEC:  MOVF   00,W
06BEE:  IORWF  FF2,F
....................          } 
....................          if(Diferencia<0) 
06BF0:  MOVFF  532,67B
06BF4:  MOVFF  531,67A
06BF8:  MOVFF  530,679
06BFC:  MOVFF  52F,678
06C00:  MOVLB  6
06C02:  CLRF   x7F
06C04:  CLRF   x7E
06C06:  CLRF   x7D
06C08:  CLRF   x7C
06C0A:  MOVLB  0
06C0C:  CALL   1938
06C10:  BNC   6C46
....................          { 
....................             negativo=20;write_eeprom(50,negativo); 
06C12:  MOVLW  14
06C14:  MOVLB  4
06C16:  MOVWF  xDD
06C18:  CLRF   FAA
06C1A:  MOVLW  32
06C1C:  MOVWF  FA9
06C1E:  MOVFF  4DD,FA8
06C22:  BCF    FA6.6
06C24:  BCF    FA6.7
06C26:  BSF    FA6.2
06C28:  MOVF   FF2,W
06C2A:  MOVWF  00
06C2C:  BCF    FF2.7
06C2E:  MOVLB  F
06C30:  MOVLW  55
06C32:  MOVWF  FA7
06C34:  MOVLW  AA
06C36:  MOVWF  FA7
06C38:  BSF    FA6.1
06C3A:  BTFSC  FA6.1
06C3C:  BRA    6C3A
06C3E:  BCF    FA6.2
06C40:  MOVF   00,W
06C42:  IORWF  FF2,F
06C44:  MOVLB  0
....................          } 
....................          Diferencia=abs(Diferencia); 
06C46:  MOVFF  52F,00
06C4A:  MOVFF  530,01
06C4E:  MOVFF  531,02
06C52:  MOVFF  532,03
06C56:  BCF    01.7
06C58:  MOVFF  532,532
06C5C:  MOVFF  531,531
06C60:  MOVFF  01,530
06C64:  MOVFF  52F,52F
....................          Temporal1=(int16)Diferencia; 
06C68:  MOVFF  532,67B
06C6C:  MOVFF  531,67A
06C70:  MOVFF  530,679
06C74:  MOVFF  52F,678
06C78:  CALL   19B2
06C7C:  MOVFF  02,4F2
06C80:  MOVFF  01,4F1
....................          write_eeprom(60,make8(Temporal1,0)); 
06C84:  MOVFF  4F1,647
06C88:  CLRF   FAA
06C8A:  MOVLW  3C
06C8C:  MOVWF  FA9
06C8E:  MOVFF  647,FA8
06C92:  BCF    FA6.6
06C94:  BCF    FA6.7
06C96:  BSF    FA6.2
06C98:  MOVF   FF2,W
06C9A:  MOVWF  00
06C9C:  BCF    FF2.7
06C9E:  MOVLB  F
06CA0:  MOVLW  55
06CA2:  MOVWF  FA7
06CA4:  MOVLW  AA
06CA6:  MOVWF  FA7
06CA8:  BSF    FA6.1
06CAA:  BTFSC  FA6.1
06CAC:  BRA    6CAA
06CAE:  BCF    FA6.2
06CB0:  MOVF   00,W
06CB2:  IORWF  FF2,F
....................          write_eeprom(61,make8(Temporal1,1));//Guardar valor de Setpoint en eeprom 
06CB4:  MOVFF  4F2,647
06CB8:  CLRF   FAA
06CBA:  MOVLW  3D
06CBC:  MOVWF  FA9
06CBE:  MOVFF  4F2,FA8
06CC2:  BCF    FA6.6
06CC4:  BCF    FA6.7
06CC6:  BSF    FA6.2
06CC8:  MOVFF  FF2,00
06CCC:  BCF    FF2.7
06CCE:  MOVLW  55
06CD0:  MOVWF  FA7
06CD2:  MOVLW  AA
06CD4:  MOVWF  FA7
06CD6:  BSF    FA6.1
06CD8:  BTFSC  FA6.1
06CDA:  BRA    6CD8
06CDC:  BCF    FA6.2
06CDE:  MOVF   00,W
06CE0:  IORWF  FF2,F
....................           
....................          Temporal=zero_actual; 
06CE2:  MOVFF  5C2,562
06CE6:  MOVFF  5C1,561
06CEA:  MOVFF  5C0,560
06CEE:  MOVFF  5BF,55F
....................          Entero=(int)zero_actual; 
06CF2:  MOVFF  5C2,67B
06CF6:  MOVFF  5C1,67A
06CFA:  MOVFF  5C0,679
06CFE:  MOVFF  5BF,678
06D02:  MOVLB  0
06D04:  CALL   19B2
06D08:  MOVFF  01,4E5
....................          Temporal=Temporal-Entero; 
06D0C:  MOVLB  6
06D0E:  CLRF   x7D
06D10:  MOVFF  4E5,67C
06D14:  MOVLB  0
06D16:  CALL   13BE
06D1A:  BSF    FD8.1
06D1C:  MOVFF  562,67F
06D20:  MOVFF  561,67E
06D24:  MOVFF  560,67D
06D28:  MOVFF  55F,67C
06D2C:  MOVFF  03,683
06D30:  MOVFF  02,682
06D34:  MOVFF  01,681
06D38:  MOVFF  00,680
06D3C:  CALL   1552
06D40:  MOVFF  03,562
06D44:  MOVFF  02,561
06D48:  MOVFF  01,560
06D4C:  MOVFF  00,55F
....................          Temporal2=Temporal*100.0; 
06D50:  MOVFF  562,67B
06D54:  MOVFF  561,67A
06D58:  MOVFF  560,679
06D5C:  MOVFF  55F,678
06D60:  MOVLB  6
06D62:  CLRF   x7F
06D64:  CLRF   x7E
06D66:  MOVLW  48
06D68:  MOVWF  x7D
06D6A:  MOVLW  85
06D6C:  MOVWF  x7C
06D6E:  MOVLB  0
06D70:  CALL   19EE
06D74:  MOVFF  03,566
06D78:  MOVFF  02,565
06D7C:  MOVFF  01,564
06D80:  MOVFF  00,563
....................          Decimal1=(int8)Temporal2; 
06D84:  MOVFF  566,67B
06D88:  MOVFF  565,67A
06D8C:  MOVFF  564,679
06D90:  MOVFF  563,678
06D94:  CALL   19B2
06D98:  MOVFF  01,4E6
....................          write_eeprom(29,Entero);write_eeprom(30,Decimal1); 
06D9C:  CLRF   FAA
06D9E:  MOVLW  1D
06DA0:  MOVWF  FA9
06DA2:  MOVFF  4E5,FA8
06DA6:  BCF    FA6.6
06DA8:  BCF    FA6.7
06DAA:  BSF    FA6.2
06DAC:  MOVF   FF2,W
06DAE:  MOVWF  00
06DB0:  BCF    FF2.7
06DB2:  MOVLB  F
06DB4:  MOVLW  55
06DB6:  MOVWF  FA7
06DB8:  MOVLW  AA
06DBA:  MOVWF  FA7
06DBC:  BSF    FA6.1
06DBE:  BTFSC  FA6.1
06DC0:  BRA    6DBE
06DC2:  BCF    FA6.2
06DC4:  MOVF   00,W
06DC6:  IORWF  FF2,F
06DC8:  CLRF   FAA
06DCA:  MOVLW  1E
06DCC:  MOVWF  FA9
06DCE:  MOVFF  4E6,FA8
06DD2:  BCF    FA6.6
06DD4:  BCF    FA6.7
06DD6:  BSF    FA6.2
06DD8:  MOVF   FF2,W
06DDA:  MOVWF  00
06DDC:  BCF    FF2.7
06DDE:  MOVLW  55
06DE0:  MOVWF  FA7
06DE2:  MOVLW  AA
06DE4:  MOVWF  FA7
06DE6:  BSF    FA6.1
06DE8:  BTFSC  FA6.1
06DEA:  BRA    6DE8
06DEC:  BCF    FA6.2
06DEE:  MOVF   00,W
06DF0:  IORWF  FF2,F
....................       } 
....................          else 
06DF2:  BRA    6DFA
....................             {Flanco1 = 0;}   
06DF4:  MOVLB  4
06DF6:  BCF    x1A.1
06DF8:  MOVLB  F
....................              
....................       if(LEFT || BYTE_IR[2]==0X08)//Si oprime boton de Toma. 
06DFA:  BSF    F94.1
06DFC:  BTFSC  F82.1
06DFE:  BRA    6E0C
06E00:  MOVLB  6
06E02:  MOVF   x2F,W
06E04:  SUBLW  08
06E06:  BTFSS  FD8.2
06E08:  BRA    6F4C
06E0A:  MOVLB  F
....................       { 
....................          BYTE_IR[2]=0X00; 
06E0C:  MOVLB  6
06E0E:  CLRF   x2F
....................          delay_ms(700);Menu=3;glcd_fillscreen(OFF);Opcion=1; 
06E10:  MOVLW  04
06E12:  MOVWF  x47
06E14:  MOVLW  AF
06E16:  MOVWF  x4F
06E18:  MOVLB  0
06E1A:  CALL   1396
06E1E:  MOVLB  6
06E20:  DECFSZ x47,F
06E22:  BRA    6E14
06E24:  MOVLW  03
06E26:  MOVLB  4
06E28:  MOVWF  xD9
06E2A:  MOVLB  6
06E2C:  CLRF   x48
06E2E:  MOVLB  0
06E30:  CALL   31DE
06E34:  MOVLW  01
06E36:  MOVLB  4
06E38:  MOVWF  xDB
....................          Temporal=Ajuste1; 
06E3A:  MOVFF  556,562
06E3E:  MOVFF  555,561
06E42:  MOVFF  554,560
06E46:  MOVFF  553,55F
....................          Entero=(int)Ajuste1; 
06E4A:  MOVFF  556,67B
06E4E:  MOVFF  555,67A
06E52:  MOVFF  554,679
06E56:  MOVFF  553,678
06E5A:  MOVLB  0
06E5C:  CALL   19B2
06E60:  MOVFF  01,4E5
....................          Temporal=Temporal-Entero; 
06E64:  MOVLB  6
06E66:  CLRF   x7D
06E68:  MOVFF  4E5,67C
06E6C:  MOVLB  0
06E6E:  CALL   13BE
06E72:  BSF    FD8.1
06E74:  MOVFF  562,67F
06E78:  MOVFF  561,67E
06E7C:  MOVFF  560,67D
06E80:  MOVFF  55F,67C
06E84:  MOVFF  03,683
06E88:  MOVFF  02,682
06E8C:  MOVFF  01,681
06E90:  MOVFF  00,680
06E94:  CALL   1552
06E98:  MOVFF  03,562
06E9C:  MOVFF  02,561
06EA0:  MOVFF  01,560
06EA4:  MOVFF  00,55F
....................          Temporal2=Temporal*100.0; 
06EA8:  MOVFF  562,67B
06EAC:  MOVFF  561,67A
06EB0:  MOVFF  560,679
06EB4:  MOVFF  55F,678
06EB8:  MOVLB  6
06EBA:  CLRF   x7F
06EBC:  CLRF   x7E
06EBE:  MOVLW  48
06EC0:  MOVWF  x7D
06EC2:  MOVLW  85
06EC4:  MOVWF  x7C
06EC6:  MOVLB  0
06EC8:  CALL   19EE
06ECC:  MOVFF  03,566
06ED0:  MOVFF  02,565
06ED4:  MOVFF  01,564
06ED8:  MOVFF  00,563
....................          Decimal1=(int8)Temporal2; 
06EDC:  MOVFF  566,67B
06EE0:  MOVFF  565,67A
06EE4:  MOVFF  564,679
06EE8:  MOVFF  563,678
06EEC:  CALL   19B2
06EF0:  MOVFF  01,4E6
....................          write_eeprom(25,Entero);write_eeprom(26,Decimal1); 
06EF4:  CLRF   FAA
06EF6:  MOVLW  19
06EF8:  MOVWF  FA9
06EFA:  MOVFF  4E5,FA8
06EFE:  BCF    FA6.6
06F00:  BCF    FA6.7
06F02:  BSF    FA6.2
06F04:  MOVF   FF2,W
06F06:  MOVWF  00
06F08:  BCF    FF2.7
06F0A:  MOVLB  F
06F0C:  MOVLW  55
06F0E:  MOVWF  FA7
06F10:  MOVLW  AA
06F12:  MOVWF  FA7
06F14:  BSF    FA6.1
06F16:  BTFSC  FA6.1
06F18:  BRA    6F16
06F1A:  BCF    FA6.2
06F1C:  MOVF   00,W
06F1E:  IORWF  FF2,F
06F20:  CLRF   FAA
06F22:  MOVLW  1A
06F24:  MOVWF  FA9
06F26:  MOVFF  4E6,FA8
06F2A:  BCF    FA6.6
06F2C:  BCF    FA6.7
06F2E:  BSF    FA6.2
06F30:  MOVF   FF2,W
06F32:  MOVWF  00
06F34:  BCF    FF2.7
06F36:  MOVLW  55
06F38:  MOVWF  FA7
06F3A:  MOVLW  AA
06F3C:  MOVWF  FA7
06F3E:  BSF    FA6.1
06F40:  BTFSC  FA6.1
06F42:  BRA    6F40
06F44:  BCF    FA6.2
06F46:  MOVF   00,W
06F48:  IORWF  FF2,F
06F4A:  MOVLB  6
06F4C:  MOVLB  4
....................       } 
....................     } 
.................... //_--------------------------------------------------------------------------------------------------------------------------------------------------------        
....................  
.................... //_-------------------------------------------------------------------------------------------------------------------------------------------------------- 
....................       if(Menu==13){ //Menu de Sensor de Presin. 
06F4E:  MOVF   xD9,W
06F50:  SUBLW  0D
06F52:  BTFSS  FD8.2
06F54:  BRA    737C
....................        
....................       if(Ajuste2>10.0) 
06F56:  MOVLB  6
06F58:  CLRF   x7B
06F5A:  CLRF   x7A
06F5C:  MOVLW  20
06F5E:  MOVWF  x79
06F60:  MOVLW  82
06F62:  MOVWF  x78
06F64:  MOVFF  55A,67F
06F68:  MOVFF  559,67E
06F6C:  MOVFF  558,67D
06F70:  MOVFF  557,67C
06F74:  MOVLB  0
06F76:  CALL   1938
06F7A:  BNC   6F88
....................          Ajuste2=0.0; 
06F7C:  MOVLB  5
06F7E:  CLRF   x5A
06F80:  CLRF   x59
06F82:  CLRF   x58
06F84:  CLRF   x57
06F86:  MOVLB  0
....................        
....................       strcpy(Menus.Letra,"Sensor de Presion"); 
06F88:  MOVLW  06
06F8A:  MOVWF  FEA
06F8C:  MOVLW  31
06F8E:  MOVWF  FE9
06F90:  MOVFF  FF2,647
06F94:  BCF    FF2.7
06F96:  MOVLW  00
06F98:  CALL   105C
06F9C:  TBLRD*-
06F9E:  TBLRD*+
06FA0:  MOVF   FF5,W
06FA2:  MOVWF  FEE
06FA4:  IORLW  00
06FA6:  BNZ   6F9E
06FA8:  MOVLB  6
06FAA:  BTFSC  x47.7
06FAC:  BSF    FF2.7
....................       displayMenu(Menus.Letra,10,0,1,1); 
06FAE:  MOVLW  06
06FB0:  MOVWF  x48
06FB2:  MOVLW  31
06FB4:  MOVWF  x47
06FB6:  MOVLW  0A
06FB8:  MOVWF  x49
06FBA:  CLRF   x4A
06FBC:  MOVLW  01
06FBE:  MOVWF  x4B
06FC0:  MOVWF  x4C
06FC2:  MOVLB  0
06FC4:  CALL   394A
....................        
....................       glcd_text57(0, 12, ZFP, 1, ON); 
06FC8:  MOVLB  6
06FCA:  CLRF   x5E
06FCC:  MOVLW  0C
06FCE:  MOVWF  x5F
06FD0:  MOVLW  04
06FD2:  MOVWF  x61
06FD4:  MOVLW  BB
06FD6:  MOVWF  x60
06FD8:  MOVLW  01
06FDA:  MOVWF  x62
06FDC:  MOVWF  x63
06FDE:  MOVLB  0
06FE0:  CALL   36DC
....................        
....................       glcd_text57(0, 20, ZA, 1, ON); 
06FE4:  MOVLB  6
06FE6:  CLRF   x5E
06FE8:  MOVLW  14
06FEA:  MOVWF  x5F
06FEC:  MOVLW  04
06FEE:  MOVWF  x61
06FF0:  MOVLW  9B
06FF2:  MOVWF  x60
06FF4:  MOVLW  01
06FF6:  MOVWF  x62
06FF8:  MOVWF  x63
06FFA:  MOVLB  0
06FFC:  CALL   36DC
....................        
....................       glcd_text57(0, 30, AJ, 1, ON);            
07000:  MOVLB  6
07002:  CLRF   x5E
07004:  MOVLW  1E
07006:  MOVWF  x5F
07008:  MOVLW  04
0700A:  MOVWF  x61
0700C:  MOVLW  A3
0700E:  MOVWF  x60
07010:  MOVLW  01
07012:  MOVWF  x62
07014:  MOVWF  x63
07016:  MOVLB  0
07018:  CALL   36DC
....................        
....................       displayfloat(G,44,20,0,1); 
0701C:  MOVFF  5CE,64E
07020:  MOVFF  5CD,64D
07024:  MOVFF  5CC,64C
07028:  MOVFF  5CB,64B
0702C:  MOVLW  2C
0702E:  MOVLB  6
07030:  MOVWF  x4F
07032:  MOVLW  14
07034:  MOVWF  x50
07036:  CLRF   x51
07038:  MOVLW  01
0703A:  MOVWF  x52
0703C:  MOVLB  0
0703E:  CALL   3F7C
....................       displayfloat(Ajuste2,44,30,0,1); 
07042:  MOVFF  55A,64E
07046:  MOVFF  559,64D
0704A:  MOVFF  558,64C
0704E:  MOVFF  557,64B
07052:  MOVLW  2C
07054:  MOVLB  6
07056:  MOVWF  x4F
07058:  MOVLW  1E
0705A:  MOVWF  x50
0705C:  CLRF   x51
0705E:  MOVLW  01
07060:  MOVWF  x52
07062:  MOVLB  0
07064:  CALL   3F7C
....................       displayfloat(Filtro_DownFlow_adc,0,40,0,1); 
07068:  MOVFF  4F0,67D
0706C:  MOVFF  4EF,67C
07070:  CALL   13BE
07074:  MOVFF  00,647
07078:  MOVFF  01,648
0707C:  MOVFF  02,649
07080:  MOVFF  03,64A
07084:  MOVFF  03,64E
07088:  MOVFF  02,64D
0708C:  MOVFF  01,64C
07090:  MOVFF  00,64B
07094:  MOVLB  6
07096:  CLRF   x4F
07098:  MOVLW  28
0709A:  MOVWF  x50
0709C:  CLRF   x51
0709E:  MOVLW  01
070A0:  MOVWF  x52
070A2:  MOVLB  0
070A4:  CALL   3F7C
....................       displayfloat(Filtro_DownFlow,0,50,0,1); 
070A8:  MOVFF  52E,64E
070AC:  MOVFF  52D,64D
070B0:  MOVFF  52C,64C
070B4:  MOVFF  52B,64B
070B8:  MOVLB  6
070BA:  CLRF   x4F
070BC:  MOVLW  32
070BE:  MOVWF  x50
070C0:  CLRF   x51
070C2:  MOVLW  01
070C4:  MOVWF  x52
070C6:  MOVLB  0
070C8:  CALL   3F7C
....................        
....................       if(UP || BYTE_IR[2]==0X18)//Si oprime hacia arriba 
070CC:  BSF    F96.1
070CE:  BTFSC  F84.1
070D0:  BRA    70DC
070D2:  MOVLB  6
070D4:  MOVF   x2F,W
070D6:  SUBLW  18
070D8:  BNZ   7126
070DA:  MOVLB  0
....................       {   
....................          delay_ms(30);Ajuste2+=0.01;BYTE_IR[2]=0X00; 
070DC:  MOVLW  1E
070DE:  MOVLB  6
070E0:  MOVWF  x4F
070E2:  MOVLB  0
070E4:  CALL   1396
070E8:  BCF    FD8.1
070EA:  MOVFF  55A,67F
070EE:  MOVFF  559,67E
070F2:  MOVFF  558,67D
070F6:  MOVFF  557,67C
070FA:  MOVLW  0A
070FC:  MOVLB  6
070FE:  MOVWF  x83
07100:  MOVLW  D7
07102:  MOVWF  x82
07104:  MOVLW  23
07106:  MOVWF  x81
07108:  MOVLW  78
0710A:  MOVWF  x80
0710C:  MOVLB  0
0710E:  CALL   1552
07112:  MOVFF  03,55A
07116:  MOVFF  02,559
0711A:  MOVFF  01,558
0711E:  MOVFF  00,557
07122:  MOVLB  6
07124:  CLRF   x2F
....................       } 
....................              
....................       if(DOWN  || BYTE_IR[2]==0X52)//Si oprime hacia abajo 
07126:  BSF    F96.2
07128:  BTFSC  F84.2
0712A:  BRA    7132
0712C:  MOVF   x2F,W
0712E:  SUBLW  52
07130:  BNZ   717A
....................       {   
....................          delay_ms(30);Ajuste2-=0.01;BYTE_IR[2]=0X00; 
07132:  MOVLW  1E
07134:  MOVWF  x4F
07136:  MOVLB  0
07138:  CALL   1396
0713C:  BSF    FD8.1
0713E:  MOVFF  55A,67F
07142:  MOVFF  559,67E
07146:  MOVFF  558,67D
0714A:  MOVFF  557,67C
0714E:  MOVLW  0A
07150:  MOVLB  6
07152:  MOVWF  x83
07154:  MOVLW  D7
07156:  MOVWF  x82
07158:  MOVLW  23
0715A:  MOVWF  x81
0715C:  MOVLW  78
0715E:  MOVWF  x80
07160:  MOVLB  0
07162:  CALL   1552
07166:  MOVFF  03,55A
0716A:  MOVFF  02,559
0716E:  MOVFF  01,558
07172:  MOVFF  00,557
07176:  MOVLB  6
07178:  CLRF   x2F
....................       } 
....................              
....................       if(RIGHT || BYTE_IR[2]==0X5A)//Si oprime SET 
0717A:  BSF    F94.0
0717C:  BTFSC  F82.0
0717E:  BRA    7186
07180:  MOVF   x2F,W
07182:  SUBLW  5A
07184:  BNZ   7222
....................       {   
....................          BYTE_IR[2]=0X00; 
07186:  CLRF   x2F
....................          G=Filtro_Downflow_adc; 
07188:  MOVFF  4F0,67D
0718C:  MOVFF  4EF,67C
07190:  MOVLB  0
07192:  CALL   13BE
07196:  MOVFF  03,5CE
0719A:  MOVFF  02,5CD
0719E:  MOVFF  01,5CC
071A2:  MOVFF  00,5CB
....................          G16=(int16)G; 
071A6:  MOVFF  5CE,67B
071AA:  MOVFF  5CD,67A
071AE:  MOVFF  5CC,679
071B2:  MOVFF  5CB,678
071B6:  CALL   19B2
071BA:  MOVFF  02,4FA
071BE:  MOVFF  01,4F9
....................          G_l=G16; G_h=(G16>>8); 
071C2:  MOVFF  4F9,4DE
071C6:  MOVFF  4FA,4DF
....................              
....................          write_eeprom(62,G_l);write_eeprom(63,G_h);//Guardar valor de Setpoint en eeprom 
071CA:  CLRF   FAA
071CC:  MOVLW  3E
071CE:  MOVWF  FA9
071D0:  MOVFF  4DE,FA8
071D4:  BCF    FA6.6
071D6:  BCF    FA6.7
071D8:  BSF    FA6.2
071DA:  MOVF   FF2,W
071DC:  MOVWF  00
071DE:  BCF    FF2.7
071E0:  MOVLB  F
071E2:  MOVLW  55
071E4:  MOVWF  FA7
071E6:  MOVLW  AA
071E8:  MOVWF  FA7
071EA:  BSF    FA6.1
071EC:  BTFSC  FA6.1
071EE:  BRA    71EC
071F0:  BCF    FA6.2
071F2:  MOVF   00,W
071F4:  IORWF  FF2,F
071F6:  CLRF   FAA
071F8:  MOVLW  3F
071FA:  MOVWF  FA9
071FC:  MOVFF  4DF,FA8
07200:  BCF    FA6.6
07202:  BCF    FA6.7
07204:  BSF    FA6.2
07206:  MOVF   FF2,W
07208:  MOVWF  00
0720A:  BCF    FF2.7
0720C:  MOVLW  55
0720E:  MOVWF  FA7
07210:  MOVLW  AA
07212:  MOVWF  FA7
07214:  BSF    FA6.1
07216:  BTFSC  FA6.1
07218:  BRA    7216
0721A:  BCF    FA6.2
0721C:  MOVF   00,W
0721E:  IORWF  FF2,F
....................       } 
....................          else 
07220:  BRA    7228
....................             {Flanco1 = 0;}   
07222:  MOVLB  4
07224:  BCF    x1A.1
07226:  MOVLB  F
....................              
....................       if(LEFT || BYTE_IR[2]==0X08)//Si oprime boton de Toma. 
07228:  BSF    F94.1
0722A:  BTFSC  F82.1
0722C:  BRA    723A
0722E:  MOVLB  6
07230:  MOVF   x2F,W
07232:  SUBLW  08
07234:  BTFSS  FD8.2
07236:  BRA    737A
07238:  MOVLB  F
....................       {          
....................          BYTE_IR[2]=0X00; 
0723A:  MOVLB  6
0723C:  CLRF   x2F
....................          delay_ms(700);Menu=3;glcd_fillscreen(OFF);Opcion=1; 
0723E:  MOVLW  04
07240:  MOVWF  x47
07242:  MOVLW  AF
07244:  MOVWF  x4F
07246:  MOVLB  0
07248:  CALL   1396
0724C:  MOVLB  6
0724E:  DECFSZ x47,F
07250:  BRA    7242
07252:  MOVLW  03
07254:  MOVLB  4
07256:  MOVWF  xD9
07258:  MOVLB  6
0725A:  CLRF   x48
0725C:  MOVLB  0
0725E:  CALL   31DE
07262:  MOVLW  01
07264:  MOVLB  4
07266:  MOVWF  xDB
....................          Temporal=Ajuste2; 
07268:  MOVFF  55A,562
0726C:  MOVFF  559,561
07270:  MOVFF  558,560
07274:  MOVFF  557,55F
....................          Entero=(int)Ajuste2; 
07278:  MOVFF  55A,67B
0727C:  MOVFF  559,67A
07280:  MOVFF  558,679
07284:  MOVFF  557,678
07288:  MOVLB  0
0728A:  CALL   19B2
0728E:  MOVFF  01,4E5
....................          Temporal=Temporal-Entero; 
07292:  MOVLB  6
07294:  CLRF   x7D
07296:  MOVFF  4E5,67C
0729A:  MOVLB  0
0729C:  CALL   13BE
072A0:  BSF    FD8.1
072A2:  MOVFF  562,67F
072A6:  MOVFF  561,67E
072AA:  MOVFF  560,67D
072AE:  MOVFF  55F,67C
072B2:  MOVFF  03,683
072B6:  MOVFF  02,682
072BA:  MOVFF  01,681
072BE:  MOVFF  00,680
072C2:  CALL   1552
072C6:  MOVFF  03,562
072CA:  MOVFF  02,561
072CE:  MOVFF  01,560
072D2:  MOVFF  00,55F
....................          Temporal2=Temporal*100.0; 
072D6:  MOVFF  562,67B
072DA:  MOVFF  561,67A
072DE:  MOVFF  560,679
072E2:  MOVFF  55F,678
072E6:  MOVLB  6
072E8:  CLRF   x7F
072EA:  CLRF   x7E
072EC:  MOVLW  48
072EE:  MOVWF  x7D
072F0:  MOVLW  85
072F2:  MOVWF  x7C
072F4:  MOVLB  0
072F6:  CALL   19EE
072FA:  MOVFF  03,566
072FE:  MOVFF  02,565
07302:  MOVFF  01,564
07306:  MOVFF  00,563
....................          Decimal1=(int8)Temporal2; 
0730A:  MOVFF  566,67B
0730E:  MOVFF  565,67A
07312:  MOVFF  564,679
07316:  MOVFF  563,678
0731A:  CALL   19B2
0731E:  MOVFF  01,4E6
....................          write_eeprom(27,Entero);write_eeprom(28,Decimal1); 
07322:  CLRF   FAA
07324:  MOVLW  1B
07326:  MOVWF  FA9
07328:  MOVFF  4E5,FA8
0732C:  BCF    FA6.6
0732E:  BCF    FA6.7
07330:  BSF    FA6.2
07332:  MOVF   FF2,W
07334:  MOVWF  00
07336:  BCF    FF2.7
07338:  MOVLB  F
0733A:  MOVLW  55
0733C:  MOVWF  FA7
0733E:  MOVLW  AA
07340:  MOVWF  FA7
07342:  BSF    FA6.1
07344:  BTFSC  FA6.1
07346:  BRA    7344
07348:  BCF    FA6.2
0734A:  MOVF   00,W
0734C:  IORWF  FF2,F
0734E:  CLRF   FAA
07350:  MOVLW  1C
07352:  MOVWF  FA9
07354:  MOVFF  4E6,FA8
07358:  BCF    FA6.6
0735A:  BCF    FA6.7
0735C:  BSF    FA6.2
0735E:  MOVF   FF2,W
07360:  MOVWF  00
07362:  BCF    FF2.7
07364:  MOVLW  55
07366:  MOVWF  FA7
07368:  MOVLW  AA
0736A:  MOVWF  FA7
0736C:  BSF    FA6.1
0736E:  BTFSC  FA6.1
07370:  BRA    736E
07372:  BCF    FA6.2
07374:  MOVF   00,W
07376:  IORWF  FF2,F
07378:  MOVLB  6
0737A:  MOVLB  4
....................       } 
....................     } 
.................... //_--------------------------------------------------------------------------------------------------------------------------------------------------------        
....................  
.................... //_-------------------------------------------------------------------------------------------------------------------------------------------------------- 
....................       if(Menu==5){ //Menu de Clave. 
0737C:  MOVF   xD9,W
0737E:  SUBLW  05
07380:  BTFSS  FD8.2
07382:  BRA    77B2
....................        
....................        
....................       displayContrasena(Contrasena[0],20,30,1);displayContrasena(Contrasena[1],40,30,0); 
07384:  MOVFF  51B,649
07388:  MOVLW  14
0738A:  MOVLB  6
0738C:  MOVWF  x4A
0738E:  MOVLW  1E
07390:  MOVWF  x4B
07392:  MOVLW  01
07394:  MOVWF  x4C
07396:  MOVLB  0
07398:  CALL   3894
0739C:  MOVFF  51C,649
073A0:  MOVLW  28
073A2:  MOVLB  6
073A4:  MOVWF  x4A
073A6:  MOVLW  1E
073A8:  MOVWF  x4B
073AA:  CLRF   x4C
073AC:  MOVLB  0
073AE:  CALL   3894
....................       displayContrasena(Contrasena[2],60,30,0);displayContrasena(Contrasena[0],80,30,0); 
073B2:  MOVFF  51D,649
073B6:  MOVLW  3C
073B8:  MOVLB  6
073BA:  MOVWF  x4A
073BC:  MOVLW  1E
073BE:  MOVWF  x4B
073C0:  CLRF   x4C
073C2:  MOVLB  0
073C4:  CALL   3894
073C8:  MOVFF  51B,649
073CC:  MOVLW  50
073CE:  MOVLB  6
073D0:  MOVWF  x4A
073D2:  MOVLW  1E
073D4:  MOVWF  x4B
073D6:  CLRF   x4C
073D8:  MOVLB  0
073DA:  CALL   3894
....................       strcpy(Menus.Letra,"Clave"); 
073DE:  MOVLW  06
073E0:  MOVWF  FEA
073E2:  MOVLW  31
073E4:  MOVWF  FE9
073E6:  MOVFF  FF2,647
073EA:  BCF    FF2.7
073EC:  MOVLW  00
073EE:  CALL   0F16
073F2:  TBLRD*-
073F4:  TBLRD*+
073F6:  MOVF   FF5,W
073F8:  MOVWF  FEE
073FA:  IORLW  00
073FC:  BNZ   73F4
073FE:  MOVLB  6
07400:  BTFSC  x47.7
07402:  BSF    FF2.7
....................       displayMenu(Menus.Letra,20,0,1,3); 
07404:  MOVLW  06
07406:  MOVWF  x48
07408:  MOVLW  31
0740A:  MOVWF  x47
0740C:  MOVLW  14
0740E:  MOVWF  x49
07410:  CLRF   x4A
07412:  MOVLW  01
07414:  MOVWF  x4B
07416:  MOVLW  03
07418:  MOVWF  x4C
0741A:  MOVLB  0
0741C:  CALL   394A
....................          
....................       if(UP || BYTE_IR[2]==0X18)//Si oprime hacia arriba 
07420:  BSF    F96.1
07422:  BTFSC  F84.1
07424:  BRA    742E
07426:  MOVLB  6
07428:  MOVF   x2F,W
0742A:  SUBLW  18
0742C:  BNZ   7508
....................       {  if(Flanco == 0)  
0742E:  MOVLB  4
07430:  BTFSC  x1A.0
07432:  BRA    7506
....................             {Flanco = 1;delay_ms(30);BYTE_IR[2]=0X00; 
07434:  BSF    x1A.0
07436:  MOVLW  1E
07438:  MOVLB  6
0743A:  MOVWF  x4F
0743C:  MOVLB  0
0743E:  CALL   1396
07442:  MOVLB  6
07444:  CLRF   x2F
....................             for(i=1;i<=4;i++) 
07446:  MOVLW  01
07448:  MOVLB  4
0744A:  MOVWF  x19
0744C:  MOVF   x19,W
0744E:  SUBLW  04
07450:  BNC   7506
....................                { 
....................                   if(unidad==i) 
07452:  MOVF   x19,W
07454:  SUBWF  xDA,W
07456:  BNZ   74CE
....................                   {Contrasena[i-1]++; 
07458:  MOVLW  01
0745A:  SUBWF  x19,W
0745C:  CLRF   03
0745E:  ADDLW  1B
07460:  MOVWF  FE9
07462:  MOVLW  05
07464:  ADDWFC 03,W
07466:  MOVWF  FEA
07468:  INCF   FEF,F
....................                   if(Contrasena[i-1]>9) 
0746A:  MOVLW  01
0746C:  SUBWF  x19,W
0746E:  CLRF   03
07470:  ADDLW  1B
07472:  MOVWF  FE9
07474:  MOVLW  05
07476:  ADDWFC 03,W
07478:  MOVWF  FEA
0747A:  BTFSC  FEF.7
0747C:  BRA    7496
0747E:  MOVF   FEF,W
07480:  SUBLW  09
07482:  BC    7496
....................                         {Contrasena[i-1]=0;} 
07484:  MOVLW  01
07486:  SUBWF  x19,W
07488:  CLRF   03
0748A:  ADDLW  1B
0748C:  MOVWF  FE9
0748E:  MOVLW  05
07490:  ADDWFC 03,W
07492:  MOVWF  FEA
07494:  CLRF   FEF
....................                   displayContrasena(Contrasena[i-1],i*20,30,1);} 
07496:  MOVLW  01
07498:  SUBWF  x19,W
0749A:  CLRF   03
0749C:  ADDLW  1B
0749E:  MOVWF  FE9
074A0:  MOVLW  05
074A2:  ADDWFC 03,W
074A4:  MOVWF  FEA
074A6:  MOVFF  FEF,647
074AA:  MOVF   x19,W
074AC:  MULLW  14
074AE:  MOVFF  FF3,648
074B2:  MOVLB  6
074B4:  MOVFF  647,649
074B8:  MOVFF  648,64A
074BC:  MOVLW  1E
074BE:  MOVWF  x4B
074C0:  MOVLW  01
074C2:  MOVWF  x4C
074C4:  MOVLB  0
074C6:  CALL   3894
....................                   else 
074CA:  BRA    7500
074CC:  MOVLB  4
....................                   {displayContrasena(Contrasena[i-1],i*20,30,0);} 
074CE:  MOVLW  01
074D0:  SUBWF  x19,W
074D2:  CLRF   03
074D4:  ADDLW  1B
074D6:  MOVWF  FE9
074D8:  MOVLW  05
074DA:  ADDWFC 03,W
074DC:  MOVWF  FEA
074DE:  MOVFF  FEF,647
074E2:  MOVF   x19,W
074E4:  MULLW  14
074E6:  MOVFF  FF3,648
074EA:  MOVLB  6
074EC:  MOVFF  647,649
074F0:  MOVFF  648,64A
074F4:  MOVLW  1E
074F6:  MOVWF  x4B
074F8:  CLRF   x4C
074FA:  MOVLB  0
074FC:  CALL   3894
....................                } 
07500:  MOVLB  4
07502:  INCF   x19,F
07504:  BRA    744C
....................             } 
....................       } 
....................          else 
07506:  BRA    750C
....................             {Flanco = 0;} 
07508:  MOVLB  4
0750A:  BCF    x1A.0
....................              
....................       if(DOWN  || BYTE_IR[2]==0X52)//Si oprime hacia abajo 
0750C:  BSF    F96.2
0750E:  BTFSC  F84.2
07510:  BRA    751C
07512:  MOVLB  6
07514:  MOVF   x2F,W
07516:  SUBLW  52
07518:  BNZ   75F2
0751A:  MOVLB  4
....................       {  if(Flanco2 == 0)  
0751C:  BTFSC  x1A.2
0751E:  BRA    75F0
....................             {Flanco2 = 1;delay_ms(30);BYTE_IR[2]=0X00; 
07520:  BSF    x1A.2
07522:  MOVLW  1E
07524:  MOVLB  6
07526:  MOVWF  x4F
07528:  MOVLB  0
0752A:  CALL   1396
0752E:  MOVLB  6
07530:  CLRF   x2F
....................                for(i=1;i<=4;i++) 
07532:  MOVLW  01
07534:  MOVLB  4
07536:  MOVWF  x19
07538:  MOVF   x19,W
0753A:  SUBLW  04
0753C:  BNC   75F0
....................                { 
....................                   if(unidad==i) 
0753E:  MOVF   x19,W
07540:  SUBWF  xDA,W
07542:  BNZ   75B8
....................                   {Contrasena[i-1]--;  
07544:  MOVLW  01
07546:  SUBWF  x19,W
07548:  CLRF   03
0754A:  ADDLW  1B
0754C:  MOVWF  FE9
0754E:  MOVLW  05
07550:  ADDWFC 03,W
07552:  MOVWF  FEA
07554:  DECF   FEF,F
....................                      if(Contrasena[i-1]<0) 
07556:  MOVLW  01
07558:  SUBWF  x19,W
0755A:  CLRF   03
0755C:  ADDLW  1B
0755E:  MOVWF  FE9
07560:  MOVLW  05
07562:  ADDWFC 03,W
07564:  MOVWF  FEA
07566:  BTFSC  FEF.7
07568:  BRA    756C
0756A:  BRA    7580
....................                         {Contrasena[i-1]=9;} 
0756C:  MOVLW  01
0756E:  SUBWF  x19,W
07570:  CLRF   03
07572:  ADDLW  1B
07574:  MOVWF  FE9
07576:  MOVLW  05
07578:  ADDWFC 03,W
0757A:  MOVWF  FEA
0757C:  MOVLW  09
0757E:  MOVWF  FEF
....................                    displayContrasena(Contrasena[i-1],i*20,30,1);} 
07580:  MOVLW  01
07582:  SUBWF  x19,W
07584:  CLRF   03
07586:  ADDLW  1B
07588:  MOVWF  FE9
0758A:  MOVLW  05
0758C:  ADDWFC 03,W
0758E:  MOVWF  FEA
07590:  MOVFF  FEF,647
07594:  MOVF   x19,W
07596:  MULLW  14
07598:  MOVFF  FF3,648
0759C:  MOVLB  6
0759E:  MOVFF  647,649
075A2:  MOVFF  648,64A
075A6:  MOVLW  1E
075A8:  MOVWF  x4B
075AA:  MOVLW  01
075AC:  MOVWF  x4C
075AE:  MOVLB  0
075B0:  CALL   3894
....................                   else 
075B4:  BRA    75EA
075B6:  MOVLB  4
....................                   {displayContrasena(Contrasena[i-1],i*20,30,0);} 
075B8:  MOVLW  01
075BA:  SUBWF  x19,W
075BC:  CLRF   03
075BE:  ADDLW  1B
075C0:  MOVWF  FE9
075C2:  MOVLW  05
075C4:  ADDWFC 03,W
075C6:  MOVWF  FEA
075C8:  MOVFF  FEF,647
075CC:  MOVF   x19,W
075CE:  MULLW  14
075D0:  MOVFF  FF3,648
075D4:  MOVLB  6
075D6:  MOVFF  647,649
075DA:  MOVFF  648,64A
075DE:  MOVLW  1E
075E0:  MOVWF  x4B
075E2:  CLRF   x4C
075E4:  MOVLB  0
075E6:  CALL   3894
....................                }       
075EA:  MOVLB  4
075EC:  INCF   x19,F
075EE:  BRA    7538
....................             }      
....................       } 
....................          else 
075F0:  BRA    75F6
....................             {Flanco2 = 0;}   
075F2:  MOVLB  4
075F4:  BCF    x1A.2
....................              
....................       if(RIGHT || BYTE_IR[2]==0X5A)//Si oprime SET 
075F6:  BSF    F94.0
075F8:  BTFSC  F82.0
075FA:  BRA    7606
075FC:  MOVLB  6
075FE:  MOVF   x2F,W
07600:  SUBLW  5A
07602:  BNZ   76A4
07604:  MOVLB  4
....................       {  if(Flanco1 == 0)  
07606:  BTFSC  x1A.1
07608:  BRA    76A2
....................             {Flanco1 = 1;delay_ms(30);unidad++;BYTE_IR[2]=0X00; 
0760A:  BSF    x1A.1
0760C:  MOVLW  1E
0760E:  MOVLB  6
07610:  MOVWF  x4F
07612:  MOVLB  0
07614:  CALL   1396
07618:  MOVLB  4
0761A:  INCF   xDA,F
0761C:  MOVLB  6
0761E:  CLRF   x2F
....................                for(i=1;i<=4;i++) 
07620:  MOVLW  01
07622:  MOVLB  4
07624:  MOVWF  x19
07626:  MOVF   x19,W
07628:  SUBLW  04
0762A:  BNC   76A2
....................                { 
....................                   if(unidad==i) 
0762C:  MOVF   x19,W
0762E:  SUBWF  xDA,W
07630:  BNZ   766A
....................                   {displayContrasena(Contrasena[i-1],i*20,30,1);} 
07632:  MOVLW  01
07634:  SUBWF  x19,W
07636:  CLRF   03
07638:  ADDLW  1B
0763A:  MOVWF  FE9
0763C:  MOVLW  05
0763E:  ADDWFC 03,W
07640:  MOVWF  FEA
07642:  MOVFF  FEF,647
07646:  MOVF   x19,W
07648:  MULLW  14
0764A:  MOVFF  FF3,648
0764E:  MOVLB  6
07650:  MOVFF  647,649
07654:  MOVFF  648,64A
07658:  MOVLW  1E
0765A:  MOVWF  x4B
0765C:  MOVLW  01
0765E:  MOVWF  x4C
07660:  MOVLB  0
07662:  CALL   3894
....................                   else 
07666:  BRA    769C
07668:  MOVLB  4
....................                   {displayContrasena(Contrasena[i-1],i*20,30,0);} 
0766A:  MOVLW  01
0766C:  SUBWF  x19,W
0766E:  CLRF   03
07670:  ADDLW  1B
07672:  MOVWF  FE9
07674:  MOVLW  05
07676:  ADDWFC 03,W
07678:  MOVWF  FEA
0767A:  MOVFF  FEF,647
0767E:  MOVF   x19,W
07680:  MULLW  14
07682:  MOVFF  FF3,648
07686:  MOVLB  6
07688:  MOVFF  647,649
0768C:  MOVFF  648,64A
07690:  MOVLW  1E
07692:  MOVWF  x4B
07694:  CLRF   x4C
07696:  MOVLB  0
07698:  CALL   3894
....................                } 
0769C:  MOVLB  4
0769E:  INCF   x19,F
076A0:  BRA    7626
....................             } 
....................       } 
....................          else 
076A2:  BRA    76A8
....................             {Flanco1 = 0;}   
076A4:  MOVLB  4
076A6:  BCF    x1A.1
....................              
....................       if(LEFT || BYTE_IR[2]==0X08)//Si oprime boton de Toma. 
076A8:  BSF    F94.1
076AA:  BTFSC  F82.1
076AC:  BRA    76B8
076AE:  MOVLB  6
076B0:  MOVF   x2F,W
076B2:  SUBLW  08
076B4:  BNZ   76F6
076B6:  MOVLB  4
....................       { 
....................          BYTE_IR[2]=0X00; 
076B8:  MOVLB  6
076BA:  CLRF   x2F
....................          delay_ms(700); 
076BC:  MOVLW  04
076BE:  MOVWF  x47
076C0:  MOVLW  AF
076C2:  MOVWF  x4F
076C4:  MOVLB  0
076C6:  CALL   1396
076CA:  MOVLB  6
076CC:  DECFSZ x47,F
076CE:  BRA    76C0
....................          if(unidad==1) 
076D0:  MOVLB  4
076D2:  DECFSZ xDA,W
076D4:  BRA    76E8
....................          { 
....................             Menu=3;glcd_fillscreen(OFF); 
076D6:  MOVLW  03
076D8:  MOVWF  xD9
076DA:  MOVLB  6
076DC:  CLRF   x48
076DE:  MOVLB  0
076E0:  CALL   31DE
....................          } 
....................          else 
076E4:  BRA    76F6
076E6:  MOVLB  4
....................          { 
....................             Menu=3;glcd_fillscreen(OFF); 
076E8:  MOVLW  03
076EA:  MOVWF  xD9
076EC:  MOVLB  6
076EE:  CLRF   x48
076F0:  MOVLB  0
076F2:  CALL   31DE
....................          } 
....................       } 
....................              
....................       if(unidad>4) 
076F6:  MOVLB  4
076F8:  MOVF   xDA,W
076FA:  SUBLW  04
076FC:  BC    77B2
....................       {Opcion=1;glcd_fillscreen(OFF);unidad=1;n=0; 
076FE:  MOVLW  01
07700:  MOVWF  xDB
07702:  MOVLB  6
07704:  CLRF   x48
07706:  MOVLB  0
07708:  CALL   31DE
0770C:  MOVLW  01
0770E:  MOVLB  4
07710:  MOVWF  xDA
07712:  BCF    x1C.7
....................          if((Contrasena[0]==Password[0])&&(Contrasena[1]==Password[1])&&(Contrasena[2]==Password[2])&&(Contrasena[3]==Password[3])) 
07714:  MOVLB  5
07716:  MOVF   x1F,W
07718:  SUBWF  x1B,W
0771A:  BNZ   776E
0771C:  MOVF   x20,W
0771E:  SUBWF  x1C,W
07720:  BNZ   776E
07722:  MOVF   x21,W
07724:  SUBWF  x1D,W
07726:  BNZ   776E
07728:  MOVF   x22,W
0772A:  SUBWF  x1E,W
0772C:  BNZ   776E
....................          {glcd_imagen(1);glcd_update();Menu=211;delay_ms(1000);glcd_fillScreen(OFF);Password[0]=0;Password[1]=0;Password[2]=0;Password[3]=0;} 
0772E:  MOVLW  01
07730:  MOVLB  6
07732:  MOVWF  x47
07734:  MOVLB  0
07736:  CALL   3B06
0773A:  CALL   1844
0773E:  MOVLW  D3
07740:  MOVLB  4
07742:  MOVWF  xD9
07744:  MOVLW  04
07746:  MOVLB  6
07748:  MOVWF  x47
0774A:  MOVLW  FA
0774C:  MOVWF  x4F
0774E:  MOVLB  0
07750:  CALL   1396
07754:  MOVLB  6
07756:  DECFSZ x47,F
07758:  BRA    774A
0775A:  CLRF   x48
0775C:  MOVLB  0
0775E:  CALL   31DE
07762:  MOVLB  5
07764:  CLRF   x1F
07766:  CLRF   x20
07768:  CLRF   x21
0776A:  CLRF   x22
....................          else 
0776C:  BRA    77B0
....................          {glcd_imagen(2);glcd_update();Menu=3;delay_ms(1000);Contrasena[0]=0;Contrasena[1]=0;Contrasena[2]=0;Contrasena[3]=0;glcd_fillScreen(OFF);}   
0776E:  MOVLW  02
07770:  MOVLB  6
07772:  MOVWF  x47
07774:  MOVLB  0
07776:  CALL   3B06
0777A:  CALL   1844
0777E:  MOVLW  03
07780:  MOVLB  4
07782:  MOVWF  xD9
07784:  MOVLW  04
07786:  MOVLB  6
07788:  MOVWF  x47
0778A:  MOVLW  FA
0778C:  MOVWF  x4F
0778E:  MOVLB  0
07790:  CALL   1396
07794:  MOVLB  6
07796:  DECFSZ x47,F
07798:  BRA    778A
0779A:  MOVLB  5
0779C:  CLRF   x1B
0779E:  CLRF   x1C
077A0:  CLRF   x1D
077A2:  CLRF   x1E
077A4:  MOVLB  6
077A6:  CLRF   x48
077A8:  MOVLB  0
077AA:  CALL   31DE
077AE:  MOVLB  5
077B0:  MOVLB  4
....................       } 
....................      
....................     } 
.................... //_--------------------------------------------------------------------------------------------------------------------------------------------------------        
....................  
.................... //_-------------------------------------------------------------------------------------------------------------------------------------------------------- 
....................       if(Menu==211){ //Menu de Cambio Clave. 
077B2:  MOVF   xD9,W
077B4:  SUBLW  D3
077B6:  BTFSS  FD8.2
077B8:  BRA    7BE6
....................        
....................       if(n==0) 
077BA:  BTFSC  x1C.7
077BC:  BRA    781C
....................       {displayContrasena(Password[0],20,30,1);displayContrasena(Password[1],40,30,0); 
077BE:  MOVFF  51F,649
077C2:  MOVLW  14
077C4:  MOVLB  6
077C6:  MOVWF  x4A
077C8:  MOVLW  1E
077CA:  MOVWF  x4B
077CC:  MOVLW  01
077CE:  MOVWF  x4C
077D0:  MOVLB  0
077D2:  CALL   3894
077D6:  MOVFF  520,649
077DA:  MOVLW  28
077DC:  MOVLB  6
077DE:  MOVWF  x4A
077E0:  MOVLW  1E
077E2:  MOVWF  x4B
077E4:  CLRF   x4C
077E6:  MOVLB  0
077E8:  CALL   3894
....................       displayContrasena(Password[2],60,30,0);displayContrasena(Password[3],80,30,0);n++;} 
077EC:  MOVFF  521,649
077F0:  MOVLW  3C
077F2:  MOVLB  6
077F4:  MOVWF  x4A
077F6:  MOVLW  1E
077F8:  MOVWF  x4B
077FA:  CLRF   x4C
077FC:  MOVLB  0
077FE:  CALL   3894
07802:  MOVFF  522,649
07806:  MOVLW  50
07808:  MOVLB  6
0780A:  MOVWF  x4A
0780C:  MOVLW  1E
0780E:  MOVWF  x4B
07810:  CLRF   x4C
07812:  MOVLB  0
07814:  CALL   3894
07818:  MOVLB  4
0781A:  BTG    x1C.7
....................       strcpy(Menus.Letra,"Clave Nueva"); 
0781C:  MOVLW  06
0781E:  MOVWF  FEA
07820:  MOVLW  31
07822:  MOVWF  FE9
07824:  MOVFF  FF2,647
07828:  BCF    FF2.7
0782A:  MOVLW  00
0782C:  MOVLB  0
0782E:  CALL   10B4
07832:  TBLRD*-
07834:  TBLRD*+
07836:  MOVF   FF5,W
07838:  MOVWF  FEE
0783A:  IORLW  00
0783C:  BNZ   7834
0783E:  MOVLB  6
07840:  BTFSC  x47.7
07842:  BSF    FF2.7
....................       displayMenu(Menus.Letra,0,0,1,2); 
07844:  MOVLW  06
07846:  MOVWF  x48
07848:  MOVLW  31
0784A:  MOVWF  x47
0784C:  CLRF   x49
0784E:  CLRF   x4A
07850:  MOVLW  01
07852:  MOVWF  x4B
07854:  MOVLW  02
07856:  MOVWF  x4C
07858:  MOVLB  0
0785A:  CALL   394A
....................          
....................       if(UP || BYTE_IR[2]==0X18)//Si oprime hacia arriba 
0785E:  BSF    F96.1
07860:  BTFSC  F84.1
07862:  BRA    786C
07864:  MOVLB  6
07866:  MOVF   x2F,W
07868:  SUBLW  18
0786A:  BNZ   7946
....................       {  if(Flanco == 0)  
0786C:  MOVLB  4
0786E:  BTFSC  x1A.0
07870:  BRA    7944
....................             {Flanco = 1;delay_ms(30);BYTE_IR[2]=0X00; 
07872:  BSF    x1A.0
07874:  MOVLW  1E
07876:  MOVLB  6
07878:  MOVWF  x4F
0787A:  MOVLB  0
0787C:  CALL   1396
07880:  MOVLB  6
07882:  CLRF   x2F
....................             for(i=1;i<=4;i++) 
07884:  MOVLW  01
07886:  MOVLB  4
07888:  MOVWF  x19
0788A:  MOVF   x19,W
0788C:  SUBLW  04
0788E:  BNC   7944
....................                { 
....................                   if(unidad==i) 
07890:  MOVF   x19,W
07892:  SUBWF  xDA,W
07894:  BNZ   790C
....................                   {Password[i-1]++; 
07896:  MOVLW  01
07898:  SUBWF  x19,W
0789A:  CLRF   03
0789C:  ADDLW  1F
0789E:  MOVWF  FE9
078A0:  MOVLW  05
078A2:  ADDWFC 03,W
078A4:  MOVWF  FEA
078A6:  INCF   FEF,F
....................                   if(Password[i-1]>9) 
078A8:  MOVLW  01
078AA:  SUBWF  x19,W
078AC:  CLRF   03
078AE:  ADDLW  1F
078B0:  MOVWF  FE9
078B2:  MOVLW  05
078B4:  ADDWFC 03,W
078B6:  MOVWF  FEA
078B8:  BTFSC  FEF.7
078BA:  BRA    78D4
078BC:  MOVF   FEF,W
078BE:  SUBLW  09
078C0:  BC    78D4
....................                         {Password[i-1]=0;} 
078C2:  MOVLW  01
078C4:  SUBWF  x19,W
078C6:  CLRF   03
078C8:  ADDLW  1F
078CA:  MOVWF  FE9
078CC:  MOVLW  05
078CE:  ADDWFC 03,W
078D0:  MOVWF  FEA
078D2:  CLRF   FEF
....................                   displayContrasena(Password[i-1],i*20,30,1);} 
078D4:  MOVLW  01
078D6:  SUBWF  x19,W
078D8:  CLRF   03
078DA:  ADDLW  1F
078DC:  MOVWF  FE9
078DE:  MOVLW  05
078E0:  ADDWFC 03,W
078E2:  MOVWF  FEA
078E4:  MOVFF  FEF,647
078E8:  MOVF   x19,W
078EA:  MULLW  14
078EC:  MOVFF  FF3,648
078F0:  MOVLB  6
078F2:  MOVFF  647,649
078F6:  MOVFF  648,64A
078FA:  MOVLW  1E
078FC:  MOVWF  x4B
078FE:  MOVLW  01
07900:  MOVWF  x4C
07902:  MOVLB  0
07904:  CALL   3894
....................                   else 
07908:  BRA    793E
0790A:  MOVLB  4
....................                   {displayContrasena(Password[i-1],i*20,30,0);} 
0790C:  MOVLW  01
0790E:  SUBWF  x19,W
07910:  CLRF   03
07912:  ADDLW  1F
07914:  MOVWF  FE9
07916:  MOVLW  05
07918:  ADDWFC 03,W
0791A:  MOVWF  FEA
0791C:  MOVFF  FEF,647
07920:  MOVF   x19,W
07922:  MULLW  14
07924:  MOVFF  FF3,648
07928:  MOVLB  6
0792A:  MOVFF  647,649
0792E:  MOVFF  648,64A
07932:  MOVLW  1E
07934:  MOVWF  x4B
07936:  CLRF   x4C
07938:  MOVLB  0
0793A:  CALL   3894
....................                } 
0793E:  MOVLB  4
07940:  INCF   x19,F
07942:  BRA    788A
....................             } 
....................       } 
....................          else 
07944:  BRA    794A
....................             {Flanco = 0;} 
07946:  MOVLB  4
07948:  BCF    x1A.0
....................              
....................       if(DOWN  || BYTE_IR[2]==0X52)//Si oprime hacia abajo 
0794A:  BSF    F96.2
0794C:  BTFSC  F84.2
0794E:  BRA    795A
07950:  MOVLB  6
07952:  MOVF   x2F,W
07954:  SUBLW  52
07956:  BNZ   7A30
07958:  MOVLB  4
....................       {  if(Flanco2 == 0)  
0795A:  BTFSC  x1A.2
0795C:  BRA    7A2E
....................             {Flanco2 = 1;delay_ms(30);BYTE_IR[2]=0X00; 
0795E:  BSF    x1A.2
07960:  MOVLW  1E
07962:  MOVLB  6
07964:  MOVWF  x4F
07966:  MOVLB  0
07968:  CALL   1396
0796C:  MOVLB  6
0796E:  CLRF   x2F
....................                for(i=1;i<=4;i++) 
07970:  MOVLW  01
07972:  MOVLB  4
07974:  MOVWF  x19
07976:  MOVF   x19,W
07978:  SUBLW  04
0797A:  BNC   7A2E
....................                { 
....................                   if(unidad==i) 
0797C:  MOVF   x19,W
0797E:  SUBWF  xDA,W
07980:  BNZ   79F6
....................                   {Password[i-1]--;  
07982:  MOVLW  01
07984:  SUBWF  x19,W
07986:  CLRF   03
07988:  ADDLW  1F
0798A:  MOVWF  FE9
0798C:  MOVLW  05
0798E:  ADDWFC 03,W
07990:  MOVWF  FEA
07992:  DECF   FEF,F
....................                      if(Password[i-1]<0) 
07994:  MOVLW  01
07996:  SUBWF  x19,W
07998:  CLRF   03
0799A:  ADDLW  1F
0799C:  MOVWF  FE9
0799E:  MOVLW  05
079A0:  ADDWFC 03,W
079A2:  MOVWF  FEA
079A4:  BTFSC  FEF.7
079A6:  BRA    79AA
079A8:  BRA    79BE
....................                         {Password[i-1]=9;} 
079AA:  MOVLW  01
079AC:  SUBWF  x19,W
079AE:  CLRF   03
079B0:  ADDLW  1F
079B2:  MOVWF  FE9
079B4:  MOVLW  05
079B6:  ADDWFC 03,W
079B8:  MOVWF  FEA
079BA:  MOVLW  09
079BC:  MOVWF  FEF
....................                    displayContrasena(Password[i-1],i*20,30,1);} 
079BE:  MOVLW  01
079C0:  SUBWF  x19,W
079C2:  CLRF   03
079C4:  ADDLW  1F
079C6:  MOVWF  FE9
079C8:  MOVLW  05
079CA:  ADDWFC 03,W
079CC:  MOVWF  FEA
079CE:  MOVFF  FEF,647
079D2:  MOVF   x19,W
079D4:  MULLW  14
079D6:  MOVFF  FF3,648
079DA:  MOVLB  6
079DC:  MOVFF  647,649
079E0:  MOVFF  648,64A
079E4:  MOVLW  1E
079E6:  MOVWF  x4B
079E8:  MOVLW  01
079EA:  MOVWF  x4C
079EC:  MOVLB  0
079EE:  CALL   3894
....................                   else 
079F2:  BRA    7A28
079F4:  MOVLB  4
....................                   {displayContrasena(Password[i-1],i*20,30,0);} 
079F6:  MOVLW  01
079F8:  SUBWF  x19,W
079FA:  CLRF   03
079FC:  ADDLW  1F
079FE:  MOVWF  FE9
07A00:  MOVLW  05
07A02:  ADDWFC 03,W
07A04:  MOVWF  FEA
07A06:  MOVFF  FEF,647
07A0A:  MOVF   x19,W
07A0C:  MULLW  14
07A0E:  MOVFF  FF3,648
07A12:  MOVLB  6
07A14:  MOVFF  647,649
07A18:  MOVFF  648,64A
07A1C:  MOVLW  1E
07A1E:  MOVWF  x4B
07A20:  CLRF   x4C
07A22:  MOVLB  0
07A24:  CALL   3894
....................                }       
07A28:  MOVLB  4
07A2A:  INCF   x19,F
07A2C:  BRA    7976
....................             }      
....................       } 
....................          else 
07A2E:  BRA    7A34
....................             {Flanco2 = 0;}   
07A30:  MOVLB  4
07A32:  BCF    x1A.2
....................              
....................       if(RIGHT || BYTE_IR[2]==0X5A)//Si oprime SET 
07A34:  BSF    F94.0
07A36:  BTFSC  F82.0
07A38:  BRA    7A44
07A3A:  MOVLB  6
07A3C:  MOVF   x2F,W
07A3E:  SUBLW  5A
07A40:  BNZ   7AE2
07A42:  MOVLB  4
....................       {  if(Flanco1 == 0)  
07A44:  BTFSC  x1A.1
07A46:  BRA    7AE0
....................             {Flanco1 = 1;delay_ms(30);unidad++;BYTE_IR[2]=0X00; 
07A48:  BSF    x1A.1
07A4A:  MOVLW  1E
07A4C:  MOVLB  6
07A4E:  MOVWF  x4F
07A50:  MOVLB  0
07A52:  CALL   1396
07A56:  MOVLB  4
07A58:  INCF   xDA,F
07A5A:  MOVLB  6
07A5C:  CLRF   x2F
....................                for(i=1;i<=4;i++) 
07A5E:  MOVLW  01
07A60:  MOVLB  4
07A62:  MOVWF  x19
07A64:  MOVF   x19,W
07A66:  SUBLW  04
07A68:  BNC   7AE0
....................                { 
....................                   if(unidad==i) 
07A6A:  MOVF   x19,W
07A6C:  SUBWF  xDA,W
07A6E:  BNZ   7AA8
....................                   {displayContrasena(Password[i-1],i*20,30,1);} 
07A70:  MOVLW  01
07A72:  SUBWF  x19,W
07A74:  CLRF   03
07A76:  ADDLW  1F
07A78:  MOVWF  FE9
07A7A:  MOVLW  05
07A7C:  ADDWFC 03,W
07A7E:  MOVWF  FEA
07A80:  MOVFF  FEF,647
07A84:  MOVF   x19,W
07A86:  MULLW  14
07A88:  MOVFF  FF3,648
07A8C:  MOVLB  6
07A8E:  MOVFF  647,649
07A92:  MOVFF  648,64A
07A96:  MOVLW  1E
07A98:  MOVWF  x4B
07A9A:  MOVLW  01
07A9C:  MOVWF  x4C
07A9E:  MOVLB  0
07AA0:  CALL   3894
....................                   else 
07AA4:  BRA    7ADA
07AA6:  MOVLB  4
....................                   {displayContrasena(Password[i-1],i*20,30,0);} 
07AA8:  MOVLW  01
07AAA:  SUBWF  x19,W
07AAC:  CLRF   03
07AAE:  ADDLW  1F
07AB0:  MOVWF  FE9
07AB2:  MOVLW  05
07AB4:  ADDWFC 03,W
07AB6:  MOVWF  FEA
07AB8:  MOVFF  FEF,647
07ABC:  MOVF   x19,W
07ABE:  MULLW  14
07AC0:  MOVFF  FF3,648
07AC4:  MOVLB  6
07AC6:  MOVFF  647,649
07ACA:  MOVFF  648,64A
07ACE:  MOVLW  1E
07AD0:  MOVWF  x4B
07AD2:  CLRF   x4C
07AD4:  MOVLB  0
07AD6:  CALL   3894
....................                } 
07ADA:  MOVLB  4
07ADC:  INCF   x19,F
07ADE:  BRA    7A64
....................             } 
....................       } 
....................          else 
07AE0:  BRA    7AE6
....................             {Flanco1 = 0;}   
07AE2:  MOVLB  4
07AE4:  BCF    x1A.1
....................       if(unidad>4) 
07AE6:  MOVF   xDA,W
07AE8:  SUBLW  04
07AEA:  BTFSC  FD8.0
07AEC:  BRA    7BE6
....................       {Opcion=1;glcd_fillscreen(OFF);unidad=1;n=0; 
07AEE:  MOVLW  01
07AF0:  MOVWF  xDB
07AF2:  MOVLB  6
07AF4:  CLRF   x48
07AF6:  MOVLB  0
07AF8:  CALL   31DE
07AFC:  MOVLW  01
07AFE:  MOVLB  4
07B00:  MOVWF  xDA
07B02:  BCF    x1C.7
....................       write_eeprom(0,Password[0]);write_eeprom(1,Password[1]);write_eeprom(2,Password[2]);write_eeprom(3,Password[3]); 
07B04:  CLRF   FAA
07B06:  CLRF   FA9
07B08:  MOVFF  51F,FA8
07B0C:  BCF    FA6.6
07B0E:  BCF    FA6.7
07B10:  BSF    FA6.2
07B12:  MOVF   FF2,W
07B14:  MOVWF  00
07B16:  BCF    FF2.7
07B18:  MOVLB  F
07B1A:  MOVLW  55
07B1C:  MOVWF  FA7
07B1E:  MOVLW  AA
07B20:  MOVWF  FA7
07B22:  BSF    FA6.1
07B24:  BTFSC  FA6.1
07B26:  BRA    7B24
07B28:  BCF    FA6.2
07B2A:  MOVF   00,W
07B2C:  IORWF  FF2,F
07B2E:  CLRF   FAA
07B30:  MOVLW  01
07B32:  MOVWF  FA9
07B34:  MOVFF  520,FA8
07B38:  BCF    FA6.6
07B3A:  BCF    FA6.7
07B3C:  BSF    FA6.2
07B3E:  MOVF   FF2,W
07B40:  MOVWF  00
07B42:  BCF    FF2.7
07B44:  MOVLW  55
07B46:  MOVWF  FA7
07B48:  MOVLW  AA
07B4A:  MOVWF  FA7
07B4C:  BSF    FA6.1
07B4E:  BTFSC  FA6.1
07B50:  BRA    7B4E
07B52:  BCF    FA6.2
07B54:  MOVF   00,W
07B56:  IORWF  FF2,F
07B58:  CLRF   FAA
07B5A:  MOVLW  02
07B5C:  MOVWF  FA9
07B5E:  MOVFF  521,FA8
07B62:  BCF    FA6.6
07B64:  BCF    FA6.7
07B66:  BSF    FA6.2
07B68:  MOVF   FF2,W
07B6A:  MOVWF  00
07B6C:  BCF    FF2.7
07B6E:  MOVLW  55
07B70:  MOVWF  FA7
07B72:  MOVLW  AA
07B74:  MOVWF  FA7
07B76:  BSF    FA6.1
07B78:  BTFSC  FA6.1
07B7A:  BRA    7B78
07B7C:  BCF    FA6.2
07B7E:  MOVF   00,W
07B80:  IORWF  FF2,F
07B82:  CLRF   FAA
07B84:  MOVLW  03
07B86:  MOVWF  FA9
07B88:  MOVFF  522,FA8
07B8C:  BCF    FA6.6
07B8E:  BCF    FA6.7
07B90:  BSF    FA6.2
07B92:  MOVF   FF2,W
07B94:  MOVWF  00
07B96:  BCF    FF2.7
07B98:  MOVLW  55
07B9A:  MOVWF  FA7
07B9C:  MOVLW  AA
07B9E:  MOVWF  FA7
07BA0:  BSF    FA6.1
07BA2:  BTFSC  FA6.1
07BA4:  BRA    7BA2
07BA6:  BCF    FA6.2
07BA8:  MOVF   00,W
07BAA:  IORWF  FF2,F
....................        glcd_imagen(1);glcd_update();Menu=211;delay_ms(1000);glcd_fillScreen(OFF);Menu=3; 
07BAC:  MOVLW  01
07BAE:  MOVLB  6
07BB0:  MOVWF  x47
07BB2:  MOVLB  0
07BB4:  CALL   3B06
07BB8:  CALL   1844
07BBC:  MOVLW  D3
07BBE:  MOVLB  4
07BC0:  MOVWF  xD9
07BC2:  MOVLW  04
07BC4:  MOVLB  6
07BC6:  MOVWF  x47
07BC8:  MOVLW  FA
07BCA:  MOVWF  x4F
07BCC:  MOVLB  0
07BCE:  CALL   1396
07BD2:  MOVLB  6
07BD4:  DECFSZ x47,F
07BD6:  BRA    7BC8
07BD8:  CLRF   x48
07BDA:  MOVLB  0
07BDC:  CALL   31DE
07BE0:  MOVLW  03
07BE2:  MOVLB  4
07BE4:  MOVWF  xD9
....................       } 
....................      
....................     } 
.................... //_--------------------------------------------------------------------------------------------------------------------------------------------------------        
....................  
.................... //_-------------------------------------------------------------------------------------------------------------------------------------------------------- 
....................       if(Menu==6){ //Menu de Mantenimiento. 
07BE6:  MOVF   xD9,W
07BE8:  SUBLW  06
07BEA:  BTFSS  FD8.2
07BEC:  BRA    7E04
....................        
....................          glcd_text57(0, 29, Vida_Filtro, 1, ON); 
07BEE:  MOVLB  6
07BF0:  CLRF   x5E
07BF2:  MOVLW  1D
07BF4:  MOVWF  x5F
07BF6:  MOVLW  04
07BF8:  MOVWF  x61
07BFA:  MOVLW  B3
07BFC:  MOVWF  x60
07BFE:  MOVLW  01
07C00:  MOVWF  x62
07C02:  MOVWF  x63
07C04:  MOVLB  0
07C06:  CALL   36DC
....................          displayTiempo(Ttrabajo[3],60,28,0,1);displayTiempo(Ttrabajo[2],67,28,0,1);displayTiempo(Ttrabajo[1],74,28,0,1);displayTiempo(Ttrabajo[0],82,28,0,1); 
07C0A:  MOVFF  51A,647
07C0E:  MOVLW  3C
07C10:  MOVLB  6
07C12:  MOVWF  x48
07C14:  MOVLW  1C
07C16:  MOVWF  x49
07C18:  CLRF   x4A
07C1A:  MOVLW  01
07C1C:  MOVWF  x4B
07C1E:  MOVLB  0
07C20:  CALL   3A16
07C24:  MOVFF  519,647
07C28:  MOVLW  43
07C2A:  MOVLB  6
07C2C:  MOVWF  x48
07C2E:  MOVLW  1C
07C30:  MOVWF  x49
07C32:  CLRF   x4A
07C34:  MOVLW  01
07C36:  MOVWF  x4B
07C38:  MOVLB  0
07C3A:  CALL   3A16
07C3E:  MOVFF  518,647
07C42:  MOVLW  4A
07C44:  MOVLB  6
07C46:  MOVWF  x48
07C48:  MOVLW  1C
07C4A:  MOVWF  x49
07C4C:  CLRF   x4A
07C4E:  MOVLW  01
07C50:  MOVWF  x4B
07C52:  MOVLB  0
07C54:  CALL   3A16
07C58:  MOVFF  517,647
07C5C:  MOVLW  52
07C5E:  MOVLB  6
07C60:  MOVWF  x48
07C62:  MOVLW  1C
07C64:  MOVWF  x49
07C66:  CLRF   x4A
07C68:  MOVLW  01
07C6A:  MOVWF  x4B
07C6C:  MOVLB  0
07C6E:  CALL   3A16
....................          glcd_text57(0, 43, Vida_UV, 1, ON); 
07C72:  MOVLB  6
07C74:  CLRF   x5E
07C76:  MOVLW  2B
07C78:  MOVWF  x5F
07C7A:  MOVLW  04
07C7C:  MOVWF  x61
07C7E:  MOVLW  AB
07C80:  MOVWF  x60
07C82:  MOVLW  01
07C84:  MOVWF  x62
07C86:  MOVWF  x63
07C88:  MOVLB  0
07C8A:  CALL   36DC
....................          displayTiempo(Tuv[3],60,42,0,1);displayTiempo(Tuv[2],67,42,0,1);displayTiempo(Tuv[1],74,42,0,1);displayTiempo(Tuv[0],82,42,0,1);                  
07C8E:  MOVFF  50E,647
07C92:  MOVLW  3C
07C94:  MOVLB  6
07C96:  MOVWF  x48
07C98:  MOVLW  2A
07C9A:  MOVWF  x49
07C9C:  CLRF   x4A
07C9E:  MOVLW  01
07CA0:  MOVWF  x4B
07CA2:  MOVLB  0
07CA4:  CALL   3A16
07CA8:  MOVFF  50D,647
07CAC:  MOVLW  43
07CAE:  MOVLB  6
07CB0:  MOVWF  x48
07CB2:  MOVLW  2A
07CB4:  MOVWF  x49
07CB6:  CLRF   x4A
07CB8:  MOVLW  01
07CBA:  MOVWF  x4B
07CBC:  MOVLB  0
07CBE:  CALL   3A16
07CC2:  MOVFF  50C,647
07CC6:  MOVLW  4A
07CC8:  MOVLB  6
07CCA:  MOVWF  x48
07CCC:  MOVLW  2A
07CCE:  MOVWF  x49
07CD0:  CLRF   x4A
07CD2:  MOVLW  01
07CD4:  MOVWF  x4B
07CD6:  MOVLB  0
07CD8:  CALL   3A16
07CDC:  MOVFF  50B,647
07CE0:  MOVLW  52
07CE2:  MOVLB  6
07CE4:  MOVWF  x48
07CE6:  MOVLW  2A
07CE8:  MOVWF  x49
07CEA:  CLRF   x4A
07CEC:  MOVLW  01
07CEE:  MOVWF  x4B
07CF0:  MOVLB  0
07CF2:  CALL   3A16
....................          LuzBlanca_on; 
07CF6:  BSF    F8B.4
07CF8:  BCF    F94.4
....................           
....................              
....................             if(DOWN  || BYTE_IR[2]==0X52) // Reinicia Tiempo de Trabajo 
07CFA:  BSF    F96.2
07CFC:  BTFSC  F84.2
07CFE:  BRA    7D0A
07D00:  MOVLB  6
07D02:  MOVF   x2F,W
07D04:  SUBLW  52
07D06:  BNZ   7DE4
07D08:  MOVLB  0
....................             { 
....................                   BYTE_IR[2]=0X00; 
07D0A:  MOVLB  6
07D0C:  CLRF   x2F
....................                   delay_ms(2000); 
07D0E:  MOVLW  08
07D10:  MOVWF  x47
07D12:  MOVLW  FA
07D14:  MOVWF  x4F
07D16:  MOVLB  0
07D18:  CALL   1396
07D1C:  MOVLB  6
07D1E:  DECFSZ x47,F
07D20:  BRA    7D12
....................                   write_eeprom(16,0);write_eeprom(17,0);write_eeprom(18,0);write_eeprom(19,0); 
07D22:  CLRF   FAA
07D24:  MOVLW  10
07D26:  MOVWF  FA9
07D28:  CLRF   FA8
07D2A:  BCF    FA6.6
07D2C:  BCF    FA6.7
07D2E:  BSF    FA6.2
07D30:  MOVF   FF2,W
07D32:  MOVWF  00
07D34:  BCF    FF2.7
07D36:  MOVLB  F
07D38:  MOVLW  55
07D3A:  MOVWF  FA7
07D3C:  MOVLW  AA
07D3E:  MOVWF  FA7
07D40:  BSF    FA6.1
07D42:  BTFSC  FA6.1
07D44:  BRA    7D42
07D46:  BCF    FA6.2
07D48:  MOVF   00,W
07D4A:  IORWF  FF2,F
07D4C:  CLRF   FAA
07D4E:  MOVLW  11
07D50:  MOVWF  FA9
07D52:  CLRF   FA8
07D54:  BCF    FA6.6
07D56:  BCF    FA6.7
07D58:  BSF    FA6.2
07D5A:  MOVF   FF2,W
07D5C:  MOVWF  00
07D5E:  BCF    FF2.7
07D60:  MOVLW  55
07D62:  MOVWF  FA7
07D64:  MOVLW  AA
07D66:  MOVWF  FA7
07D68:  BSF    FA6.1
07D6A:  BTFSC  FA6.1
07D6C:  BRA    7D6A
07D6E:  BCF    FA6.2
07D70:  MOVF   00,W
07D72:  IORWF  FF2,F
07D74:  CLRF   FAA
07D76:  MOVLW  12
07D78:  MOVWF  FA9
07D7A:  CLRF   FA8
07D7C:  BCF    FA6.6
07D7E:  BCF    FA6.7
07D80:  BSF    FA6.2
07D82:  MOVF   FF2,W
07D84:  MOVWF  00
07D86:  BCF    FF2.7
07D88:  MOVLW  55
07D8A:  MOVWF  FA7
07D8C:  MOVLW  AA
07D8E:  MOVWF  FA7
07D90:  BSF    FA6.1
07D92:  BTFSC  FA6.1
07D94:  BRA    7D92
07D96:  BCF    FA6.2
07D98:  MOVF   00,W
07D9A:  IORWF  FF2,F
07D9C:  CLRF   FAA
07D9E:  MOVLW  13
07DA0:  MOVWF  FA9
07DA2:  CLRF   FA8
07DA4:  BCF    FA6.6
07DA6:  BCF    FA6.7
07DA8:  BSF    FA6.2
07DAA:  MOVF   FF2,W
07DAC:  MOVWF  00
07DAE:  BCF    FF2.7
07DB0:  MOVLW  55
07DB2:  MOVWF  FA7
07DB4:  MOVLW  AA
07DB6:  MOVWF  FA7
07DB8:  BSF    FA6.1
07DBA:  BTFSC  FA6.1
07DBC:  BRA    7DBA
07DBE:  BCF    FA6.2
07DC0:  MOVF   00,W
07DC2:  IORWF  FF2,F
....................                   Ttrabajo[3]=0;Ttrabajo[2]=0;Ttrabajo[1]=0;Ttrabajo[0]=0; 
07DC4:  MOVLB  5
07DC6:  CLRF   x1A
07DC8:  CLRF   x19
07DCA:  CLRF   x18
07DCC:  CLRF   x17
....................                   Menu=3;glcd_fillscreen(OFF);LuzBlanca_off; 
07DCE:  MOVLW  03
07DD0:  MOVLB  4
07DD2:  MOVWF  xD9
07DD4:  MOVLB  6
07DD6:  CLRF   x48
07DD8:  MOVLB  0
07DDA:  CALL   31DE
07DDE:  BCF    F8B.4
07DE0:  BCF    F94.4
07DE2:  MOVLB  6
....................             } 
....................              
....................             if(LEFT) 
07DE4:  BSF    F94.1
07DE6:  BTFSS  F82.1
07DE8:  BRA    7E02
....................             { 
....................                Menu=3;glcd_fillscreen(OFF);LuzBlanca_off;BYTE_IR[2]=0X00; 
07DEA:  MOVLW  03
07DEC:  MOVLB  4
07DEE:  MOVWF  xD9
07DF0:  MOVLB  6
07DF2:  CLRF   x48
07DF4:  MOVLB  0
07DF6:  CALL   31DE
07DFA:  BCF    F8B.4
07DFC:  BCF    F94.4
07DFE:  MOVLB  6
07E00:  CLRF   x2F
07E02:  MOVLB  4
....................             } 
....................     } 
.................... //_--------------------------------------------------------------------------------------------------------------------------------------------------------        
....................  
.................... //_-------------------------------------------------------------------------------------------------------------------------------------------------------- 
....................       if(Menu==200){ //Menu de Inicio. 
07E04:  MOVF   xD9,W
07E06:  SUBLW  C8
07E08:  BTFSS  FD8.2
07E0A:  BRA    7F72
....................           
....................        
....................             BYTE_IR[2]=0X00; 
07E0C:  MOVLB  6
07E0E:  CLRF   x2F
....................             Display_on; 
07E10:  BSF    F8A.1
07E12:  BCF    F93.1
....................             glcd_init(ON);             //Inicializa la glcd 
07E14:  MOVLW  01
07E16:  MOVWF  x47
07E18:  MOVLB  0
07E1A:  CALL   3238
....................             glcd_fillScreen(OFF);      //Limpia la pantalla 
07E1E:  MOVLB  6
07E20:  CLRF   x48
07E22:  MOVLB  0
07E24:  CALL   31DE
....................             glcd_text57(0, 0, JP, 2, ON);glcd_text57(5, 20, Cabina, 1, ON);glcd_text57(10, 40, Clase, 2, ON);              
07E28:  MOVLB  6
07E2A:  CLRF   x5E
07E2C:  CLRF   x5F
07E2E:  MOVLW  04
07E30:  MOVWF  x61
07E32:  MOVLW  1E
07E34:  MOVWF  x60
07E36:  MOVLW  02
07E38:  MOVWF  x62
07E3A:  MOVLW  01
07E3C:  MOVWF  x63
07E3E:  MOVLB  0
07E40:  CALL   36DC
07E44:  MOVLW  05
07E46:  MOVLB  6
07E48:  MOVWF  x5E
07E4A:  MOVLW  14
07E4C:  MOVWF  x5F
07E4E:  MOVLW  04
07E50:  MOVWF  x61
07E52:  MOVLW  2A
07E54:  MOVWF  x60
07E56:  MOVLW  01
07E58:  MOVWF  x62
07E5A:  MOVWF  x63
07E5C:  MOVLB  0
07E5E:  CALL   36DC
07E62:  MOVLW  0A
07E64:  MOVLB  6
07E66:  MOVWF  x5E
07E68:  MOVLW  28
07E6A:  MOVWF  x5F
07E6C:  MOVLW  04
07E6E:  MOVWF  x61
07E70:  MOVLW  45
07E72:  MOVWF  x60
07E74:  MOVLW  02
07E76:  MOVWF  x62
07E78:  MOVLW  01
07E7A:  MOVWF  x63
07E7C:  MOVLB  0
07E7E:  CALL   36DC
....................             glcd_update();    
07E82:  CALL   1844
....................             delay_ms(3000); 
07E86:  MOVLW  0C
07E88:  MOVLB  6
07E8A:  MOVWF  x47
07E8C:  MOVLW  FA
07E8E:  MOVWF  x4F
07E90:  MOVLB  0
07E92:  CALL   1396
07E96:  MOVLB  6
07E98:  DECFSZ x47,F
07E9A:  BRA    7E8C
....................                         
....................             glcd_fillScreen(OFF);      //Limpia la pantalla 
07E9C:  CLRF   x48
07E9E:  MOVLB  0
07EA0:  CALL   31DE
....................             displayContrasena(Contrasena[0],20,30,1);displayContrasena(Contrasena[1],40,30,0); 
07EA4:  MOVFF  51B,649
07EA8:  MOVLW  14
07EAA:  MOVLB  6
07EAC:  MOVWF  x4A
07EAE:  MOVLW  1E
07EB0:  MOVWF  x4B
07EB2:  MOVLW  01
07EB4:  MOVWF  x4C
07EB6:  MOVLB  0
07EB8:  CALL   3894
07EBC:  MOVFF  51C,649
07EC0:  MOVLW  28
07EC2:  MOVLB  6
07EC4:  MOVWF  x4A
07EC6:  MOVLW  1E
07EC8:  MOVWF  x4B
07ECA:  CLRF   x4C
07ECC:  MOVLB  0
07ECE:  CALL   3894
....................             displayContrasena(Contrasena[2],60,30,0);displayContrasena(Contrasena[0],80,30,0); 
07ED2:  MOVFF  51D,649
07ED6:  MOVLW  3C
07ED8:  MOVLB  6
07EDA:  MOVWF  x4A
07EDC:  MOVLW  1E
07EDE:  MOVWF  x4B
07EE0:  CLRF   x4C
07EE2:  MOVLB  0
07EE4:  CALL   3894
07EE8:  MOVFF  51B,649
07EEC:  MOVLW  50
07EEE:  MOVLB  6
07EF0:  MOVWF  x4A
07EF2:  MOVLW  1E
07EF4:  MOVWF  x4B
07EF6:  CLRF   x4C
07EF8:  MOVLB  0
07EFA:  CALL   3894
....................             glcd_rect(0, 0, 127, 25, YES, ON);strcpy(Menus.Letra,"Clave");glcd_text57(25, 1, Menus.Letra, 3, OFF);    
07EFE:  MOVLB  6
07F00:  CLRF   x5E
07F02:  CLRF   x5F
07F04:  MOVLW  7F
07F06:  MOVWF  x60
07F08:  MOVLW  19
07F0A:  MOVWF  x61
07F0C:  MOVLW  01
07F0E:  MOVWF  x62
07F10:  MOVWF  x63
07F12:  MOVLB  0
07F14:  CALL   361A
07F18:  MOVLW  06
07F1A:  MOVWF  FEA
07F1C:  MOVLW  31
07F1E:  MOVWF  FE9
07F20:  MOVFF  FF2,647
07F24:  BCF    FF2.7
07F26:  MOVLW  00
07F28:  CALL   0F16
07F2C:  TBLRD*-
07F2E:  TBLRD*+
07F30:  MOVF   FF5,W
07F32:  MOVWF  FEE
07F34:  IORLW  00
07F36:  BNZ   7F2E
07F38:  MOVLB  6
07F3A:  BTFSC  x47.7
07F3C:  BSF    FF2.7
07F3E:  MOVLW  19
07F40:  MOVWF  x5E
07F42:  MOVLW  01
07F44:  MOVWF  x5F
07F46:  MOVLW  06
07F48:  MOVWF  x61
07F4A:  MOVLW  31
07F4C:  MOVWF  x60
07F4E:  MOVLW  03
07F50:  MOVWF  x62
07F52:  CLRF   x63
07F54:  MOVLB  0
07F56:  CALL   36DC
....................             Menu=0; 
07F5A:  MOVLB  4
07F5C:  CLRF   xD9
....................             Motor_off;LuzBlanca_off;LuzUV_off;Toma_off;Alarma_off; 
07F5E:  BCF    F8B.6
07F60:  BCF    F94.6
07F62:  BCF    F8B.4
07F64:  BCF    F94.4
07F66:  BCF    F8B.5
07F68:  BCF    F94.5
07F6A:  BCF    F8B.7
07F6C:  BCF    F94.7
07F6E:  BCF    F8B.2
07F70:  BCF    F94.2
....................     } 
.................... //_--------------------------------------------------------------------------------------------------------------------------------------------------------        
....................  
....................    if(tiemporeset>=60) 
07F72:  MOVF   xE0,W
07F74:  SUBLW  3B
07F76:  BC    7F88
....................    { 
....................       glcd_init(ON); 
07F78:  MOVLW  01
07F7A:  MOVLB  6
07F7C:  MOVWF  x47
07F7E:  MOVLB  0
07F80:  CALL   3238
....................       tiemporeset=0; 
07F84:  MOVLB  4
07F86:  CLRF   xE0
....................    }  
.................... } 
07F88:  GOTO   4D64
....................  
.................... } 
.................... int8 BIT_BYTE(int1 D0, int1 D1, int1 D2, int1 D3, int1 D4, int1 D5, int1 D6, int1 D7){ 
....................    int8 dato; 
07F8C:  SLEEP 
....................    dato= D7*128 + D6*64 + D5*32 + D4*16 + D3*8 + D2*4 + D1*2 +D0*1; // 0 al 255  
*
017CA:  MOVLB  6
017CC:  MOVF   x56,W
017CE:  MULLW  80
017D0:  MOVFF  FF3,658
017D4:  MOVF   x55,W
017D6:  MULLW  40
017D8:  MOVF   FF3,W
017DA:  ADDWF  x58,F
017DC:  MOVF   x54,W
017DE:  MULLW  20
017E0:  MOVF   FF3,W
017E2:  ADDWF  x58,F
017E4:  MOVF   x53,W
017E6:  MULLW  10
017E8:  MOVF   FF3,W
017EA:  ADDWF  x58,F
017EC:  MOVF   x52,W
017EE:  MULLW  08
017F0:  MOVF   FF3,W
017F2:  ADDWF  x58,F
017F4:  MOVF   x51,W
017F6:  MULLW  04
017F8:  MOVF   FF3,W
017FA:  ADDWF  x58,F
017FC:  BCF    FD8.0
017FE:  RLCF   x50,W
01800:  ADDWF  x58,W
01802:  ADDWF  x4F,W
01804:  MOVWF  x57
....................    return dato;  
01806:  MOVFF  657,01
.................... } 
0180A:  MOVLB  0
0180C:  RETLW  00
....................  

Configuration Fuses:
   Word  1: 0200   HS NOIESO NOFCMEN
   Word  2: 1E1F   BROWNOUT NOWDT BORV20 NOPUT WDT32768
   Word  3: 8000   NOPBADEN NOLPT1OSC MCLR
   Word  4: 00B0   NOSTVREN NODEBUG NOLVP NOXINST BBSIZ4K
   Word  5: C03F   NOPROTECT NOCPD NOCPB
   Word  6: E03F   NOWRT NOWRTD NOWRTC NOWRTB
   Word  7: 403F   NOEBTR NOEBTRB
