CCS PCH C Compiler, Version 4.104, 5967               02-dic.-20 07:38

               Filename: D:\Laboratorio\Cabina Extractora de Gases y  Humos\2020\Cabina Extractora Con Ductos GLCD Avantika #004588428 OP2020342\Firmware - V1.1.0\Maestro_v2.lst

               ROM used: 40254 bytes (61%)
                         Largest free fragment is 25278
               RAM used: 1505 (38%) at main() level
                         1575 (40%) worst case
               Stack:    8 worst case (6 in main + 2 for interrupts)

*
00000:  GOTO   5A00
*
00008:  MOVWF  04
0000A:  MOVFF  FD8,05
0000E:  MOVFF  FE0,06
00012:  MOVLB  0
00014:  MOVFF  FE9,0C
00018:  MOVFF  FEA,07
0001C:  MOVFF  FE1,08
00020:  MOVFF  FE2,09
00024:  MOVFF  FD9,0A
00028:  MOVFF  FDA,0B
0002C:  MOVFF  FF3,12
00030:  MOVFF  FF4,13
00034:  MOVFF  FFA,14
00038:  MOVFF  00,0E
0003C:  MOVFF  01,0F
00040:  MOVFF  02,10
00044:  MOVFF  03,11
00048:  BTFSS  FF2.4
0004A:  GOTO   0054
0004E:  BTFSC  FF2.1
00050:  GOTO   1396
00054:  MOVFF  0E,00
00058:  MOVFF  0F,01
0005C:  MOVFF  10,02
00060:  MOVFF  11,03
00064:  MOVFF  0C,FE9
00068:  MOVFF  07,FEA
0006C:  BSF    07.7
0006E:  MOVFF  08,FE1
00072:  MOVFF  09,FE2
00076:  MOVFF  0A,FD9
0007A:  MOVFF  0B,FDA
0007E:  MOVFF  12,FF3
00082:  MOVFF  13,FF4
00086:  MOVFF  14,FFA
0008A:  MOVF   04,W
0008C:  MOVFF  06,FE0
00090:  MOVFF  05,FD8
00094:  RETFIE 0
.................... //Programa para Cabina de Bioseguridad 
....................  
.................... #include <18F4620.h> 
.................... //////// Standard Header file for the PIC18F4620 device //////////////// 
.................... #device PIC18F4620 
.................... #list 
....................  
.................... #device adc=10 
.................... #fuses HS,NOWDT,NOPROTECT,NOLVP,NODEBUG,NOSTVREN,NOPUT,NOCPD,NOWRT,NOIESO,NOFCMEN,NOPBADEN,NOWRTC,NOWRTB,NOEBTR,NOEBTRB,NOCPB,NOXINST,NOLPT1OSC,NOMCLR 
.................... #use delay(clock=20000000) 
*
01376:  MOVLW  03
01378:  MOVLB  6
0137A:  SUBWF  x26,F
0137C:  BNC   1392
0137E:  MOVLW  06
01380:  MOVWF  FEA
01382:  MOVLW  26
01384:  MOVWF  FE9
01386:  MOVF   FEF,W
01388:  BZ    1392
0138A:  BRA    138E
0138C:  BRA    138E
0138E:  DECFSZ FEF,F
01390:  BRA    138C
01392:  MOVLB  0
01394:  RETLW  00
*
014E0:  MOVLW  05
014E2:  MOVWF  FEA
014E4:  MOVLW  F1
014E6:  MOVWF  FE9
014E8:  MOVF   FEF,W
014EA:  BZ    1506
014EC:  MOVLW  06
014EE:  MOVWF  01
014F0:  CLRF   00
014F2:  DECFSZ 00,F
014F4:  BRA    14F2
014F6:  DECFSZ 01,F
014F8:  BRA    14F0
014FA:  MOVLW  7B
014FC:  MOVWF  00
014FE:  DECFSZ 00,F
01500:  BRA    14FE
01502:  DECFSZ FEF,F
01504:  BRA    14EC
01506:  RETLW  00
.................... #include <MATH.h> 
.................... //////////////////////////////////////////////////////////////////////////// 
.................... ////        (C) Copyright 1996,2008 Custom Computer Services            //// 
.................... //// This source code may only be used by licensed users of the CCS C   //// 
.................... //// compiler.  This source code may only be distributed to other       //// 
.................... //// licensed users of the CCS C compiler.  No other use, reproduction  //// 
.................... //// or distribution is permitted without written permission.           //// 
.................... //// Derivative programs created using this software in object code     //// 
.................... //// form are not restricted in any way.                                //// 
.................... //////////////////////////////////////////////////////////////////////////// 
.................... ////                                                                    //// 
.................... //// History:                                                           //// 
.................... ////  * 9/20/2001 :  Improvments are made to sin/cos code.              //// 
.................... ////                 The code now is small, much faster,                //// 
.................... ////                 and more accurate.                                 //// 
.................... ////  * 2/21/2007 :  Compiler handles & operator differently and does 
.................... ////                 not return generic (int8 *) so type cast is done   //// 
.................... ////                                                                    //// 
.................... //////////////////////////////////////////////////////////////////////////// 
....................  
.................... #ifndef MATH_H 
.................... #define MATH_H 
....................  
.................... #ifdef PI 
.................... #undef  PI 
.................... #endif 
.................... #define PI     3.1415926535897932 
....................  
....................  
.................... #define SQRT2  1.4142135623730950 
....................  
.................... //float const ps[4] = {5.9304945, 21.125224, 8.9403076, 0.29730279}; 
.................... //float const qs[4] = {1.0000000, 15.035723, 17.764134, 2.4934718}; 
....................  
.................... ///////////////////////////// Round Functions ////////////////////////////// 
....................  
.................... float32 CEIL_FLOOR(float32 x, unsigned int8 n) 
.................... { 
....................    float32 y, res; 
....................    unsigned int16 l; 
....................    int1 s; 
....................  
....................    s = 0; 
*
02E66:  MOVLB  6
02E68:  BCF    x0D.0
....................    y = x; 
02E6A:  MOVFF  601,606
02E6E:  MOVFF  600,605
02E72:  MOVFF  5FF,604
02E76:  MOVFF  5FE,603
....................  
....................    if (x < 0) 
02E7A:  MOVFF  601,613
02E7E:  MOVFF  600,612
02E82:  MOVFF  5FF,611
02E86:  MOVFF  5FE,610
02E8A:  CLRF   x17
02E8C:  CLRF   x16
02E8E:  CLRF   x15
02E90:  CLRF   x14
02E92:  MOVLB  0
02E94:  CALL   22EC
02E98:  BNC   2EA4
....................    { 
....................       s = 1; 
02E9A:  MOVLB  6
02E9C:  BSF    x0D.0
....................       y = -y; 
02E9E:  MOVF   x04,W
02EA0:  XORLW  80
02EA2:  MOVWF  x04
....................    } 
....................  
....................    if (y <= 32768.0) 
02EA4:  MOVFF  606,613
02EA8:  MOVFF  605,612
02EAC:  MOVFF  604,611
02EB0:  MOVFF  603,610
02EB4:  MOVLB  6
02EB6:  CLRF   x17
02EB8:  CLRF   x16
02EBA:  CLRF   x15
02EBC:  MOVLW  8E
02EBE:  MOVWF  x14
02EC0:  MOVLB  0
02EC2:  CALL   22EC
02EC6:  BC    2ECA
02EC8:  BNZ   2EFA
....................   res = (float32)(unsigned int16)y; 
02ECA:  MOVFF  606,613
02ECE:  MOVFF  605,612
02ED2:  MOVFF  604,611
02ED6:  MOVFF  603,610
02EDA:  RCALL  2D34
02EDC:  MOVFF  02,615
02EE0:  MOVFF  01,614
02EE4:  CALL   177A
02EE8:  MOVFF  03,60A
02EEC:  MOVFF  02,609
02EF0:  MOVFF  01,608
02EF4:  MOVFF  00,607
....................  
....................  else if (y < 10000000.0) 
02EF8:  BRA    3098
02EFA:  MOVFF  606,613
02EFE:  MOVFF  605,612
02F02:  MOVFF  604,611
02F06:  MOVFF  603,610
02F0A:  MOVLW  80
02F0C:  MOVLB  6
02F0E:  MOVWF  x17
02F10:  MOVLW  96
02F12:  MOVWF  x16
02F14:  MOVLW  18
02F16:  MOVWF  x15
02F18:  MOVLW  96
02F1A:  MOVWF  x14
02F1C:  MOVLB  0
02F1E:  CALL   22EC
02F22:  BTFSS  FD8.0
02F24:  BRA    3088
....................    { 
....................   l = (unsigned int16)(y/32768.0); 
02F26:  MOVFF  606,613
02F2A:  MOVFF  605,612
02F2E:  MOVFF  604,611
02F32:  MOVFF  603,610
02F36:  MOVLB  6
02F38:  CLRF   x17
02F3A:  CLRF   x16
02F3C:  CLRF   x15
02F3E:  MOVLW  8E
02F40:  MOVWF  x14
02F42:  MOVLB  0
02F44:  CALL   17B0
02F48:  MOVFF  03,613
02F4C:  MOVFF  02,612
02F50:  MOVFF  01,611
02F54:  MOVFF  00,610
02F58:  RCALL  2D34
02F5A:  MOVFF  02,60C
02F5E:  MOVFF  01,60B
....................       y = 32768.0*(y/32768.0 - (float32)l); 
02F62:  MOVFF  606,613
02F66:  MOVFF  605,612
02F6A:  MOVFF  604,611
02F6E:  MOVFF  603,610
02F72:  MOVLB  6
02F74:  CLRF   x17
02F76:  CLRF   x16
02F78:  CLRF   x15
02F7A:  MOVLW  8E
02F7C:  MOVWF  x14
02F7E:  MOVLB  0
02F80:  CALL   17B0
02F84:  MOVFF  00,60E
02F88:  MOVFF  01,60F
02F8C:  MOVFF  02,610
02F90:  MOVFF  03,611
02F94:  MOVFF  60C,615
02F98:  MOVFF  60B,614
02F9C:  CALL   177A
02FA0:  BSF    FD8.1
02FA2:  MOVFF  611,617
02FA6:  MOVFF  610,616
02FAA:  MOVFF  60F,615
02FAE:  MOVFF  60E,614
02FB2:  MOVFF  03,61B
02FB6:  MOVFF  02,61A
02FBA:  MOVFF  01,619
02FBE:  MOVFF  00,618
02FC2:  CALL   190E
02FC6:  MOVLB  6
02FC8:  CLRF   x13
02FCA:  CLRF   x12
02FCC:  CLRF   x11
02FCE:  MOVLW  8E
02FD0:  MOVWF  x10
02FD2:  MOVFF  03,617
02FD6:  MOVFF  02,616
02FDA:  MOVFF  01,615
02FDE:  MOVFF  00,614
02FE2:  MOVLB  0
02FE4:  RCALL  2D70
02FE6:  MOVFF  03,606
02FEA:  MOVFF  02,605
02FEE:  MOVFF  01,604
02FF2:  MOVFF  00,603
....................   res = 32768.0*(float32)l; 
02FF6:  MOVFF  60C,615
02FFA:  MOVFF  60B,614
02FFE:  CALL   177A
03002:  MOVLB  6
03004:  CLRF   x13
03006:  CLRF   x12
03008:  CLRF   x11
0300A:  MOVLW  8E
0300C:  MOVWF  x10
0300E:  MOVFF  03,617
03012:  MOVFF  02,616
03016:  MOVFF  01,615
0301A:  MOVFF  00,614
0301E:  MOVLB  0
03020:  RCALL  2D70
03022:  MOVFF  03,60A
03026:  MOVFF  02,609
0302A:  MOVFF  01,608
0302E:  MOVFF  00,607
....................   res += (float32)(unsigned int16)y; 
03032:  MOVFF  606,613
03036:  MOVFF  605,612
0303A:  MOVFF  604,611
0303E:  MOVFF  603,610
03042:  RCALL  2D34
03044:  MOVFF  02,615
03048:  MOVFF  01,614
0304C:  CALL   177A
03050:  BCF    FD8.1
03052:  MOVFF  60A,617
03056:  MOVFF  609,616
0305A:  MOVFF  608,615
0305E:  MOVFF  607,614
03062:  MOVFF  03,61B
03066:  MOVFF  02,61A
0306A:  MOVFF  01,619
0306E:  MOVFF  00,618
03072:  CALL   190E
03076:  MOVFF  03,60A
0307A:  MOVFF  02,609
0307E:  MOVFF  01,608
03082:  MOVFF  00,607
....................  } 
....................  
....................  else 
03086:  BRA    3098
....................   res = y; 
03088:  MOVFF  606,60A
0308C:  MOVFF  605,609
03090:  MOVFF  604,608
03094:  MOVFF  603,607
....................  
....................  y = y - (float32)(unsigned int16)y; 
03098:  MOVFF  606,613
0309C:  MOVFF  605,612
030A0:  MOVFF  604,611
030A4:  MOVFF  603,610
030A8:  RCALL  2D34
030AA:  MOVFF  02,615
030AE:  MOVFF  01,614
030B2:  CALL   177A
030B6:  BSF    FD8.1
030B8:  MOVFF  606,617
030BC:  MOVFF  605,616
030C0:  MOVFF  604,615
030C4:  MOVFF  603,614
030C8:  MOVFF  03,61B
030CC:  MOVFF  02,61A
030D0:  MOVFF  01,619
030D4:  MOVFF  00,618
030D8:  CALL   190E
030DC:  MOVFF  03,606
030E0:  MOVFF  02,605
030E4:  MOVFF  01,604
030E8:  MOVFF  00,603
....................  
....................  if (s) 
030EC:  MOVLB  6
030EE:  BTFSS  x0D.0
030F0:  BRA    30F8
....................   res = -res; 
030F2:  MOVF   x08,W
030F4:  XORLW  80
030F6:  MOVWF  x08
....................  
....................  if (y != 0) 
030F8:  MOVFF  606,613
030FC:  MOVFF  605,612
03100:  MOVFF  604,611
03104:  MOVFF  603,610
03108:  CLRF   x17
0310A:  CLRF   x16
0310C:  CLRF   x15
0310E:  CLRF   x14
03110:  MOVLB  0
03112:  CALL   22EC
03116:  BZ    3190
....................  { 
....................   if (s == 1 && n == 0) 
03118:  MOVLB  6
0311A:  BTFSS  x0D.0
0311C:  BRA    3156
0311E:  MOVF   x02,F
03120:  BNZ   3156
....................    res -= 1.0; 
03122:  BSF    FD8.1
03124:  MOVFF  60A,617
03128:  MOVFF  609,616
0312C:  MOVFF  608,615
03130:  MOVFF  607,614
03134:  CLRF   x1B
03136:  CLRF   x1A
03138:  CLRF   x19
0313A:  MOVLW  7F
0313C:  MOVWF  x18
0313E:  MOVLB  0
03140:  CALL   190E
03144:  MOVFF  03,60A
03148:  MOVFF  02,609
0314C:  MOVFF  01,608
03150:  MOVFF  00,607
03154:  MOVLB  6
....................  
....................   if (s == 0 && n == 1) 
03156:  BTFSC  x0D.0
03158:  BRA    3192
0315A:  DECFSZ x02,W
0315C:  BRA    3192
....................    res += 1.0; 
0315E:  BCF    FD8.1
03160:  MOVFF  60A,617
03164:  MOVFF  609,616
03168:  MOVFF  608,615
0316C:  MOVFF  607,614
03170:  CLRF   x1B
03172:  CLRF   x1A
03174:  CLRF   x19
03176:  MOVLW  7F
03178:  MOVWF  x18
0317A:  MOVLB  0
0317C:  CALL   190E
03180:  MOVFF  03,60A
03184:  MOVFF  02,609
03188:  MOVFF  01,608
0318C:  MOVFF  00,607
03190:  MOVLB  6
....................  } 
....................  if (x == 0) 
03192:  MOVFF  601,613
03196:  MOVFF  600,612
0319A:  MOVFF  5FF,611
0319E:  MOVFF  5FE,610
031A2:  CLRF   x17
031A4:  CLRF   x16
031A6:  CLRF   x15
031A8:  CLRF   x14
031AA:  MOVLB  0
031AC:  CALL   22EC
031B0:  BNZ   31BE
....................     res = 0; 
031B2:  MOVLB  6
031B4:  CLRF   x0A
031B6:  CLRF   x09
031B8:  CLRF   x08
031BA:  CLRF   x07
031BC:  MOVLB  0
....................  
....................  return (res); 
031BE:  MOVFF  607,00
031C2:  MOVFF  608,01
031C6:  MOVFF  609,02
031CA:  MOVFF  60A,03
.................... } 
031CE:  RETLW  00
....................  
.................... // Overloaded Functions to take care for new Data types in PCD 
.................... // Overloaded function CEIL_FLOOR() for data type - Float48 
.................... #if defined(__PCD__) 
.................... float48 CEIL_FLOOR(float48 x, unsigned int8 n) 
.................... { 
....................    float48 y, res; 
....................    unsigned int16 l; 
....................    int1 s; 
....................  
....................    s = 0; 
....................    y = x; 
....................  
....................    if (x < 0) 
....................    { 
....................       s = 1; 
....................       y = -y; 
....................    } 
....................  
....................    if (y <= 32768.0) 
....................   res = (float48)(unsigned int16)y; 
....................  
....................  else if (y < 10000000.0) 
....................    { 
....................   l = (unsigned int16)(y/32768.0); 
....................       y = 32768.0*(y/32768.0 - (float48)l); 
....................   res = 32768.0*(float32)l; 
....................   res += (float48)(unsigned int16)y; 
....................  } 
....................  
....................  else 
....................   res = y; 
....................  
....................  y = y - (float48)(unsigned int16)y; 
....................  
....................  if (s) 
....................   res = -res; 
....................  
....................  if (y != 0) 
....................  { 
....................   if (s == 1 && n == 0) 
....................    res -= 1.0; 
....................  
....................   if (s == 0 && n == 1) 
....................    res += 1.0; 
....................  } 
....................  if (x == 0) 
....................     res = 0; 
....................  
....................  return (res); 
.................... } 
....................  
....................  
.................... // Overloaded function CEIL_FLOOR() for data type - Float64 
.................... float64 CEIL_FLOOR(float64 x, unsigned int8 n) 
.................... { 
....................    float64 y, res; 
....................    unsigned int16 l; 
....................    int1 s; 
....................  
....................    s = 0; 
....................    y = x; 
....................  
....................    if (x < 0) 
....................    { 
....................       s = 1; 
....................       y = -y; 
....................    } 
....................  
....................    if (y <= 32768.0) 
....................   res = (float64)(unsigned int16)y; 
....................  
....................  else if (y < 10000000.0) 
....................    { 
....................   l = (unsigned int16)(y/32768.0); 
....................       y = 32768.0*(y/32768.0 - (float64)l); 
....................   res = 32768.0*(float64)l; 
....................   res += (float64)(unsigned int16)y; 
....................  } 
....................  
....................  else 
....................   res = y; 
....................  
....................  y = y - (float64)(unsigned int16)y; 
....................  
....................  if (s) 
....................   res = -res; 
....................  
....................  if (y != 0) 
....................  { 
....................   if (s == 1 && n == 0) 
....................    res -= 1.0; 
....................  
....................   if (s == 0 && n == 1) 
....................    res += 1.0; 
....................  } 
....................  if (x == 0) 
....................     res = 0; 
....................  
....................  return (res); 
.................... } 
.................... #endif 
....................  
.................... //////////////////////////////////////////////////////////////////////////// 
.................... //   float floor(float x) 
.................... //////////////////////////////////////////////////////////////////////////// 
.................... // Description : rounds down the number x. 
.................... // Date : N/A 
.................... // 
.................... float32 floor(float32 x) 
.................... { 
....................    return CEIL_FLOOR(x, 0); 
*
031EE:  MOVFF  5FD,601
031F2:  MOVFF  5FC,600
031F6:  MOVFF  5FB,5FF
031FA:  MOVFF  5FA,5FE
031FE:  MOVLB  6
03200:  CLRF   x02
03202:  MOVLB  0
03204:  RCALL  2E66
.................... } 
03206:  GOTO   3312 (RETURN)
.................... // Following 2 functions are overloaded functions of floor() for PCD 
.................... // Overloaded function floor() for data type - Float48 
.................... #if defined(__PCD__) 
.................... float48 floor(float48 x) 
.................... { 
....................    return CEIL_FLOOR(x, 0); 
.................... } 
....................  
.................... // Overloaded function floor() for data type - Float64 
.................... float64 floor(float64 x) 
.................... { 
....................    return CEIL_FLOOR(x, 0); 
.................... } 
.................... #endif 
....................  
....................  
.................... //////////////////////////////////////////////////////////////////////////// 
.................... //   float ceil(float x) 
.................... //////////////////////////////////////////////////////////////////////////// 
.................... // Description : rounds up the number x. 
.................... // Date : N/A 
.................... // 
.................... float32 ceil(float32 x) 
.................... { 
....................    return CEIL_FLOOR(x, 1); 
*
031D0:  MOVFF  5FD,601
031D4:  MOVFF  5FC,600
031D8:  MOVFF  5FB,5FF
031DC:  MOVFF  5FA,5FE
031E0:  MOVLW  01
031E2:  MOVLB  6
031E4:  MOVWF  x02
031E6:  MOVLB  0
031E8:  RCALL  2E66
.................... } 
031EA:  GOTO   32CA (RETURN)
.................... // Following 2 functions are overloaded functions of ceil() for PCD 
.................... // Overloaded function ceil() for data type - Float48 
.................... #if defined(__PCD__) 
.................... float48 ceil(float48 x) 
.................... { 
....................    return CEIL_FLOOR(x, 1); 
.................... } 
....................  
.................... // Overloaded function ceil() for data type - Float64 
.................... float64 ceil(float64 x) 
.................... { 
....................    return CEIL_FLOOR(x, 1); 
.................... } 
.................... #endif 
....................  
....................  //////////////////////////////////////////////////////////////////////////// 
.................... //   float fabs(float x) 
.................... //////////////////////////////////////////////////////////////////////////// 
.................... // Description : Computes the absolute value of floating point number x 
.................... // Returns : returns the absolute value of x 
.................... // Date : N/A 
.................... // 
.................... #define fabs abs 
....................  
.................... //////////////////////////////////////////////////////////////////////////// 
.................... //   float fmod(float x) 
.................... //////////////////////////////////////////////////////////////////////////// 
.................... // Description : Computes the floating point remainder of x/y 
.................... // Returns : returns the value of x= i*y, for some integer i such that, if y 
.................... // is non zero, the result has the same isgn of x na dmagnitude less than the 
.................... // magnitude of y. If y is zero then a domain error occurs. 
.................... // Date : N/A 
.................... // 
....................  
.................... float fmod(float32 x,float32 y) 
.................... { 
....................    float32 i; 
....................    if (y!=0.0) 
*
0320A:  MOVFF  5F1,613
0320E:  MOVFF  5F0,612
03212:  MOVFF  5EF,611
03216:  MOVFF  5EE,610
0321A:  MOVLB  6
0321C:  CLRF   x17
0321E:  CLRF   x16
03220:  CLRF   x15
03222:  CLRF   x14
03224:  MOVLB  0
03226:  CALL   22EC
0322A:  BTFSC  FD8.2
0322C:  BRA    336E
....................    { 
....................       i=(x/y < 0.0)? ceil(x/y): floor(x/y); 
0322E:  MOVFF  5ED,613
03232:  MOVFF  5EC,612
03236:  MOVFF  5EB,611
0323A:  MOVFF  5EA,610
0323E:  MOVFF  5F1,617
03242:  MOVFF  5F0,616
03246:  MOVFF  5EF,615
0324A:  MOVFF  5EE,614
0324E:  CALL   17B0
03252:  MOVFF  00,5F6
03256:  MOVFF  01,5F7
0325A:  MOVFF  02,5F8
0325E:  MOVFF  03,5F9
03262:  MOVFF  03,613
03266:  MOVFF  02,612
0326A:  MOVFF  01,611
0326E:  MOVFF  00,610
03272:  MOVLB  6
03274:  CLRF   x17
03276:  CLRF   x16
03278:  CLRF   x15
0327A:  CLRF   x14
0327C:  MOVLB  0
0327E:  CALL   22EC
03282:  BNC   32CC
03284:  MOVFF  5ED,613
03288:  MOVFF  5EC,612
0328C:  MOVFF  5EB,611
03290:  MOVFF  5EA,610
03294:  MOVFF  5F1,617
03298:  MOVFF  5F0,616
0329C:  MOVFF  5EF,615
032A0:  MOVFF  5EE,614
032A4:  CALL   17B0
032A8:  MOVFF  00,5F6
032AC:  MOVFF  01,5F7
032B0:  MOVFF  02,5F8
032B4:  MOVFF  03,5F9
032B8:  MOVFF  03,5FD
032BC:  MOVFF  02,5FC
032C0:  MOVFF  01,5FB
032C4:  MOVFF  00,5FA
032C8:  BRA    31D0
032CA:  BRA    3312
032CC:  MOVFF  5ED,613
032D0:  MOVFF  5EC,612
032D4:  MOVFF  5EB,611
032D8:  MOVFF  5EA,610
032DC:  MOVFF  5F1,617
032E0:  MOVFF  5F0,616
032E4:  MOVFF  5EF,615
032E8:  MOVFF  5EE,614
032EC:  CALL   17B0
032F0:  MOVFF  00,5F6
032F4:  MOVFF  01,5F7
032F8:  MOVFF  02,5F8
032FC:  MOVFF  03,5F9
03300:  MOVFF  03,5FD
03304:  MOVFF  02,5FC
03308:  MOVFF  01,5FB
0330C:  MOVFF  00,5FA
03310:  BRA    31EE
03312:  MOVFF  03,5F5
03316:  MOVFF  02,5F4
0331A:  MOVFF  01,5F3
0331E:  MOVFF  00,5F2
....................       return(x-(i*y)); 
03322:  MOVFF  5F5,613
03326:  MOVFF  5F4,612
0332A:  MOVFF  5F3,611
0332E:  MOVFF  5F2,610
03332:  MOVFF  5F1,617
03336:  MOVFF  5F0,616
0333A:  MOVFF  5EF,615
0333E:  MOVFF  5EE,614
03342:  RCALL  2D70
03344:  BSF    FD8.1
03346:  MOVFF  5ED,617
0334A:  MOVFF  5EC,616
0334E:  MOVFF  5EB,615
03352:  MOVFF  5EA,614
03356:  MOVFF  03,61B
0335A:  MOVFF  02,61A
0335E:  MOVFF  01,619
03362:  MOVFF  00,618
03366:  CALL   190E
0336A:  BRA    336E
....................    } 
....................    else 
0336C:  BRA    336E
....................    { 
....................    #ifdef _ERRNO 
....................    { 
....................       errno=EDOM; 
....................    } 
....................    #endif 
....................    } 
.................... } 
0336E:  RETLW  00
.................... //Overloaded function for fmod() for PCD 
.................... // Overloaded function fmod() for data type - Float48 
.................... #if defined(__PCD__) 
.................... float48 fmod(float48 x,float48 y) 
.................... { 
....................    float48 i; 
....................    if (y!=0.0) 
....................    { 
....................       i=(x/y < 0.0)? ceil(x/y): floor(x/y); 
....................       return(x-(i*y)); 
....................    } 
....................    else 
....................    { 
....................    #ifdef _ERRNO 
....................    { 
....................       errno=EDOM; 
....................    } 
....................    #endif 
....................    } 
.................... } 
.................... // Overloaded function fmod() for data type - Float64 
.................... float64 fmod(float64 x,float64 y) 
.................... { 
....................    float64 i; 
....................    if (y!=0.0) 
....................    { 
....................       i=(x/y < 0.0)? ceil(x/y): floor(x/y); 
....................       return(x-(i*y)); 
....................    } 
....................    else 
....................    { 
....................    #ifdef _ERRNO 
....................    { 
....................       errno=EDOM; 
....................    } 
....................    #endif 
....................    } 
.................... } 
.................... #endif 
.................... //////////////////// Exponential and logarithmic functions //////////////////// 
.................... //////////////////////////////////////////////////////////////////////////// 
.................... //   float exp(float x) 
.................... //////////////////////////////////////////////////////////////////////////// 
.................... // Description : returns the value (e^x) 
.................... // Date : N/A 
.................... // 
.................... #define LN2 0.6931471805599453 
....................  
.................... float const pe[6] = {0.000207455774, 0.00127100575, 0.00965065093, 
....................                      0.0554965651,  0.240227138,  0.693147172}; 
....................  
....................  
.................... float32 exp(float32 x) 
.................... { 
....................    float32 y, res, r; 
....................    #if defined(__PCD__) 
....................    int8 data1; 
....................    #endif 
....................    signed int8 n; 
....................    int1 s; 
....................    #ifdef _ERRNO 
....................    if(x > 88.722838) 
....................    { 
....................       errno=ERANGE; 
....................       return(0); 
....................    } 
....................    #endif 
....................    n = (signed int16)(x/LN2); 
*
0389C:  MOVFF  5F1,613
038A0:  MOVFF  5F0,612
038A4:  MOVFF  5EF,611
038A8:  MOVFF  5EE,610
038AC:  MOVLW  18
038AE:  MOVLB  6
038B0:  MOVWF  x17
038B2:  MOVLW  72
038B4:  MOVWF  x16
038B6:  MOVLW  31
038B8:  MOVWF  x15
038BA:  MOVLW  7E
038BC:  MOVWF  x14
038BE:  MOVLB  0
038C0:  CALL   17B0
038C4:  MOVFF  03,613
038C8:  MOVFF  02,612
038CC:  MOVFF  01,611
038D0:  MOVFF  00,610
038D4:  CALL   2D34
038D8:  MOVFF  01,5FE
....................    s = 0; 
038DC:  MOVLB  5
038DE:  BCF    xFF.0
....................    y = x; 
038E0:  MOVFF  5F1,5F5
038E4:  MOVFF  5F0,5F4
038E8:  MOVFF  5EF,5F3
038EC:  MOVFF  5EE,5F2
....................  
....................    if (x < 0) 
038F0:  MOVFF  5F1,613
038F4:  MOVFF  5F0,612
038F8:  MOVFF  5EF,611
038FC:  MOVFF  5EE,610
03900:  MOVLB  6
03902:  CLRF   x17
03904:  CLRF   x16
03906:  CLRF   x15
03908:  CLRF   x14
0390A:  MOVLB  0
0390C:  CALL   22EC
03910:  BNC   391E
....................    { 
....................       s = 1; 
03912:  MOVLB  5
03914:  BSF    xFF.0
....................       n = -n; 
03916:  NEGF   xFE
....................       y = -y; 
03918:  MOVF   xF3,W
0391A:  XORLW  80
0391C:  MOVWF  xF3
....................    } 
....................  
....................    res = 0.0; 
0391E:  MOVLB  5
03920:  CLRF   xF9
03922:  CLRF   xF8
03924:  CLRF   xF7
03926:  CLRF   xF6
.................... #if !defined(__PCD__) 
....................    *((unsigned int8 *)(&res)) = n + 0x7F; 
03928:  MOVLW  05
0392A:  MOVLB  6
0392C:  MOVWF  x01
0392E:  MOVLW  F6
03930:  MOVWF  FE9
03932:  MOVFF  601,FEA
03936:  MOVLW  7F
03938:  MOVLB  5
0393A:  ADDWF  xFE,W
0393C:  MOVWF  FEF
.................... #endif 
....................  
.................... #if defined(__PCD__)  // Takes care of IEEE format for PCD 
....................    data1 = n+0x7F; 
....................    if(bit_test(data1,0)) 
....................    bit_set(*(((unsigned int8 *)(&res)+2)),7); 
....................    rotate_right(&data1,1); 
....................    bit_clear(data1,7); 
....................    *(((unsigned int8 *)(&res)+3)) = data1; 
.................... #endif 
....................  
....................    y = y/LN2 - (float32)n; 
0393E:  MOVFF  5F5,613
03942:  MOVFF  5F4,612
03946:  MOVFF  5F3,611
0394A:  MOVFF  5F2,610
0394E:  MOVLW  18
03950:  MOVLB  6
03952:  MOVWF  x17
03954:  MOVLW  72
03956:  MOVWF  x16
03958:  MOVLW  31
0395A:  MOVWF  x15
0395C:  MOVLW  7E
0395E:  MOVWF  x14
03960:  MOVLB  0
03962:  CALL   17B0
03966:  MOVFF  00,600
0396A:  MOVFF  01,601
0396E:  MOVFF  02,602
03972:  MOVFF  03,603
03976:  MOVLB  6
03978:  CLRF   x05
0397A:  MOVFF  5FE,604
0397E:  BTFSC  x04.7
03980:  DECF   x05,F
03982:  MOVLB  0
03984:  RCALL  3370
03986:  BSF    FD8.1
03988:  MOVFF  603,617
0398C:  MOVFF  602,616
03990:  MOVFF  601,615
03994:  MOVFF  600,614
03998:  MOVFF  03,61B
0399C:  MOVFF  02,61A
039A0:  MOVFF  01,619
039A4:  MOVFF  00,618
039A8:  CALL   190E
039AC:  MOVFF  03,5F5
039B0:  MOVFF  02,5F4
039B4:  MOVFF  01,5F3
039B8:  MOVFF  00,5F2
....................  
....................    r = pe[0]*y + pe[1]; 
039BC:  MOVLW  7C
039BE:  MOVLB  6
039C0:  MOVWF  x13
039C2:  MOVLW  88
039C4:  MOVWF  x12
039C6:  MOVLW  59
039C8:  MOVWF  x11
039CA:  MOVLW  72
039CC:  MOVWF  x10
039CE:  MOVFF  5F5,617
039D2:  MOVFF  5F4,616
039D6:  MOVFF  5F3,615
039DA:  MOVFF  5F2,614
039DE:  MOVLB  0
039E0:  CALL   2D70
039E4:  MOVFF  00,600
039E8:  MOVFF  01,601
039EC:  MOVFF  02,602
039F0:  MOVFF  03,603
039F4:  BCF    FD8.1
039F6:  MOVFF  03,617
039FA:  MOVFF  02,616
039FE:  MOVFF  01,615
03A02:  MOVFF  00,614
03A06:  MOVLW  E0
03A08:  MOVLB  6
03A0A:  MOVWF  x1B
03A0C:  MOVLW  97
03A0E:  MOVWF  x1A
03A10:  MOVLW  26
03A12:  MOVWF  x19
03A14:  MOVLW  75
03A16:  MOVWF  x18
03A18:  MOVLB  0
03A1A:  CALL   190E
03A1E:  MOVFF  03,5FD
03A22:  MOVFF  02,5FC
03A26:  MOVFF  01,5FB
03A2A:  MOVFF  00,5FA
....................    r = r*y + pe[2]; 
03A2E:  MOVFF  5FD,613
03A32:  MOVFF  5FC,612
03A36:  MOVFF  5FB,611
03A3A:  MOVFF  5FA,610
03A3E:  MOVFF  5F5,617
03A42:  MOVFF  5F4,616
03A46:  MOVFF  5F3,615
03A4A:  MOVFF  5F2,614
03A4E:  CALL   2D70
03A52:  MOVFF  00,600
03A56:  MOVFF  01,601
03A5A:  MOVFF  02,602
03A5E:  MOVFF  03,603
03A62:  BCF    FD8.1
03A64:  MOVFF  03,617
03A68:  MOVFF  02,616
03A6C:  MOVFF  01,615
03A70:  MOVFF  00,614
03A74:  MOVLW  C4
03A76:  MOVLB  6
03A78:  MOVWF  x1B
03A7A:  MOVLW  1D
03A7C:  MOVWF  x1A
03A7E:  MOVLW  1E
03A80:  MOVWF  x19
03A82:  MOVLW  78
03A84:  MOVWF  x18
03A86:  MOVLB  0
03A88:  CALL   190E
03A8C:  MOVFF  03,5FD
03A90:  MOVFF  02,5FC
03A94:  MOVFF  01,5FB
03A98:  MOVFF  00,5FA
....................    r = r*y + pe[3]; 
03A9C:  MOVFF  5FD,613
03AA0:  MOVFF  5FC,612
03AA4:  MOVFF  5FB,611
03AA8:  MOVFF  5FA,610
03AAC:  MOVFF  5F5,617
03AB0:  MOVFF  5F4,616
03AB4:  MOVFF  5F3,615
03AB8:  MOVFF  5F2,614
03ABC:  CALL   2D70
03AC0:  MOVFF  00,600
03AC4:  MOVFF  01,601
03AC8:  MOVFF  02,602
03ACC:  MOVFF  03,603
03AD0:  BCF    FD8.1
03AD2:  MOVFF  03,617
03AD6:  MOVFF  02,616
03ADA:  MOVFF  01,615
03ADE:  MOVFF  00,614
03AE2:  MOVLW  5E
03AE4:  MOVLB  6
03AE6:  MOVWF  x1B
03AE8:  MOVLW  50
03AEA:  MOVWF  x1A
03AEC:  MOVLW  63
03AEE:  MOVWF  x19
03AF0:  MOVLW  7A
03AF2:  MOVWF  x18
03AF4:  MOVLB  0
03AF6:  CALL   190E
03AFA:  MOVFF  03,5FD
03AFE:  MOVFF  02,5FC
03B02:  MOVFF  01,5FB
03B06:  MOVFF  00,5FA
....................    r = r*y + pe[4]; 
03B0A:  MOVFF  5FD,613
03B0E:  MOVFF  5FC,612
03B12:  MOVFF  5FB,611
03B16:  MOVFF  5FA,610
03B1A:  MOVFF  5F5,617
03B1E:  MOVFF  5F4,616
03B22:  MOVFF  5F3,615
03B26:  MOVFF  5F2,614
03B2A:  CALL   2D70
03B2E:  MOVFF  00,600
03B32:  MOVFF  01,601
03B36:  MOVFF  02,602
03B3A:  MOVFF  03,603
03B3E:  BCF    FD8.1
03B40:  MOVFF  03,617
03B44:  MOVFF  02,616
03B48:  MOVFF  01,615
03B4C:  MOVFF  00,614
03B50:  MOVLW  1A
03B52:  MOVLB  6
03B54:  MOVWF  x1B
03B56:  MOVLW  FE
03B58:  MOVWF  x1A
03B5A:  MOVLW  75
03B5C:  MOVWF  x19
03B5E:  MOVLW  7C
03B60:  MOVWF  x18
03B62:  MOVLB  0
03B64:  CALL   190E
03B68:  MOVFF  03,5FD
03B6C:  MOVFF  02,5FC
03B70:  MOVFF  01,5FB
03B74:  MOVFF  00,5FA
....................    r = r*y + pe[5]; 
03B78:  MOVFF  5FD,613
03B7C:  MOVFF  5FC,612
03B80:  MOVFF  5FB,611
03B84:  MOVFF  5FA,610
03B88:  MOVFF  5F5,617
03B8C:  MOVFF  5F4,616
03B90:  MOVFF  5F3,615
03B94:  MOVFF  5F2,614
03B98:  CALL   2D70
03B9C:  MOVFF  00,600
03BA0:  MOVFF  01,601
03BA4:  MOVFF  02,602
03BA8:  MOVFF  03,603
03BAC:  BCF    FD8.1
03BAE:  MOVFF  03,617
03BB2:  MOVFF  02,616
03BB6:  MOVFF  01,615
03BBA:  MOVFF  00,614
03BBE:  MOVLW  18
03BC0:  MOVLB  6
03BC2:  MOVWF  x1B
03BC4:  MOVLW  72
03BC6:  MOVWF  x1A
03BC8:  MOVLW  31
03BCA:  MOVWF  x19
03BCC:  MOVLW  7E
03BCE:  MOVWF  x18
03BD0:  MOVLB  0
03BD2:  CALL   190E
03BD6:  MOVFF  03,5FD
03BDA:  MOVFF  02,5FC
03BDE:  MOVFF  01,5FB
03BE2:  MOVFF  00,5FA
....................  
....................    res = res*(1.0 + y*r); 
03BE6:  MOVFF  5F5,613
03BEA:  MOVFF  5F4,612
03BEE:  MOVFF  5F3,611
03BF2:  MOVFF  5F2,610
03BF6:  MOVFF  5FD,617
03BFA:  MOVFF  5FC,616
03BFE:  MOVFF  5FB,615
03C02:  MOVFF  5FA,614
03C06:  CALL   2D70
03C0A:  BCF    FD8.1
03C0C:  MOVLB  6
03C0E:  CLRF   x17
03C10:  CLRF   x16
03C12:  CLRF   x15
03C14:  MOVLW  7F
03C16:  MOVWF  x14
03C18:  MOVFF  03,61B
03C1C:  MOVFF  02,61A
03C20:  MOVFF  01,619
03C24:  MOVFF  00,618
03C28:  MOVLB  0
03C2A:  CALL   190E
03C2E:  MOVFF  5F9,613
03C32:  MOVFF  5F8,612
03C36:  MOVFF  5F7,611
03C3A:  MOVFF  5F6,610
03C3E:  MOVFF  03,617
03C42:  MOVFF  02,616
03C46:  MOVFF  01,615
03C4A:  MOVFF  00,614
03C4E:  CALL   2D70
03C52:  MOVFF  03,5F9
03C56:  MOVFF  02,5F8
03C5A:  MOVFF  01,5F7
03C5E:  MOVFF  00,5F6
....................  
....................    if (s) 
03C62:  MOVLB  5
03C64:  BTFSS  xFF.0
03C66:  BRA    3C9C
....................       res = 1.0/res; 
03C68:  MOVLB  6
03C6A:  CLRF   x13
03C6C:  CLRF   x12
03C6E:  CLRF   x11
03C70:  MOVLW  7F
03C72:  MOVWF  x10
03C74:  MOVFF  5F9,617
03C78:  MOVFF  5F8,616
03C7C:  MOVFF  5F7,615
03C80:  MOVFF  5F6,614
03C84:  MOVLB  0
03C86:  CALL   17B0
03C8A:  MOVFF  03,5F9
03C8E:  MOVFF  02,5F8
03C92:  MOVFF  01,5F7
03C96:  MOVFF  00,5F6
03C9A:  MOVLB  5
....................    return(res); 
03C9C:  MOVFF  5F6,00
03CA0:  MOVFF  5F7,01
03CA4:  MOVFF  5F8,02
03CA8:  MOVFF  5F9,03
.................... } 
03CAC:  MOVLB  0
03CAE:  RETLW  00
....................  
....................  
.................... //Overloaded function for exp() for PCD 
.................... // Overloaded function exp() for data type - Float48 
.................... #if defined(__PCD__) 
.................... float48 exp(float48 x) 
.................... { 
....................    float48 y, res, r; 
....................    int8 data1; 
....................    signed int8 n; 
....................    int1 s; 
....................    #ifdef _ERRNO 
....................    if(x > 88.722838) 
....................    { 
....................       errno=ERANGE; 
....................       return(0); 
....................    } 
....................    #endif 
....................    n = (signed int16)(x/LN2); 
....................    s = 0; 
....................    y = x; 
....................  
....................    if (x < 0) 
....................    { 
....................       s = 1; 
....................       n = -n; 
....................       y = -y; 
....................    } 
....................  
....................    res = 0.0; 
....................  
....................    data1 = n+0x7F; 
....................    if(bit_test(data1,0)) 
....................    bit_set(*(((unsigned int8 *)(&res)+4)),7); 
....................    rotate_right(&data1,1); 
....................    bit_clear(data1,7); 
....................    *(((unsigned int8 *)(&res)+5)) = data1; 
....................  
....................    y = y/LN2 - (float48)n; 
....................  
....................    r = pe[0]*y + pe[1]; 
....................    r = r*y + pe[2]; 
....................    r = r*y + pe[3]; 
....................    r = r*y + pe[4]; 
....................    r = r*y + pe[5]; 
....................  
....................    res = res*(1.0 + y*r); 
....................  
....................    if (s) 
....................       res = 1.0/res; 
....................    return(res); 
.................... } 
....................  
.................... // Overloaded function exp() for data type - Float64 
.................... float64 exp(float64 x) 
.................... { 
....................    float64 y, res, r; 
....................    unsigned int16 data1, data2; 
....................    unsigned int16 *p; 
....................    signed int16 n; 
....................    int1 s; 
....................    #ifdef _ERRNO 
....................    if(x > 709.7827128) 
....................    { 
....................       errno=ERANGE; 
....................       return(0); 
....................    } 
....................    #endif 
....................    n = (signed int16)(x/LN2); 
....................    s = 0; 
....................    y = x; 
....................  
....................    if (x < 0) 
....................    { 
....................       s = 1; 
....................       n = -n; 
....................       y = -y; 
....................    } 
....................  
....................    res = 0.0; 
....................  
.................... #if !defined(__PCD__) 
....................    *((unsigned int16 *)(&res)) = n + 0x7F; 
.................... #endif 
....................    p= (((unsigned int16 *)(&res))+3); 
....................    data1 = *p; 
....................    data2 = *p;    
....................    data1 = n + 0x3FF; 
....................    data1 = data1 <<4; 
....................    if(bit_test(data2,15)) 
....................    bit_set(data1,15); 
....................    data2 = data2 & 0x000F; 
....................    data1 ^= data2; 
....................  
....................    *(((unsigned int16 *)(&res)+3)) = data1; 
....................  
....................  
....................    y = y/LN2 - (float64)n; 
....................  
....................    r = pe[0]*y + pe[1]; 
....................    r = r*y + pe[2]; 
....................    r = r*y + pe[3]; 
....................    r = r*y + pe[4]; 
....................    r = r*y + pe[5]; 
....................  
....................    res = res*(1.0 + y*r); 
....................  
....................    if (s) 
....................       res = 1.0/res; 
....................    return(res); 
.................... } 
....................  
.................... #ENDIF 
....................  
....................  
.................... /************************************************************/ 
....................  
.................... float32 const pl[4] = {0.45145214, -9.0558803, 26.940971, -19.860189}; 
.................... float32 const ql[4] = {1.0000000,  -8.1354259, 16.780517, -9.9300943}; 
....................  
.................... //////////////////////////////////////////////////////////////////////////// 
.................... //   float log(float x) 
.................... //////////////////////////////////////////////////////////////////////////// 
.................... // Description : returns the the natural log of x 
.................... // Date : N/A 
.................... // 
.................... float32 log(float32 x) 
.................... { 
....................    float32 y, res, r, y2; 
....................    #if defined(__PCD__) 
....................    unsigned int8  data1,data2; 
....................    #endif 
....................    signed int8 n; 
....................    #ifdef _ERRNO 
....................    if(x <0) 
....................    { 
....................       errno=EDOM; 
....................    } 
....................    if(x ==0) 
....................    { 
....................       errno=ERANGE; 
....................       return(0); 
....................    } 
....................    #endif 
....................    y = x; 
*
033C0:  MOVFF  5F1,5F5
033C4:  MOVFF  5F0,5F4
033C8:  MOVFF  5EF,5F3
033CC:  MOVFF  5EE,5F2
....................  
....................    if (y != 1.0) 
033D0:  MOVFF  5F5,613
033D4:  MOVFF  5F4,612
033D8:  MOVFF  5F3,611
033DC:  MOVFF  5F2,610
033E0:  MOVLB  6
033E2:  CLRF   x17
033E4:  CLRF   x16
033E6:  CLRF   x15
033E8:  MOVLW  7F
033EA:  MOVWF  x14
033EC:  MOVLB  0
033EE:  CALL   22EC
033F2:  BTFSC  FD8.2
033F4:  BRA    387E
....................    { 
.................... #if !defined(__PCD__) 
....................     *((unsigned int8 *)(&y)) = 0x7E;  
033F6:  MOVLW  05
033F8:  MOVLB  6
033FA:  MOVWF  x04
033FC:  MOVLW  F2
033FE:  MOVWF  FE9
03400:  MOVFF  604,FEA
03404:  MOVLW  7E
03406:  MOVWF  FEF
.................... #endif 
....................  
.................... #if defined(__PCD__) // Takes care of IEEE format 
....................    data2 = *(((unsigned int8 *)(&y))+3); 
....................    *(((unsigned int8 *)(&y))+3) = 0x3F; 
....................    data1 = *(((unsigned int8 *)(&y))+2); 
....................    bit_clear(data1,7); 
....................    *(((unsigned int8 *)(&y))+2) = data1; 
....................    if(bit_test(data2,7)) 
....................    bit_set(*(((unsigned int8 *)(&y))+3),7); 
.................... #endif 
....................  
....................       y = (y - 1.0)/(y + 1.0); 
03408:  BSF    FD8.1
0340A:  MOVFF  5F5,617
0340E:  MOVFF  5F4,616
03412:  MOVFF  5F3,615
03416:  MOVFF  5F2,614
0341A:  CLRF   x1B
0341C:  CLRF   x1A
0341E:  CLRF   x19
03420:  MOVLW  7F
03422:  MOVWF  x18
03424:  MOVLB  0
03426:  CALL   190E
0342A:  MOVFF  00,603
0342E:  MOVFF  01,604
03432:  MOVFF  02,605
03436:  MOVFF  03,606
0343A:  BCF    FD8.1
0343C:  MOVFF  5F5,617
03440:  MOVFF  5F4,616
03444:  MOVFF  5F3,615
03448:  MOVFF  5F2,614
0344C:  MOVLB  6
0344E:  CLRF   x1B
03450:  CLRF   x1A
03452:  CLRF   x19
03454:  MOVLW  7F
03456:  MOVWF  x18
03458:  MOVLB  0
0345A:  CALL   190E
0345E:  MOVFF  606,613
03462:  MOVFF  605,612
03466:  MOVFF  604,611
0346A:  MOVFF  603,610
0346E:  MOVFF  03,617
03472:  MOVFF  02,616
03476:  MOVFF  01,615
0347A:  MOVFF  00,614
0347E:  CALL   17B0
03482:  MOVFF  03,5F5
03486:  MOVFF  02,5F4
0348A:  MOVFF  01,5F3
0348E:  MOVFF  00,5F2
....................  
....................       y2=y*y; 
03492:  MOVFF  5F5,613
03496:  MOVFF  5F4,612
0349A:  MOVFF  5F3,611
0349E:  MOVFF  5F2,610
034A2:  MOVFF  5F5,617
034A6:  MOVFF  5F4,616
034AA:  MOVFF  5F3,615
034AE:  MOVFF  5F2,614
034B2:  RCALL  2D70
034B4:  MOVFF  03,601
034B8:  MOVFF  02,600
034BC:  MOVFF  01,5FF
034C0:  MOVFF  00,5FE
....................  
....................       res = pl[0]*y2 + pl[1]; 
034C4:  MOVLW  BC
034C6:  MOVLB  6
034C8:  MOVWF  x13
034CA:  MOVLW  24
034CC:  MOVWF  x12
034CE:  MOVLW  67
034D0:  MOVWF  x11
034D2:  MOVLW  7D
034D4:  MOVWF  x10
034D6:  MOVFF  601,617
034DA:  MOVFF  600,616
034DE:  MOVFF  5FF,615
034E2:  MOVFF  5FE,614
034E6:  MOVLB  0
034E8:  RCALL  2D70
034EA:  MOVFF  00,603
034EE:  MOVFF  01,604
034F2:  MOVFF  02,605
034F6:  MOVFF  03,606
034FA:  BCF    FD8.1
034FC:  MOVFF  03,617
03500:  MOVFF  02,616
03504:  MOVFF  01,615
03508:  MOVFF  00,614
0350C:  MOVLW  E3
0350E:  MOVLB  6
03510:  MOVWF  x1B
03512:  MOVLW  E4
03514:  MOVWF  x1A
03516:  MOVLW  90
03518:  MOVWF  x19
0351A:  MOVLW  82
0351C:  MOVWF  x18
0351E:  MOVLB  0
03520:  CALL   190E
03524:  MOVFF  03,5F9
03528:  MOVFF  02,5F8
0352C:  MOVFF  01,5F7
03530:  MOVFF  00,5F6
....................       res = res*y2 + pl[2]; 
03534:  MOVFF  5F9,613
03538:  MOVFF  5F8,612
0353C:  MOVFF  5F7,611
03540:  MOVFF  5F6,610
03544:  MOVFF  601,617
03548:  MOVFF  600,616
0354C:  MOVFF  5FF,615
03550:  MOVFF  5FE,614
03554:  RCALL  2D70
03556:  MOVFF  00,603
0355A:  MOVFF  01,604
0355E:  MOVFF  02,605
03562:  MOVFF  03,606
03566:  BCF    FD8.1
03568:  MOVFF  03,617
0356C:  MOVFF  02,616
03570:  MOVFF  01,615
03574:  MOVFF  00,614
03578:  MOVLW  1C
0357A:  MOVLB  6
0357C:  MOVWF  x1B
0357E:  MOVLW  87
03580:  MOVWF  x1A
03582:  MOVLW  57
03584:  MOVWF  x19
03586:  MOVLW  83
03588:  MOVWF  x18
0358A:  MOVLB  0
0358C:  CALL   190E
03590:  MOVFF  03,5F9
03594:  MOVFF  02,5F8
03598:  MOVFF  01,5F7
0359C:  MOVFF  00,5F6
....................       res = res*y2 + pl[3]; 
035A0:  MOVFF  5F9,613
035A4:  MOVFF  5F8,612
035A8:  MOVFF  5F7,611
035AC:  MOVFF  5F6,610
035B0:  MOVFF  601,617
035B4:  MOVFF  600,616
035B8:  MOVFF  5FF,615
035BC:  MOVFF  5FE,614
035C0:  CALL   2D70
035C4:  MOVFF  00,603
035C8:  MOVFF  01,604
035CC:  MOVFF  02,605
035D0:  MOVFF  03,606
035D4:  BCF    FD8.1
035D6:  MOVFF  03,617
035DA:  MOVFF  02,616
035DE:  MOVFF  01,615
035E2:  MOVFF  00,614
035E6:  MOVLW  AB
035E8:  MOVLB  6
035EA:  MOVWF  x1B
035EC:  MOVLW  E1
035EE:  MOVWF  x1A
035F0:  MOVLW  9E
035F2:  MOVWF  x19
035F4:  MOVLW  83
035F6:  MOVWF  x18
035F8:  MOVLB  0
035FA:  CALL   190E
035FE:  MOVFF  03,5F9
03602:  MOVFF  02,5F8
03606:  MOVFF  01,5F7
0360A:  MOVFF  00,5F6
....................  
....................       r = ql[0]*y2 + ql[1]; 
0360E:  MOVLB  6
03610:  CLRF   x13
03612:  CLRF   x12
03614:  CLRF   x11
03616:  MOVLW  7F
03618:  MOVWF  x10
0361A:  MOVFF  601,617
0361E:  MOVFF  600,616
03622:  MOVFF  5FF,615
03626:  MOVFF  5FE,614
0362A:  MOVLB  0
0362C:  CALL   2D70
03630:  MOVFF  00,603
03634:  MOVFF  01,604
03638:  MOVFF  02,605
0363C:  MOVFF  03,606
03640:  BCF    FD8.1
03642:  MOVFF  03,617
03646:  MOVFF  02,616
0364A:  MOVFF  01,615
0364E:  MOVFF  00,614
03652:  MOVLW  B4
03654:  MOVLB  6
03656:  MOVWF  x1B
03658:  MOVLW  2A
0365A:  MOVWF  x1A
0365C:  MOVLW  82
0365E:  MOVWF  x19
03660:  MOVWF  x18
03662:  MOVLB  0
03664:  CALL   190E
03668:  MOVFF  03,5FD
0366C:  MOVFF  02,5FC
03670:  MOVFF  01,5FB
03674:  MOVFF  00,5FA
....................       r = r*y2 + ql[2]; 
03678:  MOVFF  5FD,613
0367C:  MOVFF  5FC,612
03680:  MOVFF  5FB,611
03684:  MOVFF  5FA,610
03688:  MOVFF  601,617
0368C:  MOVFF  600,616
03690:  MOVFF  5FF,615
03694:  MOVFF  5FE,614
03698:  CALL   2D70
0369C:  MOVFF  00,603
036A0:  MOVFF  01,604
036A4:  MOVFF  02,605
036A8:  MOVFF  03,606
036AC:  BCF    FD8.1
036AE:  MOVFF  03,617
036B2:  MOVFF  02,616
036B6:  MOVFF  01,615
036BA:  MOVFF  00,614
036BE:  MOVLW  80
036C0:  MOVLB  6
036C2:  MOVWF  x1B
036C4:  MOVLW  3E
036C6:  MOVWF  x1A
036C8:  MOVLW  06
036CA:  MOVWF  x19
036CC:  MOVLW  83
036CE:  MOVWF  x18
036D0:  MOVLB  0
036D2:  CALL   190E
036D6:  MOVFF  03,5FD
036DA:  MOVFF  02,5FC
036DE:  MOVFF  01,5FB
036E2:  MOVFF  00,5FA
....................       r = r*y2 + ql[3]; 
036E6:  MOVFF  5FD,613
036EA:  MOVFF  5FC,612
036EE:  MOVFF  5FB,611
036F2:  MOVFF  5FA,610
036F6:  MOVFF  601,617
036FA:  MOVFF  600,616
036FE:  MOVFF  5FF,615
03702:  MOVFF  5FE,614
03706:  CALL   2D70
0370A:  MOVFF  00,603
0370E:  MOVFF  01,604
03712:  MOVFF  02,605
03716:  MOVFF  03,606
0371A:  BCF    FD8.1
0371C:  MOVFF  03,617
03720:  MOVFF  02,616
03724:  MOVFF  01,615
03728:  MOVFF  00,614
0372C:  MOVLW  AB
0372E:  MOVLB  6
03730:  MOVWF  x1B
03732:  MOVLW  E1
03734:  MOVWF  x1A
03736:  MOVLW  9E
03738:  MOVWF  x19
0373A:  MOVLW  82
0373C:  MOVWF  x18
0373E:  MOVLB  0
03740:  CALL   190E
03744:  MOVFF  03,5FD
03748:  MOVFF  02,5FC
0374C:  MOVFF  01,5FB
03750:  MOVFF  00,5FA
....................  
....................       res = y*res/r; 
03754:  MOVFF  5F5,613
03758:  MOVFF  5F4,612
0375C:  MOVFF  5F3,611
03760:  MOVFF  5F2,610
03764:  MOVFF  5F9,617
03768:  MOVFF  5F8,616
0376C:  MOVFF  5F7,615
03770:  MOVFF  5F6,614
03774:  CALL   2D70
03778:  MOVFF  00,603
0377C:  MOVFF  01,604
03780:  MOVFF  02,605
03784:  MOVFF  03,606
03788:  MOVFF  03,613
0378C:  MOVFF  02,612
03790:  MOVFF  01,611
03794:  MOVFF  00,610
03798:  MOVFF  5FD,617
0379C:  MOVFF  5FC,616
037A0:  MOVFF  5FB,615
037A4:  MOVFF  5FA,614
037A8:  CALL   17B0
037AC:  MOVFF  03,5F9
037B0:  MOVFF  02,5F8
037B4:  MOVFF  01,5F7
037B8:  MOVFF  00,5F6
.................... #if !defined(__PCD__) 
....................       n = *((unsigned int8 *)(&x)) - 0x7E; 
037BC:  MOVLW  05
037BE:  MOVLB  6
037C0:  MOVWF  x04
037C2:  MOVLW  EE
037C4:  MOVWF  FE9
037C6:  MOVFF  604,FEA
037CA:  MOVLW  7E
037CC:  SUBWF  FEF,W
037CE:  MOVWF  x02
.................... #endif 
.................... #if defined(__PCD__)  
....................     data1 = *(((unsigned int8 *)(&x)+3)); 
....................     rotate_left(&data1,1); 
....................     data2 = *(((unsigned int8 *)(&x)+2)); 
....................     if(bit_test (data2,7)) 
....................       bit_set(data1,0); 
....................     n = data1 - 0x7E; 
.................... #endif 
....................  
....................       if (n<0)  
037D0:  BTFSC  x02.7
037D2:  BRA    37D6
037D4:  BRA    3800
....................          r = -(float32)-n; 
037D6:  MOVLW  00
037D8:  BSF    FD8.0
037DA:  SUBFWB x02,W
037DC:  CLRF   x05
037DE:  MOVWF  x04
037E0:  BTFSC  x04.7
037E2:  DECF   x05,F
037E4:  MOVLB  0
037E6:  RCALL  3370
037E8:  MOVFF  00,5FA
037EC:  MOVF   01,W
037EE:  XORLW  80
037F0:  MOVLB  5
037F2:  MOVWF  xFB
037F4:  MOVFF  02,5FC
037F8:  MOVFF  03,5FD
....................       else 
037FC:  BRA    381E
037FE:  MOVLB  6
....................          r = (float32)n; 
03800:  CLRF   x05
03802:  MOVFF  602,604
03806:  BTFSC  x04.7
03808:  DECF   x05,F
0380A:  MOVLB  0
0380C:  RCALL  3370
0380E:  MOVFF  03,5FD
03812:  MOVFF  02,5FC
03816:  MOVFF  01,5FB
0381A:  MOVFF  00,5FA
....................  
....................       res += r*LN2; 
0381E:  MOVFF  5FD,613
03822:  MOVFF  5FC,612
03826:  MOVFF  5FB,611
0382A:  MOVFF  5FA,610
0382E:  MOVLW  18
03830:  MOVLB  6
03832:  MOVWF  x17
03834:  MOVLW  72
03836:  MOVWF  x16
03838:  MOVLW  31
0383A:  MOVWF  x15
0383C:  MOVLW  7E
0383E:  MOVWF  x14
03840:  MOVLB  0
03842:  CALL   2D70
03846:  BCF    FD8.1
03848:  MOVFF  5F9,617
0384C:  MOVFF  5F8,616
03850:  MOVFF  5F7,615
03854:  MOVFF  5F6,614
03858:  MOVFF  03,61B
0385C:  MOVFF  02,61A
03860:  MOVFF  01,619
03864:  MOVFF  00,618
03868:  CALL   190E
0386C:  MOVFF  03,5F9
03870:  MOVFF  02,5F8
03874:  MOVFF  01,5F7
03878:  MOVFF  00,5F6
....................    } 
....................  
....................    else 
0387C:  BRA    388A
....................       res = 0.0; 
0387E:  MOVLB  5
03880:  CLRF   xF9
03882:  CLRF   xF8
03884:  CLRF   xF7
03886:  CLRF   xF6
03888:  MOVLB  0
....................  
....................    return(res); 
0388A:  MOVFF  5F6,00
0388E:  MOVFF  5F7,01
03892:  MOVFF  5F8,02
03896:  MOVFF  5F9,03
.................... } 
0389A:  RETLW  00
....................  
.................... //Overloaded function for log() for PCD 
.................... // Overloaded function log() for data type - Float48 
.................... #if defined(__PCD__) 
.................... float48 log(float48 x) 
.................... { 
....................    float48 y, res, r, y2; 
....................    unsigned int8  data1,data2; 
....................    signed int8 n; 
....................    #ifdef _ERRNO 
....................    if(x <0) 
....................    { 
....................       errno=EDOM; 
....................    } 
....................    if(x ==0) 
....................    { 
....................       errno=ERANGE; 
....................       return(0); 
....................    } 
....................    #endif 
....................    y = x; 
....................  
....................    if (y != 1.0) 
....................    { 
....................     
....................    #if !defined(__PCD__) 
....................        *((unsigned int8 *)(&y)) = 0x7E;  
....................    #endif 
....................       data2 = *(((unsigned int8 *)(&y))+5); 
....................       *(((unsigned int8 *)(&y))+5) = 0x3F; 
....................       data1 = *(((unsigned int8 *)(&y))+4); 
....................       bit_clear(data1,7); 
....................       *(((unsigned int8 *)(&y))+4) = data1; 
....................    
....................       if(bit_test(data2,7)) 
....................          bit_set(*(((unsigned int8 *)(&y))+4),7); 
....................       y = (y - 1.0)/(y + 1.0); 
....................  
....................       y2=y*y; 
....................  
....................       res = pl[0]*y2 + pl[1]; 
....................       res = res*y2 + pl[2]; 
....................       res = res*y2 + pl[3]; 
....................  
....................       r = ql[0]*y2 + ql[1]; 
....................       r = r*y2 + ql[2]; 
....................       r = r*y2 + ql[3]; 
....................  
....................       res = y*res/r; 
....................  
....................     data1 = *(((unsigned int8 *)(&x)+5)); 
....................     rotate_left(&data1,1); 
....................     data2 = *(((unsigned int8 *)(&x)+4)); 
....................     if(bit_test (data2,7)) 
....................        bit_set(data1,0); 
....................       
....................     n = data1 - 0x7E; 
....................  
....................       if (n<0) 
....................          r = -(float48)-n; 
....................       else 
....................          r = (float48)n; 
....................  
....................       res += r*LN2; 
....................    } 
....................  
....................    else 
....................       res = 0.0; 
....................  
....................    return(res); 
.................... } 
....................  
.................... // Overloaded function log() for data type - Float48 
.................... #if defined(__PCD__) 
.................... float32 const pl_64[4] = {0.45145214, -9.0558803, 26.940971, -19.860189}; 
.................... float32 const ql_64[4] = {1.0000000,  -8.1354259, 16.780517, -9.9300943}; 
.................... #endif 
.................... float64 log(float64 x) 
.................... { 
....................    float64 y, res, r, y2; 
....................    unsigned int16  data1,data2; 
....................    unsigned int16 *p; 
....................    signed int16 n; 
....................    #ifdef _ERRNO 
....................    if(x <0) 
....................    { 
....................       errno=EDOM; 
....................    } 
....................    if(x ==0) 
....................    { 
....................       errno=ERANGE; 
....................       return(0); 
....................    } 
....................    #endif 
....................    y = x; 
....................  
....................    if (y != 1.0) 
....................    { 
....................    #if !defined(__PCD__) 
....................        *((unsigned int8 *)(&y)) = 0x7E;  
....................    #endif 
....................       p= (((unsigned int16 *)(&y))+3); 
....................       data1 = *p; 
....................       data2 = *p; 
....................       data1 = 0x3FE; 
....................       data1 = data1 <<4; 
....................       if(bit_test (data2,15)) 
....................       bit_set(data1,15); 
....................       data2 = data2 & 0x000F; 
....................       data1 ^=data2; 
....................  
....................       *p = data1; 
....................  
....................       y = (y - 1.0)/(y + 1.0); 
....................  
....................       y2=y*y; 
....................  
....................       res = pl_64[0]*y2 + pl_64[1]; 
....................       res = res*y2 + pl_64[2]; 
....................       res = res*y2 + pl_64[3]; 
....................  
....................       r = ql_64[0]*y2 + ql_64[1]; 
....................       r = r*y2 + ql_64[2]; 
....................       r = r*y2 + ql_64[3]; 
....................  
....................       res = y*res/r; 
....................   
....................       p= (((unsigned int16 *)(&x))+3); 
....................       data1 = *p; 
....................       bit_clear(data1,15); 
....................       data1 = data1 >>4;     
....................       n = data1 - 0x3FE; 
....................  
....................  
....................       if (n<0) 
....................          r = -(float64)-n; 
....................       else 
....................          r = (float64)n; 
....................  
....................       res += r*LN2; 
....................    } 
....................  
....................    else 
....................       res = 0.0; 
....................  
....................    return(res); 
.................... } 
.................... #endif 
....................  
....................  
.................... #define LN10 2.3025850929940456 
....................  
.................... //////////////////////////////////////////////////////////////////////////// 
.................... //   float log10(float x) 
.................... //////////////////////////////////////////////////////////////////////////// 
.................... // Description : returns the the log base 10 of x 
.................... // Date : N/A 
.................... // 
.................... float32 log10(float32 x) 
.................... { 
....................    float32 r; 
....................  
....................    r = log(x); 
....................    r = r/LN10; 
....................    return(r); 
.................... } 
....................  
.................... //Overloaded functions for log10() for PCD 
.................... // Overloaded function log10() for data type - Float48 
.................... #if defined(__PCD__) 
.................... float48 log10(float48 x) 
.................... { 
....................    float48 r; 
....................  
....................    r = log(x); 
....................    r = r/LN10; 
....................    return(r); 
.................... } 
....................  
.................... // Overloaded function log10() for data type - Float64 
.................... float64 log10(float64 x) 
.................... { 
....................    float64 r; 
....................  
....................    r = log(x); 
....................    r = r/LN10; 
....................    return(r); 
.................... } 
.................... #endif 
.................... //////////////////////////////////////////////////////////////////////////// 
.................... //   float modf(float x) 
.................... //////////////////////////////////////////////////////////////////////////// 
.................... // Description :breaks the argument value int integral and fractional parts, 
.................... // ach of which have the same sign as the argument.  It stores the integral part 
.................... // as a float in the object pointed to by the iptr 
.................... // Returns : returns the signed fractional part of value. 
.................... // Date : N/A 
.................... // 
....................  
.................... float32 modf(float32 value,float32 *iptr) 
.................... { 
....................    *iptr=(value < 0.0)? ceil(value): floor(value); 
....................    return(value - *iptr); 
.................... } 
.................... //Overloaded functions for modf() for PCD 
.................... // Overloaded function modf() for data type - Float48 
.................... #if defined(__PCD__) 
.................... float48 modf(float48 value,float48 *iptr) 
.................... { 
....................    *iptr=(value < 0.0)? ceil(value): floor(value); 
....................    return(value - *iptr); 
.................... } 
.................... // Overloaded function modf() for data type - Float64 
.................... float64 modf(float64 value,float64 *iptr) 
.................... { 
....................    *iptr=(value < 0.0)? ceil(value): floor(value); 
....................    return(value - *iptr); 
.................... } 
.................... #endif 
....................  
.................... //////////////////////////////////////////////////////////////////////////// 
.................... //   float pwr(float x,float y) 
.................... //////////////////////////////////////////////////////////////////////////// 
.................... // Description : returns the value (x^y) 
.................... // Date : N/A 
.................... // Note : 0 is returned when the function will generate an imaginary number 
.................... // 
.................... float32 pwr(float32 x,float32 y) 
.................... { 
....................    if(0 > x && fmod(y, 1) == 0) { 
....................       if(fmod(y, 2) == 0) { 
....................          return (exp(log(-x) * y)); 
....................       } else { 
....................          return (-exp(log(-x) * y)); 
....................       } 
....................    } else if(0 > x && fmod(y, 1) != 0) { 
....................       return 0; 
....................    } else { 
....................       if(x != 0 || 0 >= y) { 
....................          return (exp(log(x) * y)); 
....................       } 
....................    } 
.................... } 
.................... //Overloaded functions for pwr() for PCD 
.................... // Overloaded function pwr() for data type - Float48 
.................... #if defined(__PCD__) 
.................... float48 pwr(float48 x,float48 y) 
.................... { 
....................    if(0 > x && fmod(y, 1) == 0) { 
....................       if(fmod(y, 2) == 0) { 
....................          return (exp(log(-x) * y)); 
....................       } else { 
....................          return (-exp(log(-x) * y)); 
....................       } 
....................    } else if(0 > x && fmod(y, 1) != 0) { 
....................       return 0; 
....................    } else { 
....................       if(x != 0 || 0 >= y) { 
....................          return (exp(log(x) * y)); 
....................       } 
....................    } 
.................... } 
.................... // Overloaded function pwr() for data type - Float64 
.................... float64 pwr(float64 x,float64 y) 
.................... { 
....................    if(0 > x && fmod(y, 1) == 0) { 
....................       if(fmod(y, 2) == 0) { 
....................          return (exp(log(-x) * y)); 
....................       } else { 
....................          return (-exp(log(-x) * y)); 
....................       } 
....................    } else if(0 > x && fmod(y, 1) != 0) { 
....................       return 0; 
....................    } else { 
....................       if(x != 0 || 0 >= y) { 
....................          return (exp(log(x) * y)); 
....................       } 
....................    } 
.................... } 
.................... #endif 
....................  
.................... //////////////////// Power functions //////////////////// 
....................  
.................... //////////////////////////////////////////////////////////////////////////// 
.................... //   float pow(float x,float y) 
.................... //////////////////////////////////////////////////////////////////////////// 
.................... // Description : returns the value (x^y) 
.................... // Date : N/A 
.................... // Note : 0 is returned when the function will generate an imaginary number 
.................... // 
.................... float32 pow(float32 x,float32 y) 
.................... { 
....................    if(0 > x && fmod(y, 1) == 0) { 
*
03CB0:  MOVFF  5E5,613
03CB4:  MOVFF  5E4,612
03CB8:  MOVFF  5E3,611
03CBC:  MOVFF  5E2,610
03CC0:  MOVLB  6
03CC2:  CLRF   x17
03CC4:  CLRF   x16
03CC6:  CLRF   x15
03CC8:  CLRF   x14
03CCA:  MOVLB  0
03CCC:  CALL   22EC
03CD0:  BTFSS  FD8.0
03CD2:  BRA    3E86
03CD4:  MOVFF  5E9,5ED
03CD8:  MOVFF  5E8,5EC
03CDC:  MOVFF  5E7,5EB
03CE0:  MOVFF  5E6,5EA
03CE4:  MOVLB  5
03CE6:  CLRF   xF1
03CE8:  CLRF   xF0
03CEA:  CLRF   xEF
03CEC:  MOVLW  7F
03CEE:  MOVWF  xEE
03CF0:  MOVLB  0
03CF2:  CALL   320A
03CF6:  MOVFF  00,5EA
03CFA:  MOVFF  01,5EB
03CFE:  MOVFF  02,5EC
03D02:  MOVFF  03,5ED
03D06:  MOVFF  03,613
03D0A:  MOVFF  02,612
03D0E:  MOVFF  01,611
03D12:  MOVFF  00,610
03D16:  MOVLB  6
03D18:  CLRF   x17
03D1A:  CLRF   x16
03D1C:  CLRF   x15
03D1E:  CLRF   x14
03D20:  MOVLB  0
03D22:  CALL   22EC
03D26:  BTFSS  FD8.2
03D28:  BRA    3E86
....................       if(fmod(y, 2) == 0) { 
03D2A:  MOVFF  5E9,5ED
03D2E:  MOVFF  5E8,5EC
03D32:  MOVFF  5E7,5EB
03D36:  MOVFF  5E6,5EA
03D3A:  MOVLB  5
03D3C:  CLRF   xF1
03D3E:  CLRF   xF0
03D40:  CLRF   xEF
03D42:  MOVLW  80
03D44:  MOVWF  xEE
03D46:  MOVLB  0
03D48:  CALL   320A
03D4C:  MOVFF  00,5EA
03D50:  MOVFF  01,5EB
03D54:  MOVFF  02,5EC
03D58:  MOVFF  03,5ED
03D5C:  MOVFF  03,613
03D60:  MOVFF  02,612
03D64:  MOVFF  01,611
03D68:  MOVFF  00,610
03D6C:  MOVLB  6
03D6E:  CLRF   x17
03D70:  CLRF   x16
03D72:  CLRF   x15
03D74:  CLRF   x14
03D76:  MOVLB  0
03D78:  CALL   22EC
03D7C:  BNZ   3E00
....................          return (exp(log(-x) * y)); 
03D7E:  MOVFF  5E2,5EA
03D82:  MOVLB  5
03D84:  MOVF   xE3,W
03D86:  XORLW  80
03D88:  MOVWF  xEB
03D8A:  MOVFF  5E4,5EC
03D8E:  MOVFF  5E5,5ED
03D92:  MOVFF  5E5,5F1
03D96:  MOVFF  5E4,5F0
03D9A:  MOVWF  xEF
03D9C:  MOVFF  5E2,5EE
03DA0:  MOVLB  0
03DA2:  CALL   33C0
03DA6:  MOVFF  00,5EA
03DAA:  MOVFF  01,5EB
03DAE:  MOVFF  02,5EC
03DB2:  MOVFF  03,5ED
03DB6:  MOVFF  03,613
03DBA:  MOVFF  02,612
03DBE:  MOVFF  01,611
03DC2:  MOVFF  00,610
03DC6:  MOVFF  5E9,617
03DCA:  MOVFF  5E8,616
03DCE:  MOVFF  5E7,615
03DD2:  MOVFF  5E6,614
03DD6:  CALL   2D70
03DDA:  MOVFF  00,5EA
03DDE:  MOVFF  01,5EB
03DE2:  MOVFF  02,5EC
03DE6:  MOVFF  03,5ED
03DEA:  MOVFF  03,5F1
03DEE:  MOVFF  02,5F0
03DF2:  MOVFF  01,5EF
03DF6:  MOVFF  00,5EE
03DFA:  RCALL  389C
03DFC:  BRA    3FBA
....................       } else { 
03DFE:  BRA    3E84
....................          return (-exp(log(-x) * y)); 
03E00:  MOVFF  5E2,5EA
03E04:  MOVLB  5
03E06:  MOVF   xE3,W
03E08:  XORLW  80
03E0A:  MOVWF  xEB
03E0C:  MOVFF  5E4,5EC
03E10:  MOVFF  5E5,5ED
03E14:  MOVFF  5E5,5F1
03E18:  MOVFF  5E4,5F0
03E1C:  MOVWF  xEF
03E1E:  MOVFF  5E2,5EE
03E22:  MOVLB  0
03E24:  CALL   33C0
03E28:  MOVFF  00,5EA
03E2C:  MOVFF  01,5EB
03E30:  MOVFF  02,5EC
03E34:  MOVFF  03,5ED
03E38:  MOVFF  03,613
03E3C:  MOVFF  02,612
03E40:  MOVFF  01,611
03E44:  MOVFF  00,610
03E48:  MOVFF  5E9,617
03E4C:  MOVFF  5E8,616
03E50:  MOVFF  5E7,615
03E54:  MOVFF  5E6,614
03E58:  CALL   2D70
03E5C:  MOVFF  00,5EA
03E60:  MOVFF  01,5EB
03E64:  MOVFF  02,5EC
03E68:  MOVFF  03,5ED
03E6C:  MOVFF  03,5F1
03E70:  MOVFF  02,5F0
03E74:  MOVFF  01,5EF
03E78:  MOVFF  00,5EE
03E7C:  RCALL  389C
03E7E:  MOVLW  80
03E80:  XORWF  01,F
03E82:  BRA    3FBA
....................       } 
....................    } else if(0 > x && fmod(y, 1) != 0) { 
03E84:  BRA    3FBA
03E86:  MOVFF  5E5,613
03E8A:  MOVFF  5E4,612
03E8E:  MOVFF  5E3,611
03E92:  MOVFF  5E2,610
03E96:  MOVLB  6
03E98:  CLRF   x17
03E9A:  CLRF   x16
03E9C:  CLRF   x15
03E9E:  CLRF   x14
03EA0:  MOVLB  0
03EA2:  CALL   22EC
03EA6:  BNC   3F08
03EA8:  MOVFF  5E9,5ED
03EAC:  MOVFF  5E8,5EC
03EB0:  MOVFF  5E7,5EB
03EB4:  MOVFF  5E6,5EA
03EB8:  MOVLB  5
03EBA:  CLRF   xF1
03EBC:  CLRF   xF0
03EBE:  CLRF   xEF
03EC0:  MOVLW  7F
03EC2:  MOVWF  xEE
03EC4:  MOVLB  0
03EC6:  CALL   320A
03ECA:  MOVFF  00,5EA
03ECE:  MOVFF  01,5EB
03ED2:  MOVFF  02,5EC
03ED6:  MOVFF  03,5ED
03EDA:  MOVFF  03,613
03EDE:  MOVFF  02,612
03EE2:  MOVFF  01,611
03EE6:  MOVFF  00,610
03EEA:  MOVLB  6
03EEC:  CLRF   x17
03EEE:  CLRF   x16
03EF0:  CLRF   x15
03EF2:  CLRF   x14
03EF4:  MOVLB  0
03EF6:  CALL   22EC
03EFA:  BZ    3F08
....................       return 0; 
03EFC:  CLRF   00
03EFE:  CLRF   01
03F00:  CLRF   02
03F02:  CLRF   03
03F04:  BRA    3FBA
....................    } else { 
03F06:  BRA    3FBA
....................       if(x != 0 || 0 >= y) { 
03F08:  MOVFF  5E5,613
03F0C:  MOVFF  5E4,612
03F10:  MOVFF  5E3,611
03F14:  MOVFF  5E2,610
03F18:  MOVLB  6
03F1A:  CLRF   x17
03F1C:  CLRF   x16
03F1E:  CLRF   x15
03F20:  CLRF   x14
03F22:  MOVLB  0
03F24:  CALL   22EC
03F28:  BNZ   3F4E
03F2A:  MOVFF  5E9,613
03F2E:  MOVFF  5E8,612
03F32:  MOVFF  5E7,611
03F36:  MOVFF  5E6,610
03F3A:  MOVLB  6
03F3C:  CLRF   x17
03F3E:  CLRF   x16
03F40:  CLRF   x15
03F42:  CLRF   x14
03F44:  MOVLB  0
03F46:  CALL   22EC
03F4A:  BC    3F4E
03F4C:  BNZ   3FBA
....................          return (exp(log(x) * y)); 
03F4E:  MOVFF  5E5,5F1
03F52:  MOVFF  5E4,5F0
03F56:  MOVFF  5E3,5EF
03F5A:  MOVFF  5E2,5EE
03F5E:  CALL   33C0
03F62:  MOVFF  00,5EA
03F66:  MOVFF  01,5EB
03F6A:  MOVFF  02,5EC
03F6E:  MOVFF  03,5ED
03F72:  MOVFF  03,613
03F76:  MOVFF  02,612
03F7A:  MOVFF  01,611
03F7E:  MOVFF  00,610
03F82:  MOVFF  5E9,617
03F86:  MOVFF  5E8,616
03F8A:  MOVFF  5E7,615
03F8E:  MOVFF  5E6,614
03F92:  CALL   2D70
03F96:  MOVFF  00,5EA
03F9A:  MOVFF  01,5EB
03F9E:  MOVFF  02,5EC
03FA2:  MOVFF  03,5ED
03FA6:  MOVFF  03,5F1
03FAA:  MOVFF  02,5F0
03FAE:  MOVFF  01,5EF
03FB2:  MOVFF  00,5EE
03FB6:  RCALL  389C
03FB8:  BRA    3FBA
....................       } 
....................    } 
.................... } 
03FBA:  RETLW  00
.................... //Overloaded functions for pow() for PCD 
.................... // Overloaded function for pow() data type - Float48 
.................... #if defined(__PCD__) 
.................... float48 pow(float48 x,float48 y) 
.................... { 
....................    if(0 > x && fmod(y, 1) == 0) { 
....................       if(fmod(y, 2) == 0) { 
....................          return (exp(log(-x) * y)); 
....................       } else { 
....................          return (-exp(log(-x) * y)); 
....................       } 
....................    } else if(0 > x && fmod(y, 1) != 0) { 
....................       return 0; 
....................    } else { 
....................       if(x != 0 || 0 >= y) { 
....................          return (exp(log(x) * y)); 
....................       } 
....................    } 
.................... } 
....................  
.................... // Overloaded function pow() for data type - Float64 
.................... float64 pow(float64 x,float64 y) 
.................... { 
....................    if(0 > x && fmod(y, 1) == 0) { 
....................       if(fmod(y, 2) == 0) { 
....................          return (exp(log(-x) * y)); 
....................       } else { 
....................          return (-exp(log(-x) * y)); 
....................       } 
....................    } else if(0 > x && fmod(y, 1) != 0) { 
....................       return 0; 
....................    } else { 
....................       if(x != 0 || 0 >= y) { 
....................          return (exp(log(x) * y)); 
....................       } 
....................    } 
.................... } 
.................... #endif 
....................  
.................... //////////////////////////////////////////////////////////////////////////// 
.................... //   float sqrt(float x) 
.................... //////////////////////////////////////////////////////////////////////////// 
.................... // Description : returns the square root of x 
.................... // Date : N/A 
.................... // 
.................... float32 sqrt(float32 x) 
.................... { 
....................    float32 y, res; 
....................    #if defined(__PCD__) 
....................    unsigned int16 data1,data2; 
....................    #endif 
....................    BYTE *p; 
....................  
....................    #ifdef _ERRNO 
....................    if(x < 0) 
....................    { 
....................       errno=EDOM; 
....................    } 
....................    #endif 
....................  
....................    if( x<=0.0) 
....................       return(0.0); 
....................  
....................    y=x; 
....................     
....................    #if !defined(__PCD__) 
....................     p=&y; 
....................    (*p)=(BYTE)((((unsigned int16)(*p)) + 127) >> 1); 
....................    #endif 
....................     
....................    #if defined(__PCD__) 
....................     p = (((unsigned int8 *)(&y))+3); 
....................     data1 = *(((unsigned int8 *)(&y))+3); 
....................     data2 = *(((unsigned int8 *)(&y))+2); 
....................     rotate_left(&data1,1);     
....................     if(bit_test(data2,7))     
....................     bit_set(data1,0);     
....................     data1 = ((data1+127) >>1); 
....................     bit_clear(data2,7); 
....................     if(bit_test(data1,0)) 
....................     bit_set(data2,7); 
....................     data1 = data1 >>1; 
....................     *(((unsigned int8 *)(&y))+3) = data1; 
....................     *(((unsigned int8 *)(&y))+2) = data2; 
....................      
....................   #endif 
....................  
....................    do { 
....................       res=y; 
....................       y+=(x/y); 
....................  
....................       #if !defined(__PCD__) 
....................      (*p)--; 
....................    #endif 
....................     
....................    #if defined(__PCD__) 
....................     data1 = *(((unsigned int8 *)(&y))+3); 
....................     data2 = *(((unsigned int8 *)(&y))+2); 
....................     rotate_left(&data1,1); 
....................     if(bit_test(data2,7)) 
....................     bit_set(data1,0);     
....................     data1--; 
....................     bit_clear(data2,7); 
....................     if(bit_test(data1,0)) 
....................     bit_set(data2,7); 
....................     data1 = data1 >>1; 
....................     *(((unsigned int8 *)(&y))+3) = data1; 
....................     *(((unsigned int8 *)(&y))+2) = data2; 
....................      
....................   #endif 
....................    } while(res != y); 
....................  
....................    return(res); 
.................... } 
.................... //Overloaded functions for sqrt() for PCD 
.................... // Overloaded function sqrt() for data type - Float48 
.................... #if defined(__PCD__) 
.................... float48 sqrt(float48 x) 
.................... { 
....................    float48 y, res; 
....................    unsigned int16 data1,data2; 
....................    BYTE *p; 
....................  
....................    #ifdef _ERRNO 
....................    if(x < 0) 
....................    { 
....................       errno=EDOM; 
....................    } 
....................    #endif 
....................  
....................    if( x<=0.0) 
....................       return(0.0); 
....................  
....................    y=x; 
....................     
....................    #if !defined(__PCD__) 
....................     p=&y; 
....................    (*p)=(BYTE)((((unsigned int16)(*p)) + 127) >> 1); 
....................    #endif 
....................     
....................    #if defined(__PCD__) 
....................     p = (((unsigned int8 *)(&y))+5); 
....................     data1 = *(((unsigned int8 *)(&y))+5); 
....................     data2 = *(((unsigned int8 *)(&y))+4); 
....................     rotate_left(&data1,1); 
....................     if(bit_test(data2,7)) 
....................     bit_set(data1,0);     
....................     data1 = ((data1+127) >>1); 
....................     bit_clear(data2,7); 
....................     if(bit_test(data1,0)) 
....................     bit_set(data2,7); 
....................     data1 = data1 >>1; 
....................     *(((unsigned int8 *)(&y))+5) = data1; 
....................     *(((unsigned int8 *)(&y))+4) = data2; 
....................      
....................   #endif 
....................  
....................    do { 
....................       res=y; 
....................       y+=(x/y); 
....................  
....................       #if !defined(__PCD__) 
....................      (*p)--; 
....................    #endif 
....................     
....................     data1 = *(((unsigned int8 *)(&y))+5); 
....................     data2 = *(((unsigned int8 *)(&y))+4); 
....................     rotate_left(&data1,1); 
....................     if(bit_test(data2,7)) 
....................     bit_set(data1,0);     
....................     data1--; 
....................     bit_clear(data2,7); 
....................     if(bit_test(data1,0)) 
....................     bit_set(data2,7); 
....................     data1 = data1 >>1; 
....................     *(((unsigned int8 *)(&y))+5) = data1; 
....................     *(((unsigned int8 *)(&y))+4) = data2; 
....................      
....................    } while(res != y); 
....................  
....................    return(res); 
.................... } 
....................  
.................... // Overloaded function sqrt() for data type - Float64 
.................... float64 sqrt(float64 x) 
.................... { 
....................    float64 y, res; 
....................    unsigned int16 *p; 
....................    unsigned int16 temp1,temp2; 
....................  
....................    #ifdef _ERRNO 
....................    if(x < 0) 
....................    { 
....................       errno=EDOM; 
....................    } 
....................    #endif 
....................  
....................    if( x<=0.0) 
....................       return(0.0); 
....................  
....................    y=x; 
....................    p= (((unsigned int16 *)(&y))+3); 
....................    temp1 = *p; 
....................    temp2 = *p; 
....................    bit_clear(temp1,15); 
....................    temp1 = (temp1>>4)+1023; 
....................    temp1 = temp1 >> 1; 
....................    temp1 = (temp1<<4) & 0xFFF0; 
....................    if(bit_test(temp2,15)) 
....................    bit_set(temp1,15); 
....................    temp2 = temp2 & 0x000F; 
....................    temp1 ^= temp2; 
....................     
....................    (*p) = temp1; 
....................     
....................    do { 
....................       res=y; 
....................       y+=(x/y); 
....................      temp1 = *p; 
....................      temp2 = *p; 
....................      bit_clear(temp1,15); 
....................      temp1 = (temp1>>4); 
....................      temp1--; 
....................      temp1 = (temp1<<4) & 0xFFF0; 
....................      if(bit_test(temp2,15)) 
....................      bit_set(temp1,15); 
....................      temp2 = temp2 & 0x000F; 
....................      temp1 ^= temp2; 
....................      (*p) = temp1; 
....................  
....................    } while(res != y); 
....................  
....................    return(res); 
.................... } 
.................... #endif 
....................  
.................... ////////////////////////////// Trig Functions ////////////////////////////// 
.................... #ifdef PI_DIV_BY_TWO 
.................... #undef PI_DIV_BY_TWO 
.................... #endif 
.................... #define PI_DIV_BY_TWO   1.5707963267948966 
.................... #ifdef TWOBYPI 
.................... #undef TWOBYPI 
.................... #define TWOBYPI          0.6366197723675813 
.................... #endif 
.................... //////////////////////////////////////////////////////////////////////////// 
.................... //   float cos(float x) 
.................... //////////////////////////////////////////////////////////////////////////// 
.................... // Description : returns the cosine value of the angle x, which is in radian 
.................... // Date : 9/20/2001 
.................... // 
.................... float32 cos(float32 x) 
.................... { 
....................    float32 y, t, t2 = 1.0; 
....................    unsigned int8 quad, i; 
....................    float32 frac; 
....................    float32 p[6] = {                    //by the series definition for cosine 
....................       -0.5,                            // sum ( ( (-1)^n * x^2n )/(2n)! ) 
....................        0.04166666666667, 
....................       -0.00138888888889, 
....................        0.00002480158730, 
....................       -0.00000027557319, 
....................        0.00000000208767, 
....................       //-0.00000000001147, 
....................       // 0.00000000000005 
....................    }; 
....................  
....................    if (x < 0) x = -x;                  // absolute value of input 
....................  
....................    quad = (unsigned int8)(x / PI_DIV_BY_TWO);    // quadrant 
....................    frac = (x / PI_DIV_BY_TWO) - quad;  // fractional part of input 
....................    quad = quad % 4;                    // quadrant (0 to 3) 
....................  
....................    if (quad == 0 || quad == 2) 
....................       t = frac * PI_DIV_BY_TWO; 
....................    else if (quad == 1) 
....................       t = (1-frac) * PI_DIV_BY_TWO; 
....................    else // should be 3 
....................       t = (frac-1) * PI_DIV_BY_TWO; 
....................  
....................    y = 1.0; 
....................    t = t * t; 
....................    for (i = 0; i <= 5; i++) 
....................    { 
....................       t2 = t2 * t; 
....................       y = y + p[i] * t2; 
....................    } 
....................  
....................    if (quad == 2 || quad == 1) 
....................       y = -y;  // correct sign 
....................  
....................    return (y); 
.................... } 
....................  
....................  
.................... //Overloaded functions for cos() for PCD 
.................... // Overloaded function cos() for data type - Float48 
.................... #if defined(__PCD__) 
.................... float48 cos(float48 x) 
.................... { 
....................    float48 y, t, t2 = 1.0; 
....................    unsigned int8 quad, i; 
....................    float48 frac; 
....................    float48 p[6] = {                    //by the series definition for cosine 
....................       -0.5,                            // sum ( ( (-1)^n * x^2n )/(2n)! ) 
....................        0.04166666666667, 
....................       -0.00138888888889, 
....................        0.00002480158730, 
....................       -0.00000027557319, 
....................        0.00000000208767, 
....................       //-0.00000000001147, 
....................       // 0.00000000000005 
....................    }; 
....................  
....................    if (x < 0) x = -x;                  // absolute value of input 
....................  
....................    quad = (unsigned int8)(x / PI_DIV_BY_TWO);    // quadrant 
....................    frac = (x / PI_DIV_BY_TWO) - quad;  // fractional part of input 
....................    quad = quad % 4;                    // quadrant (0 to 3) 
....................  
....................    if (quad == 0 || quad == 2) 
....................       t = frac * PI_DIV_BY_TWO; 
....................    else if (quad == 1) 
....................       t = (1-frac) * PI_DIV_BY_TWO; 
....................    else // should be 3 
....................       t = (frac-1) * PI_DIV_BY_TWO; 
....................  
....................    y = 0.999999999781; 
....................    t = t * t; 
....................    for (i = 0; i <= 5; i++) 
....................    { 
....................       t2 = t2 * t; 
....................       y = y + p[i] * t2; 
....................    } 
....................  
....................    if (quad == 2 || quad == 1) 
....................       y = -y;  // correct sign 
....................  
....................    return (y); 
.................... } 
....................  
.................... // Overloaded function cos() for data type - Float48 
.................... float64 cos(float64 x) 
.................... { 
....................    float64 y, t, t2 = 1.0; 
....................    unsigned int8 quad, i; 
....................    float64 frac; 
....................    float64 p[6] = {                    //by the series definition for cosine 
....................       -0.5,                            // sum ( ( (-1)^n * x^2n )/(2n)! ) 
....................        0.04166666666667, 
....................       -0.00138888888889, 
....................        0.00002480158730, 
....................       -0.00000027557319, 
....................        0.00000000208767, 
....................       //-0.00000000001147, 
....................       // 0.00000000000005 
....................    }; 
....................  
....................    if (x < 0) x = -x;                  // absolute value of input 
....................  
....................    quad = (unsigned int8)(x / PI_DIV_BY_TWO);    // quadrant 
....................    frac = (x / PI_DIV_BY_TWO) - quad;  // fractional part of input 
....................    quad = quad % 4;                    // quadrant (0 to 3) 
....................  
....................    if (quad == 0 || quad == 2) 
....................       t = frac * PI_DIV_BY_TWO; 
....................    else if (quad == 1) 
....................       t = (1-frac) * PI_DIV_BY_TWO; 
....................    else // should be 3 
....................       t = (frac-1) * PI_DIV_BY_TWO; 
....................  
....................    y = 0.999999999781; 
....................    t = t * t; 
....................    for (i = 0; i <= 5; i++) 
....................    { 
....................       t2 = t2 * t; 
....................       y = y + p[i] * t2; 
....................    } 
....................  
....................    if (quad == 2 || quad == 1) 
....................       y = -y;  // correct sign 
....................  
....................    return (y); 
.................... } 
....................  
.................... #endif 
....................  
.................... //////////////////////////////////////////////////////////////////////////// 
.................... //   float sin(float x) 
.................... //////////////////////////////////////////////////////////////////////////// 
.................... // Description : returns the sine value of the angle x, which is in radian 
.................... // Date : 9/20/2001 
.................... // 
.................... float32 sin(float32 x) 
.................... { 
....................    return cos(x - PI_DIV_BY_TWO); 
.................... } 
....................  
.................... //Overloaded functions for sin() for PCD 
.................... // Overloaded function sin() for data type - Float48 
.................... #if defined(__PCD__) 
.................... float48 sin(float48 x) 
.................... { 
....................    return cos(x - PI_DIV_BY_TWO); 
.................... } 
....................  
.................... // Overloaded function sin() for data type - Float48 
.................... float64 sin(float64 x) 
.................... { 
....................    return cos(x - PI_DIV_BY_TWO); 
.................... } 
.................... #endif 
....................  
.................... //////////////////////////////////////////////////////////////////////////// 
.................... //   float tan(float x) 
.................... //////////////////////////////////////////////////////////////////////////// 
.................... // Description : returns the tangent value of the angle x, which is in radian 
.................... // Date : 9/20/2001 
.................... // 
.................... float32 tan(float32 x) 
.................... { 
....................    float32 c, s; 
....................  
....................    c = cos(x); 
....................    if (c == 0.0) 
....................       return (1.0e+36); 
....................  
....................    s = sin(x); 
....................    return(s/c); 
.................... } 
.................... //Overloaded functions for tan() for PCD 
.................... // Overloaded function tan() for data type - Float48 
.................... #if defined(__PCD__) 
.................... float48 tan(float48 x) 
.................... { 
....................    float48 c, s; 
....................  
....................    c = cos(x); 
....................    if (c == 0.0) 
....................       return (1.0e+36); 
....................  
....................    s = sin(x); 
....................    return(s/c); 
.................... } 
....................  
.................... // Overloaded function tan() for data type - Float48 
.................... float64 tan(float64 x) 
.................... { 
....................    float64 c, s; 
....................  
....................    c = cos(x); 
....................    if (c == 0.0) 
....................       return (1.0e+36); 
....................  
....................    s = sin(x); 
....................    return(s/c); 
.................... } 
.................... #endif 
....................  
.................... float32 const pas[3] = {0.49559947, -4.6145309, 5.6036290}; 
.................... float32 const qas[3] = {1.0000000,  -5.5484666, 5.6036290}; 
....................  
.................... float32 ASIN_COS(float32 x, unsigned int8 n) 
.................... { 
....................    float32 y, res, r, y2; 
....................    int1 s; 
....................    #ifdef _ERRNO 
....................    if(x <-1 || x > 1) 
....................    { 
....................       errno=EDOM; 
....................    } 
....................    #endif 
....................    s = 0; 
....................    y = x; 
....................  
....................    if (x < 0) 
....................    { 
....................       s = 1; 
....................       y = -y; 
....................    } 
....................  
....................    if (y > 0.5) 
....................    { 
....................       y = sqrt((1.0 - y)/2.0); 
....................       n += 2; 
....................    } 
....................  
....................    y2=y*y; 
....................  
....................    res = pas[0]*y2 + pas[1]; 
....................    res = res*y2 + pas[2]; 
....................  
....................    r = qas[0]*y2 + qas[1]; 
....................    r = r*y2 + qas[2]; 
....................  
....................    res = y*res/r; 
....................  
....................    if (n & 2)     // |x| > 0.5 
....................       res = PI_DIV_BY_TWO - 2.0*res; 
....................    if (s) 
....................       res = -res; 
....................    if (n & 1)           // take arccos 
....................       res = PI_DIV_BY_TWO - res; 
....................  
....................    return(res); 
.................... } 
....................  
.................... //Overloaded functions for ASIN_COS() for PCD 
.................... // Overloaded function ASIN_COS() for data type - Float48 
.................... #if defined(__PCD__) 
.................... float48 ASIN_COS(float48 x, unsigned int8 n) 
.................... { 
....................    float48 y, res, r, y2; 
....................    int1 s; 
....................    #ifdef _ERRNO 
....................    if(x <-1 || x > 1) 
....................    { 
....................       errno=EDOM; 
....................    } 
....................    #endif 
....................    s = 0; 
....................    y = x; 
....................  
....................    if (x < 0) 
....................    { 
....................       s = 1; 
....................       y = -y; 
....................    } 
....................  
....................    if (y > 0.5) 
....................    { 
....................       y = sqrt((1.0 - y)/2.0); 
....................       n += 2; 
....................    } 
....................  
....................    y2=y*y; 
....................  
....................    res = pas[0]*y2 + pas[1]; 
....................    res = res*y2 + pas[2]; 
....................  
....................    r = qas[0]*y2 + qas[1]; 
....................    r = r*y2 + qas[2]; 
....................  
....................    res = y*res/r; 
....................  
....................    if (n & 2)     // |x| > 0.5 
....................       res = PI_DIV_BY_TWO - 2.0*res; 
....................    if (s) 
....................       res = -res; 
....................    if (n & 1)           // take arccos 
....................       res = PI_DIV_BY_TWO - res; 
....................  
....................    return(res); 
.................... } 
....................  
.................... // Overloaded function ASIN_COS() for data type - Float64 
.................... float64 ASIN_COS(float64 x, unsigned int8 n) 
.................... { 
....................    float64 y, res, r, y2; 
....................    int1 s; 
....................    #ifdef _ERRNO 
....................    if(x <-1 || x > 1) 
....................    { 
....................       errno=EDOM; 
....................    } 
....................    #endif 
....................    s = 0; 
....................    y = x; 
....................  
....................    if (x < 0) 
....................    { 
....................       s = 1; 
....................       y = -y; 
....................    } 
....................  
....................    if (y > 0.5) 
....................    { 
....................       y = sqrt((1.0 - y)/2.0); 
....................       n += 2; 
....................    } 
....................  
....................    y2=y*y; 
....................  
....................    res = pas[0]*y2 + pas[1]; 
....................    res = res*y2 + pas[2]; 
....................  
....................    r = qas[0]*y2 + qas[1]; 
....................    r = r*y2 + qas[2]; 
....................  
....................    res = y*res/r; 
....................  
....................    if (n & 2)     // |x| > 0.5 
....................       res = PI_DIV_BY_TWO - 2.0*res; 
....................    if (s) 
....................       res = -res; 
....................    if (n & 1)           // take arccos 
....................       res = PI_DIV_BY_TWO - res; 
....................  
....................    return(res); 
.................... } 
.................... #endif 
....................  
.................... //////////////////////////////////////////////////////////////////////////// 
.................... //   float asin(float x) 
.................... //////////////////////////////////////////////////////////////////////////// 
.................... // Description : returns the arcsine value of the value x. 
.................... // Date : N/A 
.................... // 
.................... float32 asin(float32 x) 
.................... { 
....................    float32 r; 
....................  
....................    r = ASIN_COS(x, 0); 
....................    return(r); 
.................... } 
.................... //Overloaded functions for asin() for PCD 
.................... // Overloaded function asin() for data type - Float48 
.................... #if defined(__PCD__) 
.................... float48 asin(float48 x) 
.................... { 
....................    float48 r; 
....................  
....................    r = ASIN_COS(x, 0); 
....................    return(r); 
.................... } 
....................  
.................... // Overloaded function asin() for data type - Float64 
.................... float64 asin(float64 x) 
.................... { 
....................    float64 r; 
....................  
....................    r = ASIN_COS(x, 0); 
....................    return(r); 
.................... } 
.................... #endif 
....................  
.................... //////////////////////////////////////////////////////////////////////////// 
.................... //   float acos(float x) 
.................... //////////////////////////////////////////////////////////////////////////// 
.................... // Description : returns the arccosine value of the value x. 
.................... // Date : N/A 
.................... // 
.................... float32 acos(float32 x) 
.................... { 
....................    float32 r; 
....................  
....................    r = ASIN_COS(x, 1); 
....................    return(r); 
.................... } 
.................... //Overloaded functions for acos() for PCD 
.................... // Overloaded function acos() for data type - Float48 
.................... #if defined(__PCD__) 
.................... float48 acos(float48 x) 
.................... { 
....................    float48 r; 
....................  
....................    r = ASIN_COS(x, 1); 
....................    return(r); 
.................... } 
....................  
.................... // Overloaded function acos() for data type - Float64 
.................... float64 acos(float64 x) 
.................... { 
....................    float64 r; 
....................  
....................    r = ASIN_COS(x, 1); 
....................    return(r); 
.................... } 
.................... #endif 
....................  
.................... float32 const pat[4] = {0.17630401, 5.6710795, 22.376096, 19.818457}; 
.................... float32 const qat[4] = {1.0000000,  11.368190, 28.982246, 19.818457}; 
....................  
.................... //////////////////////////////////////////////////////////////////////////// 
.................... //   float atan(float x) 
.................... //////////////////////////////////////////////////////////////////////////// 
.................... // Description : returns the arctangent value of the value x. 
.................... // Date : N/A 
.................... // 
.................... float32 atan(float32 x) 
.................... { 
....................    float32 y, res, r; 
....................    int1 s, flag; 
....................  
....................    s = 0; 
....................    flag = 0; 
....................    y = x; 
....................  
....................    if (x < 0) 
....................    { 
....................       s = 1; 
....................       y = -y; 
....................    } 
....................  
....................    if (y > 1.0) 
....................    { 
....................       y = 1.0/y; 
....................       flag = 1; 
....................    } 
....................  
....................    res = pat[0]*y*y + pat[1]; 
....................    res = res*y*y + pat[2]; 
....................    res = res*y*y + pat[3]; 
....................  
....................    r = qat[0]*y*y + qat[1]; 
....................    r = r*y*y + qat[2]; 
....................    r = r*y*y + qat[3]; 
....................  
....................    res = y*res/r; 
....................  
....................  
....................    if (flag)                              // for |x| > 1 
....................       res = PI_DIV_BY_TWO - res; 
....................    if (s) 
....................       res = -res; 
....................  
....................    return(res); 
.................... } 
.................... //Overloaded functions for atan() for PCD 
.................... // Overloaded function atan() for data type - Float48 
.................... #if defined(__PCD__) 
.................... float48 atan(float48 x) 
.................... { 
....................    float48 y, res, r; 
....................    int1 s, flag; 
....................  
....................    s = 0; 
....................    flag = 0; 
....................    y = x; 
....................  
....................    if (x < 0) 
....................    { 
....................       s = 1; 
....................       y = -y; 
....................    } 
....................  
....................    if (y > 1.0) 
....................    { 
....................       y = 1.0/y; 
....................       flag = 1; 
....................    } 
....................  
....................    res = pat[0]*y*y + pat[1]; 
....................    res = res*y*y + pat[2]; 
....................    res = res*y*y + pat[3]; 
....................  
....................    r = qat[0]*y*y + qat[1]; 
....................    r = r*y*y + qat[2]; 
....................    r = r*y*y + qat[3]; 
....................  
....................    res = y*res/r; 
....................  
....................  
....................    if (flag)                              // for |x| > 1 
....................       res = PI_DIV_BY_TWO - res; 
....................    if (s) 
....................       res = -res; 
....................  
....................    return(res); 
.................... } 
....................  
.................... // Overloaded function atan() for data type - Float64 
.................... float64 atan(float64 x) 
.................... { 
....................    float64 y, res, r; 
....................    int1 s, flag; 
....................  
....................    s = 0; 
....................    flag = 0; 
....................    y = x; 
....................  
....................    if (x < 0) 
....................    { 
....................       s = 1; 
....................       y = -y; 
....................    } 
....................  
....................    if (y > 1.0) 
....................    { 
....................       y = 1.0/y; 
....................       flag = 1; 
....................    } 
....................  
....................    res = pat[0]*y*y + pat[1]; 
....................    res = res*y*y + pat[2]; 
....................    res = res*y*y + pat[3]; 
....................  
....................    r = qat[0]*y*y + qat[1]; 
....................    r = r*y*y + qat[2]; 
....................    r = r*y*y + qat[3]; 
....................  
....................    res = y*res/r; 
....................  
....................  
....................    if (flag)                              // for |x| > 1 
....................       res = PI_DIV_BY_TWO - res; 
....................    if (s) 
....................       res = -res; 
....................  
....................    return(res); 
.................... } 
.................... #endif 
....................  
.................... ///////////////////////////////////////////////////////////////////////////// 
.................... //   float atan2(float y, float x) 
.................... ///////////////////////////////////////////////////////////////////////////// 
.................... // Description :computes the principal value of arc tangent of y/x, using the 
.................... // signs of both the arguments to determine the quadrant of the return value 
.................... // Returns : returns the arc tangent of y/x. 
.................... // Date : N/A 
.................... // 
....................  
.................... float32 atan2(float32 y,float32 x) 
.................... { 
....................    float32 z; 
....................    int1 sign; 
....................    unsigned int8 quad; 
....................    sign=0; 
....................    quad=0; //quadrant 
....................    quad=((y<=0.0)?((x<=0.0)?3:4):((x<0.0)?2:1)); 
....................    if(y<0.0) 
....................    { 
....................       sign=1; 
....................       y=-y; 
....................    } 
....................    if(x<0.0) 
....................    { 
....................       x=-x; 
....................    } 
....................    if (x==0.0) 
....................    { 
....................       if(y==0.0) 
....................       { 
....................       #ifdef _ERRNO 
....................       { 
....................          errno=EDOM; 
....................       } 
....................       #endif 
....................       } 
....................       else 
....................       { 
....................          if(sign) 
....................          { 
....................          return (-(PI_DIV_BY_TWO)); 
....................          } 
....................          else 
....................          { 
....................          return (PI_DIV_BY_TWO); 
....................          } 
....................       } 
....................    } 
....................    else 
....................    { 
....................       z=y/x; 
....................       switch(quad) 
....................       { 
....................          case 1: 
....................          { 
....................             return atan(z); 
....................             break; 
....................          } 
....................          case 2: 
....................          { 
.................... //            return (atan(z)+PI_DIV_BY_TWO);  //2L3122 
....................             return (PI-atan(z)); 
....................             break; 
....................          } 
....................          case 3: 
....................          { 
....................             return (atan(z)-PI); 
....................             break; 
....................          } 
....................          case 4: 
....................          { 
....................             return (-atan(z)); 
....................             break; 
....................          } 
....................       } 
....................    } 
.................... } 
....................  
.................... //Overloaded functions for atan2() for PCD 
.................... // Overloaded function atan2() for data type - Float48 
.................... #if defined(__PCD__) 
.................... float48 atan2(float48 y,float48 x) 
.................... { 
....................    float48 z; 
....................    int1 sign; 
....................    unsigned int8 quad; 
....................    sign=0; 
....................    quad=0; //quadrant 
....................    quad=((y<=0.0)?((x<=0.0)?3:4):((x<0.0)?2:1)); 
....................    if(y<0.0) 
....................    { 
....................       sign=1; 
....................       y=-y; 
....................    } 
....................    if(x<0.0) 
....................    { 
....................       x=-x; 
....................    } 
....................    if (x==0.0) 
....................    { 
....................       if(y==0.0) 
....................       { 
....................       #ifdef _ERRNO 
....................       { 
....................          errno=EDOM; 
....................       } 
....................       #endif 
....................       } 
....................       else 
....................       { 
....................          if(sign) 
....................          { 
....................          return (-(PI_DIV_BY_TWO)); 
....................          } 
....................          else 
....................          { 
....................          return (PI_DIV_BY_TWO); 
....................          } 
....................       } 
....................    } 
....................    else 
....................    { 
....................       z=y/x; 
....................       switch(quad) 
....................       { 
....................          case 1: 
....................          { 
....................             return atan(z); 
....................             break; 
....................          } 
....................          case 2: 
....................          { 
.................... //            return (atan(z)+PI_DIV_BY_TWO);  //2L3122 
....................             return (PI-atan(z)); 
....................             break; 
....................          } 
....................          case 3: 
....................          { 
....................             return (atan(z)-PI); 
....................             break; 
....................          } 
....................          case 4: 
....................          { 
....................             return (-atan(z)); 
....................             break; 
....................          } 
....................       } 
....................    } 
.................... } 
....................  
.................... // Overloaded function atan2() for data type - Float64 
.................... float64 atan2(float64 y,float64 x) 
.................... { 
....................    float64 z; 
....................    int1 sign; 
....................    unsigned int8 quad; 
....................    sign=0; 
....................    quad=0; //quadrant 
....................    quad=((y<=0.0)?((x<=0.0)?3:4):((x<0.0)?2:1)); 
....................    if(y<0.0) 
....................    { 
....................       sign=1; 
....................       y=-y; 
....................    } 
....................    if(x<0.0) 
....................    { 
....................       x=-x; 
....................    } 
....................    if (x==0.0) 
....................    { 
....................       if(y==0.0) 
....................       { 
....................       #ifdef _ERRNO 
....................       { 
....................          errno=EDOM; 
....................       } 
....................       #endif 
....................       } 
....................       else 
....................       { 
....................          if(sign) 
....................          { 
....................          return (-(PI_DIV_BY_TWO)); 
....................          } 
....................          else 
....................          { 
....................          return (PI_DIV_BY_TWO); 
....................          } 
....................       } 
....................    } 
....................    else 
....................    { 
....................       z=y/x; 
....................       switch(quad) 
....................       { 
....................          case 1: 
....................          { 
....................             return atan(z); 
....................             break; 
....................          } 
....................          case 2: 
....................          { 
.................... //            return (atan(z)+PI_DIV_BY_TWO);  //2L3122 
....................             return (PI-atan(z)); 
....................             break; 
....................          } 
....................          case 3: 
....................          { 
....................             return (atan(z)-PI); 
....................             break; 
....................          } 
....................          case 4: 
....................          { 
....................             return (-atan(z)); 
....................             break; 
....................          } 
....................       } 
....................    } 
.................... } 
.................... #endif 
....................  
.................... //////////////////// Hyperbolic functions //////////////////// 
....................  
.................... //////////////////////////////////////////////////////////////////////////// 
.................... //   float cosh(float x) 
.................... //////////////////////////////////////////////////////////////////////////// 
.................... // Description : Computes the hyperbolic cosine value of x 
.................... // Returns : returns the hyperbolic cosine value of x 
.................... // Date : N/A 
.................... // 
....................  
.................... float32 cosh(float32 x) 
.................... { 
....................    return ((exp(x)+exp(-x))/2); 
.................... } 
.................... //Overloaded functions for cosh() for PCD 
.................... // Overloaded function cosh() for data type - Float48 
.................... #if defined(__PCD__) 
.................... float48 cosh(float48 x) 
.................... { 
....................    return ((exp(x)+exp(-x))/2); 
.................... } 
....................  
.................... // Overloaded function cosh() for data type - Float64 
.................... float64 cosh(float64 x) 
.................... { 
....................    return ((exp(x)+exp(-x))/2); 
.................... } 
.................... #endif 
....................  
.................... //////////////////////////////////////////////////////////////////////////// 
.................... //   float sinh(float x) 
.................... //////////////////////////////////////////////////////////////////////////// 
.................... // Description : Computes the hyperbolic sine value of x 
.................... // Returns : returns the hyperbolic sine value of x 
.................... // Date : N/A 
.................... // 
....................  
.................... float32 sinh(float32 x) 
.................... { 
....................  
....................    return ((exp(x) - exp(-x))/2); 
.................... } 
.................... //Overloaded functions for sinh() for PCD 
.................... // Overloaded function sinh() for data type - Float48 
.................... #if defined(__PCD__) 
.................... float48 sinh(float48 x) 
.................... { 
....................  
....................    return ((exp(x) - exp(-x))/2); 
.................... } 
....................  
.................... // Overloaded function sinh() for data type - Float48 
.................... float64 sinh(float64 x) 
.................... { 
....................  
....................    return ((exp(x) - exp(-x))/2); 
.................... } 
.................... #endif 
....................  
.................... //////////////////////////////////////////////////////////////////////////// 
.................... //   float tanh(float x) 
.................... //////////////////////////////////////////////////////////////////////////// 
.................... // Description : Computes the hyperbolic tangent value of x 
.................... // Returns : returns the hyperbolic tangent value of x 
.................... // Date : N/A 
.................... // 
....................  
.................... float32 tanh(float32 x) 
.................... { 
....................    return(sinh(x)/cosh(x)); 
.................... } 
.................... //Overloaded functions for tanh() for PCD 
.................... // Overloaded function tanh() for data type - Float48 
.................... #if defined(__PCD__) 
.................... float48 tanh(float48 x) 
.................... { 
....................    return(sinh(x)/cosh(x)); 
.................... } 
....................  
.................... // Overloaded function tanh() for data type - Float64 
.................... float64 tanh(float64 x) 
.................... { 
....................    return(sinh(x)/cosh(x)); 
.................... } 
.................... #endif 
....................  
.................... //////////////////////////////////////////////////////////////////////////// 
.................... //   float frexp(float x, signed int *exp) 
.................... //////////////////////////////////////////////////////////////////////////// 
.................... // Description : breaks a floating point number into a normalized fraction and an integral 
.................... // power of 2. It stores the integer in the signed int object pointed to by exp. 
.................... // Returns : returns the value x, such that x is a double with magnitude in the interval 
.................... // [1/2,1) or zero, and value equals x times 2 raised to the power *exp.If value is zero, 
.................... // both parts of the result are zero. 
.................... // Date : N/A 
.................... // 
....................  
.................... #define LOG2 .30102999566398119521 
.................... float32 frexp(float32 x, signed int8 *exp) 
.................... { 
....................    float32 res; 
....................    int1 sign = 0; 
....................    if(x == 0.0) 
....................    { 
....................       *exp=0; 
....................       return (0.0); 
....................    } 
....................    if(x < 0.0) 
....................    { 
....................      x=-x; 
....................      sign=1; 
....................    } 
....................    if (x > 1.0) 
....................    { 
....................       *exp=(ceil(log10(x)/LOG2)); 
....................       res=x/(pow(2, *exp)); 
....................       if (res == 1) 
....................       { 
....................          *exp=*exp+1; 
....................           res=.5; 
....................       } 
....................    } 
....................    else 
....................    { 
....................       if(x < 0.5) 
....................       { 
....................          *exp=-1; 
....................          res=x*2; 
....................       } 
....................       else 
....................       { 
....................          *exp=0; 
....................           res=x; 
....................       } 
....................    } 
....................    if(sign) 
....................    { 
....................       res=-res; 
....................    } 
....................    return res; 
.................... } 
....................  
.................... //Overloaded functions for frexp() for PCD 
.................... // Overloaded function frexp() for data type - Float48 
.................... #if defined(__PCD__) 
.................... float48 frexp(float48 x, signed int8 *exp) 
.................... { 
....................    float48 res; 
....................    int1 sign = 0; 
....................    if(x == 0.0) 
....................    { 
....................       *exp=0; 
....................       return (0.0); 
....................    } 
....................    if(x < 0.0) 
....................    { 
....................      x=-x; 
....................      sign=1; 
....................    } 
....................    if (x > 1.0) 
....................    { 
....................       *exp=(ceil(log10(x)/LOG2)); 
....................       res=x/(pow(2, *exp)); 
....................       if (res == 1) 
....................       { 
....................          *exp=*exp+1; 
....................           res=.5; 
....................       } 
....................    } 
....................    else 
....................    { 
....................       if(x < 0.5) 
....................       { 
....................          *exp=-1; 
....................          res=x*2; 
....................       } 
....................       else 
....................       { 
....................          *exp=0; 
....................           res=x; 
....................       } 
....................    } 
....................    if(sign) 
....................    { 
....................       res=-res; 
....................    } 
....................    return res; 
.................... } 
....................  
.................... // Overloaded function frexp() for data type - Float64 
.................... float64 frexp(float64 x, signed int8 *exp) 
.................... { 
....................    float64 res; 
....................    int1 sign = 0; 
....................    if(x == 0.0) 
....................    { 
....................       *exp=0; 
....................       return (0.0); 
....................    } 
....................    if(x < 0.0) 
....................    { 
....................      x=-x; 
....................      sign=1; 
....................    } 
....................    if (x > 1.0) 
....................    { 
....................       *exp=(ceil(log10(x)/LOG2)); 
....................       res=x/(pow(2, *exp)); 
....................       if (res == 1) 
....................       { 
....................          *exp=*exp+1; 
....................           res=.5; 
....................       } 
....................    } 
....................    else 
....................    { 
....................       if(x < 0.5) 
....................       { 
....................          *exp=-1; 
....................          res=x*2; 
....................       } 
....................       else 
....................       { 
....................          *exp=0; 
....................           res=x; 
....................       } 
....................    } 
....................    if(sign) 
....................    { 
....................       res=-res; 
....................    } 
....................    return res; 
.................... } 
.................... #endif 
....................  
.................... ////////////////////////////////////////////////////////////////////////////// 
.................... //   float ldexp(float x, signed int *exp) 
.................... ////////////////////////////////////////////////////////////////////////////// 
.................... // Description : multiplies a floating point number by an integral power of 2. 
.................... // Returns : returns the value of x times 2 raised to the power exp. 
.................... // Date : N/A 
.................... // 
....................  
.................... float32 ldexp(float32 value, signed int8 exp) 
.................... { 
....................    return (value * pow(2,exp)); 
.................... } 
.................... //Overloaded functions for ldexp() for PCD 
.................... // Overloaded function ldexp() for data type - Float48 
....................  
.................... #if defined(__PCD__) 
.................... float48 ldexp(float48 value, signed int8 exp) 
.................... { 
....................    return (value * pow(2,exp)); 
.................... } 
.................... // Overloaded function ldexp() for data type - Float64 
.................... float64 ldexp(float64 value, signed int8 exp) 
.................... { 
....................    return (value * pow(2,exp)); 
.................... } 
.................... #endif 
....................  
.................... #endif 
....................  
.................... #include "HDM64GS12.c" 
.................... ///////////////////////////////////////////////////////////////////////// 
.................... ////                           HDM64GS12.c                           //// 
.................... ////                                                                 //// 
.................... //// This file contains drivers for using a Hantronix HDM64GS12 with //// 
.................... //// a KS0108 display controller. The HDM64GS12 is 128 by 64 pixels. //// 
.................... //// The driver treats the upper left pixel as (0,0).                //// 
.................... ////                                                                 //// 
.................... //// Use #define FAST_GLCD if the target chip has at least 1k of RAM //// 
.................... //// to decrease the time it takes to update the display.            //// 
.................... //// glcd_update() must then be called to update the display after   //// 
.................... //// changing the pixel information.                                 //// 
.................... //// See ex_glcd.c for suggested usage.                              //// 
.................... //// See KS0108.c for controlling a single 64 by 64 display          //// 
.................... ///////////////////////////////////////////////////////////////////////// 
.................... ////                                                                 //// 
.................... //// LCD Pin connections:                                            //// 
.................... //// (These can be changed as needed in the following defines).      //// 
.................... ////  * 1: VSS is connected to GND                                   //// 
.................... ////  * 2: VDD is connected to +5V                                   //// 
.................... ////  * 3: V0  - LCD operating voltage (Constrast adjustment)        //// 
.................... ////  * 4: D/I - Data or Instruction is connected to B2              //// 
.................... ////  * 5: R/W - Read or Write is connected to B4                    //// 
.................... ////  * 6: Enable is connected to B5                                 //// 
.................... ////  *7-14: Data Bus 0 to 7 is connected to port d                  //// 
.................... ////  *15: Chip Select 1 is connected to B0                          //// 
.................... ////  *16: Chip Select 2 is connected to B1                          //// 
.................... ////  *17: Reset is connected to C0                                  //// 
.................... ////  *18: Negative voltage is also connected to the 20k Ohm POT     //// 
.................... ////  *19: Positive voltage for LED backlight is connected to +5V    //// 
.................... ////  *20: Negavtive voltage for LED backlight is connected to GND   //// 
.................... ////                                                                 //// 
.................... ///////////////////////////////////////////////////////////////////////// 
.................... ////                                                                 //// 
.................... ////  glcd_init(mode)                                                //// 
.................... ////     * Must be called before any other function.                 //// 
.................... ////       - mode can be ON or OFF to turn the LCD on or off         //// 
.................... ////                                                                 //// 
.................... ////  glcd_pixel(x,y,color)                                          //// 
.................... ////     * Sets the pixel to the given color.                        //// 
.................... ////       - color can be ON or OFF                                  //// 
.................... ////                                                                 //// 
.................... ////  glcd_fillScreen(color)                                         //// 
.................... ////     * Fills the entire LCD with the given color.                //// 
.................... ////       - color can be ON or OFF                                  //// 
.................... ////                                                                 //// 
.................... ////  glcd_update()                                                  //// 
.................... ////     * Write the display data stored in RAM to the LCD           //// 
.................... ////     * Only available if FAST_GLCD is defined                    //// 
.................... ////                                                                 //// 
.................... ///////////////////////////////////////////////////////////////////////// 
.................... ////        (C) Copyright 1996, 2004 Custom Computer Services        //// 
.................... //// This source code may only be used by licensed users of the CCS  //// 
.................... //// C compiler.  This source code may only be distributed to other  //// 
.................... //// licensed users of the CCS C compiler.  No other use,            //// 
.................... //// reproduction or distribution is permitted without written       //// 
.................... //// permission.  Derivative programs created using this software    //// 
.................... //// in object code form are not restricted in any way.              //// 
.................... ///////////////////////////////////////////////////////////////////////// 
....................  
....................  
....................  
.................... #ifndef HDM64GS12 
.................... #define HDM64GS12 
....................  
.................... #ifndef FAST_GLCD 
.................... #define FAST_GLCD 
....................  
.................... #ifndef GLCD_WIDTH 
.................... #define GLCD_WIDTH   128 
.................... #endif 
....................  
.................... #ifndef GLCD_CS1 
.................... #define GLCD_CS1     PIN_B2   // Chip Selection 1 
.................... #endif 
....................  
.................... #ifndef GLCD_CS2 
.................... #define GLCD_CS2     PIN_B3   // Chip Selection 2 
.................... #endif 
....................  
.................... #ifndef GLCD_DI 
.................... #define GLCD_DI      PIN_B5   // Data or Instruction input 
.................... #endif 
....................  
.................... #ifndef GLCD_RW 
.................... #define GLCD_RW      PIN_B6   // Read/Write 
.................... #endif 
....................  
.................... #ifndef GLCD_E 
.................... #define GLCD_E       PIN_B7   // Enable 
.................... #endif 
....................  
.................... #ifndef GLCD_RST 
.................... #define GLCD_RST     PIN_B4   // Reset 
.................... #endif 
....................  
.................... #define GLCD_LEFT    0 
.................... #define GLCD_RIGHT   1 
....................  
.................... #ifndef ON 
.................... #define ON           1 
.................... #endif 
....................  
.................... #ifndef OFF 
.................... #define OFF          0 
.................... #endif 
....................  
.................... ///////////////////////////////////////////////////////////////////////// 
.................... // Function Prototypes 
.................... ///////////////////////////////////////////////////////////////////////// 
.................... void glcd_init(int1 mode); 
.................... void glcd_pixel(int8 x, int8 y, int1 color); 
.................... void glcd_fillScreen(int1 color); 
.................... void glcd_writeByte(int1 side, BYTE data); 
.................... BYTE glcd_readByte(int1 side); 
.................... void glcd_update(); 
.................... ///////////////////////////////////////////////////////////////////////// 
....................  
.................... #ifdef FAST_GLCD 
.................... struct 
.................... { 
....................    int8 left[512]; 
....................    int8 right[512]; 
.................... } displayData; 
.................... #endif 
....................  
....................  
.................... // Purpose:       Initialize the LCD. 
.................... //                Call before using any other LCD function. 
.................... // Inputs:        OFF - Turns the LCD off 
.................... //                ON  - Turns the LCD on 
.................... void glcd_init(int1 mode) 
.................... { 
....................    // Initialze some pins 
....................    output_high(GLCD_RST); 
*
016D2:  BCF    F93.4
016D4:  BSF    F8A.4
....................    output_low(GLCD_E); 
016D6:  BCF    F93.7
016D8:  BCF    F8A.7
....................    output_low(GLCD_CS1); 
016DA:  BCF    F93.2
016DC:  BCF    F8A.2
....................    output_low(GLCD_CS2); 
016DE:  BCF    F93.3
016E0:  BCF    F8A.3
....................  
....................    output_low(GLCD_DI);                 // Set for instruction 
016E2:  BCF    F93.5
016E4:  BCF    F8A.5
....................    glcd_writeByte(GLCD_LEFT,  0xC0);    // Specify first RAM line at the top 
016E6:  MOVLB  5
016E8:  CLRF   xEC
016EA:  MOVLW  C0
016EC:  MOVWF  xED
016EE:  MOVLB  0
016F0:  RCALL  158A
....................    glcd_writeByte(GLCD_RIGHT, 0xC0);    //   of the screen 
016F2:  MOVLW  01
016F4:  MOVLB  5
016F6:  MOVWF  xEC
016F8:  MOVLW  C0
016FA:  MOVWF  xED
016FC:  MOVLB  0
016FE:  RCALL  158A
....................    glcd_writeByte(GLCD_LEFT,  0x40);    // Set the column address to 0 
01700:  MOVLB  5
01702:  CLRF   xEC
01704:  MOVLW  40
01706:  MOVWF  xED
01708:  MOVLB  0
0170A:  RCALL  158A
....................    glcd_writeByte(GLCD_RIGHT, 0x40); 
0170C:  MOVLW  01
0170E:  MOVLB  5
01710:  MOVWF  xEC
01712:  MOVLW  40
01714:  MOVWF  xED
01716:  MOVLB  0
01718:  RCALL  158A
....................    glcd_writeByte(GLCD_LEFT,  0xB8);    // Set the page address to 0 
0171A:  MOVLB  5
0171C:  CLRF   xEC
0171E:  MOVLW  B8
01720:  MOVWF  xED
01722:  MOVLB  0
01724:  RCALL  158A
....................    glcd_writeByte(GLCD_RIGHT, 0xB8); 
01726:  MOVLW  01
01728:  MOVLB  5
0172A:  MOVWF  xEC
0172C:  MOVLW  B8
0172E:  MOVWF  xED
01730:  MOVLB  0
01732:  RCALL  158A
....................  
....................    if(mode == ON) 
01734:  MOVLB  5
01736:  DECFSZ xDD,W
01738:  BRA    1756
....................    { 
....................       glcd_writeByte(GLCD_LEFT,  0x3F); // Turn the display on 
0173A:  CLRF   xEC
0173C:  MOVLW  3F
0173E:  MOVWF  xED
01740:  MOVLB  0
01742:  RCALL  158A
....................       glcd_writeByte(GLCD_RIGHT, 0x3F); 
01744:  MOVLW  01
01746:  MOVLB  5
01748:  MOVWF  xEC
0174A:  MOVLW  3F
0174C:  MOVWF  xED
0174E:  MOVLB  0
01750:  RCALL  158A
....................    } 
....................    else 
01752:  BRA    176E
01754:  MOVLB  5
....................    { 
....................       glcd_writeByte(GLCD_LEFT,  0x3E); // Turn the display off 
01756:  CLRF   xEC
01758:  MOVLW  3E
0175A:  MOVWF  xED
0175C:  MOVLB  0
0175E:  RCALL  158A
....................       glcd_writeByte(GLCD_RIGHT, 0x3E); 
01760:  MOVLW  01
01762:  MOVLB  5
01764:  MOVWF  xEC
01766:  MOVLW  3E
01768:  MOVWF  xED
0176A:  MOVLB  0
0176C:  RCALL  158A
....................    } 
....................  
....................    glcd_fillScreen(OFF);                // Clear the display 
0176E:  MOVLB  5
01770:  CLRF   xE5
01772:  MOVLB  0
01774:  RCALL  15C0
....................  
....................    #ifdef FAST_GLCD 
....................    glcd_update(); 
01776:  RCALL  161A
....................    #endif 
.................... } 
01778:  RETLW  00
....................  
....................  
.................... // Purpose:    Update the LCD with data from the display arrays 
.................... #ifdef FAST_GLCD 
.................... void glcd_update() 
.................... { 
....................    int8 i, j; 
....................    int8 *p1, *p2; 
....................  
....................    p1 = displayData.left; 
*
0161A:  MOVLB  5
0161C:  CLRF   xE8
0161E:  MOVLW  16
01620:  MOVWF  xE7
....................    p2 = displayData.right; 
01622:  MOVLW  02
01624:  MOVWF  xEA
01626:  MOVLW  16
01628:  MOVWF  xE9
....................  
....................    // Loop through the vertical pages 
....................    for(i = 0; i < 8; ++i) 
0162A:  CLRF   xE5
0162C:  MOVF   xE5,W
0162E:  SUBLW  07
01630:  BNC   16CE
....................    { 
....................       output_low(GLCD_DI);                      // Set for instruction 
01632:  BCF    F93.5
01634:  BCF    F8A.5
....................       glcd_writeByte(GLCD_LEFT, 0x40);          // Set horizontal address to 0 
01636:  CLRF   xEC
01638:  MOVLW  40
0163A:  MOVWF  xED
0163C:  MOVLB  0
0163E:  RCALL  158A
....................       glcd_writeByte(GLCD_RIGHT, 0x40); 
01640:  MOVLW  01
01642:  MOVLB  5
01644:  MOVWF  xEC
01646:  MOVLW  40
01648:  MOVWF  xED
0164A:  MOVLB  0
0164C:  RCALL  158A
....................       glcd_writeByte(GLCD_LEFT, i | 0xB8);      // Set page address 
0164E:  MOVLB  5
01650:  MOVF   xE5,W
01652:  IORLW  B8
01654:  MOVWF  xEB
01656:  CLRF   xEC
01658:  MOVWF  xED
0165A:  MOVLB  0
0165C:  RCALL  158A
....................       glcd_writeByte(GLCD_RIGHT, i | 0xB8); 
0165E:  MOVLB  5
01660:  MOVF   xE5,W
01662:  IORLW  B8
01664:  MOVWF  xEB
01666:  MOVLW  01
01668:  MOVWF  xEC
0166A:  MOVFF  5EB,5ED
0166E:  MOVLB  0
01670:  RCALL  158A
....................       output_high(GLCD_DI);                     // Set for data 
01672:  BCF    F93.5
01674:  BSF    F8A.5
....................  
....................       // Loop through the horizontal sections 
....................       for(j = 0; j < 64; ++j) 
01676:  MOVLB  5
01678:  CLRF   xE6
0167A:  MOVF   xE6,W
0167C:  SUBLW  3F
0167E:  BNC   16CA
....................       { 
....................          glcd_writeByte(GLCD_LEFT, *p1++);      // Turn pixels on or off 
01680:  MOVFF  5E8,03
01684:  MOVF   xE7,W
01686:  INCF   xE7,F
01688:  BTFSC  FD8.2
0168A:  INCF   xE8,F
0168C:  MOVWF  FE9
0168E:  MOVFF  03,FEA
01692:  MOVFF  FEF,5EB
01696:  CLRF   xEC
01698:  MOVFF  5EB,5ED
0169C:  MOVLB  0
0169E:  RCALL  158A
....................          glcd_writeByte(GLCD_RIGHT, *p2++);     // Turn pixels on or off 
016A0:  MOVLB  5
016A2:  MOVFF  5EA,03
016A6:  MOVF   xE9,W
016A8:  INCF   xE9,F
016AA:  BTFSC  FD8.2
016AC:  INCF   xEA,F
016AE:  MOVWF  FE9
016B0:  MOVFF  03,FEA
016B4:  MOVFF  FEF,5EB
016B8:  MOVLW  01
016BA:  MOVWF  xEC
016BC:  MOVFF  5EB,5ED
016C0:  MOVLB  0
016C2:  RCALL  158A
....................       } 
016C4:  MOVLB  5
016C6:  INCF   xE6,F
016C8:  BRA    167A
....................    } 
016CA:  INCF   xE5,F
016CC:  BRA    162C
.................... } 
016CE:  MOVLB  0
016D0:  RETLW  00
.................... #endif 
....................  
....................  
.................... // Purpose:    Turn a pixel on a graphic LCD on or off 
.................... // Inputs:     1) x - the x coordinate of the pixel 
.................... //             2) y - the y coordinate of the pixel 
.................... //             3) color - ON or OFF 
.................... void glcd_pixel(int8 x, int8 y, int1 color) 
.................... #ifdef FAST_GLCD 
.................... { 
....................    int8* p; 
....................    int16 temp; 
....................    temp =  y/8; 
*
04686:  MOVLB  6
04688:  CLRF   x17
0468A:  RRCF   x12,W
0468C:  MOVWF  x16
0468E:  RRCF   x16,F
04690:  RRCF   x16,F
04692:  MOVLW  1F
04694:  ANDWF  x16,F
....................    temp *= 64; 
04696:  RLCF   x16,F
04698:  RLCF   x17,F
0469A:  RLCF   x16,F
0469C:  RLCF   x17,F
0469E:  RLCF   x16,F
046A0:  RLCF   x17,F
046A2:  RLCF   x16,F
046A4:  RLCF   x17,F
046A6:  RLCF   x16,F
046A8:  RLCF   x17,F
046AA:  RLCF   x16,F
046AC:  RLCF   x17,F
046AE:  MOVLW  C0
046B0:  ANDWF  x16,F
....................    temp += x; 
046B2:  MOVF   x11,W
046B4:  ADDWF  x16,F
046B6:  MOVLW  00
046B8:  ADDWFC x17,F
....................  
....................    if(x > 63) 
046BA:  MOVF   x11,W
046BC:  SUBLW  3F
046BE:  BC    46DA
....................    { 
....................       p = displayData.right + temp - 64; 
046C0:  MOVLW  16
046C2:  ADDWF  x16,W
046C4:  MOVWF  x18
046C6:  MOVLW  02
046C8:  ADDWFC x17,W
046CA:  MOVWF  x19
046CC:  MOVLW  40
046CE:  SUBWF  x18,W
046D0:  MOVWF  x14
046D2:  MOVLW  00
046D4:  SUBWFB x19,W
046D6:  MOVWF  x15
....................    } 
....................    else 
046D8:  BRA    46E6
....................    { 
....................       p = displayData.left + temp; 
046DA:  MOVLW  16
046DC:  ADDWF  x16,W
046DE:  MOVWF  x14
046E0:  MOVLW  00
046E2:  ADDWFC x17,W
046E4:  MOVWF  x15
....................    } 
....................  
....................    if(color) 
046E6:  MOVF   x13,F
046E8:  BZ    4714
....................    { 
....................       bit_set(*p, y%8); 
046EA:  MOVFF  615,03
046EE:  MOVFF  614,FE9
046F2:  MOVFF  615,FEA
046F6:  MOVF   x12,W
046F8:  ANDLW  07
046FA:  MOVWF  x18
046FC:  MOVLW  01
046FE:  MOVWF  00
04700:  MOVF   x18,W
04702:  MOVWF  01
04704:  BZ    470E
04706:  BCF    FD8.0
04708:  RLCF   00,F
0470A:  DECFSZ 01,F
0470C:  BRA    4706
0470E:  MOVF   00,W
04710:  IORWF  FEF,F
....................    } 
....................    else 
04712:  BRA    473E
....................    { 
....................       bit_clear(*p, y%8); 
04714:  MOVFF  615,03
04718:  MOVFF  614,FE9
0471C:  MOVFF  615,FEA
04720:  MOVF   x12,W
04722:  ANDLW  07
04724:  MOVWF  x18
04726:  MOVLW  01
04728:  MOVWF  00
0472A:  MOVF   x18,W
0472C:  MOVWF  01
0472E:  BZ    4738
04730:  BCF    FD8.0
04732:  RLCF   00,F
04734:  DECFSZ 01,F
04736:  BRA    4730
04738:  MOVF   00,W
0473A:  XORLW  FF
0473C:  ANDWF  FEF,F
....................    } 
.................... } 
0473E:  MOVLB  0
04740:  RETLW  00
.................... #else 
.................... { 
....................    BYTE data; 
....................    int1 side = GLCD_LEFT;  // Stores which chip to use on the LCD 
....................  
....................    if(x > 63)              // Check for first or second display area 
....................    { 
....................       x -= 64; 
....................       side = GLCD_RIGHT; 
....................    } 
....................  
....................    output_low(GLCD_DI);                         // Set for instruction 
....................    bit_clear(x,7);                              // Clear the MSB. Part of an instruction code 
....................    bit_set(x,6);                                // Set bit 6. Also part of an instruction code 
....................    glcd_writeByte(side, x);                     // Set the horizontal address 
....................    glcd_writeByte(side, (y/8 & 0xBF) | 0xB8);   // Set the vertical page address 
....................    output_high(GLCD_DI);                        // Set for data 
....................    glcd_readByte(side);                         // Need two reads to get data 
....................    data = glcd_readByte(side);                  //  at new address 
....................  
....................    if(color == ON) 
....................       bit_set(data, y%8);        // Turn the pixel on 
....................    else                          // or 
....................       bit_clear(data, y%8);      // turn the pixel off 
....................  
....................    output_low(GLCD_DI);          // Set for instruction 
....................    glcd_writeByte(side, x);      // Set the horizontal address 
....................    output_high(GLCD_DI);         // Set for data 
....................    glcd_writeByte(side, data);   // Write the pixel data 
.................... } 
.................... #endif 
....................  
....................  
.................... // Purpose:    Fill the LCD screen with the passed in color 
.................... // Inputs:     ON  - turn all the pixels on 
.................... //             OFF - turn all the pixels off 
.................... void glcd_fillScreen(int1 color) 
.................... #ifdef FAST_GLCD 
.................... { 
....................    int8  data; 
....................    int8  *p1, *p2; 
....................    int16 i; 
....................  
....................    p1 = displayData.left; 
*
015C0:  MOVLB  5
015C2:  CLRF   xE8
015C4:  MOVLW  16
015C6:  MOVWF  xE7
....................    p2 = displayData.right; 
015C8:  MOVLW  02
015CA:  MOVWF  xEA
015CC:  MOVLW  16
015CE:  MOVWF  xE9
....................    data = 0xFF * color; 
015D0:  MOVF   xE5,W
015D2:  MULLW  FF
015D4:  MOVFF  FF3,5E6
....................  
....................    for(i=0; i<512; ++i) 
015D8:  CLRF   xEC
015DA:  CLRF   xEB
015DC:  MOVF   xEC,W
015DE:  SUBLW  01
015E0:  BNC   1616
....................    { 
....................       *p1++ = data; 
015E2:  MOVFF  5E8,03
015E6:  MOVF   xE7,W
015E8:  INCF   xE7,F
015EA:  BTFSC  FD8.2
015EC:  INCF   xE8,F
015EE:  MOVWF  FE9
015F0:  MOVFF  03,FEA
015F4:  MOVFF  5E6,FEF
....................       *p2++ = data; 
015F8:  MOVFF  5EA,03
015FC:  MOVF   xE9,W
015FE:  INCF   xE9,F
01600:  BTFSC  FD8.2
01602:  INCF   xEA,F
01604:  MOVWF  FE9
01606:  MOVFF  03,FEA
0160A:  MOVFF  5E6,FEF
....................    } 
0160E:  INCF   xEB,F
01610:  BTFSC  FD8.2
01612:  INCF   xEC,F
01614:  BRA    15DC
.................... } 
01616:  MOVLB  0
01618:  RETLW  00
.................... #else 
.................... { 
....................    int8 i, j; 
....................  
....................    // Loop through the vertical pages 
....................    for(i = 0; i < 8; ++i) 
....................    { 
....................       output_low(GLCD_DI);                      // Set for instruction 
....................       glcd_writeByte(GLCD_LEFT, 0b01000000);    // Set horizontal address to 0 
....................       glcd_writeByte(GLCD_RIGHT, 0b01000000); 
....................       glcd_writeByte(GLCD_LEFT, i | 0b10111000);// Set page address 
....................       glcd_writeByte(GLCD_RIGHT, i | 0b10111000); 
....................       output_high(GLCD_DI);                     // Set for data 
....................  
....................       // Loop through the horizontal sections 
....................       for(j = 0; j < 64; ++j) 
....................       { 
....................          glcd_writeByte(GLCD_LEFT, 0xFF*color);  // Turn pixels on or off 
....................          glcd_writeByte(GLCD_RIGHT, 0xFF*color); // Turn pixels on or off 
....................       } 
....................    } 
.................... } 
.................... #endif 
....................  
....................  
.................... // Purpose:    Write a byte of data to the specified chip 
.................... // Inputs:     1) chipSelect - which chip to write the data to 
.................... //             2) data - the byte of data to write 
.................... void glcd_writeByte(int1 side, BYTE data) 
.................... { 
....................    if(side)                   // Choose which side to write to 
*
0158A:  MOVLB  5
0158C:  MOVF   xEC,F
0158E:  BZ    1596
....................       output_high(GLCD_CS2); 
01590:  BCF    F93.3
01592:  BSF    F8A.3
....................    else 
01594:  BRA    159A
....................       output_high(GLCD_CS1); 
01596:  BCF    F93.2
01598:  BSF    F8A.2
....................  
....................    output_low(GLCD_RW);       // Set for writing 
0159A:  BCF    F93.6
0159C:  BCF    F8A.6
....................    output_d(data);            // Put the data on the port 
0159E:  CLRF   F95
015A0:  MOVFF  5ED,F8C
....................    delay_cycles(1); 
015A4:  NOP   
....................    output_high(GLCD_E);       // Pulse the enable pin 
015A6:  BCF    F93.7
015A8:  BSF    F8A.7
....................    delay_cycles(5); 
015AA:  BRA    15AC
015AC:  BRA    15AE
015AE:  NOP   
....................    output_low(GLCD_E); 
015B0:  BCF    F93.7
015B2:  BCF    F8A.7
....................  
....................    output_low(GLCD_CS1);      // Reset the chip select lines 
015B4:  BCF    F93.2
015B6:  BCF    F8A.2
....................    output_low(GLCD_CS2); 
015B8:  BCF    F93.3
015BA:  BCF    F8A.3
.................... } 
015BC:  MOVLB  0
015BE:  RETLW  00
....................  
....................  
.................... // Purpose:    Reads a byte of data from the specified chip 
.................... // Ouputs:     A byte of data read from the chip 
.................... BYTE glcd_readByte(int1 side) 
.................... { 
....................    BYTE data;                 // Stores the data read from the LCD 
....................  
....................    set_tris_d(0xFF);          // Set port d to input 
....................    output_high(GLCD_RW);      // Set for reading 
....................  
....................    if(side)                   // Choose which side to write to 
....................       output_high(GLCD_CS2); 
....................    else 
....................       output_high(GLCD_CS1); 
....................  
....................    delay_cycles(1); 
....................    output_high(GLCD_E);       // Pulse the enable pin 
....................    delay_cycles(4); 
....................    data = input_d();          // Get the data from the display's output register 
....................    output_low(GLCD_E); 
....................  
....................    output_low(GLCD_CS1);      // Reset the chip select lines 
....................    output_low(GLCD_CS2); 
....................    return data;               // Return the read data 
.................... } 
....................  
.................... #endif 
....................  
.................... #include "GRAPHICS.c" 
.................... ///////////////////////////////////////////////////////////////////////// 
.................... ////                          graphics.c                             //// 
.................... ////                                                                 //// 
.................... ////   This file contains functions to draw lines, rectangles, bars, //// 
.................... ////   circles and text to a display. A function which draws a       //// 
.................... ////   single pixel must be defined before calling the functions in  //// 
.................... ////   this file. Call it glcd_pixel(x, y, color) where x is the     //// 
.................... ////   horizontal coordinate, y is the vertical coordinate, and      //// 
.................... ////   color is 1 bit to turn the pixel on or off.                   //// 
.................... ////                                                                 //// 
.................... ////   * Note: (0, 0) is treated as the upper left corner            //// 
.................... ////                                                                 //// 
.................... ///////////////////////////////////////////////////////////////////////// 
.................... ////                                                                 //// 
.................... ////  glcd_line(x1, y1, x2, y2, color)                               //// 
.................... ////     * Draws a line from the first point to the second point     //// 
.................... ////       with the given color                                      //// 
.................... ////       - color can be ON or OFF                                  //// 
.................... ////                                                                 //// 
.................... ////  glcd_rect(x1, y1, x2, y2, fill, color)                         //// 
.................... ////     * Draws a rectangle with one corner at point (x1,y1) and    //// 
.................... ////       the other corner at point (x2,y2)                         //// 
.................... ////       - fill can be YES or NO                                   //// 
.................... ////       - color can be ON or OFF                                  //// 
.................... ////                                                                 //// 
.................... ////  glcd_bar(x1, y1, x2, y2, width, color)                         //// 
.................... ////     * Draws a bar (wide line) from the first point to the       //// 
.................... ////       second point                                              //// 
.................... ////       - width is the number of pixels wide                      //// 
.................... ////       - color is ON or OFF                                      //// 
.................... ////                                                                 //// 
.................... ////  glcd_circle(x, y, radius, fill, color)                         //// 
.................... ////     * Draws a circle with center at (x,y)                       //// 
.................... ////       - fill can be YES or NO                                   //// 
.................... ////       - color can be ON or OFF                                  //// 
.................... ////                                                                 //// 
.................... ////  glcd_text57(x, y, textptr, size, color)                        //// 
.................... ////     * Write the null terminated text pointed to by textptr with //// 
.................... ////       the upper left coordinate of the first character at (x,y) //// 
.................... ////       Characters are 5 pixels wide and 7 pixels tall            //// 
.................... ////       - size is an integer that scales the size of the text     //// 
.................... ////       - color is ON or OFF                                      //// 
.................... ////     * Note - This function wraps characters to the next line    //// 
.................... ////              use #define GLCD_WIDTH to specify a display width  //// 
.................... ////                                                                 //// 
.................... ///////////////////////////////////////////////////////////////////////// 
.................... ////        (C) Copyright 1996, 2004 Custom Computer Services        //// 
.................... //// This source code may only be used by licensed users of the CCS  //// 
.................... //// C compiler.  This source code may only be distributed to other  //// 
.................... //// licensed users of the CCS C compiler.  No other use,            //// 
.................... //// reproduction or distribution is permitted without written       //// 
.................... //// permission.  Derivative programs created using this software    //// 
.................... //// in object code form are not restricted in any way.              //// 
.................... ///////////////////////////////////////////////////////////////////////// 
....................  
....................  
.................... ///////////////////////////////////////////////////////////////////////// 
.................... #ifndef GRAPHICS_DRAWING_FUNCTIONS 
.................... #define GRAPHICS_DRAWING_FUNCTIONS 
.................... ///////////////////////////////////////////////////////////////////////// 
....................  
....................  
.................... ///////////////////////////////////////////////////////////////////////// 
.................... #ifndef ON 
.................... #define ON  1 
.................... #endif 
....................  
.................... #ifndef OFF 
.................... #define OFF 0 
.................... #endif 
....................  
.................... #ifndef YES 
.................... #define YES 1 
.................... #endif 
....................  
.................... #ifndef NO 
.................... #define NO  0 
.................... #endif 
.................... ///////////////////////////////////////////////////////////////////////// 
....................  
....................  
.................... ///////////////////////////////////////////////////////////////////////// 
.................... //// Defines a 5x7 font 
.................... ///////////////////////////////////////////////////////////////////////// 
.................... const int8 FONT[51][5] ={0x00, 0x00, 0x00, 0x00, 0x00, // SPACE 
....................                          0x00, 0x00, 0x5F, 0x00, 0x00, // ! 
....................                          0x00, 0x03, 0x00, 0x03, 0x00, // " 
....................                          0x14, 0x3E, 0x14, 0x3E, 0x14, // # 
....................                          0x24, 0x2A, 0x7F, 0x2A, 0x12, // $ 
....................                          0x43, 0x33, 0x08, 0x66, 0x61, // % 
....................                          0x36, 0x49, 0x55, 0x22, 0x50, // & 
....................                          0x00, 0x05, 0x03, 0x00, 0x00, // ' 
....................                          0x00, 0x1C, 0x22, 0x41, 0x00, // ( 
....................                          0x00, 0x41, 0x22, 0x1C, 0x00, // ) 
....................                          0x14, 0x08, 0x3E, 0x08, 0x14, // * 
....................                          0x08, 0x08, 0x3E, 0x08, 0x08, // + 
....................                          0x00, 0x50, 0x30, 0x00, 0x00, // , 
....................                          0x08, 0x08, 0x08, 0x08, 0x08, // - 
....................                          0x00, 0x60, 0x60, 0x00, 0x00, // . 
....................                          0x20, 0x10, 0x08, 0x04, 0x02, // / 
....................                          0x3E, 0x51, 0x49, 0x45, 0x3E, // 0 
....................                          0x00, 0x04, 0x02, 0x7F, 0x00, // 1 
....................                          0x42, 0x61, 0x51, 0x49, 0x46, // 2 
....................                          0x22, 0x41, 0x49, 0x49, 0x36, // 3 
....................                          0x18, 0x14, 0x12, 0x7F, 0x10, // 4 
....................                          0x27, 0x45, 0x45, 0x45, 0x39, // 5 
....................                          0x3E, 0x49, 0x49, 0x49, 0x32, // 6 
....................                          0x01, 0x01, 0x71, 0x09, 0x07, // 7 
....................                          0x36, 0x49, 0x49, 0x49, 0x36, // 8 
....................                          0x26, 0x49, 0x49, 0x49, 0x3E, // 9 
....................                          0x00, 0x36, 0x36, 0x00, 0x00, // : 
....................                          0x00, 0x56, 0x36, 0x00, 0x00, // ; 
....................                          0x08, 0x14, 0x22, 0x41, 0x00, // < 
....................                          0x14, 0x14, 0x14, 0x14, 0x14, // = 
....................                          0x00, 0x41, 0x22, 0x14, 0x08, // > 
....................                          0x02, 0x01, 0x51, 0x09, 0x06, // ? 
....................                          0x3E, 0x41, 0x59, 0x55, 0x5E, // @ 
....................                          0x7E, 0x09, 0x09, 0x09, 0x7E, // A 
....................                          0x7F, 0x49, 0x49, 0x49, 0x36, // B 
....................                          0x3E, 0x41, 0x41, 0x41, 0x22, // C 
....................                          0x7F, 0x41, 0x41, 0x41, 0x3E, // D 
....................                          0x7F, 0x49, 0x49, 0x49, 0x41, // E 
....................                          0x7F, 0x09, 0x09, 0x09, 0x01, // F 
....................                          0x3E, 0x41, 0x41, 0x49, 0x3A, // G 
....................                          0x7F, 0x08, 0x08, 0x08, 0x7F, // H 
....................                          0x00, 0x41, 0x7F, 0x41, 0x00, // I 
....................                          0x30, 0x40, 0x40, 0x40, 0x3F, // J 
....................                          0x7F, 0x08, 0x14, 0x22, 0x41, // K 
....................                          0x7F, 0x40, 0x40, 0x40, 0x40, // L 
....................                          0x7F, 0x02, 0x0C, 0x02, 0x7F, // M 
....................                          0x7F, 0x02, 0x04, 0x08, 0x7F, // N 
....................                          0x3E, 0x41, 0x41, 0x41, 0x3E, // O 
....................                          0x7F, 0x09, 0x09, 0x09, 0x06, // P 
....................                          0x1E, 0x21, 0x21, 0x21, 0x5E, // Q 
....................                          0x7F, 0x09, 0x09, 0x09, 0x76};// R 
....................  
.................... const int8 FONT2[44][5]={0x26, 0x49, 0x49, 0x49, 0x32, // S 
....................                          0x01, 0x01, 0x7F, 0x01, 0x01, // T 
....................                          0x3F, 0x40, 0x40, 0x40, 0x3F, // U 
....................                          0x1F, 0x20, 0x40, 0x20, 0x1F, // V 
....................                          0x7F, 0x20, 0x10, 0x20, 0x7F, // W 
....................                          0x41, 0x22, 0x1C, 0x22, 0x41, // X 
....................                          0x07, 0x08, 0x70, 0x08, 0x07, // Y 
....................                          0x61, 0x51, 0x49, 0x45, 0x43, // Z 
....................                          0x00, 0x7F, 0x41, 0x00, 0x00, // [ 
....................                          0x02, 0x04, 0x08, 0x10, 0x20, // \ 
....................                          0x00, 0x00, 0x41, 0x7F, 0x00, // ] 
....................                          0x04, 0x02, 0x01, 0x02, 0x04, // ^ 
....................                          0x40, 0x40, 0x40, 0x40, 0x40, // _ 
....................                          0x00, 0x01, 0x02, 0x04, 0x00, // ` 
....................                          0x20, 0x54, 0x54, 0x54, 0x78, // a 
....................                          0x7F, 0x44, 0x44, 0x44, 0x38, // b 
....................                          0x38, 0x44, 0x44, 0x44, 0x44, // c 
....................                          0x38, 0x44, 0x44, 0x44, 0x7F, // d 
....................                          0x38, 0x54, 0x54, 0x54, 0x18, // e 
....................                          0x04, 0x04, 0x7E, 0x05, 0x05, // f 
....................                          0x08, 0x54, 0x54, 0x54, 0x3C, // g 
....................                          0x7F, 0x08, 0x04, 0x04, 0x78, // h 
....................                          0x00, 0x44, 0x7D, 0x40, 0x00, // i 
....................                          0x20, 0x40, 0x44, 0x3D, 0x00, // j 
....................                          0x7F, 0x10, 0x28, 0x44, 0x00, // k 
....................                          0x00, 0x41, 0x7F, 0x40, 0x00, // l 
....................                          0x7C, 0x04, 0x78, 0x04, 0x78, // m 
....................                          0x7C, 0x08, 0x04, 0x04, 0x78, // n 
....................                          0x38, 0x44, 0x44, 0x44, 0x38, // o 
....................                          0x7C, 0x14, 0x14, 0x14, 0x08, // p 
....................                          0x08, 0x14, 0x14, 0x14, 0x7C, // q 
....................                          0x00, 0x7C, 0x08, 0x04, 0x04, // r 
....................                          0x48, 0x54, 0x54, 0x54, 0x20, // s 
....................                          0x04, 0x04, 0x3F, 0x44, 0x44, // t 
....................                          0x3C, 0x40, 0x40, 0x20, 0x7C, // u 
....................                          0x1C, 0x20, 0x40, 0x20, 0x1C, // v 
....................                          0x3C, 0x40, 0x30, 0x40, 0x3C, // w 
....................                          0x44, 0x28, 0x10, 0x28, 0x44, // x 
....................                          0x0C, 0x50, 0x50, 0x50, 0x3C, // y 
....................                          0x44, 0x64, 0x54, 0x4C, 0x44, // z 
....................                          0x00, 0x08, 0x36, 0x41, 0x41, // { 
....................                          0x00, 0x00, 0x7F, 0x00, 0x00, // | 
....................                          0x41, 0x41, 0x36, 0x08, 0x00, // } 
....................                          0x02, 0x01, 0x02, 0x04, 0x02};// ~ 
.................... ///////////////////////////////////////////////////////////////////////// 
....................  
....................  
.................... ///////////////////////////////////////////////////////////////////////// 
.................... // Purpose:       Draw a line on a graphic LCD using Bresenham's 
.................... //                line drawing algorithm 
.................... // Inputs:        (x1, y1) - the start coordinate 
.................... //                (x2, y2) - the end coordinate 
.................... //                color - ON or OFF 
.................... // Dependencies:  glcd_pixel() 
.................... ///////////////////////////////////////////////////////////////////////// 
.................... #ifdef LARGE_LCD 
.................... void glcd_line(int16 x1, int16 y1, int16 x2, int16 y2, int1 color) 
.................... #else 
.................... void glcd_line(int8 x1, int8 y1, int8 x2, int8 y2, int1 color) 
.................... #endif 
.................... { 
*
04742:  MOVLW  01
04744:  MOVLB  6
04746:  MOVWF  x0A
04748:  MOVWF  x0B
0474A:  CLRF   x10
....................    int16        dy, dx; 
....................    signed int8  addx=1, addy=1; 
....................    signed int16 P, diff; 
....................  
....................    #ifdef LARGE_LCD 
....................    int16 i=0; 
....................    dx = abs((signed int16)(x2 - x1)); 
....................    dy = abs((signed int16)(y2 - y1)); 
....................    #else 
....................    int8 i=0; 
....................    dx = abs((signed int8)(x2 - x1)); 
0474C:  MOVF   x01,W
0474E:  SUBWF  x03,W
04750:  MOVWF  x11
04752:  MOVF   x11,W
04754:  BTFSS  x11.7
04756:  BRA    475E
04758:  MOVLW  00
0475A:  BSF    FD8.0
0475C:  SUBFWB x11,W
0475E:  CLRF   03
04760:  MOVWF  x08
04762:  MOVFF  03,609
....................    dy = abs((signed int8)(y2 - y1)); 
04766:  MOVF   x02,W
04768:  SUBWF  x04,W
0476A:  MOVWF  x11
0476C:  MOVF   x11,W
0476E:  BTFSS  x11.7
04770:  BRA    4778
04772:  MOVLW  00
04774:  BSF    FD8.0
04776:  SUBFWB x11,W
04778:  CLRF   03
0477A:  MOVWF  x06
0477C:  MOVFF  03,607
....................    #endif 
....................  
....................    if(x1 > x2) 
04780:  MOVF   x01,W
04782:  SUBWF  x03,W
04784:  BC    478A
....................       addx = -1; 
04786:  MOVLW  FF
04788:  MOVWF  x0A
....................    if(y1 > y2) 
0478A:  MOVF   x02,W
0478C:  SUBWF  x04,W
0478E:  BC    4794
....................       addy = -1; 
04790:  MOVLW  FF
04792:  MOVWF  x0B
....................  
....................    if(dx >= dy) 
04794:  MOVF   x07,W
04796:  SUBWF  x09,W
04798:  BNC   4810
0479A:  BNZ   47A2
0479C:  MOVF   x06,W
0479E:  SUBWF  x08,W
047A0:  BNC   4810
....................    { 
....................       dy *= 2; 
047A2:  BCF    FD8.0
047A4:  RLCF   x06,F
047A6:  RLCF   x07,F
....................       P = dy - dx; 
047A8:  MOVF   x08,W
047AA:  SUBWF  x06,W
047AC:  MOVWF  00
047AE:  MOVF   x09,W
047B0:  SUBWFB x07,W
047B2:  MOVFF  00,60C
047B6:  MOVWF  x0D
....................       diff = P - dx; 
047B8:  MOVF   x08,W
047BA:  SUBWF  x0C,W
047BC:  MOVWF  x0E
047BE:  MOVF   x09,W
047C0:  SUBWFB x0D,W
047C2:  MOVWF  x0F
....................  
....................       for(; i<=dx; ++i) 
047C4:  MOVF   x09,F
047C6:  BNZ   47CE
047C8:  MOVF   x10,W
047CA:  SUBWF  x08,W
047CC:  BNC   480E
....................       { 
....................          glcd_pixel(x1, y1, color); 
047CE:  MOVFF  601,611
047D2:  MOVFF  602,612
047D6:  MOVFF  605,613
047DA:  MOVLB  0
047DC:  RCALL  4686
....................  
....................          if(P < 0) 
047DE:  MOVLB  6
047E0:  BTFSC  x0D.7
047E2:  BRA    47E6
047E4:  BRA    47F6
....................          { 
....................             P  += dy; 
047E6:  MOVF   x06,W
047E8:  ADDWF  x0C,F
047EA:  MOVF   x07,W
047EC:  ADDWFC x0D,F
....................             x1 += addx; 
047EE:  MOVF   x0A,W
047F0:  ADDWF  x01,W
047F2:  MOVWF  x01
....................          } 
....................          else 
047F4:  BRA    480A
....................          { 
....................             P  += diff; 
047F6:  MOVF   x0E,W
047F8:  ADDWF  x0C,F
047FA:  MOVF   x0F,W
047FC:  ADDWFC x0D,F
....................             x1 += addx; 
047FE:  MOVF   x0A,W
04800:  ADDWF  x01,W
04802:  MOVWF  x01
....................             y1 += addy; 
04804:  MOVF   x0B,W
04806:  ADDWF  x02,W
04808:  MOVWF  x02
....................          } 
....................       } 
0480A:  INCF   x10,F
0480C:  BRA    47C4
....................    } 
....................    else 
0480E:  BRA    487C
....................    { 
....................       dx *= 2; 
04810:  BCF    FD8.0
04812:  RLCF   x08,F
04814:  RLCF   x09,F
....................       P = dx - dy; 
04816:  MOVF   x06,W
04818:  SUBWF  x08,W
0481A:  MOVWF  00
0481C:  MOVF   x07,W
0481E:  SUBWFB x09,W
04820:  MOVFF  00,60C
04824:  MOVWF  x0D
....................       diff = P - dy; 
04826:  MOVF   x06,W
04828:  SUBWF  x0C,W
0482A:  MOVWF  x0E
0482C:  MOVF   x07,W
0482E:  SUBWFB x0D,W
04830:  MOVWF  x0F
....................  
....................       for(; i<=dy; ++i) 
04832:  MOVF   x07,F
04834:  BNZ   483C
04836:  MOVF   x10,W
04838:  SUBWF  x06,W
0483A:  BNC   487C
....................       { 
....................          glcd_pixel(x1, y1, color); 
0483C:  MOVFF  601,611
04840:  MOVFF  602,612
04844:  MOVFF  605,613
04848:  MOVLB  0
0484A:  RCALL  4686
....................  
....................          if(P < 0) 
0484C:  MOVLB  6
0484E:  BTFSC  x0D.7
04850:  BRA    4854
04852:  BRA    4864
....................          { 
....................             P  += dx; 
04854:  MOVF   x08,W
04856:  ADDWF  x0C,F
04858:  MOVF   x09,W
0485A:  ADDWFC x0D,F
....................             y1 += addy; 
0485C:  MOVF   x0B,W
0485E:  ADDWF  x02,W
04860:  MOVWF  x02
....................          } 
....................          else 
04862:  BRA    4878
....................          { 
....................             P  += diff; 
04864:  MOVF   x0E,W
04866:  ADDWF  x0C,F
04868:  MOVF   x0F,W
0486A:  ADDWFC x0D,F
....................             x1 += addx; 
0486C:  MOVF   x0A,W
0486E:  ADDWF  x01,W
04870:  MOVWF  x01
....................             y1 += addy; 
04872:  MOVF   x0B,W
04874:  ADDWF  x02,W
04876:  MOVWF  x02
....................          } 
....................       } 
04878:  INCF   x10,F
0487A:  BRA    4832
....................    } 
.................... } 
0487C:  MOVLB  0
0487E:  RETLW  00
....................  
....................  
.................... ///////////////////////////////////////////////////////////////////////// 
.................... // Purpose:       Draw a rectangle on a graphic LCD 
.................... // Inputs:        (x1, y1) - the start coordinate 
.................... //                (x2, y2) - the end coordinate 
.................... //                fill  - YES or NO 
.................... //                color - ON or OFF 
.................... // Dependencies:  glcd_pixel(), glcd_line() 
.................... ///////////////////////////////////////////////////////////////////////// 
.................... #ifdef LARGE_LCD 
.................... void glcd_rect(int16 x1, int16 y1, int16 x2, int16 y2, int1 fill, int1 color) 
.................... #else 
.................... void glcd_rect(int8 x1, int8 y1, int8 x2, int8 y2, int1 fill, int1 color) 
.................... #endif 
.................... { 
....................    if(fill) 
04880:  MOVLB  5
04882:  MOVF   xFA,F
04884:  BZ    48E8
....................    { 
....................       #ifdef LARGE_LCD 
....................       int16 i, xmin, xmax, ymin, ymax; 
....................       #else 
....................       int8  i, xmin, xmax, ymin, ymax; 
....................       #endif 
....................  
....................       if(x1 < x2)                            //  Find x min and max 
04886:  MOVF   xF8,W
04888:  SUBWF  xF6,W
0488A:  BC    4896
....................       { 
....................          xmin = x1; 
0488C:  MOVFF  5F6,5FD
....................          xmax = x2; 
04890:  MOVFF  5F8,5FE
....................       } 
....................       else 
04894:  BRA    489E
....................       { 
....................          xmin = x2; 
04896:  MOVFF  5F8,5FD
....................          xmax = x1; 
0489A:  MOVFF  5F6,5FE
....................       } 
....................  
....................       if(y1 < y2)                            // Find the y min and max 
0489E:  MOVF   xF9,W
048A0:  SUBWF  xF7,W
048A2:  BC    48AE
....................       { 
....................          ymin = y1; 
048A4:  MOVFF  5F7,5FF
....................          ymax = y2; 
048A8:  MOVFF  5F9,600
....................       } 
....................       else 
048AC:  BRA    48B6
....................       { 
....................          ymin = y2; 
048AE:  MOVFF  5F9,5FF
....................          ymax = y1; 
048B2:  MOVFF  5F7,600
....................       } 
....................  
....................       for(; xmin <= xmax; ++xmin) 
048B6:  MOVF   xFD,W
048B8:  SUBWF  xFE,W
048BA:  BNC   48E6
....................       { 
....................          for(i=ymin; i<=ymax; ++i) 
048BC:  MOVFF  5FF,5FC
048C0:  MOVF   xFC,W
048C2:  MOVLB  6
048C4:  SUBWF  x00,W
048C6:  BNC   48E0
....................          { 
....................             glcd_pixel(xmin, i, color); 
048C8:  MOVFF  5FD,611
048CC:  MOVFF  5FC,612
048D0:  MOVFF  5FB,613
048D4:  MOVLB  0
048D6:  RCALL  4686
....................          } 
048D8:  MOVLB  5
048DA:  INCF   xFC,F
048DC:  BRA    48C0
048DE:  MOVLB  6
....................       } 
048E0:  MOVLB  5
048E2:  INCF   xFD,F
048E4:  BRA    48B6
....................    } 
....................    else 
048E6:  BRA    4944
....................    { 
....................       glcd_line(x1, y1, x2, y1, color);      // Draw the 4 sides 
048E8:  MOVFF  5F6,601
048EC:  MOVFF  5F7,602
048F0:  MOVFF  5F8,603
048F4:  MOVFF  5F7,604
048F8:  MOVFF  5FB,605
048FC:  MOVLB  0
048FE:  RCALL  4742
....................       glcd_line(x1, y2, x2, y2, color); 
04900:  MOVFF  5F6,601
04904:  MOVFF  5F9,602
04908:  MOVFF  5F8,603
0490C:  MOVFF  5F9,604
04910:  MOVFF  5FB,605
04914:  RCALL  4742
....................       glcd_line(x1, y1, x1, y2, color); 
04916:  MOVFF  5F6,601
0491A:  MOVFF  5F7,602
0491E:  MOVFF  5F6,603
04922:  MOVFF  5F9,604
04926:  MOVFF  5FB,605
0492A:  RCALL  4742
....................       glcd_line(x2, y1, x2, y2, color); 
0492C:  MOVFF  5F8,601
04930:  MOVFF  5F7,602
04934:  MOVFF  5F8,603
04938:  MOVFF  5F9,604
0493C:  MOVFF  5FB,605
04940:  RCALL  4742
04942:  MOVLB  5
....................    } 
.................... } 
04944:  MOVLB  0
04946:  RETLW  00
....................  
.................... ///////////////////////////////////////////////////////////////////////// 
.................... // Purpose:       Draw a bar (wide line) on a graphic LCD 
.................... // Inputs:        (x1, y1) - the start coordinate 
.................... //                (x2, y2) - the end coordinate 
.................... //                width  - The number of pixels wide 
.................... //                color - ON or OFF 
.................... ///////////////////////////////////////////////////////////////////////// 
.................... #ifdef LARGE_LCD 
.................... void glcd_bar(int16 x1, int16 y1, int16 x2, int16 y2, int8 width, int1 color) 
.................... #else 
.................... void glcd_bar(int8 x1, int8 y1, int8 x2, int8 y2, int8 width, int1 color) 
.................... #endif 
.................... { 
....................    int8         half_width; 
....................    signed int16 dy, dx; 
....................    signed int8  addx=1, addy=1, j; 
....................    signed int16 P, diff, c1, c2; 
....................  
....................    #ifdef LARGE_LCD 
....................    int16 i=0; 
....................    dx = abs((signed int16)(x2 - x1)); 
....................    dy = abs((signed int16)(y2 - y1)); 
....................    #else 
....................    int8 i=0; 
....................    dx = abs((signed int8)(x2 - x1)); 
....................    dy = abs((signed int8)(y2 - y1)); 
....................    #endif 
....................  
....................    half_width = width/2; 
....................    c1 = -(dx*x1 + dy*y1); 
....................    c2 = -(dx*x2 + dy*y2); 
....................  
....................    if(x1 > x2) 
....................    { 
....................       signed int16 temp; 
....................       temp = c1; 
....................       c1 = c2; 
....................       c2 = temp; 
....................       addx = -1; 
....................    } 
....................    if(y1 > y2) 
....................    { 
....................       signed int16 temp; 
....................       temp = c1; 
....................       c1 = c2; 
....................       c2 = temp; 
....................       addy = -1; 
....................    } 
....................  
....................    if(dx >= dy) 
....................    { 
....................       P = 2*dy - dx; 
....................       diff = P - dx; 
....................  
....................       for(i=0; i<=dx; ++i) 
....................       { 
....................          for(j=-half_width; j<half_width+width%2; ++j) 
....................          { 
....................             #ifdef LARGE_LCD 
....................             int16 temp; 
....................             #else 
....................             int8 temp; 
....................             #endif 
....................  
....................             temp = dx*x1+dy*(y1+j);    // Use more RAM to increase speed 
....................             if(temp+c1 >= 0 && temp+c2 <=0) 
....................                glcd_pixel(x1, y1+j, color); 
....................          } 
....................          if(P < 0) 
....................          { 
....................             P  += 2*dy; 
....................             x1 += addx; 
....................          } 
....................          else 
....................          { 
....................             P  += diff; 
....................             x1 += addx; 
....................             y1 += addy; 
....................          } 
....................       } 
....................    } 
....................    else 
....................    { 
....................       P = 2*dx - dy; 
....................       diff = P - dy; 
....................  
....................       for(i=0; i<=dy; ++i) 
....................       { 
....................          if(P < 0) 
....................          { 
....................             P  += 2*dx; 
....................             y1 += addy; 
....................          } 
....................          else 
....................          { 
....................             P  += diff; 
....................             x1 += addx; 
....................             y1 += addy; 
....................          } 
....................          for(j=-half_width; j<half_width+width%2; ++j) 
....................          { 
....................             #ifdef LARGE_LCD 
....................             int16 temp; 
....................             #else 
....................             int8 temp; 
....................             #endif 
....................  
....................             temp = dx*x1+dy*(y1+j);    // Use more RAM to increase speed 
....................             if(temp+c1 >= 0 && temp+c2 <=0) 
....................                glcd_pixel(x1+j, y1, color); 
....................          } 
....................       } 
....................    } 
.................... } 
....................  
....................  
.................... ///////////////////////////////////////////////////////////////////////// 
.................... // Purpose:       Draw a circle on a graphic LCD 
.................... // Inputs:        (x,y) - the center of the circle 
.................... //                radius - the radius of the circle 
.................... //                fill - YES or NO 
.................... //                color - ON or OFF 
.................... ///////////////////////////////////////////////////////////////////////// 
.................... #ifdef LARGE_LCD 
.................... void glcd_circle(int16 x, int16 y, int16 radius, int1 fill, int1 color) 
.................... #else 
.................... void glcd_circle(int8 x, int8 y, int8 radius, int1 fill, int1 color) 
.................... #endif 
.................... { 
....................    #ifdef LARGE_LCD 
....................    signed int16 a, b, P; 
....................    #else 
....................    signed int8  a, b, P; 
....................    #endif 
....................  
....................    a = 0; 
....................    b = radius; 
....................    P = 1 - radius; 
....................  
....................    do 
....................    { 
....................       if(fill) 
....................       { 
....................          glcd_line(x-a, y+b, x+a, y+b, color); 
....................          glcd_line(x-a, y-b, x+a, y-b, color); 
....................          glcd_line(x-b, y+a, x+b, y+a, color); 
....................          glcd_line(x-b, y-a, x+b, y-a, color); 
....................       } 
....................       else 
....................       { 
....................          glcd_pixel(a+x, b+y, color); 
....................          glcd_pixel(b+x, a+y, color); 
....................          glcd_pixel(x-a, b+y, color); 
....................          glcd_pixel(x-b, a+y, color); 
....................          glcd_pixel(b+x, y-a, color); 
....................          glcd_pixel(a+x, y-b, color); 
....................          glcd_pixel(x-a, y-b, color); 
....................          glcd_pixel(x-b, y-a, color); 
....................       } 
....................  
....................       if(P < 0) 
....................          P += 3 + 2 * a++; 
....................       else 
....................          P += 5 + 2 * (a++ - b--); 
....................     } while(a <= b); 
.................... } 
....................  
....................  
.................... ///////////////////////////////////////////////////////////////////////// 
.................... // Purpose:       Write text on a graphic LCD 
.................... // Inputs:        (x,y) - The upper left coordinate of the first letter 
.................... //                textptr - A pointer to an array of text to display 
.................... //                size - The size of the text: 1 = 5x7, 2 = 10x14, ... 
.................... //                color - ON or OFF 
.................... ///////////////////////////////////////////////////////////////////////// 
.................... #ifdef LARGE_LCD 
.................... void glcd_text57(int16 x, int16 y, char* textptr, int8 size, int1 color) 
.................... #else 
.................... void glcd_text57(int8 x, int8 y, char* textptr, int8 size, int1 color) 
.................... #endif 
.................... { 
....................    int8 j, k, l, m;                       // Loop counters 
....................    int8 pixelData[5];                     // Stores character data 
....................  
....................    for(; *textptr != '\0'; ++textptr, ++x)// Loop through the passed string 
04948:  MOVFF  5F9,03
0494C:  MOVLB  5
0494E:  MOVFF  5F8,FE9
04952:  MOVFF  5F9,FEA
04956:  MOVF   FEF,F
04958:  BTFSC  FD8.2
0495A:  BRA    4B06
....................    { 
....................       if(*textptr < 'S') // Checks if the letter is in the first font array 
0495C:  MOVFF  5F9,03
04960:  MOVFF  5F8,FE9
04964:  MOVFF  5F9,FEA
04968:  MOVF   FEF,W
0496A:  SUBLW  52
0496C:  BNC   49BE
....................          memcpy(pixelData, FONT[*textptr - ' '], 5); 
0496E:  MOVFF  5F9,03
04972:  MOVFF  5F8,FE9
04976:  MOVFF  5F9,FEA
0497A:  MOVLW  20
0497C:  SUBWF  FEF,W
0497E:  MULLW  05
04980:  MOVF   FF3,W
04982:  CLRF   03
04984:  MOVLB  6
04986:  MOVWF  x05
04988:  MOVLW  06
0498A:  MOVWF  FEA
0498C:  CLRF   FE9
0498E:  CLRF   x09
04990:  MOVFF  605,608
04994:  MOVFF  FF2,606
04998:  BCF    FF2.7
0499A:  MOVLW  05
0499C:  MOVWF  01
0499E:  CLRF   FF7
049A0:  MOVF   x05,W
049A2:  MOVLB  0
049A4:  CALL   0096
049A8:  TBLRD*-
049AA:  TBLRD*+
049AC:  MOVFF  FF5,FEE
049B0:  DECFSZ 01,F
049B2:  BRA    49AA
049B4:  MOVLB  6
049B6:  BTFSC  x06.7
049B8:  BSF    FF2.7
....................       else if(*textptr <= '~') // Check if the letter is in the second font array 
049BA:  BRA    4A2A
049BC:  MOVLB  5
049BE:  MOVFF  5F9,03
049C2:  MOVFF  5F8,FE9
049C6:  MOVFF  5F9,FEA
049CA:  MOVF   FEF,W
049CC:  SUBLW  7E
049CE:  BNC   4A1E
....................          memcpy(pixelData, FONT2[*textptr - 'S'], 5); 
049D0:  MOVFF  5F9,03
049D4:  MOVFF  5F8,FE9
049D8:  MOVFF  5F9,FEA
049DC:  MOVLW  53
049DE:  SUBWF  FEF,W
049E0:  MULLW  05
049E2:  MOVF   FF3,W
049E4:  CLRF   03
049E6:  MOVLB  6
049E8:  MOVWF  x05
049EA:  MOVLW  06
049EC:  MOVWF  FEA
049EE:  CLRF   FE9
049F0:  CLRF   x09
049F2:  MOVFF  605,608
049F6:  MOVFF  FF2,606
049FA:  BCF    FF2.7
049FC:  MOVLW  05
049FE:  MOVWF  01
04A00:  CLRF   FF7
04A02:  MOVF   x05,W
04A04:  MOVLB  0
04A06:  CALL   01B0
04A0A:  TBLRD*-
04A0C:  TBLRD*+
04A0E:  MOVFF  FF5,FEE
04A12:  DECFSZ 01,F
04A14:  BRA    4A0C
04A16:  MOVLB  6
04A18:  BTFSC  x06.7
04A1A:  BSF    FF2.7
....................       else 
04A1C:  BRA    4A2A
....................          memcpy(pixelData, FONT[0], 5);   // Default to space 
04A1E:  MOVLB  6
04A20:  CLRF   x00
04A22:  CLRF   x01
04A24:  CLRF   x02
04A26:  CLRF   x03
04A28:  CLRF   x04
....................  
....................       // Handles newline and carriage returns 
....................       switch(*textptr) 
....................       { 
04A2A:  MOVFF  5F9,03
04A2E:  MOVLB  5
04A30:  MOVF   xF8,W
04A32:  MOVWF  FE9
04A34:  MOVFF  03,FEA
04A38:  MOVF   FEF,W
04A3A:  XORLW  0A
04A3C:  MOVLB  0
04A3E:  BZ    4A46
04A40:  XORLW  07
04A42:  BZ    4A56
04A44:  BRA    4A5C
....................          case '\n': 
....................             y += 7*size + 1; 
04A46:  MOVLB  5
04A48:  MOVF   xFA,W
04A4A:  MULLW  07
04A4C:  MOVF   FF3,W
04A4E:  ADDLW  01
04A50:  ADDWF  xF7,F
....................             continue; 
04A52:  BRA    4AF8
04A54:  MOVLB  0
....................          case '\r': 
....................             x = 0; 
04A56:  MOVLB  5
04A58:  CLRF   xF6
....................             continue; 
04A5A:  BRA    4AF8
....................       } 
....................  
....................       if(x+5*size >= GLCD_WIDTH)          // Performs character wrapping 
04A5C:  MOVLB  5
04A5E:  MOVF   xFA,W
04A60:  MULLW  05
04A62:  MOVF   FF3,W
04A64:  ADDWF  xF6,W
04A66:  SUBLW  7F
04A68:  BC    4A76
....................       { 
....................          x = 0;                           // Set x at far left position 
04A6A:  CLRF   xF6
....................          y += 7*size + 1;                 // Set y at next position down 
04A6C:  MOVF   xFA,W
04A6E:  MULLW  07
04A70:  MOVF   FF3,W
04A72:  ADDLW  01
04A74:  ADDWF  xF7,F
....................       } 
....................       for(j=0; j<5; ++j, x+=size)         // Loop through character byte data 
04A76:  CLRF   xFC
04A78:  MOVF   xFC,W
04A7A:  SUBLW  04
04A7C:  BNC   4AF8
....................       { 
....................          for(k=0; k < 7; ++k)             // Loop through the vertical pixels 
04A7E:  CLRF   xFD
04A80:  MOVF   xFD,W
04A82:  SUBLW  06
04A84:  BNC   4AF0
....................          { 
....................             if(bit_test(pixelData[j], k)) // Check if the pixel should be set 
04A86:  CLRF   03
04A88:  MOVFF  5FC,FE9
04A8C:  MOVLW  06
04A8E:  ADDWF  03,W
04A90:  MOVWF  FEA
04A92:  MOVFF  FEF,605
04A96:  MOVFF  605,00
04A9A:  MOVF   xFD,W
04A9C:  MOVWF  01
04A9E:  BZ    4AA8
04AA0:  BCF    FD8.0
04AA2:  RRCF   00,F
04AA4:  DECFSZ 01,F
04AA6:  BRA    4AA0
04AA8:  BTFSS  00.0
04AAA:  BRA    4AEC
....................             { 
....................                for(l=0; l < size; ++l)    // These two loops change the 
04AAC:  CLRF   xFE
04AAE:  MOVF   xFA,W
04AB0:  SUBWF  xFE,W
04AB2:  BC    4AEC
....................                {                          // character's size 
....................                   for(m=0; m < size; ++m) 
04AB4:  CLRF   xFF
04AB6:  MOVF   xFA,W
04AB8:  SUBWF  xFF,W
04ABA:  BC    4AE8
....................                   { 
....................                      glcd_pixel(x+m, y+k*size+l, color); // Draws the pixel 
04ABC:  MOVF   xFF,W
04ABE:  ADDWF  xF6,W
04AC0:  MOVLB  6
04AC2:  MOVWF  x05
04AC4:  MOVLB  5
04AC6:  MOVF   xFD,W
04AC8:  MULWF  xFA
04ACA:  MOVF   FF3,W
04ACC:  ADDWF  xF7,W
04ACE:  ADDWF  xFE,W
04AD0:  MOVLB  6
04AD2:  MOVWF  x06
04AD4:  MOVFF  605,611
04AD8:  MOVWF  x12
04ADA:  MOVFF  5FB,613
04ADE:  MOVLB  0
04AE0:  RCALL  4686
....................                   } 
04AE2:  MOVLB  5
04AE4:  INCF   xFF,F
04AE6:  BRA    4AB6
....................                } 
04AE8:  INCF   xFE,F
04AEA:  BRA    4AAE
....................             } 
....................          } 
04AEC:  INCF   xFD,F
04AEE:  BRA    4A80
....................       } 
04AF0:  INCF   xFC,F
04AF2:  MOVF   xFA,W
04AF4:  ADDWF  xF6,F
04AF6:  BRA    4A78
....................    } 
04AF8:  INCF   xF8,F
04AFA:  BTFSC  FD8.2
04AFC:  INCF   xF9,F
04AFE:  INCF   xF6,F
04B00:  MOVLB  0
04B02:  BRA    4948
04B04:  MOVLB  5
.................... } 
04B06:  MOVLB  0
04B08:  RETLW  00
....................  
.................... #endif 
....................  
.................... #include "imagen.h" 
.................... const int8 Bombillo [64][16] = { 
.................... 0x00, 0x00, 0x00, 0x00, 0x00, 0x00, 0x00, 0x00, 0x00, 0x00, 0x00, 0x00, 0x00, 0x00, 0x00, 0x00, 
.................... 0x00, 0x00, 0x00, 0x00, 0x00, 0x00, 0x00, 0x00, 0x00, 0x00, 0x00, 0x00, 0x00, 0x00, 0x00, 0x00, 
.................... 0x00, 0x00, 0x00, 0x00, 0x00, 0x00, 0x00, 0x00, 0x00, 0x00, 0x00, 0x00, 0x00, 0x00, 0x00, 0x00, 
.................... 0x00, 0x00, 0x00, 0x00, 0x00, 0x00, 0x00, 0x00, 0x00, 0x00, 0x00, 0x00, 0x00, 0x00, 0x00, 0x00, 
.................... 0x00, 0x00, 0x00, 0x00, 0x00, 0x00, 0x00, 0x00, 0x00, 0x00, 0x00, 0x00, 0x00, 0x00, 0x00, 0x00, 
.................... 0x00, 0x00, 0x00, 0x00, 0x00, 0x00, 0x00, 0x00, 0x00, 0x00, 0x00, 0x00, 0x00, 0x00, 0x00, 0x00, 
.................... 0x00, 0x00, 0x00, 0x00, 0x00, 0x00, 0x00, 0x00, 0x00, 0x00, 0x00, 0x00, 0x00, 0x00, 0x00, 0x00, 
.................... 0x00, 0x00, 0x00, 0x00, 0x00, 0x00, 0x00, 0x00, 0x00, 0x00, 0x00, 0x00, 0x00, 0x00, 0x00, 0x00, 
.................... 0x00, 0x00, 0x00, 0x00, 0x00, 0x00, 0x00, 0x00, 0x00, 0x00, 0x00, 0x00, 0x00, 0x00, 0x00, 0x00, 
.................... 0x00, 0x00, 0x00, 0x00, 0x00, 0x00, 0x00, 0x00, 0x00, 0x00, 0x00, 0x00, 0x00, 0x00, 0x00, 0x00, 
.................... 0x00, 0x00, 0x00, 0x00, 0x00, 0x00, 0x00, 0x00, 0x00, 0x00, 0x00, 0x00, 0x00, 0x00, 0x00, 0x00, 
.................... 0x00, 0x00, 0x00, 0x00, 0x00, 0x00, 0x00, 0x00, 0x00, 0x00, 0x00, 0x00, 0x00, 0x00, 0x00, 0x00, 
.................... 0x00, 0x00, 0x00, 0x00, 0x00, 0x00, 0x00, 0x00, 0x00, 0x00, 0x00, 0x00, 0x00, 0x00, 0x00, 0x00, 
.................... 0x00, 0x00, 0x00, 0x00, 0x00, 0x00, 0x00, 0x00, 0x00, 0x00, 0x00, 0x00, 0x00, 0x00, 0x00, 0x00, 
.................... 0x00, 0x00, 0x00, 0x00, 0x00, 0x00, 0x00, 0x00, 0x00, 0x00, 0x00, 0x00, 0x00, 0x00, 0x00, 0x00, 
.................... 0x00, 0x00, 0x00, 0x00, 0x00, 0x00, 0x00, 0x00, 0x00, 0x00, 0x00, 0x00, 0x00, 0x08, 0x00, 0x80, 
.................... 0x00, 0x00, 0x00, 0x00, 0x00, 0x00, 0x00, 0x00, 0x00, 0x00, 0x00, 0x00, 0x00, 0x04, 0x01, 0x00, 
.................... 0x00, 0x00, 0x00, 0x00, 0x00, 0x00, 0x00, 0x00, 0x00, 0x00, 0x00, 0x00, 0x00, 0x02, 0x02, 0x00, 
.................... 0x00, 0x00, 0x00, 0x00, 0x00, 0x00, 0x00, 0x00, 0x00, 0x00, 0x00, 0x00, 0x00, 0x00, 0x78, 0x00, 
.................... 0x00, 0x00, 0x00, 0x00, 0x00, 0x00, 0x00, 0x00, 0x00, 0x00, 0x00, 0x00, 0x00, 0x00, 0x84, 0x00, 
.................... 0x00, 0x00, 0x00, 0x00, 0x00, 0x00, 0x00, 0x00, 0x00, 0x00, 0x00, 0x00, 0x00, 0x01, 0x02, 0x00, 
.................... 0x00, 0x00, 0x00, 0x00, 0x00, 0x00, 0x00, 0x00, 0x00, 0x00, 0x00, 0x00, 0x00, 0xF9, 0x02, 0xF8, 
.................... 0x00, 0x00, 0x00, 0x00, 0x00, 0x00, 0x00, 0x00, 0x00, 0x00, 0x00, 0x00, 0x00, 0x01, 0x02, 0x00, 
.................... 0x00, 0x00, 0x00, 0x00, 0x00, 0x00, 0x00, 0x00, 0x00, 0x00, 0x00, 0x00, 0x00, 0x01, 0x02, 0x00, 
.................... 0x00, 0x00, 0x00, 0x00, 0x00, 0x00, 0x00, 0x00, 0x00, 0x00, 0x00, 0x00, 0x00, 0x04, 0x84, 0x80, 
.................... 0x00, 0x00, 0x00, 0x00, 0x00, 0x00, 0x00, 0x00, 0x00, 0x00, 0x00, 0x00, 0x00, 0x08, 0x78, 0x40, 
.................... 0x00, 0x00, 0x00, 0x00, 0x00, 0x00, 0x00, 0x00, 0x00, 0x00, 0x00, 0x00, 0x00, 0x10, 0x48, 0x20, 
.................... 0x00, 0x00, 0x00, 0x00, 0x00, 0x00, 0x00, 0x00, 0x00, 0x00, 0x00, 0x00, 0x00, 0x20, 0x48, 0x10, 
.................... 0x00, 0x00, 0x00, 0x00, 0x00, 0x00, 0x00, 0x00, 0x00, 0x00, 0x00, 0x00, 0x00, 0x00, 0x78, 0x00, 
.................... 0x00, 0x00, 0x00, 0x00, 0x00, 0x00, 0x00, 0x00, 0x00, 0x00, 0x00, 0x00, 0x00, 0x00, 0x00, 0x00, 
.................... 0x00, 0x00, 0x00, 0x00, 0x00, 0x00, 0x00, 0x00, 0x00, 0x00, 0x00, 0x00, 0x00, 0x00, 0x00, 0x00, 
.................... 0x00, 0x00, 0x00, 0x00, 0x00, 0x00, 0x00, 0x00, 0x00, 0x00, 0x00, 0x00, 0x00, 0x00, 0x00, 0x00, 
.................... 0x00, 0x00, 0x00, 0x00, 0x00, 0x00, 0x00, 0x00, 0x00, 0x00, 0x00, 0x00, 0x00, 0x00, 0x00, 0x00, 
.................... 0x00, 0x00, 0x00, 0x00, 0x00, 0x00, 0x00, 0x00, 0x00, 0x00, 0x00, 0x00, 0x00, 0x00, 0x00, 0x00, 
.................... 0x00, 0x00, 0x00, 0x00, 0x00, 0x00, 0x00, 0x00, 0x00, 0x00, 0x00, 0x00, 0x00, 0x00, 0x00, 0x00, 
.................... 0x00, 0x00, 0x00, 0x00, 0x00, 0x00, 0x00, 0x00, 0x00, 0x00, 0x00, 0x00, 0x00, 0x00, 0x00, 0x00, 
.................... 0x00, 0x00, 0x00, 0x00, 0x00, 0x00, 0x00, 0x00, 0x00, 0x00, 0x00, 0x00, 0x00, 0x00, 0x00, 0x00, 
.................... 0x00, 0x00, 0x00, 0x00, 0x00, 0x00, 0x00, 0x00, 0x00, 0x00, 0x00, 0x00, 0x00, 0x00, 0x00, 0x00, 
.................... 0x00, 0x00, 0x00, 0x00, 0x00, 0x00, 0x00, 0x00, 0x00, 0x00, 0x00, 0x00, 0x00, 0x00, 0x00, 0x00, 
.................... 0x00, 0x00, 0x00, 0x00, 0x00, 0x00, 0x00, 0x00, 0x00, 0x00, 0x00, 0x00, 0x00, 0x00, 0x00, 0x00, 
.................... 0x00, 0x00, 0x00, 0x00, 0x00, 0x00, 0x00, 0x00, 0x00, 0x00, 0x00, 0x00, 0x00, 0x00, 0x00, 0x00, 
.................... 0x00, 0x00, 0x00, 0x00, 0x00, 0x00, 0x00, 0x00, 0x00, 0x00, 0x00, 0x00, 0x00, 0x00, 0x00, 0x00, 
.................... 0x00, 0x00, 0x00, 0x00, 0x00, 0x00, 0x00, 0x00, 0x00, 0x00, 0x00, 0x00, 0x00, 0x00, 0x00, 0x00, 
.................... 0x00, 0x00, 0x00, 0x00, 0x00, 0x00, 0x00, 0x00, 0x00, 0x00, 0x00, 0x00, 0x00, 0x00, 0x00, 0x00, 
.................... 0x00, 0x00, 0x00, 0x00, 0x00, 0x00, 0x00, 0x00, 0x00, 0x00, 0x00, 0x00, 0x00, 0x00, 0x00, 0x00, 
.................... 0x00, 0x00, 0x00, 0x00, 0x00, 0x00, 0x00, 0x00, 0x00, 0x00, 0x00, 0x00, 0x00, 0x00, 0x00, 0x00, 
.................... 0x00, 0x00, 0x00, 0x00, 0x00, 0x00, 0x00, 0x00, 0x00, 0x00, 0x00, 0x00, 0x00, 0x00, 0x00, 0x00, 
.................... 0x00, 0x00, 0x00, 0x00, 0x00, 0x00, 0x00, 0x00, 0x00, 0x00, 0x00, 0x00, 0x00, 0x00, 0x00, 0x00, 
.................... 0x00, 0x00, 0x00, 0x00, 0x00, 0x00, 0x00, 0x00, 0x00, 0x00, 0x00, 0x00, 0x00, 0x00, 0x00, 0x00, 
.................... 0x00, 0x00, 0x00, 0x00, 0x00, 0x00, 0x00, 0x00, 0x00, 0x00, 0x00, 0x00, 0x00, 0x00, 0x00, 0x00, 
.................... 0x00, 0x00, 0x00, 0x00, 0x00, 0x00, 0x00, 0x00, 0x00, 0x00, 0x00, 0x00, 0x00, 0x00, 0x00, 0x00, 
.................... 0x00, 0x00, 0x00, 0x00, 0x00, 0x00, 0x00, 0x00, 0x00, 0x00, 0x00, 0x00, 0x00, 0x00, 0x00, 0x00, 
.................... 0x00, 0x00, 0x00, 0x00, 0x00, 0x00, 0x00, 0x00, 0x00, 0x00, 0x00, 0x00, 0x00, 0x00, 0x00, 0x00, 
.................... 0x00, 0x00, 0x00, 0x00, 0x00, 0x00, 0x00, 0x00, 0x00, 0x00, 0x00, 0x00, 0x00, 0x00, 0x00, 0x00, 
.................... 0x00, 0x00, 0x00, 0x00, 0x00, 0x00, 0x00, 0x00, 0x00, 0x00, 0x00, 0x00, 0x00, 0x00, 0x00, 0x00, 
.................... 0x00, 0x00, 0x00, 0x00, 0x00, 0x00, 0x00, 0x00, 0x00, 0x00, 0x00, 0x00, 0x00, 0x00, 0x00, 0x00, 
.................... 0x00, 0x00, 0x00, 0x00, 0x00, 0x00, 0x00, 0x00, 0x00, 0x00, 0x00, 0x00, 0x00, 0x00, 0x00, 0x00, 
.................... 0x00, 0x00, 0x00, 0x00, 0x00, 0x00, 0x00, 0x00, 0x00, 0x00, 0x00, 0x00, 0x00, 0x00, 0x00, 0x00, 
.................... 0x00, 0x00, 0x00, 0x00, 0x00, 0x00, 0x00, 0x00, 0x00, 0x00, 0x00, 0x00, 0x00, 0x00, 0x00, 0x00, 
.................... 0x00, 0x00, 0x00, 0x00, 0x00, 0x00, 0x00, 0x00, 0x00, 0x00, 0x00, 0x00, 0x00, 0x00, 0x00, 0x00, 
.................... 0x00, 0x00, 0x00, 0x00, 0x00, 0x00, 0x00, 0x00, 0x00, 0x00, 0x00, 0x00, 0x00, 0x00, 0x00, 0x00, 
.................... 0x00, 0x00, 0x00, 0x00, 0x00, 0x00, 0x00, 0x00, 0x00, 0x00, 0x00, 0x00, 0x00, 0x00, 0x00, 0x00, 
.................... 0x00, 0x00, 0x00, 0x00, 0x00, 0x00, 0x00, 0x00, 0x00, 0x00, 0x00, 0x00, 0x00, 0x00, 0x00, 0x00, 
.................... 0x00, 0x00, 0x00, 0x00, 0x00, 0x00, 0x00, 0x00, 0x00, 0x00, 0x00, 0x00, 0x00, 0x00, 0x00, 0x00 
.................... }; 
....................  
.................... const int8 Tomai [64][16] = { 
.................... 0x00, 0x00, 0x00, 0x00, 0x00, 0x00, 0x00, 0x00, 0x00, 0x00, 0x00, 0x00, 0x00, 0x00, 0x00, 0x00, 
.................... 0x00, 0x00, 0x00, 0x00, 0x00, 0x00, 0x00, 0x00, 0x00, 0x00, 0x00, 0x00, 0x00, 0x00, 0x00, 0x00, 
.................... 0x00, 0x00, 0x00, 0x00, 0x00, 0x00, 0x00, 0x00, 0x00, 0x00, 0x00, 0x00, 0x00, 0x00, 0x00, 0x00, 
.................... 0x00, 0x00, 0x00, 0x00, 0x00, 0x00, 0x00, 0x00, 0x00, 0x00, 0x00, 0x00, 0x00, 0x00, 0x00, 0x00, 
.................... 0x00, 0x00, 0x00, 0x00, 0x00, 0x00, 0x00, 0x00, 0x00, 0x00, 0x00, 0x00, 0x00, 0x00, 0x00, 0x00, 
.................... 0x00, 0x00, 0x00, 0x00, 0x00, 0x00, 0x00, 0x00, 0x00, 0x00, 0x00, 0x00, 0x00, 0x00, 0x00, 0x00, 
.................... 0x00, 0x00, 0x00, 0x00, 0x00, 0x00, 0x00, 0x00, 0x00, 0x00, 0x00, 0x00, 0x00, 0x00, 0x00, 0x00, 
.................... 0x00, 0x00, 0x00, 0x00, 0x00, 0x00, 0x00, 0x00, 0x00, 0x00, 0x00, 0x00, 0x00, 0x00, 0x00, 0x00, 
.................... 0x00, 0x00, 0x00, 0x00, 0x00, 0x00, 0x00, 0x00, 0x00, 0x00, 0x00, 0x00, 0x00, 0x00, 0x00, 0x00, 
.................... 0x00, 0x00, 0x00, 0x00, 0x00, 0x00, 0x00, 0x00, 0x00, 0x00, 0x00, 0x00, 0x00, 0x00, 0x00, 0x00, 
.................... 0x00, 0x00, 0x00, 0x00, 0x00, 0x00, 0x00, 0x00, 0x00, 0x00, 0x00, 0x00, 0x00, 0x00, 0x00, 0x00, 
.................... 0x00, 0x00, 0x00, 0x00, 0x00, 0x00, 0x00, 0x00, 0x00, 0x00, 0x00, 0x00, 0x00, 0x00, 0x00, 0x00, 
.................... 0x00, 0x00, 0x00, 0x00, 0x00, 0x00, 0x00, 0x00, 0x00, 0x00, 0x00, 0x00, 0x00, 0x00, 0x00, 0x00, 
.................... 0x00, 0x00, 0x00, 0x00, 0x00, 0x00, 0x00, 0x00, 0x00, 0x00, 0x00, 0x00, 0x00, 0x00, 0x00, 0x00, 
.................... 0x00, 0x00, 0x00, 0x00, 0x00, 0x00, 0x00, 0x00, 0x00, 0x00, 0x00, 0x00, 0x00, 0x00, 0x00, 0x00, 
.................... 0x00, 0x00, 0x00, 0x00, 0x00, 0x00, 0x00, 0x00, 0x00, 0x00, 0x00, 0x00, 0x00, 0x00, 0x00, 0x00, 
.................... 0x00, 0x00, 0x00, 0x00, 0x00, 0x00, 0x00, 0x00, 0x00, 0x00, 0x00, 0x00, 0x00, 0x00, 0x00, 0x00, 
.................... 0x00, 0x00, 0x00, 0x00, 0x00, 0x00, 0x00, 0x00, 0x00, 0x00, 0x00, 0x00, 0x00, 0x00, 0x00, 0x00, 
.................... 0x00, 0x00, 0x00, 0x00, 0x00, 0x00, 0x00, 0x00, 0x00, 0x00, 0x00, 0x00, 0x00, 0x00, 0x00, 0x00, 
.................... 0x00, 0x00, 0x00, 0x00, 0x00, 0x00, 0x00, 0x00, 0x00, 0x00, 0x00, 0x00, 0x00, 0x00, 0x00, 0x00, 
.................... 0x00, 0x00, 0x00, 0x00, 0x00, 0x00, 0x00, 0x00, 0x00, 0x00, 0x00, 0x00, 0x00, 0x00, 0x00, 0x00, 
.................... 0x00, 0x00, 0x00, 0x00, 0x00, 0x00, 0x00, 0x00, 0x00, 0x00, 0x00, 0x00, 0x00, 0x00, 0x00, 0x00, 
.................... 0x00, 0x00, 0x00, 0x00, 0x00, 0x00, 0x00, 0x00, 0x00, 0x00, 0x00, 0x00, 0x00, 0x00, 0x00, 0x00, 
.................... 0x00, 0x00, 0x00, 0x00, 0x00, 0x00, 0x00, 0x00, 0x00, 0x00, 0x00, 0x00, 0x00, 0x00, 0x00, 0x00, 
.................... 0x00, 0x00, 0x00, 0x00, 0x00, 0x00, 0x00, 0x00, 0x00, 0x00, 0x00, 0x00, 0x00, 0x00, 0x00, 0x00, 
.................... 0x00, 0x00, 0x00, 0x00, 0x00, 0x00, 0x00, 0x00, 0x00, 0x00, 0x00, 0x00, 0x00, 0x00, 0x00, 0x00, 
.................... 0x00, 0x00, 0x00, 0x00, 0x00, 0x00, 0x00, 0x00, 0x00, 0x00, 0x00, 0x00, 0x00, 0x00, 0x00, 0x00, 
.................... 0x00, 0x00, 0x00, 0x00, 0x00, 0x00, 0x00, 0x00, 0x00, 0x00, 0x00, 0x00, 0x00, 0x00, 0x00, 0x00, 
.................... 0x00, 0x00, 0x00, 0x00, 0x00, 0x00, 0x00, 0x00, 0x00, 0x00, 0x00, 0x00, 0x00, 0x00, 0x00, 0x00, 
.................... 0x00, 0x00, 0x00, 0x00, 0x00, 0x00, 0x00, 0x00, 0x00, 0x00, 0x00, 0x00, 0x00, 0x00, 0x00, 0x00, 
.................... 0x00, 0x00, 0x00, 0x00, 0x00, 0x00, 0x00, 0x00, 0x00, 0x00, 0x00, 0x00, 0x00, 0x7F, 0xFF, 0xF8, 
.................... 0x00, 0x00, 0x00, 0x00, 0x00, 0x00, 0x00, 0x00, 0x00, 0x00, 0x00, 0x00, 0x00, 0x40, 0x00, 0x08, 
.................... 0x00, 0x00, 0x00, 0x00, 0x00, 0x00, 0x00, 0x00, 0x00, 0x00, 0x00, 0x00, 0x00, 0x47, 0x03, 0x88, 
.................... 0x00, 0x00, 0x00, 0x00, 0x00, 0x00, 0x00, 0x00, 0x00, 0x00, 0x00, 0x00, 0x00, 0x45, 0x02, 0x88, 
.................... 0x00, 0x00, 0x00, 0x00, 0x00, 0x00, 0x00, 0x00, 0x00, 0x00, 0x00, 0x00, 0x00, 0x45, 0x02, 0x88, 
.................... 0x00, 0x00, 0x00, 0x00, 0x00, 0x00, 0x00, 0x00, 0x00, 0x00, 0x00, 0x00, 0x00, 0x45, 0x02, 0x88, 
.................... 0x00, 0x00, 0x00, 0x00, 0x00, 0x00, 0x00, 0x00, 0x00, 0x00, 0x00, 0x00, 0x00, 0x45, 0x02, 0x88, 
.................... 0x00, 0x00, 0x00, 0x00, 0x00, 0x00, 0x00, 0x00, 0x00, 0x00, 0x00, 0x00, 0x00, 0x47, 0x03, 0x88, 
.................... 0x00, 0x00, 0x00, 0x00, 0x00, 0x00, 0x00, 0x00, 0x00, 0x00, 0x00, 0x00, 0x00, 0x40, 0x00, 0x08, 
.................... 0x00, 0x00, 0x00, 0x00, 0x00, 0x00, 0x00, 0x00, 0x00, 0x00, 0x00, 0x00, 0x00, 0x40, 0xFC, 0x08, 
.................... 0x00, 0x00, 0x00, 0x00, 0x00, 0x00, 0x00, 0x00, 0x00, 0x00, 0x00, 0x00, 0x00, 0x40, 0x84, 0x08, 
.................... 0x00, 0x00, 0x00, 0x00, 0x00, 0x00, 0x00, 0x00, 0x00, 0x00, 0x00, 0x00, 0x00, 0x40, 0x84, 0x08, 
.................... 0x00, 0x00, 0x00, 0x00, 0x00, 0x00, 0x00, 0x00, 0x00, 0x00, 0x00, 0x00, 0x00, 0x40, 0xFC, 0x08, 
.................... 0x00, 0x00, 0x00, 0x00, 0x00, 0x00, 0x00, 0x00, 0x00, 0x00, 0x00, 0x00, 0x00, 0x40, 0x00, 0x08, 
.................... 0x00, 0x00, 0x00, 0x00, 0x00, 0x00, 0x00, 0x00, 0x00, 0x00, 0x00, 0x00, 0x00, 0x7F, 0xFF, 0xF8, 
.................... 0x00, 0x00, 0x00, 0x00, 0x00, 0x00, 0x00, 0x00, 0x00, 0x00, 0x00, 0x00, 0x00, 0x00, 0x00, 0x00, 
.................... 0x00, 0x00, 0x00, 0x00, 0x00, 0x00, 0x00, 0x00, 0x00, 0x00, 0x00, 0x00, 0x00, 0x00, 0x00, 0x00, 
.................... 0x00, 0x00, 0x00, 0x00, 0x00, 0x00, 0x00, 0x00, 0x00, 0x00, 0x00, 0x00, 0x00, 0x00, 0x00, 0x00, 
.................... 0x00, 0x00, 0x00, 0x00, 0x00, 0x00, 0x00, 0x00, 0x00, 0x00, 0x00, 0x00, 0x00, 0x00, 0x00, 0x00, 
.................... 0x00, 0x00, 0x00, 0x00, 0x00, 0x00, 0x00, 0x00, 0x00, 0x00, 0x00, 0x00, 0x00, 0x00, 0x00, 0x00, 
.................... 0x00, 0x00, 0x00, 0x00, 0x00, 0x00, 0x00, 0x00, 0x00, 0x00, 0x00, 0x00, 0x00, 0x00, 0x00, 0x00, 
.................... 0x00, 0x00, 0x00, 0x00, 0x00, 0x00, 0x00, 0x00, 0x00, 0x00, 0x00, 0x00, 0x00, 0x00, 0x00, 0x00, 
.................... 0x00, 0x00, 0x00, 0x00, 0x00, 0x00, 0x00, 0x00, 0x00, 0x00, 0x00, 0x00, 0x00, 0x00, 0x00, 0x00, 
.................... 0x00, 0x00, 0x00, 0x00, 0x00, 0x00, 0x00, 0x00, 0x00, 0x00, 0x00, 0x00, 0x00, 0x00, 0x00, 0x00, 
.................... 0x00, 0x00, 0x00, 0x00, 0x00, 0x00, 0x00, 0x00, 0x00, 0x00, 0x00, 0x00, 0x00, 0x00, 0x00, 0x00, 
.................... 0x00, 0x00, 0x00, 0x00, 0x00, 0x00, 0x00, 0x00, 0x00, 0x00, 0x00, 0x00, 0x00, 0x00, 0x00, 0x00, 
.................... 0x00, 0x00, 0x00, 0x00, 0x00, 0x00, 0x00, 0x00, 0x00, 0x00, 0x00, 0x00, 0x00, 0x00, 0x00, 0x00, 
.................... 0x00, 0x00, 0x00, 0x00, 0x00, 0x00, 0x00, 0x00, 0x00, 0x00, 0x00, 0x00, 0x00, 0x00, 0x00, 0x00, 
.................... 0x00, 0x00, 0x00, 0x00, 0x00, 0x00, 0x00, 0x00, 0x00, 0x00, 0x00, 0x00, 0x00, 0x00, 0x00, 0x00, 
.................... 0x00, 0x00, 0x00, 0x00, 0x00, 0x00, 0x00, 0x00, 0x00, 0x00, 0x00, 0x00, 0x00, 0x00, 0x00, 0x00, 
.................... 0x00, 0x00, 0x00, 0x00, 0x00, 0x00, 0x00, 0x00, 0x00, 0x00, 0x00, 0x00, 0x00, 0x00, 0x00, 0x00, 
.................... 0x00, 0x00, 0x00, 0x00, 0x00, 0x00, 0x00, 0x00, 0x00, 0x00, 0x00, 0x00, 0x00, 0x00, 0x00, 0x00, 
.................... 0x00, 0x00, 0x00, 0x00, 0x00, 0x00, 0x00, 0x00, 0x00, 0x00, 0x00, 0x00, 0x00, 0x00, 0x00, 0x00, 
.................... 0x00, 0x00, 0x00, 0x00, 0x00, 0x00, 0x00, 0x00, 0x00, 0x00, 0x00, 0x00, 0x00, 0x00, 0x00, 0x00 
.................... }; 
....................  
.................... const int8 Ventilador [64][16] = { 
.................... 0x00, 0x00, 0x00, 0x00, 0x00, 0x00, 0x00, 0x00, 0x00, 0x00, 0x00, 0x00, 0x00, 0x00, 0x00, 0x00, 
.................... 0x00, 0x00, 0x00, 0x00, 0x00, 0x00, 0x00, 0x00, 0x00, 0x00, 0x00, 0x00, 0x00, 0x00, 0x00, 0x00, 
.................... 0x00, 0x00, 0x00, 0x00, 0x00, 0x00, 0x00, 0x00, 0x00, 0x00, 0x00, 0x00, 0x00, 0x00, 0x00, 0x00, 
.................... 0x00, 0x00, 0x00, 0x00, 0x00, 0x00, 0x00, 0x00, 0x00, 0x00, 0x00, 0x00, 0x00, 0x00, 0x00, 0x00, 
.................... 0x00, 0x00, 0x00, 0x00, 0x00, 0x00, 0x00, 0x00, 0x00, 0x00, 0x00, 0x00, 0x00, 0x00, 0x00, 0x00, 
.................... 0x00, 0x00, 0x00, 0x00, 0x00, 0x00, 0x00, 0x00, 0x00, 0x00, 0x00, 0x00, 0x00, 0x00, 0x00, 0x00, 
.................... 0x00, 0x00, 0x00, 0x00, 0x00, 0x00, 0x00, 0x00, 0x00, 0x00, 0x00, 0x00, 0x00, 0x00, 0x00, 0x00, 
.................... 0x00, 0x00, 0x00, 0x00, 0x00, 0x00, 0x00, 0x00, 0x00, 0x00, 0x00, 0x00, 0x00, 0x00, 0x00, 0x00, 
.................... 0x00, 0x00, 0x00, 0x00, 0x00, 0x00, 0x00, 0x00, 0x00, 0x00, 0x00, 0x00, 0x00, 0x00, 0x00, 0x00, 
.................... 0x00, 0x00, 0x00, 0x00, 0x00, 0x00, 0x00, 0x00, 0x00, 0x00, 0x00, 0x00, 0x00, 0x00, 0x00, 0x00, 
.................... 0x00, 0x00, 0x00, 0x00, 0x00, 0x00, 0x00, 0x00, 0x00, 0x00, 0x00, 0x00, 0x00, 0x00, 0x00, 0x00, 
.................... 0x00, 0x00, 0x00, 0x00, 0x00, 0x00, 0x00, 0x00, 0x00, 0x00, 0x00, 0x00, 0x00, 0x00, 0x00, 0x00, 
.................... 0x00, 0x00, 0x00, 0x00, 0x00, 0x00, 0x00, 0x00, 0x00, 0x00, 0x00, 0x00, 0x00, 0x00, 0x00, 0x00, 
.................... 0x00, 0x00, 0x00, 0x00, 0x00, 0x00, 0x00, 0x00, 0x00, 0x00, 0x00, 0x00, 0x00, 0x00, 0x00, 0x00, 
.................... 0x00, 0x00, 0x00, 0x00, 0x00, 0x00, 0x00, 0x00, 0x00, 0x00, 0x00, 0x00, 0x00, 0x00, 0x00, 0x00, 
.................... 0x00, 0x00, 0x00, 0x00, 0x00, 0x00, 0x00, 0x00, 0x00, 0x00, 0x00, 0x00, 0x00, 0x00, 0x00, 0x00, 
.................... 0x00, 0x00, 0x00, 0x00, 0x00, 0x00, 0x00, 0x00, 0x00, 0x00, 0x00, 0x00, 0x00, 0x00, 0x00, 0x00, 
.................... 0x00, 0x00, 0x00, 0x00, 0x00, 0x00, 0x00, 0x00, 0x00, 0x00, 0x00, 0x00, 0x00, 0x00, 0x00, 0x00, 
.................... 0x00, 0x00, 0x00, 0x00, 0x00, 0x00, 0x00, 0x00, 0x00, 0x00, 0x00, 0x00, 0x00, 0x00, 0x00, 0x00, 
.................... 0x00, 0x00, 0x00, 0x00, 0x00, 0x00, 0x00, 0x00, 0x00, 0x00, 0x00, 0x00, 0x00, 0x00, 0x00, 0x00, 
.................... 0x00, 0x00, 0x00, 0x00, 0x00, 0x00, 0x00, 0x00, 0x00, 0x00, 0x00, 0x00, 0x00, 0x00, 0x00, 0x00, 
.................... 0x00, 0x00, 0x00, 0x00, 0x00, 0x00, 0x00, 0x00, 0x00, 0x00, 0x00, 0x00, 0x00, 0x00, 0x00, 0x00, 
.................... 0x00, 0x00, 0x00, 0x00, 0x00, 0x00, 0x00, 0x00, 0x00, 0x00, 0x00, 0x00, 0x00, 0x00, 0x00, 0x00, 
.................... 0x00, 0x00, 0x00, 0x00, 0x00, 0x00, 0x00, 0x00, 0x00, 0x00, 0x00, 0x00, 0x00, 0x00, 0x00, 0x00, 
.................... 0x00, 0x00, 0x00, 0x00, 0x00, 0x00, 0x00, 0x00, 0x00, 0x00, 0x00, 0x00, 0x00, 0x00, 0x00, 0x00, 
.................... 0x00, 0x00, 0x00, 0x00, 0x00, 0x00, 0x00, 0x00, 0x00, 0x00, 0x00, 0x00, 0x00, 0x00, 0x00, 0x00, 
.................... 0x00, 0x00, 0x00, 0x00, 0x00, 0x00, 0x00, 0x00, 0x00, 0x00, 0x00, 0x00, 0x00, 0x00, 0x00, 0x00, 
.................... 0x00, 0x00, 0x00, 0x00, 0x00, 0x00, 0x00, 0x00, 0x00, 0x00, 0x00, 0x00, 0x00, 0x00, 0x00, 0x00, 
.................... 0x00, 0x00, 0x00, 0x00, 0x00, 0x00, 0x00, 0x00, 0x00, 0x00, 0x00, 0x00, 0x00, 0x00, 0x00, 0x00, 
.................... 0x00, 0x00, 0x00, 0x00, 0x00, 0x00, 0x00, 0x00, 0x00, 0x00, 0x00, 0x00, 0x00, 0x00, 0x00, 0x00, 
.................... 0x00, 0x00, 0x00, 0x00, 0x00, 0x00, 0x00, 0x00, 0x00, 0x00, 0x00, 0x00, 0x00, 0x00, 0x00, 0x00, 
.................... 0x00, 0x00, 0x00, 0x00, 0x00, 0x00, 0x00, 0x00, 0x00, 0x00, 0x00, 0x00, 0x00, 0x00, 0x00, 0x00, 
.................... 0x00, 0x00, 0x00, 0x00, 0x00, 0x00, 0x00, 0x00, 0x00, 0x00, 0x00, 0x00, 0x00, 0x00, 0x00, 0x00, 
.................... 0x00, 0x00, 0x00, 0x00, 0x00, 0x00, 0x00, 0x00, 0x00, 0x00, 0x00, 0x00, 0x00, 0x00, 0x00, 0x00, 
.................... 0x00, 0x00, 0x00, 0x00, 0x00, 0x00, 0x00, 0x00, 0x00, 0x00, 0x00, 0x00, 0x00, 0x00, 0x00, 0x00, 
.................... 0x00, 0x00, 0x00, 0x00, 0x00, 0x00, 0x00, 0x00, 0x00, 0x00, 0x00, 0x00, 0x00, 0x00, 0x00, 0x00, 
.................... 0x00, 0x00, 0x00, 0x00, 0x00, 0x00, 0x00, 0x00, 0x00, 0x00, 0x00, 0x00, 0x00, 0x00, 0x00, 0x00, 
.................... 0x00, 0x00, 0x00, 0x00, 0x00, 0x00, 0x00, 0x00, 0x00, 0x00, 0x00, 0x00, 0x00, 0x00, 0x00, 0x00, 
.................... 0x00, 0x00, 0x00, 0x00, 0x00, 0x00, 0x00, 0x00, 0x00, 0x00, 0x00, 0x00, 0x00, 0x00, 0x00, 0x00, 
.................... 0x00, 0x00, 0x00, 0x00, 0x00, 0x00, 0x00, 0x00, 0x00, 0x00, 0x00, 0x00, 0x00, 0x00, 0x00, 0x00, 
.................... 0x00, 0x00, 0x00, 0x00, 0x00, 0x00, 0x00, 0x00, 0x00, 0x00, 0x00, 0x00, 0x00, 0x00, 0x00, 0x00, 
.................... 0x00, 0x00, 0x00, 0x00, 0x00, 0x00, 0x00, 0x00, 0x00, 0x00, 0x00, 0x00, 0x00, 0x00, 0x00, 0x00, 
.................... 0x00, 0x00, 0x00, 0x00, 0x00, 0x00, 0x00, 0x00, 0x00, 0x00, 0x00, 0x00, 0x00, 0x00, 0x00, 0x00, 
.................... 0x00, 0x00, 0x00, 0x00, 0x00, 0x00, 0x00, 0x00, 0x00, 0x00, 0x00, 0x00, 0x00, 0x00, 0x00, 0x00, 
.................... 0x00, 0x00, 0x00, 0x00, 0x00, 0x00, 0x00, 0x00, 0x00, 0x00, 0x00, 0x00, 0x00, 0x00, 0x00, 0x00, 
.................... 0x00, 0x00, 0x00, 0x00, 0x00, 0x00, 0x00, 0x00, 0x00, 0x00, 0x00, 0x00, 0x00, 0x00, 0x00, 0x00, 
.................... 0x00, 0x00, 0x00, 0x00, 0x00, 0x00, 0x00, 0x00, 0x00, 0x00, 0x00, 0x00, 0x00, 0x00, 0x60, 0x00, 
.................... 0x00, 0x00, 0x00, 0x00, 0x00, 0x00, 0x00, 0x00, 0x00, 0x00, 0x00, 0x00, 0x00, 0x00, 0xF0, 0x00, 
.................... 0x00, 0x00, 0x00, 0x00, 0x00, 0x00, 0x00, 0x00, 0x00, 0x00, 0x00, 0x00, 0x00, 0x01, 0xF8, 0x00, 
.................... 0x00, 0x00, 0x00, 0x00, 0x00, 0x00, 0x00, 0x00, 0x00, 0x00, 0x00, 0x00, 0x00, 0x01, 0xF8, 0x00, 
.................... 0x00, 0x00, 0x00, 0x00, 0x00, 0x00, 0x00, 0x00, 0x00, 0x00, 0x00, 0x00, 0x00, 0x01, 0xF8, 0x00, 
.................... 0x00, 0x00, 0x00, 0x00, 0x00, 0x00, 0x00, 0x00, 0x00, 0x00, 0x00, 0x00, 0x00, 0x00, 0xF0, 0x00, 
.................... 0x00, 0x00, 0x00, 0x00, 0x00, 0x00, 0x00, 0x00, 0x00, 0x00, 0x00, 0x00, 0x00, 0x38, 0x71, 0xC0, 
.................... 0x00, 0x00, 0x00, 0x00, 0x00, 0x00, 0x00, 0x00, 0x00, 0x00, 0x00, 0x00, 0x00, 0x7C, 0x93, 0xE0, 
.................... 0x00, 0x00, 0x00, 0x00, 0x00, 0x00, 0x00, 0x00, 0x00, 0x00, 0x00, 0x00, 0x00, 0xFF, 0x0F, 0xF0, 
.................... 0x00, 0x00, 0x00, 0x00, 0x00, 0x00, 0x00, 0x00, 0x00, 0x00, 0x00, 0x00, 0x00, 0xFF, 0x0F, 0xF0, 
.................... 0x00, 0x00, 0x00, 0x00, 0x00, 0x00, 0x00, 0x00, 0x00, 0x00, 0x00, 0x00, 0x00, 0x7D, 0x93, 0xE0, 
.................... 0x00, 0x00, 0x00, 0x00, 0x00, 0x00, 0x00, 0x00, 0x00, 0x00, 0x00, 0x00, 0x00, 0x38, 0x61, 0xC0, 
.................... 0x00, 0x00, 0x00, 0x00, 0x00, 0x00, 0x00, 0x00, 0x00, 0x00, 0x00, 0x00, 0x00, 0x00, 0xF0, 0x00, 
.................... 0x00, 0x00, 0x00, 0x00, 0x00, 0x00, 0x00, 0x00, 0x00, 0x00, 0x00, 0x00, 0x00, 0x01, 0xF8, 0x00, 
.................... 0x00, 0x00, 0x00, 0x00, 0x00, 0x00, 0x00, 0x00, 0x00, 0x00, 0x00, 0x00, 0x00, 0x01, 0xF8, 0x00, 
.................... 0x00, 0x00, 0x00, 0x00, 0x00, 0x00, 0x00, 0x00, 0x00, 0x00, 0x00, 0x00, 0x00, 0x01, 0xF8, 0x00, 
.................... 0x00, 0x00, 0x00, 0x00, 0x00, 0x00, 0x00, 0x00, 0x00, 0x00, 0x00, 0x00, 0x00, 0x00, 0xF0, 0x00, 
.................... 0x00, 0x00, 0x00, 0x00, 0x00, 0x00, 0x00, 0x00, 0x00, 0x00, 0x00, 0x00, 0x00, 0x00, 0x60, 0x00 
.................... }; 
....................  
.................... #include "FuncionesDisplay.h" 
....................  
.................... typedef struct{ 
....................    char Letra[20]; 
.................... }MENUU; 
....................  
.................... MENUU Menus; 
....................   
.................... void displayContrasena(int digito, int x, int y, int sombreado) 
.................... { 
....................    char voltage[9]; 
....................    sprintf(voltage, "%i", digito); 
04B0A:  MOVLW  05
04B0C:  MOVLB  4
04B0E:  MOVWF  x2B
04B10:  MOVLW  EB
04B12:  MOVWF  x2A
04B14:  MOVFF  5E7,5F4
04B18:  MOVLW  1F
04B1A:  MOVLB  5
04B1C:  MOVWF  xF5
04B1E:  MOVLB  0
04B20:  RCALL  45A8
....................     
....................    if(sombreado==1) 
04B22:  MOVLB  5
04B24:  DECFSZ xEA,W
04B26:  BRA    4B76
....................       {glcd_rect(x, y, x+18, y+24, YES, ON);glcd_text57(x+2, y+1, voltage, 2, OFF);} 
04B28:  MOVLW  12
04B2A:  ADDWF  xE8,W
04B2C:  MOVWF  xF4
04B2E:  MOVLW  18
04B30:  ADDWF  xE9,W
04B32:  MOVWF  xF5
04B34:  MOVFF  5E8,5F6
04B38:  MOVFF  5E9,5F7
04B3C:  MOVFF  5F4,5F8
04B40:  MOVWF  xF9
04B42:  MOVLW  01
04B44:  MOVWF  xFA
04B46:  MOVWF  xFB
04B48:  MOVLB  0
04B4A:  RCALL  4880
04B4C:  MOVLW  02
04B4E:  MOVLB  5
04B50:  ADDWF  xE8,W
04B52:  MOVWF  xF4
04B54:  MOVLW  01
04B56:  ADDWF  xE9,W
04B58:  MOVWF  xF5
04B5A:  MOVFF  5F4,5F6
04B5E:  MOVWF  xF7
04B60:  MOVLW  05
04B62:  MOVWF  xF9
04B64:  MOVLW  EB
04B66:  MOVWF  xF8
04B68:  MOVLW  02
04B6A:  MOVWF  xFA
04B6C:  CLRF   xFB
04B6E:  MOVLB  0
04B70:  RCALL  4948
....................    else    
04B72:  BRA    4BC0
04B74:  MOVLB  5
....................       {glcd_rect(x, y, x+18, y+24, NO, OFF);glcd_text57(x+2, y+1, voltage, 2, ON);} 
04B76:  MOVLW  12
04B78:  ADDWF  xE8,W
04B7A:  MOVWF  xF4
04B7C:  MOVLW  18
04B7E:  ADDWF  xE9,W
04B80:  MOVWF  xF5
04B82:  MOVFF  5E8,5F6
04B86:  MOVFF  5E9,5F7
04B8A:  MOVFF  5F4,5F8
04B8E:  MOVWF  xF9
04B90:  CLRF   xFA
04B92:  CLRF   xFB
04B94:  MOVLB  0
04B96:  RCALL  4880
04B98:  MOVLW  02
04B9A:  MOVLB  5
04B9C:  ADDWF  xE8,W
04B9E:  MOVWF  xF4
04BA0:  MOVLW  01
04BA2:  ADDWF  xE9,W
04BA4:  MOVWF  xF5
04BA6:  MOVFF  5F4,5F6
04BAA:  MOVWF  xF7
04BAC:  MOVLW  05
04BAE:  MOVWF  xF9
04BB0:  MOVLW  EB
04BB2:  MOVWF  xF8
04BB4:  MOVLW  02
04BB6:  MOVWF  xFA
04BB8:  MOVLW  01
04BBA:  MOVWF  xFB
04BBC:  MOVLB  0
04BBE:  RCALL  4948
....................  
.................... } 
04BC0:  RETLW  00
....................  
.................... void displayTiempo(int digito, int x, int y, int sombreado, int tamano) 
.................... { 
....................    char voltage[9]; 
....................    sprintf(voltage, "%i", digito); 
*
05370:  MOVLW  05
05372:  MOVLB  4
05374:  MOVWF  x2B
05376:  MOVLW  E2
05378:  MOVWF  x2A
0537A:  MOVFF  5DD,5F4
0537E:  MOVLW  1F
05380:  MOVLB  5
05382:  MOVWF  xF5
05384:  MOVLB  0
05386:  CALL   45A8
....................     
....................    if(sombreado==1) 
0538A:  MOVLB  5
0538C:  DECFSZ xE0,W
0538E:  BRA    53E8
....................       {glcd_rect(x, y, x+(tamano*6), y+(tamano*8), YES, ON);glcd_text57(x+2, y+1, voltage, tamano, OFF);} 
05390:  MOVF   xE1,W
05392:  MULLW  06
05394:  MOVF   FF3,W
05396:  ADDWF  xDE,W
05398:  MOVWF  xEB
0539A:  MOVF   xE1,W
0539C:  MULLW  08
0539E:  MOVF   FF3,W
053A0:  ADDWF  xDF,W
053A2:  MOVWF  xEC
053A4:  MOVFF  5DE,5F6
053A8:  MOVFF  5DF,5F7
053AC:  MOVFF  5EB,5F8
053B0:  MOVWF  xF9
053B2:  MOVLW  01
053B4:  MOVWF  xFA
053B6:  MOVWF  xFB
053B8:  MOVLB  0
053BA:  CALL   4880
053BE:  MOVLW  02
053C0:  MOVLB  5
053C2:  ADDWF  xDE,W
053C4:  MOVWF  xEB
053C6:  MOVLW  01
053C8:  ADDWF  xDF,W
053CA:  MOVWF  xEC
053CC:  MOVFF  5EB,5F6
053D0:  MOVWF  xF7
053D2:  MOVLW  05
053D4:  MOVWF  xF9
053D6:  MOVLW  E2
053D8:  MOVWF  xF8
053DA:  MOVFF  5E1,5FA
053DE:  CLRF   xFB
053E0:  MOVLB  0
053E2:  CALL   4948
053E6:  MOVLB  5
....................    if(sombreado==0) 
053E8:  MOVF   xE0,F
053EA:  BNZ   5446
....................       {glcd_rect(x, y, x+(tamano*6), y+(tamano*8), YES, OFF);glcd_text57(x+2, y+1, voltage, tamano, ON);} 
053EC:  MOVF   xE1,W
053EE:  MULLW  06
053F0:  MOVF   FF3,W
053F2:  ADDWF  xDE,W
053F4:  MOVWF  xEB
053F6:  MOVF   xE1,W
053F8:  MULLW  08
053FA:  MOVF   FF3,W
053FC:  ADDWF  xDF,W
053FE:  MOVWF  xEC
05400:  MOVFF  5DE,5F6
05404:  MOVFF  5DF,5F7
05408:  MOVFF  5EB,5F8
0540C:  MOVWF  xF9
0540E:  MOVLW  01
05410:  MOVWF  xFA
05412:  CLRF   xFB
05414:  MOVLB  0
05416:  CALL   4880
0541A:  MOVLW  02
0541C:  MOVLB  5
0541E:  ADDWF  xDE,W
05420:  MOVWF  xEB
05422:  MOVLW  01
05424:  ADDWF  xDF,W
05426:  MOVWF  xEC
05428:  MOVFF  5EB,5F6
0542C:  MOVWF  xF7
0542E:  MOVLW  05
05430:  MOVWF  xF9
05432:  MOVLW  E2
05434:  MOVWF  xF8
05436:  MOVFF  5E1,5FA
0543A:  MOVLW  01
0543C:  MOVWF  xFB
0543E:  MOVLB  0
05440:  CALL   4948
05444:  MOVLB  5
....................  
.................... } 
05446:  MOVLB  0
05448:  RETLW  00
....................  
.................... void displayMenu(char palabra[100], int x, int y, int sombreado, int tamano) 
.................... { 
....................    strcpy(Menus.Letra,palabra); 
*
04BC2:  MOVLB  5
04BC4:  MOVFF  5E5,01
04BC8:  MOVFF  5E6,03
04BCC:  MOVFF  5E5,5EB
04BD0:  MOVFF  5E6,5EC
04BD4:  MOVLW  04
04BD6:  MOVWF  FEA
04BD8:  MOVLW  16
04BDA:  MOVWF  FE9
04BDC:  MOVFF  5E6,FE2
04BE0:  MOVFF  5E5,FE1
04BE4:  MOVF   FE7,F
04BE6:  MOVFF  FE6,FEE
04BEA:  BNZ   4BE4
....................    if(sombreado==1) 
04BEC:  DECFSZ xE9,W
04BEE:  BRA    4C3A
....................       {glcd_rect(0, y, 127, y+(tamano*8), YES, ON);glcd_text57(x+1, y+1, Menus.Letra, tamano, OFF);} 
04BF0:  MOVF   xEA,W
04BF2:  MULLW  08
04BF4:  MOVF   FF3,W
04BF6:  ADDWF  xE8,W
04BF8:  MOVWF  xEB
04BFA:  CLRF   xF6
04BFC:  MOVFF  5E8,5F7
04C00:  MOVLW  7F
04C02:  MOVWF  xF8
04C04:  MOVFF  5EB,5F9
04C08:  MOVLW  01
04C0A:  MOVWF  xFA
04C0C:  MOVWF  xFB
04C0E:  MOVLB  0
04C10:  RCALL  4880
04C12:  MOVLW  01
04C14:  MOVLB  5
04C16:  ADDWF  xE7,W
04C18:  MOVWF  xEB
04C1A:  MOVLW  01
04C1C:  ADDWF  xE8,W
04C1E:  MOVWF  xEC
04C20:  MOVFF  5EB,5F6
04C24:  MOVWF  xF7
04C26:  MOVLW  04
04C28:  MOVWF  xF9
04C2A:  MOVLW  16
04C2C:  MOVWF  xF8
04C2E:  MOVFF  5EA,5FA
04C32:  CLRF   xFB
04C34:  MOVLB  0
04C36:  RCALL  4948
04C38:  MOVLB  5
....................    if(sombreado==0) 
04C3A:  MOVF   xE9,F
04C3C:  BNZ   4C8A
....................       {glcd_rect(0, y, 127, y+(tamano*8), YES, OFF);glcd_text57(x+1, y+1, Menus.Letra, tamano, ON);} 
04C3E:  MOVF   xEA,W
04C40:  MULLW  08
04C42:  MOVF   FF3,W
04C44:  ADDWF  xE8,W
04C46:  MOVWF  xEB
04C48:  CLRF   xF6
04C4A:  MOVFF  5E8,5F7
04C4E:  MOVLW  7F
04C50:  MOVWF  xF8
04C52:  MOVFF  5EB,5F9
04C56:  MOVLW  01
04C58:  MOVWF  xFA
04C5A:  CLRF   xFB
04C5C:  MOVLB  0
04C5E:  RCALL  4880
04C60:  MOVLW  01
04C62:  MOVLB  5
04C64:  ADDWF  xE7,W
04C66:  MOVWF  xEB
04C68:  MOVLW  01
04C6A:  ADDWF  xE8,W
04C6C:  MOVWF  xEC
04C6E:  MOVFF  5EB,5F6
04C72:  MOVWF  xF7
04C74:  MOVLW  04
04C76:  MOVWF  xF9
04C78:  MOVLW  16
04C7A:  MOVWF  xF8
04C7C:  MOVFF  5EA,5FA
04C80:  MOVLW  01
04C82:  MOVWF  xFB
04C84:  MOVLB  0
04C86:  RCALL  4948
04C88:  MOVLB  5
....................  
.................... } 
04C8A:  MOVLB  0
04C8C:  RETLW  00
....................  
.................... void displayfloat(float adc,int x,int y,int sombreado, int tamano) { 
....................    char voltage[9];     
....................       sprintf(voltage, "%2.0fC",adc); // Converts adc to text 
*
05902:  MOVLW  05
05904:  MOVLB  4
05906:  MOVWF  x2B
05908:  MOVLW  E9
0590A:  MOVWF  x2A
0590C:  MOVLW  01
0590E:  MOVWF  FE9
05910:  MOVFF  5E4,5F5
05914:  MOVFF  5E3,5F4
05918:  MOVFF  5E2,5F3
0591C:  MOVFF  5E1,5F2
05920:  MOVLB  5
05922:  CLRF   xF6
05924:  MOVLB  0
05926:  BRA    574A
05928:  MOVLW  B0
0592A:  MOVLB  5
0592C:  MOVWF  xFF
0592E:  MOVLB  0
05930:  CALL   4586
05934:  MOVLW  43
05936:  MOVLB  5
05938:  MOVWF  xFF
0593A:  MOVLB  0
0593C:  CALL   4586
....................        
....................    if(sombreado==1) 
05940:  MOVLB  5
05942:  DECFSZ xE7,W
05944:  BRA    599E
....................       {glcd_rect(x, y, x+(tamano*20), y+(tamano*8), YES, ON);glcd_text57(x+2, y+1, voltage, tamano, OFF);} 
05946:  MOVF   xE8,W
05948:  MULLW  14
0594A:  MOVF   FF3,W
0594C:  ADDWF  xE5,W
0594E:  MOVWF  xF2
05950:  MOVF   xE8,W
05952:  MULLW  08
05954:  MOVF   FF3,W
05956:  ADDWF  xE6,W
05958:  MOVWF  xF3
0595A:  MOVFF  5E5,5F6
0595E:  MOVFF  5E6,5F7
05962:  MOVFF  5F2,5F8
05966:  MOVWF  xF9
05968:  MOVLW  01
0596A:  MOVWF  xFA
0596C:  MOVWF  xFB
0596E:  MOVLB  0
05970:  CALL   4880
05974:  MOVLW  02
05976:  MOVLB  5
05978:  ADDWF  xE5,W
0597A:  MOVWF  xF2
0597C:  MOVLW  01
0597E:  ADDWF  xE6,W
05980:  MOVWF  xF3
05982:  MOVFF  5F2,5F6
05986:  MOVWF  xF7
05988:  MOVLW  05
0598A:  MOVWF  xF9
0598C:  MOVLW  E9
0598E:  MOVWF  xF8
05990:  MOVFF  5E8,5FA
05994:  CLRF   xFB
05996:  MOVLB  0
05998:  CALL   4948
0599C:  MOVLB  5
....................    if(sombreado==0) 
0599E:  MOVF   xE7,F
059A0:  BNZ   59FC
....................       {glcd_rect(x, y, x+(tamano*20), y+(tamano*8), YES, OFF);glcd_text57(x+2, y+1, voltage, tamano, ON);} 
059A2:  MOVF   xE8,W
059A4:  MULLW  14
059A6:  MOVF   FF3,W
059A8:  ADDWF  xE5,W
059AA:  MOVWF  xF2
059AC:  MOVF   xE8,W
059AE:  MULLW  08
059B0:  MOVF   FF3,W
059B2:  ADDWF  xE6,W
059B4:  MOVWF  xF3
059B6:  MOVFF  5E5,5F6
059BA:  MOVFF  5E6,5F7
059BE:  MOVFF  5F2,5F8
059C2:  MOVWF  xF9
059C4:  MOVLW  01
059C6:  MOVWF  xFA
059C8:  CLRF   xFB
059CA:  MOVLB  0
059CC:  CALL   4880
059D0:  MOVLW  02
059D2:  MOVLB  5
059D4:  ADDWF  xE5,W
059D6:  MOVWF  xF2
059D8:  MOVLW  01
059DA:  ADDWF  xE6,W
059DC:  MOVWF  xF3
059DE:  MOVFF  5F2,5F6
059E2:  MOVWF  xF7
059E4:  MOVLW  05
059E6:  MOVWF  xF9
059E8:  MOVLW  E9
059EA:  MOVWF  xF8
059EC:  MOVFF  5E8,5FA
059F0:  MOVLW  01
059F2:  MOVWF  xFB
059F4:  MOVLB  0
059F6:  CALL   4948
059FA:  MOVLB  5
....................        
.................... } 
059FC:  MOVLB  0
059FE:  RETLW  00
....................  
.................... // Funcion para conversor analogo-digital 
.................... unsigned int16 sensores(int x){ 
.................... unsigned int16 y;set_adc_channel(x);delay_ms(1);y=read_adc();return (y); 
*
02CF6:  MOVLB  5
02CF8:  RLCF   xEE,W
02CFA:  MOVWF  00
02CFC:  RLCF   00,F
02CFE:  MOVLW  FC
02D00:  ANDWF  00,F
02D02:  MOVFF  00,01
02D06:  MOVF   FC2,W
02D08:  ANDLW  C3
02D0A:  IORWF  00,W
02D0C:  MOVWF  FC2
02D0E:  MOVLW  01
02D10:  MOVWF  xF1
02D12:  MOVLB  0
02D14:  CALL   14E0
02D18:  BSF    FC2.1
02D1A:  BTFSC  FC2.1
02D1C:  BRA    2D1A
02D1E:  MOVFF  FC4,5F0
02D22:  MOVLB  5
02D24:  MOVFF  FC3,5EF
02D28:  MOVFF  5EF,01
02D2C:  MOVFF  5F0,02
.................... } 
02D30:  MOVLB  0
02D32:  RETLW  00
....................  
....................  
.................... #define   UP               !input(PIN_A5) 
.................... #define   DOWN             !input(PIN_E0) 
.................... #define   RIGHT            !input(PIN_E1) 
.................... #define   LEFT             !input(PIN_E2) 
.................... #define   VIDRIOUP         input(PIN_A3) 
.................... #define   VIDRIODN         input(PIN_A4) 
....................  
.................... #define   Alarma_on           output_bit(PIN_C7,1) 
.................... #define   Alarma_off          output_bit(PIN_C7,0) 
.................... #define   LuzBlanca_on        output_bit(PIN_C0,1) 
.................... #define   LuzBlanca_off       output_bit(PIN_C0,0) 
.................... #define   Aux_on              output_bit(PIN_C1,1) 
.................... #define   Aux_off             output_bit(PIN_C1,0) 
.................... #define   Motor_on            output_bit(PIN_C2,1) 
.................... #define   Motor_off           output_bit(PIN_C2,0) 
.................... #define   Display_on          output_bit(PIN_B1,1) 
.................... #define   Display_off         output_bit(PIN_B1,0) 
....................  
.................... short Flanco=0,Flanco1=0,Flanco2=0,Flanco3=0,Flanco4=0,Flanco5=0,imprimir=0,flag_blower=0,flag_toma=0,flag_luz=0,flag_alarma=0,w=0,flag_uv=0; 
.................... short tiempo_purga=0,tiempo_trabajo=0,flag_latencia=0,tiempo_postpurga=0; 
.................... short guardatrabajo=0,Lectura=0,n=0; 
.................... char  JP[] = "JP Inglobal", Cabina[] = "Cabina Extractora",Dos_puntos[]=":",UV[]="UV"; 
.................... char  Clase[] = "Sin Ductos", Tiempo[] = "Tiempo de Purga"; 
.................... char  Inflowt[] = "Vel:",Downflowt[] = "Temperatura", ZF[] = "Fabrica:208.0", ZA[] = "Actual:",AJ[]="Ajuste:"; 
.................... char  Vida_Filtro[] = "T. Filtro:",ZFP[] = "Fabrica:235.0", Perdida[]="!Filtro Saturado!"; 
.................... int8 Menu=200, unidad=1, Opcion=1,negativo=10,G_l=0,G_h=0,tiemporeset=0; 
.................... int8 q=0,r=0,l=0,h=0,Entero=0,Decimal1=0,Alarma=10; 
....................  
.................... unsigned int16 Inflow_adc=0,Filtro_Downflow_adc=0,Temporal1=0; 
....................  
.................... int16 t_latencia=0,minutos_uv=0,minutos_trabajo=0,G16=0,tup=0,tdown=0,tright=0,tleft=0,tvidrio=0; 
.................... signed int  Tpurga[4]={0,0,0,0};       // Tiempo de Purga transcurrido 
.................... signed int  Tpurgap[4]={9,0,0,0};      // Tiempo de Purga programado 
.................... signed int  Tppurga[4]={0,0,0,0};      // Tiempo de Post-Purga transcurrido 
.................... signed int  Tppurgap[4]={9,0,0,0};     // Tiempo de Post-Purga programado 
.................... signed int  Tuv[4]={0,0,0,0};          // Tiempo de UV transcurrido(en Horas) 
.................... signed int  Tempouvp[4]={0,0,0,0};        // Tiempo de UV transcurrido 
.................... signed int  Ttrabajo[4]={0,0,0,0};        // Tiempo de trabajo transcurrido (en Horas) 
.................... signed int  Contrasena[4]={0,0,0,0};      // Contrasena de 4 digitos 
.................... signed int  Password[4]={0,0,0,0};        // Contrasena Almacenada de 4 digitos 
.................... float Inflow=0.0,Downflow=0.0,Filtro_Downflow=0.0,Diferencia=0.0; 
.................... float Velocidad=0.0,x_uno=0.0,x_cuadrado=0.0,x_cubo=0.0,Ajuste1=0.0,Ajuste2=0.0; 
.................... float Temporal=0.0,Temporal2=0.0; 
.................... float a=0.00000957915546738639,b=-0.00727819571978831,c= 1.85375754678451,d= -156.816806902063; 
.................... //float t=378.463968402560,f=-18275.0402762787;//Sensor 2 Posible bueno 
....................  
.................... float promedio[8]={0.0,0.0,0.0,0.0,0.0,0.0,0.0,0.0}; 
.................... float promedio2[8]={0.0,0.0,0.0,0.0,0.0,0.0,0.0,0.0}; 
.................... float PromPresion[8]={0.0,0.0,0.0,0.0,0.0,0.0,0.0,0.0}; 
.................... float Flujo=0.0,zero_fabrica=208.0,zero_actual=0.0; 
.................... float V1=0.0,Presion=0.0,G=2.0; 
....................  
.................... int16 pulsos=0,retardo=0; 
.................... int8 i=0,l2=0,h2=0,Temperatura=0; 
.................... short Cruce=OFF,Purga=OFF; 
.................... int16 tiempocruce=0; 
.................... int8 Porcentaje=0,VelMotor=0; 
.................... float Tcruce=0.0,Tcruce2=0; 
....................  
.................... #include "Funciones.h" 
.................... float leeTemperatura(int8 media){ 
*
0438A:  MOVLB  5
0438C:  CLRF   xE1
0438E:  CLRF   xE0
04390:  CLRF   xDF
04392:  CLRF   xDE
04394:  CLRF   xE5
04396:  CLRF   xE4
04398:  CLRF   xE3
0439A:  CLRF   xE2
0439C:  CLRF   xE9
0439E:  CLRF   xE8
043A0:  CLRF   xE7
043A2:  CLRF   xE6
043A4:  CLRF   xED
043A6:  CLRF   xEC
043A8:  CLRF   xEB
043AA:  CLRF   xEA
....................    float ADC=0,V=0,T=0,Tempera=0; 
....................    ADC=sensores(0); 
043AC:  CLRF   xEE
043AE:  MOVLB  0
043B0:  CALL   2CF6
043B4:  MOVFF  02,615
043B8:  MOVFF  01,614
043BC:  CALL   177A
043C0:  MOVFF  03,5E1
043C4:  MOVFF  02,5E0
043C8:  MOVFF  01,5DF
043CC:  MOVFF  00,5DE
....................    V=5*ADC/1023; 
043D0:  MOVLB  6
043D2:  CLRF   x13
043D4:  CLRF   x12
043D6:  MOVLW  20
043D8:  MOVWF  x11
043DA:  MOVLW  81
043DC:  MOVWF  x10
043DE:  MOVFF  5E1,617
043E2:  MOVFF  5E0,616
043E6:  MOVFF  5DF,615
043EA:  MOVFF  5DE,614
043EE:  MOVLB  0
043F0:  CALL   2D70
043F4:  MOVFF  00,5EE
043F8:  MOVFF  01,5EF
043FC:  MOVFF  02,5F0
04400:  MOVFF  03,5F1
04404:  MOVFF  03,613
04408:  MOVFF  02,612
0440C:  MOVFF  01,611
04410:  MOVFF  00,610
04414:  MOVLB  6
04416:  CLRF   x17
04418:  MOVLW  C0
0441A:  MOVWF  x16
0441C:  MOVLW  7F
0441E:  MOVWF  x15
04420:  MOVLW  88
04422:  MOVWF  x14
04424:  MOVLB  0
04426:  CALL   17B0
0442A:  MOVFF  03,5E5
0442E:  MOVFF  02,5E4
04432:  MOVFF  01,5E3
04436:  MOVFF  00,5E2
....................    T=V/0.01; 
0443A:  MOVFF  5E5,613
0443E:  MOVFF  5E4,612
04442:  MOVFF  5E3,611
04446:  MOVFF  5E2,610
0444A:  MOVLW  0A
0444C:  MOVLB  6
0444E:  MOVWF  x17
04450:  MOVLW  D7
04452:  MOVWF  x16
04454:  MOVLW  23
04456:  MOVWF  x15
04458:  MOVLW  78
0445A:  MOVWF  x14
0445C:  MOVLB  0
0445E:  CALL   17B0
04462:  MOVFF  03,5E9
04466:  MOVFF  02,5E8
0446A:  MOVFF  01,5E7
0446E:  MOVFF  00,5E6
....................    if(l2>media) 
04472:  MOVLB  5
04474:  MOVF   xCE,W
04476:  SUBWF  xDD,W
04478:  BC    447C
....................       l2=0; 
0447A:  CLRF   xCE
....................        
....................    promedio2[l2]=T;l2++; 
0447C:  MOVF   xCE,W
0447E:  MULLW  04
04480:  MOVF   FF3,W
04482:  CLRF   03
04484:  ADDLW  71
04486:  MOVWF  FE9
04488:  MOVLW  05
0448A:  ADDWFC 03,W
0448C:  MOVWF  FEA
0448E:  MOVFF  5E6,FEF
04492:  MOVFF  5E7,FEC
04496:  MOVFF  5E8,FEC
0449A:  MOVFF  5E9,FEC
0449E:  INCF   xCE,F
....................    Tempera=0; 
044A0:  CLRF   xED
044A2:  CLRF   xEC
044A4:  CLRF   xEB
044A6:  CLRF   xEA
....................       
....................      for(h2=0;h2<=(media-1);h2++){ 
044A8:  CLRF   xCF
044AA:  MOVLW  01
044AC:  SUBWF  xDD,W
044AE:  SUBWF  xCF,W
044B0:  BZ    44B4
044B2:  BC    4524
....................         Tempera+=promedio2[h2]; 
044B4:  MOVF   xCF,W
044B6:  MULLW  04
044B8:  MOVF   FF3,W
044BA:  CLRF   03
044BC:  ADDLW  71
044BE:  MOVWF  FE9
044C0:  MOVLW  05
044C2:  ADDWFC 03,W
044C4:  MOVWF  FEA
044C6:  MOVFF  FEF,00
044CA:  MOVFF  FEC,01
044CE:  MOVFF  FEC,02
044D2:  MOVFF  FEC,03
044D6:  MOVFF  FEA,5EF
044DA:  MOVFF  FE9,5EE
044DE:  BCF    FD8.1
044E0:  MOVFF  5ED,617
044E4:  MOVFF  5EC,616
044E8:  MOVFF  5EB,615
044EC:  MOVFF  5EA,614
044F0:  MOVFF  03,61B
044F4:  MOVFF  02,61A
044F8:  MOVFF  01,619
044FC:  MOVFF  00,618
04500:  MOVLB  0
04502:  CALL   190E
04506:  MOVFF  5EF,FEA
0450A:  MOVFF  5EE,FE9
0450E:  MOVFF  03,5ED
04512:  MOVFF  02,5EC
04516:  MOVFF  01,5EB
0451A:  MOVFF  00,5EA
....................      }       
0451E:  MOVLB  5
04520:  INCF   xCF,F
04522:  BRA    44AA
....................    return Tempera/media; 
04524:  MOVLB  6
04526:  CLRF   x15
04528:  MOVFF  5DD,614
0452C:  MOVLB  0
0452E:  CALL   177A
04532:  MOVFF  5ED,613
04536:  MOVFF  5EC,612
0453A:  MOVFF  5EB,611
0453E:  MOVFF  5EA,610
04542:  MOVFF  03,617
04546:  MOVFF  02,616
0454A:  MOVFF  01,615
0454E:  MOVFF  00,614
04552:  CALL   17B0
.................... } 
04556:  GOTO   5FC2 (RETURN)
....................  
.................... void LeeEEPROM(void){ 
....................    Password[0]=read_eeprom(0); 
*
01B86:  MOVFF  FF2,5DD
01B8A:  BCF    FF2.7
01B8C:  CLRF   FAA
01B8E:  CLRF   FA9
01B90:  BCF    FA6.6
01B92:  BCF    FA6.7
01B94:  BSF    FA6.0
01B96:  MOVF   FA8,W
01B98:  MOVLB  5
01B9A:  BTFSC  xDD.7
01B9C:  BSF    FF2.7
01B9E:  MOVWF  x0D
....................    delay_ms(10); 
01BA0:  MOVLW  0A
01BA2:  MOVWF  xF1
01BA4:  MOVLB  0
01BA6:  RCALL  14E0
....................    Password[1]=read_eeprom(1); 
01BA8:  MOVFF  FF2,5DD
01BAC:  BCF    FF2.7
01BAE:  CLRF   FAA
01BB0:  MOVLW  01
01BB2:  MOVWF  FA9
01BB4:  BCF    FA6.6
01BB6:  BCF    FA6.7
01BB8:  BSF    FA6.0
01BBA:  MOVF   FA8,W
01BBC:  MOVLB  5
01BBE:  BTFSC  xDD.7
01BC0:  BSF    FF2.7
01BC2:  MOVWF  x0E
....................    delay_ms(10); 
01BC4:  MOVLW  0A
01BC6:  MOVWF  xF1
01BC8:  MOVLB  0
01BCA:  RCALL  14E0
....................    Password[2]=read_eeprom(2); 
01BCC:  MOVFF  FF2,5DD
01BD0:  BCF    FF2.7
01BD2:  CLRF   FAA
01BD4:  MOVLW  02
01BD6:  MOVWF  FA9
01BD8:  BCF    FA6.6
01BDA:  BCF    FA6.7
01BDC:  BSF    FA6.0
01BDE:  MOVF   FA8,W
01BE0:  MOVLB  5
01BE2:  BTFSC  xDD.7
01BE4:  BSF    FF2.7
01BE6:  MOVWF  x0F
....................    delay_ms(10); 
01BE8:  MOVLW  0A
01BEA:  MOVWF  xF1
01BEC:  MOVLB  0
01BEE:  RCALL  14E0
....................    Password[3]=read_eeprom(3); 
01BF0:  MOVFF  FF2,5DD
01BF4:  BCF    FF2.7
01BF6:  CLRF   FAA
01BF8:  MOVLW  03
01BFA:  MOVWF  FA9
01BFC:  BCF    FA6.6
01BFE:  BCF    FA6.7
01C00:  BSF    FA6.0
01C02:  MOVF   FA8,W
01C04:  MOVLB  5
01C06:  BTFSC  xDD.7
01C08:  BSF    FF2.7
01C0A:  MOVWF  x10
....................    delay_ms(10); 
01C0C:  MOVLW  0A
01C0E:  MOVWF  xF1
01C10:  MOVLB  0
01C12:  RCALL  14E0
....................    Tpurgap[0]=read_eeprom(4); 
01C14:  MOVFF  FF2,5DD
01C18:  BCF    FF2.7
01C1A:  CLRF   FAA
01C1C:  MOVLW  04
01C1E:  MOVWF  FA9
01C20:  BCF    FA6.6
01C22:  BCF    FA6.7
01C24:  BSF    FA6.0
01C26:  MOVF   FA8,W
01C28:  MOVLB  5
01C2A:  BTFSC  xDD.7
01C2C:  BSF    FF2.7
01C2E:  MOVLB  4
01C30:  MOVWF  xF1
....................    delay_ms(10); 
01C32:  MOVLW  0A
01C34:  MOVLB  5
01C36:  MOVWF  xF1
01C38:  MOVLB  0
01C3A:  RCALL  14E0
....................    Tpurgap[1]=read_eeprom(5); 
01C3C:  MOVFF  FF2,5DD
01C40:  BCF    FF2.7
01C42:  CLRF   FAA
01C44:  MOVLW  05
01C46:  MOVWF  FA9
01C48:  BCF    FA6.6
01C4A:  BCF    FA6.7
01C4C:  BSF    FA6.0
01C4E:  MOVF   FA8,W
01C50:  MOVLB  5
01C52:  BTFSC  xDD.7
01C54:  BSF    FF2.7
01C56:  MOVLB  4
01C58:  MOVWF  xF2
....................    delay_ms(10); 
01C5A:  MOVLW  0A
01C5C:  MOVLB  5
01C5E:  MOVWF  xF1
01C60:  MOVLB  0
01C62:  RCALL  14E0
....................    Tpurgap[2]=read_eeprom(6); 
01C64:  MOVFF  FF2,5DD
01C68:  BCF    FF2.7
01C6A:  CLRF   FAA
01C6C:  MOVLW  06
01C6E:  MOVWF  FA9
01C70:  BCF    FA6.6
01C72:  BCF    FA6.7
01C74:  BSF    FA6.0
01C76:  MOVF   FA8,W
01C78:  MOVLB  5
01C7A:  BTFSC  xDD.7
01C7C:  BSF    FF2.7
01C7E:  MOVLB  4
01C80:  MOVWF  xF3
....................    delay_ms(10); 
01C82:  MOVLW  0A
01C84:  MOVLB  5
01C86:  MOVWF  xF1
01C88:  MOVLB  0
01C8A:  RCALL  14E0
....................    Tpurgap[3]=read_eeprom(7); 
01C8C:  MOVFF  FF2,5DD
01C90:  BCF    FF2.7
01C92:  CLRF   FAA
01C94:  MOVLW  07
01C96:  MOVWF  FA9
01C98:  BCF    FA6.6
01C9A:  BCF    FA6.7
01C9C:  BSF    FA6.0
01C9E:  MOVF   FA8,W
01CA0:  MOVLB  5
01CA2:  BTFSC  xDD.7
01CA4:  BSF    FF2.7
01CA6:  MOVLB  4
01CA8:  MOVWF  xF4
....................    delay_ms(10); 
01CAA:  MOVLW  0A
01CAC:  MOVLB  5
01CAE:  MOVWF  xF1
01CB0:  MOVLB  0
01CB2:  RCALL  14E0
....................    Tppurgap[0]=read_eeprom(8); 
01CB4:  MOVFF  FF2,5DD
01CB8:  BCF    FF2.7
01CBA:  CLRF   FAA
01CBC:  MOVLW  08
01CBE:  MOVWF  FA9
01CC0:  BCF    FA6.6
01CC2:  BCF    FA6.7
01CC4:  BSF    FA6.0
01CC6:  MOVF   FA8,W
01CC8:  MOVLB  5
01CCA:  BTFSC  xDD.7
01CCC:  BSF    FF2.7
01CCE:  MOVLB  4
01CD0:  MOVWF  xF9
....................    delay_ms(10); 
01CD2:  MOVLW  0A
01CD4:  MOVLB  5
01CD6:  MOVWF  xF1
01CD8:  MOVLB  0
01CDA:  RCALL  14E0
....................    Tppurgap[1]=read_eeprom(9); 
01CDC:  MOVFF  FF2,5DD
01CE0:  BCF    FF2.7
01CE2:  CLRF   FAA
01CE4:  MOVLW  09
01CE6:  MOVWF  FA9
01CE8:  BCF    FA6.6
01CEA:  BCF    FA6.7
01CEC:  BSF    FA6.0
01CEE:  MOVF   FA8,W
01CF0:  MOVLB  5
01CF2:  BTFSC  xDD.7
01CF4:  BSF    FF2.7
01CF6:  MOVLB  4
01CF8:  MOVWF  xFA
....................    delay_ms(10); 
01CFA:  MOVLW  0A
01CFC:  MOVLB  5
01CFE:  MOVWF  xF1
01D00:  MOVLB  0
01D02:  CALL   14E0
....................    Tppurgap[2]=read_eeprom(10); 
01D06:  MOVFF  FF2,5DD
01D0A:  BCF    FF2.7
01D0C:  CLRF   FAA
01D0E:  MOVLW  0A
01D10:  MOVWF  FA9
01D12:  BCF    FA6.6
01D14:  BCF    FA6.7
01D16:  BSF    FA6.0
01D18:  MOVF   FA8,W
01D1A:  MOVLB  5
01D1C:  BTFSC  xDD.7
01D1E:  BSF    FF2.7
01D20:  MOVLB  4
01D22:  MOVWF  xFB
....................    delay_ms(10); 
01D24:  MOVLW  0A
01D26:  MOVLB  5
01D28:  MOVWF  xF1
01D2A:  MOVLB  0
01D2C:  CALL   14E0
....................    Tppurgap[3]=read_eeprom(11); 
01D30:  MOVFF  FF2,5DD
01D34:  BCF    FF2.7
01D36:  CLRF   FAA
01D38:  MOVLW  0B
01D3A:  MOVWF  FA9
01D3C:  BCF    FA6.6
01D3E:  BCF    FA6.7
01D40:  BSF    FA6.0
01D42:  MOVF   FA8,W
01D44:  MOVLB  5
01D46:  BTFSC  xDD.7
01D48:  BSF    FF2.7
01D4A:  MOVLB  4
01D4C:  MOVWF  xFC
....................    delay_ms(10); 
01D4E:  MOVLW  0A
01D50:  MOVLB  5
01D52:  MOVWF  xF1
01D54:  MOVLB  0
01D56:  CALL   14E0
....................    Tuv[0]=read_eeprom(12); 
01D5A:  MOVFF  FF2,5DD
01D5E:  BCF    FF2.7
01D60:  CLRF   FAA
01D62:  MOVLW  0C
01D64:  MOVWF  FA9
01D66:  BCF    FA6.6
01D68:  BCF    FA6.7
01D6A:  BSF    FA6.0
01D6C:  MOVF   FA8,W
01D6E:  MOVLB  5
01D70:  BTFSC  xDD.7
01D72:  BSF    FF2.7
01D74:  MOVLB  4
01D76:  MOVWF  xFD
....................    delay_ms(10); 
01D78:  MOVLW  0A
01D7A:  MOVLB  5
01D7C:  MOVWF  xF1
01D7E:  MOVLB  0
01D80:  CALL   14E0
....................    Tuv[1]=read_eeprom(13); 
01D84:  MOVFF  FF2,5DD
01D88:  BCF    FF2.7
01D8A:  CLRF   FAA
01D8C:  MOVLW  0D
01D8E:  MOVWF  FA9
01D90:  BCF    FA6.6
01D92:  BCF    FA6.7
01D94:  BSF    FA6.0
01D96:  MOVF   FA8,W
01D98:  MOVLB  5
01D9A:  BTFSC  xDD.7
01D9C:  BSF    FF2.7
01D9E:  MOVLB  4
01DA0:  MOVWF  xFE
....................    delay_ms(10); 
01DA2:  MOVLW  0A
01DA4:  MOVLB  5
01DA6:  MOVWF  xF1
01DA8:  MOVLB  0
01DAA:  CALL   14E0
....................    Tuv[2]=read_eeprom(14); 
01DAE:  MOVFF  FF2,5DD
01DB2:  BCF    FF2.7
01DB4:  CLRF   FAA
01DB6:  MOVLW  0E
01DB8:  MOVWF  FA9
01DBA:  BCF    FA6.6
01DBC:  BCF    FA6.7
01DBE:  BSF    FA6.0
01DC0:  MOVF   FA8,W
01DC2:  MOVLB  5
01DC4:  BTFSC  xDD.7
01DC6:  BSF    FF2.7
01DC8:  MOVLB  4
01DCA:  MOVWF  xFF
....................    delay_ms(10); 
01DCC:  MOVLW  0A
01DCE:  MOVLB  5
01DD0:  MOVWF  xF1
01DD2:  MOVLB  0
01DD4:  CALL   14E0
....................    Tuv[3]=read_eeprom(15); 
01DD8:  MOVFF  FF2,5DD
01DDC:  BCF    FF2.7
01DDE:  CLRF   FAA
01DE0:  MOVLW  0F
01DE2:  MOVWF  FA9
01DE4:  BCF    FA6.6
01DE6:  BCF    FA6.7
01DE8:  BSF    FA6.0
01DEA:  MOVF   FA8,W
01DEC:  MOVLB  5
01DEE:  BTFSC  xDD.7
01DF0:  BSF    FF2.7
01DF2:  MOVWF  x00
....................    delay_ms(10); 
01DF4:  MOVLW  0A
01DF6:  MOVWF  xF1
01DF8:  MOVLB  0
01DFA:  CALL   14E0
....................    Ttrabajo[0]=read_eeprom(16); 
01DFE:  MOVFF  FF2,5DD
01E02:  BCF    FF2.7
01E04:  CLRF   FAA
01E06:  MOVLW  10
01E08:  MOVWF  FA9
01E0A:  BCF    FA6.6
01E0C:  BCF    FA6.7
01E0E:  BSF    FA6.0
01E10:  MOVF   FA8,W
01E12:  MOVLB  5
01E14:  BTFSC  xDD.7
01E16:  BSF    FF2.7
01E18:  MOVWF  x05
....................    delay_ms(10); 
01E1A:  MOVLW  0A
01E1C:  MOVWF  xF1
01E1E:  MOVLB  0
01E20:  CALL   14E0
....................    Ttrabajo[1]=read_eeprom(17); 
01E24:  MOVFF  FF2,5DD
01E28:  BCF    FF2.7
01E2A:  CLRF   FAA
01E2C:  MOVLW  11
01E2E:  MOVWF  FA9
01E30:  BCF    FA6.6
01E32:  BCF    FA6.7
01E34:  BSF    FA6.0
01E36:  MOVF   FA8,W
01E38:  MOVLB  5
01E3A:  BTFSC  xDD.7
01E3C:  BSF    FF2.7
01E3E:  MOVWF  x06
....................    delay_ms(10); 
01E40:  MOVLW  0A
01E42:  MOVWF  xF1
01E44:  MOVLB  0
01E46:  CALL   14E0
....................    Ttrabajo[2]=read_eeprom(18); 
01E4A:  MOVFF  FF2,5DD
01E4E:  BCF    FF2.7
01E50:  CLRF   FAA
01E52:  MOVLW  12
01E54:  MOVWF  FA9
01E56:  BCF    FA6.6
01E58:  BCF    FA6.7
01E5A:  BSF    FA6.0
01E5C:  MOVF   FA8,W
01E5E:  MOVLB  5
01E60:  BTFSC  xDD.7
01E62:  BSF    FF2.7
01E64:  MOVWF  x07
....................    delay_ms(10); 
01E66:  MOVLW  0A
01E68:  MOVWF  xF1
01E6A:  MOVLB  0
01E6C:  CALL   14E0
....................    Ttrabajo[3]=read_eeprom(19); 
01E70:  MOVFF  FF2,5DD
01E74:  BCF    FF2.7
01E76:  CLRF   FAA
01E78:  MOVLW  13
01E7A:  MOVWF  FA9
01E7C:  BCF    FA6.6
01E7E:  BCF    FA6.7
01E80:  BSF    FA6.0
01E82:  MOVF   FA8,W
01E84:  MOVLB  5
01E86:  BTFSC  xDD.7
01E88:  BSF    FF2.7
01E8A:  MOVWF  x08
....................    delay_ms(10); 
01E8C:  MOVLW  0A
01E8E:  MOVWF  xF1
01E90:  MOVLB  0
01E92:  CALL   14E0
....................    //flag_alarma=read_eeprom(20); 
....................    //delay_ms(10); 
....................    Tempouvp[0]=read_eeprom(21); 
01E96:  MOVFF  FF2,5DD
01E9A:  BCF    FF2.7
01E9C:  CLRF   FAA
01E9E:  MOVLW  15
01EA0:  MOVWF  FA9
01EA2:  BCF    FA6.6
01EA4:  BCF    FA6.7
01EA6:  BSF    FA6.0
01EA8:  MOVF   FA8,W
01EAA:  MOVLB  5
01EAC:  BTFSC  xDD.7
01EAE:  BSF    FF2.7
01EB0:  MOVWF  x01
....................    delay_ms(10); 
01EB2:  MOVLW  0A
01EB4:  MOVWF  xF1
01EB6:  MOVLB  0
01EB8:  CALL   14E0
....................    Tempouvp[1]=read_eeprom(22); 
01EBC:  MOVFF  FF2,5DD
01EC0:  BCF    FF2.7
01EC2:  CLRF   FAA
01EC4:  MOVLW  16
01EC6:  MOVWF  FA9
01EC8:  BCF    FA6.6
01ECA:  BCF    FA6.7
01ECC:  BSF    FA6.0
01ECE:  MOVF   FA8,W
01ED0:  MOVLB  5
01ED2:  BTFSC  xDD.7
01ED4:  BSF    FF2.7
01ED6:  MOVWF  x02
....................    delay_ms(10); 
01ED8:  MOVLW  0A
01EDA:  MOVWF  xF1
01EDC:  MOVLB  0
01EDE:  CALL   14E0
....................    Tempouvp[2]=read_eeprom(23); 
01EE2:  MOVFF  FF2,5DD
01EE6:  BCF    FF2.7
01EE8:  CLRF   FAA
01EEA:  MOVLW  17
01EEC:  MOVWF  FA9
01EEE:  BCF    FA6.6
01EF0:  BCF    FA6.7
01EF2:  BSF    FA6.0
01EF4:  MOVF   FA8,W
01EF6:  MOVLB  5
01EF8:  BTFSC  xDD.7
01EFA:  BSF    FF2.7
01EFC:  MOVWF  x03
....................    delay_ms(10); 
01EFE:  MOVLW  0A
01F00:  MOVWF  xF1
01F02:  MOVLB  0
01F04:  CALL   14E0
....................    Tempouvp[3]=read_eeprom(24); 
01F08:  MOVFF  FF2,5DD
01F0C:  BCF    FF2.7
01F0E:  CLRF   FAA
01F10:  MOVLW  18
01F12:  MOVWF  FA9
01F14:  BCF    FA6.6
01F16:  BCF    FA6.7
01F18:  BSF    FA6.0
01F1A:  MOVF   FA8,W
01F1C:  MOVLB  5
01F1E:  BTFSC  xDD.7
01F20:  BSF    FF2.7
01F22:  MOVWF  x04
....................     
....................    delay_ms(10); 
01F24:  MOVLW  0A
01F26:  MOVWF  xF1
01F28:  MOVLB  0
01F2A:  CALL   14E0
....................    Entero=read_eeprom(25);//Decimal1=read_eeprom(26); 
01F2E:  MOVFF  FF2,5DD
01F32:  BCF    FF2.7
01F34:  CLRF   FAA
01F36:  MOVLW  19
01F38:  MOVWF  FA9
01F3A:  BCF    FA6.6
01F3C:  BCF    FA6.7
01F3E:  BSF    FA6.0
01F40:  MOVF   FA8,W
01F42:  MOVLB  5
01F44:  BTFSC  xDD.7
01F46:  BSF    FF2.7
01F48:  MOVLB  4
01F4A:  MOVWF  xD2
....................    delay_ms(10); 
01F4C:  MOVLW  0A
01F4E:  MOVLB  5
01F50:  MOVWF  xF1
01F52:  MOVLB  0
01F54:  CALL   14E0
....................    Temporal=read_eeprom(26); 
01F58:  MOVFF  FF2,5DD
01F5C:  BCF    FF2.7
01F5E:  CLRF   FAA
01F60:  MOVLW  1A
01F62:  MOVWF  FA9
01F64:  BCF    FA6.6
01F66:  BCF    FA6.7
01F68:  BSF    FA6.0
01F6A:  MOVF   FA8,W
01F6C:  MOVLB  5
01F6E:  BTFSC  xDD.7
01F70:  BSF    FF2.7
01F72:  MOVLB  6
01F74:  CLRF   x15
01F76:  MOVWF  x14
01F78:  MOVLB  0
01F7A:  CALL   177A
01F7E:  MOVFF  03,53C
01F82:  MOVFF  02,53B
01F86:  MOVFF  01,53A
01F8A:  MOVFF  00,539
....................    delay_ms(10); 
01F8E:  MOVLW  0A
01F90:  MOVLB  5
01F92:  MOVWF  xF1
01F94:  MOVLB  0
01F96:  CALL   14E0
....................    Temporal=Temporal/10.0; 
01F9A:  MOVFF  53C,613
01F9E:  MOVFF  53B,612
01FA2:  MOVFF  53A,611
01FA6:  MOVFF  539,610
01FAA:  MOVLB  6
01FAC:  CLRF   x17
01FAE:  CLRF   x16
01FB0:  MOVLW  20
01FB2:  MOVWF  x15
01FB4:  MOVLW  82
01FB6:  MOVWF  x14
01FB8:  MOVLB  0
01FBA:  CALL   17B0
01FBE:  MOVFF  03,53C
01FC2:  MOVFF  02,53B
01FC6:  MOVFF  01,53A
01FCA:  MOVFF  00,539
....................    Ajuste1=Entero+Temporal; 
01FCE:  MOVLB  6
01FD0:  CLRF   x15
01FD2:  MOVFF  4D2,614
01FD6:  MOVLB  0
01FD8:  CALL   177A
01FDC:  BCF    FD8.1
01FDE:  MOVFF  03,617
01FE2:  MOVFF  02,616
01FE6:  MOVFF  01,615
01FEA:  MOVFF  00,614
01FEE:  MOVFF  53C,61B
01FF2:  MOVFF  53B,61A
01FF6:  MOVFF  53A,619
01FFA:  MOVFF  539,618
01FFE:  RCALL  190E
02000:  MOVFF  03,534
02004:  MOVFF  02,533
02008:  MOVFF  01,532
0200C:  MOVFF  00,531
....................     
....................     
....................    Entero=read_eeprom(27);//Decimal1=read_eeprom(26); 
02010:  MOVFF  FF2,5DD
02014:  BCF    FF2.7
02016:  CLRF   FAA
02018:  MOVLW  1B
0201A:  MOVWF  FA9
0201C:  BCF    FA6.6
0201E:  BCF    FA6.7
02020:  BSF    FA6.0
02022:  MOVF   FA8,W
02024:  MOVLB  5
02026:  BTFSC  xDD.7
02028:  BSF    FF2.7
0202A:  MOVLB  4
0202C:  MOVWF  xD2
....................    delay_ms(10); 
0202E:  MOVLW  0A
02030:  MOVLB  5
02032:  MOVWF  xF1
02034:  MOVLB  0
02036:  CALL   14E0
....................    Temporal=read_eeprom(28); 
0203A:  MOVFF  FF2,5DD
0203E:  BCF    FF2.7
02040:  CLRF   FAA
02042:  MOVLW  1C
02044:  MOVWF  FA9
02046:  BCF    FA6.6
02048:  BCF    FA6.7
0204A:  BSF    FA6.0
0204C:  MOVF   FA8,W
0204E:  MOVLB  5
02050:  BTFSC  xDD.7
02052:  BSF    FF2.7
02054:  MOVLB  6
02056:  CLRF   x15
02058:  MOVWF  x14
0205A:  MOVLB  0
0205C:  CALL   177A
02060:  MOVFF  03,53C
02064:  MOVFF  02,53B
02068:  MOVFF  01,53A
0206C:  MOVFF  00,539
....................    delay_ms(10); 
02070:  MOVLW  0A
02072:  MOVLB  5
02074:  MOVWF  xF1
02076:  MOVLB  0
02078:  CALL   14E0
....................    Temporal=Temporal/10.0; 
0207C:  MOVFF  53C,613
02080:  MOVFF  53B,612
02084:  MOVFF  53A,611
02088:  MOVFF  539,610
0208C:  MOVLB  6
0208E:  CLRF   x17
02090:  CLRF   x16
02092:  MOVLW  20
02094:  MOVWF  x15
02096:  MOVLW  82
02098:  MOVWF  x14
0209A:  MOVLB  0
0209C:  CALL   17B0
020A0:  MOVFF  03,53C
020A4:  MOVFF  02,53B
020A8:  MOVFF  01,53A
020AC:  MOVFF  00,539
....................    Ajuste2=Entero+Temporal; 
020B0:  MOVLB  6
020B2:  CLRF   x15
020B4:  MOVFF  4D2,614
020B8:  MOVLB  0
020BA:  CALL   177A
020BE:  BCF    FD8.1
020C0:  MOVFF  03,617
020C4:  MOVFF  02,616
020C8:  MOVFF  01,615
020CC:  MOVFF  00,614
020D0:  MOVFF  53C,61B
020D4:  MOVFF  53B,61A
020D8:  MOVFF  53A,619
020DC:  MOVFF  539,618
020E0:  RCALL  190E
020E2:  MOVFF  03,538
020E6:  MOVFF  02,537
020EA:  MOVFF  01,536
020EE:  MOVFF  00,535
....................     
....................    zero_actual=make16(read_eeprom(30),read_eeprom(29)); 
020F2:  MOVFF  FF2,5DD
020F6:  BCF    FF2.7
020F8:  CLRF   FAA
020FA:  MOVLW  1E
020FC:  MOVWF  FA9
020FE:  BCF    FA6.6
02100:  BCF    FA6.7
02102:  BSF    FA6.0
02104:  MOVF   FA8,W
02106:  MOVLB  5
02108:  BTFSC  xDD.7
0210A:  BSF    FF2.7
0210C:  MOVWF  xDE
0210E:  MOVFF  FF2,5DF
02112:  BCF    FF2.7
02114:  CLRF   FAA
02116:  MOVLW  1D
02118:  MOVWF  FA9
0211A:  BCF    FA6.6
0211C:  BCF    FA6.7
0211E:  BSF    FA6.0
02120:  MOVF   FA8,W
02122:  BTFSC  xDF.7
02124:  BSF    FF2.7
02126:  MOVWF  xE0
02128:  MOVFF  5DE,03
0212C:  MOVF   xE0,W
0212E:  MOVLB  6
02130:  MOVWF  x14
02132:  MOVFF  03,615
02136:  MOVLB  0
02138:  CALL   177A
0213C:  MOVFF  03,5BC
02140:  MOVFF  02,5BB
02144:  MOVFF  01,5BA
02148:  MOVFF  00,5B9
....................    delay_ms(10); 
0214C:  MOVLW  0A
0214E:  MOVLB  5
02150:  MOVWF  xF1
02152:  MOVLB  0
02154:  CALL   14E0
....................    minutos_trabajo=make16(read_eeprom(34),read_eeprom(33)); 
02158:  MOVFF  FF2,5DD
0215C:  BCF    FF2.7
0215E:  CLRF   FAA
02160:  MOVLW  22
02162:  MOVWF  FA9
02164:  BCF    FA6.6
02166:  BCF    FA6.7
02168:  BSF    FA6.0
0216A:  MOVF   FA8,W
0216C:  MOVLB  5
0216E:  BTFSC  xDD.7
02170:  BSF    FF2.7
02172:  MOVWF  xDE
02174:  MOVFF  FF2,5DF
02178:  BCF    FF2.7
0217A:  CLRF   FAA
0217C:  MOVLW  21
0217E:  MOVWF  FA9
02180:  BCF    FA6.6
02182:  BCF    FA6.7
02184:  BSF    FA6.0
02186:  MOVF   FA8,W
02188:  BTFSC  xDF.7
0218A:  BSF    FF2.7
0218C:  MOVWF  xE0
0218E:  MOVFF  5DE,4E0
02192:  MOVFF  5E0,4DF
....................    delay_ms(10); 
02196:  MOVLW  0A
02198:  MOVWF  xF1
0219A:  MOVLB  0
0219C:  CALL   14E0
....................    minutos_uv=read_eeprom(31); 
021A0:  MOVFF  FF2,5DD
021A4:  BCF    FF2.7
021A6:  CLRF   FAA
021A8:  MOVLW  1F
021AA:  MOVWF  FA9
021AC:  BCF    FA6.6
021AE:  BCF    FA6.7
021B0:  BSF    FA6.0
021B2:  MOVF   FA8,W
021B4:  MOVLB  5
021B6:  BTFSC  xDD.7
021B8:  BSF    FF2.7
021BA:  MOVLB  4
021BC:  CLRF   xDE
021BE:  MOVWF  xDD
....................    delay_ms(10); 
021C0:  MOVLW  0A
021C2:  MOVLB  5
021C4:  MOVWF  xF1
021C6:  MOVLB  0
021C8:  CALL   14E0
....................    VelMotor=read_eeprom(32); 
021CC:  MOVFF  FF2,5DD
021D0:  BCF    FF2.7
021D2:  CLRF   FAA
021D4:  MOVLW  20
021D6:  MOVWF  FA9
021D8:  BCF    FA6.6
021DA:  BCF    FA6.7
021DC:  BSF    FA6.0
021DE:  MOVF   FA8,W
021E0:  MOVLB  5
021E2:  BTFSC  xDD.7
021E4:  BSF    FF2.7
021E6:  MOVWF  xD4
....................    delay_ms(10); 
021E8:  MOVLW  0A
021EA:  MOVWF  xF1
021EC:  MOVLB  0
021EE:  CALL   14E0
....................     
....................    Diferencia=make16(read_eeprom(61),read_eeprom(60)); 
021F2:  MOVFF  FF2,5DD
021F6:  BCF    FF2.7
021F8:  CLRF   FAA
021FA:  MOVLW  3D
021FC:  MOVWF  FA9
021FE:  BCF    FA6.6
02200:  BCF    FA6.7
02202:  BSF    FA6.0
02204:  MOVF   FA8,W
02206:  MOVLB  5
02208:  BTFSC  xDD.7
0220A:  BSF    FF2.7
0220C:  MOVWF  xDE
0220E:  MOVFF  FF2,5DF
02212:  BCF    FF2.7
02214:  CLRF   FAA
02216:  MOVLW  3C
02218:  MOVWF  FA9
0221A:  BCF    FA6.6
0221C:  BCF    FA6.7
0221E:  BSF    FA6.0
02220:  MOVF   FA8,W
02222:  BTFSC  xDF.7
02224:  BSF    FF2.7
02226:  MOVWF  xE0
02228:  MOVFF  5DE,03
0222C:  MOVF   xE0,W
0222E:  MOVLB  6
02230:  MOVWF  x14
02232:  MOVFF  03,615
02236:  MOVLB  0
02238:  CALL   177A
0223C:  MOVFF  03,520
02240:  MOVFF  02,51F
02244:  MOVFF  01,51E
02248:  MOVFF  00,51D
....................    delay_ms(10); 
0224C:  MOVLW  0A
0224E:  MOVLB  5
02250:  MOVWF  xF1
02252:  MOVLB  0
02254:  CALL   14E0
....................    G=make16(read_eeprom(63),read_eeprom(62)); 
02258:  MOVFF  FF2,5DD
0225C:  BCF    FF2.7
0225E:  CLRF   FAA
02260:  MOVLW  3F
02262:  MOVWF  FA9
02264:  BCF    FA6.6
02266:  BCF    FA6.7
02268:  BSF    FA6.0
0226A:  MOVF   FA8,W
0226C:  MOVLB  5
0226E:  BTFSC  xDD.7
02270:  BSF    FF2.7
02272:  MOVWF  xDE
02274:  MOVFF  FF2,5DF
02278:  BCF    FF2.7
0227A:  CLRF   FAA
0227C:  MOVLW  3E
0227E:  MOVWF  FA9
02280:  BCF    FA6.6
02282:  BCF    FA6.7
02284:  BSF    FA6.0
02286:  MOVF   FA8,W
02288:  BTFSC  xDF.7
0228A:  BSF    FF2.7
0228C:  MOVWF  xE0
0228E:  MOVFF  5DE,03
02292:  MOVF   xE0,W
02294:  MOVLB  6
02296:  MOVWF  x14
02298:  MOVFF  03,615
0229C:  MOVLB  0
0229E:  CALL   177A
022A2:  MOVFF  03,5C8
022A6:  MOVFF  02,5C7
022AA:  MOVFF  01,5C6
022AE:  MOVFF  00,5C5
....................    delay_ms(10); 
022B2:  MOVLW  0A
022B4:  MOVLB  5
022B6:  MOVWF  xF1
022B8:  MOVLB  0
022BA:  CALL   14E0
....................    negativo=read_eeprom(50); 
022BE:  MOVFF  FF2,5DD
022C2:  BCF    FF2.7
022C4:  CLRF   FAA
022C6:  MOVLW  32
022C8:  MOVWF  FA9
022CA:  BCF    FA6.6
022CC:  BCF    FA6.7
022CE:  BSF    FA6.0
022D0:  MOVF   FA8,W
022D2:  MOVLB  5
022D4:  BTFSC  xDD.7
022D6:  BSF    FF2.7
022D8:  MOVLB  4
022DA:  MOVWF  xCA
....................    delay_ms(10); 
022DC:  MOVLW  0A
022DE:  MOVLB  5
022E0:  MOVWF  xF1
022E2:  MOVLB  0
022E4:  CALL   14E0
....................  
.................... } 
022E8:  GOTO   5F8A (RETURN)
....................  
.................... void LimitaValores(void){ 
....................    if(Password[0]>9 || Password[0]<0){ 
*
02366:  MOVLB  5
02368:  BTFSC  x0D.7
0236A:  BRA    2372
0236C:  MOVF   x0D,W
0236E:  SUBLW  09
02370:  BNC   2378
02372:  BTFSC  x0D.7
02374:  BRA    2378
02376:  BRA    23A4
....................       Password[0]=0;write_eeprom(0,0); 
02378:  CLRF   x0D
0237A:  CLRF   FAA
0237C:  CLRF   FA9
0237E:  CLRF   FA8
02380:  BCF    FA6.6
02382:  BCF    FA6.7
02384:  BSF    FA6.2
02386:  MOVF   FF2,W
02388:  MOVWF  00
0238A:  BCF    FF2.7
0238C:  MOVLB  F
0238E:  MOVLW  55
02390:  MOVWF  FA7
02392:  MOVLW  AA
02394:  MOVWF  FA7
02396:  BSF    FA6.1
02398:  BTFSC  FA6.1
0239A:  BRA    2398
0239C:  BCF    FA6.2
0239E:  MOVF   00,W
023A0:  IORWF  FF2,F
023A2:  MOVLB  5
....................    } 
....................    if(Password[1]>9 || Password[1]<0){ 
023A4:  BTFSC  x0E.7
023A6:  BRA    23AE
023A8:  MOVF   x0E,W
023AA:  SUBLW  09
023AC:  BNC   23B4
023AE:  BTFSC  x0E.7
023B0:  BRA    23B4
023B2:  BRA    23E2
....................       Password[1]=0;write_eeprom(1,0); 
023B4:  CLRF   x0E
023B6:  CLRF   FAA
023B8:  MOVLW  01
023BA:  MOVWF  FA9
023BC:  CLRF   FA8
023BE:  BCF    FA6.6
023C0:  BCF    FA6.7
023C2:  BSF    FA6.2
023C4:  MOVF   FF2,W
023C6:  MOVWF  00
023C8:  BCF    FF2.7
023CA:  MOVLB  F
023CC:  MOVLW  55
023CE:  MOVWF  FA7
023D0:  MOVLW  AA
023D2:  MOVWF  FA7
023D4:  BSF    FA6.1
023D6:  BTFSC  FA6.1
023D8:  BRA    23D6
023DA:  BCF    FA6.2
023DC:  MOVF   00,W
023DE:  IORWF  FF2,F
023E0:  MOVLB  5
....................    } 
....................    if(Password[2]>9 || Password[2]<0){ 
023E2:  BTFSC  x0F.7
023E4:  BRA    23EC
023E6:  MOVF   x0F,W
023E8:  SUBLW  09
023EA:  BNC   23F2
023EC:  BTFSC  x0F.7
023EE:  BRA    23F2
023F0:  BRA    2420
....................       Password[2]=0;write_eeprom(2,0); 
023F2:  CLRF   x0F
023F4:  CLRF   FAA
023F6:  MOVLW  02
023F8:  MOVWF  FA9
023FA:  CLRF   FA8
023FC:  BCF    FA6.6
023FE:  BCF    FA6.7
02400:  BSF    FA6.2
02402:  MOVF   FF2,W
02404:  MOVWF  00
02406:  BCF    FF2.7
02408:  MOVLB  F
0240A:  MOVLW  55
0240C:  MOVWF  FA7
0240E:  MOVLW  AA
02410:  MOVWF  FA7
02412:  BSF    FA6.1
02414:  BTFSC  FA6.1
02416:  BRA    2414
02418:  BCF    FA6.2
0241A:  MOVF   00,W
0241C:  IORWF  FF2,F
0241E:  MOVLB  5
....................    } 
....................    if(Password[3]>9 || Password[3]<0){ 
02420:  BTFSC  x10.7
02422:  BRA    242A
02424:  MOVF   x10,W
02426:  SUBLW  09
02428:  BNC   2430
0242A:  BTFSC  x10.7
0242C:  BRA    2430
0242E:  BRA    245C
....................       Password[3]=0;write_eeprom(3,0); 
02430:  CLRF   x10
02432:  CLRF   FAA
02434:  MOVLW  03
02436:  MOVWF  FA9
02438:  CLRF   FA8
0243A:  BCF    FA6.6
0243C:  BCF    FA6.7
0243E:  BSF    FA6.2
02440:  MOVF   FF2,W
02442:  MOVWF  00
02444:  BCF    FF2.7
02446:  MOVLB  F
02448:  MOVLW  55
0244A:  MOVWF  FA7
0244C:  MOVLW  AA
0244E:  MOVWF  FA7
02450:  BSF    FA6.1
02452:  BTFSC  FA6.1
02454:  BRA    2452
02456:  BCF    FA6.2
02458:  MOVF   00,W
0245A:  IORWF  FF2,F
....................    } 
....................    if(Tpurgap[0]>9 || Tpurgap[0]<0){ 
0245C:  MOVLB  4
0245E:  BTFSC  xF1.7
02460:  BRA    2468
02462:  MOVF   xF1,W
02464:  SUBLW  09
02466:  BNC   246E
02468:  BTFSC  xF1.7
0246A:  BRA    246E
0246C:  BRA    249C
....................       Tpurgap[0]=0;write_eeprom(4,0); 
0246E:  CLRF   xF1
02470:  CLRF   FAA
02472:  MOVLW  04
02474:  MOVWF  FA9
02476:  CLRF   FA8
02478:  BCF    FA6.6
0247A:  BCF    FA6.7
0247C:  BSF    FA6.2
0247E:  MOVF   FF2,W
02480:  MOVWF  00
02482:  BCF    FF2.7
02484:  MOVLB  F
02486:  MOVLW  55
02488:  MOVWF  FA7
0248A:  MOVLW  AA
0248C:  MOVWF  FA7
0248E:  BSF    FA6.1
02490:  BTFSC  FA6.1
02492:  BRA    2490
02494:  BCF    FA6.2
02496:  MOVF   00,W
02498:  IORWF  FF2,F
0249A:  MOVLB  4
....................    } 
....................    if(Tpurgap[1]>9 || Tpurgap[1]<0){ 
0249C:  BTFSC  xF2.7
0249E:  BRA    24A6
024A0:  MOVF   xF2,W
024A2:  SUBLW  09
024A4:  BNC   24AC
024A6:  BTFSC  xF2.7
024A8:  BRA    24AC
024AA:  BRA    24DA
....................       Tpurgap[1]=0;write_eeprom(5,0); 
024AC:  CLRF   xF2
024AE:  CLRF   FAA
024B0:  MOVLW  05
024B2:  MOVWF  FA9
024B4:  CLRF   FA8
024B6:  BCF    FA6.6
024B8:  BCF    FA6.7
024BA:  BSF    FA6.2
024BC:  MOVF   FF2,W
024BE:  MOVWF  00
024C0:  BCF    FF2.7
024C2:  MOVLB  F
024C4:  MOVLW  55
024C6:  MOVWF  FA7
024C8:  MOVLW  AA
024CA:  MOVWF  FA7
024CC:  BSF    FA6.1
024CE:  BTFSC  FA6.1
024D0:  BRA    24CE
024D2:  BCF    FA6.2
024D4:  MOVF   00,W
024D6:  IORWF  FF2,F
024D8:  MOVLB  4
....................    } 
....................    if(Tpurgap[2]>9 || Tpurgap[2]<0){ 
024DA:  BTFSC  xF3.7
024DC:  BRA    24E4
024DE:  MOVF   xF3,W
024E0:  SUBLW  09
024E2:  BNC   24EA
024E4:  BTFSC  xF3.7
024E6:  BRA    24EA
024E8:  BRA    251C
....................       Tpurgap[2]=2;write_eeprom(6,2); 
024EA:  MOVLW  02
024EC:  MOVWF  xF3
024EE:  CLRF   FAA
024F0:  MOVLW  06
024F2:  MOVWF  FA9
024F4:  MOVLW  02
024F6:  MOVWF  FA8
024F8:  BCF    FA6.6
024FA:  BCF    FA6.7
024FC:  BSF    FA6.2
024FE:  MOVF   FF2,W
02500:  MOVWF  00
02502:  BCF    FF2.7
02504:  MOVLB  F
02506:  MOVLW  55
02508:  MOVWF  FA7
0250A:  MOVLW  AA
0250C:  MOVWF  FA7
0250E:  BSF    FA6.1
02510:  BTFSC  FA6.1
02512:  BRA    2510
02514:  BCF    FA6.2
02516:  MOVF   00,W
02518:  IORWF  FF2,F
0251A:  MOVLB  4
....................    } 
....................    if(Tpurgap[3]>9 || Tpurgap[3]<0){ 
0251C:  BTFSC  xF4.7
0251E:  BRA    2526
02520:  MOVF   xF4,W
02522:  SUBLW  09
02524:  BNC   252C
02526:  BTFSC  xF4.7
02528:  BRA    252C
0252A:  BRA    255A
....................       Tpurgap[3]=0;write_eeprom(7,0); 
0252C:  CLRF   xF4
0252E:  CLRF   FAA
02530:  MOVLW  07
02532:  MOVWF  FA9
02534:  CLRF   FA8
02536:  BCF    FA6.6
02538:  BCF    FA6.7
0253A:  BSF    FA6.2
0253C:  MOVF   FF2,W
0253E:  MOVWF  00
02540:  BCF    FF2.7
02542:  MOVLB  F
02544:  MOVLW  55
02546:  MOVWF  FA7
02548:  MOVLW  AA
0254A:  MOVWF  FA7
0254C:  BSF    FA6.1
0254E:  BTFSC  FA6.1
02550:  BRA    254E
02552:  BCF    FA6.2
02554:  MOVF   00,W
02556:  IORWF  FF2,F
02558:  MOVLB  4
....................    } 
....................    if(Tppurgap[0]>9 || Tppurgap[0]<0){ 
0255A:  BTFSC  xF9.7
0255C:  BRA    2564
0255E:  MOVF   xF9,W
02560:  SUBLW  09
02562:  BNC   256A
02564:  BTFSC  xF9.7
02566:  BRA    256A
02568:  BRA    2598
....................       Tppurgap[0]=0;write_eeprom(8,0); 
0256A:  CLRF   xF9
0256C:  CLRF   FAA
0256E:  MOVLW  08
02570:  MOVWF  FA9
02572:  CLRF   FA8
02574:  BCF    FA6.6
02576:  BCF    FA6.7
02578:  BSF    FA6.2
0257A:  MOVF   FF2,W
0257C:  MOVWF  00
0257E:  BCF    FF2.7
02580:  MOVLB  F
02582:  MOVLW  55
02584:  MOVWF  FA7
02586:  MOVLW  AA
02588:  MOVWF  FA7
0258A:  BSF    FA6.1
0258C:  BTFSC  FA6.1
0258E:  BRA    258C
02590:  BCF    FA6.2
02592:  MOVF   00,W
02594:  IORWF  FF2,F
02596:  MOVLB  4
....................    } 
....................    if(Tppurgap[1]>9 || Tppurgap[1]<0){ 
02598:  BTFSC  xFA.7
0259A:  BRA    25A2
0259C:  MOVF   xFA,W
0259E:  SUBLW  09
025A0:  BNC   25A8
025A2:  BTFSC  xFA.7
025A4:  BRA    25A8
025A6:  BRA    25D6
....................       Tppurgap[1]=0;write_eeprom(9,0); 
025A8:  CLRF   xFA
025AA:  CLRF   FAA
025AC:  MOVLW  09
025AE:  MOVWF  FA9
025B0:  CLRF   FA8
025B2:  BCF    FA6.6
025B4:  BCF    FA6.7
025B6:  BSF    FA6.2
025B8:  MOVF   FF2,W
025BA:  MOVWF  00
025BC:  BCF    FF2.7
025BE:  MOVLB  F
025C0:  MOVLW  55
025C2:  MOVWF  FA7
025C4:  MOVLW  AA
025C6:  MOVWF  FA7
025C8:  BSF    FA6.1
025CA:  BTFSC  FA6.1
025CC:  BRA    25CA
025CE:  BCF    FA6.2
025D0:  MOVF   00,W
025D2:  IORWF  FF2,F
025D4:  MOVLB  4
....................    } 
....................    if(Tppurgap[2]>9 || Tppurgap[2]<0){ 
025D6:  BTFSC  xFB.7
025D8:  BRA    25E0
025DA:  MOVF   xFB,W
025DC:  SUBLW  09
025DE:  BNC   25E6
025E0:  BTFSC  xFB.7
025E2:  BRA    25E6
025E4:  BRA    2618
....................       Tppurgap[2]=2;write_eeprom(10,2); 
025E6:  MOVLW  02
025E8:  MOVWF  xFB
025EA:  CLRF   FAA
025EC:  MOVLW  0A
025EE:  MOVWF  FA9
025F0:  MOVLW  02
025F2:  MOVWF  FA8
025F4:  BCF    FA6.6
025F6:  BCF    FA6.7
025F8:  BSF    FA6.2
025FA:  MOVF   FF2,W
025FC:  MOVWF  00
025FE:  BCF    FF2.7
02600:  MOVLB  F
02602:  MOVLW  55
02604:  MOVWF  FA7
02606:  MOVLW  AA
02608:  MOVWF  FA7
0260A:  BSF    FA6.1
0260C:  BTFSC  FA6.1
0260E:  BRA    260C
02610:  BCF    FA6.2
02612:  MOVF   00,W
02614:  IORWF  FF2,F
02616:  MOVLB  4
....................    } 
....................    if(Tppurgap[3]>9 || Tppurgap[3]<0){ 
02618:  BTFSC  xFC.7
0261A:  BRA    2622
0261C:  MOVF   xFC,W
0261E:  SUBLW  09
02620:  BNC   2628
02622:  BTFSC  xFC.7
02624:  BRA    2628
02626:  BRA    2656
....................       Tppurgap[3]=0;write_eeprom(11,0); 
02628:  CLRF   xFC
0262A:  CLRF   FAA
0262C:  MOVLW  0B
0262E:  MOVWF  FA9
02630:  CLRF   FA8
02632:  BCF    FA6.6
02634:  BCF    FA6.7
02636:  BSF    FA6.2
02638:  MOVF   FF2,W
0263A:  MOVWF  00
0263C:  BCF    FF2.7
0263E:  MOVLB  F
02640:  MOVLW  55
02642:  MOVWF  FA7
02644:  MOVLW  AA
02646:  MOVWF  FA7
02648:  BSF    FA6.1
0264A:  BTFSC  FA6.1
0264C:  BRA    264A
0264E:  BCF    FA6.2
02650:  MOVF   00,W
02652:  IORWF  FF2,F
02654:  MOVLB  4
....................    } 
....................    if(Tuv[0]>9 || Tuv[0]<0){ 
02656:  BTFSC  xFD.7
02658:  BRA    2660
0265A:  MOVF   xFD,W
0265C:  SUBLW  09
0265E:  BNC   2666
02660:  BTFSC  xFD.7
02662:  BRA    2666
02664:  BRA    2694
....................       Tuv[0]=0;write_eeprom(12,0); 
02666:  CLRF   xFD
02668:  CLRF   FAA
0266A:  MOVLW  0C
0266C:  MOVWF  FA9
0266E:  CLRF   FA8
02670:  BCF    FA6.6
02672:  BCF    FA6.7
02674:  BSF    FA6.2
02676:  MOVF   FF2,W
02678:  MOVWF  00
0267A:  BCF    FF2.7
0267C:  MOVLB  F
0267E:  MOVLW  55
02680:  MOVWF  FA7
02682:  MOVLW  AA
02684:  MOVWF  FA7
02686:  BSF    FA6.1
02688:  BTFSC  FA6.1
0268A:  BRA    2688
0268C:  BCF    FA6.2
0268E:  MOVF   00,W
02690:  IORWF  FF2,F
02692:  MOVLB  4
....................    } 
....................    if(Tuv[1]>9 || Tuv[1]<0){ 
02694:  BTFSC  xFE.7
02696:  BRA    269E
02698:  MOVF   xFE,W
0269A:  SUBLW  09
0269C:  BNC   26A4
0269E:  BTFSC  xFE.7
026A0:  BRA    26A4
026A2:  BRA    26D2
....................       Tuv[1]=0;write_eeprom(13,0); 
026A4:  CLRF   xFE
026A6:  CLRF   FAA
026A8:  MOVLW  0D
026AA:  MOVWF  FA9
026AC:  CLRF   FA8
026AE:  BCF    FA6.6
026B0:  BCF    FA6.7
026B2:  BSF    FA6.2
026B4:  MOVF   FF2,W
026B6:  MOVWF  00
026B8:  BCF    FF2.7
026BA:  MOVLB  F
026BC:  MOVLW  55
026BE:  MOVWF  FA7
026C0:  MOVLW  AA
026C2:  MOVWF  FA7
026C4:  BSF    FA6.1
026C6:  BTFSC  FA6.1
026C8:  BRA    26C6
026CA:  BCF    FA6.2
026CC:  MOVF   00,W
026CE:  IORWF  FF2,F
026D0:  MOVLB  4
....................    } 
....................    if(Tuv[2]>9 || Tuv[2]<0){ 
026D2:  BTFSC  xFF.7
026D4:  BRA    26DC
026D6:  MOVF   xFF,W
026D8:  SUBLW  09
026DA:  BNC   26E2
026DC:  BTFSC  xFF.7
026DE:  BRA    26E2
026E0:  BRA    270E
....................       Tuv[2]=0;write_eeprom(14,0); 
026E2:  CLRF   xFF
026E4:  CLRF   FAA
026E6:  MOVLW  0E
026E8:  MOVWF  FA9
026EA:  CLRF   FA8
026EC:  BCF    FA6.6
026EE:  BCF    FA6.7
026F0:  BSF    FA6.2
026F2:  MOVF   FF2,W
026F4:  MOVWF  00
026F6:  BCF    FF2.7
026F8:  MOVLB  F
026FA:  MOVLW  55
026FC:  MOVWF  FA7
026FE:  MOVLW  AA
02700:  MOVWF  FA7
02702:  BSF    FA6.1
02704:  BTFSC  FA6.1
02706:  BRA    2704
02708:  BCF    FA6.2
0270A:  MOVF   00,W
0270C:  IORWF  FF2,F
....................    } 
....................    if(Tuv[3]>9 || Tuv[3]<0){ 
0270E:  MOVLB  5
02710:  BTFSC  x00.7
02712:  BRA    271A
02714:  MOVF   x00,W
02716:  SUBLW  09
02718:  BNC   2720
0271A:  BTFSC  x00.7
0271C:  BRA    2720
0271E:  BRA    274E
....................       Tuv[3]=0;write_eeprom(15,0); 
02720:  CLRF   x00
02722:  CLRF   FAA
02724:  MOVLW  0F
02726:  MOVWF  FA9
02728:  CLRF   FA8
0272A:  BCF    FA6.6
0272C:  BCF    FA6.7
0272E:  BSF    FA6.2
02730:  MOVF   FF2,W
02732:  MOVWF  00
02734:  BCF    FF2.7
02736:  MOVLB  F
02738:  MOVLW  55
0273A:  MOVWF  FA7
0273C:  MOVLW  AA
0273E:  MOVWF  FA7
02740:  BSF    FA6.1
02742:  BTFSC  FA6.1
02744:  BRA    2742
02746:  BCF    FA6.2
02748:  MOVF   00,W
0274A:  IORWF  FF2,F
0274C:  MOVLB  5
....................    } 
....................    if(Ttrabajo[0]>9 || Ttrabajo[0]<0){ 
0274E:  BTFSC  x05.7
02750:  BRA    2758
02752:  MOVF   x05,W
02754:  SUBLW  09
02756:  BNC   275E
02758:  BTFSC  x05.7
0275A:  BRA    275E
0275C:  BRA    278C
....................       Ttrabajo[0]=0;write_eeprom(16,0); 
0275E:  CLRF   x05
02760:  CLRF   FAA
02762:  MOVLW  10
02764:  MOVWF  FA9
02766:  CLRF   FA8
02768:  BCF    FA6.6
0276A:  BCF    FA6.7
0276C:  BSF    FA6.2
0276E:  MOVF   FF2,W
02770:  MOVWF  00
02772:  BCF    FF2.7
02774:  MOVLB  F
02776:  MOVLW  55
02778:  MOVWF  FA7
0277A:  MOVLW  AA
0277C:  MOVWF  FA7
0277E:  BSF    FA6.1
02780:  BTFSC  FA6.1
02782:  BRA    2780
02784:  BCF    FA6.2
02786:  MOVF   00,W
02788:  IORWF  FF2,F
0278A:  MOVLB  5
....................    } 
....................    if(Ttrabajo[1]>9 || Ttrabajo[1]<0){ 
0278C:  BTFSC  x06.7
0278E:  BRA    2796
02790:  MOVF   x06,W
02792:  SUBLW  09
02794:  BNC   279C
02796:  BTFSC  x06.7
02798:  BRA    279C
0279A:  BRA    27CA
....................       Ttrabajo[1]=0;write_eeprom(17,0); 
0279C:  CLRF   x06
0279E:  CLRF   FAA
027A0:  MOVLW  11
027A2:  MOVWF  FA9
027A4:  CLRF   FA8
027A6:  BCF    FA6.6
027A8:  BCF    FA6.7
027AA:  BSF    FA6.2
027AC:  MOVF   FF2,W
027AE:  MOVWF  00
027B0:  BCF    FF2.7
027B2:  MOVLB  F
027B4:  MOVLW  55
027B6:  MOVWF  FA7
027B8:  MOVLW  AA
027BA:  MOVWF  FA7
027BC:  BSF    FA6.1
027BE:  BTFSC  FA6.1
027C0:  BRA    27BE
027C2:  BCF    FA6.2
027C4:  MOVF   00,W
027C6:  IORWF  FF2,F
027C8:  MOVLB  5
....................    } 
....................    if(Ttrabajo[2]>9 || Ttrabajo[2]<0){ 
027CA:  BTFSC  x07.7
027CC:  BRA    27D4
027CE:  MOVF   x07,W
027D0:  SUBLW  09
027D2:  BNC   27DA
027D4:  BTFSC  x07.7
027D6:  BRA    27DA
027D8:  BRA    2808
....................       Ttrabajo[2]=0;write_eeprom(18,0); 
027DA:  CLRF   x07
027DC:  CLRF   FAA
027DE:  MOVLW  12
027E0:  MOVWF  FA9
027E2:  CLRF   FA8
027E4:  BCF    FA6.6
027E6:  BCF    FA6.7
027E8:  BSF    FA6.2
027EA:  MOVF   FF2,W
027EC:  MOVWF  00
027EE:  BCF    FF2.7
027F0:  MOVLB  F
027F2:  MOVLW  55
027F4:  MOVWF  FA7
027F6:  MOVLW  AA
027F8:  MOVWF  FA7
027FA:  BSF    FA6.1
027FC:  BTFSC  FA6.1
027FE:  BRA    27FC
02800:  BCF    FA6.2
02802:  MOVF   00,W
02804:  IORWF  FF2,F
02806:  MOVLB  5
....................    } 
....................    if(Ttrabajo[3]>9 || Ttrabajo[3]<0){ 
02808:  BTFSC  x08.7
0280A:  BRA    2812
0280C:  MOVF   x08,W
0280E:  SUBLW  09
02810:  BNC   2818
02812:  BTFSC  x08.7
02814:  BRA    2818
02816:  BRA    2846
....................       Ttrabajo[3]=0;write_eeprom(19,0); 
02818:  CLRF   x08
0281A:  CLRF   FAA
0281C:  MOVLW  13
0281E:  MOVWF  FA9
02820:  CLRF   FA8
02822:  BCF    FA6.6
02824:  BCF    FA6.7
02826:  BSF    FA6.2
02828:  MOVF   FF2,W
0282A:  MOVWF  00
0282C:  BCF    FF2.7
0282E:  MOVLB  F
02830:  MOVLW  55
02832:  MOVWF  FA7
02834:  MOVLW  AA
02836:  MOVWF  FA7
02838:  BSF    FA6.1
0283A:  BTFSC  FA6.1
0283C:  BRA    283A
0283E:  BCF    FA6.2
02840:  MOVF   00,W
02842:  IORWF  FF2,F
02844:  MOVLB  5
....................    } 
....................    if(Tempouvp[0]>9 || Tempouvp[0]<0){ 
02846:  BTFSC  x01.7
02848:  BRA    2850
0284A:  MOVF   x01,W
0284C:  SUBLW  09
0284E:  BNC   2856
02850:  BTFSC  x01.7
02852:  BRA    2856
02854:  BRA    2884
....................       Tempouvp[0]=0;write_eeprom(21,0); 
02856:  CLRF   x01
02858:  CLRF   FAA
0285A:  MOVLW  15
0285C:  MOVWF  FA9
0285E:  CLRF   FA8
02860:  BCF    FA6.6
02862:  BCF    FA6.7
02864:  BSF    FA6.2
02866:  MOVF   FF2,W
02868:  MOVWF  00
0286A:  BCF    FF2.7
0286C:  MOVLB  F
0286E:  MOVLW  55
02870:  MOVWF  FA7
02872:  MOVLW  AA
02874:  MOVWF  FA7
02876:  BSF    FA6.1
02878:  BTFSC  FA6.1
0287A:  BRA    2878
0287C:  BCF    FA6.2
0287E:  MOVF   00,W
02880:  IORWF  FF2,F
02882:  MOVLB  5
....................    } 
....................    if(Tempouvp[1]>9 || Tempouvp[1]<0){ 
02884:  BTFSC  x02.7
02886:  BRA    288E
02888:  MOVF   x02,W
0288A:  SUBLW  09
0288C:  BNC   2894
0288E:  BTFSC  x02.7
02890:  BRA    2894
02892:  BRA    28C2
....................       Tempouvp[1]=0;write_eeprom(22,0); 
02894:  CLRF   x02
02896:  CLRF   FAA
02898:  MOVLW  16
0289A:  MOVWF  FA9
0289C:  CLRF   FA8
0289E:  BCF    FA6.6
028A0:  BCF    FA6.7
028A2:  BSF    FA6.2
028A4:  MOVF   FF2,W
028A6:  MOVWF  00
028A8:  BCF    FF2.7
028AA:  MOVLB  F
028AC:  MOVLW  55
028AE:  MOVWF  FA7
028B0:  MOVLW  AA
028B2:  MOVWF  FA7
028B4:  BSF    FA6.1
028B6:  BTFSC  FA6.1
028B8:  BRA    28B6
028BA:  BCF    FA6.2
028BC:  MOVF   00,W
028BE:  IORWF  FF2,F
028C0:  MOVLB  5
....................    } 
....................    if(Tempouvp[2]>9 || Tempouvp[2]<0){ 
028C2:  BTFSC  x03.7
028C4:  BRA    28CC
028C6:  MOVF   x03,W
028C8:  SUBLW  09
028CA:  BNC   28D2
028CC:  BTFSC  x03.7
028CE:  BRA    28D2
028D0:  BRA    2900
....................       Tempouvp[2]=0;write_eeprom(23,0); 
028D2:  CLRF   x03
028D4:  CLRF   FAA
028D6:  MOVLW  17
028D8:  MOVWF  FA9
028DA:  CLRF   FA8
028DC:  BCF    FA6.6
028DE:  BCF    FA6.7
028E0:  BSF    FA6.2
028E2:  MOVF   FF2,W
028E4:  MOVWF  00
028E6:  BCF    FF2.7
028E8:  MOVLB  F
028EA:  MOVLW  55
028EC:  MOVWF  FA7
028EE:  MOVLW  AA
028F0:  MOVWF  FA7
028F2:  BSF    FA6.1
028F4:  BTFSC  FA6.1
028F6:  BRA    28F4
028F8:  BCF    FA6.2
028FA:  MOVF   00,W
028FC:  IORWF  FF2,F
028FE:  MOVLB  5
....................    } 
....................    if(Tempouvp[3]>9 || Tempouvp[3]<0){ 
02900:  BTFSC  x04.7
02902:  BRA    290A
02904:  MOVF   x04,W
02906:  SUBLW  09
02908:  BNC   2910
0290A:  BTFSC  x04.7
0290C:  BRA    2910
0290E:  BRA    2940
....................       Tempouvp[3]=1;write_eeprom(24,1); 
02910:  MOVLW  01
02912:  MOVWF  x04
02914:  CLRF   FAA
02916:  MOVLW  18
02918:  MOVWF  FA9
0291A:  MOVLW  01
0291C:  MOVWF  FA8
0291E:  BCF    FA6.6
02920:  BCF    FA6.7
02922:  BSF    FA6.2
02924:  MOVF   FF2,W
02926:  MOVWF  00
02928:  BCF    FF2.7
0292A:  MOVLB  F
0292C:  MOVLW  55
0292E:  MOVWF  FA7
02930:  MOVLW  AA
02932:  MOVWF  FA7
02934:  BSF    FA6.1
02936:  BTFSC  FA6.1
02938:  BRA    2936
0293A:  BCF    FA6.2
0293C:  MOVF   00,W
0293E:  IORWF  FF2,F
....................    } 
....................    if(Ajuste1>25.0){ 
02940:  MOVLB  6
02942:  CLRF   x13
02944:  CLRF   x12
02946:  MOVLW  48
02948:  MOVWF  x11
0294A:  MOVLW  83
0294C:  MOVWF  x10
0294E:  MOVFF  534,617
02952:  MOVFF  533,616
02956:  MOVFF  532,615
0295A:  MOVFF  531,614
0295E:  MOVLB  0
02960:  RCALL  22EC
02962:  BNC   29C8
....................       Ajuste1=1.5;write_eeprom(25,1);write_eeprom(26,5); 
02964:  MOVLB  5
02966:  CLRF   x34
02968:  CLRF   x33
0296A:  MOVLW  40
0296C:  MOVWF  x32
0296E:  MOVLW  7F
02970:  MOVWF  x31
02972:  CLRF   FAA
02974:  MOVLW  19
02976:  MOVWF  FA9
02978:  MOVLW  01
0297A:  MOVWF  FA8
0297C:  BCF    FA6.6
0297E:  BCF    FA6.7
02980:  BSF    FA6.2
02982:  MOVF   FF2,W
02984:  MOVWF  00
02986:  BCF    FF2.7
02988:  MOVLB  F
0298A:  MOVLW  55
0298C:  MOVWF  FA7
0298E:  MOVLW  AA
02990:  MOVWF  FA7
02992:  BSF    FA6.1
02994:  BTFSC  FA6.1
02996:  BRA    2994
02998:  BCF    FA6.2
0299A:  MOVF   00,W
0299C:  IORWF  FF2,F
0299E:  CLRF   FAA
029A0:  MOVLW  1A
029A2:  MOVWF  FA9
029A4:  MOVLW  05
029A6:  MOVWF  FA8
029A8:  BCF    FA6.6
029AA:  BCF    FA6.7
029AC:  BSF    FA6.2
029AE:  MOVF   FF2,W
029B0:  MOVWF  00
029B2:  BCF    FF2.7
029B4:  MOVLW  55
029B6:  MOVWF  FA7
029B8:  MOVLW  AA
029BA:  MOVWF  FA7
029BC:  BSF    FA6.1
029BE:  BTFSC  FA6.1
029C0:  BRA    29BE
029C2:  BCF    FA6.2
029C4:  MOVF   00,W
029C6:  IORWF  FF2,F
....................    } 
....................    if(Ajuste2>25.0){ 
029C8:  MOVLB  6
029CA:  CLRF   x13
029CC:  CLRF   x12
029CE:  MOVLW  48
029D0:  MOVWF  x11
029D2:  MOVLW  83
029D4:  MOVWF  x10
029D6:  MOVFF  538,617
029DA:  MOVFF  537,616
029DE:  MOVFF  536,615
029E2:  MOVFF  535,614
029E6:  MOVLB  0
029E8:  RCALL  22EC
029EA:  BNC   2A4C
....................       Ajuste2=1.0;write_eeprom(27,1);write_eeprom(28,0); 
029EC:  MOVLB  5
029EE:  CLRF   x38
029F0:  CLRF   x37
029F2:  CLRF   x36
029F4:  MOVLW  7F
029F6:  MOVWF  x35
029F8:  CLRF   FAA
029FA:  MOVLW  1B
029FC:  MOVWF  FA9
029FE:  MOVLW  01
02A00:  MOVWF  FA8
02A02:  BCF    FA6.6
02A04:  BCF    FA6.7
02A06:  BSF    FA6.2
02A08:  MOVF   FF2,W
02A0A:  MOVWF  00
02A0C:  BCF    FF2.7
02A0E:  MOVLB  F
02A10:  MOVLW  55
02A12:  MOVWF  FA7
02A14:  MOVLW  AA
02A16:  MOVWF  FA7
02A18:  BSF    FA6.1
02A1A:  BTFSC  FA6.1
02A1C:  BRA    2A1A
02A1E:  BCF    FA6.2
02A20:  MOVF   00,W
02A22:  IORWF  FF2,F
02A24:  CLRF   FAA
02A26:  MOVLW  1C
02A28:  MOVWF  FA9
02A2A:  CLRF   FA8
02A2C:  BCF    FA6.6
02A2E:  BCF    FA6.7
02A30:  BSF    FA6.2
02A32:  MOVF   FF2,W
02A34:  MOVWF  00
02A36:  BCF    FF2.7
02A38:  MOVLW  55
02A3A:  MOVWF  FA7
02A3C:  MOVLW  AA
02A3E:  MOVWF  FA7
02A40:  BSF    FA6.1
02A42:  BTFSC  FA6.1
02A44:  BRA    2A42
02A46:  BCF    FA6.2
02A48:  MOVF   00,W
02A4A:  IORWF  FF2,F
....................    } 
....................    if(zero_actual>300){ 
02A4C:  MOVLB  6
02A4E:  CLRF   x13
02A50:  CLRF   x12
02A52:  MOVLW  16
02A54:  MOVWF  x11
02A56:  MOVLW  87
02A58:  MOVWF  x10
02A5A:  MOVFF  5BC,617
02A5E:  MOVFF  5BB,616
02A62:  MOVFF  5BA,615
02A66:  MOVFF  5B9,614
02A6A:  MOVLB  0
02A6C:  RCALL  22EC
02A6E:  BNC   2AD2
....................       zero_actual=203;write_eeprom(29,203);write_eeprom(30,0); 
02A70:  MOVLB  5
02A72:  CLRF   xBC
02A74:  CLRF   xBB
02A76:  MOVLW  4B
02A78:  MOVWF  xBA
02A7A:  MOVLW  86
02A7C:  MOVWF  xB9
02A7E:  CLRF   FAA
02A80:  MOVLW  1D
02A82:  MOVWF  FA9
02A84:  MOVLW  CB
02A86:  MOVWF  FA8
02A88:  BCF    FA6.6
02A8A:  BCF    FA6.7
02A8C:  BSF    FA6.2
02A8E:  MOVF   FF2,W
02A90:  MOVWF  00
02A92:  BCF    FF2.7
02A94:  MOVLB  F
02A96:  MOVLW  55
02A98:  MOVWF  FA7
02A9A:  MOVLW  AA
02A9C:  MOVWF  FA7
02A9E:  BSF    FA6.1
02AA0:  BTFSC  FA6.1
02AA2:  BRA    2AA0
02AA4:  BCF    FA6.2
02AA6:  MOVF   00,W
02AA8:  IORWF  FF2,F
02AAA:  CLRF   FAA
02AAC:  MOVLW  1E
02AAE:  MOVWF  FA9
02AB0:  CLRF   FA8
02AB2:  BCF    FA6.6
02AB4:  BCF    FA6.7
02AB6:  BSF    FA6.2
02AB8:  MOVF   FF2,W
02ABA:  MOVWF  00
02ABC:  BCF    FF2.7
02ABE:  MOVLW  55
02AC0:  MOVWF  FA7
02AC2:  MOVLW  AA
02AC4:  MOVWF  FA7
02AC6:  BSF    FA6.1
02AC8:  BTFSC  FA6.1
02ACA:  BRA    2AC8
02ACC:  BCF    FA6.2
02ACE:  MOVF   00,W
02AD0:  IORWF  FF2,F
....................    } 
....................    if(minutos_uv>60){ 
02AD2:  MOVLB  4
02AD4:  MOVF   xDE,F
02AD6:  BNZ   2ADE
02AD8:  MOVF   xDD,W
02ADA:  SUBLW  3C
02ADC:  BC    2B0C
....................       minutos_uv=0;write_eeprom(31,0); 
02ADE:  CLRF   xDE
02AE0:  CLRF   xDD
02AE2:  CLRF   FAA
02AE4:  MOVLW  1F
02AE6:  MOVWF  FA9
02AE8:  CLRF   FA8
02AEA:  BCF    FA6.6
02AEC:  BCF    FA6.7
02AEE:  BSF    FA6.2
02AF0:  MOVF   FF2,W
02AF2:  MOVWF  00
02AF4:  BCF    FF2.7
02AF6:  MOVLB  F
02AF8:  MOVLW  55
02AFA:  MOVWF  FA7
02AFC:  MOVLW  AA
02AFE:  MOVWF  FA7
02B00:  BSF    FA6.1
02B02:  BTFSC  FA6.1
02B04:  BRA    2B02
02B06:  BCF    FA6.2
02B08:  MOVF   00,W
02B0A:  IORWF  FF2,F
....................    } 
....................    if(VelMotor>6){ 
02B0C:  MOVLB  5
02B0E:  MOVF   xD4,W
02B10:  SUBLW  06
02B12:  BC    2B44
....................       VelMotor=2;write_eeprom(32,2); 
02B14:  MOVLW  02
02B16:  MOVWF  xD4
02B18:  CLRF   FAA
02B1A:  MOVLW  20
02B1C:  MOVWF  FA9
02B1E:  MOVLW  02
02B20:  MOVWF  FA8
02B22:  BCF    FA6.6
02B24:  BCF    FA6.7
02B26:  BSF    FA6.2
02B28:  MOVF   FF2,W
02B2A:  MOVWF  00
02B2C:  BCF    FF2.7
02B2E:  MOVLB  F
02B30:  MOVLW  55
02B32:  MOVWF  FA7
02B34:  MOVLW  AA
02B36:  MOVWF  FA7
02B38:  BSF    FA6.1
02B3A:  BTFSC  FA6.1
02B3C:  BRA    2B3A
02B3E:  BCF    FA6.2
02B40:  MOVF   00,W
02B42:  IORWF  FF2,F
....................    }    
....................    if(minutos_trabajo>3600){ 
02B44:  MOVLB  4
02B46:  MOVF   xE0,W
02B48:  SUBLW  0D
02B4A:  BC    2BAC
02B4C:  XORLW  FF
02B4E:  BNZ   2B56
02B50:  MOVF   xDF,W
02B52:  SUBLW  10
02B54:  BC    2BAC
....................       minutos_trabajo=0;write_eeprom(33,0);write_eeprom(34,0); 
02B56:  CLRF   xE0
02B58:  CLRF   xDF
02B5A:  CLRF   FAA
02B5C:  MOVLW  21
02B5E:  MOVWF  FA9
02B60:  CLRF   FA8
02B62:  BCF    FA6.6
02B64:  BCF    FA6.7
02B66:  BSF    FA6.2
02B68:  MOVF   FF2,W
02B6A:  MOVWF  00
02B6C:  BCF    FF2.7
02B6E:  MOVLB  F
02B70:  MOVLW  55
02B72:  MOVWF  FA7
02B74:  MOVLW  AA
02B76:  MOVWF  FA7
02B78:  BSF    FA6.1
02B7A:  BTFSC  FA6.1
02B7C:  BRA    2B7A
02B7E:  BCF    FA6.2
02B80:  MOVF   00,W
02B82:  IORWF  FF2,F
02B84:  CLRF   FAA
02B86:  MOVLW  22
02B88:  MOVWF  FA9
02B8A:  CLRF   FA8
02B8C:  BCF    FA6.6
02B8E:  BCF    FA6.7
02B90:  BSF    FA6.2
02B92:  MOVF   FF2,W
02B94:  MOVWF  00
02B96:  BCF    FF2.7
02B98:  MOVLW  55
02B9A:  MOVWF  FA7
02B9C:  MOVLW  AA
02B9E:  MOVWF  FA7
02BA0:  BSF    FA6.1
02BA2:  BTFSC  FA6.1
02BA4:  BRA    2BA2
02BA6:  BCF    FA6.2
02BA8:  MOVF   00,W
02BAA:  IORWF  FF2,F
....................    } 
....................    //if(Relacion>2.0){ 
....................       //Relacion=0.57;write_eeprom(35,0);write_eeprom(36,57); 
....................    //} 
....................    if(Diferencia>200){ 
02BAC:  MOVLB  6
02BAE:  CLRF   x13
02BB0:  CLRF   x12
02BB2:  MOVLW  48
02BB4:  MOVWF  x11
02BB6:  MOVLW  86
02BB8:  MOVWF  x10
02BBA:  MOVFF  520,617
02BBE:  MOVFF  51F,616
02BC2:  MOVFF  51E,615
02BC6:  MOVFF  51D,614
02BCA:  MOVLB  0
02BCC:  CALL   22EC
02BD0:  BNC   2C2E
....................       Diferencia=0;write_eeprom(60,0);write_eeprom(61,0); 
02BD2:  MOVLB  5
02BD4:  CLRF   x20
02BD6:  CLRF   x1F
02BD8:  CLRF   x1E
02BDA:  CLRF   x1D
02BDC:  CLRF   FAA
02BDE:  MOVLW  3C
02BE0:  MOVWF  FA9
02BE2:  CLRF   FA8
02BE4:  BCF    FA6.6
02BE6:  BCF    FA6.7
02BE8:  BSF    FA6.2
02BEA:  MOVF   FF2,W
02BEC:  MOVWF  00
02BEE:  BCF    FF2.7
02BF0:  MOVLB  F
02BF2:  MOVLW  55
02BF4:  MOVWF  FA7
02BF6:  MOVLW  AA
02BF8:  MOVWF  FA7
02BFA:  BSF    FA6.1
02BFC:  BTFSC  FA6.1
02BFE:  BRA    2BFC
02C00:  BCF    FA6.2
02C02:  MOVF   00,W
02C04:  IORWF  FF2,F
02C06:  CLRF   FAA
02C08:  MOVLW  3D
02C0A:  MOVWF  FA9
02C0C:  CLRF   FA8
02C0E:  BCF    FA6.6
02C10:  BCF    FA6.7
02C12:  BSF    FA6.2
02C14:  MOVF   FF2,W
02C16:  MOVWF  00
02C18:  BCF    FF2.7
02C1A:  MOVLW  55
02C1C:  MOVWF  FA7
02C1E:  MOVLW  AA
02C20:  MOVWF  FA7
02C22:  BSF    FA6.1
02C24:  BTFSC  FA6.1
02C26:  BRA    2C24
02C28:  BCF    FA6.2
02C2A:  MOVF   00,W
02C2C:  IORWF  FF2,F
....................    } 
....................    if(G>900){ 
02C2E:  MOVLB  6
02C30:  CLRF   x13
02C32:  CLRF   x12
02C34:  MOVLW  61
02C36:  MOVWF  x11
02C38:  MOVLW  88
02C3A:  MOVWF  x10
02C3C:  MOVFF  5C8,617
02C40:  MOVFF  5C7,616
02C44:  MOVFF  5C6,615
02C48:  MOVFF  5C5,614
02C4C:  MOVLB  0
02C4E:  CALL   22EC
02C52:  BNC   2CB6
....................       G=240;write_eeprom(62,240);write_eeprom(63,0); 
02C54:  MOVLB  5
02C56:  CLRF   xC8
02C58:  CLRF   xC7
02C5A:  MOVLW  70
02C5C:  MOVWF  xC6
02C5E:  MOVLW  86
02C60:  MOVWF  xC5
02C62:  CLRF   FAA
02C64:  MOVLW  3E
02C66:  MOVWF  FA9
02C68:  MOVLW  F0
02C6A:  MOVWF  FA8
02C6C:  BCF    FA6.6
02C6E:  BCF    FA6.7
02C70:  BSF    FA6.2
02C72:  MOVF   FF2,W
02C74:  MOVWF  00
02C76:  BCF    FF2.7
02C78:  MOVLB  F
02C7A:  MOVLW  55
02C7C:  MOVWF  FA7
02C7E:  MOVLW  AA
02C80:  MOVWF  FA7
02C82:  BSF    FA6.1
02C84:  BTFSC  FA6.1
02C86:  BRA    2C84
02C88:  BCF    FA6.2
02C8A:  MOVF   00,W
02C8C:  IORWF  FF2,F
02C8E:  CLRF   FAA
02C90:  MOVLW  3F
02C92:  MOVWF  FA9
02C94:  CLRF   FA8
02C96:  BCF    FA6.6
02C98:  BCF    FA6.7
02C9A:  BSF    FA6.2
02C9C:  MOVF   FF2,W
02C9E:  MOVWF  00
02CA0:  BCF    FF2.7
02CA2:  MOVLW  55
02CA4:  MOVWF  FA7
02CA6:  MOVLW  AA
02CA8:  MOVWF  FA7
02CAA:  BSF    FA6.1
02CAC:  BTFSC  FA6.1
02CAE:  BRA    2CAC
02CB0:  BCF    FA6.2
02CB2:  MOVF   00,W
02CB4:  IORWF  FF2,F
....................    } 
....................    if(negativo>20){ 
02CB6:  MOVLB  4
02CB8:  MOVF   xCA,W
02CBA:  SUBLW  14
02CBC:  BC    2CF0
....................       negativo=10;write_eeprom(50,10); 
02CBE:  MOVLW  0A
02CC0:  MOVWF  xCA
02CC2:  CLRF   FAA
02CC4:  MOVLW  32
02CC6:  MOVWF  FA9
02CC8:  MOVLW  0A
02CCA:  MOVWF  FA8
02CCC:  BCF    FA6.6
02CCE:  BCF    FA6.7
02CD0:  BSF    FA6.2
02CD2:  MOVF   FF2,W
02CD4:  MOVWF  00
02CD6:  BCF    FF2.7
02CD8:  MOVLB  F
02CDA:  MOVLW  55
02CDC:  MOVWF  FA7
02CDE:  MOVLW  AA
02CE0:  MOVWF  FA7
02CE2:  BSF    FA6.1
02CE4:  BTFSC  FA6.1
02CE6:  BRA    2CE4
02CE8:  BCF    FA6.2
02CEA:  MOVF   00,W
02CEC:  IORWF  FF2,F
02CEE:  MOVLB  4
....................    } 
.................... } 
02CF0:  MOVLB  0
02CF2:  GOTO   5F8E (RETURN)
....................  
.................... void VelocidadMotor(int8 Vel){ 
....................    if(Vel==6){ 
*
01508:  MOVLB  5
0150A:  MOVF   xDD,W
0150C:  SUBLW  06
0150E:  BNZ   1518
....................       Porcentaje=0; 
01510:  CLRF   xD3
....................       Motor_on; 
01512:  BSF    F8B.2
01514:  BCF    F94.2
....................    }else if(Vel==5){ 
01516:  BRA    1586
01518:  MOVF   xDD,W
0151A:  SUBLW  05
0151C:  BNZ   152C
....................       Porcentaje=15; 
0151E:  MOVLW  0F
01520:  MOVWF  xD3
....................       retardo=2000; 
01522:  MOVLW  07
01524:  MOVWF  xCC
01526:  MOVLW  D0
01528:  MOVWF  xCB
....................    }else if(Vel==4){ 
0152A:  BRA    1586
0152C:  MOVF   xDD,W
0152E:  SUBLW  04
01530:  BNZ   1540
....................       Porcentaje=25; 
01532:  MOVLW  19
01534:  MOVWF  xD3
....................       retardo=3000; 
01536:  MOVLW  0B
01538:  MOVWF  xCC
0153A:  MOVLW  B8
0153C:  MOVWF  xCB
....................    }else if(Vel==3){ 
0153E:  BRA    1586
01540:  MOVF   xDD,W
01542:  SUBLW  03
01544:  BNZ   1554
....................       Porcentaje=35; 
01546:  MOVLW  23
01548:  MOVWF  xD3
....................       retardo=3600; 
0154A:  MOVLW  0E
0154C:  MOVWF  xCC
0154E:  MOVLW  10
01550:  MOVWF  xCB
....................    }else if(Vel==2){ 
01552:  BRA    1586
01554:  MOVF   xDD,W
01556:  SUBLW  02
01558:  BNZ   1568
....................       Porcentaje=45; 
0155A:  MOVLW  2D
0155C:  MOVWF  xD3
....................       retardo=4300; 
0155E:  MOVLW  10
01560:  MOVWF  xCC
01562:  MOVLW  CC
01564:  MOVWF  xCB
....................    }else if(Vel==1){ 
01566:  BRA    1586
01568:  DECFSZ xDD,W
0156A:  BRA    157A
....................       Porcentaje=50; 
0156C:  MOVLW  32
0156E:  MOVWF  xD3
....................       retardo=5000; 
01570:  MOVLW  13
01572:  MOVWF  xCC
01574:  MOVLW  88
01576:  MOVWF  xCB
....................    }else if(Vel==0){ 
01578:  BRA    1586
0157A:  MOVF   xDD,F
0157C:  BNZ   1586
....................       Porcentaje=100; 
0157E:  MOVLW  64
01580:  MOVWF  xD3
....................       Motor_off; 
01582:  BCF    F8B.2
01584:  BCF    F94.2
....................    } 
.................... } 
01586:  MOVLB  0
01588:  RETLW  00
....................  
.................... short PidePassword(int8 MenuAnt, int8 MenuActual, int8 MenuPost, int8 clave0,int8 clave1, int8 clave2,int8 clave3){ 
....................       if(n==0) 
*
04C8E:  MOVLB  4
04C90:  BTFSC  x2E.3
04C92:  BRA    4D2A
....................       { 
....................          displayContrasena(Contrasena[0],20,30,1);displayContrasena(Contrasena[1],40,30,0); 
04C94:  MOVFF  509,5E7
04C98:  MOVLW  14
04C9A:  MOVLB  5
04C9C:  MOVWF  xE8
04C9E:  MOVLW  1E
04CA0:  MOVWF  xE9
04CA2:  MOVLW  01
04CA4:  MOVWF  xEA
04CA6:  MOVLB  0
04CA8:  RCALL  4B0A
04CAA:  MOVFF  50A,5E7
04CAE:  MOVLW  28
04CB0:  MOVLB  5
04CB2:  MOVWF  xE8
04CB4:  MOVLW  1E
04CB6:  MOVWF  xE9
04CB8:  CLRF   xEA
04CBA:  MOVLB  0
04CBC:  RCALL  4B0A
....................          displayContrasena(Contrasena[2],60,30,0);displayContrasena(Contrasena[0],80,30,0); 
04CBE:  MOVFF  50B,5E7
04CC2:  MOVLW  3C
04CC4:  MOVLB  5
04CC6:  MOVWF  xE8
04CC8:  MOVLW  1E
04CCA:  MOVWF  xE9
04CCC:  CLRF   xEA
04CCE:  MOVLB  0
04CD0:  RCALL  4B0A
04CD2:  MOVFF  509,5E7
04CD6:  MOVLW  50
04CD8:  MOVLB  5
04CDA:  MOVWF  xE8
04CDC:  MOVLW  1E
04CDE:  MOVWF  xE9
04CE0:  CLRF   xEA
04CE2:  MOVLB  0
04CE4:  RCALL  4B0A
....................          strcpy(Menus.Letra,"Clave"); 
04CE6:  MOVLW  04
04CE8:  MOVWF  FEA
04CEA:  MOVLW  16
04CEC:  MOVWF  FE9
04CEE:  MOVFF  FF2,5E5
04CF2:  BCF    FF2.7
04CF4:  MOVLW  00
04CF6:  CALL   0EEE
04CFA:  TBLRD*-
04CFC:  TBLRD*+
04CFE:  MOVF   FF5,W
04D00:  MOVWF  FEE
04D02:  IORLW  00
04D04:  BNZ   4CFC
04D06:  MOVLB  5
04D08:  BTFSC  xE5.7
04D0A:  BSF    FF2.7
....................          displayMenu(Menus.Letra,20,0,1,3); 
04D0C:  MOVLW  04
04D0E:  MOVWF  xE6
04D10:  MOVLW  16
04D12:  MOVWF  xE5
04D14:  MOVLW  14
04D16:  MOVWF  xE7
04D18:  CLRF   xE8
04D1A:  MOVLW  01
04D1C:  MOVWF  xE9
04D1E:  MOVLW  03
04D20:  MOVWF  xEA
04D22:  MOVLB  0
04D24:  RCALL  4BC2
....................          n=1; 
04D26:  MOVLB  4
04D28:  BSF    x2E.3
....................       } 
....................        
....................       if(UP){ 
04D2A:  BSF    F92.5
04D2C:  BTFSC  F80.5
04D2E:  BRA    4E0A
....................          flag_latencia=0;t_latencia=0; 
04D30:  BCF    x2D.7
04D32:  CLRF   xDC
04D34:  CLRF   xDB
....................          if(Flanco == 0){ 
04D36:  BTFSC  x2C.0
04D38:  BRA    4E08
....................             Flanco = 1;delay_ms(5); 
04D3A:  BSF    x2C.0
04D3C:  MOVLW  05
04D3E:  MOVLB  5
04D40:  MOVWF  xF1
04D42:  MOVLB  0
04D44:  CALL   14E0
....................             for(i=1;i<=4;i++){ 
04D48:  MOVLW  01
04D4A:  MOVLB  5
04D4C:  MOVWF  xCD
04D4E:  MOVF   xCD,W
04D50:  SUBLW  04
04D52:  BNC   4E06
....................                if(unidad==i){ 
04D54:  MOVF   xCD,W
04D56:  MOVLB  4
04D58:  SUBWF  xC8,W
04D5A:  BNZ   4DD0
....................                   Contrasena[i-1]++; 
04D5C:  MOVLW  01
04D5E:  MOVLB  5
04D60:  SUBWF  xCD,W
04D62:  CLRF   03
04D64:  ADDLW  09
04D66:  MOVWF  FE9
04D68:  MOVLW  05
04D6A:  ADDWFC 03,W
04D6C:  MOVWF  FEA
04D6E:  INCF   FEF,F
....................                   if(Contrasena[i-1]>9){ 
04D70:  MOVLW  01
04D72:  SUBWF  xCD,W
04D74:  CLRF   03
04D76:  ADDLW  09
04D78:  MOVWF  FE9
04D7A:  MOVLW  05
04D7C:  ADDWFC 03,W
04D7E:  MOVWF  FEA
04D80:  BTFSC  FEF.7
04D82:  BRA    4D9C
04D84:  MOVF   FEF,W
04D86:  SUBLW  09
04D88:  BC    4D9C
....................                      Contrasena[i-1]=0; 
04D8A:  MOVLW  01
04D8C:  SUBWF  xCD,W
04D8E:  CLRF   03
04D90:  ADDLW  09
04D92:  MOVWF  FE9
04D94:  MOVLW  05
04D96:  ADDWFC 03,W
04D98:  MOVWF  FEA
04D9A:  CLRF   FEF
....................                   } 
....................                   displayContrasena(Contrasena[i-1],i*20,30,1); 
04D9C:  MOVLW  01
04D9E:  SUBWF  xCD,W
04DA0:  CLRF   03
04DA2:  ADDLW  09
04DA4:  MOVWF  FE9
04DA6:  MOVLW  05
04DA8:  ADDWFC 03,W
04DAA:  MOVWF  FEA
04DAC:  MOVFF  FEF,5E5
04DB0:  MOVF   xCD,W
04DB2:  MULLW  14
04DB4:  MOVFF  FF3,5E6
04DB8:  MOVFF  5E5,5E7
04DBC:  MOVFF  5E6,5E8
04DC0:  MOVLW  1E
04DC2:  MOVWF  xE9
04DC4:  MOVLW  01
04DC6:  MOVWF  xEA
04DC8:  MOVLB  0
04DCA:  RCALL  4B0A
....................                }else{ 
04DCC:  BRA    4E00
04DCE:  MOVLB  4
....................                   displayContrasena(Contrasena[i-1],i*20,30,0); 
04DD0:  MOVLW  01
04DD2:  MOVLB  5
04DD4:  SUBWF  xCD,W
04DD6:  CLRF   03
04DD8:  ADDLW  09
04DDA:  MOVWF  FE9
04DDC:  MOVLW  05
04DDE:  ADDWFC 03,W
04DE0:  MOVWF  FEA
04DE2:  MOVFF  FEF,5E5
04DE6:  MOVF   xCD,W
04DE8:  MULLW  14
04DEA:  MOVFF  FF3,5E6
04DEE:  MOVFF  5E5,5E7
04DF2:  MOVFF  5E6,5E8
04DF6:  MOVLW  1E
04DF8:  MOVWF  xE9
04DFA:  CLRF   xEA
04DFC:  MOVLB  0
04DFE:  RCALL  4B0A
....................                } 
....................             } 
04E00:  MOVLB  5
04E02:  INCF   xCD,F
04E04:  BRA    4D4E
04E06:  MOVLB  4
....................          } 
....................       }else{ 
04E08:  BRA    4E0C
....................          Flanco = 0; 
04E0A:  BCF    x2C.0
....................       } 
....................              
....................       if(DOWN){ 
04E0C:  BSF    F96.0
04E0E:  BTFSC  F84.0
04E10:  BRA    4EEA
....................          flag_latencia=0;t_latencia=0; 
04E12:  BCF    x2D.7
04E14:  CLRF   xDC
04E16:  CLRF   xDB
....................          if(Flanco2 == 0){ 
04E18:  BTFSC  x2C.2
04E1A:  BRA    4EE8
....................             Flanco2 = 1;delay_ms(5); 
04E1C:  BSF    x2C.2
04E1E:  MOVLW  05
04E20:  MOVLB  5
04E22:  MOVWF  xF1
04E24:  MOVLB  0
04E26:  CALL   14E0
....................             for(i=1;i<=4;i++){ 
04E2A:  MOVLW  01
04E2C:  MOVLB  5
04E2E:  MOVWF  xCD
04E30:  MOVF   xCD,W
04E32:  SUBLW  04
04E34:  BNC   4EE6
....................                if(unidad==i){ 
04E36:  MOVF   xCD,W
04E38:  MOVLB  4
04E3A:  SUBWF  xC8,W
04E3C:  BNZ   4EB0
....................                   Contrasena[i-1]--; 
04E3E:  MOVLW  01
04E40:  MOVLB  5
04E42:  SUBWF  xCD,W
04E44:  CLRF   03
04E46:  ADDLW  09
04E48:  MOVWF  FE9
04E4A:  MOVLW  05
04E4C:  ADDWFC 03,W
04E4E:  MOVWF  FEA
04E50:  DECF   FEF,F
....................                   if(Contrasena[i-1]<0){ 
04E52:  MOVLW  01
04E54:  SUBWF  xCD,W
04E56:  CLRF   03
04E58:  ADDLW  09
04E5A:  MOVWF  FE9
04E5C:  MOVLW  05
04E5E:  ADDWFC 03,W
04E60:  MOVWF  FEA
04E62:  BTFSC  FEF.7
04E64:  BRA    4E68
04E66:  BRA    4E7C
....................                      Contrasena[i-1]=9; 
04E68:  MOVLW  01
04E6A:  SUBWF  xCD,W
04E6C:  CLRF   03
04E6E:  ADDLW  09
04E70:  MOVWF  FE9
04E72:  MOVLW  05
04E74:  ADDWFC 03,W
04E76:  MOVWF  FEA
04E78:  MOVLW  09
04E7A:  MOVWF  FEF
....................                   } 
....................                   displayContrasena(Contrasena[i-1],i*20,30,1); 
04E7C:  MOVLW  01
04E7E:  SUBWF  xCD,W
04E80:  CLRF   03
04E82:  ADDLW  09
04E84:  MOVWF  FE9
04E86:  MOVLW  05
04E88:  ADDWFC 03,W
04E8A:  MOVWF  FEA
04E8C:  MOVFF  FEF,5E5
04E90:  MOVF   xCD,W
04E92:  MULLW  14
04E94:  MOVFF  FF3,5E6
04E98:  MOVFF  5E5,5E7
04E9C:  MOVFF  5E6,5E8
04EA0:  MOVLW  1E
04EA2:  MOVWF  xE9
04EA4:  MOVLW  01
04EA6:  MOVWF  xEA
04EA8:  MOVLB  0
04EAA:  RCALL  4B0A
....................                }else{ 
04EAC:  BRA    4EE0
04EAE:  MOVLB  4
....................                   displayContrasena(Contrasena[i-1],i*20,30,0); 
04EB0:  MOVLW  01
04EB2:  MOVLB  5
04EB4:  SUBWF  xCD,W
04EB6:  CLRF   03
04EB8:  ADDLW  09
04EBA:  MOVWF  FE9
04EBC:  MOVLW  05
04EBE:  ADDWFC 03,W
04EC0:  MOVWF  FEA
04EC2:  MOVFF  FEF,5E5
04EC6:  MOVF   xCD,W
04EC8:  MULLW  14
04ECA:  MOVFF  FF3,5E6
04ECE:  MOVFF  5E5,5E7
04ED2:  MOVFF  5E6,5E8
04ED6:  MOVLW  1E
04ED8:  MOVWF  xE9
04EDA:  CLRF   xEA
04EDC:  MOVLB  0
04EDE:  RCALL  4B0A
....................                } 
....................             }       
04EE0:  MOVLB  5
04EE2:  INCF   xCD,F
04EE4:  BRA    4E30
04EE6:  MOVLB  4
....................          }      
....................       }else{ 
04EE8:  BRA    4EEC
....................          Flanco2 = 0; 
04EEA:  BCF    x2C.2
....................       } 
....................              
....................       if(RIGHT){ 
04EEC:  BSF    F96.1
04EEE:  BTFSC  F84.1
04EF0:  BRA    4F92
....................          flag_latencia=0;t_latencia=0; 
04EF2:  BCF    x2D.7
04EF4:  CLRF   xDC
04EF6:  CLRF   xDB
....................          if(Flanco1 == 0){ 
04EF8:  BTFSC  x2C.1
04EFA:  BRA    4F90
....................             Flanco1 = 1;delay_ms(5);unidad++; 
04EFC:  BSF    x2C.1
04EFE:  MOVLW  05
04F00:  MOVLB  5
04F02:  MOVWF  xF1
04F04:  MOVLB  0
04F06:  CALL   14E0
04F0A:  MOVLB  4
04F0C:  INCF   xC8,F
....................             for(i=1;i<=4;i++){ 
04F0E:  MOVLW  01
04F10:  MOVLB  5
04F12:  MOVWF  xCD
04F14:  MOVF   xCD,W
04F16:  SUBLW  04
04F18:  BNC   4F8E
....................                if(unidad==i){ 
04F1A:  MOVF   xCD,W
04F1C:  MOVLB  4
04F1E:  SUBWF  xC8,W
04F20:  BNZ   4F58
....................                   displayContrasena(Contrasena[i-1],i*20,30,1); 
04F22:  MOVLW  01
04F24:  MOVLB  5
04F26:  SUBWF  xCD,W
04F28:  CLRF   03
04F2A:  ADDLW  09
04F2C:  MOVWF  FE9
04F2E:  MOVLW  05
04F30:  ADDWFC 03,W
04F32:  MOVWF  FEA
04F34:  MOVFF  FEF,5E5
04F38:  MOVF   xCD,W
04F3A:  MULLW  14
04F3C:  MOVFF  FF3,5E6
04F40:  MOVFF  5E5,5E7
04F44:  MOVFF  5E6,5E8
04F48:  MOVLW  1E
04F4A:  MOVWF  xE9
04F4C:  MOVLW  01
04F4E:  MOVWF  xEA
04F50:  MOVLB  0
04F52:  RCALL  4B0A
....................                }else{ 
04F54:  BRA    4F88
04F56:  MOVLB  4
....................                   displayContrasena(Contrasena[i-1],i*20,30,0); 
04F58:  MOVLW  01
04F5A:  MOVLB  5
04F5C:  SUBWF  xCD,W
04F5E:  CLRF   03
04F60:  ADDLW  09
04F62:  MOVWF  FE9
04F64:  MOVLW  05
04F66:  ADDWFC 03,W
04F68:  MOVWF  FEA
04F6A:  MOVFF  FEF,5E5
04F6E:  MOVF   xCD,W
04F70:  MULLW  14
04F72:  MOVFF  FF3,5E6
04F76:  MOVFF  5E5,5E7
04F7A:  MOVFF  5E6,5E8
04F7E:  MOVLW  1E
04F80:  MOVWF  xE9
04F82:  CLRF   xEA
04F84:  MOVLB  0
04F86:  RCALL  4B0A
....................                } 
....................             } 
04F88:  MOVLB  5
04F8A:  INCF   xCD,F
04F8C:  BRA    4F14
04F8E:  MOVLB  4
....................          } 
....................       }else{ 
04F90:  BRA    4F94
....................          Flanco1 = 0; 
04F92:  BCF    x2C.1
....................       } 
....................        
....................       if(LEFT){ 
04F94:  BSF    F96.2
04F96:  BTFSC  F84.2
04F98:  BRA    4FE2
....................          delay_ms(100); 
04F9A:  MOVLW  64
04F9C:  MOVLB  5
04F9E:  MOVWF  xF1
04FA0:  MOVLB  0
04FA2:  CALL   14E0
....................          if(LEFT){ 
04FA6:  BSF    F96.2
04FA8:  BTFSC  F84.2
04FAA:  BRA    4FE0
....................             Menu=MenuAnt;glcd_fillScreen(OFF);n=0;Opcion=1;unidad=1; 
04FAC:  MOVFF  5DE,4C7
04FB0:  MOVLB  5
04FB2:  CLRF   xE5
04FB4:  MOVLB  0
04FB6:  CALL   15C0
04FBA:  MOVLB  4
04FBC:  BCF    x2E.3
04FBE:  MOVLW  01
04FC0:  MOVWF  xC9
04FC2:  MOVWF  xC8
....................             Contrasena[0]=0;Contrasena[1]=0;Contrasena[2]=0;Contrasena[3]=0; 
04FC4:  MOVLB  5
04FC6:  CLRF   x09
04FC8:  CLRF   x0A
04FCA:  CLRF   x0B
04FCC:  CLRF   x0C
....................             glcd_fillScreen(OFF);glcd_update(); 
04FCE:  CLRF   xE5
04FD0:  MOVLB  0
04FD2:  CALL   15C0
04FD6:  CALL   161A
....................             return 1; 
04FDA:  MOVLW  01
04FDC:  MOVWF  01
04FDE:  BRA    536A
04FE0:  MOVLB  4
....................          } 
....................       } 
....................      
....................       if(unidad>4){ 
04FE2:  MOVF   xC8,W
04FE4:  SUBLW  04
04FE6:  BTFSC  FD8.0
04FE8:  BRA    536C
....................          glcd_fillScreen(OFF);unidad=1;flag_latencia=0;t_latencia=0; 
04FEA:  MOVLB  5
04FEC:  CLRF   xE5
04FEE:  MOVLB  0
04FF0:  CALL   15C0
04FF4:  MOVLW  01
04FF6:  MOVLB  4
04FF8:  MOVWF  xC8
04FFA:  BCF    x2D.7
04FFC:  CLRF   xDC
04FFE:  CLRF   xDB
....................           
....................          if(Contrasena[0]==3&&Contrasena[1]==8&&Contrasena[2]==9&&Contrasena[3]==2 && MenuActual==0){ // Si Ingresa clave para reset general del sistema. 
05000:  MOVLB  5
05002:  MOVF   x09,W
05004:  SUBLW  03
05006:  BTFSS  FD8.2
05008:  BRA    50FC
0500A:  MOVF   x0A,W
0500C:  SUBLW  08
0500E:  BTFSS  FD8.2
05010:  BRA    50FC
05012:  MOVF   x0B,W
05014:  SUBLW  09
05016:  BNZ   50FC
05018:  MOVF   x0C,W
0501A:  SUBLW  02
0501C:  BNZ   50FC
0501E:  MOVF   xDF,F
05020:  BNZ   50FC
....................             write_eeprom(0,0);delay_ms(20);write_eeprom(1,0);delay_ms(20);// Reestablece a contrasea de Fabrica y reinicia Programa. 
05022:  CLRF   FAA
05024:  CLRF   FA9
05026:  CLRF   FA8
05028:  BCF    FA6.6
0502A:  BCF    FA6.7
0502C:  BSF    FA6.2
0502E:  MOVF   FF2,W
05030:  MOVWF  00
05032:  BCF    FF2.7
05034:  MOVLB  F
05036:  MOVLW  55
05038:  MOVWF  FA7
0503A:  MOVLW  AA
0503C:  MOVWF  FA7
0503E:  BSF    FA6.1
05040:  BTFSC  FA6.1
05042:  BRA    5040
05044:  BCF    FA6.2
05046:  MOVF   00,W
05048:  IORWF  FF2,F
0504A:  MOVLW  14
0504C:  MOVLB  5
0504E:  MOVWF  xF1
05050:  MOVLB  0
05052:  CALL   14E0
05056:  CLRF   FAA
05058:  MOVLW  01
0505A:  MOVWF  FA9
0505C:  CLRF   FA8
0505E:  BCF    FA6.6
05060:  BCF    FA6.7
05062:  BSF    FA6.2
05064:  MOVF   FF2,W
05066:  MOVWF  00
05068:  BCF    FF2.7
0506A:  MOVLB  F
0506C:  MOVLW  55
0506E:  MOVWF  FA7
05070:  MOVLW  AA
05072:  MOVWF  FA7
05074:  BSF    FA6.1
05076:  BTFSC  FA6.1
05078:  BRA    5076
0507A:  BCF    FA6.2
0507C:  MOVF   00,W
0507E:  IORWF  FF2,F
05080:  MOVLW  14
05082:  MOVLB  5
05084:  MOVWF  xF1
05086:  MOVLB  0
05088:  CALL   14E0
....................             write_eeprom(2,0);delay_ms(20);write_eeprom(3,0);delay_ms(20); 
0508C:  CLRF   FAA
0508E:  MOVLW  02
05090:  MOVWF  FA9
05092:  CLRF   FA8
05094:  BCF    FA6.6
05096:  BCF    FA6.7
05098:  BSF    FA6.2
0509A:  MOVF   FF2,W
0509C:  MOVWF  00
0509E:  BCF    FF2.7
050A0:  MOVLB  F
050A2:  MOVLW  55
050A4:  MOVWF  FA7
050A6:  MOVLW  AA
050A8:  MOVWF  FA7
050AA:  BSF    FA6.1
050AC:  BTFSC  FA6.1
050AE:  BRA    50AC
050B0:  BCF    FA6.2
050B2:  MOVF   00,W
050B4:  IORWF  FF2,F
050B6:  MOVLW  14
050B8:  MOVLB  5
050BA:  MOVWF  xF1
050BC:  MOVLB  0
050BE:  CALL   14E0
050C2:  CLRF   FAA
050C4:  MOVLW  03
050C6:  MOVWF  FA9
050C8:  CLRF   FA8
050CA:  BCF    FA6.6
050CC:  BCF    FA6.7
050CE:  BSF    FA6.2
050D0:  MOVF   FF2,W
050D2:  MOVWF  00
050D4:  BCF    FF2.7
050D6:  MOVLB  F
050D8:  MOVLW  55
050DA:  MOVWF  FA7
050DC:  MOVLW  AA
050DE:  MOVWF  FA7
050E0:  BSF    FA6.1
050E2:  BTFSC  FA6.1
050E4:  BRA    50E2
050E6:  BCF    FA6.2
050E8:  MOVF   00,W
050EA:  IORWF  FF2,F
050EC:  MOVLW  14
050EE:  MOVLB  5
050F0:  MOVWF  xF1
050F2:  MOVLB  0
050F4:  CALL   14E0
....................             reset_cpu(); 
050F8:  RESET
050FA:  MOVLB  5
....................          } 
....................        
....................          if((Contrasena[0]==clave0)&&(Contrasena[1]==clave1)&&(Contrasena[2]==clave2)&&(Contrasena[3]==clave3)){ 
050FC:  MOVF   xE1,W
050FE:  SUBWF  x09,W
05100:  BTFSS  FD8.2
05102:  BRA    51E4
05104:  MOVF   xE2,W
05106:  SUBWF  x0A,W
05108:  BNZ   51E4
0510A:  MOVF   xE3,W
0510C:  SUBWF  x0B,W
0510E:  BNZ   51E4
05110:  MOVF   xE4,W
05112:  SUBWF  x0C,W
05114:  BNZ   51E4
....................             glcd_fillScreen(OFF); 
05116:  CLRF   xE5
05118:  MOVLB  0
0511A:  CALL   15C0
....................             strcpy(Menus.Letra,"Clave"); 
0511E:  MOVLW  04
05120:  MOVWF  FEA
05122:  MOVLW  16
05124:  MOVWF  FE9
05126:  MOVFF  FF2,5E5
0512A:  BCF    FF2.7
0512C:  MOVLW  00
0512E:  CALL   0EEE
05132:  TBLRD*-
05134:  TBLRD*+
05136:  MOVF   FF5,W
05138:  MOVWF  FEE
0513A:  IORLW  00
0513C:  BNZ   5134
0513E:  MOVLB  5
05140:  BTFSC  xE5.7
05142:  BSF    FF2.7
....................             displayMenu(Menus.Letra,30,0,0,2); 
05144:  MOVLW  04
05146:  MOVWF  xE6
05148:  MOVLW  16
0514A:  MOVWF  xE5
0514C:  MOVLW  1E
0514E:  MOVWF  xE7
05150:  CLRF   xE8
05152:  CLRF   xE9
05154:  MOVLW  02
05156:  MOVWF  xEA
05158:  MOVLB  0
0515A:  RCALL  4BC2
....................             strcpy(Menus.Letra,"Correcta"); 
0515C:  MOVLW  04
0515E:  MOVWF  FEA
05160:  MOVLW  16
05162:  MOVWF  FE9
05164:  MOVFF  FF2,5E5
05168:  BCF    FF2.7
0516A:  MOVLW  00
0516C:  CALL   0F0E
05170:  TBLRD*-
05172:  TBLRD*+
05174:  MOVF   FF5,W
05176:  MOVWF  FEE
05178:  IORLW  00
0517A:  BNZ   5172
0517C:  MOVLB  5
0517E:  BTFSC  xE5.7
05180:  BSF    FF2.7
....................             displayMenu(Menus.Letra,15,30,0,2); 
05182:  MOVLW  04
05184:  MOVWF  xE6
05186:  MOVLW  16
05188:  MOVWF  xE5
0518A:  MOVLW  0F
0518C:  MOVWF  xE7
0518E:  MOVLW  1E
05190:  MOVWF  xE8
05192:  CLRF   xE9
05194:  MOVLW  02
05196:  MOVWF  xEA
05198:  MOVLB  0
0519A:  RCALL  4BC2
....................             Menu=MenuPost;glcd_update();delay_ms(1000);glcd_fillScreen(OFF); 
0519C:  MOVFF  5E0,4C7
051A0:  CALL   161A
051A4:  MOVLW  04
051A6:  MOVLB  5
051A8:  MOVWF  xE5
051AA:  MOVLW  FA
051AC:  MOVWF  xF1
051AE:  MOVLB  0
051B0:  CALL   14E0
051B4:  MOVLB  5
051B6:  DECFSZ xE5,F
051B8:  BRA    51AA
051BA:  CLRF   xE5
051BC:  MOVLB  0
051BE:  CALL   15C0
....................             Contrasena[0]=0;Contrasena[1]=0;Contrasena[2]=0;Contrasena[3]=0; 
051C2:  MOVLB  5
051C4:  CLRF   x09
051C6:  CLRF   x0A
051C8:  CLRF   x0B
051CA:  CLRF   x0C
....................             if(MenuActual==0)tiempo_purga=1;n=0; 
051CC:  MOVF   xDF,F
051CE:  BNZ   51D4
051D0:  MOVLB  4
051D2:  BSF    x2D.5
051D4:  MOVLB  4
051D6:  BCF    x2E.3
....................             return 1; 
051D8:  MOVLW  01
051DA:  MOVWF  01
051DC:  MOVLB  0
051DE:  BRA    536A
....................          }else{ 
051E0:  BRA    536A
051E2:  MOVLB  5
....................             glcd_fillScreen(OFF); 
051E4:  CLRF   xE5
051E6:  MOVLB  0
051E8:  CALL   15C0
....................             strcpy(Menus.Letra,"Clave"); 
051EC:  MOVLW  04
051EE:  MOVWF  FEA
051F0:  MOVLW  16
051F2:  MOVWF  FE9
051F4:  MOVFF  FF2,5E5
051F8:  BCF    FF2.7
051FA:  MOVLW  00
051FC:  CALL   0EEE
05200:  TBLRD*-
05202:  TBLRD*+
05204:  MOVF   FF5,W
05206:  MOVWF  FEE
05208:  IORLW  00
0520A:  BNZ   5202
0520C:  MOVLB  5
0520E:  BTFSC  xE5.7
05210:  BSF    FF2.7
....................             displayMenu(Menus.Letra,30,0,0,2); 
05212:  MOVLW  04
05214:  MOVWF  xE6
05216:  MOVLW  16
05218:  MOVWF  xE5
0521A:  MOVLW  1E
0521C:  MOVWF  xE7
0521E:  CLRF   xE8
05220:  CLRF   xE9
05222:  MOVLW  02
05224:  MOVWF  xEA
05226:  MOVLB  0
05228:  RCALL  4BC2
....................             strcpy(Menus.Letra,"Incorrecta"); 
0522A:  MOVLW  04
0522C:  MOVWF  FEA
0522E:  MOVLW  16
05230:  MOVWF  FE9
05232:  MOVFF  FF2,5E5
05236:  BCF    FF2.7
05238:  MOVLW  00
0523A:  CALL   0F32
0523E:  TBLRD*-
05240:  TBLRD*+
05242:  MOVF   FF5,W
05244:  MOVWF  FEE
05246:  IORLW  00
05248:  BNZ   5240
0524A:  MOVLB  5
0524C:  BTFSC  xE5.7
0524E:  BSF    FF2.7
....................             displayMenu(Menus.Letra,0,30,0,2); 
05250:  MOVLW  04
05252:  MOVWF  xE6
05254:  MOVLW  16
05256:  MOVWF  xE5
05258:  CLRF   xE7
0525A:  MOVLW  1E
0525C:  MOVWF  xE8
0525E:  CLRF   xE9
05260:  MOVLW  02
05262:  MOVWF  xEA
05264:  MOVLB  0
05266:  RCALL  4BC2
....................             unidad=1;glcd_update();delay_ms(1000);Contrasena[0]=0;Contrasena[1]=0;Contrasena[2]=0;Contrasena[3]=0;glcd_fillScreen(OFF); 
05268:  MOVLW  01
0526A:  MOVLB  4
0526C:  MOVWF  xC8
0526E:  MOVLB  0
05270:  CALL   161A
05274:  MOVLW  04
05276:  MOVLB  5
05278:  MOVWF  xE5
0527A:  MOVLW  FA
0527C:  MOVWF  xF1
0527E:  MOVLB  0
05280:  CALL   14E0
05284:  MOVLB  5
05286:  DECFSZ xE5,F
05288:  BRA    527A
0528A:  CLRF   x09
0528C:  CLRF   x0A
0528E:  CLRF   x0B
05290:  CLRF   x0C
05292:  CLRF   xE5
05294:  MOVLB  0
05296:  CALL   15C0
....................             glcd_rect(0, 0, 127, 25, YES, ON);strcpy(Menus.Letra,"Clave");glcd_text57(25, 1, Menus.Letra, 3, OFF);displayContrasena(Contrasena[0],20,30,1); 
0529A:  MOVLB  5
0529C:  CLRF   xF6
0529E:  CLRF   xF7
052A0:  MOVLW  7F
052A2:  MOVWF  xF8
052A4:  MOVLW  19
052A6:  MOVWF  xF9
052A8:  MOVLW  01
052AA:  MOVWF  xFA
052AC:  MOVWF  xFB
052AE:  MOVLB  0
052B0:  CALL   4880
052B4:  MOVLW  04
052B6:  MOVWF  FEA
052B8:  MOVLW  16
052BA:  MOVWF  FE9
052BC:  MOVFF  FF2,5E5
052C0:  BCF    FF2.7
052C2:  MOVLW  00
052C4:  CALL   0EEE
052C8:  TBLRD*-
052CA:  TBLRD*+
052CC:  MOVF   FF5,W
052CE:  MOVWF  FEE
052D0:  IORLW  00
052D2:  BNZ   52CA
052D4:  MOVLB  5
052D6:  BTFSC  xE5.7
052D8:  BSF    FF2.7
052DA:  MOVLW  19
052DC:  MOVWF  xF6
052DE:  MOVLW  01
052E0:  MOVWF  xF7
052E2:  MOVLW  04
052E4:  MOVWF  xF9
052E6:  MOVLW  16
052E8:  MOVWF  xF8
052EA:  MOVLW  03
052EC:  MOVWF  xFA
052EE:  CLRF   xFB
052F0:  MOVLB  0
052F2:  CALL   4948
052F6:  MOVFF  509,5E7
052FA:  MOVLW  14
052FC:  MOVLB  5
052FE:  MOVWF  xE8
05300:  MOVLW  1E
05302:  MOVWF  xE9
05304:  MOVLW  01
05306:  MOVWF  xEA
05308:  MOVLB  0
0530A:  CALL   4B0A
....................             displayContrasena(Contrasena[1],40,30,0);displayContrasena(Contrasena[2],60,30,0);displayContrasena(Contrasena[0],80,30,0); 
0530E:  MOVFF  50A,5E7
05312:  MOVLW  28
05314:  MOVLB  5
05316:  MOVWF  xE8
05318:  MOVLW  1E
0531A:  MOVWF  xE9
0531C:  CLRF   xEA
0531E:  MOVLB  0
05320:  CALL   4B0A
05324:  MOVFF  50B,5E7
05328:  MOVLW  3C
0532A:  MOVLB  5
0532C:  MOVWF  xE8
0532E:  MOVLW  1E
05330:  MOVWF  xE9
05332:  CLRF   xEA
05334:  MOVLB  0
05336:  CALL   4B0A
0533A:  MOVFF  509,5E7
0533E:  MOVLW  50
05340:  MOVLB  5
05342:  MOVWF  xE8
05344:  MOVLW  1E
05346:  MOVWF  xE9
05348:  CLRF   xEA
0534A:  MOVLB  0
0534C:  CALL   4B0A
....................             Menu=MenuAnt;glcd_fillScreen(OFF);n=0; 
05350:  MOVFF  5DE,4C7
05354:  MOVLB  5
05356:  CLRF   xE5
05358:  MOVLB  0
0535A:  CALL   15C0
0535E:  MOVLB  4
05360:  BCF    x2E.3
....................             return 0; 
05362:  MOVLW  00
05364:  MOVWF  01
05366:  MOVLB  0
05368:  BRA    536A
0536A:  MOVLB  4
....................          } 
....................       } 
.................... } 
0536C:  MOVLB  0
0536E:  RETLW  00
....................  
....................  
.................... #int_EXT            // Interrupcin de encoder para control. 
.................... void ext0() {       // 6 pulsos por vuelta. 
....................       if(UP) 
*
01396:  BSF    F92.5
01398:  BTFSC  F80.5
0139A:  BRA    13A6
....................          tup++; 
0139C:  MOVLB  4
0139E:  INCF   xE3,F
013A0:  BTFSC  FD8.2
013A2:  INCF   xE4,F
....................       else 
013A4:  BRA    13AC
....................          tup=0; 
013A6:  MOVLB  4
013A8:  CLRF   xE4
013AA:  CLRF   xE3
....................           
....................       if(DOWN) 
013AC:  BSF    F96.0
013AE:  BTFSC  F84.0
013B0:  BRA    13BA
....................          tdown++; 
013B2:  INCF   xE5,F
013B4:  BTFSC  FD8.2
013B6:  INCF   xE6,F
....................       else 
013B8:  BRA    13BE
....................          tdown=0; 
013BA:  CLRF   xE6
013BC:  CLRF   xE5
....................           
....................       if(RIGHT) 
013BE:  BSF    F96.1
013C0:  BTFSC  F84.1
013C2:  BRA    13CC
....................          tright++; 
013C4:  INCF   xE7,F
013C6:  BTFSC  FD8.2
013C8:  INCF   xE8,F
....................       else 
013CA:  BRA    13D0
....................          tright=0; 
013CC:  CLRF   xE8
013CE:  CLRF   xE7
....................        
....................       if(LEFT) 
013D0:  BSF    F96.2
013D2:  BTFSC  F84.2
013D4:  BRA    13DE
....................          tleft++; 
013D6:  INCF   xE9,F
013D8:  BTFSC  FD8.2
013DA:  INCF   xEA,F
....................       else 
013DC:  BRA    13E2
....................          tleft=0; 
013DE:  CLRF   xEA
013E0:  CLRF   xE9
....................           
....................    pulsos++; 
013E2:  MOVLB  5
013E4:  INCF   xC9,F
013E6:  BTFSC  FD8.2
013E8:  INCF   xCA,F
....................    if(pulsos>=120){ 
013EA:  MOVF   xCA,F
013EC:  BNZ   13F4
013EE:  MOVF   xC9,W
013F0:  SUBLW  77
013F2:  BC    1488
....................       pulsos=0; 
013F4:  CLRF   xCA
013F6:  CLRF   xC9
....................       imprimir=1;Lectura=1;tiemporeset++; 
013F8:  MOVLB  4
013FA:  BSF    x2C.6
013FC:  BSF    x2E.2
013FE:  INCF   xCD,F
....................     
....................       if(flag_blower==1) 
01400:  BTFSS  x2C.7
01402:  BRA    140A
....................          minutos_trabajo++;  
01404:  INCF   xDF,F
01406:  BTFSC  FD8.2
01408:  INCF   xE0,F
....................    
....................       if(tiempo_purga==1 || Purga){                   
0140A:  BTFSC  x2D.5
0140C:  BRA    1412
0140E:  BTFSS  x2E.5
01410:  BRA    144A
....................          Tpurga[0]++; 
01412:  INCF   xED,F
....................          if(Tpurga[0]>9){ 
01414:  BTFSC  xED.7
01416:  BRA    1422
01418:  MOVF   xED,W
0141A:  SUBLW  09
0141C:  BC    1422
....................             Tpurga[0]=0; 
0141E:  CLRF   xED
....................             Tpurga[1]++; 
01420:  INCF   xEE,F
....................          } 
....................          if(Tpurga[1]>5){ 
01422:  BTFSC  xEE.7
01424:  BRA    1430
01426:  MOVF   xEE,W
01428:  SUBLW  05
0142A:  BC    1430
....................             Tpurga[1]=0; 
0142C:  CLRF   xEE
....................             Tpurga[2]++; 
0142E:  INCF   xEF,F
....................          } 
....................          if(Tpurga[2]>9){ 
01430:  BTFSC  xEF.7
01432:  BRA    143E
01434:  MOVF   xEF,W
01436:  SUBLW  09
01438:  BC    143E
....................             Tpurga[2]=0; 
0143A:  CLRF   xEF
....................             Tpurga[3]++; 
0143C:  INCF   xF0,F
....................          } 
....................          if(Tpurga[3]>5){ 
0143E:  BTFSC  xF0.7
01440:  BRA    144A
01442:  MOVF   xF0,W
01444:  SUBLW  05
01446:  BC    144A
....................             Tpurga[3]=0; 
01448:  CLRF   xF0
....................          } 
....................       } 
....................        
....................       if(tiempo_postpurga){ 
0144A:  BTFSS  x2E.0
0144C:  BRA    1486
....................          Tppurga[0]++; 
0144E:  INCF   xF5,F
....................          if(Tppurga[0]>9){ 
01450:  BTFSC  xF5.7
01452:  BRA    145E
01454:  MOVF   xF5,W
01456:  SUBLW  09
01458:  BC    145E
....................             Tppurga[0]=0; 
0145A:  CLRF   xF5
....................             Tppurga[1]++; 
0145C:  INCF   xF6,F
....................          } 
....................          if(Tppurga[1]>5){   
0145E:  BTFSC  xF6.7
01460:  BRA    146C
01462:  MOVF   xF6,W
01464:  SUBLW  05
01466:  BC    146C
....................             Tppurga[1]=0; 
01468:  CLRF   xF6
....................             Tppurga[2]++; 
0146A:  INCF   xF7,F
....................          } 
....................          if(Tppurga[2]>9){ 
0146C:  BTFSC  xF7.7
0146E:  BRA    147A
01470:  MOVF   xF7,W
01472:  SUBLW  09
01474:  BC    147A
....................             Tppurga[2]=0; 
01476:  CLRF   xF7
....................             Tppurga[3]++; 
01478:  INCF   xF8,F
....................          } 
....................          if(Tppurga[3]>5){ 
0147A:  BTFSC  xF8.7
0147C:  BRA    1486
0147E:  MOVF   xF8,W
01480:  SUBLW  05
01482:  BC    1486
....................             Tppurga[3]=0; 
01484:  CLRF   xF8
01486:  MOVLB  5
....................          } 
....................       } 
....................    } 
....................    tiempocruce=0; 
01488:  CLRF   xD2
0148A:  CLRF   xD1
....................    Cruce=ON; 
0148C:  MOVLB  4
0148E:  BSF    x2E.4
....................    if(VelMotor<6){ 
01490:  MOVLB  5
01492:  MOVF   xD4,W
01494:  SUBLW  05
01496:  BNC   14D8
....................       if(VelMotor>0 && Porcentaje<100){ 
01498:  MOVF   xD4,F
0149A:  BZ    14D4
0149C:  MOVF   xD3,W
0149E:  SUBLW  63
014A0:  BNC   14D4
....................          delay_us(retardo);       
014A2:  MOVFF  5CC,625
014A6:  MOVLB  6
014A8:  INCF   x25,F
014AA:  DECF   x25,F
014AC:  BTFSC  FD8.2
014AE:  BRA    14BC
014B0:  MOVLW  FF
014B2:  MOVWF  x26
014B4:  MOVLB  0
014B6:  RCALL  1376
014B8:  MOVLB  6
014BA:  BRA    14AA
014BC:  MOVFF  5CB,626
014C0:  MOVLB  0
014C2:  RCALL  1376
....................          Motor_on; 
014C4:  BSF    F8B.2
014C6:  BCF    F94.2
....................          delay_us(100);       
014C8:  MOVLW  A6
014CA:  MOVWF  00
014CC:  DECFSZ 00,F
014CE:  BRA    14CC
014D0:  NOP   
014D2:  MOVLB  5
....................       } 
....................       Motor_off; 
014D4:  BCF    F8B.2
014D6:  BCF    F94.2
....................    } 
.................... } 
....................  
014D8:  BCF    FF2.1
014DA:  MOVLB  0
014DC:  GOTO   0054
.................... void glcd_imagen(int8 x) 
.................... { 
....................    char i,j; 
....................    signed char k;  
....................       
....................    if(x==3){ 
*
0546C:  MOVLB  5
0546E:  MOVF   xDD,W
05470:  SUBLW  03
05472:  BNZ   551A
....................    for( i = 0 ; i < 64 ; i ++ ) 
05474:  CLRF   xDE
05476:  MOVF   xDE,W
05478:  SUBLW  3F
0547A:  BNC   551A
....................    {  for( j = 0 ; j < 16 ; j ++) 
0547C:  CLRF   xDF
0547E:  MOVF   xDF,W
05480:  SUBLW  0F
05482:  BNC   5516
....................       {  for(k=7;k>-1;k--) 
05484:  MOVLW  07
05486:  MOVWF  xE0
05488:  MOVF   xE0,W
0548A:  XORLW  80
0548C:  SUBLW  7F
0548E:  BC    5512
....................          {       
....................             if( bit_test(Bombillo[i][j] ,7-k ))  
05490:  CLRF   xE2
05492:  MOVFF  5DE,5E1
05496:  CLRF   xE4
05498:  MOVLW  10
0549A:  MOVWF  xE3
0549C:  MOVLB  0
0549E:  RCALL  544A
054A0:  MOVFF  02,5E2
054A4:  MOVFF  01,5E1
054A8:  MOVLB  5
054AA:  MOVF   xDF,W
054AC:  ADDWF  01,W
054AE:  MOVWF  01
054B0:  MOVLW  00
054B2:  ADDWFC 02,W
054B4:  MOVWF  03
054B6:  MOVF   01,W
054B8:  MOVFF  FF2,5E1
054BC:  BCF    FF2.7
054BE:  MOVFF  03,FF7
054C2:  MOVLB  0
054C4:  CALL   02A6
054C8:  MOVLB  5
054CA:  BTFSC  xE1.7
054CC:  BSF    FF2.7
054CE:  MOVWF  xE1
054D0:  MOVLW  07
054D2:  BSF    FD8.0
054D4:  SUBFWB xE0,W
054D6:  MOVWF  xE2
054D8:  MOVFF  5E1,00
054DC:  MOVF   xE2,W
054DE:  MOVWF  01
054E0:  BZ    54EA
054E2:  BCF    FD8.0
054E4:  RRCF   00,F
054E6:  DECFSZ 01,F
054E8:  BRA    54E2
054EA:  BTFSS  00.0
054EC:  BRA    550E
....................                glcd_pixel( j*8+k,i, ON ); 
054EE:  MOVF   xDF,W
054F0:  MULLW  08
054F2:  MOVF   FF3,W
054F4:  ADDWF  xE0,W
054F6:  MOVWF  xE1
054F8:  MOVFF  FE8,611
054FC:  MOVFF  5DE,612
05500:  MOVLW  01
05502:  MOVLB  6
05504:  MOVWF  x13
05506:  MOVLB  0
05508:  CALL   4686
0550C:  MOVLB  5
....................          }   
0550E:  DECF   xE0,F
05510:  BRA    5488
....................       } 
05512:  INCF   xDF,F
05514:  BRA    547E
....................    } 
05516:  INCF   xDE,F
05518:  BRA    5476
....................    } 
....................     
....................    if(x==4){ 
0551A:  MOVF   xDD,W
0551C:  SUBLW  04
0551E:  BNZ   55C6
....................    for( i = 0 ; i < 64 ; i ++ ) 
05520:  CLRF   xDE
05522:  MOVF   xDE,W
05524:  SUBLW  3F
05526:  BNC   55C6
....................    {  for( j = 0 ; j < 16 ; j ++) 
05528:  CLRF   xDF
0552A:  MOVF   xDF,W
0552C:  SUBLW  0F
0552E:  BNC   55C2
....................       {  for(k=7;k>-1;k--) 
05530:  MOVLW  07
05532:  MOVWF  xE0
05534:  MOVF   xE0,W
05536:  XORLW  80
05538:  SUBLW  7F
0553A:  BC    55BE
....................          {       
....................             if( bit_test(Tomai[i][j] ,7-k ))  
0553C:  CLRF   xE2
0553E:  MOVFF  5DE,5E1
05542:  CLRF   xE4
05544:  MOVLW  10
05546:  MOVWF  xE3
05548:  MOVLB  0
0554A:  RCALL  544A
0554C:  MOVFF  02,5E2
05550:  MOVFF  01,5E1
05554:  MOVLB  5
05556:  MOVF   xDF,W
05558:  ADDWF  01,W
0555A:  MOVWF  01
0555C:  MOVLW  00
0555E:  ADDWFC 02,W
05560:  MOVWF  03
05562:  MOVF   01,W
05564:  MOVFF  FF2,5E1
05568:  BCF    FF2.7
0556A:  MOVFF  03,FF7
0556E:  MOVLB  0
05570:  CALL   06BE
05574:  MOVLB  5
05576:  BTFSC  xE1.7
05578:  BSF    FF2.7
0557A:  MOVWF  xE1
0557C:  MOVLW  07
0557E:  BSF    FD8.0
05580:  SUBFWB xE0,W
05582:  MOVWF  xE2
05584:  MOVFF  5E1,00
05588:  MOVF   xE2,W
0558A:  MOVWF  01
0558C:  BZ    5596
0558E:  BCF    FD8.0
05590:  RRCF   00,F
05592:  DECFSZ 01,F
05594:  BRA    558E
05596:  BTFSS  00.0
05598:  BRA    55BA
....................                glcd_pixel( j*8+k,i, ON ); 
0559A:  MOVF   xDF,W
0559C:  MULLW  08
0559E:  MOVF   FF3,W
055A0:  ADDWF  xE0,W
055A2:  MOVWF  xE1
055A4:  MOVFF  FE8,611
055A8:  MOVFF  5DE,612
055AC:  MOVLW  01
055AE:  MOVLB  6
055B0:  MOVWF  x13
055B2:  MOVLB  0
055B4:  CALL   4686
055B8:  MOVLB  5
....................          }   
055BA:  DECF   xE0,F
055BC:  BRA    5534
....................       } 
055BE:  INCF   xDF,F
055C0:  BRA    552A
....................    } 
055C2:  INCF   xDE,F
055C4:  BRA    5522
....................    } 
....................     
....................    if(x==5){ 
055C6:  MOVF   xDD,W
055C8:  SUBLW  05
055CA:  BNZ   5672
....................    for( i = 0 ; i < 64 ; i ++ ) 
055CC:  CLRF   xDE
055CE:  MOVF   xDE,W
055D0:  SUBLW  3F
055D2:  BNC   5672
....................    {  for( j = 0 ; j < 16 ; j ++) 
055D4:  CLRF   xDF
055D6:  MOVF   xDF,W
055D8:  SUBLW  0F
055DA:  BNC   566E
....................       {  for(k=7;k>-1;k--) 
055DC:  MOVLW  07
055DE:  MOVWF  xE0
055E0:  MOVF   xE0,W
055E2:  XORLW  80
055E4:  SUBLW  7F
055E6:  BC    566A
....................          {       
....................             if( bit_test(Ventilador[i][j] ,7-k ))  
055E8:  CLRF   xE2
055EA:  MOVFF  5DE,5E1
055EE:  CLRF   xE4
055F0:  MOVLW  10
055F2:  MOVWF  xE3
055F4:  MOVLB  0
055F6:  RCALL  544A
055F8:  MOVFF  02,5E2
055FC:  MOVFF  01,5E1
05600:  MOVLB  5
05602:  MOVF   xDF,W
05604:  ADDWF  01,W
05606:  MOVWF  01
05608:  MOVLW  00
0560A:  ADDWFC 02,W
0560C:  MOVWF  03
0560E:  MOVF   01,W
05610:  MOVFF  FF2,5E1
05614:  BCF    FF2.7
05616:  MOVFF  03,FF7
0561A:  MOVLB  0
0561C:  CALL   0AD6
05620:  MOVLB  5
05622:  BTFSC  xE1.7
05624:  BSF    FF2.7
05626:  MOVWF  xE1
05628:  MOVLW  07
0562A:  BSF    FD8.0
0562C:  SUBFWB xE0,W
0562E:  MOVWF  xE2
05630:  MOVFF  5E1,00
05634:  MOVF   xE2,W
05636:  MOVWF  01
05638:  BZ    5642
0563A:  BCF    FD8.0
0563C:  RRCF   00,F
0563E:  DECFSZ 01,F
05640:  BRA    563A
05642:  BTFSS  00.0
05644:  BRA    5666
....................                glcd_pixel( j*8+k,i, ON ); 
05646:  MOVF   xDF,W
05648:  MULLW  08
0564A:  MOVF   FF3,W
0564C:  ADDWF  xE0,W
0564E:  MOVWF  xE1
05650:  MOVFF  FE8,611
05654:  MOVFF  5DE,612
05658:  MOVLW  01
0565A:  MOVLB  6
0565C:  MOVWF  x13
0565E:  MOVLB  0
05660:  CALL   4686
05664:  MOVLB  5
....................          }   
05666:  DECF   xE0,F
05668:  BRA    55E0
....................       } 
0566A:  INCF   xDF,F
0566C:  BRA    55D6
....................    } 
0566E:  INCF   xDE,F
05670:  BRA    55CE
....................    } 
.................... } 
05672:  MOVLB  0
05674:  RETLW  00
....................  
....................  
.................... Float LeerFlujoInFlow(int media) 
.................... { 
....................     InFlow_adc=sensores(1); 
*
03FBC:  MOVLW  01
03FBE:  MOVLB  5
03FC0:  MOVWF  xEE
03FC2:  MOVLB  0
03FC4:  CALL   2CF6
03FC8:  MOVFF  02,4D6
03FCC:  MOVFF  01,4D5
....................        
....................     if(negativo==10) 
03FD0:  MOVLB  4
03FD2:  MOVF   xCA,W
03FD4:  SUBLW  0A
03FD6:  BNZ   401E
....................     { 
....................       x_uno=Inflow_adc+Diferencia; 
03FD8:  MOVFF  4D6,615
03FDC:  MOVFF  4D5,614
03FE0:  MOVLB  0
03FE2:  CALL   177A
03FE6:  BCF    FD8.1
03FE8:  MOVFF  03,617
03FEC:  MOVFF  02,616
03FF0:  MOVFF  01,615
03FF4:  MOVFF  00,614
03FF8:  MOVFF  520,61B
03FFC:  MOVFF  51F,61A
04000:  MOVFF  51E,619
04004:  MOVFF  51D,618
04008:  CALL   190E
0400C:  MOVFF  03,528
04010:  MOVFF  02,527
04014:  MOVFF  01,526
04018:  MOVFF  00,525
0401C:  MOVLB  4
....................     } 
....................     if(negativo==20) 
0401E:  MOVF   xCA,W
04020:  SUBLW  14
04022:  BNZ   4068
....................     { 
....................       x_uno=Inflow_adc-Diferencia; 
04024:  MOVFF  4D6,615
04028:  MOVFF  4D5,614
0402C:  MOVLB  0
0402E:  CALL   177A
04032:  BSF    FD8.1
04034:  MOVFF  03,617
04038:  MOVFF  02,616
0403C:  MOVFF  01,615
04040:  MOVFF  00,614
04044:  MOVFF  520,61B
04048:  MOVFF  51F,61A
0404C:  MOVFF  51E,619
04050:  MOVFF  51D,618
04054:  CALL   190E
04058:  MOVFF  03,528
0405C:  MOVFF  02,527
04060:  MOVFF  01,526
04064:  MOVFF  00,525
....................     } 
....................     Velocidad=(pow(x_uno,3)*a)+(pow(x_uno,2)*b)+(x_uno*c)+(d); 
04068:  MOVFF  528,5E5
0406C:  MOVFF  527,5E4
04070:  MOVFF  526,5E3
04074:  MOVFF  525,5E2
04078:  MOVLB  5
0407A:  CLRF   xE9
0407C:  CLRF   xE8
0407E:  MOVLW  40
04080:  MOVWF  xE7
04082:  MOVLW  80
04084:  MOVWF  xE6
04086:  MOVLB  0
04088:  RCALL  3CB0
0408A:  MOVFF  00,5DE
0408E:  MOVFF  01,5DF
04092:  MOVFF  02,5E0
04096:  MOVFF  03,5E1
0409A:  MOVFF  03,613
0409E:  MOVFF  02,612
040A2:  MOVFF  01,611
040A6:  MOVFF  00,610
040AA:  MOVFF  544,617
040AE:  MOVFF  543,616
040B2:  MOVFF  542,615
040B6:  MOVFF  541,614
040BA:  CALL   2D70
040BE:  MOVFF  00,5DE
040C2:  MOVFF  01,5DF
040C6:  MOVFF  02,5E0
040CA:  MOVFF  03,5E1
040CE:  MOVFF  528,5E5
040D2:  MOVFF  527,5E4
040D6:  MOVFF  526,5E3
040DA:  MOVFF  525,5E2
040DE:  MOVLB  5
040E0:  CLRF   xE9
040E2:  CLRF   xE8
040E4:  CLRF   xE7
040E6:  MOVLW  80
040E8:  MOVWF  xE6
040EA:  MOVLB  0
040EC:  RCALL  3CB0
040EE:  MOVFF  00,5E2
040F2:  MOVFF  01,5E3
040F6:  MOVFF  02,5E4
040FA:  MOVFF  03,5E5
040FE:  MOVFF  03,613
04102:  MOVFF  02,612
04106:  MOVFF  01,611
0410A:  MOVFF  00,610
0410E:  MOVFF  548,617
04112:  MOVFF  547,616
04116:  MOVFF  546,615
0411A:  MOVFF  545,614
0411E:  CALL   2D70
04122:  MOVFF  FEA,5E3
04126:  MOVFF  FE9,5E2
0412A:  BCF    FD8.1
0412C:  MOVFF  5E1,617
04130:  MOVFF  5E0,616
04134:  MOVFF  5DF,615
04138:  MOVFF  5DE,614
0413C:  MOVFF  03,61B
04140:  MOVFF  02,61A
04144:  MOVFF  01,619
04148:  MOVFF  00,618
0414C:  CALL   190E
04150:  MOVFF  5E3,FEA
04154:  MOVFF  5E2,FE9
04158:  MOVFF  00,5DE
0415C:  MOVFF  01,5DF
04160:  MOVFF  02,5E0
04164:  MOVFF  03,5E1
04168:  MOVFF  528,613
0416C:  MOVFF  527,612
04170:  MOVFF  526,611
04174:  MOVFF  525,610
04178:  MOVFF  54C,617
0417C:  MOVFF  54B,616
04180:  MOVFF  54A,615
04184:  MOVFF  549,614
04188:  CALL   2D70
0418C:  MOVFF  FEA,5E5
04190:  MOVFF  FE9,5E4
04194:  BCF    FD8.1
04196:  MOVFF  5E1,617
0419A:  MOVFF  5E0,616
0419E:  MOVFF  5DF,615
041A2:  MOVFF  5DE,614
041A6:  MOVFF  03,61B
041AA:  MOVFF  02,61A
041AE:  MOVFF  01,619
041B2:  MOVFF  00,618
041B6:  CALL   190E
041BA:  MOVFF  5E5,FEA
041BE:  MOVFF  5E4,FE9
041C2:  MOVFF  00,5DE
041C6:  MOVFF  01,5DF
041CA:  MOVFF  02,5E0
041CE:  MOVFF  03,5E1
041D2:  MOVFF  FEA,5E7
041D6:  MOVFF  FE9,5E6
041DA:  BCF    FD8.1
041DC:  MOVFF  03,617
041E0:  MOVFF  02,616
041E4:  MOVFF  01,615
041E8:  MOVFF  00,614
041EC:  MOVFF  550,61B
041F0:  MOVFF  54F,61A
041F4:  MOVFF  54E,619
041F8:  MOVFF  54D,618
041FC:  CALL   190E
04200:  MOVFF  5E7,FEA
04204:  MOVFF  5E6,FE9
04208:  MOVFF  03,524
0420C:  MOVFF  02,523
04210:  MOVFF  01,522
04214:  MOVFF  00,521
....................     //Velocidad=Velocidad*correccion;//Ajuste de Temperatura 
....................      
....................     if(Velocidad<0.0) 
04218:  MOVFF  524,613
0421C:  MOVFF  523,612
04220:  MOVFF  522,611
04224:  MOVFF  521,610
04228:  MOVLB  6
0422A:  CLRF   x17
0422C:  CLRF   x16
0422E:  CLRF   x15
04230:  CLRF   x14
04232:  MOVLB  0
04234:  CALL   22EC
04238:  BNC   4244
....................      {Velocidad=0.0;} 
0423A:  MOVLB  5
0423C:  CLRF   x24
0423E:  CLRF   x23
04240:  CLRF   x22
04242:  CLRF   x21
....................       
....................      if(l>=media) 
04244:  MOVLB  5
04246:  MOVF   xDD,W
04248:  MOVLB  4
0424A:  SUBWF  xD0,W
0424C:  BNC   4250
....................        {l=0;} 
0424E:  CLRF   xD0
....................       
....................      promedio[l]=Velocidad;l++; 
04250:  MOVF   xD0,W
04252:  MULLW  04
04254:  MOVF   FF3,W
04256:  CLRF   03
04258:  ADDLW  51
0425A:  MOVWF  FE9
0425C:  MOVLW  05
0425E:  ADDWFC 03,W
04260:  MOVWF  FEA
04262:  MOVFF  521,FEF
04266:  MOVFF  522,FEC
0426A:  MOVFF  523,FEC
0426E:  MOVFF  524,FEC
04272:  INCF   xD0,F
....................      Flujo=0; 
04274:  MOVLB  5
04276:  CLRF   xB4
04278:  CLRF   xB3
0427A:  CLRF   xB2
0427C:  CLRF   xB1
....................         for(h=0;h<=(media-1);h++) 
0427E:  MOVLB  4
04280:  CLRF   xD1
04282:  MOVLW  01
04284:  MOVLB  5
04286:  SUBWF  xDD,W
04288:  MOVLB  4
0428A:  SUBWF  xD1,W
0428C:  BZ    4290
0428E:  BC    4300
....................         { 
....................            Flujo+=promedio[h]; 
04290:  MOVF   xD1,W
04292:  MULLW  04
04294:  MOVF   FF3,W
04296:  CLRF   03
04298:  ADDLW  51
0429A:  MOVWF  FE9
0429C:  MOVLW  05
0429E:  ADDWFC 03,W
042A0:  MOVWF  FEA
042A2:  MOVFF  FEF,00
042A6:  MOVFF  FEC,01
042AA:  MOVFF  FEC,02
042AE:  MOVFF  FEC,03
042B2:  MOVFF  FEA,5DF
042B6:  MOVFF  FE9,5DE
042BA:  BCF    FD8.1
042BC:  MOVFF  5B4,617
042C0:  MOVFF  5B3,616
042C4:  MOVFF  5B2,615
042C8:  MOVFF  5B1,614
042CC:  MOVFF  03,61B
042D0:  MOVFF  02,61A
042D4:  MOVFF  01,619
042D8:  MOVFF  00,618
042DC:  MOVLB  0
042DE:  CALL   190E
042E2:  MOVFF  5DF,FEA
042E6:  MOVFF  5DE,FE9
042EA:  MOVFF  03,5B4
042EE:  MOVFF  02,5B3
042F2:  MOVFF  01,5B2
042F6:  MOVFF  00,5B1
....................         }  
042FA:  MOVLB  4
042FC:  INCF   xD1,F
042FE:  BRA    4282
....................            Flujo=(Flujo/media)*Ajuste1;  
04300:  MOVLB  6
04302:  CLRF   x15
04304:  MOVFF  5DD,614
04308:  MOVLB  0
0430A:  CALL   177A
0430E:  MOVFF  5B4,613
04312:  MOVFF  5B3,612
04316:  MOVFF  5B2,611
0431A:  MOVFF  5B1,610
0431E:  MOVFF  03,617
04322:  MOVFF  02,616
04326:  MOVFF  01,615
0432A:  MOVFF  00,614
0432E:  CALL   17B0
04332:  MOVFF  00,5DE
04336:  MOVFF  01,5DF
0433A:  MOVFF  02,5E0
0433E:  MOVFF  03,5E1
04342:  MOVFF  03,613
04346:  MOVFF  02,612
0434A:  MOVFF  01,611
0434E:  MOVFF  00,610
04352:  MOVFF  534,617
04356:  MOVFF  533,616
0435A:  MOVFF  532,615
0435E:  MOVFF  531,614
04362:  CALL   2D70
04366:  MOVFF  03,5B4
0436A:  MOVFF  02,5B3
0436E:  MOVFF  01,5B2
04372:  MOVFF  00,5B1
....................            return Flujo; 
04376:  MOVFF  5B1,00
0437A:  MOVFF  5B2,01
0437E:  MOVFF  5B3,02
04382:  MOVFF  5B4,03
.................... } 
04386:  GOTO   5FA6 (RETURN)
....................  
.................... void main(){ 
*
05A00:  CLRF   FF8
05A02:  BCF    FD0.7
05A04:  BSF    07.7
05A06:  CLRF   FEA
05A08:  CLRF   FE9
05A0A:  MOVLB  4
05A0C:  BCF    x2C.0
05A0E:  BCF    x2C.1
05A10:  BCF    x2C.2
05A12:  BCF    x2C.3
05A14:  BCF    x2C.4
05A16:  BCF    x2C.5
05A18:  BCF    x2C.6
05A1A:  BCF    x2C.7
05A1C:  BCF    x2D.0
05A1E:  BCF    x2D.1
05A20:  BCF    x2D.2
05A22:  BCF    x2D.3
05A24:  BCF    x2D.4
05A26:  BCF    x2D.5
05A28:  BCF    x2D.6
05A2A:  BCF    x2D.7
05A2C:  BCF    x2E.0
05A2E:  BCF    x2E.1
05A30:  BCF    x2E.2
05A32:  BCF    x2E.3
05A34:  MOVLW  C8
05A36:  MOVWF  xC7
05A38:  MOVLW  01
05A3A:  MOVWF  xC8
05A3C:  MOVWF  xC9
05A3E:  MOVLW  0A
05A40:  MOVWF  xCA
05A42:  CLRF   xCB
05A44:  CLRF   xCC
05A46:  CLRF   xCD
05A48:  CLRF   xCE
05A4A:  CLRF   xCF
05A4C:  CLRF   xD0
05A4E:  CLRF   xD1
05A50:  CLRF   xD2
05A52:  CLRF   xD3
05A54:  MOVWF  xD4
05A56:  CLRF   xD6
05A58:  CLRF   xD5
05A5A:  CLRF   xD8
05A5C:  CLRF   xD7
05A5E:  CLRF   xDA
05A60:  CLRF   xD9
05A62:  CLRF   xDC
05A64:  CLRF   xDB
05A66:  CLRF   xDE
05A68:  CLRF   xDD
05A6A:  CLRF   xE0
05A6C:  CLRF   xDF
05A6E:  CLRF   xE2
05A70:  CLRF   xE1
05A72:  CLRF   xE4
05A74:  CLRF   xE3
05A76:  CLRF   xE6
05A78:  CLRF   xE5
05A7A:  CLRF   xE8
05A7C:  CLRF   xE7
05A7E:  CLRF   xEA
05A80:  CLRF   xE9
05A82:  CLRF   xEC
05A84:  CLRF   xEB
05A86:  MOVLB  5
05A88:  CLRF   x14
05A8A:  CLRF   x13
05A8C:  CLRF   x12
05A8E:  CLRF   x11
05A90:  CLRF   x18
05A92:  CLRF   x17
05A94:  CLRF   x16
05A96:  CLRF   x15
05A98:  CLRF   x1C
05A9A:  CLRF   x1B
05A9C:  CLRF   x1A
05A9E:  CLRF   x19
05AA0:  CLRF   x20
05AA2:  CLRF   x1F
05AA4:  CLRF   x1E
05AA6:  CLRF   x1D
05AA8:  CLRF   x24
05AAA:  CLRF   x23
05AAC:  CLRF   x22
05AAE:  CLRF   x21
05AB0:  CLRF   x28
05AB2:  CLRF   x27
05AB4:  CLRF   x26
05AB6:  CLRF   x25
05AB8:  CLRF   x2C
05ABA:  CLRF   x2B
05ABC:  CLRF   x2A
05ABE:  CLRF   x29
05AC0:  CLRF   x30
05AC2:  CLRF   x2F
05AC4:  CLRF   x2E
05AC6:  CLRF   x2D
05AC8:  CLRF   x34
05ACA:  CLRF   x33
05ACC:  CLRF   x32
05ACE:  CLRF   x31
05AD0:  CLRF   x38
05AD2:  CLRF   x37
05AD4:  CLRF   x36
05AD6:  CLRF   x35
05AD8:  CLRF   x3C
05ADA:  CLRF   x3B
05ADC:  CLRF   x3A
05ADE:  CLRF   x39
05AE0:  CLRF   x40
05AE2:  CLRF   x3F
05AE4:  CLRF   x3E
05AE6:  CLRF   x3D
05AE8:  MOVLW  29
05AEA:  MOVWF  x44
05AEC:  MOVLW  B6
05AEE:  MOVWF  x43
05AF0:  MOVLW  20
05AF2:  MOVWF  x42
05AF4:  MOVLW  6E
05AF6:  MOVWF  x41
05AF8:  MOVLW  EE
05AFA:  MOVWF  x48
05AFC:  MOVLW  7D
05AFE:  MOVWF  x47
05B00:  MOVLW  EE
05B02:  MOVWF  x46
05B04:  MOVLW  77
05B06:  MOVWF  x45
05B08:  MOVLW  ED
05B0A:  MOVWF  x4C
05B0C:  MOVLW  47
05B0E:  MOVWF  x4B
05B10:  MOVLW  6D
05B12:  MOVWF  x4A
05B14:  MOVLW  7F
05B16:  MOVWF  x49
05B18:  MOVLW  1A
05B1A:  MOVWF  x50
05B1C:  MOVLW  D1
05B1E:  MOVWF  x4F
05B20:  MOVLW  9C
05B22:  MOVWF  x4E
05B24:  MOVLW  86
05B26:  MOVWF  x4D
05B28:  CLRF   xB4
05B2A:  CLRF   xB3
05B2C:  CLRF   xB2
05B2E:  CLRF   xB1
05B30:  CLRF   xB8
05B32:  CLRF   xB7
05B34:  MOVLW  50
05B36:  MOVWF  xB6
05B38:  MOVLW  86
05B3A:  MOVWF  xB5
05B3C:  CLRF   xBC
05B3E:  CLRF   xBB
05B40:  CLRF   xBA
05B42:  CLRF   xB9
05B44:  CLRF   xC0
05B46:  CLRF   xBF
05B48:  CLRF   xBE
05B4A:  CLRF   xBD
05B4C:  CLRF   xC4
05B4E:  CLRF   xC3
05B50:  CLRF   xC2
05B52:  CLRF   xC1
05B54:  CLRF   xC8
05B56:  CLRF   xC7
05B58:  CLRF   xC6
05B5A:  MOVLW  80
05B5C:  MOVWF  xC5
05B5E:  CLRF   xCA
05B60:  CLRF   xC9
05B62:  CLRF   xCC
05B64:  CLRF   xCB
05B66:  CLRF   xCD
05B68:  CLRF   xCE
05B6A:  CLRF   xCF
05B6C:  CLRF   xD0
05B6E:  MOVLB  4
05B70:  BCF    x2E.4
05B72:  BCF    x2E.5
05B74:  MOVLB  5
05B76:  CLRF   xD2
05B78:  CLRF   xD1
05B7A:  CLRF   xD3
05B7C:  CLRF   xD4
05B7E:  CLRF   xD8
05B80:  CLRF   xD7
05B82:  CLRF   xD6
05B84:  CLRF   xD5
05B86:  CLRF   xDC
05B88:  CLRF   xDB
05B8A:  CLRF   xDA
05B8C:  CLRF   xD9
05B8E:  MOVF   FC1,W
05B90:  ANDLW  C0
05B92:  IORLW  0F
05B94:  MOVWF  FC1
05B96:  MOVLW  07
05B98:  MOVWF  FB4
05B9A:  MOVLB  4
05B9C:  CLRF   x2A
05B9E:  CLRF   x2B
05BA0:  MOVLW  4A
05BA2:  MOVWF  x2F
05BA4:  MOVLW  50
05BA6:  MOVWF  x30
05BA8:  MOVLW  20
05BAA:  MOVWF  x31
05BAC:  MOVLW  49
05BAE:  MOVWF  x32
05BB0:  MOVLW  6E
05BB2:  MOVWF  x33
05BB4:  MOVLW  67
05BB6:  MOVWF  x34
05BB8:  MOVLW  6C
05BBA:  MOVWF  x35
05BBC:  MOVLW  6F
05BBE:  MOVWF  x36
05BC0:  MOVLW  62
05BC2:  MOVWF  x37
05BC4:  MOVLW  61
05BC6:  MOVWF  x38
05BC8:  MOVLW  6C
05BCA:  MOVWF  x39
05BCC:  CLRF   x3A
05BCE:  MOVLW  43
05BD0:  MOVWF  x3B
05BD2:  MOVLW  61
05BD4:  MOVWF  x3C
05BD6:  MOVLW  62
05BD8:  MOVWF  x3D
05BDA:  MOVLW  69
05BDC:  MOVWF  x3E
05BDE:  MOVLW  6E
05BE0:  MOVWF  x3F
05BE2:  MOVLW  61
05BE4:  MOVWF  x40
05BE6:  MOVLW  20
05BE8:  MOVWF  x41
05BEA:  MOVLW  45
05BEC:  MOVWF  x42
05BEE:  MOVLW  78
05BF0:  MOVWF  x43
05BF2:  MOVLW  74
05BF4:  MOVWF  x44
05BF6:  MOVLW  72
05BF8:  MOVWF  x45
05BFA:  MOVLW  61
05BFC:  MOVWF  x46
05BFE:  MOVLW  63
05C00:  MOVWF  x47
05C02:  MOVLW  74
05C04:  MOVWF  x48
05C06:  MOVLW  6F
05C08:  MOVWF  x49
05C0A:  MOVLW  72
05C0C:  MOVWF  x4A
05C0E:  MOVLW  61
05C10:  MOVWF  x4B
05C12:  CLRF   x4C
05C14:  MOVLW  3A
05C16:  MOVWF  x4D
05C18:  CLRF   x4E
05C1A:  MOVLW  55
05C1C:  MOVWF  x4F
05C1E:  MOVLW  56
05C20:  MOVWF  x50
05C22:  CLRF   x51
05C24:  MOVLW  53
05C26:  MOVWF  x52
05C28:  MOVLW  69
05C2A:  MOVWF  x53
05C2C:  MOVLW  6E
05C2E:  MOVWF  x54
05C30:  MOVLW  20
05C32:  MOVWF  x55
05C34:  MOVLW  44
05C36:  MOVWF  x56
05C38:  MOVLW  75
05C3A:  MOVWF  x57
05C3C:  MOVLW  63
05C3E:  MOVWF  x58
05C40:  MOVLW  74
05C42:  MOVWF  x59
05C44:  MOVLW  6F
05C46:  MOVWF  x5A
05C48:  MOVLW  73
05C4A:  MOVWF  x5B
05C4C:  CLRF   x5C
05C4E:  MOVLW  54
05C50:  MOVWF  x5D
05C52:  MOVLW  69
05C54:  MOVWF  x5E
05C56:  MOVLW  65
05C58:  MOVWF  x5F
05C5A:  MOVLW  6D
05C5C:  MOVWF  x60
05C5E:  MOVLW  70
05C60:  MOVWF  x61
05C62:  MOVLW  6F
05C64:  MOVWF  x62
05C66:  MOVLW  20
05C68:  MOVWF  x63
05C6A:  MOVLW  64
05C6C:  MOVWF  x64
05C6E:  MOVLW  65
05C70:  MOVWF  x65
05C72:  MOVLW  20
05C74:  MOVWF  x66
05C76:  MOVLW  50
05C78:  MOVWF  x67
05C7A:  MOVLW  75
05C7C:  MOVWF  x68
05C7E:  MOVLW  72
05C80:  MOVWF  x69
05C82:  MOVLW  67
05C84:  MOVWF  x6A
05C86:  MOVLW  61
05C88:  MOVWF  x6B
05C8A:  CLRF   x6C
05C8C:  MOVLW  56
05C8E:  MOVWF  x6D
05C90:  MOVLW  65
05C92:  MOVWF  x6E
05C94:  MOVLW  6C
05C96:  MOVWF  x6F
05C98:  MOVLW  3A
05C9A:  MOVWF  x70
05C9C:  CLRF   x71
05C9E:  MOVLW  54
05CA0:  MOVWF  x72
05CA2:  MOVLW  65
05CA4:  MOVWF  x73
05CA6:  MOVLW  6D
05CA8:  MOVWF  x74
05CAA:  MOVLW  70
05CAC:  MOVWF  x75
05CAE:  MOVLW  65
05CB0:  MOVWF  x76
05CB2:  MOVLW  72
05CB4:  MOVWF  x77
05CB6:  MOVLW  61
05CB8:  MOVWF  x78
05CBA:  MOVLW  74
05CBC:  MOVWF  x79
05CBE:  MOVLW  75
05CC0:  MOVWF  x7A
05CC2:  MOVLW  72
05CC4:  MOVWF  x7B
05CC6:  MOVLW  61
05CC8:  MOVWF  x7C
05CCA:  CLRF   x7D
05CCC:  MOVLW  46
05CCE:  MOVWF  x7E
05CD0:  MOVLW  61
05CD2:  MOVWF  x7F
05CD4:  MOVLW  62
05CD6:  MOVWF  x80
05CD8:  MOVLW  72
05CDA:  MOVWF  x81
05CDC:  MOVLW  69
05CDE:  MOVWF  x82
05CE0:  MOVLW  63
05CE2:  MOVWF  x83
05CE4:  MOVLW  61
05CE6:  MOVWF  x84
05CE8:  MOVLW  3A
05CEA:  MOVWF  x85
05CEC:  MOVLW  32
05CEE:  MOVWF  x86
05CF0:  MOVLW  30
05CF2:  MOVWF  x87
05CF4:  MOVLW  38
05CF6:  MOVWF  x88
05CF8:  MOVLW  2E
05CFA:  MOVWF  x89
05CFC:  MOVLW  30
05CFE:  MOVWF  x8A
05D00:  CLRF   x8B
05D02:  MOVLW  41
05D04:  MOVWF  x8C
05D06:  MOVLW  63
05D08:  MOVWF  x8D
05D0A:  MOVLW  74
05D0C:  MOVWF  x8E
05D0E:  MOVLW  75
05D10:  MOVWF  x8F
05D12:  MOVLW  61
05D14:  MOVWF  x90
05D16:  MOVLW  6C
05D18:  MOVWF  x91
05D1A:  MOVLW  3A
05D1C:  MOVWF  x92
05D1E:  CLRF   x93
05D20:  MOVLW  41
05D22:  MOVWF  x94
05D24:  MOVLW  6A
05D26:  MOVWF  x95
05D28:  MOVLW  75
05D2A:  MOVWF  x96
05D2C:  MOVLW  73
05D2E:  MOVWF  x97
05D30:  MOVLW  74
05D32:  MOVWF  x98
05D34:  MOVLW  65
05D36:  MOVWF  x99
05D38:  MOVLW  3A
05D3A:  MOVWF  x9A
05D3C:  CLRF   x9B
05D3E:  MOVLW  54
05D40:  MOVWF  x9C
05D42:  MOVLW  2E
05D44:  MOVWF  x9D
05D46:  MOVLW  20
05D48:  MOVWF  x9E
05D4A:  MOVLW  46
05D4C:  MOVWF  x9F
05D4E:  MOVLW  69
05D50:  MOVWF  xA0
05D52:  MOVLW  6C
05D54:  MOVWF  xA1
05D56:  MOVLW  74
05D58:  MOVWF  xA2
05D5A:  MOVLW  72
05D5C:  MOVWF  xA3
05D5E:  MOVLW  6F
05D60:  MOVWF  xA4
05D62:  MOVLW  3A
05D64:  MOVWF  xA5
05D66:  CLRF   xA6
05D68:  MOVLW  46
05D6A:  MOVWF  xA7
05D6C:  MOVLW  61
05D6E:  MOVWF  xA8
05D70:  MOVLW  62
05D72:  MOVWF  xA9
05D74:  MOVLW  72
05D76:  MOVWF  xAA
05D78:  MOVLW  69
05D7A:  MOVWF  xAB
05D7C:  MOVLW  63
05D7E:  MOVWF  xAC
05D80:  MOVLW  61
05D82:  MOVWF  xAD
05D84:  MOVLW  3A
05D86:  MOVWF  xAE
05D88:  MOVLW  32
05D8A:  MOVWF  xAF
05D8C:  MOVLW  33
05D8E:  MOVWF  xB0
05D90:  MOVLW  35
05D92:  MOVWF  xB1
05D94:  MOVLW  2E
05D96:  MOVWF  xB2
05D98:  MOVLW  30
05D9A:  MOVWF  xB3
05D9C:  CLRF   xB4
05D9E:  MOVLW  21
05DA0:  MOVWF  xB5
05DA2:  MOVLW  46
05DA4:  MOVWF  xB6
05DA6:  MOVLW  69
05DA8:  MOVWF  xB7
05DAA:  MOVLW  6C
05DAC:  MOVWF  xB8
05DAE:  MOVLW  74
05DB0:  MOVWF  xB9
05DB2:  MOVLW  72
05DB4:  MOVWF  xBA
05DB6:  MOVLW  6F
05DB8:  MOVWF  xBB
05DBA:  MOVLW  20
05DBC:  MOVWF  xBC
05DBE:  MOVLW  53
05DC0:  MOVWF  xBD
05DC2:  MOVLW  61
05DC4:  MOVWF  xBE
05DC6:  MOVLW  74
05DC8:  MOVWF  xBF
05DCA:  MOVLW  75
05DCC:  MOVWF  xC0
05DCE:  MOVLW  72
05DD0:  MOVWF  xC1
05DD2:  MOVLW  61
05DD4:  MOVWF  xC2
05DD6:  MOVLW  64
05DD8:  MOVWF  xC3
05DDA:  MOVLW  6F
05DDC:  MOVWF  xC4
05DDE:  MOVLW  21
05DE0:  MOVWF  xC5
05DE2:  CLRF   xC6
05DE4:  CLRF   xED
05DE6:  CLRF   xEE
05DE8:  CLRF   xEF
05DEA:  CLRF   xF0
05DEC:  MOVLW  09
05DEE:  MOVWF  xF1
05DF0:  CLRF   xF2
05DF2:  CLRF   xF3
05DF4:  CLRF   xF4
05DF6:  CLRF   xF5
05DF8:  CLRF   xF6
05DFA:  CLRF   xF7
05DFC:  CLRF   xF8
05DFE:  MOVWF  xF9
05E00:  CLRF   xFA
05E02:  CLRF   xFB
05E04:  CLRF   xFC
05E06:  CLRF   xFD
05E08:  CLRF   xFE
05E0A:  CLRF   xFF
05E0C:  MOVLB  5
05E0E:  CLRF   x00
05E10:  CLRF   x01
05E12:  CLRF   x02
05E14:  CLRF   x03
05E16:  CLRF   x04
05E18:  CLRF   x05
05E1A:  CLRF   x06
05E1C:  CLRF   x07
05E1E:  CLRF   x08
05E20:  CLRF   x09
05E22:  CLRF   x0A
05E24:  CLRF   x0B
05E26:  CLRF   x0C
05E28:  CLRF   x0D
05E2A:  CLRF   x0E
05E2C:  CLRF   x0F
05E2E:  CLRF   x10
05E30:  CLRF   x51
05E32:  CLRF   x52
05E34:  CLRF   x53
05E36:  CLRF   x54
05E38:  CLRF   x55
05E3A:  CLRF   x56
05E3C:  CLRF   x57
05E3E:  CLRF   x58
05E40:  CLRF   x59
05E42:  CLRF   x5A
05E44:  CLRF   x5B
05E46:  CLRF   x5C
05E48:  CLRF   x5D
05E4A:  CLRF   x5E
05E4C:  CLRF   x5F
05E4E:  CLRF   x60
05E50:  CLRF   x61
05E52:  CLRF   x62
05E54:  CLRF   x63
05E56:  CLRF   x64
05E58:  CLRF   x65
05E5A:  CLRF   x66
05E5C:  CLRF   x67
05E5E:  CLRF   x68
05E60:  CLRF   x69
05E62:  CLRF   x6A
05E64:  CLRF   x6B
05E66:  CLRF   x6C
05E68:  CLRF   x6D
05E6A:  CLRF   x6E
05E6C:  CLRF   x6F
05E6E:  CLRF   x70
05E70:  CLRF   x71
05E72:  CLRF   x72
05E74:  CLRF   x73
05E76:  CLRF   x74
05E78:  CLRF   x75
05E7A:  CLRF   x76
05E7C:  CLRF   x77
05E7E:  CLRF   x78
05E80:  CLRF   x79
05E82:  CLRF   x7A
05E84:  CLRF   x7B
05E86:  CLRF   x7C
05E88:  CLRF   x7D
05E8A:  CLRF   x7E
05E8C:  CLRF   x7F
05E8E:  CLRF   x80
05E90:  CLRF   x81
05E92:  CLRF   x82
05E94:  CLRF   x83
05E96:  CLRF   x84
05E98:  CLRF   x85
05E9A:  CLRF   x86
05E9C:  CLRF   x87
05E9E:  CLRF   x88
05EA0:  CLRF   x89
05EA2:  CLRF   x8A
05EA4:  CLRF   x8B
05EA6:  CLRF   x8C
05EA8:  CLRF   x8D
05EAA:  CLRF   x8E
05EAC:  CLRF   x8F
05EAE:  CLRF   x90
05EB0:  CLRF   x91
05EB2:  CLRF   x92
05EB4:  CLRF   x93
05EB6:  CLRF   x94
05EB8:  CLRF   x95
05EBA:  CLRF   x96
05EBC:  CLRF   x97
05EBE:  CLRF   x98
05EC0:  CLRF   x99
05EC2:  CLRF   x9A
05EC4:  CLRF   x9B
05EC6:  CLRF   x9C
05EC8:  CLRF   x9D
05ECA:  CLRF   x9E
05ECC:  CLRF   x9F
05ECE:  CLRF   xA0
05ED0:  CLRF   xA1
05ED2:  CLRF   xA2
05ED4:  CLRF   xA3
05ED6:  CLRF   xA4
05ED8:  CLRF   xA5
05EDA:  CLRF   xA6
05EDC:  CLRF   xA7
05EDE:  CLRF   xA8
05EE0:  CLRF   xA9
05EE2:  CLRF   xAA
05EE4:  CLRF   xAB
05EE6:  CLRF   xAC
05EE8:  CLRF   xAD
05EEA:  CLRF   xAE
05EEC:  CLRF   xAF
05EEE:  CLRF   xB0
....................    delay_ms(1000); 
05EF0:  MOVLW  04
05EF2:  MOVWF  xDD
05EF4:  MOVLW  FA
05EF6:  MOVWF  xF1
05EF8:  MOVLB  0
05EFA:  CALL   14E0
05EFE:  MOVLB  5
05F00:  DECFSZ xDD,F
05F02:  BRA    5EF4
....................    Cruce=OFF; 
05F04:  MOVLB  4
05F06:  BCF    x2E.4
....................    VelocidadMotor(0); 
05F08:  MOVLB  5
05F0A:  CLRF   xDD
05F0C:  MOVLB  0
05F0E:  CALL   1508
....................    Tcruce2=83; 
05F12:  MOVLB  5
05F14:  CLRF   xDC
05F16:  CLRF   xDB
05F18:  MOVLW  26
05F1A:  MOVWF  xDA
05F1C:  MOVLW  85
05F1E:  MOVWF  xD9
....................    Tcruce=8300; 
05F20:  CLRF   xD8
05F22:  MOVLW  B0
05F24:  MOVWF  xD7
05F26:  MOVLW  01
05F28:  MOVWF  xD6
05F2A:  MOVLW  8C
05F2C:  MOVWF  xD5
....................    Motor_off; 
05F2E:  BCF    F8B.2
05F30:  BCF    F94.2
....................    //setup_timer_1(T1_INTERNAL|T1_DIV_BY_1); 
....................    //enable_interrupts(INT_TIMER1); 
....................    enable_interrupts(INT_EXT_L2H); 
05F32:  BSF    FF2.4
05F34:  BSF    FF1.6
....................    setup_adc_ports(AN0_TO_AN1); 
05F36:  MOVF   FC1,W
05F38:  ANDLW  C0
05F3A:  IORLW  0D
05F3C:  MOVWF  FC1
....................    setup_adc(ADC_CLOCK_DIV_32 ); 
05F3E:  MOVF   FC0,W
05F40:  ANDLW  C0
05F42:  IORLW  02
05F44:  MOVWF  FC0
05F46:  BSF    FC0.7
05F48:  BSF    FC2.0
....................    enable_interrupts(global);   
05F4A:  MOVLW  C0
05F4C:  IORWF  FF2,F
....................    VelocidadMotor(0); 
05F4E:  CLRF   xDD
05F50:  MOVLB  0
05F52:  CALL   1508
....................    Motor_off; 
05F56:  BCF    F8B.2
05F58:  BCF    F94.2
.................... //-------Inicio de Cabina-------------------------------------------------------------------------// 
....................    //Display_on; 
....................    //glcd_init(ON);             //Inicializa la glcd 
....................    //glcd_fillScreen(OFF);      //Limpia la pantalla 
....................    //glcd_text57(0, 0, JP, 2, ON);glcd_text57(5, 20, Cabina, 1, ON);glcd_text57(10, 40, Clase, 2, ON);              
....................    //glcd_update(); 
....................    //delay_ms(3000); 
....................                         
....................    //glcd_filScreen(OFF);      //Limpia la pantalla 
....................    glcd_init(ON); 
05F5A:  MOVLW  01
05F5C:  MOVLB  5
05F5E:  MOVWF  xDD
05F60:  MOVLB  0
05F62:  CALL   16D2
....................    Menu=200; 
05F66:  MOVLW  C8
05F68:  MOVLB  4
05F6A:  MOVWF  xC7
....................    LuzBlanca_off;Alarma_off;Aux_off; 
05F6C:  BCF    F8B.0
05F6E:  BCF    F94.0
05F70:  BCF    F8B.7
05F72:  BCF    F94.7
05F74:  BCF    F8B.1
05F76:  BCF    F94.1
.................... //-------Inicio de Cabina-------------------------------------------------------------------------// 
....................    VelocidadMotor(0); 
05F78:  MOVLB  5
05F7A:  CLRF   xDD
05F7C:  MOVLB  0
05F7E:  CALL   1508
....................    Motor_off; 
05F82:  BCF    F8B.2
05F84:  BCF    F94.2
....................    LeeEEPROM(); // Lectura de variables almacenadas en la EEPROM  
05F86:  GOTO   1B86
....................    LimitaValores(); 
05F8A:  GOTO   2366
....................    //Menu=2; 
....................    while(true){  
....................    glcd_update(); 
05F8E:  CALL   161A
.................... //**Actualizacin de Lectura de Sensores**//    
....................    if(Lectura==1){ 
05F92:  MOVLB  4
05F94:  BTFSS  x2E.2
05F96:  BRA    5FDC
....................       Lectura=0; 
05F98:  BCF    x2E.2
....................       InFlow=LeerFlujoInFlow(8); 
05F9A:  MOVLW  08
05F9C:  MOVLB  5
05F9E:  MOVWF  xDD
05FA0:  MOVLB  0
05FA2:  GOTO   3FBC
05FA6:  MOVFF  03,514
05FAA:  MOVFF  02,513
05FAE:  MOVFF  01,512
05FB2:  MOVFF  00,511
....................       Temperatura=leeTemperatura(5); 
05FB6:  MOVLW  05
05FB8:  MOVLB  5
05FBA:  MOVWF  xDD
05FBC:  MOVLB  0
05FBE:  GOTO   438A
05FC2:  MOVFF  03,613
05FC6:  MOVFF  02,612
05FCA:  MOVFF  01,611
05FCE:  MOVFF  00,610
05FD2:  CALL   2D34
05FD6:  MOVFF  01,5D0
05FDA:  MOVLB  4
....................    } 
.................... //----------------------------------------// 
....................  
.................... //**Contador de Tiempo de Trabajo del filtro**// 
....................    if(minutos_trabajo>=3600){ // Tiempo de Trabajo 
05FDC:  MOVF   xE0,W
05FDE:  SUBLW  0D
05FE0:  BTFSC  FD8.0
05FE2:  BRA    618A
05FE4:  XORLW  FF
05FE6:  BNZ   5FF0
05FE8:  MOVF   xDF,W
05FEA:  SUBLW  0F
05FEC:  BTFSC  FD8.0
05FEE:  BRA    618A
....................       minutos_trabajo=0; //Minutos Trabajo realmente son segundos. 
05FF0:  CLRF   xE0
05FF2:  CLRF   xDF
....................       write_eeprom(33,make8(minutos_trabajo,0)); 
05FF4:  MOVFF  4DF,5DD
05FF8:  CLRF   FAA
05FFA:  MOVLW  21
05FFC:  MOVWF  FA9
05FFE:  MOVFF  5DD,FA8
06002:  BCF    FA6.6
06004:  BCF    FA6.7
06006:  BSF    FA6.2
06008:  MOVF   FF2,W
0600A:  MOVWF  00
0600C:  BCF    FF2.7
0600E:  MOVLB  F
06010:  MOVLW  55
06012:  MOVWF  FA7
06014:  MOVLW  AA
06016:  MOVWF  FA7
06018:  BSF    FA6.1
0601A:  BTFSC  FA6.1
0601C:  BRA    601A
0601E:  BCF    FA6.2
06020:  MOVF   00,W
06022:  IORWF  FF2,F
....................       delay_ms(20); 
06024:  MOVLW  14
06026:  MOVLB  5
06028:  MOVWF  xF1
0602A:  MOVLB  0
0602C:  CALL   14E0
....................       write_eeprom(34,make8(minutos_trabajo,1)); 
06030:  MOVFF  4E0,5DD
06034:  CLRF   FAA
06036:  MOVLW  22
06038:  MOVWF  FA9
0603A:  MOVFF  5DD,FA8
0603E:  BCF    FA6.6
06040:  BCF    FA6.7
06042:  BSF    FA6.2
06044:  MOVF   FF2,W
06046:  MOVWF  00
06048:  BCF    FF2.7
0604A:  MOVLB  F
0604C:  MOVLW  55
0604E:  MOVWF  FA7
06050:  MOVLW  AA
06052:  MOVWF  FA7
06054:  BSF    FA6.1
06056:  BTFSC  FA6.1
06058:  BRA    6056
0605A:  BCF    FA6.2
0605C:  MOVF   00,W
0605E:  IORWF  FF2,F
....................       delay_ms(20); 
06060:  MOVLW  14
06062:  MOVLB  5
06064:  MOVWF  xF1
06066:  MOVLB  0
06068:  CALL   14E0
....................       Ttrabajo[0]++; 
0606C:  MOVLB  5
0606E:  INCF   x05,F
....................       if(Ttrabajo[0]>9){ 
06070:  BTFSC  x05.7
06072:  BRA    607E
06074:  MOVF   x05,W
06076:  SUBLW  09
06078:  BC    607E
....................          Ttrabajo[0]=0; 
0607A:  CLRF   x05
....................          Ttrabajo[1]++; 
0607C:  INCF   x06,F
....................       } 
....................       if(Ttrabajo[1]>9){ 
0607E:  BTFSC  x06.7
06080:  BRA    608C
06082:  MOVF   x06,W
06084:  SUBLW  09
06086:  BC    608C
....................          Ttrabajo[1]=0; 
06088:  CLRF   x06
....................          Ttrabajo[2]++; 
0608A:  INCF   x07,F
....................       } 
....................       if(Ttrabajo[2]>9){ 
0608C:  BTFSC  x07.7
0608E:  BRA    609A
06090:  MOVF   x07,W
06092:  SUBLW  09
06094:  BC    609A
....................          Ttrabajo[2]=0; 
06096:  CLRF   x07
....................          Ttrabajo[3]++; 
06098:  INCF   x08,F
....................       } 
....................       if(Ttrabajo[3]>9){ 
0609A:  BTFSC  x08.7
0609C:  BRA    60A6
0609E:  MOVF   x08,W
060A0:  SUBLW  09
060A2:  BC    60A6
....................          Ttrabajo[3]=0; 
060A4:  CLRF   x08
....................       } 
....................       write_eeprom(16,Ttrabajo[0]); 
060A6:  CLRF   FAA
060A8:  MOVLW  10
060AA:  MOVWF  FA9
060AC:  MOVFF  505,FA8
060B0:  BCF    FA6.6
060B2:  BCF    FA6.7
060B4:  BSF    FA6.2
060B6:  MOVF   FF2,W
060B8:  MOVWF  00
060BA:  BCF    FF2.7
060BC:  MOVLB  F
060BE:  MOVLW  55
060C0:  MOVWF  FA7
060C2:  MOVLW  AA
060C4:  MOVWF  FA7
060C6:  BSF    FA6.1
060C8:  BTFSC  FA6.1
060CA:  BRA    60C8
060CC:  BCF    FA6.2
060CE:  MOVF   00,W
060D0:  IORWF  FF2,F
....................       delay_ms(20); 
060D2:  MOVLW  14
060D4:  MOVLB  5
060D6:  MOVWF  xF1
060D8:  MOVLB  0
060DA:  CALL   14E0
....................       write_eeprom(17,Ttrabajo[1]); 
060DE:  CLRF   FAA
060E0:  MOVLW  11
060E2:  MOVWF  FA9
060E4:  MOVFF  506,FA8
060E8:  BCF    FA6.6
060EA:  BCF    FA6.7
060EC:  BSF    FA6.2
060EE:  MOVF   FF2,W
060F0:  MOVWF  00
060F2:  BCF    FF2.7
060F4:  MOVLB  F
060F6:  MOVLW  55
060F8:  MOVWF  FA7
060FA:  MOVLW  AA
060FC:  MOVWF  FA7
060FE:  BSF    FA6.1
06100:  BTFSC  FA6.1
06102:  BRA    6100
06104:  BCF    FA6.2
06106:  MOVF   00,W
06108:  IORWF  FF2,F
....................       delay_ms(20); 
0610A:  MOVLW  14
0610C:  MOVLB  5
0610E:  MOVWF  xF1
06110:  MOVLB  0
06112:  CALL   14E0
....................       write_eeprom(18,Ttrabajo[2]); 
06116:  CLRF   FAA
06118:  MOVLW  12
0611A:  MOVWF  FA9
0611C:  MOVFF  507,FA8
06120:  BCF    FA6.6
06122:  BCF    FA6.7
06124:  BSF    FA6.2
06126:  MOVF   FF2,W
06128:  MOVWF  00
0612A:  BCF    FF2.7
0612C:  MOVLB  F
0612E:  MOVLW  55
06130:  MOVWF  FA7
06132:  MOVLW  AA
06134:  MOVWF  FA7
06136:  BSF    FA6.1
06138:  BTFSC  FA6.1
0613A:  BRA    6138
0613C:  BCF    FA6.2
0613E:  MOVF   00,W
06140:  IORWF  FF2,F
....................       delay_ms(20); 
06142:  MOVLW  14
06144:  MOVLB  5
06146:  MOVWF  xF1
06148:  MOVLB  0
0614A:  CALL   14E0
....................       write_eeprom(19,Ttrabajo[3]); 
0614E:  CLRF   FAA
06150:  MOVLW  13
06152:  MOVWF  FA9
06154:  MOVFF  508,FA8
06158:  BCF    FA6.6
0615A:  BCF    FA6.7
0615C:  BSF    FA6.2
0615E:  MOVF   FF2,W
06160:  MOVWF  00
06162:  BCF    FF2.7
06164:  MOVLB  F
06166:  MOVLW  55
06168:  MOVWF  FA7
0616A:  MOVLW  AA
0616C:  MOVWF  FA7
0616E:  BSF    FA6.1
06170:  BTFSC  FA6.1
06172:  BRA    6170
06174:  BCF    FA6.2
06176:  MOVF   00,W
06178:  IORWF  FF2,F
....................       delay_ms(20); 
0617A:  MOVLW  14
0617C:  MOVLB  5
0617E:  MOVWF  xF1
06180:  MOVLB  0
06182:  CALL   14E0
....................    }else if(minutos_trabajo==900 || minutos_trabajo==1800 || minutos_trabajo==2700 ){ 
06186:  BRA    6226
06188:  MOVLB  4
0618A:  MOVF   xDF,W
0618C:  SUBLW  84
0618E:  BNZ   6196
06190:  MOVF   xE0,W
06192:  SUBLW  03
06194:  BZ    61AE
06196:  MOVF   xDF,W
06198:  SUBLW  08
0619A:  BNZ   61A2
0619C:  MOVF   xE0,W
0619E:  SUBLW  07
061A0:  BZ    61AE
061A2:  MOVF   xDF,W
061A4:  SUBLW  8C
061A6:  BNZ   6228
061A8:  MOVF   xE0,W
061AA:  SUBLW  0A
061AC:  BNZ   6228
....................       write_eeprom(33,make8(minutos_trabajo,0)); 
061AE:  MOVFF  4DF,5DD
061B2:  CLRF   FAA
061B4:  MOVLW  21
061B6:  MOVWF  FA9
061B8:  MOVFF  5DD,FA8
061BC:  BCF    FA6.6
061BE:  BCF    FA6.7
061C0:  BSF    FA6.2
061C2:  MOVF   FF2,W
061C4:  MOVWF  00
061C6:  BCF    FF2.7
061C8:  MOVLB  F
061CA:  MOVLW  55
061CC:  MOVWF  FA7
061CE:  MOVLW  AA
061D0:  MOVWF  FA7
061D2:  BSF    FA6.1
061D4:  BTFSC  FA6.1
061D6:  BRA    61D4
061D8:  BCF    FA6.2
061DA:  MOVF   00,W
061DC:  IORWF  FF2,F
....................       delay_ms(20); 
061DE:  MOVLW  14
061E0:  MOVLB  5
061E2:  MOVWF  xF1
061E4:  MOVLB  0
061E6:  CALL   14E0
....................       write_eeprom(34,make8(minutos_trabajo,1)); 
061EA:  MOVFF  4E0,5DD
061EE:  CLRF   FAA
061F0:  MOVLW  22
061F2:  MOVWF  FA9
061F4:  MOVFF  5DD,FA8
061F8:  BCF    FA6.6
061FA:  BCF    FA6.7
061FC:  BSF    FA6.2
061FE:  MOVF   FF2,W
06200:  MOVWF  00
06202:  BCF    FF2.7
06204:  MOVLB  F
06206:  MOVLW  55
06208:  MOVWF  FA7
0620A:  MOVLW  AA
0620C:  MOVWF  FA7
0620E:  BSF    FA6.1
06210:  BTFSC  FA6.1
06212:  BRA    6210
06214:  BCF    FA6.2
06216:  MOVF   00,W
06218:  IORWF  FF2,F
....................       delay_ms(20); 
0621A:  MOVLW  14
0621C:  MOVLB  5
0621E:  MOVWF  xF1
06220:  MOVLB  0
06222:  CALL   14E0
06226:  MOVLB  4
....................    } 
.................... //----------------------------------------//       
....................     
....................    if(Menu!=2){// Si no esta en el menu de estados apaga la alarma 
06228:  MOVF   xC7,W
0622A:  SUBLW  02
0622C:  BZ    6236
....................       Alarma_off; 
0622E:  BCF    F8B.7
06230:  BCF    F94.7
....................       Alarma=10; 
06232:  MOVLW  0A
06234:  MOVWF  xD4
....................    } 
....................     
.................... //_-------------------------------------------------------------------------------------------------------------------------------------------------------- 
....................    if(Menu==0){ //Menu de Contrasea. 
06236:  MOVF   xC7,F
06238:  BNZ   6270
....................       while(PidePassword(0,0,1,Password[0],Password[1],Password[2],Password[3])==0){ 
0623A:  MOVLB  5
0623C:  CLRF   xDE
0623E:  CLRF   xDF
06240:  MOVLW  01
06242:  MOVWF  xE0
06244:  MOVFF  50D,5E1
06248:  MOVFF  50E,5E2
0624C:  MOVFF  50F,5E3
06250:  MOVFF  510,5E4
06254:  MOVLB  0
06256:  CALL   4C8E
0625A:  MOVF   01,F
0625C:  BNZ   6272
....................          VelocidadMotor(0); 
0625E:  MOVLB  5
06260:  CLRF   xDD
06262:  MOVLB  0
06264:  CALL   1508
....................          glcd_update(); 
06268:  CALL   161A
....................       }        
0626C:  MOVLB  4
0626E:  BRA    623A
06270:  MOVLB  0
....................    } 
.................... //_--------------------------------------------------------------------------------------------------------------------------------------------------------        
....................  
.................... //_-------------------------------------------------------------------------------------------------------------------------------------------------------- 
....................       if(Menu==1){//Menu de Purga. 
06272:  MOVLB  4
06274:  DECFSZ xC7,W
06276:  BRA    63E0
....................          Purga=ON; 
06278:  BSF    x2E.5
....................          glcd_text57(15, 1, Tiempo, 1, ON); 
0627A:  MOVLW  0F
0627C:  MOVLB  5
0627E:  MOVWF  xF6
06280:  MOVLW  01
06282:  MOVWF  xF7
06284:  MOVLW  04
06286:  MOVWF  xF9
06288:  MOVLW  5D
0628A:  MOVWF  xF8
0628C:  MOVLW  01
0628E:  MOVWF  xFA
06290:  MOVWF  xFB
06292:  MOVLB  0
06294:  CALL   4948
....................          tiempo_purga=1;LuzBlanca_off;//Alarma_off; 
06298:  MOVLB  4
0629A:  BSF    x2D.5
0629C:  BCF    F8B.0
0629E:  BCF    F94.0
....................          glcd_rect(9, 54, 120, 64, YES, OFF);          
062A0:  MOVLW  09
062A2:  MOVLB  5
062A4:  MOVWF  xF6
062A6:  MOVLW  36
062A8:  MOVWF  xF7
062AA:  MOVLW  78
062AC:  MOVWF  xF8
062AE:  MOVLW  40
062B0:  MOVWF  xF9
062B2:  MOVLW  01
062B4:  MOVWF  xFA
062B6:  CLRF   xFB
062B8:  MOVLB  0
062BA:  CALL   4880
....................          displayTiempo(Tpurga[3],20,20,0,2);displayTiempo(Tpurga[2],40,20,0,2);glcd_text57(60, 22, Dos_puntos, 2, ON); 
062BE:  MOVFF  4F0,5DD
062C2:  MOVLW  14
062C4:  MOVLB  5
062C6:  MOVWF  xDE
062C8:  MOVWF  xDF
062CA:  CLRF   xE0
062CC:  MOVLW  02
062CE:  MOVWF  xE1
062D0:  MOVLB  0
062D2:  CALL   5370
062D6:  MOVFF  4EF,5DD
062DA:  MOVLW  28
062DC:  MOVLB  5
062DE:  MOVWF  xDE
062E0:  MOVLW  14
062E2:  MOVWF  xDF
062E4:  CLRF   xE0
062E6:  MOVLW  02
062E8:  MOVWF  xE1
062EA:  MOVLB  0
062EC:  CALL   5370
062F0:  MOVLW  3C
062F2:  MOVLB  5
062F4:  MOVWF  xF6
062F6:  MOVLW  16
062F8:  MOVWF  xF7
062FA:  MOVLW  04
062FC:  MOVWF  xF9
062FE:  MOVLW  4D
06300:  MOVWF  xF8
06302:  MOVLW  02
06304:  MOVWF  xFA
06306:  MOVLW  01
06308:  MOVWF  xFB
0630A:  MOVLB  0
0630C:  CALL   4948
....................          displayTiempo(Tpurga[1],70,20,0,2);displayTiempo(Tpurga[0],90,20,0,2);         
06310:  MOVFF  4EE,5DD
06314:  MOVLW  46
06316:  MOVLB  5
06318:  MOVWF  xDE
0631A:  MOVLW  14
0631C:  MOVWF  xDF
0631E:  CLRF   xE0
06320:  MOVLW  02
06322:  MOVWF  xE1
06324:  MOVLB  0
06326:  CALL   5370
0632A:  MOVFF  4ED,5DD
0632E:  MOVLW  5A
06330:  MOVLB  5
06332:  MOVWF  xDE
06334:  MOVLW  14
06336:  MOVWF  xDF
06338:  CLRF   xE0
0633A:  MOVLW  02
0633C:  MOVWF  xE1
0633E:  MOVLB  0
06340:  CALL   5370
....................           
....................          VelocidadMotor(VelMotor); 
06344:  MOVFF  5D4,5DD
06348:  CALL   1508
....................           
....................          if(RIGHT){ 
0634C:  BSF    F96.1
0634E:  BTFSC  F84.1
06350:  BRA    6386
....................             delay_ms(500); 
06352:  MOVLW  02
06354:  MOVLB  5
06356:  MOVWF  xDD
06358:  MOVLW  FA
0635A:  MOVWF  xF1
0635C:  MOVLB  0
0635E:  CALL   14E0
06362:  MOVLB  5
06364:  DECFSZ xDD,F
06366:  BRA    6358
....................             if(RIGHT){ 
06368:  BSF    F96.1
0636A:  BTFSC  F84.1
0636C:  BRA    6386
....................                tiempo_purga=0;Menu=2;glcd_fillScreen(OFF);Flanco3=1; 
0636E:  MOVLB  4
06370:  BCF    x2D.5
06372:  MOVLW  02
06374:  MOVWF  xC7
06376:  MOVLB  5
06378:  CLRF   xE5
0637A:  MOVLB  0
0637C:  CALL   15C0
06380:  MOVLB  4
06382:  BSF    x2C.3
06384:  MOVLB  5
....................             } 
....................          } 
....................         
....................          if((Tpurga[0]>=Tpurgap[0])&&(Tpurga[1]>=Tpurgap[1])&&(Tpurga[2]>=Tpurgap[2])&&(Tpurga[3]>=Tpurgap[3])){ 
06386:  MOVLB  4
06388:  MOVF   xF1,W
0638A:  XORLW  80
0638C:  MOVWF  00
0638E:  MOVF   xED,W
06390:  XORLW  80
06392:  SUBWF  00,W
06394:  BZ    6398
06396:  BC    63E0
06398:  MOVF   xF2,W
0639A:  XORLW  80
0639C:  MOVWF  00
0639E:  MOVF   xEE,W
063A0:  XORLW  80
063A2:  SUBWF  00,W
063A4:  BZ    63A8
063A6:  BC    63E0
063A8:  MOVF   xF3,W
063AA:  XORLW  80
063AC:  MOVWF  00
063AE:  MOVF   xEF,W
063B0:  XORLW  80
063B2:  SUBWF  00,W
063B4:  BZ    63B8
063B6:  BC    63E0
063B8:  MOVF   xF4,W
063BA:  XORLW  80
063BC:  MOVWF  00
063BE:  MOVF   xF0,W
063C0:  XORLW  80
063C2:  SUBWF  00,W
063C4:  BZ    63C8
063C6:  BC    63E0
....................             tiempo_purga=0;Menu=2;glcd_fillScreen(OFF);flag_luz=!flag_luz;flag_blower=1;flag_toma=1; 
063C8:  BCF    x2D.5
063CA:  MOVLW  02
063CC:  MOVWF  xC7
063CE:  MOVLB  5
063D0:  CLRF   xE5
063D2:  MOVLB  0
063D4:  CALL   15C0
063D8:  MOVLB  4
063DA:  BTG    x2D.1
063DC:  BSF    x2C.7
063DE:  BSF    x2D.0
....................          }       
....................       } 
.................... //_--------------------------------------------------------------------------------------------------------------------------------------------------------        
....................  
.................... //_-------------------------------------------------------------------------------------------------------------------------------------------------------- 
....................       if(Menu==2){ //Menu General. 
063E0:  MOVF   xC7,W
063E2:  SUBLW  02
063E4:  BTFSS  FD8.2
063E6:  GOTO   6E3C
....................          Purga=OFF; 
063EA:  BCF    x2E.5
....................          w=0; 
063EC:  BCF    x2D.3
....................          glcd_imagen(4); 
063EE:  MOVLW  04
063F0:  MOVLB  5
063F2:  MOVWF  xDD
063F4:  MOVLB  0
063F6:  CALL   546C
....................           
....................          if(VelMotor==1){ 
063FA:  MOVLB  5
063FC:  DECFSZ xD4,W
063FE:  BRA    64B4
....................             glcd_rect(0, 29, 13, 39, YES, ON); 
06400:  CLRF   xF6
06402:  MOVLW  1D
06404:  MOVWF  xF7
06406:  MOVLW  0D
06408:  MOVWF  xF8
0640A:  MOVLW  27
0640C:  MOVWF  xF9
0640E:  MOVLW  01
06410:  MOVWF  xFA
06412:  MOVWF  xFB
06414:  MOVLB  0
06416:  CALL   4880
....................             glcd_rect(15, 26, 28, 39, NO, ON); 
0641A:  MOVLW  0F
0641C:  MOVLB  5
0641E:  MOVWF  xF6
06420:  MOVLW  1A
06422:  MOVWF  xF7
06424:  MOVLW  1C
06426:  MOVWF  xF8
06428:  MOVLW  27
0642A:  MOVWF  xF9
0642C:  CLRF   xFA
0642E:  MOVLW  01
06430:  MOVWF  xFB
06432:  MOVLB  0
06434:  CALL   4880
....................             glcd_rect(30, 23, 43, 39, NO, ON); 
06438:  MOVLW  1E
0643A:  MOVLB  5
0643C:  MOVWF  xF6
0643E:  MOVLW  17
06440:  MOVWF  xF7
06442:  MOVLW  2B
06444:  MOVWF  xF8
06446:  MOVLW  27
06448:  MOVWF  xF9
0644A:  CLRF   xFA
0644C:  MOVLW  01
0644E:  MOVWF  xFB
06450:  MOVLB  0
06452:  CALL   4880
....................             glcd_rect(45, 20, 58, 39, NO, ON); 
06456:  MOVLW  2D
06458:  MOVLB  5
0645A:  MOVWF  xF6
0645C:  MOVLW  14
0645E:  MOVWF  xF7
06460:  MOVLW  3A
06462:  MOVWF  xF8
06464:  MOVLW  27
06466:  MOVWF  xF9
06468:  CLRF   xFA
0646A:  MOVLW  01
0646C:  MOVWF  xFB
0646E:  MOVLB  0
06470:  CALL   4880
....................             glcd_rect(60, 17, 73, 39, NO, ON); 
06474:  MOVLW  3C
06476:  MOVLB  5
06478:  MOVWF  xF6
0647A:  MOVLW  11
0647C:  MOVWF  xF7
0647E:  MOVLW  49
06480:  MOVWF  xF8
06482:  MOVLW  27
06484:  MOVWF  xF9
06486:  CLRF   xFA
06488:  MOVLW  01
0648A:  MOVWF  xFB
0648C:  MOVLB  0
0648E:  CALL   4880
....................             glcd_rect(75, 14, 88, 39, NO, ON); 
06492:  MOVLW  4B
06494:  MOVLB  5
06496:  MOVWF  xF6
06498:  MOVLW  0E
0649A:  MOVWF  xF7
0649C:  MOVLW  58
0649E:  MOVWF  xF8
064A0:  MOVLW  27
064A2:  MOVWF  xF9
064A4:  CLRF   xFA
064A6:  MOVLW  01
064A8:  MOVWF  xFB
064AA:  MOVLB  0
064AC:  CALL   4880
....................          }else if(VelMotor==2){ 
064B0:  BRA    6852
064B2:  MOVLB  5
064B4:  MOVF   xD4,W
064B6:  SUBLW  02
064B8:  BNZ   656E
....................             glcd_rect(0, 29, 13, 39, YES, ON); 
064BA:  CLRF   xF6
064BC:  MOVLW  1D
064BE:  MOVWF  xF7
064C0:  MOVLW  0D
064C2:  MOVWF  xF8
064C4:  MOVLW  27
064C6:  MOVWF  xF9
064C8:  MOVLW  01
064CA:  MOVWF  xFA
064CC:  MOVWF  xFB
064CE:  MOVLB  0
064D0:  CALL   4880
....................             glcd_rect(15, 26, 28, 39, YES, ON); 
064D4:  MOVLW  0F
064D6:  MOVLB  5
064D8:  MOVWF  xF6
064DA:  MOVLW  1A
064DC:  MOVWF  xF7
064DE:  MOVLW  1C
064E0:  MOVWF  xF8
064E2:  MOVLW  27
064E4:  MOVWF  xF9
064E6:  MOVLW  01
064E8:  MOVWF  xFA
064EA:  MOVWF  xFB
064EC:  MOVLB  0
064EE:  CALL   4880
....................             glcd_rect(30, 23, 43, 39, NO, ON); 
064F2:  MOVLW  1E
064F4:  MOVLB  5
064F6:  MOVWF  xF6
064F8:  MOVLW  17
064FA:  MOVWF  xF7
064FC:  MOVLW  2B
064FE:  MOVWF  xF8
06500:  MOVLW  27
06502:  MOVWF  xF9
06504:  CLRF   xFA
06506:  MOVLW  01
06508:  MOVWF  xFB
0650A:  MOVLB  0
0650C:  CALL   4880
....................             glcd_rect(45, 20, 58, 39, NO, ON); 
06510:  MOVLW  2D
06512:  MOVLB  5
06514:  MOVWF  xF6
06516:  MOVLW  14
06518:  MOVWF  xF7
0651A:  MOVLW  3A
0651C:  MOVWF  xF8
0651E:  MOVLW  27
06520:  MOVWF  xF9
06522:  CLRF   xFA
06524:  MOVLW  01
06526:  MOVWF  xFB
06528:  MOVLB  0
0652A:  CALL   4880
....................             glcd_rect(60, 17, 73, 39, NO, ON); 
0652E:  MOVLW  3C
06530:  MOVLB  5
06532:  MOVWF  xF6
06534:  MOVLW  11
06536:  MOVWF  xF7
06538:  MOVLW  49
0653A:  MOVWF  xF8
0653C:  MOVLW  27
0653E:  MOVWF  xF9
06540:  CLRF   xFA
06542:  MOVLW  01
06544:  MOVWF  xFB
06546:  MOVLB  0
06548:  CALL   4880
....................             glcd_rect(75, 14, 88, 39, NO, ON); 
0654C:  MOVLW  4B
0654E:  MOVLB  5
06550:  MOVWF  xF6
06552:  MOVLW  0E
06554:  MOVWF  xF7
06556:  MOVLW  58
06558:  MOVWF  xF8
0655A:  MOVLW  27
0655C:  MOVWF  xF9
0655E:  CLRF   xFA
06560:  MOVLW  01
06562:  MOVWF  xFB
06564:  MOVLB  0
06566:  CALL   4880
....................          }else if(VelMotor==3){ 
0656A:  BRA    6852
0656C:  MOVLB  5
0656E:  MOVF   xD4,W
06570:  SUBLW  03
06572:  BNZ   6628
....................             glcd_rect(0, 29, 13, 39, YES, ON); 
06574:  CLRF   xF6
06576:  MOVLW  1D
06578:  MOVWF  xF7
0657A:  MOVLW  0D
0657C:  MOVWF  xF8
0657E:  MOVLW  27
06580:  MOVWF  xF9
06582:  MOVLW  01
06584:  MOVWF  xFA
06586:  MOVWF  xFB
06588:  MOVLB  0
0658A:  CALL   4880
....................             glcd_rect(15, 26, 28, 39, YES, ON); 
0658E:  MOVLW  0F
06590:  MOVLB  5
06592:  MOVWF  xF6
06594:  MOVLW  1A
06596:  MOVWF  xF7
06598:  MOVLW  1C
0659A:  MOVWF  xF8
0659C:  MOVLW  27
0659E:  MOVWF  xF9
065A0:  MOVLW  01
065A2:  MOVWF  xFA
065A4:  MOVWF  xFB
065A6:  MOVLB  0
065A8:  CALL   4880
....................             glcd_rect(30, 23, 43, 39, YES, ON); 
065AC:  MOVLW  1E
065AE:  MOVLB  5
065B0:  MOVWF  xF6
065B2:  MOVLW  17
065B4:  MOVWF  xF7
065B6:  MOVLW  2B
065B8:  MOVWF  xF8
065BA:  MOVLW  27
065BC:  MOVWF  xF9
065BE:  MOVLW  01
065C0:  MOVWF  xFA
065C2:  MOVWF  xFB
065C4:  MOVLB  0
065C6:  CALL   4880
....................             glcd_rect(45, 20, 58, 39, NO, ON); 
065CA:  MOVLW  2D
065CC:  MOVLB  5
065CE:  MOVWF  xF6
065D0:  MOVLW  14
065D2:  MOVWF  xF7
065D4:  MOVLW  3A
065D6:  MOVWF  xF8
065D8:  MOVLW  27
065DA:  MOVWF  xF9
065DC:  CLRF   xFA
065DE:  MOVLW  01
065E0:  MOVWF  xFB
065E2:  MOVLB  0
065E4:  CALL   4880
....................             glcd_rect(60, 17, 73, 39, NO, ON); 
065E8:  MOVLW  3C
065EA:  MOVLB  5
065EC:  MOVWF  xF6
065EE:  MOVLW  11
065F0:  MOVWF  xF7
065F2:  MOVLW  49
065F4:  MOVWF  xF8
065F6:  MOVLW  27
065F8:  MOVWF  xF9
065FA:  CLRF   xFA
065FC:  MOVLW  01
065FE:  MOVWF  xFB
06600:  MOVLB  0
06602:  CALL   4880
....................             glcd_rect(75, 14, 88, 39, NO, ON); 
06606:  MOVLW  4B
06608:  MOVLB  5
0660A:  MOVWF  xF6
0660C:  MOVLW  0E
0660E:  MOVWF  xF7
06610:  MOVLW  58
06612:  MOVWF  xF8
06614:  MOVLW  27
06616:  MOVWF  xF9
06618:  CLRF   xFA
0661A:  MOVLW  01
0661C:  MOVWF  xFB
0661E:  MOVLB  0
06620:  CALL   4880
....................          }else if(VelMotor==4){ 
06624:  BRA    6852
06626:  MOVLB  5
06628:  MOVF   xD4,W
0662A:  SUBLW  04
0662C:  BNZ   66E2
....................             glcd_rect(0, 29, 13, 39, YES, ON); 
0662E:  CLRF   xF6
06630:  MOVLW  1D
06632:  MOVWF  xF7
06634:  MOVLW  0D
06636:  MOVWF  xF8
06638:  MOVLW  27
0663A:  MOVWF  xF9
0663C:  MOVLW  01
0663E:  MOVWF  xFA
06640:  MOVWF  xFB
06642:  MOVLB  0
06644:  CALL   4880
....................             glcd_rect(15, 26, 28, 39, YES, ON); 
06648:  MOVLW  0F
0664A:  MOVLB  5
0664C:  MOVWF  xF6
0664E:  MOVLW  1A
06650:  MOVWF  xF7
06652:  MOVLW  1C
06654:  MOVWF  xF8
06656:  MOVLW  27
06658:  MOVWF  xF9
0665A:  MOVLW  01
0665C:  MOVWF  xFA
0665E:  MOVWF  xFB
06660:  MOVLB  0
06662:  CALL   4880
....................             glcd_rect(30, 23, 43, 39, YES, ON); 
06666:  MOVLW  1E
06668:  MOVLB  5
0666A:  MOVWF  xF6
0666C:  MOVLW  17
0666E:  MOVWF  xF7
06670:  MOVLW  2B
06672:  MOVWF  xF8
06674:  MOVLW  27
06676:  MOVWF  xF9
06678:  MOVLW  01
0667A:  MOVWF  xFA
0667C:  MOVWF  xFB
0667E:  MOVLB  0
06680:  CALL   4880
....................             glcd_rect(45, 20, 58, 39, YES, ON); 
06684:  MOVLW  2D
06686:  MOVLB  5
06688:  MOVWF  xF6
0668A:  MOVLW  14
0668C:  MOVWF  xF7
0668E:  MOVLW  3A
06690:  MOVWF  xF8
06692:  MOVLW  27
06694:  MOVWF  xF9
06696:  MOVLW  01
06698:  MOVWF  xFA
0669A:  MOVWF  xFB
0669C:  MOVLB  0
0669E:  CALL   4880
....................             glcd_rect(60, 17, 73, 39, NO, ON); 
066A2:  MOVLW  3C
066A4:  MOVLB  5
066A6:  MOVWF  xF6
066A8:  MOVLW  11
066AA:  MOVWF  xF7
066AC:  MOVLW  49
066AE:  MOVWF  xF8
066B0:  MOVLW  27
066B2:  MOVWF  xF9
066B4:  CLRF   xFA
066B6:  MOVLW  01
066B8:  MOVWF  xFB
066BA:  MOVLB  0
066BC:  CALL   4880
....................             glcd_rect(75, 14, 88, 39, NO, ON); 
066C0:  MOVLW  4B
066C2:  MOVLB  5
066C4:  MOVWF  xF6
066C6:  MOVLW  0E
066C8:  MOVWF  xF7
066CA:  MOVLW  58
066CC:  MOVWF  xF8
066CE:  MOVLW  27
066D0:  MOVWF  xF9
066D2:  CLRF   xFA
066D4:  MOVLW  01
066D6:  MOVWF  xFB
066D8:  MOVLB  0
066DA:  CALL   4880
....................          }else if(VelMotor==5){ 
066DE:  BRA    6852
066E0:  MOVLB  5
066E2:  MOVF   xD4,W
066E4:  SUBLW  05
066E6:  BNZ   679C
....................             glcd_rect(0, 29, 13, 39, YES, ON); 
066E8:  CLRF   xF6
066EA:  MOVLW  1D
066EC:  MOVWF  xF7
066EE:  MOVLW  0D
066F0:  MOVWF  xF8
066F2:  MOVLW  27
066F4:  MOVWF  xF9
066F6:  MOVLW  01
066F8:  MOVWF  xFA
066FA:  MOVWF  xFB
066FC:  MOVLB  0
066FE:  CALL   4880
....................             glcd_rect(15, 26, 28, 39, YES, ON); 
06702:  MOVLW  0F
06704:  MOVLB  5
06706:  MOVWF  xF6
06708:  MOVLW  1A
0670A:  MOVWF  xF7
0670C:  MOVLW  1C
0670E:  MOVWF  xF8
06710:  MOVLW  27
06712:  MOVWF  xF9
06714:  MOVLW  01
06716:  MOVWF  xFA
06718:  MOVWF  xFB
0671A:  MOVLB  0
0671C:  CALL   4880
....................             glcd_rect(30, 23, 43, 39, YES, ON); 
06720:  MOVLW  1E
06722:  MOVLB  5
06724:  MOVWF  xF6
06726:  MOVLW  17
06728:  MOVWF  xF7
0672A:  MOVLW  2B
0672C:  MOVWF  xF8
0672E:  MOVLW  27
06730:  MOVWF  xF9
06732:  MOVLW  01
06734:  MOVWF  xFA
06736:  MOVWF  xFB
06738:  MOVLB  0
0673A:  CALL   4880
....................             glcd_rect(45, 20, 58, 39, YES, ON); 
0673E:  MOVLW  2D
06740:  MOVLB  5
06742:  MOVWF  xF6
06744:  MOVLW  14
06746:  MOVWF  xF7
06748:  MOVLW  3A
0674A:  MOVWF  xF8
0674C:  MOVLW  27
0674E:  MOVWF  xF9
06750:  MOVLW  01
06752:  MOVWF  xFA
06754:  MOVWF  xFB
06756:  MOVLB  0
06758:  CALL   4880
....................             glcd_rect(60, 17, 73, 39, YES, ON); 
0675C:  MOVLW  3C
0675E:  MOVLB  5
06760:  MOVWF  xF6
06762:  MOVLW  11
06764:  MOVWF  xF7
06766:  MOVLW  49
06768:  MOVWF  xF8
0676A:  MOVLW  27
0676C:  MOVWF  xF9
0676E:  MOVLW  01
06770:  MOVWF  xFA
06772:  MOVWF  xFB
06774:  MOVLB  0
06776:  CALL   4880
....................             glcd_rect(75, 14, 88, 39, NO, ON); 
0677A:  MOVLW  4B
0677C:  MOVLB  5
0677E:  MOVWF  xF6
06780:  MOVLW  0E
06782:  MOVWF  xF7
06784:  MOVLW  58
06786:  MOVWF  xF8
06788:  MOVLW  27
0678A:  MOVWF  xF9
0678C:  CLRF   xFA
0678E:  MOVLW  01
06790:  MOVWF  xFB
06792:  MOVLB  0
06794:  CALL   4880
....................          }else if(VelMotor==6){ 
06798:  BRA    6852
0679A:  MOVLB  5
0679C:  MOVF   xD4,W
0679E:  SUBLW  06
067A0:  BNZ   6852
....................             glcd_rect(0, 29, 13, 39, YES, ON); 
067A2:  CLRF   xF6
067A4:  MOVLW  1D
067A6:  MOVWF  xF7
067A8:  MOVLW  0D
067AA:  MOVWF  xF8
067AC:  MOVLW  27
067AE:  MOVWF  xF9
067B0:  MOVLW  01
067B2:  MOVWF  xFA
067B4:  MOVWF  xFB
067B6:  MOVLB  0
067B8:  CALL   4880
....................             glcd_rect(15, 26, 28, 39, YES, ON); 
067BC:  MOVLW  0F
067BE:  MOVLB  5
067C0:  MOVWF  xF6
067C2:  MOVLW  1A
067C4:  MOVWF  xF7
067C6:  MOVLW  1C
067C8:  MOVWF  xF8
067CA:  MOVLW  27
067CC:  MOVWF  xF9
067CE:  MOVLW  01
067D0:  MOVWF  xFA
067D2:  MOVWF  xFB
067D4:  MOVLB  0
067D6:  CALL   4880
....................             glcd_rect(30, 23, 43, 39, YES, ON); 
067DA:  MOVLW  1E
067DC:  MOVLB  5
067DE:  MOVWF  xF6
067E0:  MOVLW  17
067E2:  MOVWF  xF7
067E4:  MOVLW  2B
067E6:  MOVWF  xF8
067E8:  MOVLW  27
067EA:  MOVWF  xF9
067EC:  MOVLW  01
067EE:  MOVWF  xFA
067F0:  MOVWF  xFB
067F2:  MOVLB  0
067F4:  CALL   4880
....................             glcd_rect(45, 20, 58, 39, YES, ON); 
067F8:  MOVLW  2D
067FA:  MOVLB  5
067FC:  MOVWF  xF6
067FE:  MOVLW  14
06800:  MOVWF  xF7
06802:  MOVLW  3A
06804:  MOVWF  xF8
06806:  MOVLW  27
06808:  MOVWF  xF9
0680A:  MOVLW  01
0680C:  MOVWF  xFA
0680E:  MOVWF  xFB
06810:  MOVLB  0
06812:  CALL   4880
....................             glcd_rect(60, 17, 73, 39, YES, ON); 
06816:  MOVLW  3C
06818:  MOVLB  5
0681A:  MOVWF  xF6
0681C:  MOVLW  11
0681E:  MOVWF  xF7
06820:  MOVLW  49
06822:  MOVWF  xF8
06824:  MOVLW  27
06826:  MOVWF  xF9
06828:  MOVLW  01
0682A:  MOVWF  xFA
0682C:  MOVWF  xFB
0682E:  MOVLB  0
06830:  CALL   4880
....................             glcd_rect(75, 14, 88, 39, YES, ON); 
06834:  MOVLW  4B
06836:  MOVLB  5
06838:  MOVWF  xF6
0683A:  MOVLW  0E
0683C:  MOVWF  xF7
0683E:  MOVLW  58
06840:  MOVWF  xF8
06842:  MOVLW  27
06844:  MOVWF  xF9
06846:  MOVLW  01
06848:  MOVWF  xFA
0684A:  MOVWF  xFB
0684C:  MOVLB  0
0684E:  CALL   4880
....................          } 
....................           
....................          if(imprimir==1){ 
06852:  MOVLB  4
06854:  BTFSS  x2C.6
06856:  BRA    69F6
....................             glcd_text57(2, 12, Inflowt, 1, ON); 
06858:  MOVLW  02
0685A:  MOVLB  5
0685C:  MOVWF  xF6
0685E:  MOVLW  0C
06860:  MOVWF  xF7
06862:  MOVLW  04
06864:  MOVWF  xF9
06866:  MOVLW  6D
06868:  MOVWF  xF8
0686A:  MOVLW  01
0686C:  MOVWF  xFA
0686E:  MOVWF  xFB
06870:  MOVLB  0
06872:  CALL   4948
....................             displayTiempo(VelMotor,25,11,0,1);   
06876:  MOVFF  5D4,5DD
0687A:  MOVLW  19
0687C:  MOVLB  5
0687E:  MOVWF  xDE
06880:  MOVLW  0B
06882:  MOVWF  xDF
06884:  CLRF   xE0
06886:  MOVLW  01
06888:  MOVWF  xE1
0688A:  MOVLB  0
0688C:  CALL   5370
....................             glcd_rect(0, 10, 95, 63, NO, ON); 
06890:  MOVLB  5
06892:  CLRF   xF6
06894:  MOVLW  0A
06896:  MOVWF  xF7
06898:  MOVLW  5F
0689A:  MOVWF  xF8
0689C:  MOVLW  3F
0689E:  MOVWF  xF9
068A0:  CLRF   xFA
068A2:  MOVLW  01
068A4:  MOVWF  xFB
068A6:  MOVLB  0
068A8:  CALL   4880
....................             glcd_rect(100, 10, 127, 63, NO, ON); 
068AC:  MOVLW  64
068AE:  MOVLB  5
068B0:  MOVWF  xF6
068B2:  MOVLW  0A
068B4:  MOVWF  xF7
068B6:  MOVLW  7F
068B8:  MOVWF  xF8
068BA:  MOVLW  3F
068BC:  MOVWF  xF9
068BE:  CLRF   xFA
068C0:  MOVLW  01
068C2:  MOVWF  xFB
068C4:  MOVLB  0
068C6:  CALL   4880
....................             glcd_text57(2, 51, Downflowt, 1, ON); 
068CA:  MOVLW  02
068CC:  MOVLB  5
068CE:  MOVWF  xF6
068D0:  MOVLW  33
068D2:  MOVWF  xF7
068D4:  MOVLW  04
068D6:  MOVWF  xF9
068D8:  MOVLW  72
068DA:  MOVWF  xF8
068DC:  MOVLW  01
068DE:  MOVWF  xFA
068E0:  MOVWF  xFB
068E2:  MOVLB  0
068E4:  CALL   4948
....................             glcd_text57(2, 41, Vida_Filtro, 1, ON); 
068E8:  MOVLW  02
068EA:  MOVLB  5
068EC:  MOVWF  xF6
068EE:  MOVLW  29
068F0:  MOVWF  xF7
068F2:  MOVLW  04
068F4:  MOVWF  xF9
068F6:  MOVLW  9C
068F8:  MOVWF  xF8
068FA:  MOVLW  01
068FC:  MOVWF  xFA
068FE:  MOVWF  xFB
06900:  MOVLB  0
06902:  CALL   4948
....................             displayTiempo(Ttrabajo[3],60,41,0,1);displayTiempo(Ttrabajo[2],67,41,0,1);displayTiempo(Ttrabajo[1],74,41,0,1);displayTiempo(Ttrabajo[0],82,41,0,1); 
06906:  MOVFF  508,5DD
0690A:  MOVLW  3C
0690C:  MOVLB  5
0690E:  MOVWF  xDE
06910:  MOVLW  29
06912:  MOVWF  xDF
06914:  CLRF   xE0
06916:  MOVLW  01
06918:  MOVWF  xE1
0691A:  MOVLB  0
0691C:  CALL   5370
06920:  MOVFF  507,5DD
06924:  MOVLW  43
06926:  MOVLB  5
06928:  MOVWF  xDE
0692A:  MOVLW  29
0692C:  MOVWF  xDF
0692E:  CLRF   xE0
06930:  MOVLW  01
06932:  MOVWF  xE1
06934:  MOVLB  0
06936:  CALL   5370
0693A:  MOVFF  506,5DD
0693E:  MOVLW  4A
06940:  MOVLB  5
06942:  MOVWF  xDE
06944:  MOVLW  29
06946:  MOVWF  xDF
06948:  CLRF   xE0
0694A:  MOVLW  01
0694C:  MOVWF  xE1
0694E:  MOVLB  0
06950:  CALL   5370
06954:  MOVFF  505,5DD
06958:  MOVLW  52
0695A:  MOVLB  5
0695C:  MOVWF  xDE
0695E:  MOVLW  29
06960:  MOVWF  xDF
06962:  CLRF   xE0
06964:  MOVLW  01
06966:  MOVWF  xE1
06968:  MOVLB  0
0696A:  CALL   5370
....................             strcpy(Menus.Letra,"JPCEGH120-BB-PP"); 
0696E:  MOVLW  04
06970:  MOVWF  FEA
06972:  MOVLW  16
06974:  MOVWF  FE9
06976:  MOVFF  FF2,5DD
0697A:  BCF    FF2.7
0697C:  MOVLW  00
0697E:  CALL   0F58
06982:  TBLRD*-
06984:  TBLRD*+
06986:  MOVF   FF5,W
06988:  MOVWF  FEE
0698A:  IORLW  00
0698C:  BNZ   6984
0698E:  MOVLB  5
06990:  BTFSC  xDD.7
06992:  BSF    FF2.7
....................             displayMenu(Menus.Letra,20,0,1,1); 
06994:  MOVLW  04
06996:  MOVWF  xE6
06998:  MOVLW  16
0699A:  MOVWF  xE5
0699C:  MOVLW  14
0699E:  MOVWF  xE7
069A0:  CLRF   xE8
069A2:  MOVLW  01
069A4:  MOVWF  xE9
069A6:  MOVWF  xEA
069A8:  MOVLB  0
069AA:  CALL   4BC2
....................             displayfloat(Temperatura,69,50,0,1); 
069AE:  MOVLB  6
069B0:  CLRF   x15
069B2:  MOVFF  5D0,614
069B6:  MOVLB  0
069B8:  CALL   177A
069BC:  MOVFF  00,5DD
069C0:  MOVFF  01,5DE
069C4:  MOVFF  02,5DF
069C8:  MOVFF  03,5E0
069CC:  MOVFF  03,5E4
069D0:  MOVFF  02,5E3
069D4:  MOVFF  01,5E2
069D8:  MOVFF  00,5E1
069DC:  MOVLW  45
069DE:  MOVLB  5
069E0:  MOVWF  xE5
069E2:  MOVLW  32
069E4:  MOVWF  xE6
069E6:  CLRF   xE7
069E8:  MOVLW  01
069EA:  MOVWF  xE8
069EC:  MOVLB  0
069EE:  CALL   5902
....................             imprimir=0; 
069F2:  MOVLB  4
069F4:  BCF    x2C.6
....................          } 
....................                    
....................          if(flag_blower==1){ 
069F6:  BTFSS  x2C.7
069F8:  BRA    6B9E
....................             glcd_imagen(5);tiempo_trabajo=1; 
069FA:  MOVLW  05
069FC:  MOVLB  5
069FE:  MOVWF  xDD
06A00:  MOVLB  0
06A02:  CALL   546C
06A06:  MOVLB  4
06A08:  BSF    x2D.6
....................             if(guardatrabajo==1){ 
06A0A:  BTFSS  x2E.1
06A0C:  BRA    6B90
....................                VelocidadMotor(6); 
06A0E:  MOVLW  06
06A10:  MOVLB  5
06A12:  MOVWF  xDD
06A14:  MOVLB  0
06A16:  CALL   1508
....................                guardatrabajo=0; 
06A1A:  MOVLB  4
06A1C:  BCF    x2E.1
....................                write_eeprom(33,make8(minutos_trabajo,0)); 
06A1E:  MOVFF  4DF,5DD
06A22:  CLRF   FAA
06A24:  MOVLW  21
06A26:  MOVWF  FA9
06A28:  MOVFF  5DD,FA8
06A2C:  BCF    FA6.6
06A2E:  BCF    FA6.7
06A30:  BSF    FA6.2
06A32:  MOVF   FF2,W
06A34:  MOVWF  00
06A36:  BCF    FF2.7
06A38:  MOVLB  F
06A3A:  MOVLW  55
06A3C:  MOVWF  FA7
06A3E:  MOVLW  AA
06A40:  MOVWF  FA7
06A42:  BSF    FA6.1
06A44:  BTFSC  FA6.1
06A46:  BRA    6A44
06A48:  BCF    FA6.2
06A4A:  MOVF   00,W
06A4C:  IORWF  FF2,F
....................                delay_ms(20); 
06A4E:  MOVLW  14
06A50:  MOVLB  5
06A52:  MOVWF  xF1
06A54:  MOVLB  0
06A56:  CALL   14E0
....................                write_eeprom(34,make8(minutos_trabajo,1)); 
06A5A:  MOVFF  4E0,5DD
06A5E:  CLRF   FAA
06A60:  MOVLW  22
06A62:  MOVWF  FA9
06A64:  MOVFF  5DD,FA8
06A68:  BCF    FA6.6
06A6A:  BCF    FA6.7
06A6C:  BSF    FA6.2
06A6E:  MOVF   FF2,W
06A70:  MOVWF  00
06A72:  BCF    FF2.7
06A74:  MOVLB  F
06A76:  MOVLW  55
06A78:  MOVWF  FA7
06A7A:  MOVLW  AA
06A7C:  MOVWF  FA7
06A7E:  BSF    FA6.1
06A80:  BTFSC  FA6.1
06A82:  BRA    6A80
06A84:  BCF    FA6.2
06A86:  MOVF   00,W
06A88:  IORWF  FF2,F
....................                delay_ms(20); 
06A8A:  MOVLW  14
06A8C:  MOVLB  5
06A8E:  MOVWF  xF1
06A90:  MOVLB  0
06A92:  CALL   14E0
....................                write_eeprom(16,Ttrabajo[0]); 
06A96:  CLRF   FAA
06A98:  MOVLW  10
06A9A:  MOVWF  FA9
06A9C:  MOVFF  505,FA8
06AA0:  BCF    FA6.6
06AA2:  BCF    FA6.7
06AA4:  BSF    FA6.2
06AA6:  MOVF   FF2,W
06AA8:  MOVWF  00
06AAA:  BCF    FF2.7
06AAC:  MOVLB  F
06AAE:  MOVLW  55
06AB0:  MOVWF  FA7
06AB2:  MOVLW  AA
06AB4:  MOVWF  FA7
06AB6:  BSF    FA6.1
06AB8:  BTFSC  FA6.1
06ABA:  BRA    6AB8
06ABC:  BCF    FA6.2
06ABE:  MOVF   00,W
06AC0:  IORWF  FF2,F
....................                delay_ms(20); 
06AC2:  MOVLW  14
06AC4:  MOVLB  5
06AC6:  MOVWF  xF1
06AC8:  MOVLB  0
06ACA:  CALL   14E0
....................                write_eeprom(17,Ttrabajo[1]); 
06ACE:  CLRF   FAA
06AD0:  MOVLW  11
06AD2:  MOVWF  FA9
06AD4:  MOVFF  506,FA8
06AD8:  BCF    FA6.6
06ADA:  BCF    FA6.7
06ADC:  BSF    FA6.2
06ADE:  MOVF   FF2,W
06AE0:  MOVWF  00
06AE2:  BCF    FF2.7
06AE4:  MOVLB  F
06AE6:  MOVLW  55
06AE8:  MOVWF  FA7
06AEA:  MOVLW  AA
06AEC:  MOVWF  FA7
06AEE:  BSF    FA6.1
06AF0:  BTFSC  FA6.1
06AF2:  BRA    6AF0
06AF4:  BCF    FA6.2
06AF6:  MOVF   00,W
06AF8:  IORWF  FF2,F
....................                delay_ms(20); 
06AFA:  MOVLW  14
06AFC:  MOVLB  5
06AFE:  MOVWF  xF1
06B00:  MOVLB  0
06B02:  CALL   14E0
....................                write_eeprom(18,Ttrabajo[2]); 
06B06:  CLRF   FAA
06B08:  MOVLW  12
06B0A:  MOVWF  FA9
06B0C:  MOVFF  507,FA8
06B10:  BCF    FA6.6
06B12:  BCF    FA6.7
06B14:  BSF    FA6.2
06B16:  MOVF   FF2,W
06B18:  MOVWF  00
06B1A:  BCF    FF2.7
06B1C:  MOVLB  F
06B1E:  MOVLW  55
06B20:  MOVWF  FA7
06B22:  MOVLW  AA
06B24:  MOVWF  FA7
06B26:  BSF    FA6.1
06B28:  BTFSC  FA6.1
06B2A:  BRA    6B28
06B2C:  BCF    FA6.2
06B2E:  MOVF   00,W
06B30:  IORWF  FF2,F
....................                delay_ms(20); 
06B32:  MOVLW  14
06B34:  MOVLB  5
06B36:  MOVWF  xF1
06B38:  MOVLB  0
06B3A:  CALL   14E0
....................                write_eeprom(19,Ttrabajo[3]); 
06B3E:  CLRF   FAA
06B40:  MOVLW  13
06B42:  MOVWF  FA9
06B44:  MOVFF  508,FA8
06B48:  BCF    FA6.6
06B4A:  BCF    FA6.7
06B4C:  BSF    FA6.2
06B4E:  MOVF   FF2,W
06B50:  MOVWF  00
06B52:  BCF    FF2.7
06B54:  MOVLB  F
06B56:  MOVLW  55
06B58:  MOVWF  FA7
06B5A:  MOVLW  AA
06B5C:  MOVWF  FA7
06B5E:  BSF    FA6.1
06B60:  BTFSC  FA6.1
06B62:  BRA    6B60
06B64:  BCF    FA6.2
06B66:  MOVF   00,W
06B68:  IORWF  FF2,F
....................                delay_ms(20); 
06B6A:  MOVLW  14
06B6C:  MOVLB  5
06B6E:  MOVWF  xF1
06B70:  MOVLB  0
06B72:  CALL   14E0
....................                glcd_init(ON);             //Inicializa la glcd 
06B76:  MOVLW  01
06B78:  MOVLB  5
06B7A:  MOVWF  xDD
06B7C:  MOVLB  0
06B7E:  CALL   16D2
....................                glcd_fillScreen(OFF);      //Limpia la pantalla 
06B82:  MOVLB  5
06B84:  CLRF   xE5
06B86:  MOVLB  0
06B88:  CALL   15C0
....................                glcd_update();   
06B8C:  CALL   161A
....................             } 
....................             VelocidadMotor(VelMotor); 
06B90:  MOVFF  5D4,5DD
06B94:  MOVLB  0
06B96:  CALL   1508
....................          }else{ 
06B9A:  BRA    6D36
06B9C:  MOVLB  4
....................             Filtro_Downflow=0; 
06B9E:  MOVLB  5
06BA0:  CLRF   x1C
06BA2:  CLRF   x1B
06BA4:  CLRF   x1A
06BA6:  CLRF   x19
....................             glcd_rect(102, 45, 126, 62, YES, OFF);tiempo_trabajo=0;VelocidadMotor(0); 
06BA8:  MOVLW  66
06BAA:  MOVWF  xF6
06BAC:  MOVLW  2D
06BAE:  MOVWF  xF7
06BB0:  MOVLW  7E
06BB2:  MOVWF  xF8
06BB4:  MOVLW  3E
06BB6:  MOVWF  xF9
06BB8:  MOVLW  01
06BBA:  MOVWF  xFA
06BBC:  CLRF   xFB
06BBE:  MOVLB  0
06BC0:  CALL   4880
06BC4:  MOVLB  4
06BC6:  BCF    x2D.6
06BC8:  MOVLB  5
06BCA:  CLRF   xDD
06BCC:  MOVLB  0
06BCE:  CALL   1508
....................             if(guardatrabajo==0){ 
06BD2:  MOVLB  4
06BD4:  BTFSC  x2E.1
06BD6:  BRA    6D38
....................                guardatrabajo=1; 
06BD8:  BSF    x2E.1
....................                write_eeprom(33,make8(minutos_trabajo,0)); 
06BDA:  MOVFF  4DF,5DD
06BDE:  CLRF   FAA
06BE0:  MOVLW  21
06BE2:  MOVWF  FA9
06BE4:  MOVFF  5DD,FA8
06BE8:  BCF    FA6.6
06BEA:  BCF    FA6.7
06BEC:  BSF    FA6.2
06BEE:  MOVF   FF2,W
06BF0:  MOVWF  00
06BF2:  BCF    FF2.7
06BF4:  MOVLB  F
06BF6:  MOVLW  55
06BF8:  MOVWF  FA7
06BFA:  MOVLW  AA
06BFC:  MOVWF  FA7
06BFE:  BSF    FA6.1
06C00:  BTFSC  FA6.1
06C02:  BRA    6C00
06C04:  BCF    FA6.2
06C06:  MOVF   00,W
06C08:  IORWF  FF2,F
....................                delay_ms(20); 
06C0A:  MOVLW  14
06C0C:  MOVLB  5
06C0E:  MOVWF  xF1
06C10:  MOVLB  0
06C12:  CALL   14E0
....................                write_eeprom(34,make8(minutos_trabajo,1)); 
06C16:  MOVFF  4E0,5DD
06C1A:  CLRF   FAA
06C1C:  MOVLW  22
06C1E:  MOVWF  FA9
06C20:  MOVFF  5DD,FA8
06C24:  BCF    FA6.6
06C26:  BCF    FA6.7
06C28:  BSF    FA6.2
06C2A:  MOVF   FF2,W
06C2C:  MOVWF  00
06C2E:  BCF    FF2.7
06C30:  MOVLB  F
06C32:  MOVLW  55
06C34:  MOVWF  FA7
06C36:  MOVLW  AA
06C38:  MOVWF  FA7
06C3A:  BSF    FA6.1
06C3C:  BTFSC  FA6.1
06C3E:  BRA    6C3C
06C40:  BCF    FA6.2
06C42:  MOVF   00,W
06C44:  IORWF  FF2,F
....................                delay_ms(20); 
06C46:  MOVLW  14
06C48:  MOVLB  5
06C4A:  MOVWF  xF1
06C4C:  MOVLB  0
06C4E:  CALL   14E0
....................                write_eeprom(16,Ttrabajo[0]); 
06C52:  CLRF   FAA
06C54:  MOVLW  10
06C56:  MOVWF  FA9
06C58:  MOVFF  505,FA8
06C5C:  BCF    FA6.6
06C5E:  BCF    FA6.7
06C60:  BSF    FA6.2
06C62:  MOVF   FF2,W
06C64:  MOVWF  00
06C66:  BCF    FF2.7
06C68:  MOVLB  F
06C6A:  MOVLW  55
06C6C:  MOVWF  FA7
06C6E:  MOVLW  AA
06C70:  MOVWF  FA7
06C72:  BSF    FA6.1
06C74:  BTFSC  FA6.1
06C76:  BRA    6C74
06C78:  BCF    FA6.2
06C7A:  MOVF   00,W
06C7C:  IORWF  FF2,F
....................                delay_ms(20); 
06C7E:  MOVLW  14
06C80:  MOVLB  5
06C82:  MOVWF  xF1
06C84:  MOVLB  0
06C86:  CALL   14E0
....................                write_eeprom(17,Ttrabajo[1]); 
06C8A:  CLRF   FAA
06C8C:  MOVLW  11
06C8E:  MOVWF  FA9
06C90:  MOVFF  506,FA8
06C94:  BCF    FA6.6
06C96:  BCF    FA6.7
06C98:  BSF    FA6.2
06C9A:  MOVF   FF2,W
06C9C:  MOVWF  00
06C9E:  BCF    FF2.7
06CA0:  MOVLB  F
06CA2:  MOVLW  55
06CA4:  MOVWF  FA7
06CA6:  MOVLW  AA
06CA8:  MOVWF  FA7
06CAA:  BSF    FA6.1
06CAC:  BTFSC  FA6.1
06CAE:  BRA    6CAC
06CB0:  BCF    FA6.2
06CB2:  MOVF   00,W
06CB4:  IORWF  FF2,F
....................                delay_ms(20); 
06CB6:  MOVLW  14
06CB8:  MOVLB  5
06CBA:  MOVWF  xF1
06CBC:  MOVLB  0
06CBE:  CALL   14E0
....................                write_eeprom(18,Ttrabajo[2]); 
06CC2:  CLRF   FAA
06CC4:  MOVLW  12
06CC6:  MOVWF  FA9
06CC8:  MOVFF  507,FA8
06CCC:  BCF    FA6.6
06CCE:  BCF    FA6.7
06CD0:  BSF    FA6.2
06CD2:  MOVF   FF2,W
06CD4:  MOVWF  00
06CD6:  BCF    FF2.7
06CD8:  MOVLB  F
06CDA:  MOVLW  55
06CDC:  MOVWF  FA7
06CDE:  MOVLW  AA
06CE0:  MOVWF  FA7
06CE2:  BSF    FA6.1
06CE4:  BTFSC  FA6.1
06CE6:  BRA    6CE4
06CE8:  BCF    FA6.2
06CEA:  MOVF   00,W
06CEC:  IORWF  FF2,F
....................                delay_ms(20); 
06CEE:  MOVLW  14
06CF0:  MOVLB  5
06CF2:  MOVWF  xF1
06CF4:  MOVLB  0
06CF6:  CALL   14E0
....................                write_eeprom(19,Ttrabajo[3]); 
06CFA:  CLRF   FAA
06CFC:  MOVLW  13
06CFE:  MOVWF  FA9
06D00:  MOVFF  508,FA8
06D04:  BCF    FA6.6
06D06:  BCF    FA6.7
06D08:  BSF    FA6.2
06D0A:  MOVF   FF2,W
06D0C:  MOVWF  00
06D0E:  BCF    FF2.7
06D10:  MOVLB  F
06D12:  MOVLW  55
06D14:  MOVWF  FA7
06D16:  MOVLW  AA
06D18:  MOVWF  FA7
06D1A:  BSF    FA6.1
06D1C:  BTFSC  FA6.1
06D1E:  BRA    6D1C
06D20:  BCF    FA6.2
06D22:  MOVF   00,W
06D24:  IORWF  FF2,F
....................                delay_ms(20); 
06D26:  MOVLW  14
06D28:  MOVLB  5
06D2A:  MOVWF  xF1
06D2C:  MOVLB  0
06D2E:  CALL   14E0
....................                //glcd_init(ON);             //Inicializa la glcd 
....................                //glcd_fillScreen(OFF);      //Limpia la pantalla 
....................                glcd_update();   
06D32:  CALL   161A
06D36:  MOVLB  4
....................             } 
....................          } 
....................           
....................          if(flag_luz==1){ 
06D38:  BTFSS  x2D.1
06D3A:  BRA    6D50
....................             glcd_imagen(3);LuzBlanca_on; 
06D3C:  MOVLW  03
06D3E:  MOVLB  5
06D40:  MOVWF  xDD
06D42:  MOVLB  0
06D44:  CALL   546C
06D48:  BSF    F8B.0
06D4A:  BCF    F94.0
....................          }else{ 
06D4C:  BRA    6D72
06D4E:  MOVLB  4
....................             glcd_rect(102, 14, 126, 28, YES, OFF);LuzBlanca_off; 
06D50:  MOVLW  66
06D52:  MOVLB  5
06D54:  MOVWF  xF6
06D56:  MOVLW  0E
06D58:  MOVWF  xF7
06D5A:  MOVLW  7E
06D5C:  MOVWF  xF8
06D5E:  MOVLW  1C
06D60:  MOVWF  xF9
06D62:  MOVLW  01
06D64:  MOVWF  xFA
06D66:  CLRF   xFB
06D68:  MOVLB  0
06D6A:  CALL   4880
06D6E:  BCF    F8B.0
06D70:  BCF    F94.0
....................          } 
....................           
....................       if(tright>=30){ 
06D72:  MOVLB  4
06D74:  MOVF   xE8,F
06D76:  BNZ   6D7E
06D78:  MOVF   xE7,W
06D7A:  SUBLW  1D
06D7C:  BC    6D96
....................          if(Flanco4 == 0){ 
06D7E:  BTFSC  x2C.4
06D80:  BRA    6D94
....................             Flanco4 = 1;delay_ms(3);flag_blower=!flag_blower; 
06D82:  BSF    x2C.4
06D84:  MOVLW  03
06D86:  MOVLB  5
06D88:  MOVWF  xF1
06D8A:  MOVLB  0
06D8C:  CALL   14E0
06D90:  MOVLB  4
06D92:  BTG    x2C.7
....................          } 
....................       }else{ 
06D94:  BRA    6D98
....................          Flanco4 = 0; 
06D96:  BCF    x2C.4
....................       } 
....................           
....................       if(tleft>=30){//Si oprime boton de Blower. 
06D98:  MOVF   xEA,F
06D9A:  BNZ   6DA2
06D9C:  MOVF   xE9,W
06D9E:  SUBLW  1D
06DA0:  BC    6DC8
....................          if(Flanco3 == 0){ 
06DA2:  BTFSC  x2C.3
06DA4:  BRA    6DC6
....................             Flanco3 = 1;delay_ms(3);Menu=33;glcd_fillScreen(OFF);      //Limpia la pantalla 
06DA6:  BSF    x2C.3
06DA8:  MOVLW  03
06DAA:  MOVLB  5
06DAC:  MOVWF  xF1
06DAE:  MOVLB  0
06DB0:  CALL   14E0
06DB4:  MOVLW  21
06DB6:  MOVLB  4
06DB8:  MOVWF  xC7
06DBA:  MOVLB  5
06DBC:  CLRF   xE5
06DBE:  MOVLB  0
06DC0:  CALL   15C0
06DC4:  MOVLB  4
....................          } 
....................       }else{ 
06DC6:  BRA    6DCA
....................          Flanco3 = 0; 
06DC8:  BCF    x2C.3
....................       } 
....................              
....................       if(tdown>=30){//Si oprime boton de Luz Blanca. 
06DCA:  MOVF   xE6,F
06DCC:  BNZ   6DD4
06DCE:  MOVF   xE5,W
06DD0:  SUBLW  1D
06DD2:  BC    6DEC
....................          if(Flanco5 == 0){ 
06DD4:  BTFSC  x2C.5
06DD6:  BRA    6DEA
....................             Flanco5 = 1;delay_ms(3);flag_luz=!flag_luz; 
06DD8:  BSF    x2C.5
06DDA:  MOVLW  03
06DDC:  MOVLB  5
06DDE:  MOVWF  xF1
06DE0:  MOVLB  0
06DE2:  CALL   14E0
06DE6:  MOVLB  4
06DE8:  BTG    x2D.1
....................          } 
....................       }else{ 
06DEA:  BRA    6DEE
....................          Flanco5 = 0; 
06DEC:  BCF    x2C.5
....................       } 
....................        
....................       if(tup>=30){//Si oprime boton de Toma. 
06DEE:  MOVF   xE4,F
06DF0:  BNZ   6DF8
06DF2:  MOVF   xE3,W
06DF4:  SUBLW  1D
06DF6:  BC    6E3C
....................          delay_ms(20); 
06DF8:  MOVLW  14
06DFA:  MOVLB  5
06DFC:  MOVWF  xF1
06DFE:  MOVLB  0
06E00:  CALL   14E0
....................          if(UP){//Si oprime boton de Toma. 
06E04:  BSF    F92.5
06E06:  BTFSC  F80.5
06E08:  BRA    6E3A
....................             delay_ms(5);Menu=3;//glcd_fillScreen(OFF); 
06E0A:  MOVLW  05
06E0C:  MOVLB  5
06E0E:  MOVWF  xF1
06E10:  MOVLB  0
06E12:  CALL   14E0
06E16:  MOVLW  03
06E18:  MOVLB  4
06E1A:  MOVWF  xC7
....................             glcd_init(ON);             //Inicializa la glcd 
06E1C:  MOVLW  01
06E1E:  MOVLB  5
06E20:  MOVWF  xDD
06E22:  MOVLB  0
06E24:  CALL   16D2
....................             glcd_fillScreen(OFF);      //Limpia la pantalla 
06E28:  MOVLB  5
06E2A:  CLRF   xE5
06E2C:  MOVLB  0
06E2E:  CALL   15C0
....................             glcd_update();   
06E32:  CALL   161A
....................             LuzBlanca_off; 
06E36:  BCF    F8B.0
06E38:  BCF    F94.0
06E3A:  MOVLB  4
....................          } 
....................       } 
....................              
....................     } 
.................... //_--------------------------------------------------------------------------------------------------------------------------------------------------------        
....................  
.................... //_-------------------------------------------------------------------------------------------------------------------------------------------------------- 
....................       if(Menu==3){ //Menu Principal. 
06E3C:  MOVF   xC7,W
06E3E:  SUBLW  03
06E40:  BTFSS  FD8.2
06E42:  BRA    712A
....................              
....................       strcpy(Menus.Letra,"Menu"); 
06E44:  MOVLW  04
06E46:  MOVWF  FEA
06E48:  MOVLW  16
06E4A:  MOVWF  FE9
06E4C:  MOVFF  FF2,5DD
06E50:  BCF    FF2.7
06E52:  MOVLW  00
06E54:  MOVLB  0
06E56:  CALL   0F82
06E5A:  TBLRD*-
06E5C:  TBLRD*+
06E5E:  MOVF   FF5,W
06E60:  MOVWF  FEE
06E62:  IORLW  00
06E64:  BNZ   6E5C
06E66:  MOVLB  5
06E68:  BTFSC  xDD.7
06E6A:  BSF    FF2.7
....................       displayMenu(Menus.Letra,40,0,1,2); 
06E6C:  MOVLW  04
06E6E:  MOVWF  xE6
06E70:  MOVLW  16
06E72:  MOVWF  xE5
06E74:  MOVLW  28
06E76:  MOVWF  xE7
06E78:  CLRF   xE8
06E7A:  MOVLW  01
06E7C:  MOVWF  xE9
06E7E:  MOVLW  02
06E80:  MOVWF  xEA
06E82:  MOVLB  0
06E84:  CALL   4BC2
....................        
....................       if(Opcion==1){ 
06E88:  MOVLB  4
06E8A:  DECFSZ xC9,W
06E8C:  BRA    6ED4
....................          strcpy(Menus.Letra,"Ajustes"); 
06E8E:  MOVLW  04
06E90:  MOVWF  FEA
06E92:  MOVLW  16
06E94:  MOVWF  FE9
06E96:  MOVFF  FF2,5DD
06E9A:  BCF    FF2.7
06E9C:  MOVLW  00
06E9E:  MOVLB  0
06EA0:  CALL   0FA2
06EA4:  TBLRD*-
06EA6:  TBLRD*+
06EA8:  MOVF   FF5,W
06EAA:  MOVWF  FEE
06EAC:  IORLW  00
06EAE:  BNZ   6EA6
06EB0:  MOVLB  5
06EB2:  BTFSC  xDD.7
06EB4:  BSF    FF2.7
....................          displayMenu(Menus.Letra,0,19,1,1); 
06EB6:  MOVLW  04
06EB8:  MOVWF  xE6
06EBA:  MOVLW  16
06EBC:  MOVWF  xE5
06EBE:  CLRF   xE7
06EC0:  MOVLW  13
06EC2:  MOVWF  xE8
06EC4:  MOVLW  01
06EC6:  MOVWF  xE9
06EC8:  MOVWF  xEA
06ECA:  MOVLB  0
06ECC:  CALL   4BC2
....................       }else{ 
06ED0:  BRA    6F16
06ED2:  MOVLB  4
....................          strcpy(Menus.Letra,"Ajustes"); 
06ED4:  MOVLW  04
06ED6:  MOVWF  FEA
06ED8:  MOVLW  16
06EDA:  MOVWF  FE9
06EDC:  MOVFF  FF2,5DD
06EE0:  BCF    FF2.7
06EE2:  MOVLW  00
06EE4:  MOVLB  0
06EE6:  CALL   0FA2
06EEA:  TBLRD*-
06EEC:  TBLRD*+
06EEE:  MOVF   FF5,W
06EF0:  MOVWF  FEE
06EF2:  IORLW  00
06EF4:  BNZ   6EEC
06EF6:  MOVLB  5
06EF8:  BTFSC  xDD.7
06EFA:  BSF    FF2.7
....................          displayMenu(Menus.Letra,0,19,0,1); 
06EFC:  MOVLW  04
06EFE:  MOVWF  xE6
06F00:  MOVLW  16
06F02:  MOVWF  xE5
06F04:  CLRF   xE7
06F06:  MOVLW  13
06F08:  MOVWF  xE8
06F0A:  CLRF   xE9
06F0C:  MOVLW  01
06F0E:  MOVWF  xEA
06F10:  MOVLB  0
06F12:  CALL   4BC2
....................       } 
....................           
....................       if(Opcion==2){ 
06F16:  MOVLB  4
06F18:  MOVF   xC9,W
06F1A:  SUBLW  02
06F1C:  BNZ   6F64
....................          strcpy(Menus.Letra,"Cambio de Clave"); 
06F1E:  MOVLW  04
06F20:  MOVWF  FEA
06F22:  MOVLW  16
06F24:  MOVWF  FE9
06F26:  MOVFF  FF2,5DD
06F2A:  BCF    FF2.7
06F2C:  MOVLW  00
06F2E:  MOVLB  0
06F30:  CALL   0FC4
06F34:  TBLRD*-
06F36:  TBLRD*+
06F38:  MOVF   FF5,W
06F3A:  MOVWF  FEE
06F3C:  IORLW  00
06F3E:  BNZ   6F36
06F40:  MOVLB  5
06F42:  BTFSC  xDD.7
06F44:  BSF    FF2.7
....................          displayMenu(Menus.Letra,0,35,1,1); 
06F46:  MOVLW  04
06F48:  MOVWF  xE6
06F4A:  MOVLW  16
06F4C:  MOVWF  xE5
06F4E:  CLRF   xE7
06F50:  MOVLW  23
06F52:  MOVWF  xE8
06F54:  MOVLW  01
06F56:  MOVWF  xE9
06F58:  MOVWF  xEA
06F5A:  MOVLB  0
06F5C:  CALL   4BC2
....................       }else{ 
06F60:  BRA    6FA6
06F62:  MOVLB  4
....................          strcpy(Menus.Letra,"Cambio de Clave"); 
06F64:  MOVLW  04
06F66:  MOVWF  FEA
06F68:  MOVLW  16
06F6A:  MOVWF  FE9
06F6C:  MOVFF  FF2,5DD
06F70:  BCF    FF2.7
06F72:  MOVLW  00
06F74:  MOVLB  0
06F76:  CALL   0FC4
06F7A:  TBLRD*-
06F7C:  TBLRD*+
06F7E:  MOVF   FF5,W
06F80:  MOVWF  FEE
06F82:  IORLW  00
06F84:  BNZ   6F7C
06F86:  MOVLB  5
06F88:  BTFSC  xDD.7
06F8A:  BSF    FF2.7
....................          displayMenu(Menus.Letra,0,35,0,1); 
06F8C:  MOVLW  04
06F8E:  MOVWF  xE6
06F90:  MOVLW  16
06F92:  MOVWF  xE5
06F94:  CLRF   xE7
06F96:  MOVLW  23
06F98:  MOVWF  xE8
06F9A:  CLRF   xE9
06F9C:  MOVLW  01
06F9E:  MOVWF  xEA
06FA0:  MOVLB  0
06FA2:  CALL   4BC2
....................       } 
....................           
....................       if(Opcion==3){ 
06FA6:  MOVLB  4
06FA8:  MOVF   xC9,W
06FAA:  SUBLW  03
06FAC:  BNZ   6FF4
....................          strcpy(Menus.Letra,"Modo"); 
06FAE:  MOVLW  04
06FB0:  MOVWF  FEA
06FB2:  MOVLW  16
06FB4:  MOVWF  FE9
06FB6:  MOVFF  FF2,5DD
06FBA:  BCF    FF2.7
06FBC:  MOVLW  00
06FBE:  MOVLB  0
06FC0:  CALL   0FEE
06FC4:  TBLRD*-
06FC6:  TBLRD*+
06FC8:  MOVF   FF5,W
06FCA:  MOVWF  FEE
06FCC:  IORLW  00
06FCE:  BNZ   6FC6
06FD0:  MOVLB  5
06FD2:  BTFSC  xDD.7
06FD4:  BSF    FF2.7
....................          displayMenu(Menus.Letra,0,51,1,1); 
06FD6:  MOVLW  04
06FD8:  MOVWF  xE6
06FDA:  MOVLW  16
06FDC:  MOVWF  xE5
06FDE:  CLRF   xE7
06FE0:  MOVLW  33
06FE2:  MOVWF  xE8
06FE4:  MOVLW  01
06FE6:  MOVWF  xE9
06FE8:  MOVWF  xEA
06FEA:  MOVLB  0
06FEC:  CALL   4BC2
....................       }else{ 
06FF0:  BRA    7036
06FF2:  MOVLB  4
....................          strcpy(Menus.Letra,"Modo"); 
06FF4:  MOVLW  04
06FF6:  MOVWF  FEA
06FF8:  MOVLW  16
06FFA:  MOVWF  FE9
06FFC:  MOVFF  FF2,5DD
07000:  BCF    FF2.7
07002:  MOVLW  00
07004:  MOVLB  0
07006:  CALL   0FEE
0700A:  TBLRD*-
0700C:  TBLRD*+
0700E:  MOVF   FF5,W
07010:  MOVWF  FEE
07012:  IORLW  00
07014:  BNZ   700C
07016:  MOVLB  5
07018:  BTFSC  xDD.7
0701A:  BSF    FF2.7
....................          displayMenu(Menus.Letra,0,51,0,1); 
0701C:  MOVLW  04
0701E:  MOVWF  xE6
07020:  MOVLW  16
07022:  MOVWF  xE5
07024:  CLRF   xE7
07026:  MOVLW  33
07028:  MOVWF  xE8
0702A:  CLRF   xE9
0702C:  MOVLW  01
0702E:  MOVWF  xEA
07030:  MOVLB  0
07032:  CALL   4BC2
....................       } 
....................       glcd_update();  
07036:  CALL   161A
....................        
....................       if(w==0){ 
0703A:  MOVLB  4
0703C:  BTFSC  x2D.3
0703E:  BRA    705A
....................          delay_ms(500);w=1; 
07040:  MOVLW  02
07042:  MOVLB  5
07044:  MOVWF  xDD
07046:  MOVLW  FA
07048:  MOVWF  xF1
0704A:  MOVLB  0
0704C:  CALL   14E0
07050:  MOVLB  5
07052:  DECFSZ xDD,F
07054:  BRA    7046
07056:  MOVLB  4
07058:  BSF    x2D.3
....................       } 
....................           
....................       if(UP){//Si oprime hacia arriba         
0705A:  BSF    F92.5
0705C:  BTFSC  F80.5
0705E:  BRA    7078
....................          if(Flanco == 0){ 
07060:  BTFSC  x2C.0
07062:  BRA    7076
....................             Flanco = 1;delay_ms(30);Opcion--; 
07064:  BSF    x2C.0
07066:  MOVLW  1E
07068:  MOVLB  5
0706A:  MOVWF  xF1
0706C:  MOVLB  0
0706E:  CALL   14E0
07072:  MOVLB  4
07074:  DECF   xC9,F
....................          } 
....................       }else{ 
07076:  BRA    707A
....................          Flanco = 0; 
07078:  BCF    x2C.0
....................       } 
....................              
....................       if(DOWN){//Si oprime hacia abajo 
0707A:  BSF    F96.0
0707C:  BTFSC  F84.0
0707E:  BRA    7098
....................          if(Flanco2 == 0){ 
07080:  BTFSC  x2C.2
07082:  BRA    7096
....................             Flanco2 = 1;delay_ms(30);Opcion++; 
07084:  BSF    x2C.2
07086:  MOVLW  1E
07088:  MOVLB  5
0708A:  MOVWF  xF1
0708C:  MOVLB  0
0708E:  CALL   14E0
07092:  MOVLB  4
07094:  INCF   xC9,F
....................          } 
....................       }else{ 
07096:  BRA    709A
....................          Flanco2 = 0; 
07098:  BCF    x2C.2
....................       } 
....................              
....................       if(RIGHT){//Si oprime SET 
0709A:  BSF    F96.1
0709C:  BTFSC  F84.1
0709E:  BRA    70E8
....................          if(Flanco1 == 0){ 
070A0:  BTFSC  x2C.1
070A2:  BRA    70E6
....................             Flanco1 = 1;delay_ms(500);Menu=Opcion+3;Opcion=1;glcd_fillscreen(OFF);unidad=1; 
070A4:  BSF    x2C.1
070A6:  MOVLW  02
070A8:  MOVLB  5
070AA:  MOVWF  xDD
070AC:  MOVLW  FA
070AE:  MOVWF  xF1
070B0:  MOVLB  0
070B2:  CALL   14E0
070B6:  MOVLB  5
070B8:  DECFSZ xDD,F
070BA:  BRA    70AC
070BC:  MOVLW  03
070BE:  MOVLB  4
070C0:  ADDWF  xC9,W
070C2:  MOVWF  xC7
070C4:  MOVLW  01
070C6:  MOVWF  xC9
070C8:  MOVLB  5
070CA:  CLRF   xE5
070CC:  MOVLB  0
070CE:  CALL   15C0
070D2:  MOVLW  01
070D4:  MOVLB  4
070D6:  MOVWF  xC8
....................             Contrasena[0]=0;Contrasena[1]=0;Contrasena[2]=0;Contrasena[3]=0;n=0; 
070D8:  MOVLB  5
070DA:  CLRF   x09
070DC:  CLRF   x0A
070DE:  CLRF   x0B
070E0:  CLRF   x0C
070E2:  MOVLB  4
070E4:  BCF    x2E.3
....................          } 
....................       }else{ 
070E6:  BRA    70EA
....................          Flanco1 = 0; 
070E8:  BCF    x2C.1
....................       } 
....................              
....................       if(LEFT){//Si oprime boton de Toma. 
070EA:  BSF    F96.2
070EC:  BTFSC  F84.2
070EE:  BRA    7118
....................          delay_ms(700);Menu=2;glcd_fillscreen(OFF); 
070F0:  MOVLW  04
070F2:  MOVLB  5
070F4:  MOVWF  xDD
070F6:  MOVLW  AF
070F8:  MOVWF  xF1
070FA:  MOVLB  0
070FC:  CALL   14E0
07100:  MOVLB  5
07102:  DECFSZ xDD,F
07104:  BRA    70F6
07106:  MOVLW  02
07108:  MOVLB  4
0710A:  MOVWF  xC7
0710C:  MOVLB  5
0710E:  CLRF   xE5
07110:  MOVLB  0
07112:  CALL   15C0
07116:  MOVLB  4
....................       } 
....................              
....................       if(Opcion>3) 
07118:  MOVF   xC9,W
0711A:  SUBLW  03
0711C:  BC    7122
....................          Opcion=1; 
0711E:  MOVLW  01
07120:  MOVWF  xC9
....................       if(Opcion<1) 
07122:  MOVF   xC9,F
07124:  BNZ   712A
....................          Opcion=3; 
07126:  MOVLW  03
07128:  MOVWF  xC9
....................     } 
.................... //_--------------------------------------------------------------------------------------------------------------------------------------------------------        
....................  
.................... //_-------------------------------------------------------------------------------------------------------------------------------------------------------- 
....................       if(Menu==4){ //Menu de Ajustes. 
0712A:  MOVF   xC7,W
0712C:  SUBLW  04
0712E:  BTFSS  FD8.2
07130:  BRA    73E0
....................        
....................       strcpy(Menus.Letra,"Ajustes"); 
07132:  MOVLW  04
07134:  MOVWF  FEA
07136:  MOVLW  16
07138:  MOVWF  FE9
0713A:  MOVFF  FF2,5DD
0713E:  BCF    FF2.7
07140:  MOVLW  00
07142:  MOVLB  0
07144:  CALL   0FA2
07148:  TBLRD*-
0714A:  TBLRD*+
0714C:  MOVF   FF5,W
0714E:  MOVWF  FEE
07150:  IORLW  00
07152:  BNZ   714A
07154:  MOVLB  5
07156:  BTFSC  xDD.7
07158:  BSF    FF2.7
....................       displayMenu(Menus.Letra,0,0,1,2); 
0715A:  MOVLW  04
0715C:  MOVWF  xE6
0715E:  MOVLW  16
07160:  MOVWF  xE5
07162:  CLRF   xE7
07164:  CLRF   xE8
07166:  MOVLW  01
07168:  MOVWF  xE9
0716A:  MOVLW  02
0716C:  MOVWF  xEA
0716E:  MOVLB  0
07170:  CALL   4BC2
....................        
....................       if(Opcion==1)    
07174:  MOVLB  4
07176:  DECFSZ xC9,W
07178:  BRA    71C0
....................          {strcpy(Menus.Letra,"Tiempo Purga"); 
0717A:  MOVLW  04
0717C:  MOVWF  FEA
0717E:  MOVLW  16
07180:  MOVWF  FE9
07182:  MOVFF  FF2,5DD
07186:  BCF    FF2.7
07188:  MOVLW  00
0718A:  MOVLB  0
0718C:  CALL   100E
07190:  TBLRD*-
07192:  TBLRD*+
07194:  MOVF   FF5,W
07196:  MOVWF  FEE
07198:  IORLW  00
0719A:  BNZ   7192
0719C:  MOVLB  5
0719E:  BTFSC  xDD.7
071A0:  BSF    FF2.7
....................          displayMenu(Menus.Letra,0,20,1,1);} 
071A2:  MOVLW  04
071A4:  MOVWF  xE6
071A6:  MOVLW  16
071A8:  MOVWF  xE5
071AA:  CLRF   xE7
071AC:  MOVLW  14
071AE:  MOVWF  xE8
071B0:  MOVLW  01
071B2:  MOVWF  xE9
071B4:  MOVWF  xEA
071B6:  MOVLB  0
071B8:  CALL   4BC2
....................       else 
071BC:  BRA    7202
071BE:  MOVLB  4
....................          {strcpy(Menus.Letra,"Tiempo Purga"); 
071C0:  MOVLW  04
071C2:  MOVWF  FEA
071C4:  MOVLW  16
071C6:  MOVWF  FE9
071C8:  MOVFF  FF2,5DD
071CC:  BCF    FF2.7
071CE:  MOVLW  00
071D0:  MOVLB  0
071D2:  CALL   100E
071D6:  TBLRD*-
071D8:  TBLRD*+
071DA:  MOVF   FF5,W
071DC:  MOVWF  FEE
071DE:  IORLW  00
071E0:  BNZ   71D8
071E2:  MOVLB  5
071E4:  BTFSC  xDD.7
071E6:  BSF    FF2.7
....................          displayMenu(Menus.Letra,0,20,0,1);}              
071E8:  MOVLW  04
071EA:  MOVWF  xE6
071EC:  MOVLW  16
071EE:  MOVWF  xE5
071F0:  CLRF   xE7
071F2:  MOVLW  14
071F4:  MOVWF  xE8
071F6:  CLRF   xE9
071F8:  MOVLW  01
071FA:  MOVWF  xEA
071FC:  MOVLB  0
071FE:  CALL   4BC2
....................        
....................       if(Opcion==2)    
07202:  MOVLB  4
07204:  MOVF   xC9,W
07206:  SUBLW  02
07208:  BNZ   7250
....................          {strcpy(Menus.Letra,"Tiempo Post-Purga"); 
0720A:  MOVLW  04
0720C:  MOVWF  FEA
0720E:  MOVLW  16
07210:  MOVWF  FE9
07212:  MOVFF  FF2,5DD
07216:  BCF    FF2.7
07218:  MOVLW  00
0721A:  MOVLB  0
0721C:  CALL   1036
07220:  TBLRD*-
07222:  TBLRD*+
07224:  MOVF   FF5,W
07226:  MOVWF  FEE
07228:  IORLW  00
0722A:  BNZ   7222
0722C:  MOVLB  5
0722E:  BTFSC  xDD.7
07230:  BSF    FF2.7
....................          displayMenu(Menus.Letra,0,35,1,1);} 
07232:  MOVLW  04
07234:  MOVWF  xE6
07236:  MOVLW  16
07238:  MOVWF  xE5
0723A:  CLRF   xE7
0723C:  MOVLW  23
0723E:  MOVWF  xE8
07240:  MOVLW  01
07242:  MOVWF  xE9
07244:  MOVWF  xEA
07246:  MOVLB  0
07248:  CALL   4BC2
....................       else 
0724C:  BRA    7292
0724E:  MOVLB  4
....................          {strcpy(Menus.Letra,"Tiempo Post-Purga"); 
07250:  MOVLW  04
07252:  MOVWF  FEA
07254:  MOVLW  16
07256:  MOVWF  FE9
07258:  MOVFF  FF2,5DD
0725C:  BCF    FF2.7
0725E:  MOVLW  00
07260:  MOVLB  0
07262:  CALL   1036
07266:  TBLRD*-
07268:  TBLRD*+
0726A:  MOVF   FF5,W
0726C:  MOVWF  FEE
0726E:  IORLW  00
07270:  BNZ   7268
07272:  MOVLB  5
07274:  BTFSC  xDD.7
07276:  BSF    FF2.7
....................          displayMenu(Menus.Letra,0,35,0,1);} 
07278:  MOVLW  04
0727A:  MOVWF  xE6
0727C:  MOVLW  16
0727E:  MOVWF  xE5
07280:  CLRF   xE7
07282:  MOVLW  23
07284:  MOVWF  xE8
07286:  CLRF   xE9
07288:  MOVLW  01
0728A:  MOVWF  xEA
0728C:  MOVLB  0
0728E:  CALL   4BC2
....................        
....................       if(Opcion==3)    
07292:  MOVLB  4
07294:  MOVF   xC9,W
07296:  SUBLW  03
07298:  BNZ   72E0
....................          {strcpy(Menus.Letra,"Luz UV"); 
0729A:  MOVLW  04
0729C:  MOVWF  FEA
0729E:  MOVLW  16
072A0:  MOVWF  FE9
072A2:  MOVFF  FF2,5DD
072A6:  BCF    FF2.7
072A8:  MOVLW  00
072AA:  MOVLB  0
072AC:  CALL   1062
072B0:  TBLRD*-
072B2:  TBLRD*+
072B4:  MOVF   FF5,W
072B6:  MOVWF  FEE
072B8:  IORLW  00
072BA:  BNZ   72B2
072BC:  MOVLB  5
072BE:  BTFSC  xDD.7
072C0:  BSF    FF2.7
....................          displayMenu(Menus.Letra,0,50,1,1);} 
072C2:  MOVLW  04
072C4:  MOVWF  xE6
072C6:  MOVLW  16
072C8:  MOVWF  xE5
072CA:  CLRF   xE7
072CC:  MOVLW  32
072CE:  MOVWF  xE8
072D0:  MOVLW  01
072D2:  MOVWF  xE9
072D4:  MOVWF  xEA
072D6:  MOVLB  0
072D8:  CALL   4BC2
....................       else 
072DC:  BRA    7322
072DE:  MOVLB  4
....................          {strcpy(Menus.Letra,"Luz UV"); 
072E0:  MOVLW  04
072E2:  MOVWF  FEA
072E4:  MOVLW  16
072E6:  MOVWF  FE9
072E8:  MOVFF  FF2,5DD
072EC:  BCF    FF2.7
072EE:  MOVLW  00
072F0:  MOVLB  0
072F2:  CALL   1062
072F6:  TBLRD*-
072F8:  TBLRD*+
072FA:  MOVF   FF5,W
072FC:  MOVWF  FEE
072FE:  IORLW  00
07300:  BNZ   72F8
07302:  MOVLB  5
07304:  BTFSC  xDD.7
07306:  BSF    FF2.7
....................          displayMenu(Menus.Letra,0,50,0,1);}    
07308:  MOVLW  04
0730A:  MOVWF  xE6
0730C:  MOVLW  16
0730E:  MOVWF  xE5
07310:  CLRF   xE7
07312:  MOVLW  32
07314:  MOVWF  xE8
07316:  CLRF   xE9
07318:  MOVLW  01
0731A:  MOVWF  xEA
0731C:  MOVLB  0
0731E:  CALL   4BC2
....................           
....................       if(UP)//Si oprime hacia arriba 
07322:  BSF    F92.5
07324:  BTFSC  F80.5
07326:  BRA    7342
....................       {  if(Flanco == 0)  
07328:  MOVLB  4
0732A:  BTFSC  x2C.0
0732C:  BRA    7340
....................             {Flanco = 1;delay_ms(30);Opcion--; 
0732E:  BSF    x2C.0
07330:  MOVLW  1E
07332:  MOVLB  5
07334:  MOVWF  xF1
07336:  MOVLB  0
07338:  CALL   14E0
0733C:  MOVLB  4
0733E:  DECF   xC9,F
....................             } 
....................       } 
....................          else 
07340:  BRA    7346
....................             {Flanco = 0;} 
07342:  MOVLB  4
07344:  BCF    x2C.0
....................              
....................       if(DOWN)//Si oprime hacia abajo 
07346:  BSF    F96.0
07348:  BTFSC  F84.0
0734A:  BRA    7364
....................       {  if(Flanco2 == 0)  
0734C:  BTFSC  x2C.2
0734E:  BRA    7362
....................             {Flanco2 = 1;delay_ms(30);Opcion++; 
07350:  BSF    x2C.2
07352:  MOVLW  1E
07354:  MOVLB  5
07356:  MOVWF  xF1
07358:  MOVLB  0
0735A:  CALL   14E0
0735E:  MOVLB  4
07360:  INCF   xC9,F
....................             }      
....................       } 
....................          else 
07362:  BRA    7366
....................             {Flanco2 = 0;}   
07364:  BCF    x2C.2
....................              
....................       if(RIGHT)//Si oprime SET 
07366:  BSF    F96.1
07368:  BTFSC  F84.1
0736A:  BRA    739E
....................       {  if(Flanco1 == 0)  
0736C:  BTFSC  x2C.1
0736E:  BRA    739C
....................             {Flanco1 = 1;delay_ms(500);Menu=Opcion+10;glcd_fillScreen(OFF); 
07370:  BSF    x2C.1
07372:  MOVLW  02
07374:  MOVLB  5
07376:  MOVWF  xDD
07378:  MOVLW  FA
0737A:  MOVWF  xF1
0737C:  MOVLB  0
0737E:  CALL   14E0
07382:  MOVLB  5
07384:  DECFSZ xDD,F
07386:  BRA    7378
07388:  MOVLW  0A
0738A:  MOVLB  4
0738C:  ADDWF  xC9,W
0738E:  MOVWF  xC7
07390:  MOVLB  5
07392:  CLRF   xE5
07394:  MOVLB  0
07396:  CALL   15C0
0739A:  MOVLB  4
....................             } 
....................       } 
....................          else 
0739C:  BRA    73A0
....................             {Flanco1 = 0;}   
0739E:  BCF    x2C.1
....................              
....................       if(LEFT)//Si oprime boton de Toma. 
073A0:  BSF    F96.2
073A2:  BTFSC  F84.2
073A4:  BRA    73CE
....................         {delay_ms(700);Menu=3;glcd_fillscreen(OFF);} 
073A6:  MOVLW  04
073A8:  MOVLB  5
073AA:  MOVWF  xDD
073AC:  MOVLW  AF
073AE:  MOVWF  xF1
073B0:  MOVLB  0
073B2:  CALL   14E0
073B6:  MOVLB  5
073B8:  DECFSZ xDD,F
073BA:  BRA    73AC
073BC:  MOVLW  03
073BE:  MOVLB  4
073C0:  MOVWF  xC7
073C2:  MOVLB  5
073C4:  CLRF   xE5
073C6:  MOVLB  0
073C8:  CALL   15C0
073CC:  MOVLB  4
....................        
....................       if(Opcion>3) 
073CE:  MOVF   xC9,W
073D0:  SUBLW  03
073D2:  BC    73D8
....................       {Opcion=1;} 
073D4:  MOVLW  01
073D6:  MOVWF  xC9
....................       if(Opcion<1) 
073D8:  MOVF   xC9,F
073DA:  BNZ   73E0
....................       {Opcion=3;} 
073DC:  MOVLW  03
073DE:  MOVWF  xC9
....................      
....................     } 
.................... //_--------------------------------------------------------------------------------------------------------------------------------------------------------        
....................  
.................... //_-------------------------------------------------------------------------------------------------------------------------------------------------------- 
....................       if(Menu==6){ //Menu de Modo. 
073E0:  MOVF   xC7,W
073E2:  SUBLW  06
073E4:  BTFSS  FD8.2
073E6:  BRA    760E
....................        
....................       strcpy(Menus.Letra,"Modo"); 
073E8:  MOVLW  04
073EA:  MOVWF  FEA
073EC:  MOVLW  16
073EE:  MOVWF  FE9
073F0:  MOVFF  FF2,5DD
073F4:  BCF    FF2.7
073F6:  MOVLW  00
073F8:  MOVLB  0
073FA:  CALL   0FEE
073FE:  TBLRD*-
07400:  TBLRD*+
07402:  MOVF   FF5,W
07404:  MOVWF  FEE
07406:  IORLW  00
07408:  BNZ   7400
0740A:  MOVLB  5
0740C:  BTFSC  xDD.7
0740E:  BSF    FF2.7
....................       displayMenu(Menus.Letra,40,0,1,2); 
07410:  MOVLW  04
07412:  MOVWF  xE6
07414:  MOVLW  16
07416:  MOVWF  xE5
07418:  MOVLW  28
0741A:  MOVWF  xE7
0741C:  CLRF   xE8
0741E:  MOVLW  01
07420:  MOVWF  xE9
07422:  MOVLW  02
07424:  MOVWF  xEA
07426:  MOVLB  0
07428:  CALL   4BC2
....................           
....................       if(Opcion==1)    
0742C:  MOVLB  4
0742E:  DECFSZ xC9,W
07430:  BRA    7478
....................          {strcpy(Menus.Letra,"Mantenimiento"); 
07432:  MOVLW  04
07434:  MOVWF  FEA
07436:  MOVLW  16
07438:  MOVWF  FE9
0743A:  MOVFF  FF2,5DD
0743E:  BCF    FF2.7
07440:  MOVLW  00
07442:  MOVLB  0
07444:  CALL   1084
07448:  TBLRD*-
0744A:  TBLRD*+
0744C:  MOVF   FF5,W
0744E:  MOVWF  FEE
07450:  IORLW  00
07452:  BNZ   744A
07454:  MOVLB  5
07456:  BTFSC  xDD.7
07458:  BSF    FF2.7
....................          displayMenu(Menus.Letra,0,19,1,1);} 
0745A:  MOVLW  04
0745C:  MOVWF  xE6
0745E:  MOVLW  16
07460:  MOVWF  xE5
07462:  CLRF   xE7
07464:  MOVLW  13
07466:  MOVWF  xE8
07468:  MOVLW  01
0746A:  MOVWF  xE9
0746C:  MOVWF  xEA
0746E:  MOVLB  0
07470:  CALL   4BC2
....................       else 
07474:  BRA    74BA
07476:  MOVLB  4
....................          {strcpy(Menus.Letra,"Mantenimiento"); 
07478:  MOVLW  04
0747A:  MOVWF  FEA
0747C:  MOVLW  16
0747E:  MOVWF  FE9
07480:  MOVFF  FF2,5DD
07484:  BCF    FF2.7
07486:  MOVLW  00
07488:  MOVLB  0
0748A:  CALL   1084
0748E:  TBLRD*-
07490:  TBLRD*+
07492:  MOVF   FF5,W
07494:  MOVWF  FEE
07496:  IORLW  00
07498:  BNZ   7490
0749A:  MOVLB  5
0749C:  BTFSC  xDD.7
0749E:  BSF    FF2.7
....................          displayMenu(Menus.Letra,0,19,0,1);}    
074A0:  MOVLW  04
074A2:  MOVWF  xE6
074A4:  MOVLW  16
074A6:  MOVWF  xE5
074A8:  CLRF   xE7
074AA:  MOVLW  13
074AC:  MOVWF  xE8
074AE:  CLRF   xE9
074B0:  MOVLW  01
074B2:  MOVWF  xEA
074B4:  MOVLB  0
074B6:  CALL   4BC2
....................           
....................       if(Opcion==2)    
074BA:  MOVLB  4
074BC:  MOVF   xC9,W
074BE:  SUBLW  02
074C0:  BNZ   7508
....................          {strcpy(Menus.Letra,"Servicio"); 
074C2:  MOVLW  04
074C4:  MOVWF  FEA
074C6:  MOVLW  16
074C8:  MOVWF  FE9
074CA:  MOVFF  FF2,5DD
074CE:  BCF    FF2.7
074D0:  MOVLW  00
074D2:  MOVLB  0
074D4:  CALL   10AC
074D8:  TBLRD*-
074DA:  TBLRD*+
074DC:  MOVF   FF5,W
074DE:  MOVWF  FEE
074E0:  IORLW  00
074E2:  BNZ   74DA
074E4:  MOVLB  5
074E6:  BTFSC  xDD.7
074E8:  BSF    FF2.7
....................          displayMenu(Menus.Letra,0,35,1,1);} 
074EA:  MOVLW  04
074EC:  MOVWF  xE6
074EE:  MOVLW  16
074F0:  MOVWF  xE5
074F2:  CLRF   xE7
074F4:  MOVLW  23
074F6:  MOVWF  xE8
074F8:  MOVLW  01
074FA:  MOVWF  xE9
074FC:  MOVWF  xEA
074FE:  MOVLB  0
07500:  CALL   4BC2
....................       else 
07504:  BRA    754A
07506:  MOVLB  4
....................          {strcpy(Menus.Letra,"Servicio"); 
07508:  MOVLW  04
0750A:  MOVWF  FEA
0750C:  MOVLW  16
0750E:  MOVWF  FE9
07510:  MOVFF  FF2,5DD
07514:  BCF    FF2.7
07516:  MOVLW  00
07518:  MOVLB  0
0751A:  CALL   10AC
0751E:  TBLRD*-
07520:  TBLRD*+
07522:  MOVF   FF5,W
07524:  MOVWF  FEE
07526:  IORLW  00
07528:  BNZ   7520
0752A:  MOVLB  5
0752C:  BTFSC  xDD.7
0752E:  BSF    FF2.7
....................          displayMenu(Menus.Letra,0,35,0,1);} 
07530:  MOVLW  04
07532:  MOVWF  xE6
07534:  MOVLW  16
07536:  MOVWF  xE5
07538:  CLRF   xE7
0753A:  MOVLW  23
0753C:  MOVWF  xE8
0753E:  CLRF   xE9
07540:  MOVLW  01
07542:  MOVWF  xEA
07544:  MOVLB  0
07546:  CALL   4BC2
....................           
....................       if(UP)//Si oprime hacia arriba 
0754A:  BSF    F92.5
0754C:  BTFSC  F80.5
0754E:  BRA    756A
....................       {  if(Flanco == 0)  
07550:  MOVLB  4
07552:  BTFSC  x2C.0
07554:  BRA    7568
....................             {Flanco = 1;delay_ms(30);Opcion--; 
07556:  BSF    x2C.0
07558:  MOVLW  1E
0755A:  MOVLB  5
0755C:  MOVWF  xF1
0755E:  MOVLB  0
07560:  CALL   14E0
07564:  MOVLB  4
07566:  DECF   xC9,F
....................             } 
....................       } 
....................          else 
07568:  BRA    756E
....................             {Flanco = 0;} 
0756A:  MOVLB  4
0756C:  BCF    x2C.0
....................              
....................       if(DOWN)//Si oprime hacia abajo 
0756E:  BSF    F96.0
07570:  BTFSC  F84.0
07572:  BRA    758C
....................       {  if(Flanco2 == 0)  
07574:  BTFSC  x2C.2
07576:  BRA    758A
....................             {Flanco2 = 1;delay_ms(30);Opcion++; 
07578:  BSF    x2C.2
0757A:  MOVLW  1E
0757C:  MOVLB  5
0757E:  MOVWF  xF1
07580:  MOVLB  0
07582:  CALL   14E0
07586:  MOVLB  4
07588:  INCF   xC9,F
....................             }      
....................       } 
....................          else 
0758A:  BRA    758E
....................             {Flanco2 = 0;}   
0758C:  BCF    x2C.2
....................              
....................       if(RIGHT)//Si oprime SET 
0758E:  BSF    F96.1
07590:  BTFSC  F84.1
07592:  BRA    75CC
....................       {  if(Flanco1 == 0)  
07594:  BTFSC  x2C.1
07596:  BRA    75CA
....................             {Flanco1 = 1;delay_ms(500);Menu=Opcion+30;glcd_fillScreen(OFF);Opcion=1;unidad=1; 
07598:  BSF    x2C.1
0759A:  MOVLW  02
0759C:  MOVLB  5
0759E:  MOVWF  xDD
075A0:  MOVLW  FA
075A2:  MOVWF  xF1
075A4:  MOVLB  0
075A6:  CALL   14E0
075AA:  MOVLB  5
075AC:  DECFSZ xDD,F
075AE:  BRA    75A0
075B0:  MOVLW  1E
075B2:  MOVLB  4
075B4:  ADDWF  xC9,W
075B6:  MOVWF  xC7
075B8:  MOVLB  5
075BA:  CLRF   xE5
075BC:  MOVLB  0
075BE:  CALL   15C0
075C2:  MOVLW  01
075C4:  MOVLB  4
075C6:  MOVWF  xC9
075C8:  MOVWF  xC8
....................             } 
....................       } 
....................          else 
075CA:  BRA    75CE
....................             {Flanco1 = 0;}   
075CC:  BCF    x2C.1
....................              
....................       if(LEFT)//Si oprime boton de Toma. 
075CE:  BSF    F96.2
075D0:  BTFSC  F84.2
075D2:  BRA    75FC
....................         {delay_ms(700);Menu=3;glcd_fillscreen(OFF);} 
075D4:  MOVLW  04
075D6:  MOVLB  5
075D8:  MOVWF  xDD
075DA:  MOVLW  AF
075DC:  MOVWF  xF1
075DE:  MOVLB  0
075E0:  CALL   14E0
075E4:  MOVLB  5
075E6:  DECFSZ xDD,F
075E8:  BRA    75DA
075EA:  MOVLW  03
075EC:  MOVLB  4
075EE:  MOVWF  xC7
075F0:  MOVLB  5
075F2:  CLRF   xE5
075F4:  MOVLB  0
075F6:  CALL   15C0
075FA:  MOVLB  4
....................       if(Opcion>2) 
075FC:  MOVF   xC9,W
075FE:  SUBLW  02
07600:  BC    7606
....................       {Opcion=1;} 
07602:  MOVLW  01
07604:  MOVWF  xC9
....................       if(Opcion<1) 
07606:  MOVF   xC9,F
07608:  BNZ   760E
....................       {Opcion=2;} 
0760A:  MOVLW  02
0760C:  MOVWF  xC9
....................      
....................     } 
.................... //_--------------------------------------------------------------------------------------------------------------------------------------------------------        
....................  
.................... //_-------------------------------------------------------------------------------------------------------------------------------------------------------- 
....................       if(Menu==13){ //Menu de Tempo UV. 
0760E:  MOVF   xC7,W
07610:  SUBLW  0D
07612:  BTFSS  FD8.2
07614:  BRA    7772
....................        
....................       strcpy(Menus.Letra,"Luz UV"); 
07616:  MOVLW  04
07618:  MOVWF  FEA
0761A:  MOVLW  16
0761C:  MOVWF  FE9
0761E:  MOVFF  FF2,5DD
07622:  BCF    FF2.7
07624:  MOVLW  00
07626:  MOVLB  0
07628:  CALL   1062
0762C:  TBLRD*-
0762E:  TBLRD*+
07630:  MOVF   FF5,W
07632:  MOVWF  FEE
07634:  IORLW  00
07636:  BNZ   762E
07638:  MOVLB  5
0763A:  BTFSC  xDD.7
0763C:  BSF    FF2.7
....................       displayMenu(Menus.Letra,30,0,1,2); 
0763E:  MOVLW  04
07640:  MOVWF  xE6
07642:  MOVLW  16
07644:  MOVWF  xE5
07646:  MOVLW  1E
07648:  MOVWF  xE7
0764A:  CLRF   xE8
0764C:  MOVLW  01
0764E:  MOVWF  xE9
07650:  MOVLW  02
07652:  MOVWF  xEA
07654:  MOVLB  0
07656:  CALL   4BC2
....................        
....................       if(!flag_uv){ 
0765A:  MOVLB  4
0765C:  BTFSC  x2D.4
0765E:  BRA    76AC
....................          strcpy(Menus.Letra,"UV Off"); 
07660:  MOVLW  04
07662:  MOVWF  FEA
07664:  MOVLW  16
07666:  MOVWF  FE9
07668:  MOVFF  FF2,5DD
0766C:  BCF    FF2.7
0766E:  MOVLW  00
07670:  MOVLB  0
07672:  CALL   10D0
07676:  TBLRD*-
07678:  TBLRD*+
0767A:  MOVF   FF5,W
0767C:  MOVWF  FEE
0767E:  IORLW  00
07680:  BNZ   7678
07682:  MOVLB  5
07684:  BTFSC  xDD.7
07686:  BSF    FF2.7
....................          displayMenu(Menus.Letra,30,30,1,2); 
07688:  MOVLW  04
0768A:  MOVWF  xE6
0768C:  MOVLW  16
0768E:  MOVWF  xE5
07690:  MOVLW  1E
07692:  MOVWF  xE7
07694:  MOVWF  xE8
07696:  MOVLW  01
07698:  MOVWF  xE9
0769A:  MOVLW  02
0769C:  MOVWF  xEA
0769E:  MOVLB  0
076A0:  CALL   4BC2
....................          Aux_off; 
076A4:  BCF    F8B.1
076A6:  BCF    F94.1
....................       }else{ 
076A8:  BRA    76F4
076AA:  MOVLB  4
....................          strcpy(Menus.Letra,"UV On"); 
076AC:  MOVLW  04
076AE:  MOVWF  FEA
076B0:  MOVLW  16
076B2:  MOVWF  FE9
076B4:  MOVFF  FF2,5DD
076B8:  BCF    FF2.7
076BA:  MOVLW  00
076BC:  MOVLB  0
076BE:  CALL   10F2
076C2:  TBLRD*-
076C4:  TBLRD*+
076C6:  MOVF   FF5,W
076C8:  MOVWF  FEE
076CA:  IORLW  00
076CC:  BNZ   76C4
076CE:  MOVLB  5
076D0:  BTFSC  xDD.7
076D2:  BSF    FF2.7
....................          displayMenu(Menus.Letra,30,30,1,2); 
076D4:  MOVLW  04
076D6:  MOVWF  xE6
076D8:  MOVLW  16
076DA:  MOVWF  xE5
076DC:  MOVLW  1E
076DE:  MOVWF  xE7
076E0:  MOVWF  xE8
076E2:  MOVLW  01
076E4:  MOVWF  xE9
076E6:  MOVLW  02
076E8:  MOVWF  xEA
076EA:  MOVLB  0
076EC:  CALL   4BC2
....................          Aux_on; 
076F0:  BSF    F8B.1
076F2:  BCF    F94.1
....................       } 
....................          
....................       if(UP)//Si oprime hacia arriba 
076F4:  BSF    F92.5
076F6:  BTFSC  F80.5
076F8:  BRA    7716
....................       {  if(Flanco == 0)  
076FA:  MOVLB  4
076FC:  BTFSC  x2C.0
076FE:  BRA    7712
....................             {Flanco = 1;delay_ms(30);flag_uv=1; 
07700:  BSF    x2C.0
07702:  MOVLW  1E
07704:  MOVLB  5
07706:  MOVWF  xF1
07708:  MOVLB  0
0770A:  CALL   14E0
0770E:  MOVLB  4
07710:  BSF    x2D.4
....................             } 
....................       }else{ 
07712:  BRA    771A
07714:  MOVLB  0
....................          Flanco = 0; 
07716:  MOVLB  4
07718:  BCF    x2C.0
....................       } 
....................              
....................       if(DOWN )//Si oprime hacia abajo 
0771A:  BSF    F96.0
0771C:  BTFSC  F84.0
0771E:  BRA    7738
....................       {  if(Flanco2 == 0)  
07720:  BTFSC  x2C.2
07722:  BRA    7736
....................             {Flanco2 = 1;delay_ms(30);flag_uv=0; 
07724:  BSF    x2C.2
07726:  MOVLW  1E
07728:  MOVLB  5
0772A:  MOVWF  xF1
0772C:  MOVLB  0
0772E:  CALL   14E0
07732:  MOVLB  4
07734:  BCF    x2D.4
....................             }      
....................       }else{ 
07736:  BRA    773A
....................          Flanco2 = 0; 
07738:  BCF    x2C.2
....................       } 
....................              
....................       if(LEFT)//Si oprime boton de Toma. 
0773A:  BSF    F96.2
0773C:  BTFSC  F84.2
0773E:  BRA    7772
....................       { 
....................          delay_ms(700);Menu=4;glcd_fillscreen(OFF);Opcion=1;unidad=1;Aux_off; 
07740:  MOVLW  04
07742:  MOVLB  5
07744:  MOVWF  xDD
07746:  MOVLW  AF
07748:  MOVWF  xF1
0774A:  MOVLB  0
0774C:  CALL   14E0
07750:  MOVLB  5
07752:  DECFSZ xDD,F
07754:  BRA    7746
07756:  MOVLW  04
07758:  MOVLB  4
0775A:  MOVWF  xC7
0775C:  MOVLB  5
0775E:  CLRF   xE5
07760:  MOVLB  0
07762:  CALL   15C0
07766:  MOVLW  01
07768:  MOVLB  4
0776A:  MOVWF  xC9
0776C:  MOVWF  xC8
0776E:  BCF    F8B.1
07770:  BCF    F94.1
....................       } 
....................      
....................     } 
.................... //_--------------------------------------------------------------------------------------------------------------------------------------------------------        
....................  
.................... //_-------------------------------------------------------------------------------------------------------------------------------------------------------- 
....................       if(Menu==11){ //Menu de Purga. 
07772:  MOVF   xC7,W
07774:  SUBLW  0B
07776:  BTFSS  FD8.2
07778:  BRA    7B3C
....................        
....................       strcpy(Menus.Letra,"T. Purga"); 
0777A:  MOVLW  04
0777C:  MOVWF  FEA
0777E:  MOVLW  16
07780:  MOVWF  FE9
07782:  MOVFF  FF2,5DD
07786:  BCF    FF2.7
07788:  MOVLW  00
0778A:  MOVLB  0
0778C:  CALL   1112
07790:  TBLRD*-
07792:  TBLRD*+
07794:  MOVF   FF5,W
07796:  MOVWF  FEE
07798:  IORLW  00
0779A:  BNZ   7792
0779C:  MOVLB  5
0779E:  BTFSC  xDD.7
077A0:  BSF    FF2.7
....................       displayMenu(Menus.Letra,10,0,1,2); 
077A2:  MOVLW  04
077A4:  MOVWF  xE6
077A6:  MOVLW  16
077A8:  MOVWF  xE5
077AA:  MOVLW  0A
077AC:  MOVWF  xE7
077AE:  CLRF   xE8
077B0:  MOVLW  01
077B2:  MOVWF  xE9
077B4:  MOVLW  02
077B6:  MOVWF  xEA
077B8:  MOVLB  0
077BA:  CALL   4BC2
....................        
....................       if(unidad==4) 
077BE:  MOVLB  4
077C0:  MOVF   xC8,W
077C2:  SUBLW  04
077C4:  BNZ   77E4
....................       {displayTiempo(Tpurgap[3],20,40,1,2);} 
077C6:  MOVFF  4F4,5DD
077CA:  MOVLW  14
077CC:  MOVLB  5
077CE:  MOVWF  xDE
077D0:  MOVLW  28
077D2:  MOVWF  xDF
077D4:  MOVLW  01
077D6:  MOVWF  xE0
077D8:  MOVLW  02
077DA:  MOVWF  xE1
077DC:  MOVLB  0
077DE:  CALL   5370
....................       else 
077E2:  BRA    77FE
....................       {displayTiempo(Tpurgap[3],20,40,0,2);} 
077E4:  MOVFF  4F4,5DD
077E8:  MOVLW  14
077EA:  MOVLB  5
077EC:  MOVWF  xDE
077EE:  MOVLW  28
077F0:  MOVWF  xDF
077F2:  CLRF   xE0
077F4:  MOVLW  02
077F6:  MOVWF  xE1
077F8:  MOVLB  0
077FA:  CALL   5370
....................        
....................       if(unidad==3) 
077FE:  MOVLB  4
07800:  MOVF   xC8,W
07802:  SUBLW  03
07804:  BNZ   7822
....................       {displayTiempo(Tpurgap[2],40,40,1,2);} 
07806:  MOVFF  4F3,5DD
0780A:  MOVLW  28
0780C:  MOVLB  5
0780E:  MOVWF  xDE
07810:  MOVWF  xDF
07812:  MOVLW  01
07814:  MOVWF  xE0
07816:  MOVLW  02
07818:  MOVWF  xE1
0781A:  MOVLB  0
0781C:  CALL   5370
....................       else 
07820:  BRA    783A
....................       {displayTiempo(Tpurgap[2],40,40,0,2);} 
07822:  MOVFF  4F3,5DD
07826:  MOVLW  28
07828:  MOVLB  5
0782A:  MOVWF  xDE
0782C:  MOVWF  xDF
0782E:  CLRF   xE0
07830:  MOVLW  02
07832:  MOVWF  xE1
07834:  MOVLB  0
07836:  CALL   5370
....................        
....................       if(unidad==2) 
0783A:  MOVLB  4
0783C:  MOVF   xC8,W
0783E:  SUBLW  02
07840:  BNZ   7860
....................       {displayTiempo(Tpurgap[1],70,40,1,2);} 
07842:  MOVFF  4F2,5DD
07846:  MOVLW  46
07848:  MOVLB  5
0784A:  MOVWF  xDE
0784C:  MOVLW  28
0784E:  MOVWF  xDF
07850:  MOVLW  01
07852:  MOVWF  xE0
07854:  MOVLW  02
07856:  MOVWF  xE1
07858:  MOVLB  0
0785A:  CALL   5370
....................       else 
0785E:  BRA    787A
....................       {displayTiempo(Tpurgap[1],70,40,0,2);} 
07860:  MOVFF  4F2,5DD
07864:  MOVLW  46
07866:  MOVLB  5
07868:  MOVWF  xDE
0786A:  MOVLW  28
0786C:  MOVWF  xDF
0786E:  CLRF   xE0
07870:  MOVLW  02
07872:  MOVWF  xE1
07874:  MOVLB  0
07876:  CALL   5370
....................        
....................       if(unidad==1) 
0787A:  MOVLB  4
0787C:  DECFSZ xC8,W
0787E:  BRA    789E
....................       {displayTiempo(Tpurgap[0],90,40,1,2);} 
07880:  MOVFF  4F1,5DD
07884:  MOVLW  5A
07886:  MOVLB  5
07888:  MOVWF  xDE
0788A:  MOVLW  28
0788C:  MOVWF  xDF
0788E:  MOVLW  01
07890:  MOVWF  xE0
07892:  MOVLW  02
07894:  MOVWF  xE1
07896:  MOVLB  0
07898:  CALL   5370
....................       else 
0789C:  BRA    78B8
....................       {displayTiempo(Tpurgap[0],90,40,0,2);} 
0789E:  MOVFF  4F1,5DD
078A2:  MOVLW  5A
078A4:  MOVLB  5
078A6:  MOVWF  xDE
078A8:  MOVLW  28
078AA:  MOVWF  xDF
078AC:  CLRF   xE0
078AE:  MOVLW  02
078B0:  MOVWF  xE1
078B2:  MOVLB  0
078B4:  CALL   5370
....................        
....................       glcd_text57(60, 42, Dos_puntos, 2, ON); 
078B8:  MOVLW  3C
078BA:  MOVLB  5
078BC:  MOVWF  xF6
078BE:  MOVLW  2A
078C0:  MOVWF  xF7
078C2:  MOVLW  04
078C4:  MOVWF  xF9
078C6:  MOVLW  4D
078C8:  MOVWF  xF8
078CA:  MOVLW  02
078CC:  MOVWF  xFA
078CE:  MOVLW  01
078D0:  MOVWF  xFB
078D2:  MOVLB  0
078D4:  CALL   4948
....................           
....................          
....................       if(UP)//Si oprime hacia arriba 
078D8:  BSF    F92.5
078DA:  BTFSC  F80.5
078DC:  BRA    7908
....................       {  if(Flanco == 0)  
078DE:  MOVLB  4
078E0:  BTFSC  x2C.0
078E2:  BRA    7906
....................             {Flanco = 1;delay_ms(30);Tpurgap[unidad-1]++; 
078E4:  BSF    x2C.0
078E6:  MOVLW  1E
078E8:  MOVLB  5
078EA:  MOVWF  xF1
078EC:  MOVLB  0
078EE:  CALL   14E0
078F2:  MOVLW  01
078F4:  MOVLB  4
078F6:  SUBWF  xC8,W
078F8:  CLRF   03
078FA:  ADDLW  F1
078FC:  MOVWF  FE9
078FE:  MOVLW  04
07900:  ADDWFC 03,W
07902:  MOVWF  FEA
07904:  INCF   FEF,F
....................             } 
....................       } 
....................          else 
07906:  BRA    790C
....................             {Flanco = 0;} 
07908:  MOVLB  4
0790A:  BCF    x2C.0
....................              
....................       if(DOWN)//Si oprime hacia abajo 
0790C:  BSF    F96.0
0790E:  BTFSC  F84.0
07910:  BRA    793A
....................       {  if(Flanco2 == 0)  
07912:  BTFSC  x2C.2
07914:  BRA    7938
....................             {Flanco2 = 1;delay_ms(30);Tpurgap[unidad-1]--; 
07916:  BSF    x2C.2
07918:  MOVLW  1E
0791A:  MOVLB  5
0791C:  MOVWF  xF1
0791E:  MOVLB  0
07920:  CALL   14E0
07924:  MOVLW  01
07926:  MOVLB  4
07928:  SUBWF  xC8,W
0792A:  CLRF   03
0792C:  ADDLW  F1
0792E:  MOVWF  FE9
07930:  MOVLW  04
07932:  ADDWFC 03,W
07934:  MOVWF  FEA
07936:  DECF   FEF,F
....................             }      
....................       } 
....................          else 
07938:  BRA    793C
....................             {Flanco2 = 0;}   
0793A:  BCF    x2C.2
....................              
....................       if(RIGHT)//Si oprime SET 
0793C:  BSF    F96.1
0793E:  BTFSC  F84.1
07940:  BRA    795A
....................       {  if(Flanco1 == 0)  
07942:  BTFSC  x2C.1
07944:  BRA    7958
....................             {Flanco1 = 1;delay_ms(30);unidad--; 
07946:  BSF    x2C.1
07948:  MOVLW  1E
0794A:  MOVLB  5
0794C:  MOVWF  xF1
0794E:  MOVLB  0
07950:  CALL   14E0
07954:  MOVLB  4
07956:  DECF   xC8,F
....................             } 
....................       } 
....................          else 
07958:  BRA    795C
....................             {Flanco1 = 0;}   
0795A:  BCF    x2C.1
....................              
....................       if(LEFT)//Si oprime boton de Toma. 
0795C:  BSF    F96.2
0795E:  BTFSC  F84.2
07960:  BRA    7A70
....................       { 
....................          delay_ms(700);Menu=4;glcd_fillscreen(OFF);Opcion=1;unidad=1; 
07962:  MOVLW  04
07964:  MOVLB  5
07966:  MOVWF  xDD
07968:  MOVLW  AF
0796A:  MOVWF  xF1
0796C:  MOVLB  0
0796E:  CALL   14E0
07972:  MOVLB  5
07974:  DECFSZ xDD,F
07976:  BRA    7968
07978:  MOVLW  04
0797A:  MOVLB  4
0797C:  MOVWF  xC7
0797E:  MOVLB  5
07980:  CLRF   xE5
07982:  MOVLB  0
07984:  CALL   15C0
07988:  MOVLW  01
0798A:  MOVLB  4
0798C:  MOVWF  xC9
0798E:  MOVWF  xC8
....................          write_eeprom(4,Tpurgap[0]); 
07990:  CLRF   FAA
07992:  MOVLW  04
07994:  MOVWF  FA9
07996:  MOVFF  4F1,FA8
0799A:  BCF    FA6.6
0799C:  BCF    FA6.7
0799E:  BSF    FA6.2
079A0:  MOVF   FF2,W
079A2:  MOVWF  00
079A4:  BCF    FF2.7
079A6:  MOVLB  F
079A8:  MOVLW  55
079AA:  MOVWF  FA7
079AC:  MOVLW  AA
079AE:  MOVWF  FA7
079B0:  BSF    FA6.1
079B2:  BTFSC  FA6.1
079B4:  BRA    79B2
079B6:  BCF    FA6.2
079B8:  MOVF   00,W
079BA:  IORWF  FF2,F
....................          delay_ms(20); 
079BC:  MOVLW  14
079BE:  MOVLB  5
079C0:  MOVWF  xF1
079C2:  MOVLB  0
079C4:  CALL   14E0
....................          write_eeprom(5,Tpurgap[1]); 
079C8:  CLRF   FAA
079CA:  MOVLW  05
079CC:  MOVWF  FA9
079CE:  MOVFF  4F2,FA8
079D2:  BCF    FA6.6
079D4:  BCF    FA6.7
079D6:  BSF    FA6.2
079D8:  MOVF   FF2,W
079DA:  MOVWF  00
079DC:  BCF    FF2.7
079DE:  MOVLB  F
079E0:  MOVLW  55
079E2:  MOVWF  FA7
079E4:  MOVLW  AA
079E6:  MOVWF  FA7
079E8:  BSF    FA6.1
079EA:  BTFSC  FA6.1
079EC:  BRA    79EA
079EE:  BCF    FA6.2
079F0:  MOVF   00,W
079F2:  IORWF  FF2,F
....................          delay_ms(20); 
079F4:  MOVLW  14
079F6:  MOVLB  5
079F8:  MOVWF  xF1
079FA:  MOVLB  0
079FC:  CALL   14E0
....................          write_eeprom(6,Tpurgap[2]); 
07A00:  CLRF   FAA
07A02:  MOVLW  06
07A04:  MOVWF  FA9
07A06:  MOVFF  4F3,FA8
07A0A:  BCF    FA6.6
07A0C:  BCF    FA6.7
07A0E:  BSF    FA6.2
07A10:  MOVF   FF2,W
07A12:  MOVWF  00
07A14:  BCF    FF2.7
07A16:  MOVLB  F
07A18:  MOVLW  55
07A1A:  MOVWF  FA7
07A1C:  MOVLW  AA
07A1E:  MOVWF  FA7
07A20:  BSF    FA6.1
07A22:  BTFSC  FA6.1
07A24:  BRA    7A22
07A26:  BCF    FA6.2
07A28:  MOVF   00,W
07A2A:  IORWF  FF2,F
....................          delay_ms(20); 
07A2C:  MOVLW  14
07A2E:  MOVLB  5
07A30:  MOVWF  xF1
07A32:  MOVLB  0
07A34:  CALL   14E0
....................          write_eeprom(7,Tpurgap[3]); 
07A38:  CLRF   FAA
07A3A:  MOVLW  07
07A3C:  MOVWF  FA9
07A3E:  MOVFF  4F4,FA8
07A42:  BCF    FA6.6
07A44:  BCF    FA6.7
07A46:  BSF    FA6.2
07A48:  MOVF   FF2,W
07A4A:  MOVWF  00
07A4C:  BCF    FF2.7
07A4E:  MOVLB  F
07A50:  MOVLW  55
07A52:  MOVWF  FA7
07A54:  MOVLW  AA
07A56:  MOVWF  FA7
07A58:  BSF    FA6.1
07A5A:  BTFSC  FA6.1
07A5C:  BRA    7A5A
07A5E:  BCF    FA6.2
07A60:  MOVF   00,W
07A62:  IORWF  FF2,F
....................          delay_ms(20); 
07A64:  MOVLW  14
07A66:  MOVLB  5
07A68:  MOVWF  xF1
07A6A:  MOVLB  0
07A6C:  CALL   14E0
....................       } 
....................        
....................       for(i=0;i<4;i++) 
07A70:  MOVLB  5
07A72:  CLRF   xCD
07A74:  MOVF   xCD,W
07A76:  SUBLW  03
07A78:  BNC   7ACC
....................       { 
....................          if(Tpurgap[i]>9) 
07A7A:  CLRF   03
07A7C:  MOVF   xCD,W
07A7E:  ADDLW  F1
07A80:  MOVWF  FE9
07A82:  MOVLW  04
07A84:  ADDWFC 03,W
07A86:  MOVWF  FEA
07A88:  BTFSC  FEF.7
07A8A:  BRA    7AA2
07A8C:  MOVF   FEF,W
07A8E:  SUBLW  09
07A90:  BC    7AA2
....................          {Tpurgap[i]=0;} 
07A92:  CLRF   03
07A94:  MOVF   xCD,W
07A96:  ADDLW  F1
07A98:  MOVWF  FE9
07A9A:  MOVLW  04
07A9C:  ADDWFC 03,W
07A9E:  MOVWF  FEA
07AA0:  CLRF   FEF
....................           
....................          if(Tpurgap[i]<0) 
07AA2:  CLRF   03
07AA4:  MOVF   xCD,W
07AA6:  ADDLW  F1
07AA8:  MOVWF  FE9
07AAA:  MOVLW  04
07AAC:  ADDWFC 03,W
07AAE:  MOVWF  FEA
07AB0:  BTFSC  FEF.7
07AB2:  BRA    7AB6
07AB4:  BRA    7AC8
....................          {Tpurgap[i]=9;} 
07AB6:  CLRF   03
07AB8:  MOVF   xCD,W
07ABA:  ADDLW  F1
07ABC:  MOVWF  FE9
07ABE:  MOVLW  04
07AC0:  ADDWFC 03,W
07AC2:  MOVWF  FEA
07AC4:  MOVLW  09
07AC6:  MOVWF  FEF
....................       }       
07AC8:  INCF   xCD,F
07ACA:  BRA    7A74
....................       for(i=1;i<4;i++) 
07ACC:  MOVLW  01
07ACE:  MOVWF  xCD
07AD0:  MOVF   xCD,W
07AD2:  SUBLW  03
07AD4:  BNC   7B2A
....................       { 
....................          if(Tpurgap[i]>5) 
07AD6:  CLRF   03
07AD8:  MOVF   xCD,W
07ADA:  ADDLW  F1
07ADC:  MOVWF  FE9
07ADE:  MOVLW  04
07AE0:  ADDWFC 03,W
07AE2:  MOVWF  FEA
07AE4:  BTFSC  FEF.7
07AE6:  BRA    7AFE
07AE8:  MOVF   FEF,W
07AEA:  SUBLW  05
07AEC:  BC    7AFE
....................          {Tpurgap[i]=0;} 
07AEE:  CLRF   03
07AF0:  MOVF   xCD,W
07AF2:  ADDLW  F1
07AF4:  MOVWF  FE9
07AF6:  MOVLW  04
07AF8:  ADDWFC 03,W
07AFA:  MOVWF  FEA
07AFC:  CLRF   FEF
....................           
....................          if(Tpurgap[i]<0) 
07AFE:  CLRF   03
07B00:  MOVF   xCD,W
07B02:  ADDLW  F1
07B04:  MOVWF  FE9
07B06:  MOVLW  04
07B08:  ADDWFC 03,W
07B0A:  MOVWF  FEA
07B0C:  BTFSC  FEF.7
07B0E:  BRA    7B12
07B10:  BRA    7B24
....................          {Tpurgap[i]=5;} 
07B12:  CLRF   03
07B14:  MOVF   xCD,W
07B16:  ADDLW  F1
07B18:  MOVWF  FE9
07B1A:  MOVLW  04
07B1C:  ADDWFC 03,W
07B1E:  MOVWF  FEA
07B20:  MOVLW  05
07B22:  MOVWF  FEF
....................         i++;  
07B24:  INCF   xCD,F
....................       } 
07B26:  INCF   xCD,F
07B28:  BRA    7AD0
....................       if(unidad<1) 
07B2A:  MOVLB  4
07B2C:  MOVF   xC8,F
07B2E:  BNZ   7B34
....................       {unidad=4;} 
07B30:  MOVLW  04
07B32:  MOVWF  xC8
....................       if(Opcion<1) 
07B34:  MOVF   xC9,F
07B36:  BNZ   7B3C
....................       {Opcion=4;} 
07B38:  MOVLW  04
07B3A:  MOVWF  xC9
....................      
....................     } 
.................... //_--------------------------------------------------------------------------------------------------------------------------------------------------------        
....................  
.................... //_-------------------------------------------------------------------------------------------------------------------------------------------------------- 
....................       if(Menu==12){ //Menu de Post-Purga. 
07B3C:  MOVF   xC7,W
07B3E:  SUBLW  0C
07B40:  BTFSS  FD8.2
07B42:  BRA    7F04
....................        
....................       strcpy(Menus.Letra,"T. Post-Purga"); 
07B44:  MOVLW  04
07B46:  MOVWF  FEA
07B48:  MOVLW  16
07B4A:  MOVWF  FE9
07B4C:  MOVFF  FF2,5DD
07B50:  BCF    FF2.7
07B52:  MOVLW  00
07B54:  MOVLB  0
07B56:  CALL   1136
07B5A:  TBLRD*-
07B5C:  TBLRD*+
07B5E:  MOVF   FF5,W
07B60:  MOVWF  FEE
07B62:  IORLW  00
07B64:  BNZ   7B5C
07B66:  MOVLB  5
07B68:  BTFSC  xDD.7
07B6A:  BSF    FF2.7
....................       displayMenu(Menus.Letra,0,0,1,2); 
07B6C:  MOVLW  04
07B6E:  MOVWF  xE6
07B70:  MOVLW  16
07B72:  MOVWF  xE5
07B74:  CLRF   xE7
07B76:  CLRF   xE8
07B78:  MOVLW  01
07B7A:  MOVWF  xE9
07B7C:  MOVLW  02
07B7E:  MOVWF  xEA
07B80:  MOVLB  0
07B82:  CALL   4BC2
....................        
....................       if(unidad==4) 
07B86:  MOVLB  4
07B88:  MOVF   xC8,W
07B8A:  SUBLW  04
07B8C:  BNZ   7BAC
....................       {displayTiempo(Tppurgap[3],20,40,1,2);} 
07B8E:  MOVFF  4FC,5DD
07B92:  MOVLW  14
07B94:  MOVLB  5
07B96:  MOVWF  xDE
07B98:  MOVLW  28
07B9A:  MOVWF  xDF
07B9C:  MOVLW  01
07B9E:  MOVWF  xE0
07BA0:  MOVLW  02
07BA2:  MOVWF  xE1
07BA4:  MOVLB  0
07BA6:  CALL   5370
....................       else 
07BAA:  BRA    7BC6
....................       {displayTiempo(Tppurgap[3],20,40,0,2);} 
07BAC:  MOVFF  4FC,5DD
07BB0:  MOVLW  14
07BB2:  MOVLB  5
07BB4:  MOVWF  xDE
07BB6:  MOVLW  28
07BB8:  MOVWF  xDF
07BBA:  CLRF   xE0
07BBC:  MOVLW  02
07BBE:  MOVWF  xE1
07BC0:  MOVLB  0
07BC2:  CALL   5370
....................        
....................       if(unidad==3) 
07BC6:  MOVLB  4
07BC8:  MOVF   xC8,W
07BCA:  SUBLW  03
07BCC:  BNZ   7BEA
....................       {displayTiempo(Tppurgap[2],40,40,1,2);} 
07BCE:  MOVFF  4FB,5DD
07BD2:  MOVLW  28
07BD4:  MOVLB  5
07BD6:  MOVWF  xDE
07BD8:  MOVWF  xDF
07BDA:  MOVLW  01
07BDC:  MOVWF  xE0
07BDE:  MOVLW  02
07BE0:  MOVWF  xE1
07BE2:  MOVLB  0
07BE4:  CALL   5370
....................       else 
07BE8:  BRA    7C02
....................       {displayTiempo(Tppurgap[2],40,40,0,2);} 
07BEA:  MOVFF  4FB,5DD
07BEE:  MOVLW  28
07BF0:  MOVLB  5
07BF2:  MOVWF  xDE
07BF4:  MOVWF  xDF
07BF6:  CLRF   xE0
07BF8:  MOVLW  02
07BFA:  MOVWF  xE1
07BFC:  MOVLB  0
07BFE:  CALL   5370
....................        
....................       if(unidad==2) 
07C02:  MOVLB  4
07C04:  MOVF   xC8,W
07C06:  SUBLW  02
07C08:  BNZ   7C28
....................       {displayTiempo(Tppurgap[1],70,40,1,2);} 
07C0A:  MOVFF  4FA,5DD
07C0E:  MOVLW  46
07C10:  MOVLB  5
07C12:  MOVWF  xDE
07C14:  MOVLW  28
07C16:  MOVWF  xDF
07C18:  MOVLW  01
07C1A:  MOVWF  xE0
07C1C:  MOVLW  02
07C1E:  MOVWF  xE1
07C20:  MOVLB  0
07C22:  CALL   5370
....................       else 
07C26:  BRA    7C42
....................       {displayTiempo(Tppurgap[1],70,40,0,2);} 
07C28:  MOVFF  4FA,5DD
07C2C:  MOVLW  46
07C2E:  MOVLB  5
07C30:  MOVWF  xDE
07C32:  MOVLW  28
07C34:  MOVWF  xDF
07C36:  CLRF   xE0
07C38:  MOVLW  02
07C3A:  MOVWF  xE1
07C3C:  MOVLB  0
07C3E:  CALL   5370
....................        
....................       if(unidad==1) 
07C42:  MOVLB  4
07C44:  DECFSZ xC8,W
07C46:  BRA    7C66
....................       {displayTiempo(Tppurgap[0],90,40,1,2);} 
07C48:  MOVFF  4F9,5DD
07C4C:  MOVLW  5A
07C4E:  MOVLB  5
07C50:  MOVWF  xDE
07C52:  MOVLW  28
07C54:  MOVWF  xDF
07C56:  MOVLW  01
07C58:  MOVWF  xE0
07C5A:  MOVLW  02
07C5C:  MOVWF  xE1
07C5E:  MOVLB  0
07C60:  CALL   5370
....................       else 
07C64:  BRA    7C80
....................       {displayTiempo(Tppurgap[0],90,40,0,2);} 
07C66:  MOVFF  4F9,5DD
07C6A:  MOVLW  5A
07C6C:  MOVLB  5
07C6E:  MOVWF  xDE
07C70:  MOVLW  28
07C72:  MOVWF  xDF
07C74:  CLRF   xE0
07C76:  MOVLW  02
07C78:  MOVWF  xE1
07C7A:  MOVLB  0
07C7C:  CALL   5370
....................        
....................       glcd_text57(60, 42, Dos_puntos, 2, ON); 
07C80:  MOVLW  3C
07C82:  MOVLB  5
07C84:  MOVWF  xF6
07C86:  MOVLW  2A
07C88:  MOVWF  xF7
07C8A:  MOVLW  04
07C8C:  MOVWF  xF9
07C8E:  MOVLW  4D
07C90:  MOVWF  xF8
07C92:  MOVLW  02
07C94:  MOVWF  xFA
07C96:  MOVLW  01
07C98:  MOVWF  xFB
07C9A:  MOVLB  0
07C9C:  CALL   4948
....................           
....................          
....................       if(UP)//Si oprime hacia arriba 
07CA0:  BSF    F92.5
07CA2:  BTFSC  F80.5
07CA4:  BRA    7CD0
....................       {  if(Flanco == 0)  
07CA6:  MOVLB  4
07CA8:  BTFSC  x2C.0
07CAA:  BRA    7CCE
....................             {Flanco = 1;delay_ms(30);Tppurgap[unidad-1]++; 
07CAC:  BSF    x2C.0
07CAE:  MOVLW  1E
07CB0:  MOVLB  5
07CB2:  MOVWF  xF1
07CB4:  MOVLB  0
07CB6:  CALL   14E0
07CBA:  MOVLW  01
07CBC:  MOVLB  4
07CBE:  SUBWF  xC8,W
07CC0:  CLRF   03
07CC2:  ADDLW  F9
07CC4:  MOVWF  FE9
07CC6:  MOVLW  04
07CC8:  ADDWFC 03,W
07CCA:  MOVWF  FEA
07CCC:  INCF   FEF,F
....................             } 
....................       } 
....................          else 
07CCE:  BRA    7CD4
....................             {Flanco = 0;} 
07CD0:  MOVLB  4
07CD2:  BCF    x2C.0
....................              
....................       if(DOWN)//Si oprime hacia abajo 
07CD4:  BSF    F96.0
07CD6:  BTFSC  F84.0
07CD8:  BRA    7D02
....................       {  if(Flanco2 == 0)  
07CDA:  BTFSC  x2C.2
07CDC:  BRA    7D00
....................             {Flanco2 = 1;delay_ms(30);Tppurgap[unidad-1]--; 
07CDE:  BSF    x2C.2
07CE0:  MOVLW  1E
07CE2:  MOVLB  5
07CE4:  MOVWF  xF1
07CE6:  MOVLB  0
07CE8:  CALL   14E0
07CEC:  MOVLW  01
07CEE:  MOVLB  4
07CF0:  SUBWF  xC8,W
07CF2:  CLRF   03
07CF4:  ADDLW  F9
07CF6:  MOVWF  FE9
07CF8:  MOVLW  04
07CFA:  ADDWFC 03,W
07CFC:  MOVWF  FEA
07CFE:  DECF   FEF,F
....................             }      
....................       } 
....................          else 
07D00:  BRA    7D04
....................             {Flanco2 = 0;}   
07D02:  BCF    x2C.2
....................              
....................       if(RIGHT)//Si oprime SET 
07D04:  BSF    F96.1
07D06:  BTFSC  F84.1
07D08:  BRA    7D22
....................       {  if(Flanco1 == 0)  
07D0A:  BTFSC  x2C.1
07D0C:  BRA    7D20
....................             {Flanco1 = 1;delay_ms(30);unidad--; 
07D0E:  BSF    x2C.1
07D10:  MOVLW  1E
07D12:  MOVLB  5
07D14:  MOVWF  xF1
07D16:  MOVLB  0
07D18:  CALL   14E0
07D1C:  MOVLB  4
07D1E:  DECF   xC8,F
....................             } 
....................       } 
....................          else 
07D20:  BRA    7D24
....................             {Flanco1 = 0;}   
07D22:  BCF    x2C.1
....................              
....................       if(LEFT)//Si oprime boton de Toma. 
07D24:  BSF    F96.2
07D26:  BTFSC  F84.2
07D28:  BRA    7E38
....................       { 
....................          delay_ms(700);Menu=4;glcd_fillscreen(OFF);Opcion=1;unidad=1; 
07D2A:  MOVLW  04
07D2C:  MOVLB  5
07D2E:  MOVWF  xDD
07D30:  MOVLW  AF
07D32:  MOVWF  xF1
07D34:  MOVLB  0
07D36:  CALL   14E0
07D3A:  MOVLB  5
07D3C:  DECFSZ xDD,F
07D3E:  BRA    7D30
07D40:  MOVLW  04
07D42:  MOVLB  4
07D44:  MOVWF  xC7
07D46:  MOVLB  5
07D48:  CLRF   xE5
07D4A:  MOVLB  0
07D4C:  CALL   15C0
07D50:  MOVLW  01
07D52:  MOVLB  4
07D54:  MOVWF  xC9
07D56:  MOVWF  xC8
....................          write_eeprom(8,Tppurgap[0]); 
07D58:  CLRF   FAA
07D5A:  MOVLW  08
07D5C:  MOVWF  FA9
07D5E:  MOVFF  4F9,FA8
07D62:  BCF    FA6.6
07D64:  BCF    FA6.7
07D66:  BSF    FA6.2
07D68:  MOVF   FF2,W
07D6A:  MOVWF  00
07D6C:  BCF    FF2.7
07D6E:  MOVLB  F
07D70:  MOVLW  55
07D72:  MOVWF  FA7
07D74:  MOVLW  AA
07D76:  MOVWF  FA7
07D78:  BSF    FA6.1
07D7A:  BTFSC  FA6.1
07D7C:  BRA    7D7A
07D7E:  BCF    FA6.2
07D80:  MOVF   00,W
07D82:  IORWF  FF2,F
....................          delay_ms(20); 
07D84:  MOVLW  14
07D86:  MOVLB  5
07D88:  MOVWF  xF1
07D8A:  MOVLB  0
07D8C:  CALL   14E0
....................          write_eeprom(9,Tppurgap[1]); 
07D90:  CLRF   FAA
07D92:  MOVLW  09
07D94:  MOVWF  FA9
07D96:  MOVFF  4FA,FA8
07D9A:  BCF    FA6.6
07D9C:  BCF    FA6.7
07D9E:  BSF    FA6.2
07DA0:  MOVF   FF2,W
07DA2:  MOVWF  00
07DA4:  BCF    FF2.7
07DA6:  MOVLB  F
07DA8:  MOVLW  55
07DAA:  MOVWF  FA7
07DAC:  MOVLW  AA
07DAE:  MOVWF  FA7
07DB0:  BSF    FA6.1
07DB2:  BTFSC  FA6.1
07DB4:  BRA    7DB2
07DB6:  BCF    FA6.2
07DB8:  MOVF   00,W
07DBA:  IORWF  FF2,F
....................          delay_ms(20); 
07DBC:  MOVLW  14
07DBE:  MOVLB  5
07DC0:  MOVWF  xF1
07DC2:  MOVLB  0
07DC4:  CALL   14E0
....................          write_eeprom(10,Tppurgap[2]); 
07DC8:  CLRF   FAA
07DCA:  MOVLW  0A
07DCC:  MOVWF  FA9
07DCE:  MOVFF  4FB,FA8
07DD2:  BCF    FA6.6
07DD4:  BCF    FA6.7
07DD6:  BSF    FA6.2
07DD8:  MOVF   FF2,W
07DDA:  MOVWF  00
07DDC:  BCF    FF2.7
07DDE:  MOVLB  F
07DE0:  MOVLW  55
07DE2:  MOVWF  FA7
07DE4:  MOVLW  AA
07DE6:  MOVWF  FA7
07DE8:  BSF    FA6.1
07DEA:  BTFSC  FA6.1
07DEC:  BRA    7DEA
07DEE:  BCF    FA6.2
07DF0:  MOVF   00,W
07DF2:  IORWF  FF2,F
....................          delay_ms(20); 
07DF4:  MOVLW  14
07DF6:  MOVLB  5
07DF8:  MOVWF  xF1
07DFA:  MOVLB  0
07DFC:  CALL   14E0
....................          write_eeprom(11,Tppurgap[3]); 
07E00:  CLRF   FAA
07E02:  MOVLW  0B
07E04:  MOVWF  FA9
07E06:  MOVFF  4FC,FA8
07E0A:  BCF    FA6.6
07E0C:  BCF    FA6.7
07E0E:  BSF    FA6.2
07E10:  MOVF   FF2,W
07E12:  MOVWF  00
07E14:  BCF    FF2.7
07E16:  MOVLB  F
07E18:  MOVLW  55
07E1A:  MOVWF  FA7
07E1C:  MOVLW  AA
07E1E:  MOVWF  FA7
07E20:  BSF    FA6.1
07E22:  BTFSC  FA6.1
07E24:  BRA    7E22
07E26:  BCF    FA6.2
07E28:  MOVF   00,W
07E2A:  IORWF  FF2,F
....................          delay_ms(20); 
07E2C:  MOVLW  14
07E2E:  MOVLB  5
07E30:  MOVWF  xF1
07E32:  MOVLB  0
07E34:  CALL   14E0
....................       } 
....................              
....................       for(i=0;i<4;i++) 
07E38:  MOVLB  5
07E3A:  CLRF   xCD
07E3C:  MOVF   xCD,W
07E3E:  SUBLW  03
07E40:  BNC   7E94
....................       { 
....................          if(Tppurgap[i]>9) 
07E42:  CLRF   03
07E44:  MOVF   xCD,W
07E46:  ADDLW  F9
07E48:  MOVWF  FE9
07E4A:  MOVLW  04
07E4C:  ADDWFC 03,W
07E4E:  MOVWF  FEA
07E50:  BTFSC  FEF.7
07E52:  BRA    7E6A
07E54:  MOVF   FEF,W
07E56:  SUBLW  09
07E58:  BC    7E6A
....................          {Tppurgap[i]=0;} 
07E5A:  CLRF   03
07E5C:  MOVF   xCD,W
07E5E:  ADDLW  F9
07E60:  MOVWF  FE9
07E62:  MOVLW  04
07E64:  ADDWFC 03,W
07E66:  MOVWF  FEA
07E68:  CLRF   FEF
....................           
....................          if(Tppurgap[i]<0) 
07E6A:  CLRF   03
07E6C:  MOVF   xCD,W
07E6E:  ADDLW  F9
07E70:  MOVWF  FE9
07E72:  MOVLW  04
07E74:  ADDWFC 03,W
07E76:  MOVWF  FEA
07E78:  BTFSC  FEF.7
07E7A:  BRA    7E7E
07E7C:  BRA    7E90
....................          {Tppurgap[i]=9;} 
07E7E:  CLRF   03
07E80:  MOVF   xCD,W
07E82:  ADDLW  F9
07E84:  MOVWF  FE9
07E86:  MOVLW  04
07E88:  ADDWFC 03,W
07E8A:  MOVWF  FEA
07E8C:  MOVLW  09
07E8E:  MOVWF  FEF
....................       } 
07E90:  INCF   xCD,F
07E92:  BRA    7E3C
....................        
....................       for(i=1;i<4;i++) 
07E94:  MOVLW  01
07E96:  MOVWF  xCD
07E98:  MOVF   xCD,W
07E9A:  SUBLW  03
07E9C:  BNC   7EF2
....................       { 
....................          if(Tppurgap[i]>5) 
07E9E:  CLRF   03
07EA0:  MOVF   xCD,W
07EA2:  ADDLW  F9
07EA4:  MOVWF  FE9
07EA6:  MOVLW  04
07EA8:  ADDWFC 03,W
07EAA:  MOVWF  FEA
07EAC:  BTFSC  FEF.7
07EAE:  BRA    7EC6
07EB0:  MOVF   FEF,W
07EB2:  SUBLW  05
07EB4:  BC    7EC6
....................          {Tppurgap[i]=0;} 
07EB6:  CLRF   03
07EB8:  MOVF   xCD,W
07EBA:  ADDLW  F9
07EBC:  MOVWF  FE9
07EBE:  MOVLW  04
07EC0:  ADDWFC 03,W
07EC2:  MOVWF  FEA
07EC4:  CLRF   FEF
....................           
....................          if(Tppurgap[i]<0) 
07EC6:  CLRF   03
07EC8:  MOVF   xCD,W
07ECA:  ADDLW  F9
07ECC:  MOVWF  FE9
07ECE:  MOVLW  04
07ED0:  ADDWFC 03,W
07ED2:  MOVWF  FEA
07ED4:  BTFSC  FEF.7
07ED6:  BRA    7EDA
07ED8:  BRA    7EEC
....................          {Tppurgap[i]=5;} 
07EDA:  CLRF   03
07EDC:  MOVF   xCD,W
07EDE:  ADDLW  F9
07EE0:  MOVWF  FE9
07EE2:  MOVLW  04
07EE4:  ADDWFC 03,W
07EE6:  MOVWF  FEA
07EE8:  MOVLW  05
07EEA:  MOVWF  FEF
....................         i++;  
07EEC:  INCF   xCD,F
....................       } 
07EEE:  INCF   xCD,F
07EF0:  BRA    7E98
....................       if(unidad<1) 
07EF2:  MOVLB  4
07EF4:  MOVF   xC8,F
07EF6:  BNZ   7EFC
....................       {unidad=4;} 
07EF8:  MOVLW  04
07EFA:  MOVWF  xC8
....................       if(Opcion<1) 
07EFC:  MOVF   xC9,F
07EFE:  BNZ   7F04
....................       {Opcion=4;} 
07F00:  MOVLW  04
07F02:  MOVWF  xC9
....................      
....................     } 
.................... //_--------------------------------------------------------------------------------------------------------------------------------------------------------        
....................  
.................... //_-------------------------------------------------------------------------------------------------------------------------------------------------------- 
....................       if(Menu==5){ //Menu de Clave. 
07F04:  MOVF   xC7,W
07F06:  SUBLW  05
07F08:  BNZ   7F68
....................  
....................       PidePassword(3,5,211,Password[0],Password[1],Password[2],Password[3]); 
07F0A:  MOVLW  03
07F0C:  MOVLB  5
07F0E:  MOVWF  xDE
07F10:  MOVLW  05
07F12:  MOVWF  xDF
07F14:  MOVLW  D3
07F16:  MOVWF  xE0
07F18:  MOVFF  50D,5E1
07F1C:  MOVFF  50E,5E2
07F20:  MOVFF  50F,5E3
07F24:  MOVFF  510,5E4
07F28:  MOVLB  0
07F2A:  CALL   4C8E
....................              
....................       if(LEFT)//Si oprime boton de Toma. 
07F2E:  BSF    F96.2
07F30:  BTFSC  F84.2
07F32:  BRA    7F6A
....................       { 
....................          delay_ms(200); 
07F34:  MOVLW  C8
07F36:  MOVLB  5
07F38:  MOVWF  xF1
07F3A:  MOVLB  0
07F3C:  CALL   14E0
....................          if(unidad==1){ 
07F40:  MOVLB  4
07F42:  DECFSZ xC8,W
07F44:  BRA    7F68
....................             Menu=3;glcd_fillscreen(OFF);Opcion=1;unidad=1;Contrasena[0]=0;Contrasena[1]=0;Contrasena[2]=0;Contrasena[3]=0; 
07F46:  MOVLW  03
07F48:  MOVWF  xC7
07F4A:  MOVLB  5
07F4C:  CLRF   xE5
07F4E:  MOVLB  0
07F50:  CALL   15C0
07F54:  MOVLW  01
07F56:  MOVLB  4
07F58:  MOVWF  xC9
07F5A:  MOVWF  xC8
07F5C:  MOVLB  5
07F5E:  CLRF   x09
07F60:  CLRF   x0A
07F62:  CLRF   x0B
07F64:  CLRF   x0C
07F66:  MOVLB  4
07F68:  MOVLB  0
....................          } 
....................       }  
....................     } 
.................... //_--------------------------------------------------------------------------------------------------------------------------------------------------------        
....................  
.................... //_-------------------------------------------------------------------------------------------------------------------------------------------------------- 
....................       if(Menu==211){ //Menu de Cambio Clave. 
07F6A:  MOVLB  4
07F6C:  MOVF   xC7,W
07F6E:  SUBLW  D3
07F70:  BTFSS  FD8.2
07F72:  BRA    8412
....................        
....................       if(n==0) 
07F74:  BTFSC  x2E.3
07F76:  BRA    7FD6
....................       { 
....................          displayContrasena(Contrasena[0],20,30,1);displayContrasena(Contrasena[1],40,30,0); 
07F78:  MOVFF  509,5E7
07F7C:  MOVLW  14
07F7E:  MOVLB  5
07F80:  MOVWF  xE8
07F82:  MOVLW  1E
07F84:  MOVWF  xE9
07F86:  MOVLW  01
07F88:  MOVWF  xEA
07F8A:  MOVLB  0
07F8C:  CALL   4B0A
07F90:  MOVFF  50A,5E7
07F94:  MOVLW  28
07F96:  MOVLB  5
07F98:  MOVWF  xE8
07F9A:  MOVLW  1E
07F9C:  MOVWF  xE9
07F9E:  CLRF   xEA
07FA0:  MOVLB  0
07FA2:  CALL   4B0A
....................          displayContrasena(Contrasena[2],60,30,0);displayContrasena(Contrasena[0],80,30,0); 
07FA6:  MOVFF  50B,5E7
07FAA:  MOVLW  3C
07FAC:  MOVLB  5
07FAE:  MOVWF  xE8
07FB0:  MOVLW  1E
07FB2:  MOVWF  xE9
07FB4:  CLRF   xEA
07FB6:  MOVLB  0
07FB8:  CALL   4B0A
07FBC:  MOVFF  509,5E7
07FC0:  MOVLW  50
07FC2:  MOVLB  5
07FC4:  MOVWF  xE8
07FC6:  MOVLW  1E
07FC8:  MOVWF  xE9
07FCA:  CLRF   xEA
07FCC:  MOVLB  0
07FCE:  CALL   4B0A
....................          n=1; 
07FD2:  MOVLB  4
07FD4:  BSF    x2E.3
....................       } 
....................       strcpy(Menus.Letra,"Clave Nueva"); 
07FD6:  MOVLW  04
07FD8:  MOVWF  FEA
07FDA:  MOVLW  16
07FDC:  MOVWF  FE9
07FDE:  MOVFF  FF2,5DD
07FE2:  BCF    FF2.7
07FE4:  MOVLW  00
07FE6:  MOVLB  0
07FE8:  CALL   115E
07FEC:  TBLRD*-
07FEE:  TBLRD*+
07FF0:  MOVF   FF5,W
07FF2:  MOVWF  FEE
07FF4:  IORLW  00
07FF6:  BNZ   7FEE
07FF8:  MOVLB  5
07FFA:  BTFSC  xDD.7
07FFC:  BSF    FF2.7
....................       displayMenu(Menus.Letra,0,0,1,2); 
07FFE:  MOVLW  04
08000:  MOVWF  xE6
08002:  MOVLW  16
08004:  MOVWF  xE5
08006:  CLRF   xE7
08008:  CLRF   xE8
0800A:  MOVLW  01
0800C:  MOVWF  xE9
0800E:  MOVLW  02
08010:  MOVWF  xEA
08012:  MOVLB  0
08014:  CALL   4BC2
....................          
....................        
....................       if(UP)//Si oprime hacia arriba 
08018:  BSF    F92.5
0801A:  BTFSC  F80.5
0801C:  BRA    80F6
....................       {  if(Flanco == 0)  
0801E:  MOVLB  4
08020:  BTFSC  x2C.0
08022:  BRA    80F4
....................             {Flanco = 1;delay_ms(30); 
08024:  BSF    x2C.0
08026:  MOVLW  1E
08028:  MOVLB  5
0802A:  MOVWF  xF1
0802C:  MOVLB  0
0802E:  CALL   14E0
....................             for(i=1;i<=4;i++) 
08032:  MOVLW  01
08034:  MOVLB  5
08036:  MOVWF  xCD
08038:  MOVF   xCD,W
0803A:  SUBLW  04
0803C:  BNC   80F2
....................                { 
....................                   if(unidad==i) 
0803E:  MOVF   xCD,W
08040:  MOVLB  4
08042:  SUBWF  xC8,W
08044:  BNZ   80BA
....................                   {Contrasena[i-1]++; 
08046:  MOVLW  01
08048:  MOVLB  5
0804A:  SUBWF  xCD,W
0804C:  CLRF   03
0804E:  ADDLW  09
08050:  MOVWF  FE9
08052:  MOVLW  05
08054:  ADDWFC 03,W
08056:  MOVWF  FEA
08058:  INCF   FEF,F
....................                   if(Contrasena[i-1]>9) 
0805A:  MOVLW  01
0805C:  SUBWF  xCD,W
0805E:  CLRF   03
08060:  ADDLW  09
08062:  MOVWF  FE9
08064:  MOVLW  05
08066:  ADDWFC 03,W
08068:  MOVWF  FEA
0806A:  BTFSC  FEF.7
0806C:  BRA    8086
0806E:  MOVF   FEF,W
08070:  SUBLW  09
08072:  BC    8086
....................                         {Contrasena[i-1]=0;} 
08074:  MOVLW  01
08076:  SUBWF  xCD,W
08078:  CLRF   03
0807A:  ADDLW  09
0807C:  MOVWF  FE9
0807E:  MOVLW  05
08080:  ADDWFC 03,W
08082:  MOVWF  FEA
08084:  CLRF   FEF
....................                   displayContrasena(Contrasena[i-1],i*20,30,1);} 
08086:  MOVLW  01
08088:  SUBWF  xCD,W
0808A:  CLRF   03
0808C:  ADDLW  09
0808E:  MOVWF  FE9
08090:  MOVLW  05
08092:  ADDWFC 03,W
08094:  MOVWF  FEA
08096:  MOVFF  FEF,5DD
0809A:  MOVF   xCD,W
0809C:  MULLW  14
0809E:  MOVFF  FF3,5DE
080A2:  MOVFF  5DD,5E7
080A6:  MOVFF  5DE,5E8
080AA:  MOVLW  1E
080AC:  MOVWF  xE9
080AE:  MOVLW  01
080B0:  MOVWF  xEA
080B2:  MOVLB  0
080B4:  CALL   4B0A
....................                   else 
080B8:  BRA    80EC
....................                   {displayContrasena(Contrasena[i-1],i*20,30,0);} 
080BA:  MOVLW  01
080BC:  MOVLB  5
080BE:  SUBWF  xCD,W
080C0:  CLRF   03
080C2:  ADDLW  09
080C4:  MOVWF  FE9
080C6:  MOVLW  05
080C8:  ADDWFC 03,W
080CA:  MOVWF  FEA
080CC:  MOVFF  FEF,5DD
080D0:  MOVF   xCD,W
080D2:  MULLW  14
080D4:  MOVFF  FF3,5DE
080D8:  MOVFF  5DD,5E7
080DC:  MOVFF  5DE,5E8
080E0:  MOVLW  1E
080E2:  MOVWF  xE9
080E4:  CLRF   xEA
080E6:  MOVLB  0
080E8:  CALL   4B0A
....................                } 
080EC:  MOVLB  5
080EE:  INCF   xCD,F
080F0:  BRA    8038
080F2:  MOVLB  4
....................             } 
....................       } 
....................          else 
080F4:  BRA    80FA
....................             {Flanco = 0;} 
080F6:  MOVLB  4
080F8:  BCF    x2C.0
....................              
....................       if(DOWN )//Si oprime hacia abajo 
080FA:  BSF    F96.0
080FC:  BTFSC  F84.0
080FE:  BRA    81D4
....................       {  if(Flanco2 == 0)  
08100:  BTFSC  x2C.2
08102:  BRA    81D2
....................             {Flanco2 = 1;delay_ms(30); 
08104:  BSF    x2C.2
08106:  MOVLW  1E
08108:  MOVLB  5
0810A:  MOVWF  xF1
0810C:  MOVLB  0
0810E:  CALL   14E0
....................                for(i=1;i<=4;i++) 
08112:  MOVLW  01
08114:  MOVLB  5
08116:  MOVWF  xCD
08118:  MOVF   xCD,W
0811A:  SUBLW  04
0811C:  BNC   81D0
....................                { 
....................                   if(unidad==i) 
0811E:  MOVF   xCD,W
08120:  MOVLB  4
08122:  SUBWF  xC8,W
08124:  BNZ   8198
....................                   {Contrasena[i-1]--;  
08126:  MOVLW  01
08128:  MOVLB  5
0812A:  SUBWF  xCD,W
0812C:  CLRF   03
0812E:  ADDLW  09
08130:  MOVWF  FE9
08132:  MOVLW  05
08134:  ADDWFC 03,W
08136:  MOVWF  FEA
08138:  DECF   FEF,F
....................                      if(Contrasena[i-1]<0) 
0813A:  MOVLW  01
0813C:  SUBWF  xCD,W
0813E:  CLRF   03
08140:  ADDLW  09
08142:  MOVWF  FE9
08144:  MOVLW  05
08146:  ADDWFC 03,W
08148:  MOVWF  FEA
0814A:  BTFSC  FEF.7
0814C:  BRA    8150
0814E:  BRA    8164
....................                         {Contrasena[i-1]=9;} 
08150:  MOVLW  01
08152:  SUBWF  xCD,W
08154:  CLRF   03
08156:  ADDLW  09
08158:  MOVWF  FE9
0815A:  MOVLW  05
0815C:  ADDWFC 03,W
0815E:  MOVWF  FEA
08160:  MOVLW  09
08162:  MOVWF  FEF
....................                    displayContrasena(Contrasena[i-1],i*20,30,1);} 
08164:  MOVLW  01
08166:  SUBWF  xCD,W
08168:  CLRF   03
0816A:  ADDLW  09
0816C:  MOVWF  FE9
0816E:  MOVLW  05
08170:  ADDWFC 03,W
08172:  MOVWF  FEA
08174:  MOVFF  FEF,5DD
08178:  MOVF   xCD,W
0817A:  MULLW  14
0817C:  MOVFF  FF3,5DE
08180:  MOVFF  5DD,5E7
08184:  MOVFF  5DE,5E8
08188:  MOVLW  1E
0818A:  MOVWF  xE9
0818C:  MOVLW  01
0818E:  MOVWF  xEA
08190:  MOVLB  0
08192:  CALL   4B0A
....................                   else 
08196:  BRA    81CA
....................                   {displayContrasena(Contrasena[i-1],i*20,30,0);} 
08198:  MOVLW  01
0819A:  MOVLB  5
0819C:  SUBWF  xCD,W
0819E:  CLRF   03
081A0:  ADDLW  09
081A2:  MOVWF  FE9
081A4:  MOVLW  05
081A6:  ADDWFC 03,W
081A8:  MOVWF  FEA
081AA:  MOVFF  FEF,5DD
081AE:  MOVF   xCD,W
081B0:  MULLW  14
081B2:  MOVFF  FF3,5DE
081B6:  MOVFF  5DD,5E7
081BA:  MOVFF  5DE,5E8
081BE:  MOVLW  1E
081C0:  MOVWF  xE9
081C2:  CLRF   xEA
081C4:  MOVLB  0
081C6:  CALL   4B0A
....................                }       
081CA:  MOVLB  5
081CC:  INCF   xCD,F
081CE:  BRA    8118
081D0:  MOVLB  4
....................             }      
....................       } 
....................          else 
081D2:  BRA    81D6
....................             {Flanco2 = 0;}   
081D4:  BCF    x2C.2
....................              
....................       if(RIGHT)//Si oprime SET 
081D6:  BSF    F96.1
081D8:  BTFSC  F84.1
081DA:  BRA    8278
....................       {  if(Flanco1 == 0)  
081DC:  BTFSC  x2C.1
081DE:  BRA    8276
....................             {Flanco1 = 1;delay_ms(30);unidad++; 
081E0:  BSF    x2C.1
081E2:  MOVLW  1E
081E4:  MOVLB  5
081E6:  MOVWF  xF1
081E8:  MOVLB  0
081EA:  CALL   14E0
081EE:  MOVLB  4
081F0:  INCF   xC8,F
....................                for(i=1;i<=4;i++) 
081F2:  MOVLW  01
081F4:  MOVLB  5
081F6:  MOVWF  xCD
081F8:  MOVF   xCD,W
081FA:  SUBLW  04
081FC:  BNC   8274
....................                { 
....................                   if(unidad==i) 
081FE:  MOVF   xCD,W
08200:  MOVLB  4
08202:  SUBWF  xC8,W
08204:  BNZ   823C
....................                   {displayContrasena(Contrasena[i-1],i*20,30,1);} 
08206:  MOVLW  01
08208:  MOVLB  5
0820A:  SUBWF  xCD,W
0820C:  CLRF   03
0820E:  ADDLW  09
08210:  MOVWF  FE9
08212:  MOVLW  05
08214:  ADDWFC 03,W
08216:  MOVWF  FEA
08218:  MOVFF  FEF,5DD
0821C:  MOVF   xCD,W
0821E:  MULLW  14
08220:  MOVFF  FF3,5DE
08224:  MOVFF  5DD,5E7
08228:  MOVFF  5DE,5E8
0822C:  MOVLW  1E
0822E:  MOVWF  xE9
08230:  MOVLW  01
08232:  MOVWF  xEA
08234:  MOVLB  0
08236:  CALL   4B0A
....................                   else 
0823A:  BRA    826E
....................                   {displayContrasena(Contrasena[i-1],i*20,30,0);} 
0823C:  MOVLW  01
0823E:  MOVLB  5
08240:  SUBWF  xCD,W
08242:  CLRF   03
08244:  ADDLW  09
08246:  MOVWF  FE9
08248:  MOVLW  05
0824A:  ADDWFC 03,W
0824C:  MOVWF  FEA
0824E:  MOVFF  FEF,5DD
08252:  MOVF   xCD,W
08254:  MULLW  14
08256:  MOVFF  FF3,5DE
0825A:  MOVFF  5DD,5E7
0825E:  MOVFF  5DE,5E8
08262:  MOVLW  1E
08264:  MOVWF  xE9
08266:  CLRF   xEA
08268:  MOVLB  0
0826A:  CALL   4B0A
....................                } 
0826E:  MOVLB  5
08270:  INCF   xCD,F
08272:  BRA    81F8
08274:  MOVLB  4
....................             } 
....................       } 
....................          else 
08276:  BRA    827A
....................             {Flanco1 = 0;}   
08278:  BCF    x2C.1
....................              
....................       if(LEFT)//Si oprime boton de Toma. 
0827A:  BSF    F96.2
0827C:  BTFSC  F84.2
0827E:  BRA    82BE
....................       { 
....................          
....................          delay_ms(700); 
08280:  MOVLW  04
08282:  MOVLB  5
08284:  MOVWF  xDD
08286:  MOVLW  AF
08288:  MOVWF  xF1
0828A:  MOVLB  0
0828C:  CALL   14E0
08290:  MOVLB  5
08292:  DECFSZ xDD,F
08294:  BRA    8286
....................          if(unidad==1){ 
08296:  MOVLB  4
08298:  DECFSZ xC8,W
0829A:  BRA    82BE
....................             Menu=3;glcd_fillscreen(OFF);Opcion=1;unidad=1;Contrasena[0]=0;Contrasena[1]=0;Contrasena[2]=0;Contrasena[3]=0; 
0829C:  MOVLW  03
0829E:  MOVWF  xC7
082A0:  MOVLB  5
082A2:  CLRF   xE5
082A4:  MOVLB  0
082A6:  CALL   15C0
082AA:  MOVLW  01
082AC:  MOVLB  4
082AE:  MOVWF  xC9
082B0:  MOVWF  xC8
082B2:  MOVLB  5
082B4:  CLRF   x09
082B6:  CLRF   x0A
082B8:  CLRF   x0B
082BA:  CLRF   x0C
082BC:  MOVLB  4
....................          } 
....................       } 
....................        
....................       if(unidad>4) 
082BE:  MOVF   xC8,W
082C0:  SUBLW  04
082C2:  BTFSC  FD8.0
082C4:  BRA    8412
....................       { 
....................          Opcion=1;glcd_fillscreen(OFF);unidad=1;n=0; 
082C6:  MOVLW  01
082C8:  MOVWF  xC9
082CA:  MOVLB  5
082CC:  CLRF   xE5
082CE:  MOVLB  0
082D0:  CALL   15C0
082D4:  MOVLW  01
082D6:  MOVLB  4
082D8:  MOVWF  xC8
082DA:  BCF    x2E.3
....................          Password[0]=Contrasena[0];Password[1]=Contrasena[1];Password[2]=Contrasena[2];Password[3]=Contrasena[3]; 
082DC:  MOVFF  509,50D
082E0:  MOVFF  50A,50E
082E4:  MOVFF  50B,50F
082E8:  MOVFF  50C,510
....................          write_eeprom(0,Password[0]); 
082EC:  CLRF   FAA
082EE:  CLRF   FA9
082F0:  MOVFF  50D,FA8
082F4:  BCF    FA6.6
082F6:  BCF    FA6.7
082F8:  BSF    FA6.2
082FA:  MOVF   FF2,W
082FC:  MOVWF  00
082FE:  BCF    FF2.7
08300:  MOVLB  F
08302:  MOVLW  55
08304:  MOVWF  FA7
08306:  MOVLW  AA
08308:  MOVWF  FA7
0830A:  BSF    FA6.1
0830C:  BTFSC  FA6.1
0830E:  BRA    830C
08310:  BCF    FA6.2
08312:  MOVF   00,W
08314:  IORWF  FF2,F
....................          delay_ms(20); 
08316:  MOVLW  14
08318:  MOVLB  5
0831A:  MOVWF  xF1
0831C:  MOVLB  0
0831E:  CALL   14E0
....................          write_eeprom(1,Password[1]); 
08322:  CLRF   FAA
08324:  MOVLW  01
08326:  MOVWF  FA9
08328:  MOVFF  50E,FA8
0832C:  BCF    FA6.6
0832E:  BCF    FA6.7
08330:  BSF    FA6.2
08332:  MOVF   FF2,W
08334:  MOVWF  00
08336:  BCF    FF2.7
08338:  MOVLB  F
0833A:  MOVLW  55
0833C:  MOVWF  FA7
0833E:  MOVLW  AA
08340:  MOVWF  FA7
08342:  BSF    FA6.1
08344:  BTFSC  FA6.1
08346:  BRA    8344
08348:  BCF    FA6.2
0834A:  MOVF   00,W
0834C:  IORWF  FF2,F
....................          delay_ms(20); 
0834E:  MOVLW  14
08350:  MOVLB  5
08352:  MOVWF  xF1
08354:  MOVLB  0
08356:  CALL   14E0
....................          write_eeprom(2,Password[2]); 
0835A:  CLRF   FAA
0835C:  MOVLW  02
0835E:  MOVWF  FA9
08360:  MOVFF  50F,FA8
08364:  BCF    FA6.6
08366:  BCF    FA6.7
08368:  BSF    FA6.2
0836A:  MOVF   FF2,W
0836C:  MOVWF  00
0836E:  BCF    FF2.7
08370:  MOVLB  F
08372:  MOVLW  55
08374:  MOVWF  FA7
08376:  MOVLW  AA
08378:  MOVWF  FA7
0837A:  BSF    FA6.1
0837C:  BTFSC  FA6.1
0837E:  BRA    837C
08380:  BCF    FA6.2
08382:  MOVF   00,W
08384:  IORWF  FF2,F
....................          delay_ms(20); 
08386:  MOVLW  14
08388:  MOVLB  5
0838A:  MOVWF  xF1
0838C:  MOVLB  0
0838E:  CALL   14E0
....................          write_eeprom(3,Password[3]); 
08392:  CLRF   FAA
08394:  MOVLW  03
08396:  MOVWF  FA9
08398:  MOVFF  510,FA8
0839C:  BCF    FA6.6
0839E:  BCF    FA6.7
083A0:  BSF    FA6.2
083A2:  MOVF   FF2,W
083A4:  MOVWF  00
083A6:  BCF    FF2.7
083A8:  MOVLB  F
083AA:  MOVLW  55
083AC:  MOVWF  FA7
083AE:  MOVLW  AA
083B0:  MOVWF  FA7
083B2:  BSF    FA6.1
083B4:  BTFSC  FA6.1
083B6:  BRA    83B4
083B8:  BCF    FA6.2
083BA:  MOVF   00,W
083BC:  IORWF  FF2,F
....................          delay_ms(20); 
083BE:  MOVLW  14
083C0:  MOVLB  5
083C2:  MOVWF  xF1
083C4:  MOVLB  0
083C6:  CALL   14E0
....................          glcd_imagen(1);glcd_update();Menu=211;delay_ms(1000);glcd_fillScreen(OFF);Menu=3; 
083CA:  MOVLW  01
083CC:  MOVLB  5
083CE:  MOVWF  xDD
083D0:  MOVLB  0
083D2:  CALL   546C
083D6:  CALL   161A
083DA:  MOVLW  D3
083DC:  MOVLB  4
083DE:  MOVWF  xC7
083E0:  MOVLW  04
083E2:  MOVLB  5
083E4:  MOVWF  xDD
083E6:  MOVLW  FA
083E8:  MOVWF  xF1
083EA:  MOVLB  0
083EC:  CALL   14E0
083F0:  MOVLB  5
083F2:  DECFSZ xDD,F
083F4:  BRA    83E6
083F6:  CLRF   xE5
083F8:  MOVLB  0
083FA:  CALL   15C0
083FE:  MOVLW  03
08400:  MOVLB  4
08402:  MOVWF  xC7
....................          n=0; 
08404:  BCF    x2E.3
....................          Contrasena[0]=0;Contrasena[1]=0;Contrasena[2]=0;Contrasena[3]=0; 
08406:  MOVLB  5
08408:  CLRF   x09
0840A:  CLRF   x0A
0840C:  CLRF   x0B
0840E:  CLRF   x0C
08410:  MOVLB  4
....................       } 
....................      
....................     } 
.................... //_--------------------------------------------------------------------------------------------------------------------------------------------------------        
....................  
.................... //_-------------------------------------------------------------------------------------------------------------------------------------------------------- 
....................       if(Menu==31){ //Menu de Mantenimiento. 
08412:  MOVF   xC7,W
08414:  SUBLW  1F
08416:  BTFSS  FD8.2
08418:  BRA    8778
....................        
....................          strcpy(Menus.Letra,"Manteniento"); 
0841A:  MOVLW  04
0841C:  MOVWF  FEA
0841E:  MOVLW  16
08420:  MOVWF  FE9
08422:  MOVFF  FF2,5DD
08426:  BCF    FF2.7
08428:  MOVLW  00
0842A:  MOVLB  0
0842C:  CALL   1184
08430:  TBLRD*-
08432:  TBLRD*+
08434:  MOVF   FF5,W
08436:  MOVWF  FEE
08438:  IORLW  00
0843A:  BNZ   8432
0843C:  MOVLB  5
0843E:  BTFSC  xDD.7
08440:  BSF    FF2.7
....................          displayMenu(Menus.Letra,0,0,1,2); 
08442:  MOVLW  04
08444:  MOVWF  xE6
08446:  MOVLW  16
08448:  MOVWF  xE5
0844A:  CLRF   xE7
0844C:  CLRF   xE8
0844E:  MOVLW  01
08450:  MOVWF  xE9
08452:  MOVLW  02
08454:  MOVWF  xEA
08456:  MOVLB  0
08458:  CALL   4BC2
....................           
....................          strcpy(Menus.Letra,"Trabajo Filtro(h):"); 
0845C:  MOVLW  04
0845E:  MOVWF  FEA
08460:  MOVLW  16
08462:  MOVWF  FE9
08464:  MOVFF  FF2,5DD
08468:  BCF    FF2.7
0846A:  MOVLW  00
0846C:  CALL   11AA
08470:  TBLRD*-
08472:  TBLRD*+
08474:  MOVF   FF5,W
08476:  MOVWF  FEE
08478:  IORLW  00
0847A:  BNZ   8472
0847C:  MOVLB  5
0847E:  BTFSC  xDD.7
08480:  BSF    FF2.7
....................          displayMenu(Menus.Letra,10,20,1,1); 
08482:  MOVLW  04
08484:  MOVWF  xE6
08486:  MOVLW  16
08488:  MOVWF  xE5
0848A:  MOVLW  0A
0848C:  MOVWF  xE7
0848E:  MOVLW  14
08490:  MOVWF  xE8
08492:  MOVLW  01
08494:  MOVWF  xE9
08496:  MOVWF  xEA
08498:  MOVLB  0
0849A:  CALL   4BC2
....................          glcd_text57(0, 31, Vida_Filtro, 1, ON); 
0849E:  MOVLB  5
084A0:  CLRF   xF6
084A2:  MOVLW  1F
084A4:  MOVWF  xF7
084A6:  MOVLW  04
084A8:  MOVWF  xF9
084AA:  MOVLW  9C
084AC:  MOVWF  xF8
084AE:  MOVLW  01
084B0:  MOVWF  xFA
084B2:  MOVWF  xFB
084B4:  MOVLB  0
084B6:  CALL   4948
....................          displayTiempo(Ttrabajo[3],60,30,0,1);displayTiempo(Ttrabajo[2],67,30,0,1);displayTiempo(Ttrabajo[1],74,30,0,1);displayTiempo(Ttrabajo[0],82,30,0,1); 
084BA:  MOVFF  508,5DD
084BE:  MOVLW  3C
084C0:  MOVLB  5
084C2:  MOVWF  xDE
084C4:  MOVLW  1E
084C6:  MOVWF  xDF
084C8:  CLRF   xE0
084CA:  MOVLW  01
084CC:  MOVWF  xE1
084CE:  MOVLB  0
084D0:  CALL   5370
084D4:  MOVFF  507,5DD
084D8:  MOVLW  43
084DA:  MOVLB  5
084DC:  MOVWF  xDE
084DE:  MOVLW  1E
084E0:  MOVWF  xDF
084E2:  CLRF   xE0
084E4:  MOVLW  01
084E6:  MOVWF  xE1
084E8:  MOVLB  0
084EA:  CALL   5370
084EE:  MOVFF  506,5DD
084F2:  MOVLW  4A
084F4:  MOVLB  5
084F6:  MOVWF  xDE
084F8:  MOVLW  1E
084FA:  MOVWF  xDF
084FC:  CLRF   xE0
084FE:  MOVLW  01
08500:  MOVWF  xE1
08502:  MOVLB  0
08504:  CALL   5370
08508:  MOVFF  505,5DD
0850C:  MOVLW  52
0850E:  MOVLB  5
08510:  MOVWF  xDE
08512:  MOVLW  1E
08514:  MOVWF  xDF
08516:  CLRF   xE0
08518:  MOVLW  01
0851A:  MOVWF  xE1
0851C:  MOVLB  0
0851E:  CALL   5370
....................           
....................          LuzBlanca_on; 
08522:  BSF    F8B.0
08524:  BCF    F94.0
....................           
....................             if(UP && RIGHT) // Reinicia Tiempo de Luz UV 
08526:  BSF    F92.5
08528:  BTFSC  F80.5
0852A:  BRA    863E
0852C:  BSF    F96.1
0852E:  BTFSC  F84.1
08530:  BRA    863E
....................             { 
....................                   delay_ms(2000); 
08532:  MOVLW  08
08534:  MOVLB  5
08536:  MOVWF  xDD
08538:  MOVLW  FA
0853A:  MOVWF  xF1
0853C:  MOVLB  0
0853E:  CALL   14E0
08542:  MOVLB  5
08544:  DECFSZ xDD,F
08546:  BRA    8538
....................                   write_eeprom(12,0); 
08548:  CLRF   FAA
0854A:  MOVLW  0C
0854C:  MOVWF  FA9
0854E:  CLRF   FA8
08550:  BCF    FA6.6
08552:  BCF    FA6.7
08554:  BSF    FA6.2
08556:  MOVF   FF2,W
08558:  MOVWF  00
0855A:  BCF    FF2.7
0855C:  MOVLB  F
0855E:  MOVLW  55
08560:  MOVWF  FA7
08562:  MOVLW  AA
08564:  MOVWF  FA7
08566:  BSF    FA6.1
08568:  BTFSC  FA6.1
0856A:  BRA    8568
0856C:  BCF    FA6.2
0856E:  MOVF   00,W
08570:  IORWF  FF2,F
....................                   delay_ms(20); 
08572:  MOVLW  14
08574:  MOVLB  5
08576:  MOVWF  xF1
08578:  MOVLB  0
0857A:  CALL   14E0
....................                   write_eeprom(13,0); 
0857E:  CLRF   FAA
08580:  MOVLW  0D
08582:  MOVWF  FA9
08584:  CLRF   FA8
08586:  BCF    FA6.6
08588:  BCF    FA6.7
0858A:  BSF    FA6.2
0858C:  MOVF   FF2,W
0858E:  MOVWF  00
08590:  BCF    FF2.7
08592:  MOVLB  F
08594:  MOVLW  55
08596:  MOVWF  FA7
08598:  MOVLW  AA
0859A:  MOVWF  FA7
0859C:  BSF    FA6.1
0859E:  BTFSC  FA6.1
085A0:  BRA    859E
085A2:  BCF    FA6.2
085A4:  MOVF   00,W
085A6:  IORWF  FF2,F
....................                   delay_ms(20); 
085A8:  MOVLW  14
085AA:  MOVLB  5
085AC:  MOVWF  xF1
085AE:  MOVLB  0
085B0:  CALL   14E0
....................                   write_eeprom(14,0); 
085B4:  CLRF   FAA
085B6:  MOVLW  0E
085B8:  MOVWF  FA9
085BA:  CLRF   FA8
085BC:  BCF    FA6.6
085BE:  BCF    FA6.7
085C0:  BSF    FA6.2
085C2:  MOVF   FF2,W
085C4:  MOVWF  00
085C6:  BCF    FF2.7
085C8:  MOVLB  F
085CA:  MOVLW  55
085CC:  MOVWF  FA7
085CE:  MOVLW  AA
085D0:  MOVWF  FA7
085D2:  BSF    FA6.1
085D4:  BTFSC  FA6.1
085D6:  BRA    85D4
085D8:  BCF    FA6.2
085DA:  MOVF   00,W
085DC:  IORWF  FF2,F
....................                   delay_ms(20); 
085DE:  MOVLW  14
085E0:  MOVLB  5
085E2:  MOVWF  xF1
085E4:  MOVLB  0
085E6:  CALL   14E0
....................                   write_eeprom(15,0); 
085EA:  CLRF   FAA
085EC:  MOVLW  0F
085EE:  MOVWF  FA9
085F0:  CLRF   FA8
085F2:  BCF    FA6.6
085F4:  BCF    FA6.7
085F6:  BSF    FA6.2
085F8:  MOVF   FF2,W
085FA:  MOVWF  00
085FC:  BCF    FF2.7
085FE:  MOVLB  F
08600:  MOVLW  55
08602:  MOVWF  FA7
08604:  MOVLW  AA
08606:  MOVWF  FA7
08608:  BSF    FA6.1
0860A:  BTFSC  FA6.1
0860C:  BRA    860A
0860E:  BCF    FA6.2
08610:  MOVF   00,W
08612:  IORWF  FF2,F
....................                   delay_ms(20); 
08614:  MOVLW  14
08616:  MOVLB  5
08618:  MOVWF  xF1
0861A:  MOVLB  0
0861C:  CALL   14E0
....................                   Tuv[3]=0;Tuv[2]=0;Tuv[1]=0;Tuv[0]=0; 
08620:  MOVLB  5
08622:  CLRF   x00
08624:  MOVLB  4
08626:  CLRF   xFF
08628:  CLRF   xFE
0862A:  CLRF   xFD
....................                   Menu=3;glcd_fillscreen(OFF);LuzBlanca_off; 
0862C:  MOVLW  03
0862E:  MOVWF  xC7
08630:  MOVLB  5
08632:  CLRF   xE5
08634:  MOVLB  0
08636:  CALL   15C0
0863A:  BCF    F8B.0
0863C:  BCF    F94.0
....................                 
....................             } 
....................             if(DOWN && RIGHT) // Reinicia Tiempo de Trabajo 
0863E:  BSF    F96.0
08640:  BTFSC  F84.0
08642:  BRA    8756
08644:  BSF    F96.1
08646:  BTFSC  F84.1
08648:  BRA    8756
....................             { 
....................                   delay_ms(2000); 
0864A:  MOVLW  08
0864C:  MOVLB  5
0864E:  MOVWF  xDD
08650:  MOVLW  FA
08652:  MOVWF  xF1
08654:  MOVLB  0
08656:  CALL   14E0
0865A:  MOVLB  5
0865C:  DECFSZ xDD,F
0865E:  BRA    8650
....................                   write_eeprom(16,0); 
08660:  CLRF   FAA
08662:  MOVLW  10
08664:  MOVWF  FA9
08666:  CLRF   FA8
08668:  BCF    FA6.6
0866A:  BCF    FA6.7
0866C:  BSF    FA6.2
0866E:  MOVF   FF2,W
08670:  MOVWF  00
08672:  BCF    FF2.7
08674:  MOVLB  F
08676:  MOVLW  55
08678:  MOVWF  FA7
0867A:  MOVLW  AA
0867C:  MOVWF  FA7
0867E:  BSF    FA6.1
08680:  BTFSC  FA6.1
08682:  BRA    8680
08684:  BCF    FA6.2
08686:  MOVF   00,W
08688:  IORWF  FF2,F
....................                   delay_ms(20); 
0868A:  MOVLW  14
0868C:  MOVLB  5
0868E:  MOVWF  xF1
08690:  MOVLB  0
08692:  CALL   14E0
....................                   write_eeprom(17,0); 
08696:  CLRF   FAA
08698:  MOVLW  11
0869A:  MOVWF  FA9
0869C:  CLRF   FA8
0869E:  BCF    FA6.6
086A0:  BCF    FA6.7
086A2:  BSF    FA6.2
086A4:  MOVF   FF2,W
086A6:  MOVWF  00
086A8:  BCF    FF2.7
086AA:  MOVLB  F
086AC:  MOVLW  55
086AE:  MOVWF  FA7
086B0:  MOVLW  AA
086B2:  MOVWF  FA7
086B4:  BSF    FA6.1
086B6:  BTFSC  FA6.1
086B8:  BRA    86B6
086BA:  BCF    FA6.2
086BC:  MOVF   00,W
086BE:  IORWF  FF2,F
....................                   delay_ms(20); 
086C0:  MOVLW  14
086C2:  MOVLB  5
086C4:  MOVWF  xF1
086C6:  MOVLB  0
086C8:  CALL   14E0
....................                   write_eeprom(18,0); 
086CC:  CLRF   FAA
086CE:  MOVLW  12
086D0:  MOVWF  FA9
086D2:  CLRF   FA8
086D4:  BCF    FA6.6
086D6:  BCF    FA6.7
086D8:  BSF    FA6.2
086DA:  MOVF   FF2,W
086DC:  MOVWF  00
086DE:  BCF    FF2.7
086E0:  MOVLB  F
086E2:  MOVLW  55
086E4:  MOVWF  FA7
086E6:  MOVLW  AA
086E8:  MOVWF  FA7
086EA:  BSF    FA6.1
086EC:  BTFSC  FA6.1
086EE:  BRA    86EC
086F0:  BCF    FA6.2
086F2:  MOVF   00,W
086F4:  IORWF  FF2,F
....................                   delay_ms(20); 
086F6:  MOVLW  14
086F8:  MOVLB  5
086FA:  MOVWF  xF1
086FC:  MOVLB  0
086FE:  CALL   14E0
....................                   write_eeprom(19,0); 
08702:  CLRF   FAA
08704:  MOVLW  13
08706:  MOVWF  FA9
08708:  CLRF   FA8
0870A:  BCF    FA6.6
0870C:  BCF    FA6.7
0870E:  BSF    FA6.2
08710:  MOVF   FF2,W
08712:  MOVWF  00
08714:  BCF    FF2.7
08716:  MOVLB  F
08718:  MOVLW  55
0871A:  MOVWF  FA7
0871C:  MOVLW  AA
0871E:  MOVWF  FA7
08720:  BSF    FA6.1
08722:  BTFSC  FA6.1
08724:  BRA    8722
08726:  BCF    FA6.2
08728:  MOVF   00,W
0872A:  IORWF  FF2,F
....................                   delay_ms(20); 
0872C:  MOVLW  14
0872E:  MOVLB  5
08730:  MOVWF  xF1
08732:  MOVLB  0
08734:  CALL   14E0
....................                   Ttrabajo[3]=0;Ttrabajo[2]=0;Ttrabajo[1]=0;Ttrabajo[0]=0; 
08738:  MOVLB  5
0873A:  CLRF   x08
0873C:  CLRF   x07
0873E:  CLRF   x06
08740:  CLRF   x05
....................                   Menu=3;glcd_fillscreen(OFF);LuzBlanca_off; 
08742:  MOVLW  03
08744:  MOVLB  4
08746:  MOVWF  xC7
08748:  MOVLB  5
0874A:  CLRF   xE5
0874C:  MOVLB  0
0874E:  CALL   15C0
08752:  BCF    F8B.0
08754:  BCF    F94.0
....................             } 
....................              
....................             if(LEFT) 
08756:  BSF    F96.2
08758:  BTFSC  F84.2
0875A:  BRA    877A
....................             { 
....................                Menu=6;glcd_fillscreen(OFF);LuzBlanca_off;Opcion=1;unidad=1; 
0875C:  MOVLW  06
0875E:  MOVLB  4
08760:  MOVWF  xC7
08762:  MOVLB  5
08764:  CLRF   xE5
08766:  MOVLB  0
08768:  CALL   15C0
0876C:  BCF    F8B.0
0876E:  BCF    F94.0
08770:  MOVLW  01
08772:  MOVLB  4
08774:  MOVWF  xC9
08776:  MOVWF  xC8
08778:  MOVLB  0
....................             } 
....................     } 
.................... //_--------------------------------------------------------------------------------------------------------------------------------------------------------        
....................  
.................... //_-------------------------------------------------------------------------------------------------------------------------------------------------------- 
....................       if(Menu==32){ //Menu de Servicio 
0877A:  MOVLB  4
0877C:  MOVF   xC7,W
0877E:  SUBLW  20
08780:  BTFSS  FD8.2
08782:  BRA    8A9A
....................        
....................       strcpy(Menus.Letra,"Servicio"); 
08784:  MOVLW  04
08786:  MOVWF  FEA
08788:  MOVLW  16
0878A:  MOVWF  FE9
0878C:  MOVFF  FF2,5DD
08790:  BCF    FF2.7
08792:  MOVLW  00
08794:  MOVLB  0
08796:  CALL   10AC
0879A:  TBLRD*-
0879C:  TBLRD*+
0879E:  MOVF   FF5,W
087A0:  MOVWF  FEE
087A2:  IORLW  00
087A4:  BNZ   879C
087A6:  MOVLB  5
087A8:  BTFSC  xDD.7
087AA:  BSF    FF2.7
....................       displayMenu(Menus.Letra,10,0,1,2); 
087AC:  MOVLW  04
087AE:  MOVWF  xE6
087B0:  MOVLW  16
087B2:  MOVWF  xE5
087B4:  MOVLW  0A
087B6:  MOVWF  xE7
087B8:  CLRF   xE8
087BA:  MOVLW  01
087BC:  MOVWF  xE9
087BE:  MOVLW  02
087C0:  MOVWF  xEA
087C2:  MOVLB  0
087C4:  CALL   4BC2
....................        
....................       if(Opcion==1)    
087C8:  MOVLB  4
087CA:  DECFSZ xC9,W
087CC:  BRA    8814
....................          {strcpy(Menus.Letra,"Sensor de Flujo"); 
087CE:  MOVLW  04
087D0:  MOVWF  FEA
087D2:  MOVLW  16
087D4:  MOVWF  FE9
087D6:  MOVFF  FF2,5DD
087DA:  BCF    FF2.7
087DC:  MOVLW  00
087DE:  MOVLB  0
087E0:  CALL   11D8
087E4:  TBLRD*-
087E6:  TBLRD*+
087E8:  MOVF   FF5,W
087EA:  MOVWF  FEE
087EC:  IORLW  00
087EE:  BNZ   87E6
087F0:  MOVLB  5
087F2:  BTFSC  xDD.7
087F4:  BSF    FF2.7
....................          displayMenu(Menus.Letra,0,18,1,1);} 
087F6:  MOVLW  04
087F8:  MOVWF  xE6
087FA:  MOVLW  16
087FC:  MOVWF  xE5
087FE:  CLRF   xE7
08800:  MOVLW  12
08802:  MOVWF  xE8
08804:  MOVLW  01
08806:  MOVWF  xE9
08808:  MOVWF  xEA
0880A:  MOVLB  0
0880C:  CALL   4BC2
....................       else 
08810:  BRA    8856
08812:  MOVLB  4
....................          {strcpy(Menus.Letra,"Sensor de Flujo"); 
08814:  MOVLW  04
08816:  MOVWF  FEA
08818:  MOVLW  16
0881A:  MOVWF  FE9
0881C:  MOVFF  FF2,5DD
08820:  BCF    FF2.7
08822:  MOVLW  00
08824:  MOVLB  0
08826:  CALL   11D8
0882A:  TBLRD*-
0882C:  TBLRD*+
0882E:  MOVF   FF5,W
08830:  MOVWF  FEE
08832:  IORLW  00
08834:  BNZ   882C
08836:  MOVLB  5
08838:  BTFSC  xDD.7
0883A:  BSF    FF2.7
....................          displayMenu(Menus.Letra,0,18,0,1);}  
0883C:  MOVLW  04
0883E:  MOVWF  xE6
08840:  MOVLW  16
08842:  MOVWF  xE5
08844:  CLRF   xE7
08846:  MOVLW  12
08848:  MOVWF  xE8
0884A:  CLRF   xE9
0884C:  MOVLW  01
0884E:  MOVWF  xEA
08850:  MOVLB  0
08852:  CALL   4BC2
....................           
....................       if(Opcion==2)    
08856:  MOVLB  4
08858:  MOVF   xC9,W
0885A:  SUBLW  02
0885C:  BNZ   88A4
....................          {strcpy(Menus.Letra,"Sensor de Presion"); 
0885E:  MOVLW  04
08860:  MOVWF  FEA
08862:  MOVLW  16
08864:  MOVWF  FE9
08866:  MOVFF  FF2,5DD
0886A:  BCF    FF2.7
0886C:  MOVLW  00
0886E:  MOVLB  0
08870:  CALL   1202
08874:  TBLRD*-
08876:  TBLRD*+
08878:  MOVF   FF5,W
0887A:  MOVWF  FEE
0887C:  IORLW  00
0887E:  BNZ   8876
08880:  MOVLB  5
08882:  BTFSC  xDD.7
08884:  BSF    FF2.7
....................          displayMenu(Menus.Letra,0,29,1,1);} 
08886:  MOVLW  04
08888:  MOVWF  xE6
0888A:  MOVLW  16
0888C:  MOVWF  xE5
0888E:  CLRF   xE7
08890:  MOVLW  1D
08892:  MOVWF  xE8
08894:  MOVLW  01
08896:  MOVWF  xE9
08898:  MOVWF  xEA
0889A:  MOVLB  0
0889C:  CALL   4BC2
....................       else 
088A0:  BRA    88E6
088A2:  MOVLB  4
....................          {strcpy(Menus.Letra,"Sensor de Presion"); 
088A4:  MOVLW  04
088A6:  MOVWF  FEA
088A8:  MOVLW  16
088AA:  MOVWF  FE9
088AC:  MOVFF  FF2,5DD
088B0:  BCF    FF2.7
088B2:  MOVLW  00
088B4:  MOVLB  0
088B6:  CALL   1202
088BA:  TBLRD*-
088BC:  TBLRD*+
088BE:  MOVF   FF5,W
088C0:  MOVWF  FEE
088C2:  IORLW  00
088C4:  BNZ   88BC
088C6:  MOVLB  5
088C8:  BTFSC  xDD.7
088CA:  BSF    FF2.7
....................          displayMenu(Menus.Letra,0,29,0,1);}   
088CC:  MOVLW  04
088CE:  MOVWF  xE6
088D0:  MOVLW  16
088D2:  MOVWF  xE5
088D4:  CLRF   xE7
088D6:  MOVLW  1D
088D8:  MOVWF  xE8
088DA:  CLRF   xE9
088DC:  MOVLW  01
088DE:  MOVWF  xEA
088E0:  MOVLB  0
088E2:  CALL   4BC2
....................        
....................       if(Opcion==3)    
088E6:  MOVLB  4
088E8:  MOVF   xC9,W
088EA:  SUBLW  03
088EC:  BNZ   8934
....................          {strcpy(Menus.Letra,"Velocidad Ventilador"); 
088EE:  MOVLW  04
088F0:  MOVWF  FEA
088F2:  MOVLW  16
088F4:  MOVWF  FE9
088F6:  MOVFF  FF2,5DD
088FA:  BCF    FF2.7
088FC:  MOVLW  00
088FE:  MOVLB  0
08900:  CALL   122E
08904:  TBLRD*-
08906:  TBLRD*+
08908:  MOVF   FF5,W
0890A:  MOVWF  FEE
0890C:  IORLW  00
0890E:  BNZ   8906
08910:  MOVLB  5
08912:  BTFSC  xDD.7
08914:  BSF    FF2.7
....................          displayMenu(Menus.Letra,0,40,1,1);} 
08916:  MOVLW  04
08918:  MOVWF  xE6
0891A:  MOVLW  16
0891C:  MOVWF  xE5
0891E:  CLRF   xE7
08920:  MOVLW  28
08922:  MOVWF  xE8
08924:  MOVLW  01
08926:  MOVWF  xE9
08928:  MOVWF  xEA
0892A:  MOVLB  0
0892C:  CALL   4BC2
....................       else 
08930:  BRA    8976
08932:  MOVLB  4
....................          {strcpy(Menus.Letra,"Velocidad Ventilador"); 
08934:  MOVLW  04
08936:  MOVWF  FEA
08938:  MOVLW  16
0893A:  MOVWF  FE9
0893C:  MOVFF  FF2,5DD
08940:  BCF    FF2.7
08942:  MOVLW  00
08944:  MOVLB  0
08946:  CALL   122E
0894A:  TBLRD*-
0894C:  TBLRD*+
0894E:  MOVF   FF5,W
08950:  MOVWF  FEE
08952:  IORLW  00
08954:  BNZ   894C
08956:  MOVLB  5
08958:  BTFSC  xDD.7
0895A:  BSF    FF2.7
....................          displayMenu(Menus.Letra,0,40,0,1);}  
0895C:  MOVLW  04
0895E:  MOVWF  xE6
08960:  MOVLW  16
08962:  MOVWF  xE5
08964:  CLRF   xE7
08966:  MOVLW  28
08968:  MOVWF  xE8
0896A:  CLRF   xE9
0896C:  MOVLW  01
0896E:  MOVWF  xEA
08970:  MOVLB  0
08972:  CALL   4BC2
....................        
....................          
....................       if(UP)//Si oprime hacia arriba 
08976:  BSF    F92.5
08978:  BTFSC  F80.5
0897A:  BRA    8996
....................       {  if(Flanco == 0)  
0897C:  MOVLB  4
0897E:  BTFSC  x2C.0
08980:  BRA    8994
....................             {Flanco = 1;delay_ms(30);Opcion--; 
08982:  BSF    x2C.0
08984:  MOVLW  1E
08986:  MOVLB  5
08988:  MOVWF  xF1
0898A:  MOVLB  0
0898C:  CALL   14E0
08990:  MOVLB  4
08992:  DECF   xC9,F
....................             } 
....................       } 
....................          else 
08994:  BRA    899A
....................             {Flanco = 0;} 
08996:  MOVLB  4
08998:  BCF    x2C.0
....................              
....................       if(DOWN)//Si oprime hacia abajo 
0899A:  BSF    F96.0
0899C:  BTFSC  F84.0
0899E:  BRA    89B8
....................       {  if(Flanco2 == 0)  
089A0:  BTFSC  x2C.2
089A2:  BRA    89B6
....................             {Flanco2 = 1;delay_ms(30);Opcion++; 
089A4:  BSF    x2C.2
089A6:  MOVLW  1E
089A8:  MOVLB  5
089AA:  MOVWF  xF1
089AC:  MOVLB  0
089AE:  CALL   14E0
089B2:  MOVLB  4
089B4:  INCF   xC9,F
....................             }      
....................       } 
....................          else 
089B6:  BRA    89BA
....................             {Flanco2 = 0;}   
089B8:  BCF    x2C.2
....................              
....................       if(RIGHT)//Si oprime SET 
089BA:  BSF    F96.1
089BC:  BTFSC  F84.1
089BE:  BRA    8A50
....................       {   
....................          delay_ms(20); 
089C0:  MOVLW  14
089C2:  MOVLB  5
089C4:  MOVWF  xF1
089C6:  MOVLB  0
089C8:  CALL   14E0
....................          if(RIGHT){ 
089CC:  BSF    F96.1
089CE:  BTFSC  F84.1
089D0:  BRA    8A52
....................             delay_ms(100); 
089D2:  MOVLW  64
089D4:  MOVLB  5
089D6:  MOVWF  xF1
089D8:  MOVLB  0
089DA:  CALL   14E0
....................             glcd_fillScreen(OFF); 
089DE:  MOVLB  5
089E0:  CLRF   xE5
089E2:  MOVLB  0
089E4:  CALL   15C0
....................             while(!PidePassword(6,32,Opcion+40,4,4,4,4)){ 
089E8:  MOVLW  28
089EA:  MOVLB  4
089EC:  ADDWF  xC9,W
089EE:  MOVLB  5
089F0:  MOVWF  xDD
089F2:  MOVLW  06
089F4:  MOVWF  xDE
089F6:  MOVLW  20
089F8:  MOVWF  xDF
089FA:  MOVFF  5DD,5E0
089FE:  MOVLW  04
08A00:  MOVWF  xE1
08A02:  MOVWF  xE2
08A04:  MOVWF  xE3
08A06:  MOVWF  xE4
08A08:  MOVLB  0
08A0A:  CALL   4C8E
08A0E:  MOVF   01,F
08A10:  BNZ   8A3E
....................                PidePassword(6,32,Opcion+40,4,4,4,4);glcd_update(); 
08A12:  MOVLW  28
08A14:  MOVLB  4
08A16:  ADDWF  xC9,W
08A18:  MOVLB  5
08A1A:  MOVWF  xDD
08A1C:  MOVLW  06
08A1E:  MOVWF  xDE
08A20:  MOVLW  20
08A22:  MOVWF  xDF
08A24:  MOVFF  5DD,5E0
08A28:  MOVLW  04
08A2A:  MOVWF  xE1
08A2C:  MOVWF  xE2
08A2E:  MOVWF  xE3
08A30:  MOVWF  xE4
08A32:  MOVLB  0
08A34:  CALL   4C8E
08A38:  CALL   161A
....................             }             
08A3C:  BRA    89E8
....................             glcd_fillScreen(OFF);Opcion=1;unidad=1; 
08A3E:  MOVLB  5
08A40:  CLRF   xE5
08A42:  MOVLB  0
08A44:  CALL   15C0
08A48:  MOVLW  01
08A4A:  MOVLB  4
08A4C:  MOVWF  xC9
08A4E:  MOVWF  xC8
08A50:  MOVLB  0
....................          } 
....................       } 
....................              
....................       if(LEFT)//Si oprime boton de Toma. 
08A52:  BSF    F96.2
08A54:  BTFSC  F84.2
08A56:  BRA    8A86
....................         {delay_ms(700);Menu=6;glcd_fillscreen(OFF);Opcion=1;unidad=1;} 
08A58:  MOVLW  04
08A5A:  MOVLB  5
08A5C:  MOVWF  xDD
08A5E:  MOVLW  AF
08A60:  MOVWF  xF1
08A62:  MOVLB  0
08A64:  CALL   14E0
08A68:  MOVLB  5
08A6A:  DECFSZ xDD,F
08A6C:  BRA    8A5E
08A6E:  MOVLW  06
08A70:  MOVLB  4
08A72:  MOVWF  xC7
08A74:  MOVLB  5
08A76:  CLRF   xE5
08A78:  MOVLB  0
08A7A:  CALL   15C0
08A7E:  MOVLW  01
08A80:  MOVLB  4
08A82:  MOVWF  xC9
08A84:  MOVWF  xC8
....................          
....................       if(Opcion>3) 
08A86:  MOVLB  4
08A88:  MOVF   xC9,W
08A8A:  SUBLW  03
08A8C:  BC    8A92
....................       {Opcion=1;} 
08A8E:  MOVLW  01
08A90:  MOVWF  xC9
....................       if(Opcion<1) 
08A92:  MOVF   xC9,F
08A94:  BNZ   8A9A
....................       {Opcion=3;} 
08A96:  MOVLW  03
08A98:  MOVWF  xC9
....................     } 
.................... //_--------------------------------------------------------------------------------------------------------------------------------------------------------        
....................  
.................... //_-------------------------------------------------------------------------------------------------------------------------------------------------------- 
....................       if(Menu==33){ //Menu de Apagado de Cabina. 
08A9A:  MOVF   xC7,W
08A9C:  SUBLW  21
08A9E:  BTFSS  FD8.2
08AA0:  BRA    8E16
....................        
....................       strcpy(Menus.Letra,"  Apagar?"); 
08AA2:  MOVLW  04
08AA4:  MOVWF  FEA
08AA6:  MOVLW  16
08AA8:  MOVWF  FE9
08AAA:  MOVFF  FF2,5DD
08AAE:  BCF    FF2.7
08AB0:  MOVLW  00
08AB2:  MOVLB  0
08AB4:  CALL   125E
08AB8:  TBLRD*-
08ABA:  TBLRD*+
08ABC:  MOVF   FF5,W
08ABE:  MOVWF  FEE
08AC0:  IORLW  00
08AC2:  BNZ   8ABA
08AC4:  MOVLB  5
08AC6:  BTFSC  xDD.7
08AC8:  BSF    FF2.7
....................       displayMenu(Menus.Letra,10,0,1,2); 
08ACA:  MOVLW  04
08ACC:  MOVWF  xE6
08ACE:  MOVLW  16
08AD0:  MOVWF  xE5
08AD2:  MOVLW  0A
08AD4:  MOVWF  xE7
08AD6:  CLRF   xE8
08AD8:  MOVLW  01
08ADA:  MOVWF  xE9
08ADC:  MOVLW  02
08ADE:  MOVWF  xEA
08AE0:  MOVLB  0
08AE2:  CALL   4BC2
....................        
....................       if(unidad==1) 
08AE6:  MOVLB  4
08AE8:  DECFSZ xC8,W
08AEA:  BRA    8B78
....................       {strcpy(Menus.Letra,"SI"); 
08AEC:  MOVLW  04
08AEE:  MOVWF  FEA
08AF0:  MOVLW  16
08AF2:  MOVWF  FE9
08AF4:  MOVFF  FF2,5DD
08AF8:  BCF    FF2.7
08AFA:  MOVLW  00
08AFC:  MOVLB  0
08AFE:  CALL   1282
08B02:  TBLRD*-
08B04:  TBLRD*+
08B06:  MOVF   FF5,W
08B08:  MOVWF  FEE
08B0A:  IORLW  00
08B0C:  BNZ   8B04
08B0E:  MOVLB  5
08B10:  BTFSC  xDD.7
08B12:  BSF    FF2.7
....................       displayMenu(Menus.Letra,50,25,1,2); 
08B14:  MOVLW  04
08B16:  MOVWF  xE6
08B18:  MOVLW  16
08B1A:  MOVWF  xE5
08B1C:  MOVLW  32
08B1E:  MOVWF  xE7
08B20:  MOVLW  19
08B22:  MOVWF  xE8
08B24:  MOVLW  01
08B26:  MOVWF  xE9
08B28:  MOVLW  02
08B2A:  MOVWF  xEA
08B2C:  MOVLB  0
08B2E:  CALL   4BC2
....................       strcpy(Menus.Letra,"NO"); 
08B32:  MOVLW  04
08B34:  MOVWF  FEA
08B36:  MOVLW  16
08B38:  MOVWF  FE9
08B3A:  MOVFF  FF2,5DD
08B3E:  BCF    FF2.7
08B40:  MOVLW  00
08B42:  CALL   12A0
08B46:  TBLRD*-
08B48:  TBLRD*+
08B4A:  MOVF   FF5,W
08B4C:  MOVWF  FEE
08B4E:  IORLW  00
08B50:  BNZ   8B48
08B52:  MOVLB  5
08B54:  BTFSC  xDD.7
08B56:  BSF    FF2.7
....................       displayMenu(Menus.Letra,50,45,0,2);} 
08B58:  MOVLW  04
08B5A:  MOVWF  xE6
08B5C:  MOVLW  16
08B5E:  MOVWF  xE5
08B60:  MOVLW  32
08B62:  MOVWF  xE7
08B64:  MOVLW  2D
08B66:  MOVWF  xE8
08B68:  CLRF   xE9
08B6A:  MOVLW  02
08B6C:  MOVWF  xEA
08B6E:  MOVLB  0
08B70:  CALL   4BC2
....................       else 
08B74:  BRA    8C00
08B76:  MOVLB  4
....................       {strcpy(Menus.Letra,"SI"); 
08B78:  MOVLW  04
08B7A:  MOVWF  FEA
08B7C:  MOVLW  16
08B7E:  MOVWF  FE9
08B80:  MOVFF  FF2,5DD
08B84:  BCF    FF2.7
08B86:  MOVLW  00
08B88:  MOVLB  0
08B8A:  CALL   1282
08B8E:  TBLRD*-
08B90:  TBLRD*+
08B92:  MOVF   FF5,W
08B94:  MOVWF  FEE
08B96:  IORLW  00
08B98:  BNZ   8B90
08B9A:  MOVLB  5
08B9C:  BTFSC  xDD.7
08B9E:  BSF    FF2.7
....................       displayMenu(Menus.Letra,50,25,0,2); 
08BA0:  MOVLW  04
08BA2:  MOVWF  xE6
08BA4:  MOVLW  16
08BA6:  MOVWF  xE5
08BA8:  MOVLW  32
08BAA:  MOVWF  xE7
08BAC:  MOVLW  19
08BAE:  MOVWF  xE8
08BB0:  CLRF   xE9
08BB2:  MOVLW  02
08BB4:  MOVWF  xEA
08BB6:  MOVLB  0
08BB8:  CALL   4BC2
....................       strcpy(Menus.Letra,"NO"); 
08BBC:  MOVLW  04
08BBE:  MOVWF  FEA
08BC0:  MOVLW  16
08BC2:  MOVWF  FE9
08BC4:  MOVFF  FF2,5DD
08BC8:  BCF    FF2.7
08BCA:  MOVLW  00
08BCC:  CALL   12A0
08BD0:  TBLRD*-
08BD2:  TBLRD*+
08BD4:  MOVF   FF5,W
08BD6:  MOVWF  FEE
08BD8:  IORLW  00
08BDA:  BNZ   8BD2
08BDC:  MOVLB  5
08BDE:  BTFSC  xDD.7
08BE0:  BSF    FF2.7
....................       displayMenu(Menus.Letra,50,45,1,2);} 
08BE2:  MOVLW  04
08BE4:  MOVWF  xE6
08BE6:  MOVLW  16
08BE8:  MOVWF  xE5
08BEA:  MOVLW  32
08BEC:  MOVWF  xE7
08BEE:  MOVLW  2D
08BF0:  MOVWF  xE8
08BF2:  MOVLW  01
08BF4:  MOVWF  xE9
08BF6:  MOVLW  02
08BF8:  MOVWF  xEA
08BFA:  MOVLB  0
08BFC:  CALL   4BC2
....................        
....................        
....................          
....................       if(UP)//Si oprime hacia arriba 
08C00:  BSF    F92.5
08C02:  BTFSC  F80.5
08C04:  BRA    8C18
....................       {   
....................          delay_ms(90);unidad++; 
08C06:  MOVLW  5A
08C08:  MOVLB  5
08C0A:  MOVWF  xF1
08C0C:  MOVLB  0
08C0E:  CALL   14E0
08C12:  MOVLB  4
08C14:  INCF   xC8,F
08C16:  MOVLB  0
....................       } 
....................              
....................       if(DOWN)//Si oprime hacia abajo 
08C18:  BSF    F96.0
08C1A:  BTFSC  F84.0
08C1C:  BRA    8C30
....................       { 
....................          delay_ms(90);unidad--; 
08C1E:  MOVLW  5A
08C20:  MOVLB  5
08C22:  MOVWF  xF1
08C24:  MOVLB  0
08C26:  CALL   14E0
08C2A:  MOVLB  4
08C2C:  DECF   xC8,F
08C2E:  MOVLB  0
....................       } 
....................              
....................       if(RIGHT){//Si oprime SET 
08C30:  BSF    F96.1
08C32:  BTFSC  F84.1
08C34:  BRA    8DCC
....................          delay_ms(30); 
08C36:  MOVLW  1E
08C38:  MOVLB  5
08C3A:  MOVWF  xF1
08C3C:  MOVLB  0
08C3E:  CALL   14E0
....................          if(Flanco4==0){ 
08C42:  MOVLB  4
08C44:  BTFSC  x2C.4
08C46:  BRA    8DC8
....................             if(unidad==1){ 
08C48:  DECFSZ xC8,W
08C4A:  BRA    8DB6
....................                glcd_fillscreen(OFF); 
08C4C:  MOVLB  5
08C4E:  CLRF   xE5
08C50:  MOVLB  0
08C52:  CALL   15C0
....................                write_eeprom(33,make8(minutos_trabajo,0)); 
08C56:  MOVFF  4DF,5DD
08C5A:  CLRF   FAA
08C5C:  MOVLW  21
08C5E:  MOVWF  FA9
08C60:  MOVFF  5DD,FA8
08C64:  BCF    FA6.6
08C66:  BCF    FA6.7
08C68:  BSF    FA6.2
08C6A:  MOVF   FF2,W
08C6C:  MOVWF  00
08C6E:  BCF    FF2.7
08C70:  MOVLB  F
08C72:  MOVLW  55
08C74:  MOVWF  FA7
08C76:  MOVLW  AA
08C78:  MOVWF  FA7
08C7A:  BSF    FA6.1
08C7C:  BTFSC  FA6.1
08C7E:  BRA    8C7C
08C80:  BCF    FA6.2
08C82:  MOVF   00,W
08C84:  IORWF  FF2,F
....................                delay_ms(20); 
08C86:  MOVLW  14
08C88:  MOVLB  5
08C8A:  MOVWF  xF1
08C8C:  MOVLB  0
08C8E:  CALL   14E0
....................                write_eeprom(34,make8(minutos_trabajo,1)); 
08C92:  MOVFF  4E0,5DD
08C96:  CLRF   FAA
08C98:  MOVLW  22
08C9A:  MOVWF  FA9
08C9C:  MOVFF  5DD,FA8
08CA0:  BCF    FA6.6
08CA2:  BCF    FA6.7
08CA4:  BSF    FA6.2
08CA6:  MOVF   FF2,W
08CA8:  MOVWF  00
08CAA:  BCF    FF2.7
08CAC:  MOVLB  F
08CAE:  MOVLW  55
08CB0:  MOVWF  FA7
08CB2:  MOVLW  AA
08CB4:  MOVWF  FA7
08CB6:  BSF    FA6.1
08CB8:  BTFSC  FA6.1
08CBA:  BRA    8CB8
08CBC:  BCF    FA6.2
08CBE:  MOVF   00,W
08CC0:  IORWF  FF2,F
....................                delay_ms(20); 
08CC2:  MOVLW  14
08CC4:  MOVLB  5
08CC6:  MOVWF  xF1
08CC8:  MOVLB  0
08CCA:  CALL   14E0
....................                write_eeprom(16,Ttrabajo[0]); 
08CCE:  CLRF   FAA
08CD0:  MOVLW  10
08CD2:  MOVWF  FA9
08CD4:  MOVFF  505,FA8
08CD8:  BCF    FA6.6
08CDA:  BCF    FA6.7
08CDC:  BSF    FA6.2
08CDE:  MOVF   FF2,W
08CE0:  MOVWF  00
08CE2:  BCF    FF2.7
08CE4:  MOVLB  F
08CE6:  MOVLW  55
08CE8:  MOVWF  FA7
08CEA:  MOVLW  AA
08CEC:  MOVWF  FA7
08CEE:  BSF    FA6.1
08CF0:  BTFSC  FA6.1
08CF2:  BRA    8CF0
08CF4:  BCF    FA6.2
08CF6:  MOVF   00,W
08CF8:  IORWF  FF2,F
....................                delay_ms(20); 
08CFA:  MOVLW  14
08CFC:  MOVLB  5
08CFE:  MOVWF  xF1
08D00:  MOVLB  0
08D02:  CALL   14E0
....................                write_eeprom(17,Ttrabajo[1]); 
08D06:  CLRF   FAA
08D08:  MOVLW  11
08D0A:  MOVWF  FA9
08D0C:  MOVFF  506,FA8
08D10:  BCF    FA6.6
08D12:  BCF    FA6.7
08D14:  BSF    FA6.2
08D16:  MOVF   FF2,W
08D18:  MOVWF  00
08D1A:  BCF    FF2.7
08D1C:  MOVLB  F
08D1E:  MOVLW  55
08D20:  MOVWF  FA7
08D22:  MOVLW  AA
08D24:  MOVWF  FA7
08D26:  BSF    FA6.1
08D28:  BTFSC  FA6.1
08D2A:  BRA    8D28
08D2C:  BCF    FA6.2
08D2E:  MOVF   00,W
08D30:  IORWF  FF2,F
....................                delay_ms(20); 
08D32:  MOVLW  14
08D34:  MOVLB  5
08D36:  MOVWF  xF1
08D38:  MOVLB  0
08D3A:  CALL   14E0
....................                write_eeprom(18,Ttrabajo[2]); 
08D3E:  CLRF   FAA
08D40:  MOVLW  12
08D42:  MOVWF  FA9
08D44:  MOVFF  507,FA8
08D48:  BCF    FA6.6
08D4A:  BCF    FA6.7
08D4C:  BSF    FA6.2
08D4E:  MOVF   FF2,W
08D50:  MOVWF  00
08D52:  BCF    FF2.7
08D54:  MOVLB  F
08D56:  MOVLW  55
08D58:  MOVWF  FA7
08D5A:  MOVLW  AA
08D5C:  MOVWF  FA7
08D5E:  BSF    FA6.1
08D60:  BTFSC  FA6.1
08D62:  BRA    8D60
08D64:  BCF    FA6.2
08D66:  MOVF   00,W
08D68:  IORWF  FF2,F
....................                delay_ms(20); 
08D6A:  MOVLW  14
08D6C:  MOVLB  5
08D6E:  MOVWF  xF1
08D70:  MOVLB  0
08D72:  CALL   14E0
....................                write_eeprom(19,Ttrabajo[3]); 
08D76:  CLRF   FAA
08D78:  MOVLW  13
08D7A:  MOVWF  FA9
08D7C:  MOVFF  508,FA8
08D80:  BCF    FA6.6
08D82:  BCF    FA6.7
08D84:  BSF    FA6.2
08D86:  MOVF   FF2,W
08D88:  MOVWF  00
08D8A:  BCF    FF2.7
08D8C:  MOVLB  F
08D8E:  MOVLW  55
08D90:  MOVWF  FA7
08D92:  MOVLW  AA
08D94:  MOVWF  FA7
08D96:  BSF    FA6.1
08D98:  BTFSC  FA6.1
08D9A:  BRA    8D98
08D9C:  BCF    FA6.2
08D9E:  MOVF   00,W
08DA0:  IORWF  FF2,F
....................                delay_ms(20); 
08DA2:  MOVLW  14
08DA4:  MOVLB  5
08DA6:  MOVWF  xF1
08DA8:  MOVLB  0
08DAA:  CALL   14E0
....................                Menu=120; 
08DAE:  MOVLW  78
08DB0:  MOVLB  4
08DB2:  MOVWF  xC7
....................                //reset_cpu(); 
....................             } 
....................             else{ 
08DB4:  BRA    8DC6
....................                Menu=2;glcd_fillscreen(OFF); 
08DB6:  MOVLW  02
08DB8:  MOVWF  xC7
08DBA:  MOVLB  5
08DBC:  CLRF   xE5
08DBE:  MOVLB  0
08DC0:  CALL   15C0
08DC4:  MOVLB  4
....................             } 
....................             Flanco4=1; 
08DC6:  BSF    x2C.4
....................          } 
....................       }else{ 
08DC8:  BRA    8DD0
08DCA:  MOVLB  0
....................          Flanco4=0; 
08DCC:  MOVLB  4
08DCE:  BCF    x2C.4
....................       } 
....................              
....................       if(LEFT)//Si oprime boton de Toma. 
08DD0:  BSF    F96.2
08DD2:  BTFSC  F84.2
08DD4:  BRA    8E02
....................       { 
....................          if(Flanco3==0){ 
08DD6:  BTFSC  x2C.3
08DD8:  BRA    8E00
....................             delay_ms(30);Menu=2;glcd_fillscreen(OFF);Opcion=1;unidad=1; 
08DDA:  MOVLW  1E
08DDC:  MOVLB  5
08DDE:  MOVWF  xF1
08DE0:  MOVLB  0
08DE2:  CALL   14E0
08DE6:  MOVLW  02
08DE8:  MOVLB  4
08DEA:  MOVWF  xC7
08DEC:  MOVLB  5
08DEE:  CLRF   xE5
08DF0:  MOVLB  0
08DF2:  CALL   15C0
08DF6:  MOVLW  01
08DF8:  MOVLB  4
08DFA:  MOVWF  xC9
08DFC:  MOVWF  xC8
....................             Flanco3=1; 
08DFE:  BSF    x2C.3
....................          } 
....................       }else{ 
08E00:  BRA    8E04
....................          Flanco3=0; 
08E02:  BCF    x2C.3
....................       } 
....................        
....................       if(unidad>2) 
08E04:  MOVF   xC8,W
08E06:  SUBLW  02
08E08:  BC    8E0E
....................       {unidad=1;} 
08E0A:  MOVLW  01
08E0C:  MOVWF  xC8
....................       if(unidad<1) 
08E0E:  MOVF   xC8,F
08E10:  BNZ   8E16
....................       {unidad=2;} 
08E12:  MOVLW  02
08E14:  MOVWF  xC8
....................      
....................     } 
.................... //_--------------------------------------------------------------------------------------------------------------------------------------------------------        
....................  
.................... //_-------------------------------------------------------------------------------------------------------------------------------------------------------- 
....................       if(Menu==41){ //Menu de Sensor de Flujo. 
08E16:  MOVF   xC7,W
08E18:  SUBLW  29
08E1A:  BTFSS  FD8.2
08E1C:  BRA    93E0
....................        
....................       if(Ajuste1>10.0) 
08E1E:  MOVLB  6
08E20:  CLRF   x13
08E22:  CLRF   x12
08E24:  MOVLW  20
08E26:  MOVWF  x11
08E28:  MOVLW  82
08E2A:  MOVWF  x10
08E2C:  MOVFF  534,617
08E30:  MOVFF  533,616
08E34:  MOVFF  532,615
08E38:  MOVFF  531,614
08E3C:  MOVLB  0
08E3E:  CALL   22EC
08E42:  BNC   8E50
....................          Ajuste1=0.0; 
08E44:  MOVLB  5
08E46:  CLRF   x34
08E48:  CLRF   x33
08E4A:  CLRF   x32
08E4C:  CLRF   x31
08E4E:  MOVLB  0
....................        
....................       strcpy(Menus.Letra,"Sensor de Flujo"); 
08E50:  MOVLW  04
08E52:  MOVWF  FEA
08E54:  MOVLW  16
08E56:  MOVWF  FE9
08E58:  MOVFF  FF2,5DD
08E5C:  BCF    FF2.7
08E5E:  MOVLW  00
08E60:  CALL   11D8
08E64:  TBLRD*-
08E66:  TBLRD*+
08E68:  MOVF   FF5,W
08E6A:  MOVWF  FEE
08E6C:  IORLW  00
08E6E:  BNZ   8E66
08E70:  MOVLB  5
08E72:  BTFSC  xDD.7
08E74:  BSF    FF2.7
....................       displayMenu(Menus.Letra,10,0,1,1); 
08E76:  MOVLW  04
08E78:  MOVWF  xE6
08E7A:  MOVLW  16
08E7C:  MOVWF  xE5
08E7E:  MOVLW  0A
08E80:  MOVWF  xE7
08E82:  CLRF   xE8
08E84:  MOVLW  01
08E86:  MOVWF  xE9
08E88:  MOVWF  xEA
08E8A:  MOVLB  0
08E8C:  CALL   4BC2
....................        
....................       glcd_text57(0, 12, ZF, 1, ON); 
08E90:  MOVLB  5
08E92:  CLRF   xF6
08E94:  MOVLW  0C
08E96:  MOVWF  xF7
08E98:  MOVLW  04
08E9A:  MOVWF  xF9
08E9C:  MOVLW  7E
08E9E:  MOVWF  xF8
08EA0:  MOVLW  01
08EA2:  MOVWF  xFA
08EA4:  MOVWF  xFB
08EA6:  MOVLB  0
08EA8:  CALL   4948
....................        
....................       glcd_text57(0, 20, ZA, 1, ON); 
08EAC:  MOVLB  5
08EAE:  CLRF   xF6
08EB0:  MOVLW  14
08EB2:  MOVWF  xF7
08EB4:  MOVLW  04
08EB6:  MOVWF  xF9
08EB8:  MOVLW  8C
08EBA:  MOVWF  xF8
08EBC:  MOVLW  01
08EBE:  MOVWF  xFA
08EC0:  MOVWF  xFB
08EC2:  MOVLB  0
08EC4:  CALL   4948
....................        
....................       glcd_text57(0, 30, AJ, 1, ON);            
08EC8:  MOVLB  5
08ECA:  CLRF   xF6
08ECC:  MOVLW  1E
08ECE:  MOVWF  xF7
08ED0:  MOVLW  04
08ED2:  MOVWF  xF9
08ED4:  MOVLW  94
08ED6:  MOVWF  xF8
08ED8:  MOVLW  01
08EDA:  MOVWF  xFA
08EDC:  MOVWF  xFB
08EDE:  MOVLB  0
08EE0:  CALL   4948
....................        
....................       displayfloat(zero_actual,44,20,0,1); 
08EE4:  MOVFF  5BC,5E4
08EE8:  MOVFF  5BB,5E3
08EEC:  MOVFF  5BA,5E2
08EF0:  MOVFF  5B9,5E1
08EF4:  MOVLW  2C
08EF6:  MOVLB  5
08EF8:  MOVWF  xE5
08EFA:  MOVLW  14
08EFC:  MOVWF  xE6
08EFE:  CLRF   xE7
08F00:  MOVLW  01
08F02:  MOVWF  xE8
08F04:  MOVLB  0
08F06:  CALL   5902
....................       displayfloat(Ajuste1,44,30,0,1); 
08F0A:  MOVFF  534,5E4
08F0E:  MOVFF  533,5E3
08F12:  MOVFF  532,5E2
08F16:  MOVFF  531,5E1
08F1A:  MOVLW  2C
08F1C:  MOVLB  5
08F1E:  MOVWF  xE5
08F20:  MOVLW  1E
08F22:  MOVWF  xE6
08F24:  CLRF   xE7
08F26:  MOVLW  01
08F28:  MOVWF  xE8
08F2A:  MOVLB  0
08F2C:  CALL   5902
....................       displayfloat(Inflow_adc,0,40,0,1); 
08F30:  MOVFF  4D6,615
08F34:  MOVFF  4D5,614
08F38:  CALL   177A
08F3C:  MOVFF  00,5DD
08F40:  MOVFF  01,5DE
08F44:  MOVFF  02,5DF
08F48:  MOVFF  03,5E0
08F4C:  MOVFF  03,5E4
08F50:  MOVFF  02,5E3
08F54:  MOVFF  01,5E2
08F58:  MOVFF  00,5E1
08F5C:  MOVLB  5
08F5E:  CLRF   xE5
08F60:  MOVLW  28
08F62:  MOVWF  xE6
08F64:  CLRF   xE7
08F66:  MOVLW  01
08F68:  MOVWF  xE8
08F6A:  MOVLB  0
08F6C:  CALL   5902
.................... //      displayfloat(Diferencia,0,50,0,1); 
....................        
....................       if(UP)//Si oprime hacia arriba 
08F70:  BSF    F92.5
08F72:  BTFSC  F80.5
08F74:  BRA    8FBC
....................       {   
....................          delay_ms(30);Ajuste1+=0.01; 
08F76:  MOVLW  1E
08F78:  MOVLB  5
08F7A:  MOVWF  xF1
08F7C:  MOVLB  0
08F7E:  CALL   14E0
08F82:  BCF    FD8.1
08F84:  MOVFF  534,617
08F88:  MOVFF  533,616
08F8C:  MOVFF  532,615
08F90:  MOVFF  531,614
08F94:  MOVLW  0A
08F96:  MOVLB  6
08F98:  MOVWF  x1B
08F9A:  MOVLW  D7
08F9C:  MOVWF  x1A
08F9E:  MOVLW  23
08FA0:  MOVWF  x19
08FA2:  MOVLW  78
08FA4:  MOVWF  x18
08FA6:  MOVLB  0
08FA8:  CALL   190E
08FAC:  MOVFF  03,534
08FB0:  MOVFF  02,533
08FB4:  MOVFF  01,532
08FB8:  MOVFF  00,531
....................       } 
....................              
....................       if(DOWN)//Si oprime hacia abajo 
08FBC:  BSF    F96.0
08FBE:  BTFSC  F84.0
08FC0:  BRA    9008
....................       {    
....................          delay_ms(30);Ajuste1-=0.01; 
08FC2:  MOVLW  1E
08FC4:  MOVLB  5
08FC6:  MOVWF  xF1
08FC8:  MOVLB  0
08FCA:  CALL   14E0
08FCE:  BSF    FD8.1
08FD0:  MOVFF  534,617
08FD4:  MOVFF  533,616
08FD8:  MOVFF  532,615
08FDC:  MOVFF  531,614
08FE0:  MOVLW  0A
08FE2:  MOVLB  6
08FE4:  MOVWF  x1B
08FE6:  MOVLW  D7
08FE8:  MOVWF  x1A
08FEA:  MOVLW  23
08FEC:  MOVWF  x19
08FEE:  MOVLW  78
08FF0:  MOVWF  x18
08FF2:  MOVLB  0
08FF4:  CALL   190E
08FF8:  MOVFF  03,534
08FFC:  MOVFF  02,533
09000:  MOVFF  01,532
09004:  MOVFF  00,531
....................       } 
....................              
....................       if(RIGHT)//Si oprime SET 
09008:  BSF    F96.1
0900A:  BTFSC  F84.1
0900C:  BRA    927A
....................       {   
....................          zero_actual=Inflow_adc; 
0900E:  MOVFF  4D6,615
09012:  MOVFF  4D5,614
09016:  CALL   177A
0901A:  MOVFF  03,5BC
0901E:  MOVFF  02,5BB
09022:  MOVFF  01,5BA
09026:  MOVFF  00,5B9
....................          Diferencia=zero_fabrica-Inflow_adc; 
0902A:  MOVFF  4D6,615
0902E:  MOVFF  4D5,614
09032:  CALL   177A
09036:  BSF    FD8.1
09038:  MOVFF  5B8,617
0903C:  MOVFF  5B7,616
09040:  MOVFF  5B6,615
09044:  MOVFF  5B5,614
09048:  MOVFF  03,61B
0904C:  MOVFF  02,61A
09050:  MOVFF  01,619
09054:  MOVFF  00,618
09058:  CALL   190E
0905C:  MOVFF  03,520
09060:  MOVFF  02,51F
09064:  MOVFF  01,51E
09068:  MOVFF  00,51D
....................              
....................          if(Diferencia>=0) 
0906C:  MOVLB  6
0906E:  CLRF   x13
09070:  CLRF   x12
09072:  CLRF   x11
09074:  CLRF   x10
09076:  MOVFF  520,617
0907A:  MOVFF  51F,616
0907E:  MOVFF  51E,615
09082:  MOVFF  51D,614
09086:  MOVLB  0
09088:  CALL   22EC
0908C:  BC    9090
0908E:  BNZ   90CE
....................          { 
....................             negativo=10;write_eeprom(50,negativo);delay_ms(20); 
09090:  MOVLW  0A
09092:  MOVLB  4
09094:  MOVWF  xCA
09096:  CLRF   FAA
09098:  MOVLW  32
0909A:  MOVWF  FA9
0909C:  MOVFF  4CA,FA8
090A0:  BCF    FA6.6
090A2:  BCF    FA6.7
090A4:  BSF    FA6.2
090A6:  MOVF   FF2,W
090A8:  MOVWF  00
090AA:  BCF    FF2.7
090AC:  MOVLB  F
090AE:  MOVLW  55
090B0:  MOVWF  FA7
090B2:  MOVLW  AA
090B4:  MOVWF  FA7
090B6:  BSF    FA6.1
090B8:  BTFSC  FA6.1
090BA:  BRA    90B8
090BC:  BCF    FA6.2
090BE:  MOVF   00,W
090C0:  IORWF  FF2,F
090C2:  MOVLW  14
090C4:  MOVLB  5
090C6:  MOVWF  xF1
090C8:  MOVLB  0
090CA:  CALL   14E0
....................          } 
....................          if(Diferencia<0) 
090CE:  MOVFF  520,613
090D2:  MOVFF  51F,612
090D6:  MOVFF  51E,611
090DA:  MOVFF  51D,610
090DE:  MOVLB  6
090E0:  CLRF   x17
090E2:  CLRF   x16
090E4:  CLRF   x15
090E6:  CLRF   x14
090E8:  MOVLB  0
090EA:  CALL   22EC
090EE:  BNC   912E
....................          { 
....................             negativo=20;write_eeprom(50,negativo);delay_ms(20); 
090F0:  MOVLW  14
090F2:  MOVLB  4
090F4:  MOVWF  xCA
090F6:  CLRF   FAA
090F8:  MOVLW  32
090FA:  MOVWF  FA9
090FC:  MOVFF  4CA,FA8
09100:  BCF    FA6.6
09102:  BCF    FA6.7
09104:  BSF    FA6.2
09106:  MOVF   FF2,W
09108:  MOVWF  00
0910A:  BCF    FF2.7
0910C:  MOVLB  F
0910E:  MOVLW  55
09110:  MOVWF  FA7
09112:  MOVLW  AA
09114:  MOVWF  FA7
09116:  BSF    FA6.1
09118:  BTFSC  FA6.1
0911A:  BRA    9118
0911C:  BCF    FA6.2
0911E:  MOVF   00,W
09120:  IORWF  FF2,F
09122:  MOVLW  14
09124:  MOVLB  5
09126:  MOVWF  xF1
09128:  MOVLB  0
0912A:  CALL   14E0
....................          } 
....................          Diferencia=abs(Diferencia); 
0912E:  MOVFF  51D,00
09132:  MOVFF  51E,01
09136:  MOVFF  51F,02
0913A:  MOVFF  520,03
0913E:  BCF    01.7
09140:  MOVFF  520,520
09144:  MOVFF  51F,51F
09148:  MOVFF  01,51E
0914C:  MOVFF  51D,51D
....................          Temporal1=(int16)Diferencia; 
09150:  MOVFF  520,613
09154:  MOVFF  51F,612
09158:  MOVFF  51E,611
0915C:  MOVFF  51D,610
09160:  CALL   2D34
09164:  MOVFF  02,4DA
09168:  MOVFF  01,4D9
....................          write_eeprom(60,make8(Temporal1,0)); 
0916C:  MOVFF  4D9,5DD
09170:  CLRF   FAA
09172:  MOVLW  3C
09174:  MOVWF  FA9
09176:  MOVFF  5DD,FA8
0917A:  BCF    FA6.6
0917C:  BCF    FA6.7
0917E:  BSF    FA6.2
09180:  MOVF   FF2,W
09182:  MOVWF  00
09184:  BCF    FF2.7
09186:  MOVLB  F
09188:  MOVLW  55
0918A:  MOVWF  FA7
0918C:  MOVLW  AA
0918E:  MOVWF  FA7
09190:  BSF    FA6.1
09192:  BTFSC  FA6.1
09194:  BRA    9192
09196:  BCF    FA6.2
09198:  MOVF   00,W
0919A:  IORWF  FF2,F
....................          delay_ms(20); 
0919C:  MOVLW  14
0919E:  MOVLB  5
091A0:  MOVWF  xF1
091A2:  MOVLB  0
091A4:  CALL   14E0
....................          write_eeprom(61,make8(Temporal1,1));//Guardar valor de Setpoint en eeprom 
091A8:  MOVFF  4DA,5DD
091AC:  CLRF   FAA
091AE:  MOVLW  3D
091B0:  MOVWF  FA9
091B2:  MOVFF  5DD,FA8
091B6:  BCF    FA6.6
091B8:  BCF    FA6.7
091BA:  BSF    FA6.2
091BC:  MOVF   FF2,W
091BE:  MOVWF  00
091C0:  BCF    FF2.7
091C2:  MOVLB  F
091C4:  MOVLW  55
091C6:  MOVWF  FA7
091C8:  MOVLW  AA
091CA:  MOVWF  FA7
091CC:  BSF    FA6.1
091CE:  BTFSC  FA6.1
091D0:  BRA    91CE
091D2:  BCF    FA6.2
091D4:  MOVF   00,W
091D6:  IORWF  FF2,F
....................          delay_ms(20); 
091D8:  MOVLW  14
091DA:  MOVLB  5
091DC:  MOVWF  xF1
091DE:  MOVLB  0
091E0:  CALL   14E0
....................  
....................          Temporal1=(int16)zero_actual; 
091E4:  MOVFF  5BC,613
091E8:  MOVFF  5BB,612
091EC:  MOVFF  5BA,611
091F0:  MOVFF  5B9,610
091F4:  CALL   2D34
091F8:  MOVFF  02,4DA
091FC:  MOVFF  01,4D9
....................          write_eeprom(29,make8(Temporal1,0)); 
09200:  MOVFF  4D9,5DD
09204:  CLRF   FAA
09206:  MOVLW  1D
09208:  MOVWF  FA9
0920A:  MOVFF  5DD,FA8
0920E:  BCF    FA6.6
09210:  BCF    FA6.7
09212:  BSF    FA6.2
09214:  MOVF   FF2,W
09216:  MOVWF  00
09218:  BCF    FF2.7
0921A:  MOVLB  F
0921C:  MOVLW  55
0921E:  MOVWF  FA7
09220:  MOVLW  AA
09222:  MOVWF  FA7
09224:  BSF    FA6.1
09226:  BTFSC  FA6.1
09228:  BRA    9226
0922A:  BCF    FA6.2
0922C:  MOVF   00,W
0922E:  IORWF  FF2,F
....................          delay_ms(20); 
09230:  MOVLW  14
09232:  MOVLB  5
09234:  MOVWF  xF1
09236:  MOVLB  0
09238:  CALL   14E0
....................          write_eeprom(30,make8(Temporal1,1));//Guardar valor de Setpoint en eeprom 
0923C:  MOVFF  4DA,5DD
09240:  CLRF   FAA
09242:  MOVLW  1E
09244:  MOVWF  FA9
09246:  MOVFF  5DD,FA8
0924A:  BCF    FA6.6
0924C:  BCF    FA6.7
0924E:  BSF    FA6.2
09250:  MOVF   FF2,W
09252:  MOVWF  00
09254:  BCF    FF2.7
09256:  MOVLB  F
09258:  MOVLW  55
0925A:  MOVWF  FA7
0925C:  MOVLW  AA
0925E:  MOVWF  FA7
09260:  BSF    FA6.1
09262:  BTFSC  FA6.1
09264:  BRA    9262
09266:  BCF    FA6.2
09268:  MOVF   00,W
0926A:  IORWF  FF2,F
....................          delay_ms(20); 
0926C:  MOVLW  14
0926E:  MOVLB  5
09270:  MOVWF  xF1
09272:  MOVLB  0
09274:  CALL   14E0
....................       } 
....................          else 
09278:  BRA    9280
....................             {Flanco1 = 0;}   
0927A:  MOVLB  4
0927C:  BCF    x2C.1
0927E:  MOVLB  0
....................              
....................       if(LEFT)//Si oprime boton de Toma. 
09280:  BSF    F96.2
09282:  BTFSC  F84.2
09284:  BRA    93DE
....................       { 
....................          delay_ms(700);Menu=32;glcd_fillscreen(OFF);Opcion=1;unidad=1; 
09286:  MOVLW  04
09288:  MOVLB  5
0928A:  MOVWF  xDD
0928C:  MOVLW  AF
0928E:  MOVWF  xF1
09290:  MOVLB  0
09292:  CALL   14E0
09296:  MOVLB  5
09298:  DECFSZ xDD,F
0929A:  BRA    928C
0929C:  MOVLW  20
0929E:  MOVLB  4
092A0:  MOVWF  xC7
092A2:  MOVLB  5
092A4:  CLRF   xE5
092A6:  MOVLB  0
092A8:  CALL   15C0
092AC:  MOVLW  01
092AE:  MOVLB  4
092B0:  MOVWF  xC9
092B2:  MOVWF  xC8
....................          Temporal=Ajuste1; 
092B4:  MOVFF  534,53C
092B8:  MOVFF  533,53B
092BC:  MOVFF  532,53A
092C0:  MOVFF  531,539
....................          Entero=(int)Ajuste1; 
092C4:  MOVFF  534,613
092C8:  MOVFF  533,612
092CC:  MOVFF  532,611
092D0:  MOVFF  531,610
092D4:  MOVLB  0
092D6:  CALL   2D34
092DA:  MOVFF  01,4D2
....................          Temporal=Temporal-Entero; 
092DE:  MOVLB  6
092E0:  CLRF   x15
092E2:  MOVFF  4D2,614
092E6:  MOVLB  0
092E8:  CALL   177A
092EC:  BSF    FD8.1
092EE:  MOVFF  53C,617
092F2:  MOVFF  53B,616
092F6:  MOVFF  53A,615
092FA:  MOVFF  539,614
092FE:  MOVFF  03,61B
09302:  MOVFF  02,61A
09306:  MOVFF  01,619
0930A:  MOVFF  00,618
0930E:  CALL   190E
09312:  MOVFF  03,53C
09316:  MOVFF  02,53B
0931A:  MOVFF  01,53A
0931E:  MOVFF  00,539
....................          Temporal2=Temporal*10.0; 
09322:  MOVFF  53C,613
09326:  MOVFF  53B,612
0932A:  MOVFF  53A,611
0932E:  MOVFF  539,610
09332:  MOVLB  6
09334:  CLRF   x17
09336:  CLRF   x16
09338:  MOVLW  20
0933A:  MOVWF  x15
0933C:  MOVLW  82
0933E:  MOVWF  x14
09340:  MOVLB  0
09342:  CALL   2D70
09346:  MOVFF  03,540
0934A:  MOVFF  02,53F
0934E:  MOVFF  01,53E
09352:  MOVFF  00,53D
....................          Decimal1=(int8)Temporal2; 
09356:  MOVFF  540,613
0935A:  MOVFF  53F,612
0935E:  MOVFF  53E,611
09362:  MOVFF  53D,610
09366:  CALL   2D34
0936A:  MOVFF  01,4D3
....................          write_eeprom(25,Entero); 
0936E:  CLRF   FAA
09370:  MOVLW  19
09372:  MOVWF  FA9
09374:  MOVFF  4D2,FA8
09378:  BCF    FA6.6
0937A:  BCF    FA6.7
0937C:  BSF    FA6.2
0937E:  MOVF   FF2,W
09380:  MOVWF  00
09382:  BCF    FF2.7
09384:  MOVLB  F
09386:  MOVLW  55
09388:  MOVWF  FA7
0938A:  MOVLW  AA
0938C:  MOVWF  FA7
0938E:  BSF    FA6.1
09390:  BTFSC  FA6.1
09392:  BRA    9390
09394:  BCF    FA6.2
09396:  MOVF   00,W
09398:  IORWF  FF2,F
....................          delay_ms(20); 
0939A:  MOVLW  14
0939C:  MOVLB  5
0939E:  MOVWF  xF1
093A0:  MOVLB  0
093A2:  CALL   14E0
....................          write_eeprom(26,Decimal1); 
093A6:  CLRF   FAA
093A8:  MOVLW  1A
093AA:  MOVWF  FA9
093AC:  MOVFF  4D3,FA8
093B0:  BCF    FA6.6
093B2:  BCF    FA6.7
093B4:  BSF    FA6.2
093B6:  MOVF   FF2,W
093B8:  MOVWF  00
093BA:  BCF    FF2.7
093BC:  MOVLB  F
093BE:  MOVLW  55
093C0:  MOVWF  FA7
093C2:  MOVLW  AA
093C4:  MOVWF  FA7
093C6:  BSF    FA6.1
093C8:  BTFSC  FA6.1
093CA:  BRA    93C8
093CC:  BCF    FA6.2
093CE:  MOVF   00,W
093D0:  IORWF  FF2,F
....................          delay_ms(20); 
093D2:  MOVLW  14
093D4:  MOVLB  5
093D6:  MOVWF  xF1
093D8:  MOVLB  0
093DA:  CALL   14E0
093DE:  MOVLB  4
....................       } 
....................     } 
.................... //_--------------------------------------------------------------------------------------------------------------------------------------------------------        
....................  
.................... //_-------------------------------------------------------------------------------------------------------------------------------------------------------- 
....................       if(Menu==42){ //Menu de Sensor de Presin. 
093E0:  MOVF   xC7,W
093E2:  SUBLW  2A
093E4:  BTFSS  FD8.2
093E6:  BRA    9814
....................        
....................       if(Ajuste2>10.0) 
093E8:  MOVLB  6
093EA:  CLRF   x13
093EC:  CLRF   x12
093EE:  MOVLW  20
093F0:  MOVWF  x11
093F2:  MOVLW  82
093F4:  MOVWF  x10
093F6:  MOVFF  538,617
093FA:  MOVFF  537,616
093FE:  MOVFF  536,615
09402:  MOVFF  535,614
09406:  MOVLB  0
09408:  CALL   22EC
0940C:  BNC   941A
....................          Ajuste2=0.0; 
0940E:  MOVLB  5
09410:  CLRF   x38
09412:  CLRF   x37
09414:  CLRF   x36
09416:  CLRF   x35
09418:  MOVLB  0
....................        
....................       strcpy(Menus.Letra,"Sensor de Presion"); 
0941A:  MOVLW  04
0941C:  MOVWF  FEA
0941E:  MOVLW  16
09420:  MOVWF  FE9
09422:  MOVFF  FF2,5DD
09426:  BCF    FF2.7
09428:  MOVLW  00
0942A:  CALL   1202
0942E:  TBLRD*-
09430:  TBLRD*+
09432:  MOVF   FF5,W
09434:  MOVWF  FEE
09436:  IORLW  00
09438:  BNZ   9430
0943A:  MOVLB  5
0943C:  BTFSC  xDD.7
0943E:  BSF    FF2.7
....................       displayMenu(Menus.Letra,10,0,1,1); 
09440:  MOVLW  04
09442:  MOVWF  xE6
09444:  MOVLW  16
09446:  MOVWF  xE5
09448:  MOVLW  0A
0944A:  MOVWF  xE7
0944C:  CLRF   xE8
0944E:  MOVLW  01
09450:  MOVWF  xE9
09452:  MOVWF  xEA
09454:  MOVLB  0
09456:  CALL   4BC2
....................        
....................       glcd_text57(0, 12, ZFP, 1, ON); 
0945A:  MOVLB  5
0945C:  CLRF   xF6
0945E:  MOVLW  0C
09460:  MOVWF  xF7
09462:  MOVLW  04
09464:  MOVWF  xF9
09466:  MOVLW  A7
09468:  MOVWF  xF8
0946A:  MOVLW  01
0946C:  MOVWF  xFA
0946E:  MOVWF  xFB
09470:  MOVLB  0
09472:  CALL   4948
....................        
....................       glcd_text57(0, 20, ZA, 1, ON); 
09476:  MOVLB  5
09478:  CLRF   xF6
0947A:  MOVLW  14
0947C:  MOVWF  xF7
0947E:  MOVLW  04
09480:  MOVWF  xF9
09482:  MOVLW  8C
09484:  MOVWF  xF8
09486:  MOVLW  01
09488:  MOVWF  xFA
0948A:  MOVWF  xFB
0948C:  MOVLB  0
0948E:  CALL   4948
....................        
....................       glcd_text57(0, 30, AJ, 1, ON);            
09492:  MOVLB  5
09494:  CLRF   xF6
09496:  MOVLW  1E
09498:  MOVWF  xF7
0949A:  MOVLW  04
0949C:  MOVWF  xF9
0949E:  MOVLW  94
094A0:  MOVWF  xF8
094A2:  MOVLW  01
094A4:  MOVWF  xFA
094A6:  MOVWF  xFB
094A8:  MOVLB  0
094AA:  CALL   4948
....................        
....................       displayfloat(G,44,20,0,1); 
094AE:  MOVFF  5C8,5E4
094B2:  MOVFF  5C7,5E3
094B6:  MOVFF  5C6,5E2
094BA:  MOVFF  5C5,5E1
094BE:  MOVLW  2C
094C0:  MOVLB  5
094C2:  MOVWF  xE5
094C4:  MOVLW  14
094C6:  MOVWF  xE6
094C8:  CLRF   xE7
094CA:  MOVLW  01
094CC:  MOVWF  xE8
094CE:  MOVLB  0
094D0:  CALL   5902
....................       displayfloat(Ajuste2,44,30,0,1); 
094D4:  MOVFF  538,5E4
094D8:  MOVFF  537,5E3
094DC:  MOVFF  536,5E2
094E0:  MOVFF  535,5E1
094E4:  MOVLW  2C
094E6:  MOVLB  5
094E8:  MOVWF  xE5
094EA:  MOVLW  1E
094EC:  MOVWF  xE6
094EE:  CLRF   xE7
094F0:  MOVLW  01
094F2:  MOVWF  xE8
094F4:  MOVLB  0
094F6:  CALL   5902
....................       displayfloat(Filtro_DownFlow_adc,0,40,0,1); 
094FA:  MOVFF  4D8,615
094FE:  MOVFF  4D7,614
09502:  CALL   177A
09506:  MOVFF  00,5DD
0950A:  MOVFF  01,5DE
0950E:  MOVFF  02,5DF
09512:  MOVFF  03,5E0
09516:  MOVFF  03,5E4
0951A:  MOVFF  02,5E3
0951E:  MOVFF  01,5E2
09522:  MOVFF  00,5E1
09526:  MOVLB  5
09528:  CLRF   xE5
0952A:  MOVLW  28
0952C:  MOVWF  xE6
0952E:  CLRF   xE7
09530:  MOVLW  01
09532:  MOVWF  xE8
09534:  MOVLB  0
09536:  CALL   5902
....................       displayfloat(Filtro_DownFlow,0,50,0,1); 
0953A:  MOVFF  51C,5E4
0953E:  MOVFF  51B,5E3
09542:  MOVFF  51A,5E2
09546:  MOVFF  519,5E1
0954A:  MOVLB  5
0954C:  CLRF   xE5
0954E:  MOVLW  32
09550:  MOVWF  xE6
09552:  CLRF   xE7
09554:  MOVLW  01
09556:  MOVWF  xE8
09558:  MOVLB  0
0955A:  CALL   5902
....................        
....................       if(UP)//Si oprime hacia arriba 
0955E:  BSF    F92.5
09560:  BTFSC  F80.5
09562:  BRA    95AA
....................       {   
....................          delay_ms(30);Ajuste2+=0.01; 
09564:  MOVLW  1E
09566:  MOVLB  5
09568:  MOVWF  xF1
0956A:  MOVLB  0
0956C:  CALL   14E0
09570:  BCF    FD8.1
09572:  MOVFF  538,617
09576:  MOVFF  537,616
0957A:  MOVFF  536,615
0957E:  MOVFF  535,614
09582:  MOVLW  0A
09584:  MOVLB  6
09586:  MOVWF  x1B
09588:  MOVLW  D7
0958A:  MOVWF  x1A
0958C:  MOVLW  23
0958E:  MOVWF  x19
09590:  MOVLW  78
09592:  MOVWF  x18
09594:  MOVLB  0
09596:  CALL   190E
0959A:  MOVFF  03,538
0959E:  MOVFF  02,537
095A2:  MOVFF  01,536
095A6:  MOVFF  00,535
....................       } 
....................              
....................       if(DOWN)//Si oprime hacia abajo 
095AA:  BSF    F96.0
095AC:  BTFSC  F84.0
095AE:  BRA    95F6
....................       {   
....................          delay_ms(30);Ajuste2-=0.01; 
095B0:  MOVLW  1E
095B2:  MOVLB  5
095B4:  MOVWF  xF1
095B6:  MOVLB  0
095B8:  CALL   14E0
095BC:  BSF    FD8.1
095BE:  MOVFF  538,617
095C2:  MOVFF  537,616
095C6:  MOVFF  536,615
095CA:  MOVFF  535,614
095CE:  MOVLW  0A
095D0:  MOVLB  6
095D2:  MOVWF  x1B
095D4:  MOVLW  D7
095D6:  MOVWF  x1A
095D8:  MOVLW  23
095DA:  MOVWF  x19
095DC:  MOVLW  78
095DE:  MOVWF  x18
095E0:  MOVLB  0
095E2:  CALL   190E
095E6:  MOVFF  03,538
095EA:  MOVFF  02,537
095EE:  MOVFF  01,536
095F2:  MOVFF  00,535
....................       } 
....................              
....................       if(RIGHT)//Si oprime SET 
095F6:  BSF    F96.1
095F8:  BTFSC  F84.1
095FA:  BRA    96AE
....................       {            
....................          G=Filtro_Downflow_adc; 
095FC:  MOVFF  4D8,615
09600:  MOVFF  4D7,614
09604:  CALL   177A
09608:  MOVFF  03,5C8
0960C:  MOVFF  02,5C7
09610:  MOVFF  01,5C6
09614:  MOVFF  00,5C5
....................          G16=(int16)G; 
09618:  MOVFF  5C8,613
0961C:  MOVFF  5C7,612
09620:  MOVFF  5C6,611
09624:  MOVFF  5C5,610
09628:  CALL   2D34
0962C:  MOVFF  02,4E2
09630:  MOVFF  01,4E1
....................          G_l=G16; G_h=(G16>>8); 
09634:  MOVFF  4E1,4CB
09638:  MOVFF  4E2,4CC
....................              
....................          write_eeprom(62,G_l); 
0963C:  CLRF   FAA
0963E:  MOVLW  3E
09640:  MOVWF  FA9
09642:  MOVFF  4CB,FA8
09646:  BCF    FA6.6
09648:  BCF    FA6.7
0964A:  BSF    FA6.2
0964C:  MOVF   FF2,W
0964E:  MOVWF  00
09650:  BCF    FF2.7
09652:  MOVLB  F
09654:  MOVLW  55
09656:  MOVWF  FA7
09658:  MOVLW  AA
0965A:  MOVWF  FA7
0965C:  BSF    FA6.1
0965E:  BTFSC  FA6.1
09660:  BRA    965E
09662:  BCF    FA6.2
09664:  MOVF   00,W
09666:  IORWF  FF2,F
....................          delay_ms(20); 
09668:  MOVLW  14
0966A:  MOVLB  5
0966C:  MOVWF  xF1
0966E:  MOVLB  0
09670:  CALL   14E0
....................          write_eeprom(63,G_h);//Guardar valor de Setpoint en eeprom 
09674:  CLRF   FAA
09676:  MOVLW  3F
09678:  MOVWF  FA9
0967A:  MOVFF  4CC,FA8
0967E:  BCF    FA6.6
09680:  BCF    FA6.7
09682:  BSF    FA6.2
09684:  MOVF   FF2,W
09686:  MOVWF  00
09688:  BCF    FF2.7
0968A:  MOVLB  F
0968C:  MOVLW  55
0968E:  MOVWF  FA7
09690:  MOVLW  AA
09692:  MOVWF  FA7
09694:  BSF    FA6.1
09696:  BTFSC  FA6.1
09698:  BRA    9696
0969A:  BCF    FA6.2
0969C:  MOVF   00,W
0969E:  IORWF  FF2,F
....................          delay_ms(20); 
096A0:  MOVLW  14
096A2:  MOVLB  5
096A4:  MOVWF  xF1
096A6:  MOVLB  0
096A8:  CALL   14E0
....................       } 
....................          else 
096AC:  BRA    96B4
....................             {Flanco1 = 0;}   
096AE:  MOVLB  4
096B0:  BCF    x2C.1
096B2:  MOVLB  0
....................              
....................       if(LEFT)//Si oprime boton de Toma. 
096B4:  BSF    F96.2
096B6:  BTFSC  F84.2
096B8:  BRA    9812
....................       {                   
....................          delay_ms(700);Menu=32;glcd_fillscreen(OFF);Opcion=1;unidad=1; 
096BA:  MOVLW  04
096BC:  MOVLB  5
096BE:  MOVWF  xDD
096C0:  MOVLW  AF
096C2:  MOVWF  xF1
096C4:  MOVLB  0
096C6:  CALL   14E0
096CA:  MOVLB  5
096CC:  DECFSZ xDD,F
096CE:  BRA    96C0
096D0:  MOVLW  20
096D2:  MOVLB  4
096D4:  MOVWF  xC7
096D6:  MOVLB  5
096D8:  CLRF   xE5
096DA:  MOVLB  0
096DC:  CALL   15C0
096E0:  MOVLW  01
096E2:  MOVLB  4
096E4:  MOVWF  xC9
096E6:  MOVWF  xC8
....................          Temporal=Ajuste2; 
096E8:  MOVFF  538,53C
096EC:  MOVFF  537,53B
096F0:  MOVFF  536,53A
096F4:  MOVFF  535,539
....................          Entero=(int)Ajuste2; 
096F8:  MOVFF  538,613
096FC:  MOVFF  537,612
09700:  MOVFF  536,611
09704:  MOVFF  535,610
09708:  MOVLB  0
0970A:  CALL   2D34
0970E:  MOVFF  01,4D2
....................          Temporal=Temporal-Entero; 
09712:  MOVLB  6
09714:  CLRF   x15
09716:  MOVFF  4D2,614
0971A:  MOVLB  0
0971C:  CALL   177A
09720:  BSF    FD8.1
09722:  MOVFF  53C,617
09726:  MOVFF  53B,616
0972A:  MOVFF  53A,615
0972E:  MOVFF  539,614
09732:  MOVFF  03,61B
09736:  MOVFF  02,61A
0973A:  MOVFF  01,619
0973E:  MOVFF  00,618
09742:  CALL   190E
09746:  MOVFF  03,53C
0974A:  MOVFF  02,53B
0974E:  MOVFF  01,53A
09752:  MOVFF  00,539
....................          Temporal2=Temporal*10.0; 
09756:  MOVFF  53C,613
0975A:  MOVFF  53B,612
0975E:  MOVFF  53A,611
09762:  MOVFF  539,610
09766:  MOVLB  6
09768:  CLRF   x17
0976A:  CLRF   x16
0976C:  MOVLW  20
0976E:  MOVWF  x15
09770:  MOVLW  82
09772:  MOVWF  x14
09774:  MOVLB  0
09776:  CALL   2D70
0977A:  MOVFF  03,540
0977E:  MOVFF  02,53F
09782:  MOVFF  01,53E
09786:  MOVFF  00,53D
....................          Decimal1=(int8)Temporal2; 
0978A:  MOVFF  540,613
0978E:  MOVFF  53F,612
09792:  MOVFF  53E,611
09796:  MOVFF  53D,610
0979A:  CALL   2D34
0979E:  MOVFF  01,4D3
....................          write_eeprom(27,Entero); 
097A2:  CLRF   FAA
097A4:  MOVLW  1B
097A6:  MOVWF  FA9
097A8:  MOVFF  4D2,FA8
097AC:  BCF    FA6.6
097AE:  BCF    FA6.7
097B0:  BSF    FA6.2
097B2:  MOVF   FF2,W
097B4:  MOVWF  00
097B6:  BCF    FF2.7
097B8:  MOVLB  F
097BA:  MOVLW  55
097BC:  MOVWF  FA7
097BE:  MOVLW  AA
097C0:  MOVWF  FA7
097C2:  BSF    FA6.1
097C4:  BTFSC  FA6.1
097C6:  BRA    97C4
097C8:  BCF    FA6.2
097CA:  MOVF   00,W
097CC:  IORWF  FF2,F
....................          delay_ms(20); 
097CE:  MOVLW  14
097D0:  MOVLB  5
097D2:  MOVWF  xF1
097D4:  MOVLB  0
097D6:  CALL   14E0
....................          write_eeprom(28,Decimal1); 
097DA:  CLRF   FAA
097DC:  MOVLW  1C
097DE:  MOVWF  FA9
097E0:  MOVFF  4D3,FA8
097E4:  BCF    FA6.6
097E6:  BCF    FA6.7
097E8:  BSF    FA6.2
097EA:  MOVF   FF2,W
097EC:  MOVWF  00
097EE:  BCF    FF2.7
097F0:  MOVLB  F
097F2:  MOVLW  55
097F4:  MOVWF  FA7
097F6:  MOVLW  AA
097F8:  MOVWF  FA7
097FA:  BSF    FA6.1
097FC:  BTFSC  FA6.1
097FE:  BRA    97FC
09800:  BCF    FA6.2
09802:  MOVF   00,W
09804:  IORWF  FF2,F
....................          delay_ms(20); 
09806:  MOVLW  14
09808:  MOVLB  5
0980A:  MOVWF  xF1
0980C:  MOVLB  0
0980E:  CALL   14E0
09812:  MOVLB  4
....................       } 
....................     } 
.................... //_--------------------------------------------------------------------------------------------------------------------------------------------------------        
....................  
.................... //_-------------------------------------------------------------------------------------------------------------------------------------------------------- 
....................       if(Menu==43){ //Menu de Velocidad de Motor 
09814:  MOVF   xC7,W
09816:  SUBLW  2B
09818:  BTFSS  FD8.2
0981A:  BRA    99E6
....................        
....................       if(VelMotor>6)VelMotor=6; 
0981C:  MOVLB  5
0981E:  MOVF   xD4,W
09820:  SUBLW  06
09822:  BC    9828
09824:  MOVLW  06
09826:  MOVWF  xD4
....................        
....................       strcpy(Menus.Letra,"Seleccion Vel"); 
09828:  MOVLW  04
0982A:  MOVWF  FEA
0982C:  MOVLW  16
0982E:  MOVWF  FE9
09830:  MOVFF  FF2,5DD
09834:  BCF    FF2.7
09836:  MOVLW  00
09838:  MOVLB  0
0983A:  CALL   12BE
0983E:  TBLRD*-
09840:  TBLRD*+
09842:  MOVF   FF5,W
09844:  MOVWF  FEE
09846:  IORLW  00
09848:  BNZ   9840
0984A:  MOVLB  5
0984C:  BTFSC  xDD.7
0984E:  BSF    FF2.7
....................       displayMenu(Menus.Letra,10,0,1,1); 
09850:  MOVLW  04
09852:  MOVWF  xE6
09854:  MOVLW  16
09856:  MOVWF  xE5
09858:  MOVLW  0A
0985A:  MOVWF  xE7
0985C:  CLRF   xE8
0985E:  MOVLW  01
09860:  MOVWF  xE9
09862:  MOVWF  xEA
09864:  MOVLB  0
09866:  CALL   4BC2
....................        
....................       displayTiempo(VelMotor,50,40,1,2); 
0986A:  MOVFF  5D4,5DD
0986E:  MOVLW  32
09870:  MOVLB  5
09872:  MOVWF  xDE
09874:  MOVLW  28
09876:  MOVWF  xDF
09878:  MOVLW  01
0987A:  MOVWF  xE0
0987C:  MOVLW  02
0987E:  MOVWF  xE1
09880:  MOVLB  0
09882:  CALL   5370
....................        
....................       if(UP && VelMotor<6)//Si oprime hacia arriba 
09886:  BSF    F92.5
09888:  BTFSC  F80.5
0988A:  BRA    98AA
0988C:  MOVLB  5
0988E:  MOVF   xD4,W
09890:  SUBLW  05
09892:  BTFSC  FD8.0
09894:  BRA    989A
09896:  MOVLB  0
09898:  BRA    98AA
....................       {   
....................          delay_ms(200);VelMotor++; 
0989A:  MOVLW  C8
0989C:  MOVWF  xF1
0989E:  MOVLB  0
098A0:  CALL   14E0
098A4:  MOVLB  5
098A6:  INCF   xD4,F
098A8:  MOVLB  0
....................       } 
....................              
....................       if(DOWN && VelMotor>0)//Si oprime hacia abajo 
098AA:  BSF    F96.0
098AC:  BTFSC  F84.0
098AE:  BRA    98CC
098B0:  MOVLB  5
098B2:  MOVF   xD4,F
098B4:  BTFSS  FD8.2
098B6:  BRA    98BC
098B8:  MOVLB  0
098BA:  BRA    98CC
....................       {   
....................          delay_ms(200);VelMotor--; 
098BC:  MOVLW  C8
098BE:  MOVWF  xF1
098C0:  MOVLB  0
098C2:  CALL   14E0
098C6:  MOVLB  5
098C8:  DECF   xD4,F
098CA:  MOVLB  0
....................       } 
....................              
....................       if(RIGHT)//Si oprime SET 
098CC:  BSF    F96.1
098CE:  BTFSC  F84.1
098D0:  BRA    98DA
....................       {            
....................          VelocidadMotor(VelMotor); 
098D2:  MOVFF  5D4,5DD
098D6:  CALL   1508
....................       }  
....................              
....................       if(LEFT)//Si oprime boton de Toma. 
098DA:  BSF    F96.2
098DC:  BTFSC  F84.2
098DE:  BRA    99E8
....................       {                   
....................          delay_ms(100);glcd_fillscreen(OFF);Opcion=1;unidad=1; 
098E0:  MOVLW  64
098E2:  MOVLB  5
098E4:  MOVWF  xF1
098E6:  MOVLB  0
098E8:  CALL   14E0
098EC:  MOVLB  5
098EE:  CLRF   xE5
098F0:  MOVLB  0
098F2:  CALL   15C0
098F6:  MOVLW  01
098F8:  MOVLB  4
098FA:  MOVWF  xC9
098FC:  MOVWF  xC8
....................          write_eeprom(32,VelMotor);//Guardar valor de Setpoint en eeprom 
098FE:  CLRF   FAA
09900:  MOVLW  20
09902:  MOVWF  FA9
09904:  MOVFF  5D4,FA8
09908:  BCF    FA6.6
0990A:  BCF    FA6.7
0990C:  BSF    FA6.2
0990E:  MOVF   FF2,W
09910:  MOVWF  00
09912:  BCF    FF2.7
09914:  MOVLB  F
09916:  MOVLW  55
09918:  MOVWF  FA7
0991A:  MOVLW  AA
0991C:  MOVWF  FA7
0991E:  BSF    FA6.1
09920:  BTFSC  FA6.1
09922:  BRA    9920
09924:  BCF    FA6.2
09926:  MOVF   00,W
09928:  IORWF  FF2,F
....................          delay_ms(20); 
0992A:  MOVLW  14
0992C:  MOVLB  5
0992E:  MOVWF  xF1
09930:  MOVLB  0
09932:  CALL   14E0
....................          glcd_fillScreen(OFF); 
09936:  MOVLB  5
09938:  CLRF   xE5
0993A:  MOVLB  0
0993C:  CALL   15C0
....................          strcpy(Menus.Letra,"Velocidad"); 
09940:  MOVLW  04
09942:  MOVWF  FEA
09944:  MOVLW  16
09946:  MOVWF  FE9
09948:  MOVFF  FF2,5DD
0994C:  BCF    FF2.7
0994E:  MOVLW  00
09950:  CALL   12E6
09954:  TBLRD*-
09956:  TBLRD*+
09958:  MOVF   FF5,W
0995A:  MOVWF  FEE
0995C:  IORLW  00
0995E:  BNZ   9956
09960:  MOVLB  5
09962:  BTFSC  xDD.7
09964:  BSF    FF2.7
....................          displayMenu(Menus.Letra,0,0,0,2); 
09966:  MOVLW  04
09968:  MOVWF  xE6
0996A:  MOVLW  16
0996C:  MOVWF  xE5
0996E:  CLRF   xE7
09970:  CLRF   xE8
09972:  CLRF   xE9
09974:  MOVLW  02
09976:  MOVWF  xEA
09978:  MOVLB  0
0997A:  CALL   4BC2
....................          strcpy(Menus.Letra,"Guardada"); 
0997E:  MOVLW  04
09980:  MOVWF  FEA
09982:  MOVLW  16
09984:  MOVWF  FE9
09986:  MOVFF  FF2,5DD
0998A:  BCF    FF2.7
0998C:  MOVLW  00
0998E:  CALL   130A
09992:  TBLRD*-
09994:  TBLRD*+
09996:  MOVF   FF5,W
09998:  MOVWF  FEE
0999A:  IORLW  00
0999C:  BNZ   9994
0999E:  MOVLB  5
099A0:  BTFSC  xDD.7
099A2:  BSF    FF2.7
....................          displayMenu(Menus.Letra,0,30,0,2); 
099A4:  MOVLW  04
099A6:  MOVWF  xE6
099A8:  MOVLW  16
099AA:  MOVWF  xE5
099AC:  CLRF   xE7
099AE:  MOVLW  1E
099B0:  MOVWF  xE8
099B2:  CLRF   xE9
099B4:  MOVLW  02
099B6:  MOVWF  xEA
099B8:  MOVLB  0
099BA:  CALL   4BC2
....................          glcd_update(); 
099BE:  CALL   161A
....................          delay_ms(1000); 
099C2:  MOVLW  04
099C4:  MOVLB  5
099C6:  MOVWF  xDD
099C8:  MOVLW  FA
099CA:  MOVWF  xF1
099CC:  MOVLB  0
099CE:  CALL   14E0
099D2:  MOVLB  5
099D4:  DECFSZ xDD,F
099D6:  BRA    99C8
....................          glcd_fillScreen(OFF); 
099D8:  CLRF   xE5
099DA:  MOVLB  0
099DC:  CALL   15C0
....................          Menu=32; 
099E0:  MOVLW  20
099E2:  MOVLB  4
099E4:  MOVWF  xC7
099E6:  MOVLB  0
....................       } 
....................     } 
.................... //_--------------------------------------------------------------------------------------------------------------------------------------------------------        
....................  
.................... //_-------------------------------------------------------------------------------------------------------------------------------------------------------- 
....................       if(Menu==120){ //Menu de Post-Purga. 
099E8:  MOVLB  4
099EA:  MOVF   xC7,W
099EC:  SUBLW  78
099EE:  BTFSS  FD8.2
099F0:  BRA    9B7C
....................        
....................       // Para que inicie el tiempo de Post-Purga se debe oprimir el boton de encendido en el Microcontrolador esclavo. 
....................       strcpy(Menus.Letra,"Tiempo"); 
099F2:  MOVLW  04
099F4:  MOVWF  FEA
099F6:  MOVLW  16
099F8:  MOVWF  FE9
099FA:  MOVFF  FF2,5DD
099FE:  BCF    FF2.7
09A00:  MOVLW  00
09A02:  MOVLB  0
09A04:  CALL   132E
09A08:  TBLRD*-
09A0A:  TBLRD*+
09A0C:  MOVF   FF5,W
09A0E:  MOVWF  FEE
09A10:  IORLW  00
09A12:  BNZ   9A0A
09A14:  MOVLB  5
09A16:  BTFSC  xDD.7
09A18:  BSF    FF2.7
....................       displayMenu(Menus.Letra,30,0,1,2); 
09A1A:  MOVLW  04
09A1C:  MOVWF  xE6
09A1E:  MOVLW  16
09A20:  MOVWF  xE5
09A22:  MOVLW  1E
09A24:  MOVWF  xE7
09A26:  CLRF   xE8
09A28:  MOVLW  01
09A2A:  MOVWF  xE9
09A2C:  MOVLW  02
09A2E:  MOVWF  xEA
09A30:  MOVLB  0
09A32:  CALL   4BC2
....................       strcpy(Menus.Letra,"Post-Purga"); 
09A36:  MOVLW  04
09A38:  MOVWF  FEA
09A3A:  MOVLW  16
09A3C:  MOVWF  FE9
09A3E:  MOVFF  FF2,5DD
09A42:  BCF    FF2.7
09A44:  MOVLW  00
09A46:  CALL   1350
09A4A:  TBLRD*-
09A4C:  TBLRD*+
09A4E:  MOVF   FF5,W
09A50:  MOVWF  FEE
09A52:  IORLW  00
09A54:  BNZ   9A4C
09A56:  MOVLB  5
09A58:  BTFSC  xDD.7
09A5A:  BSF    FF2.7
....................       displayMenu(Menus.Letra,10,17,1,2); 
09A5C:  MOVLW  04
09A5E:  MOVWF  xE6
09A60:  MOVLW  16
09A62:  MOVWF  xE5
09A64:  MOVLW  0A
09A66:  MOVWF  xE7
09A68:  MOVLW  11
09A6A:  MOVWF  xE8
09A6C:  MOVLW  01
09A6E:  MOVWF  xE9
09A70:  MOVLW  02
09A72:  MOVWF  xEA
09A74:  MOVLB  0
09A76:  CALL   4BC2
....................        
....................       tiempo_postpurga=1; 
09A7A:  MOVLB  4
09A7C:  BSF    x2E.0
....................       LuzBlanca_off;  
09A7E:  BCF    F8B.0
09A80:  BCF    F94.0
....................       Aux_off; 
09A82:  BCF    F8B.1
09A84:  BCF    F94.1
....................       VelocidadMotor(VelMotor); 
09A86:  MOVFF  5D4,5DD
09A8A:  MOVLB  0
09A8C:  CALL   1508
....................       flag_blower=1; 
09A90:  MOVLB  4
09A92:  BSF    x2C.7
....................        
....................        displayTiempo(Tppurga[3],20,40,0,2);displayTiempo(Tppurga[2],40,40,0,2);glcd_text57(60, 42, Dos_puntos, 2, ON); 
09A94:  MOVFF  4F8,5DD
09A98:  MOVLW  14
09A9A:  MOVLB  5
09A9C:  MOVWF  xDE
09A9E:  MOVLW  28
09AA0:  MOVWF  xDF
09AA2:  CLRF   xE0
09AA4:  MOVLW  02
09AA6:  MOVWF  xE1
09AA8:  MOVLB  0
09AAA:  CALL   5370
09AAE:  MOVFF  4F7,5DD
09AB2:  MOVLW  28
09AB4:  MOVLB  5
09AB6:  MOVWF  xDE
09AB8:  MOVWF  xDF
09ABA:  CLRF   xE0
09ABC:  MOVLW  02
09ABE:  MOVWF  xE1
09AC0:  MOVLB  0
09AC2:  CALL   5370
09AC6:  MOVLW  3C
09AC8:  MOVLB  5
09ACA:  MOVWF  xF6
09ACC:  MOVLW  2A
09ACE:  MOVWF  xF7
09AD0:  MOVLW  04
09AD2:  MOVWF  xF9
09AD4:  MOVLW  4D
09AD6:  MOVWF  xF8
09AD8:  MOVLW  02
09ADA:  MOVWF  xFA
09ADC:  MOVLW  01
09ADE:  MOVWF  xFB
09AE0:  MOVLB  0
09AE2:  CALL   4948
....................        displayTiempo(Tppurga[1],70,40,0,2);displayTiempo(Tppurga[0],90,40,0,2);  
09AE6:  MOVFF  4F6,5DD
09AEA:  MOVLW  46
09AEC:  MOVLB  5
09AEE:  MOVWF  xDE
09AF0:  MOVLW  28
09AF2:  MOVWF  xDF
09AF4:  CLRF   xE0
09AF6:  MOVLW  02
09AF8:  MOVWF  xE1
09AFA:  MOVLB  0
09AFC:  CALL   5370
09B00:  MOVFF  4F5,5DD
09B04:  MOVLW  5A
09B06:  MOVLB  5
09B08:  MOVWF  xDE
09B0A:  MOVLW  28
09B0C:  MOVWF  xDF
09B0E:  CLRF   xE0
09B10:  MOVLW  02
09B12:  MOVWF  xE1
09B14:  MOVLB  0
09B16:  CALL   5370
....................        
....................       if(RIGHT) 
09B1A:  BSF    F96.1
09B1C:  BTFSC  F84.1
09B1E:  BRA    9B52
....................       { 
....................          delay_ms(1000); 
09B20:  MOVLW  04
09B22:  MOVLB  5
09B24:  MOVWF  xDD
09B26:  MOVLW  FA
09B28:  MOVWF  xF1
09B2A:  MOVLB  0
09B2C:  CALL   14E0
09B30:  MOVLB  5
09B32:  DECFSZ xDD,F
09B34:  BRA    9B26
....................          if(RIGHT ) 
09B36:  BSF    F96.1
09B38:  BTFSC  F84.1
09B3A:  BRA    9B52
....................          { 
....................             delay_ms(1500); 
09B3C:  MOVLW  06
09B3E:  MOVWF  xDD
09B40:  MOVLW  FA
09B42:  MOVWF  xF1
09B44:  MOVLB  0
09B46:  CALL   14E0
09B4A:  MOVLB  5
09B4C:  DECFSZ xDD,F
09B4E:  BRA    9B40
....................             reset_cpu(); 
09B50:  RESET
....................          } 
....................       } 
....................        
....................       if((Tppurga[0]==Tppurgap[0])&&(Tppurga[1]==Tppurgap[1])&&(Tppurga[2]==Tppurgap[2])&&(Tppurga[3]==Tppurgap[3])) 
09B52:  MOVLB  4
09B54:  MOVF   xF9,W
09B56:  SUBWF  xF5,W
09B58:  BNZ   9B7C
09B5A:  MOVF   xFA,W
09B5C:  SUBWF  xF6,W
09B5E:  BNZ   9B7C
09B60:  MOVF   xFB,W
09B62:  SUBWF  xF7,W
09B64:  BNZ   9B7C
09B66:  MOVF   xFC,W
09B68:  SUBWF  xF8,W
09B6A:  BNZ   9B7C
....................       {tiempo_postpurga=0;glcd_fillScreen(OFF);reset_cpu();} 
09B6C:  BCF    x2E.0
09B6E:  MOVLB  5
09B70:  CLRF   xE5
09B72:  MOVLB  0
09B74:  CALL   15C0
09B78:  RESET
09B7A:  MOVLB  4
....................       
....................     } 
.................... //_--------------------------------------------------------------------------------------------------------------------------------------------------------        
....................  
.................... //_-------------------------------------------------------------------------------------------------------------------------------------------------------- 
....................       if(Menu==200){ //Menu de Inicio. 
09B7C:  MOVF   xC7,W
09B7E:  SUBLW  C8
09B80:  BTFSS  FD8.2
09B82:  BRA    9D1E
....................           
....................       if(RIGHT){ 
09B84:  BSF    F96.1
09B86:  BTFSC  F84.1
09B88:  BRA    9CFA
....................          delay_ms(1000); 
09B8A:  MOVLW  04
09B8C:  MOVLB  5
09B8E:  MOVWF  xDD
09B90:  MOVLW  FA
09B92:  MOVWF  xF1
09B94:  MOVLB  0
09B96:  CALL   14E0
09B9A:  MOVLB  5
09B9C:  DECFSZ xDD,F
09B9E:  BRA    9B90
....................          if(RIGHT){  
09BA0:  BSF    F96.1
09BA2:  BTFSC  F84.1
09BA4:  BRA    9CF6
....................             Display_on; 
09BA6:  BSF    F8A.1
09BA8:  BCF    F93.1
....................             glcd_init(ON);             //Inicializa la glcd 
09BAA:  MOVLW  01
09BAC:  MOVWF  xDD
09BAE:  MOVLB  0
09BB0:  CALL   16D2
....................             glcd_fillScreen(OFF);      //Limpia la pantalla 
09BB4:  MOVLB  5
09BB6:  CLRF   xE5
09BB8:  MOVLB  0
09BBA:  CALL   15C0
....................             glcd_text57(0, 0, JP, 2, ON);glcd_text57(5, 20, Cabina, 1, ON);glcd_text57(10, 40, Clase, 2, ON);              
09BBE:  MOVLB  5
09BC0:  CLRF   xF6
09BC2:  CLRF   xF7
09BC4:  MOVLW  04
09BC6:  MOVWF  xF9
09BC8:  MOVLW  2F
09BCA:  MOVWF  xF8
09BCC:  MOVLW  02
09BCE:  MOVWF  xFA
09BD0:  MOVLW  01
09BD2:  MOVWF  xFB
09BD4:  MOVLB  0
09BD6:  CALL   4948
09BDA:  MOVLW  05
09BDC:  MOVLB  5
09BDE:  MOVWF  xF6
09BE0:  MOVLW  14
09BE2:  MOVWF  xF7
09BE4:  MOVLW  04
09BE6:  MOVWF  xF9
09BE8:  MOVLW  3B
09BEA:  MOVWF  xF8
09BEC:  MOVLW  01
09BEE:  MOVWF  xFA
09BF0:  MOVWF  xFB
09BF2:  MOVLB  0
09BF4:  CALL   4948
09BF8:  MOVLW  0A
09BFA:  MOVLB  5
09BFC:  MOVWF  xF6
09BFE:  MOVLW  28
09C00:  MOVWF  xF7
09C02:  MOVLW  04
09C04:  MOVWF  xF9
09C06:  MOVLW  52
09C08:  MOVWF  xF8
09C0A:  MOVLW  02
09C0C:  MOVWF  xFA
09C0E:  MOVLW  01
09C10:  MOVWF  xFB
09C12:  MOVLB  0
09C14:  CALL   4948
....................             glcd_update();    
09C18:  CALL   161A
....................             delay_ms(3000); 
09C1C:  MOVLW  0C
09C1E:  MOVLB  5
09C20:  MOVWF  xDD
09C22:  MOVLW  FA
09C24:  MOVWF  xF1
09C26:  MOVLB  0
09C28:  CALL   14E0
09C2C:  MOVLB  5
09C2E:  DECFSZ xDD,F
09C30:  BRA    9C22
....................                         
....................             glcd_fillScreen(OFF);      //Limpia la pantalla 
09C32:  CLRF   xE5
09C34:  MOVLB  0
09C36:  CALL   15C0
....................             displayContrasena(Contrasena[0],20,30,1);displayContrasena(Contrasena[1],40,30,0); 
09C3A:  MOVFF  509,5E7
09C3E:  MOVLW  14
09C40:  MOVLB  5
09C42:  MOVWF  xE8
09C44:  MOVLW  1E
09C46:  MOVWF  xE9
09C48:  MOVLW  01
09C4A:  MOVWF  xEA
09C4C:  MOVLB  0
09C4E:  CALL   4B0A
09C52:  MOVFF  50A,5E7
09C56:  MOVLW  28
09C58:  MOVLB  5
09C5A:  MOVWF  xE8
09C5C:  MOVLW  1E
09C5E:  MOVWF  xE9
09C60:  CLRF   xEA
09C62:  MOVLB  0
09C64:  CALL   4B0A
....................             displayContrasena(Contrasena[2],60,30,0);displayContrasena(Contrasena[0],80,30,0); 
09C68:  MOVFF  50B,5E7
09C6C:  MOVLW  3C
09C6E:  MOVLB  5
09C70:  MOVWF  xE8
09C72:  MOVLW  1E
09C74:  MOVWF  xE9
09C76:  CLRF   xEA
09C78:  MOVLB  0
09C7A:  CALL   4B0A
09C7E:  MOVFF  509,5E7
09C82:  MOVLW  50
09C84:  MOVLB  5
09C86:  MOVWF  xE8
09C88:  MOVLW  1E
09C8A:  MOVWF  xE9
09C8C:  CLRF   xEA
09C8E:  MOVLB  0
09C90:  CALL   4B0A
....................             glcd_rect(0, 0, 127, 25, YES, ON);strcpy(Menus.Letra,"Clave");glcd_text57(25, 1, Menus.Letra, 3, OFF);    
09C94:  MOVLB  5
09C96:  CLRF   xF6
09C98:  CLRF   xF7
09C9A:  MOVLW  7F
09C9C:  MOVWF  xF8
09C9E:  MOVLW  19
09CA0:  MOVWF  xF9
09CA2:  MOVLW  01
09CA4:  MOVWF  xFA
09CA6:  MOVWF  xFB
09CA8:  MOVLB  0
09CAA:  CALL   4880
09CAE:  MOVLW  04
09CB0:  MOVWF  FEA
09CB2:  MOVLW  16
09CB4:  MOVWF  FE9
09CB6:  MOVFF  FF2,5DD
09CBA:  BCF    FF2.7
09CBC:  MOVLW  00
09CBE:  CALL   0EEE
09CC2:  TBLRD*-
09CC4:  TBLRD*+
09CC6:  MOVF   FF5,W
09CC8:  MOVWF  FEE
09CCA:  IORLW  00
09CCC:  BNZ   9CC4
09CCE:  MOVLB  5
09CD0:  BTFSC  xDD.7
09CD2:  BSF    FF2.7
09CD4:  MOVLW  19
09CD6:  MOVWF  xF6
09CD8:  MOVLW  01
09CDA:  MOVWF  xF7
09CDC:  MOVLW  04
09CDE:  MOVWF  xF9
09CE0:  MOVLW  16
09CE2:  MOVWF  xF8
09CE4:  MOVLW  03
09CE6:  MOVWF  xFA
09CE8:  CLRF   xFB
09CEA:  MOVLB  0
09CEC:  CALL   4948
....................             Menu=0; 
09CF0:  MOVLB  4
09CF2:  CLRF   xC7
09CF4:  MOVLB  5
....................          } 
....................       } 
....................       else 
09CF6:  BRA    9D1C
09CF8:  MOVLB  4
....................       { 
....................          Display_off;VelocidadMotor(0);LuzBlanca_off;Aux_off;glcd_fillScreen(OFF);      //Limpia la pantalla 
09CFA:  BCF    F8A.1
09CFC:  BCF    F93.1
09CFE:  MOVLB  5
09D00:  CLRF   xDD
09D02:  MOVLB  0
09D04:  CALL   1508
09D08:  BCF    F8B.0
09D0A:  BCF    F94.0
09D0C:  BCF    F8B.1
09D0E:  BCF    F94.1
09D10:  MOVLB  5
09D12:  CLRF   xE5
09D14:  MOVLB  0
09D16:  CALL   15C0
09D1A:  MOVLB  5
09D1C:  MOVLB  4
....................       } 
....................     } 
.................... //_--------------------------------------------------------------------------------------------------------------------------------------------------------        
....................    if(tiemporeset>=60) 
09D1E:  MOVF   xCD,W
09D20:  SUBLW  3B
09D22:  BC    9D3A
....................    { 
....................       if(Menu!=200){ 
09D24:  MOVF   xC7,W
09D26:  SUBLW  C8
09D28:  BZ    9D3A
....................          glcd_init(ON); 
09D2A:  MOVLW  01
09D2C:  MOVLB  5
09D2E:  MOVWF  xDD
09D30:  MOVLB  0
09D32:  CALL   16D2
....................          tiemporeset=0; 
09D36:  MOVLB  4
09D38:  CLRF   xCD
....................       } 
....................    }  
.................... } 
09D3A:  MOVLB  0
09D3C:  GOTO   5F8E
....................  
.................... } 
....................  
09D40:  SLEEP 

Configuration Fuses:
   Word  1: 0200   HS NOIESO NOFCMEN
   Word  2: 1E1F   BROWNOUT NOWDT BORV21 NOPUT WDT32768
   Word  3: 0100   CCP2C1 NOPBADEN NOLPT1OSC NOMCLR
   Word  4: 0080   NOSTVREN NODEBUG NOLVP NOXINST
   Word  5: C00F   NOPROTECT NOCPD NOCPB
   Word  6: E00F   NOWRT NOWRTD NOWRTC NOWRTB
   Word  7: 400F   NOEBTR NOEBTRB
