CCS PCH C Compiler, Version 4.104, 5967               08-nov.-18 10:04

               Filename: H:\JP\JP\Laboratorio\Cabina Extractora de Gases y  Humos\2018\Cabina Extractora Biobase #0045878YY\Firmware V2.0\Maestro_v2.lst

               ROM used: 33470 bytes (34%)
                         Largest free fragment is 32768
               RAM used: 1492 (45%) at main() level
                         1550 (47%) worst case
               Stack:    6 worst case (5 in main + 1 for interrupts)

*
00000:  GOTO   4A0C
*
00008:  MOVWF  04
0000A:  MOVFF  FD8,05
0000E:  MOVFF  FE0,06
00012:  MOVLB  0
00014:  MOVFF  FE9,0C
00018:  MOVFF  FEA,07
0001C:  MOVFF  FE1,08
00020:  MOVFF  FE2,09
00024:  MOVFF  FD9,0A
00028:  MOVFF  FDA,0B
0002C:  MOVFF  FF3,12
00030:  MOVFF  FF4,13
00034:  MOVFF  FFA,14
00038:  MOVFF  FFB,15
0003C:  MOVFF  00,0E
00040:  MOVFF  01,0F
00044:  MOVFF  02,10
00048:  MOVFF  03,11
0004C:  BTFSS  F9D.0
0004E:  GOTO   0058
00052:  BTFSC  F9E.0
00054:  GOTO   1322
00058:  MOVFF  0E,00
0005C:  MOVFF  0F,01
00060:  MOVFF  10,02
00064:  MOVFF  11,03
00068:  MOVFF  0C,FE9
0006C:  MOVFF  07,FEA
00070:  BSF    07.7
00072:  MOVFF  08,FE1
00076:  MOVFF  09,FE2
0007A:  MOVFF  0A,FD9
0007E:  MOVFF  0B,FDA
00082:  MOVFF  12,FF3
00086:  MOVFF  13,FF4
0008A:  MOVFF  14,FFA
0008E:  MOVFF  15,FFB
00092:  MOVF   04,W
00094:  MOVFF  06,FE0
00098:  MOVFF  05,FD8
0009C:  RETFIE 0
.................... //Programa para Cabina de Bioseguridad 
....................  
.................... #include <18F4685.h> 
.................... //////// Standard Header file for the PIC18F4685 device //////////////// 
.................... #device PIC18F4685 
.................... #list 
....................  
.................... #device adc=10 
.................... #fuses HS,NOWDT,NOPROTECT,NOLVP,NODEBUG,NOSTVREN,NOPUT,NOCPD,NOWRT,NOIESO,NOFCMEN,NOPBADEN,NOWRTC,NOWRTB,NOEBTR,NOEBTRB,NOCPB,NOXINST,,NOLPT1OSC,MCLR 
.................... #use delay(clock=20000000) 
*
01482:  MOVLW  05
01484:  MOVWF  FEA
01486:  MOVLW  D9
01488:  MOVWF  FE9
0148A:  MOVF   FEF,W
0148C:  BZ    14A8
0148E:  MOVLW  06
01490:  MOVWF  01
01492:  CLRF   00
01494:  DECFSZ 00,F
01496:  BRA    1494
01498:  DECFSZ 01,F
0149A:  BRA    1492
0149C:  MOVLW  7B
0149E:  MOVWF  00
014A0:  DECFSZ 00,F
014A2:  BRA    14A0
014A4:  DECFSZ FEF,F
014A6:  BRA    148E
014A8:  RETLW  00
*
049EC:  MOVLW  03
049EE:  MOVLB  5
049F0:  SUBWF  xD1,F
049F2:  BNC   4A08
049F4:  MOVLW  05
049F6:  MOVWF  FEA
049F8:  MOVLW  D1
049FA:  MOVWF  FE9
049FC:  MOVF   FEF,W
049FE:  BZ    4A08
04A00:  BRA    4A04
04A02:  BRA    4A04
04A04:  DECFSZ FEF,F
04A06:  BRA    4A02
04A08:  MOVLB  0
04A0A:  RETLW  00
.................... #include "HDM64GS12.c" 
.................... ///////////////////////////////////////////////////////////////////////// 
.................... ////                           HDM64GS12.c                           //// 
.................... ////                                                                 //// 
.................... //// This file contains drivers for using a Hantronix HDM64GS12 with //// 
.................... //// a KS0108 display controller. The HDM64GS12 is 128 by 64 pixels. //// 
.................... //// The driver treats the upper left pixel as (0,0).                //// 
.................... ////                                                                 //// 
.................... //// Use #define FAST_GLCD if the target chip has at least 1k of RAM //// 
.................... //// to decrease the time it takes to update the display.            //// 
.................... //// glcd_update() must then be called to update the display after   //// 
.................... //// changing the pixel information.                                 //// 
.................... //// See ex_glcd.c for suggested usage.                              //// 
.................... //// See KS0108.c for controlling a single 64 by 64 display          //// 
.................... ///////////////////////////////////////////////////////////////////////// 
.................... ////                                                                 //// 
.................... //// LCD Pin connections:                                            //// 
.................... //// (These can be changed as needed in the following defines).      //// 
.................... ////  * 1: VSS is connected to GND                                   //// 
.................... ////  * 2: VDD is connected to +5V                                   //// 
.................... ////  * 3: V0  - LCD operating voltage (Constrast adjustment)        //// 
.................... ////  * 4: D/I - Data or Instruction is connected to B2              //// 
.................... ////  * 5: R/W - Read or Write is connected to B4                    //// 
.................... ////  * 6: Enable is connected to B5                                 //// 
.................... ////  *7-14: Data Bus 0 to 7 is connected to port d                  //// 
.................... ////  *15: Chip Select 1 is connected to B0                          //// 
.................... ////  *16: Chip Select 2 is connected to B1                          //// 
.................... ////  *17: Reset is connected to C0                                  //// 
.................... ////  *18: Negative voltage is also connected to the 20k Ohm POT     //// 
.................... ////  *19: Positive voltage for LED backlight is connected to +5V    //// 
.................... ////  *20: Negavtive voltage for LED backlight is connected to GND   //// 
.................... ////                                                                 //// 
.................... ///////////////////////////////////////////////////////////////////////// 
.................... ////                                                                 //// 
.................... ////  glcd_init(mode)                                                //// 
.................... ////     * Must be called before any other function.                 //// 
.................... ////       - mode can be ON or OFF to turn the LCD on or off         //// 
.................... ////                                                                 //// 
.................... ////  glcd_pixel(x,y,color)                                          //// 
.................... ////     * Sets the pixel to the given color.                        //// 
.................... ////       - color can be ON or OFF                                  //// 
.................... ////                                                                 //// 
.................... ////  glcd_fillScreen(color)                                         //// 
.................... ////     * Fills the entire LCD with the given color.                //// 
.................... ////       - color can be ON or OFF                                  //// 
.................... ////                                                                 //// 
.................... ////  glcd_update()                                                  //// 
.................... ////     * Write the display data stored in RAM to the LCD           //// 
.................... ////     * Only available if FAST_GLCD is defined                    //// 
.................... ////                                                                 //// 
.................... ///////////////////////////////////////////////////////////////////////// 
.................... ////        (C) Copyright 1996, 2004 Custom Computer Services        //// 
.................... //// This source code may only be used by licensed users of the CCS  //// 
.................... //// C compiler.  This source code may only be distributed to other  //// 
.................... //// licensed users of the CCS C compiler.  No other use,            //// 
.................... //// reproduction or distribution is permitted without written       //// 
.................... //// permission.  Derivative programs created using this software    //// 
.................... //// in object code form are not restricted in any way.              //// 
.................... ///////////////////////////////////////////////////////////////////////// 
....................  
....................  
....................  
.................... #ifndef HDM64GS12 
.................... #define HDM64GS12 
....................  
.................... #ifndef FAST_GLCD 
.................... #define FAST_GLCD 
....................  
.................... #ifndef GLCD_WIDTH 
.................... #define GLCD_WIDTH   128 
.................... #endif 
....................  
.................... #ifndef GLCD_CS1 
.................... #define GLCD_CS1     PIN_B2   // Chip Selection 1 
.................... #endif 
....................  
.................... #ifndef GLCD_CS2 
.................... #define GLCD_CS2     PIN_B3   // Chip Selection 2 
.................... #endif 
....................  
.................... #ifndef GLCD_DI 
.................... #define GLCD_DI      PIN_B5   // Data or Instruction input 
.................... #endif 
....................  
.................... #ifndef GLCD_RW 
.................... #define GLCD_RW      PIN_B6   // Read/Write 
.................... #endif 
....................  
.................... #ifndef GLCD_E 
.................... #define GLCD_E       PIN_B7   // Enable 
.................... #endif 
....................  
.................... #ifndef GLCD_RST 
.................... #define GLCD_RST     PIN_B4   // Reset 
.................... #endif 
....................  
.................... #define GLCD_LEFT    0 
.................... #define GLCD_RIGHT   1 
....................  
.................... #ifndef ON 
.................... #define ON           1 
.................... #endif 
....................  
.................... #ifndef OFF 
.................... #define OFF          0 
.................... #endif 
....................  
.................... ///////////////////////////////////////////////////////////////////////// 
.................... // Function Prototypes 
.................... ///////////////////////////////////////////////////////////////////////// 
.................... void glcd_init(int1 mode); 
.................... void glcd_pixel(int8 x, int8 y, int1 color); 
.................... void glcd_fillScreen(int1 color); 
.................... void glcd_writeByte(int1 side, BYTE data); 
.................... BYTE glcd_readByte(int1 side); 
.................... void glcd_update(); 
.................... ///////////////////////////////////////////////////////////////////////// 
....................  
.................... #ifdef FAST_GLCD 
.................... struct 
.................... { 
....................    int8 left[512]; 
....................    int8 right[512]; 
.................... } displayData; 
.................... #endif 
....................  
....................  
.................... // Purpose:       Initialize the LCD. 
.................... //                Call before using any other LCD function. 
.................... // Inputs:        OFF - Turns the LCD off 
.................... //                ON  - Turns the LCD on 
.................... void glcd_init(int1 mode) 
.................... { 
....................    // Initialze some pins 
....................    output_high(GLCD_RST); 
*
0492C:  BCF    F93.4
0492E:  BSF    F8A.4
....................    output_low(GLCD_E); 
04930:  BCF    F93.7
04932:  BCF    F8A.7
....................    output_low(GLCD_CS1); 
04934:  BCF    F93.2
04936:  BCF    F8A.2
....................    output_low(GLCD_CS2); 
04938:  BCF    F93.3
0493A:  BCF    F8A.3
....................  
....................    output_low(GLCD_DI);                 // Set for instruction 
0493C:  BCF    F93.5
0493E:  BCF    F8A.5
....................    glcd_writeByte(GLCD_LEFT,  0xC0);    // Specify first RAM line at the top 
04940:  MOVLB  5
04942:  CLRF   xDF
04944:  MOVLW  C0
04946:  MOVWF  xE0
04948:  MOVLB  0
0494A:  CALL   2B5C
....................    glcd_writeByte(GLCD_RIGHT, 0xC0);    //   of the screen 
0494E:  MOVLW  01
04950:  MOVLB  5
04952:  MOVWF  xDF
04954:  MOVLW  C0
04956:  MOVWF  xE0
04958:  MOVLB  0
0495A:  CALL   2B5C
....................    glcd_writeByte(GLCD_LEFT,  0x40);    // Set the column address to 0 
0495E:  MOVLB  5
04960:  CLRF   xDF
04962:  MOVLW  40
04964:  MOVWF  xE0
04966:  MOVLB  0
04968:  CALL   2B5C
....................    glcd_writeByte(GLCD_RIGHT, 0x40); 
0496C:  MOVLW  01
0496E:  MOVLB  5
04970:  MOVWF  xDF
04972:  MOVLW  40
04974:  MOVWF  xE0
04976:  MOVLB  0
04978:  CALL   2B5C
....................    glcd_writeByte(GLCD_LEFT,  0xB8);    // Set the page address to 0 
0497C:  MOVLB  5
0497E:  CLRF   xDF
04980:  MOVLW  B8
04982:  MOVWF  xE0
04984:  MOVLB  0
04986:  CALL   2B5C
....................    glcd_writeByte(GLCD_RIGHT, 0xB8); 
0498A:  MOVLW  01
0498C:  MOVLB  5
0498E:  MOVWF  xDF
04990:  MOVLW  B8
04992:  MOVWF  xE0
04994:  MOVLB  0
04996:  CALL   2B5C
....................  
....................    if(mode == ON) 
0499A:  MOVLB  5
0499C:  DECFSZ xD0,W
0499E:  BRA    49C0
....................    { 
....................       glcd_writeByte(GLCD_LEFT,  0x3F); // Turn the display on 
049A0:  CLRF   xDF
049A2:  MOVLW  3F
049A4:  MOVWF  xE0
049A6:  MOVLB  0
049A8:  CALL   2B5C
....................       glcd_writeByte(GLCD_RIGHT, 0x3F); 
049AC:  MOVLW  01
049AE:  MOVLB  5
049B0:  MOVWF  xDF
049B2:  MOVLW  3F
049B4:  MOVWF  xE0
049B6:  MOVLB  0
049B8:  CALL   2B5C
....................    } 
....................    else 
049BC:  BRA    49DC
049BE:  MOVLB  5
....................    { 
....................       glcd_writeByte(GLCD_LEFT,  0x3E); // Turn the display off 
049C0:  CLRF   xDF
049C2:  MOVLW  3E
049C4:  MOVWF  xE0
049C6:  MOVLB  0
049C8:  CALL   2B5C
....................       glcd_writeByte(GLCD_RIGHT, 0x3E); 
049CC:  MOVLW  01
049CE:  MOVLB  5
049D0:  MOVWF  xDF
049D2:  MOVLW  3E
049D4:  MOVWF  xE0
049D6:  MOVLB  0
049D8:  CALL   2B5C
....................    } 
....................  
....................    glcd_fillScreen(OFF);                // Clear the display 
049DC:  MOVLB  5
049DE:  CLRF   xD8
049E0:  MOVLB  0
049E2:  CALL   3B52
....................  
....................    #ifdef FAST_GLCD 
....................    glcd_update(); 
049E6:  CALL   2B92
....................    #endif 
.................... } 
049EA:  RETLW  00
....................  
....................  
.................... // Purpose:    Update the LCD with data from the display arrays 
.................... #ifdef FAST_GLCD 
.................... void glcd_update() 
.................... { 
....................    int8 i, j; 
....................    int8 *p1, *p2; 
....................  
....................    p1 = displayData.left; 
*
02B92:  MOVLB  5
02B94:  CLRF   xDB
02B96:  MOVLW  17
02B98:  MOVWF  xDA
....................    p2 = displayData.right; 
02B9A:  MOVLW  02
02B9C:  MOVWF  xDD
02B9E:  MOVLW  17
02BA0:  MOVWF  xDC
....................  
....................    // Loop through the vertical pages 
....................    for(i = 0; i < 8; ++i) 
02BA2:  CLRF   xD8
02BA4:  MOVF   xD8,W
02BA6:  SUBLW  07
02BA8:  BNC   2C46
....................    { 
....................       output_low(GLCD_DI);                      // Set for instruction 
02BAA:  BCF    F93.5
02BAC:  BCF    F8A.5
....................       glcd_writeByte(GLCD_LEFT, 0x40);          // Set horizontal address to 0 
02BAE:  CLRF   xDF
02BB0:  MOVLW  40
02BB2:  MOVWF  xE0
02BB4:  MOVLB  0
02BB6:  RCALL  2B5C
....................       glcd_writeByte(GLCD_RIGHT, 0x40); 
02BB8:  MOVLW  01
02BBA:  MOVLB  5
02BBC:  MOVWF  xDF
02BBE:  MOVLW  40
02BC0:  MOVWF  xE0
02BC2:  MOVLB  0
02BC4:  RCALL  2B5C
....................       glcd_writeByte(GLCD_LEFT, i | 0xB8);      // Set page address 
02BC6:  MOVLB  5
02BC8:  MOVF   xD8,W
02BCA:  IORLW  B8
02BCC:  MOVWF  xDE
02BCE:  CLRF   xDF
02BD0:  MOVWF  xE0
02BD2:  MOVLB  0
02BD4:  RCALL  2B5C
....................       glcd_writeByte(GLCD_RIGHT, i | 0xB8); 
02BD6:  MOVLB  5
02BD8:  MOVF   xD8,W
02BDA:  IORLW  B8
02BDC:  MOVWF  xDE
02BDE:  MOVLW  01
02BE0:  MOVWF  xDF
02BE2:  MOVFF  5DE,5E0
02BE6:  MOVLB  0
02BE8:  RCALL  2B5C
....................       output_high(GLCD_DI);                     // Set for data 
02BEA:  BCF    F93.5
02BEC:  BSF    F8A.5
....................  
....................       // Loop through the horizontal sections 
....................       for(j = 0; j < 64; ++j) 
02BEE:  MOVLB  5
02BF0:  CLRF   xD9
02BF2:  MOVF   xD9,W
02BF4:  SUBLW  3F
02BF6:  BNC   2C42
....................       { 
....................          glcd_writeByte(GLCD_LEFT, *p1++);      // Turn pixels on or off 
02BF8:  MOVFF  5DB,03
02BFC:  MOVF   xDA,W
02BFE:  INCF   xDA,F
02C00:  BTFSC  FD8.2
02C02:  INCF   xDB,F
02C04:  MOVWF  FE9
02C06:  MOVFF  03,FEA
02C0A:  MOVFF  FEF,5DE
02C0E:  CLRF   xDF
02C10:  MOVFF  5DE,5E0
02C14:  MOVLB  0
02C16:  RCALL  2B5C
....................          glcd_writeByte(GLCD_RIGHT, *p2++);     // Turn pixels on or off 
02C18:  MOVLB  5
02C1A:  MOVFF  5DD,03
02C1E:  MOVF   xDC,W
02C20:  INCF   xDC,F
02C22:  BTFSC  FD8.2
02C24:  INCF   xDD,F
02C26:  MOVWF  FE9
02C28:  MOVFF  03,FEA
02C2C:  MOVFF  FEF,5DE
02C30:  MOVLW  01
02C32:  MOVWF  xDF
02C34:  MOVFF  5DE,5E0
02C38:  MOVLB  0
02C3A:  RCALL  2B5C
....................       } 
02C3C:  MOVLB  5
02C3E:  INCF   xD9,F
02C40:  BRA    2BF2
....................    } 
02C42:  INCF   xD8,F
02C44:  BRA    2BA4
.................... } 
02C46:  MOVLB  0
02C48:  RETLW  00
.................... #endif 
....................  
....................  
.................... // Purpose:    Turn a pixel on a graphic LCD on or off 
.................... // Inputs:     1) x - the x coordinate of the pixel 
.................... //             2) y - the y coordinate of the pixel 
.................... //             3) color - ON or OFF 
.................... void glcd_pixel(int8 x, int8 y, int1 color) 
.................... #ifdef FAST_GLCD 
.................... { 
....................    int8* p; 
....................    int16 temp; 
....................    temp =  y/8; 
*
0350E:  MOVLB  6
03510:  CLRF   x0A
03512:  RRCF   x05,W
03514:  MOVWF  x09
03516:  RRCF   x09,F
03518:  RRCF   x09,F
0351A:  MOVLW  1F
0351C:  ANDWF  x09,F
....................    temp *= 64; 
0351E:  RLCF   x09,F
03520:  RLCF   x0A,F
03522:  RLCF   x09,F
03524:  RLCF   x0A,F
03526:  RLCF   x09,F
03528:  RLCF   x0A,F
0352A:  RLCF   x09,F
0352C:  RLCF   x0A,F
0352E:  RLCF   x09,F
03530:  RLCF   x0A,F
03532:  RLCF   x09,F
03534:  RLCF   x0A,F
03536:  MOVLW  C0
03538:  ANDWF  x09,F
....................    temp += x; 
0353A:  MOVF   x04,W
0353C:  ADDWF  x09,F
0353E:  MOVLW  00
03540:  ADDWFC x0A,F
....................  
....................    if(x > 63) 
03542:  MOVF   x04,W
03544:  SUBLW  3F
03546:  BC    3562
....................    { 
....................       p = displayData.right + temp - 64; 
03548:  MOVLW  17
0354A:  ADDWF  x09,W
0354C:  MOVWF  x0B
0354E:  MOVLW  02
03550:  ADDWFC x0A,W
03552:  MOVWF  x0C
03554:  MOVLW  40
03556:  SUBWF  x0B,W
03558:  MOVWF  x07
0355A:  MOVLW  00
0355C:  SUBWFB x0C,W
0355E:  MOVWF  x08
....................    } 
....................    else 
03560:  BRA    356E
....................    { 
....................       p = displayData.left + temp; 
03562:  MOVLW  17
03564:  ADDWF  x09,W
03566:  MOVWF  x07
03568:  MOVLW  00
0356A:  ADDWFC x0A,W
0356C:  MOVWF  x08
....................    } 
....................  
....................    if(color) 
0356E:  MOVF   x06,F
03570:  BZ    359C
....................    { 
....................       bit_set(*p, y%8); 
03572:  MOVFF  608,03
03576:  MOVFF  607,FE9
0357A:  MOVFF  608,FEA
0357E:  MOVF   x05,W
03580:  ANDLW  07
03582:  MOVWF  x0B
03584:  MOVLW  01
03586:  MOVWF  00
03588:  MOVF   x0B,W
0358A:  MOVWF  01
0358C:  BZ    3596
0358E:  BCF    FD8.0
03590:  RLCF   00,F
03592:  DECFSZ 01,F
03594:  BRA    358E
03596:  MOVF   00,W
03598:  IORWF  FEF,F
....................    } 
....................    else 
0359A:  BRA    35C6
....................    { 
....................       bit_clear(*p, y%8); 
0359C:  MOVFF  608,03
035A0:  MOVFF  607,FE9
035A4:  MOVFF  608,FEA
035A8:  MOVF   x05,W
035AA:  ANDLW  07
035AC:  MOVWF  x0B
035AE:  MOVLW  01
035B0:  MOVWF  00
035B2:  MOVF   x0B,W
035B4:  MOVWF  01
035B6:  BZ    35C0
035B8:  BCF    FD8.0
035BA:  RLCF   00,F
035BC:  DECFSZ 01,F
035BE:  BRA    35B8
035C0:  MOVF   00,W
035C2:  XORLW  FF
035C4:  ANDWF  FEF,F
....................    } 
.................... } 
035C6:  MOVLB  0
035C8:  RETLW  00
.................... #else 
.................... { 
....................    BYTE data; 
....................    int1 side = GLCD_LEFT;  // Stores which chip to use on the LCD 
....................  
....................    if(x > 63)              // Check for first or second display area 
....................    { 
....................       x -= 64; 
....................       side = GLCD_RIGHT; 
....................    } 
....................  
....................    output_low(GLCD_DI);                         // Set for instruction 
....................    bit_clear(x,7);                              // Clear the MSB. Part of an instruction code 
....................    bit_set(x,6);                                // Set bit 6. Also part of an instruction code 
....................    glcd_writeByte(side, x);                     // Set the horizontal address 
....................    glcd_writeByte(side, (y/8 & 0xBF) | 0xB8);   // Set the vertical page address 
....................    output_high(GLCD_DI);                        // Set for data 
....................    glcd_readByte(side);                         // Need two reads to get data 
....................    data = glcd_readByte(side);                  //  at new address 
....................  
....................    if(color == ON) 
....................       bit_set(data, y%8);        // Turn the pixel on 
....................    else                          // or 
....................       bit_clear(data, y%8);      // turn the pixel off 
....................  
....................    output_low(GLCD_DI);          // Set for instruction 
....................    glcd_writeByte(side, x);      // Set the horizontal address 
....................    output_high(GLCD_DI);         // Set for data 
....................    glcd_writeByte(side, data);   // Write the pixel data 
.................... } 
.................... #endif 
....................  
....................  
.................... // Purpose:    Fill the LCD screen with the passed in color 
.................... // Inputs:     ON  - turn all the pixels on 
.................... //             OFF - turn all the pixels off 
.................... void glcd_fillScreen(int1 color) 
.................... #ifdef FAST_GLCD 
.................... { 
....................    int8  data; 
....................    int8  *p1, *p2; 
....................    int16 i; 
....................  
....................    p1 = displayData.left; 
*
03B52:  MOVLB  5
03B54:  CLRF   xDB
03B56:  MOVLW  17
03B58:  MOVWF  xDA
....................    p2 = displayData.right; 
03B5A:  MOVLW  02
03B5C:  MOVWF  xDD
03B5E:  MOVLW  17
03B60:  MOVWF  xDC
....................    data = 0xFF * color; 
03B62:  MOVF   xD8,W
03B64:  MULLW  FF
03B66:  MOVFF  FF3,5D9
....................  
....................    for(i=0; i<512; ++i) 
03B6A:  CLRF   xDF
03B6C:  CLRF   xDE
03B6E:  MOVF   xDF,W
03B70:  SUBLW  01
03B72:  BNC   3BA8
....................    { 
....................       *p1++ = data; 
03B74:  MOVFF  5DB,03
03B78:  MOVF   xDA,W
03B7A:  INCF   xDA,F
03B7C:  BTFSC  FD8.2
03B7E:  INCF   xDB,F
03B80:  MOVWF  FE9
03B82:  MOVFF  03,FEA
03B86:  MOVFF  5D9,FEF
....................       *p2++ = data; 
03B8A:  MOVFF  5DD,03
03B8E:  MOVF   xDC,W
03B90:  INCF   xDC,F
03B92:  BTFSC  FD8.2
03B94:  INCF   xDD,F
03B96:  MOVWF  FE9
03B98:  MOVFF  03,FEA
03B9C:  MOVFF  5D9,FEF
....................    } 
03BA0:  INCF   xDE,F
03BA2:  BTFSC  FD8.2
03BA4:  INCF   xDF,F
03BA6:  BRA    3B6E
.................... } 
03BA8:  MOVLB  0
03BAA:  RETLW  00
.................... #else 
.................... { 
....................    int8 i, j; 
....................  
....................    // Loop through the vertical pages 
....................    for(i = 0; i < 8; ++i) 
....................    { 
....................       output_low(GLCD_DI);                      // Set for instruction 
....................       glcd_writeByte(GLCD_LEFT, 0b01000000);    // Set horizontal address to 0 
....................       glcd_writeByte(GLCD_RIGHT, 0b01000000); 
....................       glcd_writeByte(GLCD_LEFT, i | 0b10111000);// Set page address 
....................       glcd_writeByte(GLCD_RIGHT, i | 0b10111000); 
....................       output_high(GLCD_DI);                     // Set for data 
....................  
....................       // Loop through the horizontal sections 
....................       for(j = 0; j < 64; ++j) 
....................       { 
....................          glcd_writeByte(GLCD_LEFT, 0xFF*color);  // Turn pixels on or off 
....................          glcd_writeByte(GLCD_RIGHT, 0xFF*color); // Turn pixels on or off 
....................       } 
....................    } 
.................... } 
.................... #endif 
....................  
....................  
.................... // Purpose:    Write a byte of data to the specified chip 
.................... // Inputs:     1) chipSelect - which chip to write the data to 
.................... //             2) data - the byte of data to write 
.................... void glcd_writeByte(int1 side, BYTE data) 
.................... { 
....................    if(side)                   // Choose which side to write to 
*
02B5C:  MOVLB  5
02B5E:  MOVF   xDF,F
02B60:  BZ    2B68
....................       output_high(GLCD_CS2); 
02B62:  BCF    F93.3
02B64:  BSF    F8A.3
....................    else 
02B66:  BRA    2B6C
....................       output_high(GLCD_CS1); 
02B68:  BCF    F93.2
02B6A:  BSF    F8A.2
....................  
....................    output_low(GLCD_RW);       // Set for writing 
02B6C:  BCF    F93.6
02B6E:  BCF    F8A.6
....................    output_d(data);            // Put the data on the port 
02B70:  CLRF   F95
02B72:  MOVFF  5E0,F8C
....................    delay_cycles(1); 
02B76:  NOP   
....................    output_high(GLCD_E);       // Pulse the enable pin 
02B78:  BCF    F93.7
02B7A:  BSF    F8A.7
....................    delay_cycles(5); 
02B7C:  BRA    2B7E
02B7E:  BRA    2B80
02B80:  NOP   
....................    output_low(GLCD_E); 
02B82:  BCF    F93.7
02B84:  BCF    F8A.7
....................  
....................    output_low(GLCD_CS1);      // Reset the chip select lines 
02B86:  BCF    F93.2
02B88:  BCF    F8A.2
....................    output_low(GLCD_CS2); 
02B8A:  BCF    F93.3
02B8C:  BCF    F8A.3
.................... } 
02B8E:  MOVLB  0
02B90:  RETLW  00
....................  
....................  
.................... // Purpose:    Reads a byte of data from the specified chip 
.................... // Ouputs:     A byte of data read from the chip 
.................... BYTE glcd_readByte(int1 side) 
.................... { 
....................    BYTE data;                 // Stores the data read from the LCD 
....................  
....................    set_tris_d(0xFF);          // Set port d to input 
....................    output_high(GLCD_RW);      // Set for reading 
....................  
....................    if(side)                   // Choose which side to write to 
....................       output_high(GLCD_CS2); 
....................    else 
....................       output_high(GLCD_CS1); 
....................  
....................    delay_cycles(1); 
....................    output_high(GLCD_E);       // Pulse the enable pin 
....................    delay_cycles(4); 
....................    data = input_d();          // Get the data from the display's output register 
....................    output_low(GLCD_E); 
....................  
....................    output_low(GLCD_CS1);      // Reset the chip select lines 
....................    output_low(GLCD_CS2); 
....................    return data;               // Return the read data 
.................... } 
....................  
.................... #endif 
....................  
.................... #include "GRAPHICS.c" 
.................... ///////////////////////////////////////////////////////////////////////// 
.................... ////                          graphics.c                             //// 
.................... ////                                                                 //// 
.................... ////   This file contains functions to draw lines, rectangles, bars, //// 
.................... ////   circles and text to a display. A function which draws a       //// 
.................... ////   single pixel must be defined before calling the functions in  //// 
.................... ////   this file. Call it glcd_pixel(x, y, color) where x is the     //// 
.................... ////   horizontal coordinate, y is the vertical coordinate, and      //// 
.................... ////   color is 1 bit to turn the pixel on or off.                   //// 
.................... ////                                                                 //// 
.................... ////   * Note: (0, 0) is treated as the upper left corner            //// 
.................... ////                                                                 //// 
.................... ///////////////////////////////////////////////////////////////////////// 
.................... ////                                                                 //// 
.................... ////  glcd_line(x1, y1, x2, y2, color)                               //// 
.................... ////     * Draws a line from the first point to the second point     //// 
.................... ////       with the given color                                      //// 
.................... ////       - color can be ON or OFF                                  //// 
.................... ////                                                                 //// 
.................... ////  glcd_rect(x1, y1, x2, y2, fill, color)                         //// 
.................... ////     * Draws a rectangle with one corner at point (x1,y1) and    //// 
.................... ////       the other corner at point (x2,y2)                         //// 
.................... ////       - fill can be YES or NO                                   //// 
.................... ////       - color can be ON or OFF                                  //// 
.................... ////                                                                 //// 
.................... ////  glcd_bar(x1, y1, x2, y2, width, color)                         //// 
.................... ////     * Draws a bar (wide line) from the first point to the       //// 
.................... ////       second point                                              //// 
.................... ////       - width is the number of pixels wide                      //// 
.................... ////       - color is ON or OFF                                      //// 
.................... ////                                                                 //// 
.................... ////  glcd_circle(x, y, radius, fill, color)                         //// 
.................... ////     * Draws a circle with center at (x,y)                       //// 
.................... ////       - fill can be YES or NO                                   //// 
.................... ////       - color can be ON or OFF                                  //// 
.................... ////                                                                 //// 
.................... ////  glcd_text57(x, y, textptr, size, color)                        //// 
.................... ////     * Write the null terminated text pointed to by textptr with //// 
.................... ////       the upper left coordinate of the first character at (x,y) //// 
.................... ////       Characters are 5 pixels wide and 7 pixels tall            //// 
.................... ////       - size is an integer that scales the size of the text     //// 
.................... ////       - color is ON or OFF                                      //// 
.................... ////     * Note - This function wraps characters to the next line    //// 
.................... ////              use #define GLCD_WIDTH to specify a display width  //// 
.................... ////                                                                 //// 
.................... ///////////////////////////////////////////////////////////////////////// 
.................... ////        (C) Copyright 1996, 2004 Custom Computer Services        //// 
.................... //// This source code may only be used by licensed users of the CCS  //// 
.................... //// C compiler.  This source code may only be distributed to other  //// 
.................... //// licensed users of the CCS C compiler.  No other use,            //// 
.................... //// reproduction or distribution is permitted without written       //// 
.................... //// permission.  Derivative programs created using this software    //// 
.................... //// in object code form are not restricted in any way.              //// 
.................... ///////////////////////////////////////////////////////////////////////// 
....................  
....................  
.................... ///////////////////////////////////////////////////////////////////////// 
.................... #ifndef GRAPHICS_DRAWING_FUNCTIONS 
.................... #define GRAPHICS_DRAWING_FUNCTIONS 
.................... ///////////////////////////////////////////////////////////////////////// 
....................  
....................  
.................... ///////////////////////////////////////////////////////////////////////// 
.................... #ifndef ON 
.................... #define ON  1 
.................... #endif 
....................  
.................... #ifndef OFF 
.................... #define OFF 0 
.................... #endif 
....................  
.................... #ifndef YES 
.................... #define YES 1 
.................... #endif 
....................  
.................... #ifndef NO 
.................... #define NO  0 
.................... #endif 
.................... ///////////////////////////////////////////////////////////////////////// 
....................  
....................  
.................... ///////////////////////////////////////////////////////////////////////// 
.................... //// Defines a 5x7 font 
.................... ///////////////////////////////////////////////////////////////////////// 
.................... const int8 FONT[51][5] ={0x00, 0x00, 0x00, 0x00, 0x00, // SPACE 
....................                          0x00, 0x00, 0x5F, 0x00, 0x00, // ! 
....................                          0x00, 0x03, 0x00, 0x03, 0x00, // " 
....................                          0x14, 0x3E, 0x14, 0x3E, 0x14, // # 
....................                          0x24, 0x2A, 0x7F, 0x2A, 0x12, // $ 
....................                          0x43, 0x33, 0x08, 0x66, 0x61, // % 
....................                          0x36, 0x49, 0x55, 0x22, 0x50, // & 
....................                          0x00, 0x05, 0x03, 0x00, 0x00, // ' 
....................                          0x00, 0x1C, 0x22, 0x41, 0x00, // ( 
....................                          0x00, 0x41, 0x22, 0x1C, 0x00, // ) 
....................                          0x14, 0x08, 0x3E, 0x08, 0x14, // * 
....................                          0x08, 0x08, 0x3E, 0x08, 0x08, // + 
....................                          0x00, 0x50, 0x30, 0x00, 0x00, // , 
....................                          0x08, 0x08, 0x08, 0x08, 0x08, // - 
....................                          0x00, 0x60, 0x60, 0x00, 0x00, // . 
....................                          0x20, 0x10, 0x08, 0x04, 0x02, // / 
....................                          0x3E, 0x51, 0x49, 0x45, 0x3E, // 0 
....................                          0x00, 0x04, 0x02, 0x7F, 0x00, // 1 
....................                          0x42, 0x61, 0x51, 0x49, 0x46, // 2 
....................                          0x22, 0x41, 0x49, 0x49, 0x36, // 3 
....................                          0x18, 0x14, 0x12, 0x7F, 0x10, // 4 
....................                          0x27, 0x45, 0x45, 0x45, 0x39, // 5 
....................                          0x3E, 0x49, 0x49, 0x49, 0x32, // 6 
....................                          0x01, 0x01, 0x71, 0x09, 0x07, // 7 
....................                          0x36, 0x49, 0x49, 0x49, 0x36, // 8 
....................                          0x26, 0x49, 0x49, 0x49, 0x3E, // 9 
....................                          0x00, 0x36, 0x36, 0x00, 0x00, // : 
....................                          0x00, 0x56, 0x36, 0x00, 0x00, // ; 
....................                          0x08, 0x14, 0x22, 0x41, 0x00, // < 
....................                          0x14, 0x14, 0x14, 0x14, 0x14, // = 
....................                          0x00, 0x41, 0x22, 0x14, 0x08, // > 
....................                          0x02, 0x01, 0x51, 0x09, 0x06, // ? 
....................                          0x3E, 0x41, 0x59, 0x55, 0x5E, // @ 
....................                          0x7E, 0x09, 0x09, 0x09, 0x7E, // A 
....................                          0x7F, 0x49, 0x49, 0x49, 0x36, // B 
....................                          0x3E, 0x41, 0x41, 0x41, 0x22, // C 
....................                          0x7F, 0x41, 0x41, 0x41, 0x3E, // D 
....................                          0x7F, 0x49, 0x49, 0x49, 0x41, // E 
....................                          0x7F, 0x09, 0x09, 0x09, 0x01, // F 
....................                          0x3E, 0x41, 0x41, 0x49, 0x3A, // G 
....................                          0x7F, 0x08, 0x08, 0x08, 0x7F, // H 
....................                          0x00, 0x41, 0x7F, 0x41, 0x00, // I 
....................                          0x30, 0x40, 0x40, 0x40, 0x3F, // J 
....................                          0x7F, 0x08, 0x14, 0x22, 0x41, // K 
....................                          0x7F, 0x40, 0x40, 0x40, 0x40, // L 
....................                          0x7F, 0x02, 0x0C, 0x02, 0x7F, // M 
....................                          0x7F, 0x02, 0x04, 0x08, 0x7F, // N 
....................                          0x3E, 0x41, 0x41, 0x41, 0x3E, // O 
....................                          0x7F, 0x09, 0x09, 0x09, 0x06, // P 
....................                          0x1E, 0x21, 0x21, 0x21, 0x5E, // Q 
....................                          0x7F, 0x09, 0x09, 0x09, 0x76};// R 
....................  
.................... const int8 FONT2[44][5]={0x26, 0x49, 0x49, 0x49, 0x32, // S 
....................                          0x01, 0x01, 0x7F, 0x01, 0x01, // T 
....................                          0x3F, 0x40, 0x40, 0x40, 0x3F, // U 
....................                          0x1F, 0x20, 0x40, 0x20, 0x1F, // V 
....................                          0x7F, 0x20, 0x10, 0x20, 0x7F, // W 
....................                          0x41, 0x22, 0x1C, 0x22, 0x41, // X 
....................                          0x07, 0x08, 0x70, 0x08, 0x07, // Y 
....................                          0x61, 0x51, 0x49, 0x45, 0x43, // Z 
....................                          0x00, 0x7F, 0x41, 0x00, 0x00, // [ 
....................                          0x02, 0x04, 0x08, 0x10, 0x20, // \ 
....................                          0x00, 0x00, 0x41, 0x7F, 0x00, // ] 
....................                          0x04, 0x02, 0x01, 0x02, 0x04, // ^ 
....................                          0x40, 0x40, 0x40, 0x40, 0x40, // _ 
....................                          0x00, 0x01, 0x02, 0x04, 0x00, // ` 
....................                          0x20, 0x54, 0x54, 0x54, 0x78, // a 
....................                          0x7F, 0x44, 0x44, 0x44, 0x38, // b 
....................                          0x38, 0x44, 0x44, 0x44, 0x44, // c 
....................                          0x38, 0x44, 0x44, 0x44, 0x7F, // d 
....................                          0x38, 0x54, 0x54, 0x54, 0x18, // e 
....................                          0x04, 0x04, 0x7E, 0x05, 0x05, // f 
....................                          0x08, 0x54, 0x54, 0x54, 0x3C, // g 
....................                          0x7F, 0x08, 0x04, 0x04, 0x78, // h 
....................                          0x00, 0x44, 0x7D, 0x40, 0x00, // i 
....................                          0x20, 0x40, 0x44, 0x3D, 0x00, // j 
....................                          0x7F, 0x10, 0x28, 0x44, 0x00, // k 
....................                          0x00, 0x41, 0x7F, 0x40, 0x00, // l 
....................                          0x7C, 0x04, 0x78, 0x04, 0x78, // m 
....................                          0x7C, 0x08, 0x04, 0x04, 0x78, // n 
....................                          0x38, 0x44, 0x44, 0x44, 0x38, // o 
....................                          0x7C, 0x14, 0x14, 0x14, 0x08, // p 
....................                          0x08, 0x14, 0x14, 0x14, 0x7C, // q 
....................                          0x00, 0x7C, 0x08, 0x04, 0x04, // r 
....................                          0x48, 0x54, 0x54, 0x54, 0x20, // s 
....................                          0x04, 0x04, 0x3F, 0x44, 0x44, // t 
....................                          0x3C, 0x40, 0x40, 0x20, 0x7C, // u 
....................                          0x1C, 0x20, 0x40, 0x20, 0x1C, // v 
....................                          0x3C, 0x40, 0x30, 0x40, 0x3C, // w 
....................                          0x44, 0x28, 0x10, 0x28, 0x44, // x 
....................                          0x0C, 0x50, 0x50, 0x50, 0x3C, // y 
....................                          0x44, 0x64, 0x54, 0x4C, 0x44, // z 
....................                          0x00, 0x08, 0x36, 0x41, 0x41, // { 
....................                          0x00, 0x00, 0x7F, 0x00, 0x00, // | 
....................                          0x41, 0x41, 0x36, 0x08, 0x00, // } 
....................                          0x02, 0x01, 0x02, 0x04, 0x02};// ~ 
.................... ///////////////////////////////////////////////////////////////////////// 
....................  
....................  
.................... ///////////////////////////////////////////////////////////////////////// 
.................... // Purpose:       Draw a line on a graphic LCD using Bresenham's 
.................... //                line drawing algorithm 
.................... // Inputs:        (x1, y1) - the start coordinate 
.................... //                (x2, y2) - the end coordinate 
.................... //                color - ON or OFF 
.................... // Dependencies:  glcd_pixel() 
.................... ///////////////////////////////////////////////////////////////////////// 
.................... #ifdef LARGE_LCD 
.................... void glcd_line(int16 x1, int16 y1, int16 x2, int16 y2, int1 color) 
.................... #else 
.................... void glcd_line(int8 x1, int8 y1, int8 x2, int8 y2, int1 color) 
.................... #endif 
.................... { 
*
035CA:  MOVLW  01
035CC:  MOVLB  5
035CE:  MOVWF  xFD
035D0:  MOVWF  xFE
035D2:  MOVLB  6
035D4:  CLRF   x03
....................    int16        dy, dx; 
....................    signed int8  addx=1, addy=1; 
....................    signed int16 P, diff; 
....................  
....................    #ifdef LARGE_LCD 
....................    int16 i=0; 
....................    dx = abs((signed int16)(x2 - x1)); 
....................    dy = abs((signed int16)(y2 - y1)); 
....................    #else 
....................    int8 i=0; 
....................    dx = abs((signed int8)(x2 - x1)); 
035D6:  MOVLB  5
035D8:  MOVF   xF4,W
035DA:  SUBWF  xF6,W
035DC:  MOVLB  6
035DE:  MOVWF  x04
035E0:  MOVF   x04,W
035E2:  BTFSS  x04.7
035E4:  BRA    35EC
035E6:  MOVLW  00
035E8:  BSF    FD8.0
035EA:  SUBFWB x04,W
035EC:  CLRF   03
035EE:  MOVLB  5
035F0:  MOVWF  xFB
035F2:  MOVFF  03,5FC
....................    dy = abs((signed int8)(y2 - y1)); 
035F6:  MOVF   xF5,W
035F8:  SUBWF  xF7,W
035FA:  MOVLB  6
035FC:  MOVWF  x04
035FE:  MOVF   x04,W
03600:  BTFSS  x04.7
03602:  BRA    360A
03604:  MOVLW  00
03606:  BSF    FD8.0
03608:  SUBFWB x04,W
0360A:  CLRF   03
0360C:  MOVLB  5
0360E:  MOVWF  xF9
03610:  MOVFF  03,5FA
....................    #endif 
....................  
....................    if(x1 > x2) 
03614:  MOVF   xF4,W
03616:  SUBWF  xF6,W
03618:  BC    361E
....................       addx = -1; 
0361A:  MOVLW  FF
0361C:  MOVWF  xFD
....................    if(y1 > y2) 
0361E:  MOVF   xF5,W
03620:  SUBWF  xF7,W
03622:  BC    3628
....................       addy = -1; 
03624:  MOVLW  FF
03626:  MOVWF  xFE
....................  
....................    if(dx >= dy) 
03628:  MOVF   xFA,W
0362A:  SUBWF  xFC,W
0362C:  BNC   36C4
0362E:  BNZ   3636
03630:  MOVF   xF9,W
03632:  SUBWF  xFB,W
03634:  BNC   36C4
....................    { 
....................       dy *= 2; 
03636:  BCF    FD8.0
03638:  RLCF   xF9,F
0363A:  RLCF   xFA,F
....................       P = dy - dx; 
0363C:  MOVF   xFB,W
0363E:  SUBWF  xF9,W
03640:  MOVWF  00
03642:  MOVF   xFC,W
03644:  SUBWFB xFA,W
03646:  MOVFF  00,5FF
0364A:  MOVFF  FE8,600
....................       diff = P - dx; 
0364E:  MOVF   xFB,W
03650:  SUBWF  xFF,W
03652:  MOVLB  6
03654:  MOVWF  x01
03656:  MOVLB  5
03658:  MOVF   xFC,W
0365A:  MOVLB  6
0365C:  SUBWFB x00,W
0365E:  MOVWF  x02
....................  
....................       for(; i<=dx; ++i) 
03660:  MOVLB  5
03662:  MOVF   xFC,F
03664:  BNZ   3670
03666:  MOVLB  6
03668:  MOVF   x03,W
0366A:  MOVLB  5
0366C:  SUBWF  xFB,W
0366E:  BNC   36C2
....................       { 
....................          glcd_pixel(x1, y1, color); 
03670:  MOVFF  5F4,604
03674:  MOVFF  5F5,605
03678:  MOVFF  5F8,606
0367C:  MOVLB  0
0367E:  RCALL  350E
....................  
....................          if(P < 0) 
03680:  MOVLB  6
03682:  BTFSC  x00.7
03684:  BRA    3688
03686:  BRA    36A0
....................          { 
....................             P  += dy; 
03688:  MOVLB  5
0368A:  MOVF   xF9,W
0368C:  ADDWF  xFF,F
0368E:  MOVF   xFA,W
03690:  MOVLB  6
03692:  ADDWFC x00,F
....................             x1 += addx; 
03694:  MOVLB  5
03696:  MOVF   xFD,W
03698:  ADDWF  xF4,W
0369A:  MOVWF  xF4
....................          } 
....................          else 
0369C:  BRA    36BA
0369E:  MOVLB  6
....................          { 
....................             P  += diff; 
036A0:  MOVF   x01,W
036A2:  MOVLB  5
036A4:  ADDWF  xFF,F
036A6:  MOVLB  6
036A8:  MOVF   x02,W
036AA:  ADDWFC x00,F
....................             x1 += addx; 
036AC:  MOVLB  5
036AE:  MOVF   xFD,W
036B0:  ADDWF  xF4,W
036B2:  MOVWF  xF4
....................             y1 += addy; 
036B4:  MOVF   xFE,W
036B6:  ADDWF  xF5,W
036B8:  MOVWF  xF5
....................          } 
....................       } 
036BA:  MOVLB  6
036BC:  INCF   x03,F
036BE:  BRA    3660
036C0:  MOVLB  5
....................    } 
....................    else 
036C2:  BRA    3750
....................    { 
....................       dx *= 2; 
036C4:  BCF    FD8.0
036C6:  RLCF   xFB,F
036C8:  RLCF   xFC,F
....................       P = dx - dy; 
036CA:  MOVF   xF9,W
036CC:  SUBWF  xFB,W
036CE:  MOVWF  00
036D0:  MOVF   xFA,W
036D2:  SUBWFB xFC,W
036D4:  MOVFF  00,5FF
036D8:  MOVFF  FE8,600
....................       diff = P - dy; 
036DC:  MOVF   xF9,W
036DE:  SUBWF  xFF,W
036E0:  MOVLB  6
036E2:  MOVWF  x01
036E4:  MOVLB  5
036E6:  MOVF   xFA,W
036E8:  MOVLB  6
036EA:  SUBWFB x00,W
036EC:  MOVWF  x02
....................  
....................       for(; i<=dy; ++i) 
036EE:  MOVLB  5
036F0:  MOVF   xFA,F
036F2:  BNZ   36FE
036F4:  MOVLB  6
036F6:  MOVF   x03,W
036F8:  MOVLB  5
036FA:  SUBWF  xF9,W
036FC:  BNC   3750
....................       { 
....................          glcd_pixel(x1, y1, color); 
036FE:  MOVFF  5F4,604
03702:  MOVFF  5F5,605
03706:  MOVFF  5F8,606
0370A:  MOVLB  0
0370C:  RCALL  350E
....................  
....................          if(P < 0) 
0370E:  MOVLB  6
03710:  BTFSC  x00.7
03712:  BRA    3716
03714:  BRA    372E
....................          { 
....................             P  += dx; 
03716:  MOVLB  5
03718:  MOVF   xFB,W
0371A:  ADDWF  xFF,F
0371C:  MOVF   xFC,W
0371E:  MOVLB  6
03720:  ADDWFC x00,F
....................             y1 += addy; 
03722:  MOVLB  5
03724:  MOVF   xFE,W
03726:  ADDWF  xF5,W
03728:  MOVWF  xF5
....................          } 
....................          else 
0372A:  BRA    3748
0372C:  MOVLB  6
....................          { 
....................             P  += diff; 
0372E:  MOVF   x01,W
03730:  MOVLB  5
03732:  ADDWF  xFF,F
03734:  MOVLB  6
03736:  MOVF   x02,W
03738:  ADDWFC x00,F
....................             x1 += addx; 
0373A:  MOVLB  5
0373C:  MOVF   xFD,W
0373E:  ADDWF  xF4,W
03740:  MOVWF  xF4
....................             y1 += addy; 
03742:  MOVF   xFE,W
03744:  ADDWF  xF5,W
03746:  MOVWF  xF5
....................          } 
....................       } 
03748:  MOVLB  6
0374A:  INCF   x03,F
0374C:  BRA    36EE
0374E:  MOVLB  5
....................    } 
.................... } 
03750:  MOVLB  0
03752:  RETLW  00
....................  
....................  
.................... ///////////////////////////////////////////////////////////////////////// 
.................... // Purpose:       Draw a rectangle on a graphic LCD 
.................... // Inputs:        (x1, y1) - the start coordinate 
.................... //                (x2, y2) - the end coordinate 
.................... //                fill  - YES or NO 
.................... //                color - ON or OFF 
.................... // Dependencies:  glcd_pixel(), glcd_line() 
.................... ///////////////////////////////////////////////////////////////////////// 
.................... #ifdef LARGE_LCD 
.................... void glcd_rect(int16 x1, int16 y1, int16 x2, int16 y2, int1 fill, int1 color) 
.................... #else 
.................... void glcd_rect(int8 x1, int8 y1, int8 x2, int8 y2, int1 fill, int1 color) 
.................... #endif 
.................... { 
....................    if(fill) 
03754:  MOVLB  5
03756:  MOVF   xED,F
03758:  BZ    37B6
....................    { 
....................       #ifdef LARGE_LCD 
....................       int16 i, xmin, xmax, ymin, ymax; 
....................       #else 
....................       int8  i, xmin, xmax, ymin, ymax; 
....................       #endif 
....................  
....................       if(x1 < x2)                            //  Find x min and max 
0375A:  MOVF   xEB,W
0375C:  SUBWF  xE9,W
0375E:  BC    376A
....................       { 
....................          xmin = x1; 
03760:  MOVFF  5E9,5F0
....................          xmax = x2; 
03764:  MOVFF  5EB,5F1
....................       } 
....................       else 
03768:  BRA    3772
....................       { 
....................          xmin = x2; 
0376A:  MOVFF  5EB,5F0
....................          xmax = x1; 
0376E:  MOVFF  5E9,5F1
....................       } 
....................  
....................       if(y1 < y2)                            // Find the y min and max 
03772:  MOVF   xEC,W
03774:  SUBWF  xEA,W
03776:  BC    3782
....................       { 
....................          ymin = y1; 
03778:  MOVFF  5EA,5F2
....................          ymax = y2; 
0377C:  MOVFF  5EC,5F3
....................       } 
....................       else 
03780:  BRA    378A
....................       { 
....................          ymin = y2; 
03782:  MOVFF  5EC,5F2
....................          ymax = y1; 
03786:  MOVFF  5EA,5F3
....................       } 
....................  
....................       for(; xmin <= xmax; ++xmin) 
0378A:  MOVF   xF0,W
0378C:  SUBWF  xF1,W
0378E:  BNC   37B4
....................       { 
....................          for(i=ymin; i<=ymax; ++i) 
03790:  MOVFF  5F2,5EF
03794:  MOVF   xEF,W
03796:  SUBWF  xF3,W
03798:  BNC   37B0
....................          { 
....................             glcd_pixel(xmin, i, color); 
0379A:  MOVFF  5F0,604
0379E:  MOVFF  5EF,605
037A2:  MOVFF  5EE,606
037A6:  MOVLB  0
037A8:  RCALL  350E
....................          } 
037AA:  MOVLB  5
037AC:  INCF   xEF,F
037AE:  BRA    3794
....................       } 
037B0:  INCF   xF0,F
037B2:  BRA    378A
....................    } 
....................    else 
037B4:  BRA    3812
....................    { 
....................       glcd_line(x1, y1, x2, y1, color);      // Draw the 4 sides 
037B6:  MOVFF  5E9,5F4
037BA:  MOVFF  5EA,5F5
037BE:  MOVFF  5EB,5F6
037C2:  MOVFF  5EA,5F7
037C6:  MOVFF  5EE,5F8
037CA:  MOVLB  0
037CC:  RCALL  35CA
....................       glcd_line(x1, y2, x2, y2, color); 
037CE:  MOVFF  5E9,5F4
037D2:  MOVFF  5EC,5F5
037D6:  MOVFF  5EB,5F6
037DA:  MOVFF  5EC,5F7
037DE:  MOVFF  5EE,5F8
037E2:  RCALL  35CA
....................       glcd_line(x1, y1, x1, y2, color); 
037E4:  MOVFF  5E9,5F4
037E8:  MOVFF  5EA,5F5
037EC:  MOVFF  5E9,5F6
037F0:  MOVFF  5EC,5F7
037F4:  MOVFF  5EE,5F8
037F8:  RCALL  35CA
....................       glcd_line(x2, y1, x2, y2, color); 
037FA:  MOVFF  5EB,5F4
037FE:  MOVFF  5EA,5F5
03802:  MOVFF  5EB,5F6
03806:  MOVFF  5EC,5F7
0380A:  MOVFF  5EE,5F8
0380E:  RCALL  35CA
03810:  MOVLB  5
....................    } 
.................... } 
03812:  MOVLB  0
03814:  RETLW  00
....................  
.................... ///////////////////////////////////////////////////////////////////////// 
.................... // Purpose:       Draw a bar (wide line) on a graphic LCD 
.................... // Inputs:        (x1, y1) - the start coordinate 
.................... //                (x2, y2) - the end coordinate 
.................... //                width  - The number of pixels wide 
.................... //                color - ON or OFF 
.................... ///////////////////////////////////////////////////////////////////////// 
.................... #ifdef LARGE_LCD 
.................... void glcd_bar(int16 x1, int16 y1, int16 x2, int16 y2, int8 width, int1 color) 
.................... #else 
.................... void glcd_bar(int8 x1, int8 y1, int8 x2, int8 y2, int8 width, int1 color) 
.................... #endif 
.................... { 
....................    int8         half_width; 
....................    signed int16 dy, dx; 
....................    signed int8  addx=1, addy=1, j; 
....................    signed int16 P, diff, c1, c2; 
....................  
....................    #ifdef LARGE_LCD 
....................    int16 i=0; 
....................    dx = abs((signed int16)(x2 - x1)); 
....................    dy = abs((signed int16)(y2 - y1)); 
....................    #else 
....................    int8 i=0; 
....................    dx = abs((signed int8)(x2 - x1)); 
....................    dy = abs((signed int8)(y2 - y1)); 
....................    #endif 
....................  
....................    half_width = width/2; 
....................    c1 = -(dx*x1 + dy*y1); 
....................    c2 = -(dx*x2 + dy*y2); 
....................  
....................    if(x1 > x2) 
....................    { 
....................       signed int16 temp; 
....................       temp = c1; 
....................       c1 = c2; 
....................       c2 = temp; 
....................       addx = -1; 
....................    } 
....................    if(y1 > y2) 
....................    { 
....................       signed int16 temp; 
....................       temp = c1; 
....................       c1 = c2; 
....................       c2 = temp; 
....................       addy = -1; 
....................    } 
....................  
....................    if(dx >= dy) 
....................    { 
....................       P = 2*dy - dx; 
....................       diff = P - dx; 
....................  
....................       for(i=0; i<=dx; ++i) 
....................       { 
....................          for(j=-half_width; j<half_width+width%2; ++j) 
....................          { 
....................             #ifdef LARGE_LCD 
....................             int16 temp; 
....................             #else 
....................             int8 temp; 
....................             #endif 
....................  
....................             temp = dx*x1+dy*(y1+j);    // Use more RAM to increase speed 
....................             if(temp+c1 >= 0 && temp+c2 <=0) 
....................                glcd_pixel(x1, y1+j, color); 
....................          } 
....................          if(P < 0) 
....................          { 
....................             P  += 2*dy; 
....................             x1 += addx; 
....................          } 
....................          else 
....................          { 
....................             P  += diff; 
....................             x1 += addx; 
....................             y1 += addy; 
....................          } 
....................       } 
....................    } 
....................    else 
....................    { 
....................       P = 2*dx - dy; 
....................       diff = P - dy; 
....................  
....................       for(i=0; i<=dy; ++i) 
....................       { 
....................          if(P < 0) 
....................          { 
....................             P  += 2*dx; 
....................             y1 += addy; 
....................          } 
....................          else 
....................          { 
....................             P  += diff; 
....................             x1 += addx; 
....................             y1 += addy; 
....................          } 
....................          for(j=-half_width; j<half_width+width%2; ++j) 
....................          { 
....................             #ifdef LARGE_LCD 
....................             int16 temp; 
....................             #else 
....................             int8 temp; 
....................             #endif 
....................  
....................             temp = dx*x1+dy*(y1+j);    // Use more RAM to increase speed 
....................             if(temp+c1 >= 0 && temp+c2 <=0) 
....................                glcd_pixel(x1+j, y1, color); 
....................          } 
....................       } 
....................    } 
.................... } 
....................  
....................  
.................... ///////////////////////////////////////////////////////////////////////// 
.................... // Purpose:       Draw a circle on a graphic LCD 
.................... // Inputs:        (x,y) - the center of the circle 
.................... //                radius - the radius of the circle 
.................... //                fill - YES or NO 
.................... //                color - ON or OFF 
.................... ///////////////////////////////////////////////////////////////////////// 
.................... #ifdef LARGE_LCD 
.................... void glcd_circle(int16 x, int16 y, int16 radius, int1 fill, int1 color) 
.................... #else 
.................... void glcd_circle(int8 x, int8 y, int8 radius, int1 fill, int1 color) 
.................... #endif 
.................... { 
....................    #ifdef LARGE_LCD 
....................    signed int16 a, b, P; 
....................    #else 
....................    signed int8  a, b, P; 
....................    #endif 
....................  
....................    a = 0; 
....................    b = radius; 
....................    P = 1 - radius; 
....................  
....................    do 
....................    { 
....................       if(fill) 
....................       { 
....................          glcd_line(x-a, y+b, x+a, y+b, color); 
....................          glcd_line(x-a, y-b, x+a, y-b, color); 
....................          glcd_line(x-b, y+a, x+b, y+a, color); 
....................          glcd_line(x-b, y-a, x+b, y-a, color); 
....................       } 
....................       else 
....................       { 
....................          glcd_pixel(a+x, b+y, color); 
....................          glcd_pixel(b+x, a+y, color); 
....................          glcd_pixel(x-a, b+y, color); 
....................          glcd_pixel(x-b, a+y, color); 
....................          glcd_pixel(b+x, y-a, color); 
....................          glcd_pixel(a+x, y-b, color); 
....................          glcd_pixel(x-a, y-b, color); 
....................          glcd_pixel(x-b, y-a, color); 
....................       } 
....................  
....................       if(P < 0) 
....................          P += 3 + 2 * a++; 
....................       else 
....................          P += 5 + 2 * (a++ - b--); 
....................     } while(a <= b); 
.................... } 
....................  
....................  
.................... ///////////////////////////////////////////////////////////////////////// 
.................... // Purpose:       Write text on a graphic LCD 
.................... // Inputs:        (x,y) - The upper left coordinate of the first letter 
.................... //                textptr - A pointer to an array of text to display 
.................... //                size - The size of the text: 1 = 5x7, 2 = 10x14, ... 
.................... //                color - ON or OFF 
.................... ///////////////////////////////////////////////////////////////////////// 
.................... #ifdef LARGE_LCD 
.................... void glcd_text57(int16 x, int16 y, char* textptr, int8 size, int1 color) 
.................... #else 
.................... void glcd_text57(int8 x, int8 y, char* textptr, int8 size, int1 color) 
.................... #endif 
.................... { 
....................    int8 j, k, l, m;                       // Loop counters 
....................    int8 pixelData[5];                     // Stores character data 
....................  
....................    for(; *textptr != '\0'; ++textptr, ++x)// Loop through the passed string 
03816:  MOVFF  5EC,03
0381A:  MOVLB  5
0381C:  MOVFF  5EB,FE9
03820:  MOVFF  5EC,FEA
03824:  MOVF   FEF,F
03826:  BTFSC  FD8.2
03828:  BRA    39CC
....................    { 
....................       if(*textptr < 'S') // Checks if the letter is in the first font array 
0382A:  MOVFF  5EC,03
0382E:  MOVFF  5EB,FE9
03832:  MOVFF  5EC,FEA
03836:  MOVF   FEF,W
03838:  SUBLW  52
0383A:  BNC   388A
....................          memcpy(pixelData, FONT[*textptr - ' '], 5); 
0383C:  MOVFF  5EC,03
03840:  MOVFF  5EB,FE9
03844:  MOVFF  5EC,FEA
03848:  MOVLW  20
0384A:  SUBWF  FEF,W
0384C:  MULLW  05
0384E:  MOVF   FF3,W
03850:  CLRF   03
03852:  MOVWF  xF8
03854:  MOVLW  05
03856:  MOVWF  FEA
03858:  MOVLW  F3
0385A:  MOVWF  FE9
0385C:  CLRF   xFC
0385E:  MOVFF  5F8,5FB
03862:  MOVFF  FF2,5F9
03866:  BCF    FF2.7
03868:  MOVLW  05
0386A:  MOVWF  01
0386C:  CLRF   FF7
0386E:  MOVF   xF8,W
03870:  MOVLB  0
03872:  CALL   009E
03876:  TBLRD*-
03878:  TBLRD*+
0387A:  MOVFF  FF5,FEE
0387E:  DECFSZ 01,F
03880:  BRA    3878
03882:  MOVLB  5
03884:  BTFSC  xF9.7
03886:  BSF    FF2.7
....................       else if(*textptr <= '~') // Check if the letter is in the second font array 
03888:  BRA    38F4
0388A:  MOVFF  5EC,03
0388E:  MOVFF  5EB,FE9
03892:  MOVFF  5EC,FEA
03896:  MOVF   FEF,W
03898:  SUBLW  7E
0389A:  BNC   38EA
....................          memcpy(pixelData, FONT2[*textptr - 'S'], 5); 
0389C:  MOVFF  5EC,03
038A0:  MOVFF  5EB,FE9
038A4:  MOVFF  5EC,FEA
038A8:  MOVLW  53
038AA:  SUBWF  FEF,W
038AC:  MULLW  05
038AE:  MOVF   FF3,W
038B0:  CLRF   03
038B2:  MOVWF  xF8
038B4:  MOVLW  05
038B6:  MOVWF  FEA
038B8:  MOVLW  F3
038BA:  MOVWF  FE9
038BC:  CLRF   xFC
038BE:  MOVFF  5F8,5FB
038C2:  MOVFF  FF2,5F9
038C6:  BCF    FF2.7
038C8:  MOVLW  05
038CA:  MOVWF  01
038CC:  CLRF   FF7
038CE:  MOVF   xF8,W
038D0:  MOVLB  0
038D2:  CALL   01BC
038D6:  TBLRD*-
038D8:  TBLRD*+
038DA:  MOVFF  FF5,FEE
038DE:  DECFSZ 01,F
038E0:  BRA    38D8
038E2:  MOVLB  5
038E4:  BTFSC  xF9.7
038E6:  BSF    FF2.7
....................       else 
038E8:  BRA    38F4
....................          memcpy(pixelData, FONT[0], 5);   // Default to space 
038EA:  CLRF   xF3
038EC:  CLRF   xF4
038EE:  CLRF   xF5
038F0:  CLRF   xF6
038F2:  CLRF   xF7
....................  
....................       // Handles newline and carriage returns 
....................       switch(*textptr) 
....................       { 
038F4:  MOVFF  5EC,03
038F8:  MOVF   xEB,W
038FA:  MOVWF  FE9
038FC:  MOVFF  03,FEA
03900:  MOVF   FEF,W
03902:  XORLW  0A
03904:  MOVLB  0
03906:  BZ    390E
03908:  XORLW  07
0390A:  BZ    391E
0390C:  BRA    3924
....................          case '\n': 
....................             y += 7*size + 1; 
0390E:  MOVLB  5
03910:  MOVF   xED,W
03912:  MULLW  07
03914:  MOVF   FF3,W
03916:  ADDLW  01
03918:  ADDWF  xEA,F
....................             continue; 
0391A:  BRA    39BE
0391C:  MOVLB  0
....................          case '\r': 
....................             x = 0; 
0391E:  MOVLB  5
03920:  CLRF   xE9
....................             continue; 
03922:  BRA    39BE
....................       } 
....................  
....................       if(x+5*size >= GLCD_WIDTH)          // Performs character wrapping 
03924:  MOVLB  5
03926:  MOVF   xED,W
03928:  MULLW  05
0392A:  MOVF   FF3,W
0392C:  ADDWF  xE9,W
0392E:  SUBLW  7F
03930:  BC    393E
....................       { 
....................          x = 0;                           // Set x at far left position 
03932:  CLRF   xE9
....................          y += 7*size + 1;                 // Set y at next position down 
03934:  MOVF   xED,W
03936:  MULLW  07
03938:  MOVF   FF3,W
0393A:  ADDLW  01
0393C:  ADDWF  xEA,F
....................       } 
....................       for(j=0; j<5; ++j, x+=size)         // Loop through character byte data 
0393E:  CLRF   xEF
03940:  MOVF   xEF,W
03942:  SUBLW  04
03944:  BNC   39BE
....................       { 
....................          for(k=0; k < 7; ++k)             // Loop through the vertical pixels 
03946:  CLRF   xF0
03948:  MOVF   xF0,W
0394A:  SUBLW  06
0394C:  BNC   39B6
....................          { 
....................             if(bit_test(pixelData[j], k)) // Check if the pixel should be set 
0394E:  CLRF   03
03950:  MOVF   xEF,W
03952:  ADDLW  F3
03954:  MOVWF  FE9
03956:  MOVLW  05
03958:  ADDWFC 03,W
0395A:  MOVWF  FEA
0395C:  MOVFF  FEF,5F8
03960:  MOVFF  5F8,00
03964:  MOVF   xF0,W
03966:  MOVWF  01
03968:  BZ    3972
0396A:  BCF    FD8.0
0396C:  RRCF   00,F
0396E:  DECFSZ 01,F
03970:  BRA    396A
03972:  BTFSS  00.0
03974:  BRA    39B2
....................             { 
....................                for(l=0; l < size; ++l)    // These two loops change the 
03976:  CLRF   xF1
03978:  MOVF   xED,W
0397A:  SUBWF  xF1,W
0397C:  BC    39B2
....................                {                          // character's size 
....................                   for(m=0; m < size; ++m) 
0397E:  CLRF   xF2
03980:  MOVF   xED,W
03982:  SUBWF  xF2,W
03984:  BC    39AE
....................                   { 
....................                      glcd_pixel(x+m, y+k*size+l, color); // Draws the pixel 
03986:  MOVF   xF2,W
03988:  ADDWF  xE9,W
0398A:  MOVWF  xF8
0398C:  MOVF   xF0,W
0398E:  MULWF  xED
03990:  MOVF   FF3,W
03992:  ADDWF  xEA,W
03994:  ADDWF  xF1,W
03996:  MOVWF  xF9
03998:  MOVFF  5F8,604
0399C:  MOVFF  FE8,605
039A0:  MOVFF  5EE,606
039A4:  MOVLB  0
039A6:  RCALL  350E
....................                   } 
039A8:  MOVLB  5
039AA:  INCF   xF2,F
039AC:  BRA    3980
....................                } 
039AE:  INCF   xF1,F
039B0:  BRA    3978
....................             } 
....................          } 
039B2:  INCF   xF0,F
039B4:  BRA    3948
....................       } 
039B6:  INCF   xEF,F
039B8:  MOVF   xED,W
039BA:  ADDWF  xE9,F
039BC:  BRA    3940
....................    } 
039BE:  INCF   xEB,F
039C0:  BTFSC  FD8.2
039C2:  INCF   xEC,F
039C4:  INCF   xE9,F
039C6:  MOVLB  0
039C8:  BRA    3816
039CA:  MOVLB  5
.................... } 
039CC:  MOVLB  0
039CE:  RETLW  00
....................  
.................... #endif 
....................  
.................... #include "imagen.h" 
.................... const int8 Bombillo [64][16] = { 
.................... 0x00, 0x00, 0x00, 0x00, 0x00, 0x00, 0x00, 0x00, 0x00, 0x00, 0x00, 0x00, 0x00, 0x00, 0x00, 0x00, 
.................... 0x00, 0x00, 0x00, 0x00, 0x00, 0x00, 0x00, 0x00, 0x00, 0x00, 0x00, 0x00, 0x00, 0x00, 0x00, 0x00, 
.................... 0x00, 0x00, 0x00, 0x00, 0x00, 0x00, 0x00, 0x00, 0x00, 0x00, 0x00, 0x00, 0x00, 0x00, 0x00, 0x00, 
.................... 0x00, 0x00, 0x00, 0x00, 0x00, 0x00, 0x00, 0x00, 0x00, 0x00, 0x00, 0x00, 0x00, 0x00, 0x00, 0x00, 
.................... 0x00, 0x00, 0x00, 0x00, 0x00, 0x00, 0x00, 0x00, 0x00, 0x00, 0x00, 0x00, 0x00, 0x00, 0x00, 0x00, 
.................... 0x00, 0x00, 0x00, 0x00, 0x00, 0x00, 0x00, 0x00, 0x00, 0x00, 0x00, 0x00, 0x00, 0x00, 0x00, 0x00, 
.................... 0x00, 0x00, 0x00, 0x00, 0x00, 0x00, 0x00, 0x00, 0x00, 0x00, 0x00, 0x00, 0x00, 0x00, 0x00, 0x00, 
.................... 0x00, 0x00, 0x00, 0x00, 0x00, 0x00, 0x00, 0x00, 0x00, 0x00, 0x00, 0x00, 0x00, 0x00, 0x00, 0x00, 
.................... 0x00, 0x00, 0x00, 0x00, 0x00, 0x00, 0x00, 0x00, 0x00, 0x00, 0x00, 0x00, 0x00, 0x00, 0x00, 0x00, 
.................... 0x00, 0x00, 0x00, 0x00, 0x00, 0x00, 0x00, 0x00, 0x00, 0x00, 0x00, 0x00, 0x00, 0x00, 0x00, 0x00, 
.................... 0x00, 0x00, 0x00, 0x00, 0x00, 0x00, 0x00, 0x00, 0x00, 0x00, 0x00, 0x00, 0x00, 0x00, 0x00, 0x00, 
.................... 0x00, 0x00, 0x00, 0x00, 0x00, 0x00, 0x00, 0x00, 0x00, 0x00, 0x00, 0x00, 0x00, 0x00, 0x00, 0x00, 
.................... 0x00, 0x00, 0x00, 0x00, 0x00, 0x00, 0x00, 0x00, 0x00, 0x00, 0x00, 0x00, 0x00, 0x00, 0x00, 0x00, 
.................... 0x00, 0x00, 0x00, 0x00, 0x00, 0x00, 0x00, 0x00, 0x00, 0x00, 0x00, 0x00, 0x00, 0x00, 0x00, 0x00, 
.................... 0x00, 0x00, 0x00, 0x00, 0x00, 0x00, 0x00, 0x00, 0x00, 0x00, 0x00, 0x00, 0x00, 0x00, 0x00, 0x00, 
.................... 0x00, 0x00, 0x00, 0x00, 0x00, 0x00, 0x00, 0x00, 0x00, 0x00, 0x00, 0x00, 0x00, 0x08, 0x00, 0x80, 
.................... 0x00, 0x00, 0x00, 0x00, 0x00, 0x00, 0x00, 0x00, 0x00, 0x00, 0x00, 0x00, 0x00, 0x04, 0x01, 0x00, 
.................... 0x00, 0x00, 0x00, 0x00, 0x00, 0x00, 0x00, 0x00, 0x00, 0x00, 0x00, 0x00, 0x00, 0x02, 0x02, 0x00, 
.................... 0x00, 0x00, 0x00, 0x00, 0x00, 0x00, 0x00, 0x00, 0x00, 0x00, 0x00, 0x00, 0x00, 0x00, 0x78, 0x00, 
.................... 0x00, 0x00, 0x00, 0x00, 0x00, 0x00, 0x00, 0x00, 0x00, 0x00, 0x00, 0x00, 0x00, 0x00, 0x84, 0x00, 
.................... 0x00, 0x00, 0x00, 0x00, 0x00, 0x00, 0x00, 0x00, 0x00, 0x00, 0x00, 0x00, 0x00, 0x01, 0x02, 0x00, 
.................... 0x00, 0x00, 0x00, 0x00, 0x00, 0x00, 0x00, 0x00, 0x00, 0x00, 0x00, 0x00, 0x00, 0xF9, 0x02, 0xF8, 
.................... 0x00, 0x00, 0x00, 0x00, 0x00, 0x00, 0x00, 0x00, 0x00, 0x00, 0x00, 0x00, 0x00, 0x01, 0x02, 0x00, 
.................... 0x00, 0x00, 0x00, 0x00, 0x00, 0x00, 0x00, 0x00, 0x00, 0x00, 0x00, 0x00, 0x00, 0x01, 0x02, 0x00, 
.................... 0x00, 0x00, 0x00, 0x00, 0x00, 0x00, 0x00, 0x00, 0x00, 0x00, 0x00, 0x00, 0x00, 0x04, 0x84, 0x80, 
.................... 0x00, 0x00, 0x00, 0x00, 0x00, 0x00, 0x00, 0x00, 0x00, 0x00, 0x00, 0x00, 0x00, 0x08, 0x78, 0x40, 
.................... 0x00, 0x00, 0x00, 0x00, 0x00, 0x00, 0x00, 0x00, 0x00, 0x00, 0x00, 0x00, 0x00, 0x10, 0x48, 0x20, 
.................... 0x00, 0x00, 0x00, 0x00, 0x00, 0x00, 0x00, 0x00, 0x00, 0x00, 0x00, 0x00, 0x00, 0x20, 0x48, 0x10, 
.................... 0x00, 0x00, 0x00, 0x00, 0x00, 0x00, 0x00, 0x00, 0x00, 0x00, 0x00, 0x00, 0x00, 0x00, 0x78, 0x00, 
.................... 0x00, 0x00, 0x00, 0x00, 0x00, 0x00, 0x00, 0x00, 0x00, 0x00, 0x00, 0x00, 0x00, 0x00, 0x00, 0x00, 
.................... 0x00, 0x00, 0x00, 0x00, 0x00, 0x00, 0x00, 0x00, 0x00, 0x00, 0x00, 0x00, 0x00, 0x00, 0x00, 0x00, 
.................... 0x00, 0x00, 0x00, 0x00, 0x00, 0x00, 0x00, 0x00, 0x00, 0x00, 0x00, 0x00, 0x00, 0x00, 0x00, 0x00, 
.................... 0x00, 0x00, 0x00, 0x00, 0x00, 0x00, 0x00, 0x00, 0x00, 0x00, 0x00, 0x00, 0x00, 0x00, 0x00, 0x00, 
.................... 0x00, 0x00, 0x00, 0x00, 0x00, 0x00, 0x00, 0x00, 0x00, 0x00, 0x00, 0x00, 0x00, 0x00, 0x00, 0x00, 
.................... 0x00, 0x00, 0x00, 0x00, 0x00, 0x00, 0x00, 0x00, 0x00, 0x00, 0x00, 0x00, 0x00, 0x00, 0x00, 0x00, 
.................... 0x00, 0x00, 0x00, 0x00, 0x00, 0x00, 0x00, 0x00, 0x00, 0x00, 0x00, 0x00, 0x00, 0x00, 0x00, 0x00, 
.................... 0x00, 0x00, 0x00, 0x00, 0x00, 0x00, 0x00, 0x00, 0x00, 0x00, 0x00, 0x00, 0x00, 0x00, 0x00, 0x00, 
.................... 0x00, 0x00, 0x00, 0x00, 0x00, 0x00, 0x00, 0x00, 0x00, 0x00, 0x00, 0x00, 0x00, 0x00, 0x00, 0x00, 
.................... 0x00, 0x00, 0x00, 0x00, 0x00, 0x00, 0x00, 0x00, 0x00, 0x00, 0x00, 0x00, 0x00, 0x00, 0x00, 0x00, 
.................... 0x00, 0x00, 0x00, 0x00, 0x00, 0x00, 0x00, 0x00, 0x00, 0x00, 0x00, 0x00, 0x00, 0x00, 0x00, 0x00, 
.................... 0x00, 0x00, 0x00, 0x00, 0x00, 0x00, 0x00, 0x00, 0x00, 0x00, 0x00, 0x00, 0x00, 0x00, 0x00, 0x00, 
.................... 0x00, 0x00, 0x00, 0x00, 0x00, 0x00, 0x00, 0x00, 0x00, 0x00, 0x00, 0x00, 0x00, 0x00, 0x00, 0x00, 
.................... 0x00, 0x00, 0x00, 0x00, 0x00, 0x00, 0x00, 0x00, 0x00, 0x00, 0x00, 0x00, 0x00, 0x00, 0x00, 0x00, 
.................... 0x00, 0x00, 0x00, 0x00, 0x00, 0x00, 0x00, 0x00, 0x00, 0x00, 0x00, 0x00, 0x00, 0x00, 0x00, 0x00, 
.................... 0x00, 0x00, 0x00, 0x00, 0x00, 0x00, 0x00, 0x00, 0x00, 0x00, 0x00, 0x00, 0x00, 0x00, 0x00, 0x00, 
.................... 0x00, 0x00, 0x00, 0x00, 0x00, 0x00, 0x00, 0x00, 0x00, 0x00, 0x00, 0x00, 0x00, 0x00, 0x00, 0x00, 
.................... 0x00, 0x00, 0x00, 0x00, 0x00, 0x00, 0x00, 0x00, 0x00, 0x00, 0x00, 0x00, 0x00, 0x00, 0x00, 0x00, 
.................... 0x00, 0x00, 0x00, 0x00, 0x00, 0x00, 0x00, 0x00, 0x00, 0x00, 0x00, 0x00, 0x00, 0x00, 0x00, 0x00, 
.................... 0x00, 0x00, 0x00, 0x00, 0x00, 0x00, 0x00, 0x00, 0x00, 0x00, 0x00, 0x00, 0x00, 0x00, 0x00, 0x00, 
.................... 0x00, 0x00, 0x00, 0x00, 0x00, 0x00, 0x00, 0x00, 0x00, 0x00, 0x00, 0x00, 0x00, 0x00, 0x00, 0x00, 
.................... 0x00, 0x00, 0x00, 0x00, 0x00, 0x00, 0x00, 0x00, 0x00, 0x00, 0x00, 0x00, 0x00, 0x00, 0x00, 0x00, 
.................... 0x00, 0x00, 0x00, 0x00, 0x00, 0x00, 0x00, 0x00, 0x00, 0x00, 0x00, 0x00, 0x00, 0x00, 0x00, 0x00, 
.................... 0x00, 0x00, 0x00, 0x00, 0x00, 0x00, 0x00, 0x00, 0x00, 0x00, 0x00, 0x00, 0x00, 0x00, 0x00, 0x00, 
.................... 0x00, 0x00, 0x00, 0x00, 0x00, 0x00, 0x00, 0x00, 0x00, 0x00, 0x00, 0x00, 0x00, 0x00, 0x00, 0x00, 
.................... 0x00, 0x00, 0x00, 0x00, 0x00, 0x00, 0x00, 0x00, 0x00, 0x00, 0x00, 0x00, 0x00, 0x00, 0x00, 0x00, 
.................... 0x00, 0x00, 0x00, 0x00, 0x00, 0x00, 0x00, 0x00, 0x00, 0x00, 0x00, 0x00, 0x00, 0x00, 0x00, 0x00, 
.................... 0x00, 0x00, 0x00, 0x00, 0x00, 0x00, 0x00, 0x00, 0x00, 0x00, 0x00, 0x00, 0x00, 0x00, 0x00, 0x00, 
.................... 0x00, 0x00, 0x00, 0x00, 0x00, 0x00, 0x00, 0x00, 0x00, 0x00, 0x00, 0x00, 0x00, 0x00, 0x00, 0x00, 
.................... 0x00, 0x00, 0x00, 0x00, 0x00, 0x00, 0x00, 0x00, 0x00, 0x00, 0x00, 0x00, 0x00, 0x00, 0x00, 0x00, 
.................... 0x00, 0x00, 0x00, 0x00, 0x00, 0x00, 0x00, 0x00, 0x00, 0x00, 0x00, 0x00, 0x00, 0x00, 0x00, 0x00, 
.................... 0x00, 0x00, 0x00, 0x00, 0x00, 0x00, 0x00, 0x00, 0x00, 0x00, 0x00, 0x00, 0x00, 0x00, 0x00, 0x00, 
.................... 0x00, 0x00, 0x00, 0x00, 0x00, 0x00, 0x00, 0x00, 0x00, 0x00, 0x00, 0x00, 0x00, 0x00, 0x00, 0x00, 
.................... 0x00, 0x00, 0x00, 0x00, 0x00, 0x00, 0x00, 0x00, 0x00, 0x00, 0x00, 0x00, 0x00, 0x00, 0x00, 0x00, 
.................... 0x00, 0x00, 0x00, 0x00, 0x00, 0x00, 0x00, 0x00, 0x00, 0x00, 0x00, 0x00, 0x00, 0x00, 0x00, 0x00 
.................... }; 
....................  
.................... const int8 Tomai [64][16] = { 
.................... 0x00, 0x00, 0x00, 0x00, 0x00, 0x00, 0x00, 0x00, 0x00, 0x00, 0x00, 0x00, 0x00, 0x00, 0x00, 0x00, 
.................... 0x00, 0x00, 0x00, 0x00, 0x00, 0x00, 0x00, 0x00, 0x00, 0x00, 0x00, 0x00, 0x00, 0x00, 0x00, 0x00, 
.................... 0x00, 0x00, 0x00, 0x00, 0x00, 0x00, 0x00, 0x00, 0x00, 0x00, 0x00, 0x00, 0x00, 0x00, 0x00, 0x00, 
.................... 0x00, 0x00, 0x00, 0x00, 0x00, 0x00, 0x00, 0x00, 0x00, 0x00, 0x00, 0x00, 0x00, 0x00, 0x00, 0x00, 
.................... 0x00, 0x00, 0x00, 0x00, 0x00, 0x00, 0x00, 0x00, 0x00, 0x00, 0x00, 0x00, 0x00, 0x00, 0x00, 0x00, 
.................... 0x00, 0x00, 0x00, 0x00, 0x00, 0x00, 0x00, 0x00, 0x00, 0x00, 0x00, 0x00, 0x00, 0x00, 0x00, 0x00, 
.................... 0x00, 0x00, 0x00, 0x00, 0x00, 0x00, 0x00, 0x00, 0x00, 0x00, 0x00, 0x00, 0x00, 0x00, 0x00, 0x00, 
.................... 0x00, 0x00, 0x00, 0x00, 0x00, 0x00, 0x00, 0x00, 0x00, 0x00, 0x00, 0x00, 0x00, 0x00, 0x00, 0x00, 
.................... 0x00, 0x00, 0x00, 0x00, 0x00, 0x00, 0x00, 0x00, 0x00, 0x00, 0x00, 0x00, 0x00, 0x00, 0x00, 0x00, 
.................... 0x00, 0x00, 0x00, 0x00, 0x00, 0x00, 0x00, 0x00, 0x00, 0x00, 0x00, 0x00, 0x00, 0x00, 0x00, 0x00, 
.................... 0x00, 0x00, 0x00, 0x00, 0x00, 0x00, 0x00, 0x00, 0x00, 0x00, 0x00, 0x00, 0x00, 0x00, 0x00, 0x00, 
.................... 0x00, 0x00, 0x00, 0x00, 0x00, 0x00, 0x00, 0x00, 0x00, 0x00, 0x00, 0x00, 0x00, 0x00, 0x00, 0x00, 
.................... 0x00, 0x00, 0x00, 0x00, 0x00, 0x00, 0x00, 0x00, 0x00, 0x00, 0x00, 0x00, 0x00, 0x00, 0x00, 0x00, 
.................... 0x00, 0x00, 0x00, 0x00, 0x00, 0x00, 0x00, 0x00, 0x00, 0x00, 0x00, 0x00, 0x00, 0x00, 0x00, 0x00, 
.................... 0x00, 0x00, 0x00, 0x00, 0x00, 0x00, 0x00, 0x00, 0x00, 0x00, 0x00, 0x00, 0x00, 0x00, 0x00, 0x00, 
.................... 0x00, 0x00, 0x00, 0x00, 0x00, 0x00, 0x00, 0x00, 0x00, 0x00, 0x00, 0x00, 0x00, 0x00, 0x00, 0x00, 
.................... 0x00, 0x00, 0x00, 0x00, 0x00, 0x00, 0x00, 0x00, 0x00, 0x00, 0x00, 0x00, 0x00, 0x00, 0x00, 0x00, 
.................... 0x00, 0x00, 0x00, 0x00, 0x00, 0x00, 0x00, 0x00, 0x00, 0x00, 0x00, 0x00, 0x00, 0x00, 0x00, 0x00, 
.................... 0x00, 0x00, 0x00, 0x00, 0x00, 0x00, 0x00, 0x00, 0x00, 0x00, 0x00, 0x00, 0x00, 0x00, 0x00, 0x00, 
.................... 0x00, 0x00, 0x00, 0x00, 0x00, 0x00, 0x00, 0x00, 0x00, 0x00, 0x00, 0x00, 0x00, 0x00, 0x00, 0x00, 
.................... 0x00, 0x00, 0x00, 0x00, 0x00, 0x00, 0x00, 0x00, 0x00, 0x00, 0x00, 0x00, 0x00, 0x00, 0x00, 0x00, 
.................... 0x00, 0x00, 0x00, 0x00, 0x00, 0x00, 0x00, 0x00, 0x00, 0x00, 0x00, 0x00, 0x00, 0x00, 0x00, 0x00, 
.................... 0x00, 0x00, 0x00, 0x00, 0x00, 0x00, 0x00, 0x00, 0x00, 0x00, 0x00, 0x00, 0x00, 0x00, 0x00, 0x00, 
.................... 0x00, 0x00, 0x00, 0x00, 0x00, 0x00, 0x00, 0x00, 0x00, 0x00, 0x00, 0x00, 0x00, 0x00, 0x00, 0x00, 
.................... 0x00, 0x00, 0x00, 0x00, 0x00, 0x00, 0x00, 0x00, 0x00, 0x00, 0x00, 0x00, 0x00, 0x00, 0x00, 0x00, 
.................... 0x00, 0x00, 0x00, 0x00, 0x00, 0x00, 0x00, 0x00, 0x00, 0x00, 0x00, 0x00, 0x00, 0x00, 0x00, 0x00, 
.................... 0x00, 0x00, 0x00, 0x00, 0x00, 0x00, 0x00, 0x00, 0x00, 0x00, 0x00, 0x00, 0x00, 0x00, 0x00, 0x00, 
.................... 0x00, 0x00, 0x00, 0x00, 0x00, 0x00, 0x00, 0x00, 0x00, 0x00, 0x00, 0x00, 0x00, 0x00, 0x00, 0x00, 
.................... 0x00, 0x00, 0x00, 0x00, 0x00, 0x00, 0x00, 0x00, 0x00, 0x00, 0x00, 0x00, 0x00, 0x00, 0x00, 0x00, 
.................... 0x00, 0x00, 0x00, 0x00, 0x00, 0x00, 0x00, 0x00, 0x00, 0x00, 0x00, 0x00, 0x00, 0x00, 0x00, 0x00, 
.................... 0x00, 0x00, 0x00, 0x00, 0x00, 0x00, 0x00, 0x00, 0x00, 0x00, 0x00, 0x00, 0x00, 0x7F, 0xFF, 0xF8, 
.................... 0x00, 0x00, 0x00, 0x00, 0x00, 0x00, 0x00, 0x00, 0x00, 0x00, 0x00, 0x00, 0x00, 0x40, 0x00, 0x08, 
.................... 0x00, 0x00, 0x00, 0x00, 0x00, 0x00, 0x00, 0x00, 0x00, 0x00, 0x00, 0x00, 0x00, 0x47, 0x03, 0x88, 
.................... 0x00, 0x00, 0x00, 0x00, 0x00, 0x00, 0x00, 0x00, 0x00, 0x00, 0x00, 0x00, 0x00, 0x45, 0x02, 0x88, 
.................... 0x00, 0x00, 0x00, 0x00, 0x00, 0x00, 0x00, 0x00, 0x00, 0x00, 0x00, 0x00, 0x00, 0x45, 0x02, 0x88, 
.................... 0x00, 0x00, 0x00, 0x00, 0x00, 0x00, 0x00, 0x00, 0x00, 0x00, 0x00, 0x00, 0x00, 0x45, 0x02, 0x88, 
.................... 0x00, 0x00, 0x00, 0x00, 0x00, 0x00, 0x00, 0x00, 0x00, 0x00, 0x00, 0x00, 0x00, 0x45, 0x02, 0x88, 
.................... 0x00, 0x00, 0x00, 0x00, 0x00, 0x00, 0x00, 0x00, 0x00, 0x00, 0x00, 0x00, 0x00, 0x47, 0x03, 0x88, 
.................... 0x00, 0x00, 0x00, 0x00, 0x00, 0x00, 0x00, 0x00, 0x00, 0x00, 0x00, 0x00, 0x00, 0x40, 0x00, 0x08, 
.................... 0x00, 0x00, 0x00, 0x00, 0x00, 0x00, 0x00, 0x00, 0x00, 0x00, 0x00, 0x00, 0x00, 0x40, 0xFC, 0x08, 
.................... 0x00, 0x00, 0x00, 0x00, 0x00, 0x00, 0x00, 0x00, 0x00, 0x00, 0x00, 0x00, 0x00, 0x40, 0x84, 0x08, 
.................... 0x00, 0x00, 0x00, 0x00, 0x00, 0x00, 0x00, 0x00, 0x00, 0x00, 0x00, 0x00, 0x00, 0x40, 0x84, 0x08, 
.................... 0x00, 0x00, 0x00, 0x00, 0x00, 0x00, 0x00, 0x00, 0x00, 0x00, 0x00, 0x00, 0x00, 0x40, 0xFC, 0x08, 
.................... 0x00, 0x00, 0x00, 0x00, 0x00, 0x00, 0x00, 0x00, 0x00, 0x00, 0x00, 0x00, 0x00, 0x40, 0x00, 0x08, 
.................... 0x00, 0x00, 0x00, 0x00, 0x00, 0x00, 0x00, 0x00, 0x00, 0x00, 0x00, 0x00, 0x00, 0x7F, 0xFF, 0xF8, 
.................... 0x00, 0x00, 0x00, 0x00, 0x00, 0x00, 0x00, 0x00, 0x00, 0x00, 0x00, 0x00, 0x00, 0x00, 0x00, 0x00, 
.................... 0x00, 0x00, 0x00, 0x00, 0x00, 0x00, 0x00, 0x00, 0x00, 0x00, 0x00, 0x00, 0x00, 0x00, 0x00, 0x00, 
.................... 0x00, 0x00, 0x00, 0x00, 0x00, 0x00, 0x00, 0x00, 0x00, 0x00, 0x00, 0x00, 0x00, 0x00, 0x00, 0x00, 
.................... 0x00, 0x00, 0x00, 0x00, 0x00, 0x00, 0x00, 0x00, 0x00, 0x00, 0x00, 0x00, 0x00, 0x00, 0x00, 0x00, 
.................... 0x00, 0x00, 0x00, 0x00, 0x00, 0x00, 0x00, 0x00, 0x00, 0x00, 0x00, 0x00, 0x00, 0x00, 0x00, 0x00, 
.................... 0x00, 0x00, 0x00, 0x00, 0x00, 0x00, 0x00, 0x00, 0x00, 0x00, 0x00, 0x00, 0x00, 0x00, 0x00, 0x00, 
.................... 0x00, 0x00, 0x00, 0x00, 0x00, 0x00, 0x00, 0x00, 0x00, 0x00, 0x00, 0x00, 0x00, 0x00, 0x00, 0x00, 
.................... 0x00, 0x00, 0x00, 0x00, 0x00, 0x00, 0x00, 0x00, 0x00, 0x00, 0x00, 0x00, 0x00, 0x00, 0x00, 0x00, 
.................... 0x00, 0x00, 0x00, 0x00, 0x00, 0x00, 0x00, 0x00, 0x00, 0x00, 0x00, 0x00, 0x00, 0x00, 0x00, 0x00, 
.................... 0x00, 0x00, 0x00, 0x00, 0x00, 0x00, 0x00, 0x00, 0x00, 0x00, 0x00, 0x00, 0x00, 0x00, 0x00, 0x00, 
.................... 0x00, 0x00, 0x00, 0x00, 0x00, 0x00, 0x00, 0x00, 0x00, 0x00, 0x00, 0x00, 0x00, 0x00, 0x00, 0x00, 
.................... 0x00, 0x00, 0x00, 0x00, 0x00, 0x00, 0x00, 0x00, 0x00, 0x00, 0x00, 0x00, 0x00, 0x00, 0x00, 0x00, 
.................... 0x00, 0x00, 0x00, 0x00, 0x00, 0x00, 0x00, 0x00, 0x00, 0x00, 0x00, 0x00, 0x00, 0x00, 0x00, 0x00, 
.................... 0x00, 0x00, 0x00, 0x00, 0x00, 0x00, 0x00, 0x00, 0x00, 0x00, 0x00, 0x00, 0x00, 0x00, 0x00, 0x00, 
.................... 0x00, 0x00, 0x00, 0x00, 0x00, 0x00, 0x00, 0x00, 0x00, 0x00, 0x00, 0x00, 0x00, 0x00, 0x00, 0x00, 
.................... 0x00, 0x00, 0x00, 0x00, 0x00, 0x00, 0x00, 0x00, 0x00, 0x00, 0x00, 0x00, 0x00, 0x00, 0x00, 0x00, 
.................... 0x00, 0x00, 0x00, 0x00, 0x00, 0x00, 0x00, 0x00, 0x00, 0x00, 0x00, 0x00, 0x00, 0x00, 0x00, 0x00, 
.................... 0x00, 0x00, 0x00, 0x00, 0x00, 0x00, 0x00, 0x00, 0x00, 0x00, 0x00, 0x00, 0x00, 0x00, 0x00, 0x00, 
.................... 0x00, 0x00, 0x00, 0x00, 0x00, 0x00, 0x00, 0x00, 0x00, 0x00, 0x00, 0x00, 0x00, 0x00, 0x00, 0x00 
.................... }; 
....................  
.................... const int8 Ventilador [64][16] = { 
.................... 0x00, 0x00, 0x00, 0x00, 0x00, 0x00, 0x00, 0x00, 0x00, 0x00, 0x00, 0x00, 0x00, 0x00, 0x00, 0x00, 
.................... 0x00, 0x00, 0x00, 0x00, 0x00, 0x00, 0x00, 0x00, 0x00, 0x00, 0x00, 0x00, 0x00, 0x00, 0x00, 0x00, 
.................... 0x00, 0x00, 0x00, 0x00, 0x00, 0x00, 0x00, 0x00, 0x00, 0x00, 0x00, 0x00, 0x00, 0x00, 0x00, 0x00, 
.................... 0x00, 0x00, 0x00, 0x00, 0x00, 0x00, 0x00, 0x00, 0x00, 0x00, 0x00, 0x00, 0x00, 0x00, 0x00, 0x00, 
.................... 0x00, 0x00, 0x00, 0x00, 0x00, 0x00, 0x00, 0x00, 0x00, 0x00, 0x00, 0x00, 0x00, 0x00, 0x00, 0x00, 
.................... 0x00, 0x00, 0x00, 0x00, 0x00, 0x00, 0x00, 0x00, 0x00, 0x00, 0x00, 0x00, 0x00, 0x00, 0x00, 0x00, 
.................... 0x00, 0x00, 0x00, 0x00, 0x00, 0x00, 0x00, 0x00, 0x00, 0x00, 0x00, 0x00, 0x00, 0x00, 0x00, 0x00, 
.................... 0x00, 0x00, 0x00, 0x00, 0x00, 0x00, 0x00, 0x00, 0x00, 0x00, 0x00, 0x00, 0x00, 0x00, 0x00, 0x00, 
.................... 0x00, 0x00, 0x00, 0x00, 0x00, 0x00, 0x00, 0x00, 0x00, 0x00, 0x00, 0x00, 0x00, 0x00, 0x00, 0x00, 
.................... 0x00, 0x00, 0x00, 0x00, 0x00, 0x00, 0x00, 0x00, 0x00, 0x00, 0x00, 0x00, 0x00, 0x00, 0x00, 0x00, 
.................... 0x00, 0x00, 0x00, 0x00, 0x00, 0x00, 0x00, 0x00, 0x00, 0x00, 0x00, 0x00, 0x00, 0x00, 0x00, 0x00, 
.................... 0x00, 0x00, 0x00, 0x00, 0x00, 0x00, 0x00, 0x00, 0x00, 0x00, 0x00, 0x00, 0x00, 0x00, 0x00, 0x00, 
.................... 0x00, 0x00, 0x00, 0x00, 0x00, 0x00, 0x00, 0x00, 0x00, 0x00, 0x00, 0x00, 0x00, 0x00, 0x00, 0x00, 
.................... 0x00, 0x00, 0x00, 0x00, 0x00, 0x00, 0x00, 0x00, 0x00, 0x00, 0x00, 0x00, 0x00, 0x00, 0x00, 0x00, 
.................... 0x00, 0x00, 0x00, 0x00, 0x00, 0x00, 0x00, 0x00, 0x00, 0x00, 0x00, 0x00, 0x00, 0x00, 0x00, 0x00, 
.................... 0x00, 0x00, 0x00, 0x00, 0x00, 0x00, 0x00, 0x00, 0x00, 0x00, 0x00, 0x00, 0x00, 0x00, 0x00, 0x00, 
.................... 0x00, 0x00, 0x00, 0x00, 0x00, 0x00, 0x00, 0x00, 0x00, 0x00, 0x00, 0x00, 0x00, 0x00, 0x00, 0x00, 
.................... 0x00, 0x00, 0x00, 0x00, 0x00, 0x00, 0x00, 0x00, 0x00, 0x00, 0x00, 0x00, 0x00, 0x00, 0x00, 0x00, 
.................... 0x00, 0x00, 0x00, 0x00, 0x00, 0x00, 0x00, 0x00, 0x00, 0x00, 0x00, 0x00, 0x00, 0x00, 0x00, 0x00, 
.................... 0x00, 0x00, 0x00, 0x00, 0x00, 0x00, 0x00, 0x00, 0x00, 0x00, 0x00, 0x00, 0x00, 0x00, 0x00, 0x00, 
.................... 0x00, 0x00, 0x00, 0x00, 0x00, 0x00, 0x00, 0x00, 0x00, 0x00, 0x00, 0x00, 0x00, 0x00, 0x00, 0x00, 
.................... 0x00, 0x00, 0x00, 0x00, 0x00, 0x00, 0x00, 0x00, 0x00, 0x00, 0x00, 0x00, 0x00, 0x00, 0x00, 0x00, 
.................... 0x00, 0x00, 0x00, 0x00, 0x00, 0x00, 0x00, 0x00, 0x00, 0x00, 0x00, 0x00, 0x00, 0x00, 0x00, 0x00, 
.................... 0x00, 0x00, 0x00, 0x00, 0x00, 0x00, 0x00, 0x00, 0x00, 0x00, 0x00, 0x00, 0x00, 0x00, 0x00, 0x00, 
.................... 0x00, 0x00, 0x00, 0x00, 0x00, 0x00, 0x00, 0x00, 0x00, 0x00, 0x00, 0x00, 0x00, 0x00, 0x00, 0x00, 
.................... 0x00, 0x00, 0x00, 0x00, 0x00, 0x00, 0x00, 0x00, 0x00, 0x00, 0x00, 0x00, 0x00, 0x00, 0x00, 0x00, 
.................... 0x00, 0x00, 0x00, 0x00, 0x00, 0x00, 0x00, 0x00, 0x00, 0x00, 0x00, 0x00, 0x00, 0x00, 0x00, 0x00, 
.................... 0x00, 0x00, 0x00, 0x00, 0x00, 0x00, 0x00, 0x00, 0x00, 0x00, 0x00, 0x00, 0x00, 0x00, 0x00, 0x00, 
.................... 0x00, 0x00, 0x00, 0x00, 0x00, 0x00, 0x00, 0x00, 0x00, 0x00, 0x00, 0x00, 0x00, 0x00, 0x00, 0x00, 
.................... 0x00, 0x00, 0x00, 0x00, 0x00, 0x00, 0x00, 0x00, 0x00, 0x00, 0x00, 0x00, 0x00, 0x00, 0x00, 0x00, 
.................... 0x00, 0x00, 0x00, 0x00, 0x00, 0x00, 0x00, 0x00, 0x00, 0x00, 0x00, 0x00, 0x00, 0x00, 0x00, 0x00, 
.................... 0x00, 0x00, 0x00, 0x00, 0x00, 0x00, 0x00, 0x00, 0x00, 0x00, 0x00, 0x00, 0x00, 0x00, 0x00, 0x00, 
.................... 0x00, 0x00, 0x00, 0x00, 0x00, 0x00, 0x00, 0x00, 0x00, 0x00, 0x00, 0x00, 0x00, 0x00, 0x00, 0x00, 
.................... 0x00, 0x00, 0x00, 0x00, 0x00, 0x00, 0x00, 0x00, 0x00, 0x00, 0x00, 0x00, 0x00, 0x00, 0x00, 0x00, 
.................... 0x00, 0x00, 0x00, 0x00, 0x00, 0x00, 0x00, 0x00, 0x00, 0x00, 0x00, 0x00, 0x00, 0x00, 0x00, 0x00, 
.................... 0x00, 0x00, 0x00, 0x00, 0x00, 0x00, 0x00, 0x00, 0x00, 0x00, 0x00, 0x00, 0x00, 0x00, 0x00, 0x00, 
.................... 0x00, 0x00, 0x00, 0x00, 0x00, 0x00, 0x00, 0x00, 0x00, 0x00, 0x00, 0x00, 0x00, 0x00, 0x00, 0x00, 
.................... 0x00, 0x00, 0x00, 0x00, 0x00, 0x00, 0x00, 0x00, 0x00, 0x00, 0x00, 0x00, 0x00, 0x00, 0x00, 0x00, 
.................... 0x00, 0x00, 0x00, 0x00, 0x00, 0x00, 0x00, 0x00, 0x00, 0x00, 0x00, 0x00, 0x00, 0x00, 0x00, 0x00, 
.................... 0x00, 0x00, 0x00, 0x00, 0x00, 0x00, 0x00, 0x00, 0x00, 0x00, 0x00, 0x00, 0x00, 0x00, 0x00, 0x00, 
.................... 0x00, 0x00, 0x00, 0x00, 0x00, 0x00, 0x00, 0x00, 0x00, 0x00, 0x00, 0x00, 0x00, 0x00, 0x00, 0x00, 
.................... 0x00, 0x00, 0x00, 0x00, 0x00, 0x00, 0x00, 0x00, 0x00, 0x00, 0x00, 0x00, 0x00, 0x00, 0x00, 0x00, 
.................... 0x00, 0x00, 0x00, 0x00, 0x00, 0x00, 0x00, 0x00, 0x00, 0x00, 0x00, 0x00, 0x00, 0x00, 0x00, 0x00, 
.................... 0x00, 0x00, 0x00, 0x00, 0x00, 0x00, 0x00, 0x00, 0x00, 0x00, 0x00, 0x00, 0x00, 0x00, 0x00, 0x00, 
.................... 0x00, 0x00, 0x00, 0x00, 0x00, 0x00, 0x00, 0x00, 0x00, 0x00, 0x00, 0x00, 0x00, 0x00, 0x00, 0x00, 
.................... 0x00, 0x00, 0x00, 0x00, 0x00, 0x00, 0x00, 0x00, 0x00, 0x00, 0x00, 0x00, 0x00, 0x00, 0x00, 0x00, 
.................... 0x00, 0x00, 0x00, 0x00, 0x00, 0x00, 0x00, 0x00, 0x00, 0x00, 0x00, 0x00, 0x00, 0x00, 0x60, 0x00, 
.................... 0x00, 0x00, 0x00, 0x00, 0x00, 0x00, 0x00, 0x00, 0x00, 0x00, 0x00, 0x00, 0x00, 0x00, 0xF0, 0x00, 
.................... 0x00, 0x00, 0x00, 0x00, 0x00, 0x00, 0x00, 0x00, 0x00, 0x00, 0x00, 0x00, 0x00, 0x01, 0xF8, 0x00, 
.................... 0x00, 0x00, 0x00, 0x00, 0x00, 0x00, 0x00, 0x00, 0x00, 0x00, 0x00, 0x00, 0x00, 0x01, 0xF8, 0x00, 
.................... 0x00, 0x00, 0x00, 0x00, 0x00, 0x00, 0x00, 0x00, 0x00, 0x00, 0x00, 0x00, 0x00, 0x01, 0xF8, 0x00, 
.................... 0x00, 0x00, 0x00, 0x00, 0x00, 0x00, 0x00, 0x00, 0x00, 0x00, 0x00, 0x00, 0x00, 0x00, 0xF0, 0x00, 
.................... 0x00, 0x00, 0x00, 0x00, 0x00, 0x00, 0x00, 0x00, 0x00, 0x00, 0x00, 0x00, 0x00, 0x38, 0x71, 0xC0, 
.................... 0x00, 0x00, 0x00, 0x00, 0x00, 0x00, 0x00, 0x00, 0x00, 0x00, 0x00, 0x00, 0x00, 0x7C, 0x93, 0xE0, 
.................... 0x00, 0x00, 0x00, 0x00, 0x00, 0x00, 0x00, 0x00, 0x00, 0x00, 0x00, 0x00, 0x00, 0xFF, 0x0F, 0xF0, 
.................... 0x00, 0x00, 0x00, 0x00, 0x00, 0x00, 0x00, 0x00, 0x00, 0x00, 0x00, 0x00, 0x00, 0xFF, 0x0F, 0xF0, 
.................... 0x00, 0x00, 0x00, 0x00, 0x00, 0x00, 0x00, 0x00, 0x00, 0x00, 0x00, 0x00, 0x00, 0x7D, 0x93, 0xE0, 
.................... 0x00, 0x00, 0x00, 0x00, 0x00, 0x00, 0x00, 0x00, 0x00, 0x00, 0x00, 0x00, 0x00, 0x38, 0x61, 0xC0, 
.................... 0x00, 0x00, 0x00, 0x00, 0x00, 0x00, 0x00, 0x00, 0x00, 0x00, 0x00, 0x00, 0x00, 0x00, 0xF0, 0x00, 
.................... 0x00, 0x00, 0x00, 0x00, 0x00, 0x00, 0x00, 0x00, 0x00, 0x00, 0x00, 0x00, 0x00, 0x01, 0xF8, 0x00, 
.................... 0x00, 0x00, 0x00, 0x00, 0x00, 0x00, 0x00, 0x00, 0x00, 0x00, 0x00, 0x00, 0x00, 0x01, 0xF8, 0x00, 
.................... 0x00, 0x00, 0x00, 0x00, 0x00, 0x00, 0x00, 0x00, 0x00, 0x00, 0x00, 0x00, 0x00, 0x01, 0xF8, 0x00, 
.................... 0x00, 0x00, 0x00, 0x00, 0x00, 0x00, 0x00, 0x00, 0x00, 0x00, 0x00, 0x00, 0x00, 0x00, 0xF0, 0x00, 
.................... 0x00, 0x00, 0x00, 0x00, 0x00, 0x00, 0x00, 0x00, 0x00, 0x00, 0x00, 0x00, 0x00, 0x00, 0x60, 0x00 
.................... }; 
....................  
....................  
.................... #define   UP               !input(PIN_A5) 
.................... #define   DOWN             !input(PIN_E0) 
.................... #define   RIGHT            !input(PIN_E1) 
.................... #define   LEFT             !input(PIN_E2) 
.................... #define   VIDRIO           !input(PIN_B0) 
.................... #define   VIDRIOUP         input(PIN_A2) 
.................... #define   VIDRIODN         input(PIN_A3) 
.................... #define   VIDRIOUUP        input(PIN_A4) 
....................  
.................... #define   Display_on          output_bit(PIN_B1,1) 
.................... #define   Display_off         output_bit(PIN_B1,0) 
.................... #define   MotorVp_on          output_bit(PIN_C1,1) 
.................... #define   MotorVp_off         output_bit(PIN_C1,0) 
.................... #define   MotorVn_on          output_bit(PIN_C2,1) 
.................... #define   MotorVn_off         output_bit(PIN_C2,0) 
.................... #define   Alarma_on           output_bit(PIN_C3,1) 
.................... #define   Alarma_off          output_bit(PIN_C3,0) 
.................... #define   LuzBlanca_on        output_bit(PIN_C4,0) 
.................... #define   LuzBlanca_off       output_bit(PIN_C4,1) 
.................... #define   LuzUV_on            output_bit(PIN_C5,0) 
.................... #define   LuzUV_off           output_bit(PIN_C5,1) 
.................... #define   Motor_on            output_bit(PIN_C6,1) 
.................... #define   Motor_off           output_bit(PIN_C6,0) 
.................... #define   Toma_on             output_bit(PIN_C7,1) 
.................... #define   Toma_off            output_bit(PIN_C7,0) 
....................  
.................... #define   ExFlow       0 
.................... #define   PresDownFlow 1 
....................  
....................  
.................... //**Variables----------------------------------------------// 
.................... int16 tiempos=0; 
.................... int8 i=0; 
.................... short Flanco=0,Flanco1=0,Flanco2=0,Flanco3=0,Flanco4=0,Flanco5=0,imprimir=0,flag_uv=0,flag_toma=0,flag_luz=0,w=0; 
.................... short tiempo_purga=0,tiempo_uv=0,tiempo_trabajo=0,tiempo_postpurga=0,Latencia=0,flag_latencia=0; 
.................... short guardatrabajo=0,Lectura=0,n=0,flag_alarma2=0,flagVidrio=OFF,flagConteo=OFF,MovioVidrio=OFF,MovioVidrioDN=OFF,flagVidrioUP=0,flagVidrioDN=0; 
.................... char  JP[] = "JP Inglobal", Cabina[] = "Cabina Extractora",tiempo_est[]="T est=", Dos_puntos[]=":"; 
.................... char  Clase[] = "Con Ductos", Tiempo[] = "Tiempo de Purga"; 
.................... char  Inflowt[] = "JPCEGH-F-A",Downflowt[] = "Pres(inH2O):", ZF[] = "Fabrica:208.0", ZA[] = "Actual:",AJ[]="Ajuste:"; 
.................... char  Vida_UV[] = "UVLife:",Vida_Filtro[] = "Filter:",ZFP[] = "Fabrica:235.0", Perdida[]="!Filtro Saturado!"; 
.................... int8 Menu=200, unidad=1, Opcion=1,inicie=0,negativo=10,G_l=0,G_h=0,tiemporeset=0,minutos_uv=0,ConteoVidrio=0; 
.................... int8 q=0,r=0,l=0,h=0,Entero=0,Decimal1=0,Alarma=10,UV2=0,VelMotor=0,flag_blower=5; 
.................... unsigned int16 Inflow_adc=0,Filtro_Downflow_adc=0,Temporal1=0; 
.................... int16 t_latencia=0,segundos_uv=0,minutos_trabajo=0,G16=0,tvidrio=0,tvidrioUP=0,tvidrioDN=0; 
.................... signed int  Tpurga[4]={0,0,0,0};       // Tiempo de Purga transcurrido 
.................... signed int  Tpurgap[4]={9,0,0,0};      // Tiempo de Purga programado 
.................... signed int  Tppurga[4]={0,0,0,0};      // Tiempo de Post-Purga transcurrido 
.................... signed int  Tppurgap[4]={9,0,0,0};     // Tiempo de Post-Purga programado 
.................... signed int  Tuv[4]={0,0,0,0};          // Tiempo de UV transcurrido(en Horas) 
.................... signed int  Tempouv[4]={0,0,0,0};         // Tiempo de UV transcurrido 
.................... signed int  Tempouvp[4]={0,0,0,0};        // Tiempo de UV transcurrido 
.................... signed int  Ttrabajo[4]={0,0,0,0};        // Tiempo de trabajo transcurrido (en Horas) 
.................... signed int  Contrasena[4]={0,0,0,0};      // Contrasena de 4 digitos 
.................... signed int  Password[4]={0,0,0,0};        // Contrasena Almacenada de 4 digitos 
.................... float Inflow=0.0,Filtro_Downflow=0.0,Diferencia=0.0,barra=0.0,barra_old=0.0; 
.................... float Velocidad=0.0,x_uno=0.0,x_cuadrado=0.0,x_cubo=0.0,Ajuste1=0.0,Ajuste2=0.0; 
.................... float ADC=0,Temporal=0.0,Temporal2=0.0; 
.................... float a=0.0000001418633343546420,b=-0.00009476749001431169,c= 0.040182822903506,d= -5.354852229527197;//Sensor 2 Posible bueno 
.................... float promedio[8]={0.0,0.0,0.0,0.0,0.0,0.0,0.0,0.0}; 
.................... float PromPresion[8]={0.0,0.0,0.0,0.0,0.0,0.0,0.0,0.0}; 
.................... float Flujo=0.0,zero_fabrica=203.0,zero_actual=0.0; 
.................... float V1=0.0,Presion=0.0,G=2.0,Relacion=0.57; 
.................... //**---------------------------------------------------------// 
.................... #include "Funciones.h" 
.................... typedef struct{ 
....................    char Letra[20]; 
.................... }MENUU; 
....................  
.................... MENUU Menus; 
....................  
.................... // Funcion para conversor analogo-digital 
.................... unsigned int16 sensores(int x){ 
.................... unsigned int16 y;set_adc_channel(x);delay_ms(1);y=read_adc();return (y); 
*
02CE6:  MOVLB  5
02CE8:  RLCF   xD5,W
02CEA:  MOVWF  00
02CEC:  RLCF   00,F
02CEE:  MOVLW  FC
02CF0:  ANDWF  00,F
02CF2:  MOVFF  00,01
02CF6:  MOVF   FC2,W
02CF8:  ANDLW  C3
02CFA:  IORWF  00,W
02CFC:  MOVWF  FC2
02CFE:  MOVLW  01
02D00:  MOVWF  xD9
02D02:  MOVLB  0
02D04:  CALL   1482
02D08:  BSF    FC2.1
02D0A:  BTFSC  FC2.1
02D0C:  BRA    2D0A
02D0E:  MOVFF  FC4,5D7
02D12:  MOVLB  5
02D14:  MOVFF  FC3,5D6
02D18:  MOVFF  5D6,01
02D1C:  MOVFF  5D7,02
.................... } 
02D20:  MOVLB  0
02D22:  RETLW  00
....................  
.................... void glcd_imagen(int8 x) 
.................... { 
....................    char i,j; 
....................    signed char k;  
....................       
....................    if(x==3){ 
*
046C8:  MOVLB  5
046CA:  MOVF   xD0,W
046CC:  SUBLW  03
046CE:  BNZ   4776
....................    for( i = 0 ; i < 64 ; i ++ ) 
046D0:  CLRF   xD1
046D2:  MOVF   xD1,W
046D4:  SUBLW  3F
046D6:  BNC   4776
....................    {  for( j = 0 ; j < 16 ; j ++) 
046D8:  CLRF   xD2
046DA:  MOVF   xD2,W
046DC:  SUBLW  0F
046DE:  BNC   4772
....................       {  for(k=7;k>-1;k--) 
046E0:  MOVLW  07
046E2:  MOVWF  xD3
046E4:  MOVF   xD3,W
046E6:  XORLW  80
046E8:  SUBLW  7F
046EA:  BC    476E
....................          {       
....................             if( bit_test(Bombillo[i][j] ,7-k ))  
046EC:  CLRF   xD5
046EE:  MOVFF  5D1,5D4
046F2:  CLRF   xD7
046F4:  MOVLW  10
046F6:  MOVWF  xD6
046F8:  MOVLB  0
046FA:  RCALL  46A6
046FC:  MOVFF  02,5D5
04700:  MOVFF  01,5D4
04704:  MOVLB  5
04706:  MOVF   xD2,W
04708:  ADDWF  01,W
0470A:  MOVWF  01
0470C:  MOVLW  00
0470E:  ADDWFC 02,W
04710:  MOVWF  03
04712:  MOVF   01,W
04714:  MOVFF  FF2,5D4
04718:  BCF    FF2.7
0471A:  MOVFF  03,FF7
0471E:  MOVLB  0
04720:  CALL   02B6
04724:  MOVLB  5
04726:  BTFSC  xD4.7
04728:  BSF    FF2.7
0472A:  MOVWF  xD4
0472C:  MOVLW  07
0472E:  BSF    FD8.0
04730:  SUBFWB xD3,W
04732:  MOVWF  xD5
04734:  MOVFF  5D4,00
04738:  MOVF   xD5,W
0473A:  MOVWF  01
0473C:  BZ    4746
0473E:  BCF    FD8.0
04740:  RRCF   00,F
04742:  DECFSZ 01,F
04744:  BRA    473E
04746:  BTFSS  00.0
04748:  BRA    476A
....................                glcd_pixel( j*8+k,i, ON ); 
0474A:  MOVF   xD2,W
0474C:  MULLW  08
0474E:  MOVF   FF3,W
04750:  ADDWF  xD3,W
04752:  MOVWF  xD4
04754:  MOVFF  FE8,604
04758:  MOVFF  5D1,605
0475C:  MOVLW  01
0475E:  MOVLB  6
04760:  MOVWF  x06
04762:  MOVLB  0
04764:  CALL   350E
04768:  MOVLB  5
....................          }   
0476A:  DECF   xD3,F
0476C:  BRA    46E4
....................       } 
0476E:  INCF   xD2,F
04770:  BRA    46DA
....................    } 
04772:  INCF   xD1,F
04774:  BRA    46D2
....................    } 
....................     
....................    if(x==4){ 
04776:  MOVF   xD0,W
04778:  SUBLW  04
0477A:  BNZ   4822
....................    for( i = 0 ; i < 64 ; i ++ ) 
0477C:  CLRF   xD1
0477E:  MOVF   xD1,W
04780:  SUBLW  3F
04782:  BNC   4822
....................    {  for( j = 0 ; j < 16 ; j ++) 
04784:  CLRF   xD2
04786:  MOVF   xD2,W
04788:  SUBLW  0F
0478A:  BNC   481E
....................       {  for(k=7;k>-1;k--) 
0478C:  MOVLW  07
0478E:  MOVWF  xD3
04790:  MOVF   xD3,W
04792:  XORLW  80
04794:  SUBLW  7F
04796:  BC    481A
....................          {       
....................             if( bit_test(Tomai[i][j] ,7-k ))  
04798:  CLRF   xD5
0479A:  MOVFF  5D1,5D4
0479E:  CLRF   xD7
047A0:  MOVLW  10
047A2:  MOVWF  xD6
047A4:  MOVLB  0
047A6:  RCALL  46A6
047A8:  MOVFF  02,5D5
047AC:  MOVFF  01,5D4
047B0:  MOVLB  5
047B2:  MOVF   xD2,W
047B4:  ADDWF  01,W
047B6:  MOVWF  01
047B8:  MOVLW  00
047BA:  ADDWFC 02,W
047BC:  MOVWF  03
047BE:  MOVF   01,W
047C0:  MOVFF  FF2,5D4
047C4:  BCF    FF2.7
047C6:  MOVFF  03,FF7
047CA:  MOVLB  0
047CC:  CALL   06D2
047D0:  MOVLB  5
047D2:  BTFSC  xD4.7
047D4:  BSF    FF2.7
047D6:  MOVWF  xD4
047D8:  MOVLW  07
047DA:  BSF    FD8.0
047DC:  SUBFWB xD3,W
047DE:  MOVWF  xD5
047E0:  MOVFF  5D4,00
047E4:  MOVF   xD5,W
047E6:  MOVWF  01
047E8:  BZ    47F2
047EA:  BCF    FD8.0
047EC:  RRCF   00,F
047EE:  DECFSZ 01,F
047F0:  BRA    47EA
047F2:  BTFSS  00.0
047F4:  BRA    4816
....................                glcd_pixel( j*8+k,i, ON ); 
047F6:  MOVF   xD2,W
047F8:  MULLW  08
047FA:  MOVF   FF3,W
047FC:  ADDWF  xD3,W
047FE:  MOVWF  xD4
04800:  MOVFF  FE8,604
04804:  MOVFF  5D1,605
04808:  MOVLW  01
0480A:  MOVLB  6
0480C:  MOVWF  x06
0480E:  MOVLB  0
04810:  CALL   350E
04814:  MOVLB  5
....................          }   
04816:  DECF   xD3,F
04818:  BRA    4790
....................       } 
0481A:  INCF   xD2,F
0481C:  BRA    4786
....................    } 
0481E:  INCF   xD1,F
04820:  BRA    477E
....................    } 
....................     
....................    if(x==5){ 
04822:  MOVF   xD0,W
04824:  SUBLW  05
04826:  BNZ   48CE
....................    for( i = 0 ; i < 64 ; i ++ ) 
04828:  CLRF   xD1
0482A:  MOVF   xD1,W
0482C:  SUBLW  3F
0482E:  BNC   48CE
....................    {  for( j = 0 ; j < 16 ; j ++) 
04830:  CLRF   xD2
04832:  MOVF   xD2,W
04834:  SUBLW  0F
04836:  BNC   48CA
....................       {  for(k=7;k>-1;k--) 
04838:  MOVLW  07
0483A:  MOVWF  xD3
0483C:  MOVF   xD3,W
0483E:  XORLW  80
04840:  SUBLW  7F
04842:  BC    48C6
....................          {       
....................             if( bit_test(Ventilador[i][j] ,7-k ))  
04844:  CLRF   xD5
04846:  MOVFF  5D1,5D4
0484A:  CLRF   xD7
0484C:  MOVLW  10
0484E:  MOVWF  xD6
04850:  MOVLB  0
04852:  RCALL  46A6
04854:  MOVFF  02,5D5
04858:  MOVFF  01,5D4
0485C:  MOVLB  5
0485E:  MOVF   xD2,W
04860:  ADDWF  01,W
04862:  MOVWF  01
04864:  MOVLW  00
04866:  ADDWFC 02,W
04868:  MOVWF  03
0486A:  MOVF   01,W
0486C:  MOVFF  FF2,5D4
04870:  BCF    FF2.7
04872:  MOVFF  03,FF7
04876:  MOVLB  0
04878:  CALL   0AEE
0487C:  MOVLB  5
0487E:  BTFSC  xD4.7
04880:  BSF    FF2.7
04882:  MOVWF  xD4
04884:  MOVLW  07
04886:  BSF    FD8.0
04888:  SUBFWB xD3,W
0488A:  MOVWF  xD5
0488C:  MOVFF  5D4,00
04890:  MOVF   xD5,W
04892:  MOVWF  01
04894:  BZ    489E
04896:  BCF    FD8.0
04898:  RRCF   00,F
0489A:  DECFSZ 01,F
0489C:  BRA    4896
0489E:  BTFSS  00.0
048A0:  BRA    48C2
....................                glcd_pixel( j*8+k,i, ON ); 
048A2:  MOVF   xD2,W
048A4:  MULLW  08
048A6:  MOVF   FF3,W
048A8:  ADDWF  xD3,W
048AA:  MOVWF  xD4
048AC:  MOVFF  FE8,604
048B0:  MOVFF  5D1,605
048B4:  MOVLW  01
048B6:  MOVLB  6
048B8:  MOVWF  x06
048BA:  MOVLB  0
048BC:  CALL   350E
048C0:  MOVLB  5
....................          }   
048C2:  DECF   xD3,F
048C4:  BRA    483C
....................       } 
048C6:  INCF   xD2,F
048C8:  BRA    4832
....................    } 
048CA:  INCF   xD1,F
048CC:  BRA    482A
....................    } 
.................... } 
048CE:  MOVLB  0
048D0:  RETLW  00
....................  
....................  
.................... void mensajes(int8 x,y){// Funcion para imprimir mensajes de Menu Principal. 
....................   if(x==1) 
....................    {glcd_text57(7, y, tiempo_est, 1, ON);} 
.................... } 
....................   
.................... void displayContrasena(int digito, int x, int y, int sombreado) 
.................... { 
....................    char voltage[9]; 
....................    sprintf(voltage, "%i", digito); 
*
039D0:  MOVLW  05
039D2:  MOVLB  5
039D4:  MOVWF  xCF
039D6:  MOVLW  DE
039D8:  MOVWF  xCE
039DA:  MOVFF  5DA,5E7
039DE:  MOVLW  1F
039E0:  MOVWF  xE8
039E2:  MOVLB  0
039E4:  RCALL  3430
....................     
....................    if(sombreado==1) 
039E6:  MOVLB  5
039E8:  DECFSZ xDD,W
039EA:  BRA    3A3A
....................       {glcd_rect(x, y, x+18, y+24, YES, ON);glcd_text57(x+2, y+1, voltage, 2, OFF);} 
039EC:  MOVLW  12
039EE:  ADDWF  xDB,W
039F0:  MOVWF  xE7
039F2:  MOVLW  18
039F4:  ADDWF  xDC,W
039F6:  MOVWF  xE8
039F8:  MOVFF  5DB,5E9
039FC:  MOVFF  5DC,5EA
03A00:  MOVFF  5E7,5EB
03A04:  MOVWF  xEC
03A06:  MOVLW  01
03A08:  MOVWF  xED
03A0A:  MOVWF  xEE
03A0C:  MOVLB  0
03A0E:  RCALL  3754
03A10:  MOVLW  02
03A12:  MOVLB  5
03A14:  ADDWF  xDB,W
03A16:  MOVWF  xE7
03A18:  MOVLW  01
03A1A:  ADDWF  xDC,W
03A1C:  MOVWF  xE8
03A1E:  MOVFF  5E7,5E9
03A22:  MOVWF  xEA
03A24:  MOVLW  05
03A26:  MOVWF  xEC
03A28:  MOVLW  DE
03A2A:  MOVWF  xEB
03A2C:  MOVLW  02
03A2E:  MOVWF  xED
03A30:  CLRF   xEE
03A32:  MOVLB  0
03A34:  RCALL  3816
....................    else    
03A36:  BRA    3A84
03A38:  MOVLB  5
....................       {glcd_rect(x, y, x+18, y+24, NO, OFF);glcd_text57(x+2, y+1, voltage, 2, ON);} 
03A3A:  MOVLW  12
03A3C:  ADDWF  xDB,W
03A3E:  MOVWF  xE7
03A40:  MOVLW  18
03A42:  ADDWF  xDC,W
03A44:  MOVWF  xE8
03A46:  MOVFF  5DB,5E9
03A4A:  MOVFF  5DC,5EA
03A4E:  MOVFF  5E7,5EB
03A52:  MOVWF  xEC
03A54:  CLRF   xED
03A56:  CLRF   xEE
03A58:  MOVLB  0
03A5A:  RCALL  3754
03A5C:  MOVLW  02
03A5E:  MOVLB  5
03A60:  ADDWF  xDB,W
03A62:  MOVWF  xE7
03A64:  MOVLW  01
03A66:  ADDWF  xDC,W
03A68:  MOVWF  xE8
03A6A:  MOVFF  5E7,5E9
03A6E:  MOVWF  xEA
03A70:  MOVLW  05
03A72:  MOVWF  xEC
03A74:  MOVLW  DE
03A76:  MOVWF  xEB
03A78:  MOVLW  02
03A7A:  MOVWF  xED
03A7C:  MOVLW  01
03A7E:  MOVWF  xEE
03A80:  MOVLB  0
03A82:  RCALL  3816
....................  
.................... } 
03A84:  RETLW  00
....................  
.................... void displayTiempo(int digito, int x, int y, int sombreado, int tamano) 
.................... { 
....................    char voltage[9]; 
....................    sprintf(voltage, "%i", digito); 
*
0426E:  MOVLW  05
04270:  MOVLB  5
04272:  MOVWF  xCF
04274:  MOVLW  D5
04276:  MOVWF  xCE
04278:  MOVFF  5D0,5E7
0427C:  MOVLW  1F
0427E:  MOVWF  xE8
04280:  MOVLB  0
04282:  CALL   3430
....................     
....................    if(sombreado==1) 
04286:  MOVLB  5
04288:  DECFSZ xD3,W
0428A:  BRA    42E4
....................       {glcd_rect(x, y, x+(tamano*6), y+(tamano*8), YES, ON);glcd_text57(x+2, y+1, voltage, tamano, OFF);} 
0428C:  MOVF   xD4,W
0428E:  MULLW  06
04290:  MOVF   FF3,W
04292:  ADDWF  xD1,W
04294:  MOVWF  xDE
04296:  MOVF   xD4,W
04298:  MULLW  08
0429A:  MOVF   FF3,W
0429C:  ADDWF  xD2,W
0429E:  MOVWF  xDF
042A0:  MOVFF  5D1,5E9
042A4:  MOVFF  5D2,5EA
042A8:  MOVFF  5DE,5EB
042AC:  MOVWF  xEC
042AE:  MOVLW  01
042B0:  MOVWF  xED
042B2:  MOVWF  xEE
042B4:  MOVLB  0
042B6:  CALL   3754
042BA:  MOVLW  02
042BC:  MOVLB  5
042BE:  ADDWF  xD1,W
042C0:  MOVWF  xDE
042C2:  MOVLW  01
042C4:  ADDWF  xD2,W
042C6:  MOVWF  xDF
042C8:  MOVFF  5DE,5E9
042CC:  MOVWF  xEA
042CE:  MOVLW  05
042D0:  MOVWF  xEC
042D2:  MOVLW  D5
042D4:  MOVWF  xEB
042D6:  MOVFF  5D4,5ED
042DA:  CLRF   xEE
042DC:  MOVLB  0
042DE:  CALL   3816
042E2:  MOVLB  5
....................    if(sombreado==0) 
042E4:  MOVF   xD3,F
042E6:  BNZ   4342
....................       {glcd_rect(x, y, x+(tamano*6), y+(tamano*8), YES, OFF);glcd_text57(x+2, y+1, voltage, tamano, ON);} 
042E8:  MOVF   xD4,W
042EA:  MULLW  06
042EC:  MOVF   FF3,W
042EE:  ADDWF  xD1,W
042F0:  MOVWF  xDE
042F2:  MOVF   xD4,W
042F4:  MULLW  08
042F6:  MOVF   FF3,W
042F8:  ADDWF  xD2,W
042FA:  MOVWF  xDF
042FC:  MOVFF  5D1,5E9
04300:  MOVFF  5D2,5EA
04304:  MOVFF  5DE,5EB
04308:  MOVWF  xEC
0430A:  MOVLW  01
0430C:  MOVWF  xED
0430E:  CLRF   xEE
04310:  MOVLB  0
04312:  CALL   3754
04316:  MOVLW  02
04318:  MOVLB  5
0431A:  ADDWF  xD1,W
0431C:  MOVWF  xDE
0431E:  MOVLW  01
04320:  ADDWF  xD2,W
04322:  MOVWF  xDF
04324:  MOVFF  5DE,5E9
04328:  MOVWF  xEA
0432A:  MOVLW  05
0432C:  MOVWF  xEC
0432E:  MOVLW  D5
04330:  MOVWF  xEB
04332:  MOVFF  5D4,5ED
04336:  MOVLW  01
04338:  MOVWF  xEE
0433A:  MOVLB  0
0433C:  CALL   3816
04340:  MOVLB  5
....................  
.................... } 
04342:  MOVLB  0
04344:  RETLW  00
....................  
.................... void displayMenu(char palabra[100], int x, int y, int sombreado, int tamano) 
.................... { 
....................    strcpy(Menus.Letra,palabra); 
*
03A86:  MOVLB  5
03A88:  MOVFF  5D8,01
03A8C:  MOVFF  5D9,03
03A90:  MOVFF  5D8,5DE
03A94:  MOVFF  5D9,5DF
03A98:  MOVLW  05
03A9A:  MOVWF  FEA
03A9C:  MOVLW  BA
03A9E:  MOVWF  FE9
03AA0:  MOVFF  5D9,FE2
03AA4:  MOVFF  5D8,FE1
03AA8:  MOVF   FE7,F
03AAA:  MOVFF  FE6,FEE
03AAE:  BNZ   3AA8
....................    if(sombreado==1) 
03AB0:  DECFSZ xDC,W
03AB2:  BRA    3AFE
....................       {glcd_rect(0, y, 127, y+(tamano*8), YES, ON);glcd_text57(x+1, y+1, Menus.Letra, tamano, OFF);} 
03AB4:  MOVF   xDD,W
03AB6:  MULLW  08
03AB8:  MOVF   FF3,W
03ABA:  ADDWF  xDB,W
03ABC:  MOVWF  xDE
03ABE:  CLRF   xE9
03AC0:  MOVFF  5DB,5EA
03AC4:  MOVLW  7F
03AC6:  MOVWF  xEB
03AC8:  MOVFF  5DE,5EC
03ACC:  MOVLW  01
03ACE:  MOVWF  xED
03AD0:  MOVWF  xEE
03AD2:  MOVLB  0
03AD4:  RCALL  3754
03AD6:  MOVLW  01
03AD8:  MOVLB  5
03ADA:  ADDWF  xDA,W
03ADC:  MOVWF  xDE
03ADE:  MOVLW  01
03AE0:  ADDWF  xDB,W
03AE2:  MOVWF  xDF
03AE4:  MOVFF  5DE,5E9
03AE8:  MOVWF  xEA
03AEA:  MOVLW  05
03AEC:  MOVWF  xEC
03AEE:  MOVLW  BA
03AF0:  MOVWF  xEB
03AF2:  MOVFF  5DD,5ED
03AF6:  CLRF   xEE
03AF8:  MOVLB  0
03AFA:  RCALL  3816
03AFC:  MOVLB  5
....................    if(sombreado==0) 
03AFE:  MOVF   xDC,F
03B00:  BNZ   3B4E
....................       {glcd_rect(0, y, 127, y+(tamano*8), YES, OFF);glcd_text57(x+1, y+1, Menus.Letra, tamano, ON);} 
03B02:  MOVF   xDD,W
03B04:  MULLW  08
03B06:  MOVF   FF3,W
03B08:  ADDWF  xDB,W
03B0A:  MOVWF  xDE
03B0C:  CLRF   xE9
03B0E:  MOVFF  5DB,5EA
03B12:  MOVLW  7F
03B14:  MOVWF  xEB
03B16:  MOVFF  5DE,5EC
03B1A:  MOVLW  01
03B1C:  MOVWF  xED
03B1E:  CLRF   xEE
03B20:  MOVLB  0
03B22:  RCALL  3754
03B24:  MOVLW  01
03B26:  MOVLB  5
03B28:  ADDWF  xDA,W
03B2A:  MOVWF  xDE
03B2C:  MOVLW  01
03B2E:  ADDWF  xDB,W
03B30:  MOVWF  xDF
03B32:  MOVFF  5DE,5E9
03B36:  MOVWF  xEA
03B38:  MOVLW  05
03B3A:  MOVWF  xEC
03B3C:  MOVLW  BA
03B3E:  MOVWF  xEB
03B40:  MOVFF  5DD,5ED
03B44:  MOVLW  01
03B46:  MOVWF  xEE
03B48:  MOVLB  0
03B4A:  RCALL  3816
03B4C:  MOVLB  5
....................  
.................... } 
03B4E:  MOVLB  0
03B50:  RETLW  00
....................  
.................... void displayfloat(float adc,int x,int y,int sombreado, int tamano) { 
....................    char voltage[9];     
....................       sprintf(voltage, "%1.2f",adc); // Converts adc to text 
*
045C0:  MOVLW  05
045C2:  MOVLB  5
045C4:  MOVWF  xCF
045C6:  MOVLW  DC
045C8:  MOVWF  xCE
045CA:  MOVLW  89
045CC:  MOVWF  FE9
045CE:  MOVFF  5D7,5E8
045D2:  MOVFF  5D6,5E7
045D6:  MOVFF  5D5,5E6
045DA:  MOVFF  5D4,5E5
045DE:  MOVLW  02
045E0:  MOVWF  xE9
045E2:  MOVLB  0
045E4:  BRA    440A
....................        
....................    if(sombreado==1) 
045E6:  MOVLB  5
045E8:  DECFSZ xDA,W
045EA:  BRA    4644
....................       {glcd_rect(x, y, x+(tamano*48), y+(tamano*8), YES, ON);glcd_text57(x+2, y+1, voltage, tamano, OFF);} 
045EC:  MOVF   xDB,W
045EE:  MULLW  30
045F0:  MOVF   FF3,W
045F2:  ADDWF  xD8,W
045F4:  MOVWF  xE5
045F6:  MOVF   xDB,W
045F8:  MULLW  08
045FA:  MOVF   FF3,W
045FC:  ADDWF  xD9,W
045FE:  MOVWF  xE6
04600:  MOVFF  5D8,5E9
04604:  MOVFF  5D9,5EA
04608:  MOVFF  5E5,5EB
0460C:  MOVWF  xEC
0460E:  MOVLW  01
04610:  MOVWF  xED
04612:  MOVWF  xEE
04614:  MOVLB  0
04616:  CALL   3754
0461A:  MOVLW  02
0461C:  MOVLB  5
0461E:  ADDWF  xD8,W
04620:  MOVWF  xE5
04622:  MOVLW  01
04624:  ADDWF  xD9,W
04626:  MOVWF  xE6
04628:  MOVFF  5E5,5E9
0462C:  MOVWF  xEA
0462E:  MOVLW  05
04630:  MOVWF  xEC
04632:  MOVLW  DC
04634:  MOVWF  xEB
04636:  MOVFF  5DB,5ED
0463A:  CLRF   xEE
0463C:  MOVLB  0
0463E:  CALL   3816
04642:  MOVLB  5
....................    if(sombreado==0) 
04644:  MOVF   xDA,F
04646:  BNZ   46A2
....................       {glcd_rect(x, y, x+(tamano*48), y+(tamano*8), YES, OFF);glcd_text57(x+2, y+1, voltage, tamano, ON);} 
04648:  MOVF   xDB,W
0464A:  MULLW  30
0464C:  MOVF   FF3,W
0464E:  ADDWF  xD8,W
04650:  MOVWF  xE5
04652:  MOVF   xDB,W
04654:  MULLW  08
04656:  MOVF   FF3,W
04658:  ADDWF  xD9,W
0465A:  MOVWF  xE6
0465C:  MOVFF  5D8,5E9
04660:  MOVFF  5D9,5EA
04664:  MOVFF  5E5,5EB
04668:  MOVWF  xEC
0466A:  MOVLW  01
0466C:  MOVWF  xED
0466E:  CLRF   xEE
04670:  MOVLB  0
04672:  CALL   3754
04676:  MOVLW  02
04678:  MOVLB  5
0467A:  ADDWF  xD8,W
0467C:  MOVWF  xE5
0467E:  MOVLW  01
04680:  ADDWF  xD9,W
04682:  MOVWF  xE6
04684:  MOVFF  5E5,5E9
04688:  MOVWF  xEA
0468A:  MOVLW  05
0468C:  MOVWF  xEC
0468E:  MOVLW  DC
04690:  MOVWF  xEB
04692:  MOVFF  5DB,5ED
04696:  MOVLW  01
04698:  MOVWF  xEE
0469A:  MOVLB  0
0469C:  CALL   3816
046A0:  MOVLB  5
....................        
.................... } 
046A2:  MOVLB  0
046A4:  RETLW  00
....................  
.................... Float LeerFlujoInFlow(int media) 
.................... { 
....................     InFlow_adc=sensores(ExFlow); 
*
02E1A:  MOVLB  5
02E1C:  CLRF   xD5
02E1E:  MOVLB  0
02E20:  RCALL  2CE6
02E22:  MOVFF  02,4DB
02E26:  MOVFF  01,4DA
....................        
....................     if(negativo==10) 
02E2A:  MOVLB  4
02E2C:  MOVF   xCA,W
02E2E:  SUBLW  0A
02E30:  BNZ   2E78
....................     { 
....................       x_uno=Inflow_adc+Diferencia; 
02E32:  MOVFF  4DB,5D6
02E36:  MOVFF  4DA,5D5
02E3A:  MOVLB  0
02E3C:  CALL   14AA
02E40:  BCF    FD8.1
02E42:  MOVFF  03,5DC
02E46:  MOVFF  02,5DB
02E4A:  MOVFF  01,5DA
02E4E:  MOVFF  00,5D9
02E52:  MOVFF  521,5E0
02E56:  MOVFF  520,5DF
02E5A:  MOVFF  51F,5DE
02E5E:  MOVFF  51E,5DD
02E62:  CALL   163E
02E66:  MOVFF  03,531
02E6A:  MOVFF  02,530
02E6E:  MOVFF  01,52F
02E72:  MOVFF  00,52E
02E76:  MOVLB  4
....................     } 
....................     if(negativo==20) 
02E78:  MOVF   xCA,W
02E7A:  SUBLW  14
02E7C:  BNZ   2EC2
....................     { 
....................       x_uno=Inflow_adc-Diferencia; 
02E7E:  MOVFF  4DB,5D6
02E82:  MOVFF  4DA,5D5
02E86:  MOVLB  0
02E88:  CALL   14AA
02E8C:  BSF    FD8.1
02E8E:  MOVFF  03,5DC
02E92:  MOVFF  02,5DB
02E96:  MOVFF  01,5DA
02E9A:  MOVFF  00,5D9
02E9E:  MOVFF  521,5E0
02EA2:  MOVFF  520,5DF
02EA6:  MOVFF  51F,5DE
02EAA:  MOVFF  51E,5DD
02EAE:  CALL   163E
02EB2:  MOVFF  03,531
02EB6:  MOVFF  02,530
02EBA:  MOVFF  01,52F
02EBE:  MOVFF  00,52E
....................     } 
....................     x_cuadrado=x_uno*x_uno; 
02EC2:  MOVFF  531,5F5
02EC6:  MOVFF  530,5F4
02ECA:  MOVFF  52F,5F3
02ECE:  MOVFF  52E,5F2
02ED2:  MOVFF  531,5F9
02ED6:  MOVFF  530,5F8
02EDA:  MOVFF  52F,5F7
02EDE:  MOVFF  52E,5F6
02EE2:  MOVLB  0
02EE4:  RCALL  2D24
02EE6:  MOVFF  03,535
02EEA:  MOVFF  02,534
02EEE:  MOVFF  01,533
02EF2:  MOVFF  00,532
....................     x_cubo=x_uno*x_cuadrado; 
02EF6:  MOVFF  531,5F5
02EFA:  MOVFF  530,5F4
02EFE:  MOVFF  52F,5F3
02F02:  MOVFF  52E,5F2
02F06:  MOVFF  535,5F9
02F0A:  MOVFF  534,5F8
02F0E:  MOVFF  533,5F7
02F12:  MOVFF  532,5F6
02F16:  RCALL  2D24
02F18:  MOVFF  03,539
02F1C:  MOVFF  02,538
02F20:  MOVFF  01,537
02F24:  MOVFF  00,536
....................     Velocidad=(x_cubo*a)+(x_cuadrado*b)+(x_uno*c)+d;  
02F28:  MOVFF  539,5F5
02F2C:  MOVFF  538,5F4
02F30:  MOVFF  537,5F3
02F34:  MOVFF  536,5F2
02F38:  MOVFF  551,5F9
02F3C:  MOVFF  550,5F8
02F40:  MOVFF  54F,5F7
02F44:  MOVFF  54E,5F6
02F48:  RCALL  2D24
02F4A:  MOVFF  00,5D1
02F4E:  MOVFF  01,5D2
02F52:  MOVFF  02,5D3
02F56:  MOVFF  03,5D4
02F5A:  MOVFF  535,5F5
02F5E:  MOVFF  534,5F4
02F62:  MOVFF  533,5F3
02F66:  MOVFF  532,5F2
02F6A:  MOVFF  555,5F9
02F6E:  MOVFF  554,5F8
02F72:  MOVFF  553,5F7
02F76:  MOVFF  552,5F6
02F7A:  RCALL  2D24
02F7C:  BCF    FD8.1
02F7E:  MOVFF  5D4,5DC
02F82:  MOVFF  5D3,5DB
02F86:  MOVFF  5D2,5DA
02F8A:  MOVFF  5D1,5D9
02F8E:  MOVFF  03,5E0
02F92:  MOVFF  02,5DF
02F96:  MOVFF  01,5DE
02F9A:  MOVFF  00,5DD
02F9E:  CALL   163E
02FA2:  MOVFF  00,5D1
02FA6:  MOVFF  01,5D2
02FAA:  MOVFF  02,5D3
02FAE:  MOVFF  03,5D4
02FB2:  MOVFF  531,5F5
02FB6:  MOVFF  530,5F4
02FBA:  MOVFF  52F,5F3
02FBE:  MOVFF  52E,5F2
02FC2:  MOVFF  559,5F9
02FC6:  MOVFF  558,5F8
02FCA:  MOVFF  557,5F7
02FCE:  MOVFF  556,5F6
02FD2:  RCALL  2D24
02FD4:  BCF    FD8.1
02FD6:  MOVFF  5D4,5DC
02FDA:  MOVFF  5D3,5DB
02FDE:  MOVFF  5D2,5DA
02FE2:  MOVFF  5D1,5D9
02FE6:  MOVFF  03,5E0
02FEA:  MOVFF  02,5DF
02FEE:  MOVFF  01,5DE
02FF2:  MOVFF  00,5DD
02FF6:  CALL   163E
02FFA:  MOVFF  00,5D1
02FFE:  MOVFF  01,5D2
03002:  MOVFF  02,5D3
03006:  MOVFF  03,5D4
0300A:  BCF    FD8.1
0300C:  MOVFF  03,5DC
03010:  MOVFF  02,5DB
03014:  MOVFF  01,5DA
03018:  MOVFF  00,5D9
0301C:  MOVFF  55D,5E0
03020:  MOVFF  55C,5DF
03024:  MOVFF  55B,5DE
03028:  MOVFF  55A,5DD
0302C:  CALL   163E
03030:  MOVFF  03,52D
03034:  MOVFF  02,52C
03038:  MOVFF  01,52B
0303C:  MOVFF  00,52A
....................     //Velocidad=Velocidad*correccion;//Ajuste de Temperatura 
....................     Velocidad=Velocidad-0.08; 
03040:  BSF    FD8.1
03042:  MOVFF  52D,5DC
03046:  MOVFF  52C,5DB
0304A:  MOVFF  52B,5DA
0304E:  MOVFF  52A,5D9
03052:  MOVLW  0A
03054:  MOVLB  5
03056:  MOVWF  xE0
03058:  MOVLW  D7
0305A:  MOVWF  xDF
0305C:  MOVLW  23
0305E:  MOVWF  xDE
03060:  MOVLW  7B
03062:  MOVWF  xDD
03064:  MOVLB  0
03066:  CALL   163E
0306A:  MOVFF  03,52D
0306E:  MOVFF  02,52C
03072:  MOVFF  01,52B
03076:  MOVFF  00,52A
....................     if(Velocidad<0.0) 
0307A:  MOVFF  52D,5D8
0307E:  MOVFF  52C,5D7
03082:  MOVFF  52B,5D6
03086:  MOVFF  52A,5D5
0308A:  MOVLB  5
0308C:  CLRF   xDC
0308E:  CLRF   xDB
03090:  CLRF   xDA
03092:  CLRF   xD9
03094:  MOVLB  0
03096:  CALL   20CE
0309A:  BNC   30A6
....................      {Velocidad=0.0;} 
0309C:  MOVLB  5
0309E:  CLRF   x2D
030A0:  CLRF   x2C
030A2:  CLRF   x2B
030A4:  CLRF   x2A
....................       
....................      if(l>=media) 
030A6:  MOVLB  5
030A8:  MOVF   xD0,W
030AA:  MOVLB  4
030AC:  SUBWF  xD2,W
030AE:  BNC   30B2
....................        {l=0;} 
030B0:  CLRF   xD2
....................       
....................      promedio[l]=Velocidad;l++; 
030B2:  MOVF   xD2,W
030B4:  MULLW  04
030B6:  MOVF   FF3,W
030B8:  CLRF   03
030BA:  ADDLW  5E
030BC:  MOVWF  FE9
030BE:  MOVLW  05
030C0:  ADDWFC 03,W
030C2:  MOVWF  FEA
030C4:  MOVFF  52A,FEF
030C8:  MOVFF  52B,FEC
030CC:  MOVFF  52C,FEC
030D0:  MOVFF  52D,FEC
030D4:  INCF   xD2,F
....................      Flujo=0; 
030D6:  MOVLB  5
030D8:  CLRF   xA1
030DA:  CLRF   xA0
030DC:  CLRF   x9F
030DE:  CLRF   x9E
....................         for(h=0;h<=(media-1);h++) 
030E0:  MOVLB  4
030E2:  CLRF   xD3
030E4:  MOVLW  01
030E6:  MOVLB  5
030E8:  SUBWF  xD0,W
030EA:  MOVLB  4
030EC:  SUBWF  xD3,W
030EE:  BZ    30F2
030F0:  BC    3162
....................         { 
....................            Flujo+=promedio[h]; 
030F2:  MOVF   xD3,W
030F4:  MULLW  04
030F6:  MOVF   FF3,W
030F8:  CLRF   03
030FA:  ADDLW  5E
030FC:  MOVWF  FE9
030FE:  MOVLW  05
03100:  ADDWFC 03,W
03102:  MOVWF  FEA
03104:  MOVFF  FEF,00
03108:  MOVFF  FEC,01
0310C:  MOVFF  FEC,02
03110:  MOVFF  FEC,03
03114:  MOVFF  FEA,5D2
03118:  MOVFF  FE9,5D1
0311C:  BCF    FD8.1
0311E:  MOVFF  5A1,5DC
03122:  MOVFF  5A0,5DB
03126:  MOVFF  59F,5DA
0312A:  MOVFF  59E,5D9
0312E:  MOVFF  03,5E0
03132:  MOVFF  02,5DF
03136:  MOVFF  01,5DE
0313A:  MOVFF  00,5DD
0313E:  MOVLB  0
03140:  CALL   163E
03144:  MOVFF  5D2,FEA
03148:  MOVFF  5D1,FE9
0314C:  MOVFF  03,5A1
03150:  MOVFF  02,5A0
03154:  MOVFF  01,59F
03158:  MOVFF  00,59E
....................         }  
0315C:  MOVLB  4
0315E:  INCF   xD3,F
03160:  BRA    30E4
....................            Flujo=(Flujo/media)*Ajuste1;  
03162:  MOVLB  5
03164:  CLRF   xD6
03166:  MOVFF  5D0,5D5
0316A:  MOVLB  0
0316C:  CALL   14AA
03170:  MOVFF  5A1,5D8
03174:  MOVFF  5A0,5D7
03178:  MOVFF  59F,5D6
0317C:  MOVFF  59E,5D5
03180:  MOVFF  03,5DC
03184:  MOVFF  02,5DB
03188:  MOVFF  01,5DA
0318C:  MOVFF  00,5D9
03190:  CALL   14E0
03194:  MOVFF  00,5D1
03198:  MOVFF  01,5D2
0319C:  MOVFF  02,5D3
031A0:  MOVFF  03,5D4
031A4:  MOVFF  03,5F5
031A8:  MOVFF  02,5F4
031AC:  MOVFF  01,5F3
031B0:  MOVFF  00,5F2
031B4:  MOVFF  53D,5F9
031B8:  MOVFF  53C,5F8
031BC:  MOVFF  53B,5F7
031C0:  MOVFF  53A,5F6
031C4:  RCALL  2D24
031C6:  MOVFF  03,5A1
031CA:  MOVFF  02,5A0
031CE:  MOVFF  01,59F
031D2:  MOVFF  00,59E
....................            return Flujo; 
031D6:  MOVFF  59E,00
031DA:  MOVFF  59F,01
031DE:  MOVFF  5A0,02
031E2:  MOVFF  5A1,03
.................... } 
031E6:  GOTO   4F6A (RETURN)
....................  
.................... float Leer_Sensor_Presion(int media){ 
031EA:  MOVLB  5
031EC:  CLRF   xD4
031EE:  CLRF   xD3
031F0:  CLRF   xD2
031F2:  CLRF   xD1
....................    float promediopresion=0.0; 
....................     
....................    Filtro_Downflow_adc=sensores(PresDownFlow); 
031F4:  MOVLW  01
031F6:  MOVWF  xD5
031F8:  MOVLB  0
031FA:  RCALL  2CE6
031FC:  MOVFF  02,4DD
03200:  MOVFF  01,4DC
....................    V1=Filtro_Downflow_adc;  
03204:  MOVFF  4DD,5D6
03208:  MOVFF  4DC,5D5
0320C:  CALL   14AA
03210:  MOVFF  03,5AD
03214:  MOVFF  02,5AC
03218:  MOVFF  01,5AB
0321C:  MOVFF  00,5AA
....................    //V1 = (x_uno*5.0)/1023.0;   //Lectura de Divisor de Voltaje de PT100 con resistencia de 1k (+-10%) 
....................    Presion=(V1/G)-1.0;// Presion=(Voltaje/Ganancia)-1 
03220:  MOVFF  5AD,5D8
03224:  MOVFF  5AC,5D7
03228:  MOVFF  5AB,5D6
0322C:  MOVFF  5AA,5D5
03230:  MOVFF  5B5,5DC
03234:  MOVFF  5B4,5DB
03238:  MOVFF  5B3,5DA
0323C:  MOVFF  5B2,5D9
03240:  CALL   14E0
03244:  MOVFF  00,5D5
03248:  MOVFF  01,5D6
0324C:  MOVFF  02,5D7
03250:  MOVFF  03,5D8
03254:  BSF    FD8.1
03256:  MOVFF  03,5DC
0325A:  MOVFF  02,5DB
0325E:  MOVFF  01,5DA
03262:  MOVFF  00,5D9
03266:  MOVLB  5
03268:  CLRF   xE0
0326A:  CLRF   xDF
0326C:  CLRF   xDE
0326E:  MOVLW  7F
03270:  MOVWF  xDD
03272:  MOVLB  0
03274:  CALL   163E
03278:  MOVFF  03,5B1
0327C:  MOVFF  02,5B0
03280:  MOVFF  01,5AF
03284:  MOVFF  00,5AE
....................     
....................    if(Presion<0.0) 
03288:  MOVFF  5B1,5D8
0328C:  MOVFF  5B0,5D7
03290:  MOVFF  5AF,5D6
03294:  MOVFF  5AE,5D5
03298:  MOVLB  5
0329A:  CLRF   xDC
0329C:  CLRF   xDB
0329E:  CLRF   xDA
032A0:  CLRF   xD9
032A2:  MOVLB  0
032A4:  CALL   20CE
032A8:  BNC   32B4
....................    { 
....................       Presion=0.0; 
032AA:  MOVLB  5
032AC:  CLRF   xB1
032AE:  CLRF   xB0
032B0:  CLRF   xAF
032B2:  CLRF   xAE
....................    } 
....................  
....................    if(r>media-1) 
032B4:  MOVLW  01
032B6:  MOVLB  5
032B8:  SUBWF  xD0,W
032BA:  MOVLB  4
032BC:  SUBWF  xD1,W
032BE:  BZ    32C4
032C0:  BNC   32C4
....................    {r=0;} 
032C2:  CLRF   xD1
....................    PromPresion[r]=Presion*4.02;r++; 
032C4:  MOVF   xD1,W
032C6:  MULLW  04
032C8:  MOVF   FF3,W
032CA:  CLRF   03
032CC:  ADDLW  7E
032CE:  MOVWF  FE9
032D0:  MOVLW  05
032D2:  ADDWFC 03,W
032D4:  MOVWF  FEA
032D6:  MOVFF  5B1,5F5
032DA:  MOVFF  5B0,5F4
032DE:  MOVFF  5AF,5F3
032E2:  MOVFF  5AE,5F2
032E6:  MOVLW  D7
032E8:  MOVLB  5
032EA:  MOVWF  xF9
032EC:  MOVLW  A3
032EE:  MOVWF  xF8
032F0:  CLRF   xF7
032F2:  MOVLW  81
032F4:  MOVWF  xF6
032F6:  MOVLB  0
032F8:  RCALL  2D24
032FA:  MOVFF  00,FEF
032FE:  MOVFF  01,FEC
03302:  MOVFF  02,FEC
03306:  MOVFF  03,FEC
0330A:  MOVLB  4
0330C:  INCF   xD1,F
....................           
....................    for(q=0;q<=(media-1);q++) 
0330E:  CLRF   xD0
03310:  MOVLW  01
03312:  MOVLB  5
03314:  SUBWF  xD0,W
03316:  MOVLB  4
03318:  SUBWF  xD0,W
0331A:  BZ    331E
0331C:  BC    338E
....................    { 
....................       promediopresion+=PromPresion[q]; 
0331E:  MOVF   xD0,W
03320:  MULLW  04
03322:  MOVF   FF3,W
03324:  CLRF   03
03326:  ADDLW  7E
03328:  MOVWF  FE9
0332A:  MOVLW  05
0332C:  ADDWFC 03,W
0332E:  MOVWF  FEA
03330:  MOVFF  FEF,00
03334:  MOVFF  FEC,01
03338:  MOVFF  FEC,02
0333C:  MOVFF  FEC,03
03340:  MOVFF  FEA,5D6
03344:  MOVFF  FE9,5D5
03348:  BCF    FD8.1
0334A:  MOVFF  5D4,5DC
0334E:  MOVFF  5D3,5DB
03352:  MOVFF  5D2,5DA
03356:  MOVFF  5D1,5D9
0335A:  MOVFF  03,5E0
0335E:  MOVFF  02,5DF
03362:  MOVFF  01,5DE
03366:  MOVFF  00,5DD
0336A:  MOVLB  0
0336C:  CALL   163E
03370:  MOVFF  5D6,FEA
03374:  MOVFF  5D5,FE9
03378:  MOVFF  03,5D4
0337C:  MOVFF  02,5D3
03380:  MOVFF  01,5D2
03384:  MOVFF  00,5D1
....................    }  
03388:  MOVLB  4
0338A:  INCF   xD0,F
0338C:  BRA    3310
....................    promediopresion=promediopresion/media;    
0338E:  MOVLB  5
03390:  CLRF   xD6
03392:  MOVFF  5D0,5D5
03396:  MOVLB  0
03398:  CALL   14AA
0339C:  MOVFF  5D4,5D8
033A0:  MOVFF  5D3,5D7
033A4:  MOVFF  5D2,5D6
033A8:  MOVFF  5D1,5D5
033AC:  MOVFF  03,5DC
033B0:  MOVFF  02,5DB
033B4:  MOVFF  01,5DA
033B8:  MOVFF  00,5D9
033BC:  CALL   14E0
033C0:  MOVFF  03,5D4
033C4:  MOVFF  02,5D3
033C8:  MOVFF  01,5D2
033CC:  MOVFF  00,5D1
....................     
....................    return promediopresion; 
033D0:  MOVFF  5D1,00
033D4:  MOVFF  5D2,01
033D8:  MOVFF  5D3,02
033DC:  MOVFF  5D4,03
.................... } 
033E0:  GOTO   4F86 (RETURN)
....................  
.................... void LeeEEPROM(void){ 
....................    Password[0]=read_eeprom(0); 
*
018B6:  MOVFF  FF2,5D0
018BA:  BCF    FF2.7
018BC:  CLRF   FAA
018BE:  CLRF   FA9
018C0:  BCF    FA6.6
018C2:  BCF    FA6.7
018C4:  BSF    FA6.0
018C6:  MOVF   FA8,W
018C8:  MOVLB  5
018CA:  BTFSC  xD0.7
018CC:  BSF    FF2.7
018CE:  MOVWF  x12
....................    delay_ms(10); 
018D0:  MOVLW  0A
018D2:  MOVWF  xD9
018D4:  MOVLB  0
018D6:  RCALL  1482
....................    Password[1]=read_eeprom(1); 
018D8:  MOVFF  FF2,5D0
018DC:  BCF    FF2.7
018DE:  CLRF   FAA
018E0:  MOVLW  01
018E2:  MOVWF  FA9
018E4:  BCF    FA6.6
018E6:  BCF    FA6.7
018E8:  BSF    FA6.0
018EA:  MOVF   FA8,W
018EC:  MOVLB  5
018EE:  BTFSC  xD0.7
018F0:  BSF    FF2.7
018F2:  MOVWF  x13
....................    delay_ms(10); 
018F4:  MOVLW  0A
018F6:  MOVWF  xD9
018F8:  MOVLB  0
018FA:  RCALL  1482
....................    Password[2]=read_eeprom(2); 
018FC:  MOVFF  FF2,5D0
01900:  BCF    FF2.7
01902:  CLRF   FAA
01904:  MOVLW  02
01906:  MOVWF  FA9
01908:  BCF    FA6.6
0190A:  BCF    FA6.7
0190C:  BSF    FA6.0
0190E:  MOVF   FA8,W
01910:  MOVLB  5
01912:  BTFSC  xD0.7
01914:  BSF    FF2.7
01916:  MOVWF  x14
....................    delay_ms(10); 
01918:  MOVLW  0A
0191A:  MOVWF  xD9
0191C:  MOVLB  0
0191E:  RCALL  1482
....................    Password[3]=read_eeprom(3); 
01920:  MOVFF  FF2,5D0
01924:  BCF    FF2.7
01926:  CLRF   FAA
01928:  MOVLW  03
0192A:  MOVWF  FA9
0192C:  BCF    FA6.6
0192E:  BCF    FA6.7
01930:  BSF    FA6.0
01932:  MOVF   FA8,W
01934:  MOVLB  5
01936:  BTFSC  xD0.7
01938:  BSF    FF2.7
0193A:  MOVWF  x15
....................    delay_ms(10); 
0193C:  MOVLW  0A
0193E:  MOVWF  xD9
01940:  MOVLB  0
01942:  RCALL  1482
....................    Tpurgap[0]=read_eeprom(4); 
01944:  MOVFF  FF2,5D0
01948:  BCF    FF2.7
0194A:  CLRF   FAA
0194C:  MOVLW  04
0194E:  MOVWF  FA9
01950:  BCF    FA6.6
01952:  BCF    FA6.7
01954:  BSF    FA6.0
01956:  MOVF   FA8,W
01958:  MOVLB  5
0195A:  BTFSC  xD0.7
0195C:  BSF    FF2.7
0195E:  MOVLB  4
01960:  MOVWF  xF2
....................    delay_ms(10); 
01962:  MOVLW  0A
01964:  MOVLB  5
01966:  MOVWF  xD9
01968:  MOVLB  0
0196A:  RCALL  1482
....................    Tpurgap[1]=read_eeprom(5); 
0196C:  MOVFF  FF2,5D0
01970:  BCF    FF2.7
01972:  CLRF   FAA
01974:  MOVLW  05
01976:  MOVWF  FA9
01978:  BCF    FA6.6
0197A:  BCF    FA6.7
0197C:  BSF    FA6.0
0197E:  MOVF   FA8,W
01980:  MOVLB  5
01982:  BTFSC  xD0.7
01984:  BSF    FF2.7
01986:  MOVLB  4
01988:  MOVWF  xF3
....................    delay_ms(10); 
0198A:  MOVLW  0A
0198C:  MOVLB  5
0198E:  MOVWF  xD9
01990:  MOVLB  0
01992:  RCALL  1482
....................    Tpurgap[2]=read_eeprom(6); 
01994:  MOVFF  FF2,5D0
01998:  BCF    FF2.7
0199A:  CLRF   FAA
0199C:  MOVLW  06
0199E:  MOVWF  FA9
019A0:  BCF    FA6.6
019A2:  BCF    FA6.7
019A4:  BSF    FA6.0
019A6:  MOVF   FA8,W
019A8:  MOVLB  5
019AA:  BTFSC  xD0.7
019AC:  BSF    FF2.7
019AE:  MOVLB  4
019B0:  MOVWF  xF4
....................    delay_ms(10); 
019B2:  MOVLW  0A
019B4:  MOVLB  5
019B6:  MOVWF  xD9
019B8:  MOVLB  0
019BA:  RCALL  1482
....................    Tpurgap[3]=read_eeprom(7); 
019BC:  MOVFF  FF2,5D0
019C0:  BCF    FF2.7
019C2:  CLRF   FAA
019C4:  MOVLW  07
019C6:  MOVWF  FA9
019C8:  BCF    FA6.6
019CA:  BCF    FA6.7
019CC:  BSF    FA6.0
019CE:  MOVF   FA8,W
019D0:  MOVLB  5
019D2:  BTFSC  xD0.7
019D4:  BSF    FF2.7
019D6:  MOVLB  4
019D8:  MOVWF  xF5
....................    delay_ms(10); 
019DA:  MOVLW  0A
019DC:  MOVLB  5
019DE:  MOVWF  xD9
019E0:  MOVLB  0
019E2:  RCALL  1482
....................    Tppurgap[0]=read_eeprom(8); 
019E4:  MOVFF  FF2,5D0
019E8:  BCF    FF2.7
019EA:  CLRF   FAA
019EC:  MOVLW  08
019EE:  MOVWF  FA9
019F0:  BCF    FA6.6
019F2:  BCF    FA6.7
019F4:  BSF    FA6.0
019F6:  MOVF   FA8,W
019F8:  MOVLB  5
019FA:  BTFSC  xD0.7
019FC:  BSF    FF2.7
019FE:  MOVLB  4
01A00:  MOVWF  xFA
....................    delay_ms(10); 
01A02:  MOVLW  0A
01A04:  MOVLB  5
01A06:  MOVWF  xD9
01A08:  MOVLB  0
01A0A:  RCALL  1482
....................    Tppurgap[1]=read_eeprom(9); 
01A0C:  MOVFF  FF2,5D0
01A10:  BCF    FF2.7
01A12:  CLRF   FAA
01A14:  MOVLW  09
01A16:  MOVWF  FA9
01A18:  BCF    FA6.6
01A1A:  BCF    FA6.7
01A1C:  BSF    FA6.0
01A1E:  MOVF   FA8,W
01A20:  MOVLB  5
01A22:  BTFSC  xD0.7
01A24:  BSF    FF2.7
01A26:  MOVLB  4
01A28:  MOVWF  xFB
....................    delay_ms(10); 
01A2A:  MOVLW  0A
01A2C:  MOVLB  5
01A2E:  MOVWF  xD9
01A30:  MOVLB  0
01A32:  RCALL  1482
....................    Tppurgap[2]=read_eeprom(10); 
01A34:  MOVFF  FF2,5D0
01A38:  BCF    FF2.7
01A3A:  CLRF   FAA
01A3C:  MOVLW  0A
01A3E:  MOVWF  FA9
01A40:  BCF    FA6.6
01A42:  BCF    FA6.7
01A44:  BSF    FA6.0
01A46:  MOVF   FA8,W
01A48:  MOVLB  5
01A4A:  BTFSC  xD0.7
01A4C:  BSF    FF2.7
01A4E:  MOVLB  4
01A50:  MOVWF  xFC
....................    delay_ms(10); 
01A52:  MOVLW  0A
01A54:  MOVLB  5
01A56:  MOVWF  xD9
01A58:  MOVLB  0
01A5A:  RCALL  1482
....................    Tppurgap[3]=read_eeprom(11); 
01A5C:  MOVFF  FF2,5D0
01A60:  BCF    FF2.7
01A62:  CLRF   FAA
01A64:  MOVLW  0B
01A66:  MOVWF  FA9
01A68:  BCF    FA6.6
01A6A:  BCF    FA6.7
01A6C:  BSF    FA6.0
01A6E:  MOVF   FA8,W
01A70:  MOVLB  5
01A72:  BTFSC  xD0.7
01A74:  BSF    FF2.7
01A76:  MOVLB  4
01A78:  MOVWF  xFD
....................    delay_ms(10); 
01A7A:  MOVLW  0A
01A7C:  MOVLB  5
01A7E:  MOVWF  xD9
01A80:  MOVLB  0
01A82:  RCALL  1482
....................    Tuv[0]=read_eeprom(12); 
01A84:  MOVFF  FF2,5D0
01A88:  BCF    FF2.7
01A8A:  CLRF   FAA
01A8C:  MOVLW  0C
01A8E:  MOVWF  FA9
01A90:  BCF    FA6.6
01A92:  BCF    FA6.7
01A94:  BSF    FA6.0
01A96:  MOVF   FA8,W
01A98:  MOVLB  5
01A9A:  BTFSC  xD0.7
01A9C:  BSF    FF2.7
01A9E:  MOVLB  4
01AA0:  MOVWF  xFE
....................    delay_ms(10); 
01AA2:  MOVLW  0A
01AA4:  MOVLB  5
01AA6:  MOVWF  xD9
01AA8:  MOVLB  0
01AAA:  RCALL  1482
....................    Tuv[1]=read_eeprom(13); 
01AAC:  MOVFF  FF2,5D0
01AB0:  BCF    FF2.7
01AB2:  CLRF   FAA
01AB4:  MOVLW  0D
01AB6:  MOVWF  FA9
01AB8:  BCF    FA6.6
01ABA:  BCF    FA6.7
01ABC:  BSF    FA6.0
01ABE:  MOVF   FA8,W
01AC0:  MOVLB  5
01AC2:  BTFSC  xD0.7
01AC4:  BSF    FF2.7
01AC6:  MOVLB  4
01AC8:  MOVWF  xFF
....................    delay_ms(10); 
01ACA:  MOVLW  0A
01ACC:  MOVLB  5
01ACE:  MOVWF  xD9
01AD0:  MOVLB  0
01AD2:  RCALL  1482
....................    Tuv[2]=read_eeprom(14); 
01AD4:  MOVFF  FF2,5D0
01AD8:  BCF    FF2.7
01ADA:  CLRF   FAA
01ADC:  MOVLW  0E
01ADE:  MOVWF  FA9
01AE0:  BCF    FA6.6
01AE2:  BCF    FA6.7
01AE4:  BSF    FA6.0
01AE6:  MOVF   FA8,W
01AE8:  MOVLB  5
01AEA:  BTFSC  xD0.7
01AEC:  BSF    FF2.7
01AEE:  MOVWF  x00
....................    delay_ms(10); 
01AF0:  MOVLW  0A
01AF2:  MOVWF  xD9
01AF4:  MOVLB  0
01AF6:  RCALL  1482
....................    Tuv[3]=read_eeprom(15); 
01AF8:  MOVFF  FF2,5D0
01AFC:  BCF    FF2.7
01AFE:  CLRF   FAA
01B00:  MOVLW  0F
01B02:  MOVWF  FA9
01B04:  BCF    FA6.6
01B06:  BCF    FA6.7
01B08:  BSF    FA6.0
01B0A:  MOVF   FA8,W
01B0C:  MOVLB  5
01B0E:  BTFSC  xD0.7
01B10:  BSF    FF2.7
01B12:  MOVWF  x01
....................    delay_ms(10); 
01B14:  MOVLW  0A
01B16:  MOVWF  xD9
01B18:  MOVLB  0
01B1A:  RCALL  1482
....................    Ttrabajo[0]=read_eeprom(16); 
01B1C:  MOVFF  FF2,5D0
01B20:  BCF    FF2.7
01B22:  CLRF   FAA
01B24:  MOVLW  10
01B26:  MOVWF  FA9
01B28:  BCF    FA6.6
01B2A:  BCF    FA6.7
01B2C:  BSF    FA6.0
01B2E:  MOVF   FA8,W
01B30:  MOVLB  5
01B32:  BTFSC  xD0.7
01B34:  BSF    FF2.7
01B36:  MOVWF  x0A
....................    delay_ms(10); 
01B38:  MOVLW  0A
01B3A:  MOVWF  xD9
01B3C:  MOVLB  0
01B3E:  RCALL  1482
....................    Ttrabajo[1]=read_eeprom(17); 
01B40:  MOVFF  FF2,5D0
01B44:  BCF    FF2.7
01B46:  CLRF   FAA
01B48:  MOVLW  11
01B4A:  MOVWF  FA9
01B4C:  BCF    FA6.6
01B4E:  BCF    FA6.7
01B50:  BSF    FA6.0
01B52:  MOVF   FA8,W
01B54:  MOVLB  5
01B56:  BTFSC  xD0.7
01B58:  BSF    FF2.7
01B5A:  MOVWF  x0B
....................    delay_ms(10); 
01B5C:  MOVLW  0A
01B5E:  MOVWF  xD9
01B60:  MOVLB  0
01B62:  RCALL  1482
....................    Ttrabajo[2]=read_eeprom(18); 
01B64:  MOVFF  FF2,5D0
01B68:  BCF    FF2.7
01B6A:  CLRF   FAA
01B6C:  MOVLW  12
01B6E:  MOVWF  FA9
01B70:  BCF    FA6.6
01B72:  BCF    FA6.7
01B74:  BSF    FA6.0
01B76:  MOVF   FA8,W
01B78:  MOVLB  5
01B7A:  BTFSC  xD0.7
01B7C:  BSF    FF2.7
01B7E:  MOVWF  x0C
....................    delay_ms(10); 
01B80:  MOVLW  0A
01B82:  MOVWF  xD9
01B84:  MOVLB  0
01B86:  RCALL  1482
....................    Ttrabajo[3]=read_eeprom(19); 
01B88:  MOVFF  FF2,5D0
01B8C:  BCF    FF2.7
01B8E:  CLRF   FAA
01B90:  MOVLW  13
01B92:  MOVWF  FA9
01B94:  BCF    FA6.6
01B96:  BCF    FA6.7
01B98:  BSF    FA6.0
01B9A:  MOVF   FA8,W
01B9C:  MOVLB  5
01B9E:  BTFSC  xD0.7
01BA0:  BSF    FF2.7
01BA2:  MOVWF  x0D
....................    delay_ms(10); 
01BA4:  MOVLW  0A
01BA6:  MOVWF  xD9
01BA8:  MOVLB  0
01BAA:  RCALL  1482
....................    //flag_alarma=read_eeprom(20); 
....................    //delay_ms(10); 
....................    Tempouvp[0]=read_eeprom(21); 
01BAC:  MOVFF  FF2,5D0
01BB0:  BCF    FF2.7
01BB2:  CLRF   FAA
01BB4:  MOVLW  15
01BB6:  MOVWF  FA9
01BB8:  BCF    FA6.6
01BBA:  BCF    FA6.7
01BBC:  BSF    FA6.0
01BBE:  MOVF   FA8,W
01BC0:  MOVLB  5
01BC2:  BTFSC  xD0.7
01BC4:  BSF    FF2.7
01BC6:  MOVWF  x06
....................    delay_ms(10); 
01BC8:  MOVLW  0A
01BCA:  MOVWF  xD9
01BCC:  MOVLB  0
01BCE:  RCALL  1482
....................    Tempouvp[1]=read_eeprom(22); 
01BD0:  MOVFF  FF2,5D0
01BD4:  BCF    FF2.7
01BD6:  CLRF   FAA
01BD8:  MOVLW  16
01BDA:  MOVWF  FA9
01BDC:  BCF    FA6.6
01BDE:  BCF    FA6.7
01BE0:  BSF    FA6.0
01BE2:  MOVF   FA8,W
01BE4:  MOVLB  5
01BE6:  BTFSC  xD0.7
01BE8:  BSF    FF2.7
01BEA:  MOVWF  x07
....................    delay_ms(10); 
01BEC:  MOVLW  0A
01BEE:  MOVWF  xD9
01BF0:  MOVLB  0
01BF2:  RCALL  1482
....................    Tempouvp[2]=read_eeprom(23); 
01BF4:  MOVFF  FF2,5D0
01BF8:  BCF    FF2.7
01BFA:  CLRF   FAA
01BFC:  MOVLW  17
01BFE:  MOVWF  FA9
01C00:  BCF    FA6.6
01C02:  BCF    FA6.7
01C04:  BSF    FA6.0
01C06:  MOVF   FA8,W
01C08:  MOVLB  5
01C0A:  BTFSC  xD0.7
01C0C:  BSF    FF2.7
01C0E:  MOVWF  x08
....................    delay_ms(10); 
01C10:  MOVLW  0A
01C12:  MOVWF  xD9
01C14:  MOVLB  0
01C16:  RCALL  1482
....................    Tempouvp[3]=read_eeprom(24); 
01C18:  MOVFF  FF2,5D0
01C1C:  BCF    FF2.7
01C1E:  CLRF   FAA
01C20:  MOVLW  18
01C22:  MOVWF  FA9
01C24:  BCF    FA6.6
01C26:  BCF    FA6.7
01C28:  BSF    FA6.0
01C2A:  MOVF   FA8,W
01C2C:  MOVLB  5
01C2E:  BTFSC  xD0.7
01C30:  BSF    FF2.7
01C32:  MOVWF  x09
....................     
....................    delay_ms(10); 
01C34:  MOVLW  0A
01C36:  MOVWF  xD9
01C38:  MOVLB  0
01C3A:  RCALL  1482
....................    Entero=read_eeprom(25);//Decimal1=read_eeprom(26); 
01C3C:  MOVFF  FF2,5D0
01C40:  BCF    FF2.7
01C42:  CLRF   FAA
01C44:  MOVLW  19
01C46:  MOVWF  FA9
01C48:  BCF    FA6.6
01C4A:  BCF    FA6.7
01C4C:  BSF    FA6.0
01C4E:  MOVF   FA8,W
01C50:  MOVLB  5
01C52:  BTFSC  xD0.7
01C54:  BSF    FF2.7
01C56:  MOVLB  4
01C58:  MOVWF  xD4
....................    delay_ms(10); 
01C5A:  MOVLW  0A
01C5C:  MOVLB  5
01C5E:  MOVWF  xD9
01C60:  MOVLB  0
01C62:  RCALL  1482
....................    Temporal=read_eeprom(26); 
01C64:  MOVFF  FF2,5D0
01C68:  BCF    FF2.7
01C6A:  CLRF   FAA
01C6C:  MOVLW  1A
01C6E:  MOVWF  FA9
01C70:  BCF    FA6.6
01C72:  BCF    FA6.7
01C74:  BSF    FA6.0
01C76:  MOVF   FA8,W
01C78:  MOVLB  5
01C7A:  BTFSC  xD0.7
01C7C:  BSF    FF2.7
01C7E:  CLRF   xD6
01C80:  MOVWF  xD5
01C82:  MOVLB  0
01C84:  RCALL  14AA
01C86:  MOVFF  03,549
01C8A:  MOVFF  02,548
01C8E:  MOVFF  01,547
01C92:  MOVFF  00,546
....................    delay_ms(10); 
01C96:  MOVLW  0A
01C98:  MOVLB  5
01C9A:  MOVWF  xD9
01C9C:  MOVLB  0
01C9E:  CALL   1482
....................    Temporal=Temporal/10.0; 
01CA2:  MOVFF  549,5D8
01CA6:  MOVFF  548,5D7
01CAA:  MOVFF  547,5D6
01CAE:  MOVFF  546,5D5
01CB2:  MOVLB  5
01CB4:  CLRF   xDC
01CB6:  CLRF   xDB
01CB8:  MOVLW  20
01CBA:  MOVWF  xDA
01CBC:  MOVLW  82
01CBE:  MOVWF  xD9
01CC0:  MOVLB  0
01CC2:  RCALL  14E0
01CC4:  MOVFF  03,549
01CC8:  MOVFF  02,548
01CCC:  MOVFF  01,547
01CD0:  MOVFF  00,546
....................    Ajuste1=Entero+Temporal; 
01CD4:  MOVLB  5
01CD6:  CLRF   xD6
01CD8:  MOVFF  4D4,5D5
01CDC:  MOVLB  0
01CDE:  CALL   14AA
01CE2:  BCF    FD8.1
01CE4:  MOVFF  03,5DC
01CE8:  MOVFF  02,5DB
01CEC:  MOVFF  01,5DA
01CF0:  MOVFF  00,5D9
01CF4:  MOVFF  549,5E0
01CF8:  MOVFF  548,5DF
01CFC:  MOVFF  547,5DE
01D00:  MOVFF  546,5DD
01D04:  RCALL  163E
01D06:  MOVFF  03,53D
01D0A:  MOVFF  02,53C
01D0E:  MOVFF  01,53B
01D12:  MOVFF  00,53A
....................     
....................     
....................    Entero=read_eeprom(27);//Decimal1=read_eeprom(26); 
01D16:  MOVFF  FF2,5D0
01D1A:  BCF    FF2.7
01D1C:  CLRF   FAA
01D1E:  MOVLW  1B
01D20:  MOVWF  FA9
01D22:  BCF    FA6.6
01D24:  BCF    FA6.7
01D26:  BSF    FA6.0
01D28:  MOVF   FA8,W
01D2A:  MOVLB  5
01D2C:  BTFSC  xD0.7
01D2E:  BSF    FF2.7
01D30:  MOVLB  4
01D32:  MOVWF  xD4
....................    delay_ms(10); 
01D34:  MOVLW  0A
01D36:  MOVLB  5
01D38:  MOVWF  xD9
01D3A:  MOVLB  0
01D3C:  CALL   1482
....................    Temporal=read_eeprom(28); 
01D40:  MOVFF  FF2,5D0
01D44:  BCF    FF2.7
01D46:  CLRF   FAA
01D48:  MOVLW  1C
01D4A:  MOVWF  FA9
01D4C:  BCF    FA6.6
01D4E:  BCF    FA6.7
01D50:  BSF    FA6.0
01D52:  MOVF   FA8,W
01D54:  MOVLB  5
01D56:  BTFSC  xD0.7
01D58:  BSF    FF2.7
01D5A:  CLRF   xD6
01D5C:  MOVWF  xD5
01D5E:  MOVLB  0
01D60:  CALL   14AA
01D64:  MOVFF  03,549
01D68:  MOVFF  02,548
01D6C:  MOVFF  01,547
01D70:  MOVFF  00,546
....................    delay_ms(10); 
01D74:  MOVLW  0A
01D76:  MOVLB  5
01D78:  MOVWF  xD9
01D7A:  MOVLB  0
01D7C:  CALL   1482
....................    Temporal=Temporal/10.0; 
01D80:  MOVFF  549,5D8
01D84:  MOVFF  548,5D7
01D88:  MOVFF  547,5D6
01D8C:  MOVFF  546,5D5
01D90:  MOVLB  5
01D92:  CLRF   xDC
01D94:  CLRF   xDB
01D96:  MOVLW  20
01D98:  MOVWF  xDA
01D9A:  MOVLW  82
01D9C:  MOVWF  xD9
01D9E:  MOVLB  0
01DA0:  CALL   14E0
01DA4:  MOVFF  03,549
01DA8:  MOVFF  02,548
01DAC:  MOVFF  01,547
01DB0:  MOVFF  00,546
....................    Ajuste2=Entero+Temporal; 
01DB4:  MOVLB  5
01DB6:  CLRF   xD6
01DB8:  MOVFF  4D4,5D5
01DBC:  MOVLB  0
01DBE:  CALL   14AA
01DC2:  BCF    FD8.1
01DC4:  MOVFF  03,5DC
01DC8:  MOVFF  02,5DB
01DCC:  MOVFF  01,5DA
01DD0:  MOVFF  00,5D9
01DD4:  MOVFF  549,5E0
01DD8:  MOVFF  548,5DF
01DDC:  MOVFF  547,5DE
01DE0:  MOVFF  546,5DD
01DE4:  RCALL  163E
01DE6:  MOVFF  03,541
01DEA:  MOVFF  02,540
01DEE:  MOVFF  01,53F
01DF2:  MOVFF  00,53E
....................     
....................    zero_actual=make16(read_eeprom(30),read_eeprom(29)); 
01DF6:  MOVFF  FF2,5D0
01DFA:  BCF    FF2.7
01DFC:  CLRF   FAA
01DFE:  MOVLW  1E
01E00:  MOVWF  FA9
01E02:  BCF    FA6.6
01E04:  BCF    FA6.7
01E06:  BSF    FA6.0
01E08:  MOVF   FA8,W
01E0A:  MOVLB  5
01E0C:  BTFSC  xD0.7
01E0E:  BSF    FF2.7
01E10:  MOVWF  xD1
01E12:  MOVFF  FF2,5D2
01E16:  BCF    FF2.7
01E18:  CLRF   FAA
01E1A:  MOVLW  1D
01E1C:  MOVWF  FA9
01E1E:  BCF    FA6.6
01E20:  BCF    FA6.7
01E22:  BSF    FA6.0
01E24:  MOVF   FA8,W
01E26:  BTFSC  xD2.7
01E28:  BSF    FF2.7
01E2A:  MOVWF  xD3
01E2C:  MOVFF  5D1,03
01E30:  MOVF   xD3,W
01E32:  MOVWF  xD5
01E34:  MOVFF  03,5D6
01E38:  MOVLB  0
01E3A:  CALL   14AA
01E3E:  MOVFF  03,5A9
01E42:  MOVFF  02,5A8
01E46:  MOVFF  01,5A7
01E4A:  MOVFF  00,5A6
....................    delay_ms(10); 
01E4E:  MOVLW  0A
01E50:  MOVLB  5
01E52:  MOVWF  xD9
01E54:  MOVLB  0
01E56:  CALL   1482
....................    minutos_trabajo=make16(read_eeprom(34),read_eeprom(33)); 
01E5A:  MOVFF  FF2,5D0
01E5E:  BCF    FF2.7
01E60:  CLRF   FAA
01E62:  MOVLW  22
01E64:  MOVWF  FA9
01E66:  BCF    FA6.6
01E68:  BCF    FA6.7
01E6A:  BSF    FA6.0
01E6C:  MOVF   FA8,W
01E6E:  MOVLB  5
01E70:  BTFSC  xD0.7
01E72:  BSF    FF2.7
01E74:  MOVWF  xD1
01E76:  MOVFF  FF2,5D2
01E7A:  BCF    FF2.7
01E7C:  CLRF   FAA
01E7E:  MOVLW  21
01E80:  MOVWF  FA9
01E82:  BCF    FA6.6
01E84:  BCF    FA6.7
01E86:  BSF    FA6.0
01E88:  MOVF   FA8,W
01E8A:  BTFSC  xD2.7
01E8C:  BSF    FF2.7
01E8E:  MOVWF  xD3
01E90:  MOVFF  5D1,4E5
01E94:  MOVFF  5D3,4E4
....................    delay_ms(10); 
01E98:  MOVLW  0A
01E9A:  MOVWF  xD9
01E9C:  MOVLB  0
01E9E:  CALL   1482
....................    minutos_uv=read_eeprom(31); 
01EA2:  MOVFF  FF2,5D0
01EA6:  BCF    FF2.7
01EA8:  CLRF   FAA
01EAA:  MOVLW  1F
01EAC:  MOVWF  FA9
01EAE:  BCF    FA6.6
01EB0:  BCF    FA6.7
01EB2:  BSF    FA6.0
01EB4:  MOVF   FA8,W
01EB6:  MOVLB  5
01EB8:  BTFSC  xD0.7
01EBA:  BSF    FF2.7
01EBC:  MOVLB  4
01EBE:  MOVWF  xCE
....................    delay_ms(10); 
01EC0:  MOVLW  0A
01EC2:  MOVLB  5
01EC4:  MOVWF  xD9
01EC6:  MOVLB  0
01EC8:  CALL   1482
....................    VelMotor=read_eeprom(32); 
01ECC:  MOVFF  FF2,5D0
01ED0:  BCF    FF2.7
01ED2:  CLRF   FAA
01ED4:  MOVLW  20
01ED6:  MOVWF  FA9
01ED8:  BCF    FA6.6
01EDA:  BCF    FA6.7
01EDC:  BSF    FA6.0
01EDE:  MOVF   FA8,W
01EE0:  MOVLB  5
01EE2:  BTFSC  xD0.7
01EE4:  BSF    FF2.7
01EE6:  MOVLB  4
01EE8:  MOVWF  xD8
....................    delay_ms(10); 
01EEA:  MOVLW  0A
01EEC:  MOVLB  5
01EEE:  MOVWF  xD9
01EF0:  MOVLB  0
01EF2:  CALL   1482
....................     
....................    Entero=read_eeprom(35); 
01EF6:  MOVFF  FF2,5D0
01EFA:  BCF    FF2.7
01EFC:  CLRF   FAA
01EFE:  MOVLW  23
01F00:  MOVWF  FA9
01F02:  BCF    FA6.6
01F04:  BCF    FA6.7
01F06:  BSF    FA6.0
01F08:  MOVF   FA8,W
01F0A:  MOVLB  5
01F0C:  BTFSC  xD0.7
01F0E:  BSF    FF2.7
01F10:  MOVLB  4
01F12:  MOVWF  xD4
....................    delay_ms(10); 
01F14:  MOVLW  0A
01F16:  MOVLB  5
01F18:  MOVWF  xD9
01F1A:  MOVLB  0
01F1C:  CALL   1482
....................    Temporal=read_eeprom(36); 
01F20:  MOVFF  FF2,5D0
01F24:  BCF    FF2.7
01F26:  CLRF   FAA
01F28:  MOVLW  24
01F2A:  MOVWF  FA9
01F2C:  BCF    FA6.6
01F2E:  BCF    FA6.7
01F30:  BSF    FA6.0
01F32:  MOVF   FA8,W
01F34:  MOVLB  5
01F36:  BTFSC  xD0.7
01F38:  BSF    FF2.7
01F3A:  CLRF   xD6
01F3C:  MOVWF  xD5
01F3E:  MOVLB  0
01F40:  CALL   14AA
01F44:  MOVFF  03,549
01F48:  MOVFF  02,548
01F4C:  MOVFF  01,547
01F50:  MOVFF  00,546
....................    delay_ms(10); 
01F54:  MOVLW  0A
01F56:  MOVLB  5
01F58:  MOVWF  xD9
01F5A:  MOVLB  0
01F5C:  CALL   1482
....................    Temporal=Temporal/100.0; 
01F60:  MOVFF  549,5D8
01F64:  MOVFF  548,5D7
01F68:  MOVFF  547,5D6
01F6C:  MOVFF  546,5D5
01F70:  MOVLB  5
01F72:  CLRF   xDC
01F74:  CLRF   xDB
01F76:  MOVLW  48
01F78:  MOVWF  xDA
01F7A:  MOVLW  85
01F7C:  MOVWF  xD9
01F7E:  MOVLB  0
01F80:  CALL   14E0
01F84:  MOVFF  03,549
01F88:  MOVFF  02,548
01F8C:  MOVFF  01,547
01F90:  MOVFF  00,546
....................    Relacion=Entero+Temporal; 
01F94:  MOVLB  5
01F96:  CLRF   xD6
01F98:  MOVFF  4D4,5D5
01F9C:  MOVLB  0
01F9E:  CALL   14AA
01FA2:  BCF    FD8.1
01FA4:  MOVFF  03,5DC
01FA8:  MOVFF  02,5DB
01FAC:  MOVFF  01,5DA
01FB0:  MOVFF  00,5D9
01FB4:  MOVFF  549,5E0
01FB8:  MOVFF  548,5DF
01FBC:  MOVFF  547,5DE
01FC0:  MOVFF  546,5DD
01FC4:  CALL   163E
01FC8:  MOVFF  03,5B9
01FCC:  MOVFF  02,5B8
01FD0:  MOVFF  01,5B7
01FD4:  MOVFF  00,5B6
....................     
....................    Diferencia=make16(read_eeprom(61),read_eeprom(60)); 
01FD8:  MOVFF  FF2,5D0
01FDC:  BCF    FF2.7
01FDE:  CLRF   FAA
01FE0:  MOVLW  3D
01FE2:  MOVWF  FA9
01FE4:  BCF    FA6.6
01FE6:  BCF    FA6.7
01FE8:  BSF    FA6.0
01FEA:  MOVF   FA8,W
01FEC:  MOVLB  5
01FEE:  BTFSC  xD0.7
01FF0:  BSF    FF2.7
01FF2:  MOVWF  xD1
01FF4:  MOVFF  FF2,5D2
01FF8:  BCF    FF2.7
01FFA:  CLRF   FAA
01FFC:  MOVLW  3C
01FFE:  MOVWF  FA9
02000:  BCF    FA6.6
02002:  BCF    FA6.7
02004:  BSF    FA6.0
02006:  MOVF   FA8,W
02008:  BTFSC  xD2.7
0200A:  BSF    FF2.7
0200C:  MOVWF  xD3
0200E:  MOVFF  5D1,03
02012:  MOVF   xD3,W
02014:  MOVWF  xD5
02016:  MOVFF  03,5D6
0201A:  MOVLB  0
0201C:  CALL   14AA
02020:  MOVFF  03,521
02024:  MOVFF  02,520
02028:  MOVFF  01,51F
0202C:  MOVFF  00,51E
....................    delay_ms(10); 
02030:  MOVLW  0A
02032:  MOVLB  5
02034:  MOVWF  xD9
02036:  MOVLB  0
02038:  CALL   1482
....................    G=make16(read_eeprom(63),read_eeprom(62)); 
0203C:  MOVFF  FF2,5D0
02040:  BCF    FF2.7
02042:  CLRF   FAA
02044:  MOVLW  3F
02046:  MOVWF  FA9
02048:  BCF    FA6.6
0204A:  BCF    FA6.7
0204C:  BSF    FA6.0
0204E:  MOVF   FA8,W
02050:  MOVLB  5
02052:  BTFSC  xD0.7
02054:  BSF    FF2.7
02056:  MOVWF  xD1
02058:  MOVFF  FF2,5D2
0205C:  BCF    FF2.7
0205E:  CLRF   FAA
02060:  MOVLW  3E
02062:  MOVWF  FA9
02064:  BCF    FA6.6
02066:  BCF    FA6.7
02068:  BSF    FA6.0
0206A:  MOVF   FA8,W
0206C:  BTFSC  xD2.7
0206E:  BSF    FF2.7
02070:  MOVWF  xD3
02072:  MOVFF  5D1,03
02076:  MOVF   xD3,W
02078:  MOVWF  xD5
0207A:  MOVFF  03,5D6
0207E:  MOVLB  0
02080:  CALL   14AA
02084:  MOVFF  03,5B5
02088:  MOVFF  02,5B4
0208C:  MOVFF  01,5B3
02090:  MOVFF  00,5B2
....................    delay_ms(10); 
02094:  MOVLW  0A
02096:  MOVLB  5
02098:  MOVWF  xD9
0209A:  MOVLB  0
0209C:  CALL   1482
....................    negativo=read_eeprom(50); 
020A0:  MOVFF  FF2,5D0
020A4:  BCF    FF2.7
020A6:  CLRF   FAA
020A8:  MOVLW  32
020AA:  MOVWF  FA9
020AC:  BCF    FA6.6
020AE:  BCF    FA6.7
020B0:  BSF    FA6.0
020B2:  MOVF   FA8,W
020B4:  MOVLB  5
020B6:  BTFSC  xD0.7
020B8:  BSF    FF2.7
020BA:  MOVLB  4
020BC:  MOVWF  xCA
....................    delay_ms(10); 
020BE:  MOVLW  0A
020C0:  MOVLB  5
020C2:  MOVWF  xD9
020C4:  MOVLB  0
020C6:  CALL   1482
....................  
.................... } 
020CA:  GOTO   4F4A (RETURN)
....................  
.................... void LimitaValores(void){ 
....................    if(Password[0]>9 || Password[0]<0){ 
*
02148:  MOVLB  5
0214A:  BTFSC  x12.7
0214C:  BRA    2154
0214E:  MOVF   x12,W
02150:  SUBLW  09
02152:  BNC   215A
02154:  BTFSC  x12.7
02156:  BRA    215A
02158:  BRA    2186
....................       Password[0]=0;write_eeprom(0,0); 
0215A:  CLRF   x12
0215C:  CLRF   FAA
0215E:  CLRF   FA9
02160:  CLRF   FA8
02162:  BCF    FA6.6
02164:  BCF    FA6.7
02166:  BSF    FA6.2
02168:  MOVF   FF2,W
0216A:  MOVWF  00
0216C:  BCF    FF2.7
0216E:  MOVLB  F
02170:  MOVLW  55
02172:  MOVWF  FA7
02174:  MOVLW  AA
02176:  MOVWF  FA7
02178:  BSF    FA6.1
0217A:  BTFSC  FA6.1
0217C:  BRA    217A
0217E:  BCF    FA6.2
02180:  MOVF   00,W
02182:  IORWF  FF2,F
02184:  MOVLB  5
....................    } 
....................    if(Password[1]>9 || Password[1]<0){ 
02186:  BTFSC  x13.7
02188:  BRA    2190
0218A:  MOVF   x13,W
0218C:  SUBLW  09
0218E:  BNC   2196
02190:  BTFSC  x13.7
02192:  BRA    2196
02194:  BRA    21C4
....................       Password[1]=0;write_eeprom(1,0); 
02196:  CLRF   x13
02198:  CLRF   FAA
0219A:  MOVLW  01
0219C:  MOVWF  FA9
0219E:  CLRF   FA8
021A0:  BCF    FA6.6
021A2:  BCF    FA6.7
021A4:  BSF    FA6.2
021A6:  MOVF   FF2,W
021A8:  MOVWF  00
021AA:  BCF    FF2.7
021AC:  MOVLB  F
021AE:  MOVLW  55
021B0:  MOVWF  FA7
021B2:  MOVLW  AA
021B4:  MOVWF  FA7
021B6:  BSF    FA6.1
021B8:  BTFSC  FA6.1
021BA:  BRA    21B8
021BC:  BCF    FA6.2
021BE:  MOVF   00,W
021C0:  IORWF  FF2,F
021C2:  MOVLB  5
....................    } 
....................    if(Password[2]>9 || Password[2]<0){ 
021C4:  BTFSC  x14.7
021C6:  BRA    21CE
021C8:  MOVF   x14,W
021CA:  SUBLW  09
021CC:  BNC   21D4
021CE:  BTFSC  x14.7
021D0:  BRA    21D4
021D2:  BRA    2202
....................       Password[2]=0;write_eeprom(2,0); 
021D4:  CLRF   x14
021D6:  CLRF   FAA
021D8:  MOVLW  02
021DA:  MOVWF  FA9
021DC:  CLRF   FA8
021DE:  BCF    FA6.6
021E0:  BCF    FA6.7
021E2:  BSF    FA6.2
021E4:  MOVF   FF2,W
021E6:  MOVWF  00
021E8:  BCF    FF2.7
021EA:  MOVLB  F
021EC:  MOVLW  55
021EE:  MOVWF  FA7
021F0:  MOVLW  AA
021F2:  MOVWF  FA7
021F4:  BSF    FA6.1
021F6:  BTFSC  FA6.1
021F8:  BRA    21F6
021FA:  BCF    FA6.2
021FC:  MOVF   00,W
021FE:  IORWF  FF2,F
02200:  MOVLB  5
....................    } 
....................    if(Password[3]>9 || Password[3]<0){ 
02202:  BTFSC  x15.7
02204:  BRA    220C
02206:  MOVF   x15,W
02208:  SUBLW  09
0220A:  BNC   2212
0220C:  BTFSC  x15.7
0220E:  BRA    2212
02210:  BRA    223E
....................       Password[3]=0;write_eeprom(3,0); 
02212:  CLRF   x15
02214:  CLRF   FAA
02216:  MOVLW  03
02218:  MOVWF  FA9
0221A:  CLRF   FA8
0221C:  BCF    FA6.6
0221E:  BCF    FA6.7
02220:  BSF    FA6.2
02222:  MOVF   FF2,W
02224:  MOVWF  00
02226:  BCF    FF2.7
02228:  MOVLB  F
0222A:  MOVLW  55
0222C:  MOVWF  FA7
0222E:  MOVLW  AA
02230:  MOVWF  FA7
02232:  BSF    FA6.1
02234:  BTFSC  FA6.1
02236:  BRA    2234
02238:  BCF    FA6.2
0223A:  MOVF   00,W
0223C:  IORWF  FF2,F
....................    } 
....................    if(Tpurgap[0]>9 || Tpurgap[0]<0){ 
0223E:  MOVLB  4
02240:  BTFSC  xF2.7
02242:  BRA    224A
02244:  MOVF   xF2,W
02246:  SUBLW  09
02248:  BNC   2250
0224A:  BTFSC  xF2.7
0224C:  BRA    2250
0224E:  BRA    227E
....................       Tpurgap[0]=0;write_eeprom(4,0); 
02250:  CLRF   xF2
02252:  CLRF   FAA
02254:  MOVLW  04
02256:  MOVWF  FA9
02258:  CLRF   FA8
0225A:  BCF    FA6.6
0225C:  BCF    FA6.7
0225E:  BSF    FA6.2
02260:  MOVF   FF2,W
02262:  MOVWF  00
02264:  BCF    FF2.7
02266:  MOVLB  F
02268:  MOVLW  55
0226A:  MOVWF  FA7
0226C:  MOVLW  AA
0226E:  MOVWF  FA7
02270:  BSF    FA6.1
02272:  BTFSC  FA6.1
02274:  BRA    2272
02276:  BCF    FA6.2
02278:  MOVF   00,W
0227A:  IORWF  FF2,F
0227C:  MOVLB  4
....................    } 
....................    if(Tpurgap[1]>9 || Tpurgap[1]<0){ 
0227E:  BTFSC  xF3.7
02280:  BRA    2288
02282:  MOVF   xF3,W
02284:  SUBLW  09
02286:  BNC   228E
02288:  BTFSC  xF3.7
0228A:  BRA    228E
0228C:  BRA    22BC
....................       Tpurgap[1]=0;write_eeprom(5,0); 
0228E:  CLRF   xF3
02290:  CLRF   FAA
02292:  MOVLW  05
02294:  MOVWF  FA9
02296:  CLRF   FA8
02298:  BCF    FA6.6
0229A:  BCF    FA6.7
0229C:  BSF    FA6.2
0229E:  MOVF   FF2,W
022A0:  MOVWF  00
022A2:  BCF    FF2.7
022A4:  MOVLB  F
022A6:  MOVLW  55
022A8:  MOVWF  FA7
022AA:  MOVLW  AA
022AC:  MOVWF  FA7
022AE:  BSF    FA6.1
022B0:  BTFSC  FA6.1
022B2:  BRA    22B0
022B4:  BCF    FA6.2
022B6:  MOVF   00,W
022B8:  IORWF  FF2,F
022BA:  MOVLB  4
....................    } 
....................    if(Tpurgap[2]>9 || Tpurgap[2]<0){ 
022BC:  BTFSC  xF4.7
022BE:  BRA    22C6
022C0:  MOVF   xF4,W
022C2:  SUBLW  09
022C4:  BNC   22CC
022C6:  BTFSC  xF4.7
022C8:  BRA    22CC
022CA:  BRA    22FE
....................       Tpurgap[2]=2;write_eeprom(6,2); 
022CC:  MOVLW  02
022CE:  MOVWF  xF4
022D0:  CLRF   FAA
022D2:  MOVLW  06
022D4:  MOVWF  FA9
022D6:  MOVLW  02
022D8:  MOVWF  FA8
022DA:  BCF    FA6.6
022DC:  BCF    FA6.7
022DE:  BSF    FA6.2
022E0:  MOVF   FF2,W
022E2:  MOVWF  00
022E4:  BCF    FF2.7
022E6:  MOVLB  F
022E8:  MOVLW  55
022EA:  MOVWF  FA7
022EC:  MOVLW  AA
022EE:  MOVWF  FA7
022F0:  BSF    FA6.1
022F2:  BTFSC  FA6.1
022F4:  BRA    22F2
022F6:  BCF    FA6.2
022F8:  MOVF   00,W
022FA:  IORWF  FF2,F
022FC:  MOVLB  4
....................    } 
....................    if(Tpurgap[3]>9 || Tpurgap[3]<0){ 
022FE:  BTFSC  xF5.7
02300:  BRA    2308
02302:  MOVF   xF5,W
02304:  SUBLW  09
02306:  BNC   230E
02308:  BTFSC  xF5.7
0230A:  BRA    230E
0230C:  BRA    233C
....................       Tpurgap[3]=0;write_eeprom(7,0); 
0230E:  CLRF   xF5
02310:  CLRF   FAA
02312:  MOVLW  07
02314:  MOVWF  FA9
02316:  CLRF   FA8
02318:  BCF    FA6.6
0231A:  BCF    FA6.7
0231C:  BSF    FA6.2
0231E:  MOVF   FF2,W
02320:  MOVWF  00
02322:  BCF    FF2.7
02324:  MOVLB  F
02326:  MOVLW  55
02328:  MOVWF  FA7
0232A:  MOVLW  AA
0232C:  MOVWF  FA7
0232E:  BSF    FA6.1
02330:  BTFSC  FA6.1
02332:  BRA    2330
02334:  BCF    FA6.2
02336:  MOVF   00,W
02338:  IORWF  FF2,F
0233A:  MOVLB  4
....................    } 
....................    if(Tppurgap[0]>9 || Tppurgap[0]<0){ 
0233C:  BTFSC  xFA.7
0233E:  BRA    2346
02340:  MOVF   xFA,W
02342:  SUBLW  09
02344:  BNC   234C
02346:  BTFSC  xFA.7
02348:  BRA    234C
0234A:  BRA    237A
....................       Tppurgap[0]=0;write_eeprom(8,0); 
0234C:  CLRF   xFA
0234E:  CLRF   FAA
02350:  MOVLW  08
02352:  MOVWF  FA9
02354:  CLRF   FA8
02356:  BCF    FA6.6
02358:  BCF    FA6.7
0235A:  BSF    FA6.2
0235C:  MOVF   FF2,W
0235E:  MOVWF  00
02360:  BCF    FF2.7
02362:  MOVLB  F
02364:  MOVLW  55
02366:  MOVWF  FA7
02368:  MOVLW  AA
0236A:  MOVWF  FA7
0236C:  BSF    FA6.1
0236E:  BTFSC  FA6.1
02370:  BRA    236E
02372:  BCF    FA6.2
02374:  MOVF   00,W
02376:  IORWF  FF2,F
02378:  MOVLB  4
....................    } 
....................    if(Tppurgap[1]>9 || Tppurgap[1]<0){ 
0237A:  BTFSC  xFB.7
0237C:  BRA    2384
0237E:  MOVF   xFB,W
02380:  SUBLW  09
02382:  BNC   238A
02384:  BTFSC  xFB.7
02386:  BRA    238A
02388:  BRA    23B8
....................       Tppurgap[1]=0;write_eeprom(9,0); 
0238A:  CLRF   xFB
0238C:  CLRF   FAA
0238E:  MOVLW  09
02390:  MOVWF  FA9
02392:  CLRF   FA8
02394:  BCF    FA6.6
02396:  BCF    FA6.7
02398:  BSF    FA6.2
0239A:  MOVF   FF2,W
0239C:  MOVWF  00
0239E:  BCF    FF2.7
023A0:  MOVLB  F
023A2:  MOVLW  55
023A4:  MOVWF  FA7
023A6:  MOVLW  AA
023A8:  MOVWF  FA7
023AA:  BSF    FA6.1
023AC:  BTFSC  FA6.1
023AE:  BRA    23AC
023B0:  BCF    FA6.2
023B2:  MOVF   00,W
023B4:  IORWF  FF2,F
023B6:  MOVLB  4
....................    } 
....................    if(Tppurgap[2]>9 || Tppurgap[2]<0){ 
023B8:  BTFSC  xFC.7
023BA:  BRA    23C2
023BC:  MOVF   xFC,W
023BE:  SUBLW  09
023C0:  BNC   23C8
023C2:  BTFSC  xFC.7
023C4:  BRA    23C8
023C6:  BRA    23FA
....................       Tppurgap[2]=2;write_eeprom(10,2); 
023C8:  MOVLW  02
023CA:  MOVWF  xFC
023CC:  CLRF   FAA
023CE:  MOVLW  0A
023D0:  MOVWF  FA9
023D2:  MOVLW  02
023D4:  MOVWF  FA8
023D6:  BCF    FA6.6
023D8:  BCF    FA6.7
023DA:  BSF    FA6.2
023DC:  MOVF   FF2,W
023DE:  MOVWF  00
023E0:  BCF    FF2.7
023E2:  MOVLB  F
023E4:  MOVLW  55
023E6:  MOVWF  FA7
023E8:  MOVLW  AA
023EA:  MOVWF  FA7
023EC:  BSF    FA6.1
023EE:  BTFSC  FA6.1
023F0:  BRA    23EE
023F2:  BCF    FA6.2
023F4:  MOVF   00,W
023F6:  IORWF  FF2,F
023F8:  MOVLB  4
....................    } 
....................    if(Tppurgap[3]>9 || Tppurgap[3]<0){ 
023FA:  BTFSC  xFD.7
023FC:  BRA    2404
023FE:  MOVF   xFD,W
02400:  SUBLW  09
02402:  BNC   240A
02404:  BTFSC  xFD.7
02406:  BRA    240A
02408:  BRA    2438
....................       Tppurgap[3]=0;write_eeprom(11,0); 
0240A:  CLRF   xFD
0240C:  CLRF   FAA
0240E:  MOVLW  0B
02410:  MOVWF  FA9
02412:  CLRF   FA8
02414:  BCF    FA6.6
02416:  BCF    FA6.7
02418:  BSF    FA6.2
0241A:  MOVF   FF2,W
0241C:  MOVWF  00
0241E:  BCF    FF2.7
02420:  MOVLB  F
02422:  MOVLW  55
02424:  MOVWF  FA7
02426:  MOVLW  AA
02428:  MOVWF  FA7
0242A:  BSF    FA6.1
0242C:  BTFSC  FA6.1
0242E:  BRA    242C
02430:  BCF    FA6.2
02432:  MOVF   00,W
02434:  IORWF  FF2,F
02436:  MOVLB  4
....................    } 
....................    if(Tuv[0]>9 || Tuv[0]<0){ 
02438:  BTFSC  xFE.7
0243A:  BRA    2442
0243C:  MOVF   xFE,W
0243E:  SUBLW  09
02440:  BNC   2448
02442:  BTFSC  xFE.7
02444:  BRA    2448
02446:  BRA    2476
....................       Tuv[0]=0;write_eeprom(12,0); 
02448:  CLRF   xFE
0244A:  CLRF   FAA
0244C:  MOVLW  0C
0244E:  MOVWF  FA9
02450:  CLRF   FA8
02452:  BCF    FA6.6
02454:  BCF    FA6.7
02456:  BSF    FA6.2
02458:  MOVF   FF2,W
0245A:  MOVWF  00
0245C:  BCF    FF2.7
0245E:  MOVLB  F
02460:  MOVLW  55
02462:  MOVWF  FA7
02464:  MOVLW  AA
02466:  MOVWF  FA7
02468:  BSF    FA6.1
0246A:  BTFSC  FA6.1
0246C:  BRA    246A
0246E:  BCF    FA6.2
02470:  MOVF   00,W
02472:  IORWF  FF2,F
02474:  MOVLB  4
....................    } 
....................    if(Tuv[1]>9 || Tuv[1]<0){ 
02476:  BTFSC  xFF.7
02478:  BRA    2480
0247A:  MOVF   xFF,W
0247C:  SUBLW  09
0247E:  BNC   2486
02480:  BTFSC  xFF.7
02482:  BRA    2486
02484:  BRA    24B2
....................       Tuv[1]=0;write_eeprom(13,0); 
02486:  CLRF   xFF
02488:  CLRF   FAA
0248A:  MOVLW  0D
0248C:  MOVWF  FA9
0248E:  CLRF   FA8
02490:  BCF    FA6.6
02492:  BCF    FA6.7
02494:  BSF    FA6.2
02496:  MOVF   FF2,W
02498:  MOVWF  00
0249A:  BCF    FF2.7
0249C:  MOVLB  F
0249E:  MOVLW  55
024A0:  MOVWF  FA7
024A2:  MOVLW  AA
024A4:  MOVWF  FA7
024A6:  BSF    FA6.1
024A8:  BTFSC  FA6.1
024AA:  BRA    24A8
024AC:  BCF    FA6.2
024AE:  MOVF   00,W
024B0:  IORWF  FF2,F
....................    } 
....................    if(Tuv[2]>9 || Tuv[2]<0){ 
024B2:  MOVLB  5
024B4:  BTFSC  x00.7
024B6:  BRA    24BE
024B8:  MOVF   x00,W
024BA:  SUBLW  09
024BC:  BNC   24C4
024BE:  BTFSC  x00.7
024C0:  BRA    24C4
024C2:  BRA    24F2
....................       Tuv[2]=0;write_eeprom(14,0); 
024C4:  CLRF   x00
024C6:  CLRF   FAA
024C8:  MOVLW  0E
024CA:  MOVWF  FA9
024CC:  CLRF   FA8
024CE:  BCF    FA6.6
024D0:  BCF    FA6.7
024D2:  BSF    FA6.2
024D4:  MOVF   FF2,W
024D6:  MOVWF  00
024D8:  BCF    FF2.7
024DA:  MOVLB  F
024DC:  MOVLW  55
024DE:  MOVWF  FA7
024E0:  MOVLW  AA
024E2:  MOVWF  FA7
024E4:  BSF    FA6.1
024E6:  BTFSC  FA6.1
024E8:  BRA    24E6
024EA:  BCF    FA6.2
024EC:  MOVF   00,W
024EE:  IORWF  FF2,F
024F0:  MOVLB  5
....................    } 
....................    if(Tuv[3]>9 || Tuv[3]<0){ 
024F2:  BTFSC  x01.7
024F4:  BRA    24FC
024F6:  MOVF   x01,W
024F8:  SUBLW  09
024FA:  BNC   2502
024FC:  BTFSC  x01.7
024FE:  BRA    2502
02500:  BRA    2530
....................       Tuv[3]=0;write_eeprom(15,0); 
02502:  CLRF   x01
02504:  CLRF   FAA
02506:  MOVLW  0F
02508:  MOVWF  FA9
0250A:  CLRF   FA8
0250C:  BCF    FA6.6
0250E:  BCF    FA6.7
02510:  BSF    FA6.2
02512:  MOVF   FF2,W
02514:  MOVWF  00
02516:  BCF    FF2.7
02518:  MOVLB  F
0251A:  MOVLW  55
0251C:  MOVWF  FA7
0251E:  MOVLW  AA
02520:  MOVWF  FA7
02522:  BSF    FA6.1
02524:  BTFSC  FA6.1
02526:  BRA    2524
02528:  BCF    FA6.2
0252A:  MOVF   00,W
0252C:  IORWF  FF2,F
0252E:  MOVLB  5
....................    } 
....................    if(Ttrabajo[0]>9 || Ttrabajo[0]<0){ 
02530:  BTFSC  x0A.7
02532:  BRA    253A
02534:  MOVF   x0A,W
02536:  SUBLW  09
02538:  BNC   2540
0253A:  BTFSC  x0A.7
0253C:  BRA    2540
0253E:  BRA    256E
....................       Ttrabajo[0]=0;write_eeprom(16,0); 
02540:  CLRF   x0A
02542:  CLRF   FAA
02544:  MOVLW  10
02546:  MOVWF  FA9
02548:  CLRF   FA8
0254A:  BCF    FA6.6
0254C:  BCF    FA6.7
0254E:  BSF    FA6.2
02550:  MOVF   FF2,W
02552:  MOVWF  00
02554:  BCF    FF2.7
02556:  MOVLB  F
02558:  MOVLW  55
0255A:  MOVWF  FA7
0255C:  MOVLW  AA
0255E:  MOVWF  FA7
02560:  BSF    FA6.1
02562:  BTFSC  FA6.1
02564:  BRA    2562
02566:  BCF    FA6.2
02568:  MOVF   00,W
0256A:  IORWF  FF2,F
0256C:  MOVLB  5
....................    } 
....................    if(Ttrabajo[1]>9 || Ttrabajo[1]<0){ 
0256E:  BTFSC  x0B.7
02570:  BRA    2578
02572:  MOVF   x0B,W
02574:  SUBLW  09
02576:  BNC   257E
02578:  BTFSC  x0B.7
0257A:  BRA    257E
0257C:  BRA    25AC
....................       Ttrabajo[1]=0;write_eeprom(17,0); 
0257E:  CLRF   x0B
02580:  CLRF   FAA
02582:  MOVLW  11
02584:  MOVWF  FA9
02586:  CLRF   FA8
02588:  BCF    FA6.6
0258A:  BCF    FA6.7
0258C:  BSF    FA6.2
0258E:  MOVF   FF2,W
02590:  MOVWF  00
02592:  BCF    FF2.7
02594:  MOVLB  F
02596:  MOVLW  55
02598:  MOVWF  FA7
0259A:  MOVLW  AA
0259C:  MOVWF  FA7
0259E:  BSF    FA6.1
025A0:  BTFSC  FA6.1
025A2:  BRA    25A0
025A4:  BCF    FA6.2
025A6:  MOVF   00,W
025A8:  IORWF  FF2,F
025AA:  MOVLB  5
....................    } 
....................    if(Ttrabajo[2]>9 || Ttrabajo[2]<0){ 
025AC:  BTFSC  x0C.7
025AE:  BRA    25B6
025B0:  MOVF   x0C,W
025B2:  SUBLW  09
025B4:  BNC   25BC
025B6:  BTFSC  x0C.7
025B8:  BRA    25BC
025BA:  BRA    25EA
....................       Ttrabajo[2]=0;write_eeprom(18,0); 
025BC:  CLRF   x0C
025BE:  CLRF   FAA
025C0:  MOVLW  12
025C2:  MOVWF  FA9
025C4:  CLRF   FA8
025C6:  BCF    FA6.6
025C8:  BCF    FA6.7
025CA:  BSF    FA6.2
025CC:  MOVF   FF2,W
025CE:  MOVWF  00
025D0:  BCF    FF2.7
025D2:  MOVLB  F
025D4:  MOVLW  55
025D6:  MOVWF  FA7
025D8:  MOVLW  AA
025DA:  MOVWF  FA7
025DC:  BSF    FA6.1
025DE:  BTFSC  FA6.1
025E0:  BRA    25DE
025E2:  BCF    FA6.2
025E4:  MOVF   00,W
025E6:  IORWF  FF2,F
025E8:  MOVLB  5
....................    } 
....................    if(Ttrabajo[3]>9 || Ttrabajo[3]<0){ 
025EA:  BTFSC  x0D.7
025EC:  BRA    25F4
025EE:  MOVF   x0D,W
025F0:  SUBLW  09
025F2:  BNC   25FA
025F4:  BTFSC  x0D.7
025F6:  BRA    25FA
025F8:  BRA    2628
....................       Ttrabajo[3]=0;write_eeprom(19,0); 
025FA:  CLRF   x0D
025FC:  CLRF   FAA
025FE:  MOVLW  13
02600:  MOVWF  FA9
02602:  CLRF   FA8
02604:  BCF    FA6.6
02606:  BCF    FA6.7
02608:  BSF    FA6.2
0260A:  MOVF   FF2,W
0260C:  MOVWF  00
0260E:  BCF    FF2.7
02610:  MOVLB  F
02612:  MOVLW  55
02614:  MOVWF  FA7
02616:  MOVLW  AA
02618:  MOVWF  FA7
0261A:  BSF    FA6.1
0261C:  BTFSC  FA6.1
0261E:  BRA    261C
02620:  BCF    FA6.2
02622:  MOVF   00,W
02624:  IORWF  FF2,F
02626:  MOVLB  5
....................    } 
....................    if(Tempouvp[0]>9 || Tempouvp[0]<0){ 
02628:  BTFSC  x06.7
0262A:  BRA    2632
0262C:  MOVF   x06,W
0262E:  SUBLW  09
02630:  BNC   2638
02632:  BTFSC  x06.7
02634:  BRA    2638
02636:  BRA    2666
....................       Tempouvp[0]=0;write_eeprom(21,0); 
02638:  CLRF   x06
0263A:  CLRF   FAA
0263C:  MOVLW  15
0263E:  MOVWF  FA9
02640:  CLRF   FA8
02642:  BCF    FA6.6
02644:  BCF    FA6.7
02646:  BSF    FA6.2
02648:  MOVF   FF2,W
0264A:  MOVWF  00
0264C:  BCF    FF2.7
0264E:  MOVLB  F
02650:  MOVLW  55
02652:  MOVWF  FA7
02654:  MOVLW  AA
02656:  MOVWF  FA7
02658:  BSF    FA6.1
0265A:  BTFSC  FA6.1
0265C:  BRA    265A
0265E:  BCF    FA6.2
02660:  MOVF   00,W
02662:  IORWF  FF2,F
02664:  MOVLB  5
....................    } 
....................    if(Tempouvp[1]>9 || Tempouvp[1]<0){ 
02666:  BTFSC  x07.7
02668:  BRA    2670
0266A:  MOVF   x07,W
0266C:  SUBLW  09
0266E:  BNC   2676
02670:  BTFSC  x07.7
02672:  BRA    2676
02674:  BRA    26A4
....................       Tempouvp[1]=0;write_eeprom(22,0); 
02676:  CLRF   x07
02678:  CLRF   FAA
0267A:  MOVLW  16
0267C:  MOVWF  FA9
0267E:  CLRF   FA8
02680:  BCF    FA6.6
02682:  BCF    FA6.7
02684:  BSF    FA6.2
02686:  MOVF   FF2,W
02688:  MOVWF  00
0268A:  BCF    FF2.7
0268C:  MOVLB  F
0268E:  MOVLW  55
02690:  MOVWF  FA7
02692:  MOVLW  AA
02694:  MOVWF  FA7
02696:  BSF    FA6.1
02698:  BTFSC  FA6.1
0269A:  BRA    2698
0269C:  BCF    FA6.2
0269E:  MOVF   00,W
026A0:  IORWF  FF2,F
026A2:  MOVLB  5
....................    } 
....................    if(Tempouvp[2]>9 || Tempouvp[2]<0){ 
026A4:  BTFSC  x08.7
026A6:  BRA    26AE
026A8:  MOVF   x08,W
026AA:  SUBLW  09
026AC:  BNC   26B4
026AE:  BTFSC  x08.7
026B0:  BRA    26B4
026B2:  BRA    26E2
....................       Tempouvp[2]=0;write_eeprom(23,0); 
026B4:  CLRF   x08
026B6:  CLRF   FAA
026B8:  MOVLW  17
026BA:  MOVWF  FA9
026BC:  CLRF   FA8
026BE:  BCF    FA6.6
026C0:  BCF    FA6.7
026C2:  BSF    FA6.2
026C4:  MOVF   FF2,W
026C6:  MOVWF  00
026C8:  BCF    FF2.7
026CA:  MOVLB  F
026CC:  MOVLW  55
026CE:  MOVWF  FA7
026D0:  MOVLW  AA
026D2:  MOVWF  FA7
026D4:  BSF    FA6.1
026D6:  BTFSC  FA6.1
026D8:  BRA    26D6
026DA:  BCF    FA6.2
026DC:  MOVF   00,W
026DE:  IORWF  FF2,F
026E0:  MOVLB  5
....................    } 
....................    if(Tempouvp[3]>9 || Tempouvp[3]<0){ 
026E2:  BTFSC  x09.7
026E4:  BRA    26EC
026E6:  MOVF   x09,W
026E8:  SUBLW  09
026EA:  BNC   26F2
026EC:  BTFSC  x09.7
026EE:  BRA    26F2
026F0:  BRA    2724
....................       Tempouvp[3]=1;write_eeprom(24,1); 
026F2:  MOVLW  01
026F4:  MOVWF  x09
026F6:  CLRF   FAA
026F8:  MOVLW  18
026FA:  MOVWF  FA9
026FC:  MOVLW  01
026FE:  MOVWF  FA8
02700:  BCF    FA6.6
02702:  BCF    FA6.7
02704:  BSF    FA6.2
02706:  MOVF   FF2,W
02708:  MOVWF  00
0270A:  BCF    FF2.7
0270C:  MOVLB  F
0270E:  MOVLW  55
02710:  MOVWF  FA7
02712:  MOVLW  AA
02714:  MOVWF  FA7
02716:  BSF    FA6.1
02718:  BTFSC  FA6.1
0271A:  BRA    2718
0271C:  BCF    FA6.2
0271E:  MOVF   00,W
02720:  IORWF  FF2,F
02722:  MOVLB  5
....................    } 
....................    if(Ajuste1>25.0){ 
02724:  CLRF   xD8
02726:  CLRF   xD7
02728:  MOVLW  48
0272A:  MOVWF  xD6
0272C:  MOVLW  83
0272E:  MOVWF  xD5
02730:  MOVFF  53D,5DC
02734:  MOVFF  53C,5DB
02738:  MOVFF  53B,5DA
0273C:  MOVFF  53A,5D9
02740:  MOVLB  0
02742:  RCALL  20CE
02744:  BNC   27AA
....................       Ajuste1=1.5;write_eeprom(25,1);write_eeprom(26,5); 
02746:  MOVLB  5
02748:  CLRF   x3D
0274A:  CLRF   x3C
0274C:  MOVLW  40
0274E:  MOVWF  x3B
02750:  MOVLW  7F
02752:  MOVWF  x3A
02754:  CLRF   FAA
02756:  MOVLW  19
02758:  MOVWF  FA9
0275A:  MOVLW  01
0275C:  MOVWF  FA8
0275E:  BCF    FA6.6
02760:  BCF    FA6.7
02762:  BSF    FA6.2
02764:  MOVF   FF2,W
02766:  MOVWF  00
02768:  BCF    FF2.7
0276A:  MOVLB  F
0276C:  MOVLW  55
0276E:  MOVWF  FA7
02770:  MOVLW  AA
02772:  MOVWF  FA7
02774:  BSF    FA6.1
02776:  BTFSC  FA6.1
02778:  BRA    2776
0277A:  BCF    FA6.2
0277C:  MOVF   00,W
0277E:  IORWF  FF2,F
02780:  CLRF   FAA
02782:  MOVLW  1A
02784:  MOVWF  FA9
02786:  MOVLW  05
02788:  MOVWF  FA8
0278A:  BCF    FA6.6
0278C:  BCF    FA6.7
0278E:  BSF    FA6.2
02790:  MOVF   FF2,W
02792:  MOVWF  00
02794:  BCF    FF2.7
02796:  MOVLW  55
02798:  MOVWF  FA7
0279A:  MOVLW  AA
0279C:  MOVWF  FA7
0279E:  BSF    FA6.1
027A0:  BTFSC  FA6.1
027A2:  BRA    27A0
027A4:  BCF    FA6.2
027A6:  MOVF   00,W
027A8:  IORWF  FF2,F
....................    } 
....................    if(Ajuste2>25.0){ 
027AA:  MOVLB  5
027AC:  CLRF   xD8
027AE:  CLRF   xD7
027B0:  MOVLW  48
027B2:  MOVWF  xD6
027B4:  MOVLW  83
027B6:  MOVWF  xD5
027B8:  MOVFF  541,5DC
027BC:  MOVFF  540,5DB
027C0:  MOVFF  53F,5DA
027C4:  MOVFF  53E,5D9
027C8:  MOVLB  0
027CA:  RCALL  20CE
027CC:  BNC   282E
....................       Ajuste2=1.0;write_eeprom(27,1);write_eeprom(28,0); 
027CE:  MOVLB  5
027D0:  CLRF   x41
027D2:  CLRF   x40
027D4:  CLRF   x3F
027D6:  MOVLW  7F
027D8:  MOVWF  x3E
027DA:  CLRF   FAA
027DC:  MOVLW  1B
027DE:  MOVWF  FA9
027E0:  MOVLW  01
027E2:  MOVWF  FA8
027E4:  BCF    FA6.6
027E6:  BCF    FA6.7
027E8:  BSF    FA6.2
027EA:  MOVF   FF2,W
027EC:  MOVWF  00
027EE:  BCF    FF2.7
027F0:  MOVLB  F
027F2:  MOVLW  55
027F4:  MOVWF  FA7
027F6:  MOVLW  AA
027F8:  MOVWF  FA7
027FA:  BSF    FA6.1
027FC:  BTFSC  FA6.1
027FE:  BRA    27FC
02800:  BCF    FA6.2
02802:  MOVF   00,W
02804:  IORWF  FF2,F
02806:  CLRF   FAA
02808:  MOVLW  1C
0280A:  MOVWF  FA9
0280C:  CLRF   FA8
0280E:  BCF    FA6.6
02810:  BCF    FA6.7
02812:  BSF    FA6.2
02814:  MOVF   FF2,W
02816:  MOVWF  00
02818:  BCF    FF2.7
0281A:  MOVLW  55
0281C:  MOVWF  FA7
0281E:  MOVLW  AA
02820:  MOVWF  FA7
02822:  BSF    FA6.1
02824:  BTFSC  FA6.1
02826:  BRA    2824
02828:  BCF    FA6.2
0282A:  MOVF   00,W
0282C:  IORWF  FF2,F
....................    } 
....................    if(zero_actual>300){ 
0282E:  MOVLB  5
02830:  CLRF   xD8
02832:  CLRF   xD7
02834:  MOVLW  16
02836:  MOVWF  xD6
02838:  MOVLW  87
0283A:  MOVWF  xD5
0283C:  MOVFF  5A9,5DC
02840:  MOVFF  5A8,5DB
02844:  MOVFF  5A7,5DA
02848:  MOVFF  5A6,5D9
0284C:  MOVLB  0
0284E:  RCALL  20CE
02850:  BNC   28B4
....................       zero_actual=203;write_eeprom(29,203);write_eeprom(30,0); 
02852:  MOVLB  5
02854:  CLRF   xA9
02856:  CLRF   xA8
02858:  MOVLW  4B
0285A:  MOVWF  xA7
0285C:  MOVLW  86
0285E:  MOVWF  xA6
02860:  CLRF   FAA
02862:  MOVLW  1D
02864:  MOVWF  FA9
02866:  MOVLW  CB
02868:  MOVWF  FA8
0286A:  BCF    FA6.6
0286C:  BCF    FA6.7
0286E:  BSF    FA6.2
02870:  MOVF   FF2,W
02872:  MOVWF  00
02874:  BCF    FF2.7
02876:  MOVLB  F
02878:  MOVLW  55
0287A:  MOVWF  FA7
0287C:  MOVLW  AA
0287E:  MOVWF  FA7
02880:  BSF    FA6.1
02882:  BTFSC  FA6.1
02884:  BRA    2882
02886:  BCF    FA6.2
02888:  MOVF   00,W
0288A:  IORWF  FF2,F
0288C:  CLRF   FAA
0288E:  MOVLW  1E
02890:  MOVWF  FA9
02892:  CLRF   FA8
02894:  BCF    FA6.6
02896:  BCF    FA6.7
02898:  BSF    FA6.2
0289A:  MOVF   FF2,W
0289C:  MOVWF  00
0289E:  BCF    FF2.7
028A0:  MOVLW  55
028A2:  MOVWF  FA7
028A4:  MOVLW  AA
028A6:  MOVWF  FA7
028A8:  BSF    FA6.1
028AA:  BTFSC  FA6.1
028AC:  BRA    28AA
028AE:  BCF    FA6.2
028B0:  MOVF   00,W
028B2:  IORWF  FF2,F
....................    } 
....................    if(minutos_uv>60){ 
028B4:  MOVLB  4
028B6:  MOVF   xCE,W
028B8:  SUBLW  3C
028BA:  BC    28EA
....................       minutos_uv=0;write_eeprom(31,0); 
028BC:  CLRF   xCE
028BE:  CLRF   FAA
028C0:  MOVLW  1F
028C2:  MOVWF  FA9
028C4:  CLRF   FA8
028C6:  BCF    FA6.6
028C8:  BCF    FA6.7
028CA:  BSF    FA6.2
028CC:  MOVF   FF2,W
028CE:  MOVWF  00
028D0:  BCF    FF2.7
028D2:  MOVLB  F
028D4:  MOVLW  55
028D6:  MOVWF  FA7
028D8:  MOVLW  AA
028DA:  MOVWF  FA7
028DC:  BSF    FA6.1
028DE:  BTFSC  FA6.1
028E0:  BRA    28DE
028E2:  BCF    FA6.2
028E4:  MOVF   00,W
028E6:  IORWF  FF2,F
028E8:  MOVLB  4
....................    } 
....................    if(VelMotor>6){ 
028EA:  MOVF   xD8,W
028EC:  SUBLW  06
028EE:  BC    2922
....................       VelMotor=2;write_eeprom(32,2); 
028F0:  MOVLW  02
028F2:  MOVWF  xD8
028F4:  CLRF   FAA
028F6:  MOVLW  20
028F8:  MOVWF  FA9
028FA:  MOVLW  02
028FC:  MOVWF  FA8
028FE:  BCF    FA6.6
02900:  BCF    FA6.7
02902:  BSF    FA6.2
02904:  MOVF   FF2,W
02906:  MOVWF  00
02908:  BCF    FF2.7
0290A:  MOVLB  F
0290C:  MOVLW  55
0290E:  MOVWF  FA7
02910:  MOVLW  AA
02912:  MOVWF  FA7
02914:  BSF    FA6.1
02916:  BTFSC  FA6.1
02918:  BRA    2916
0291A:  BCF    FA6.2
0291C:  MOVF   00,W
0291E:  IORWF  FF2,F
02920:  MOVLB  4
....................    }    
....................    if(minutos_trabajo>3600){ 
02922:  MOVF   xE5,W
02924:  SUBLW  0D
02926:  BC    2988
02928:  XORLW  FF
0292A:  BNZ   2932
0292C:  MOVF   xE4,W
0292E:  SUBLW  10
02930:  BC    2988
....................       minutos_trabajo=0;write_eeprom(33,0);write_eeprom(34,0); 
02932:  CLRF   xE5
02934:  CLRF   xE4
02936:  CLRF   FAA
02938:  MOVLW  21
0293A:  MOVWF  FA9
0293C:  CLRF   FA8
0293E:  BCF    FA6.6
02940:  BCF    FA6.7
02942:  BSF    FA6.2
02944:  MOVF   FF2,W
02946:  MOVWF  00
02948:  BCF    FF2.7
0294A:  MOVLB  F
0294C:  MOVLW  55
0294E:  MOVWF  FA7
02950:  MOVLW  AA
02952:  MOVWF  FA7
02954:  BSF    FA6.1
02956:  BTFSC  FA6.1
02958:  BRA    2956
0295A:  BCF    FA6.2
0295C:  MOVF   00,W
0295E:  IORWF  FF2,F
02960:  CLRF   FAA
02962:  MOVLW  22
02964:  MOVWF  FA9
02966:  CLRF   FA8
02968:  BCF    FA6.6
0296A:  BCF    FA6.7
0296C:  BSF    FA6.2
0296E:  MOVF   FF2,W
02970:  MOVWF  00
02972:  BCF    FF2.7
02974:  MOVLW  55
02976:  MOVWF  FA7
02978:  MOVLW  AA
0297A:  MOVWF  FA7
0297C:  BSF    FA6.1
0297E:  BTFSC  FA6.1
02980:  BRA    297E
02982:  BCF    FA6.2
02984:  MOVF   00,W
02986:  IORWF  FF2,F
....................    } 
....................    if(Relacion>2.0){ 
02988:  MOVLB  5
0298A:  CLRF   xD8
0298C:  CLRF   xD7
0298E:  CLRF   xD6
02990:  MOVLW  80
02992:  MOVWF  xD5
02994:  MOVFF  5B9,5DC
02998:  MOVFF  5B8,5DB
0299C:  MOVFF  5B7,5DA
029A0:  MOVFF  5B6,5D9
029A4:  MOVLB  0
029A6:  CALL   20CE
029AA:  BNC   2A12
....................       Relacion=0.57;write_eeprom(35,0);write_eeprom(36,57); 
029AC:  MOVLW  85
029AE:  MOVLB  5
029B0:  MOVWF  xB9
029B2:  MOVLW  EB
029B4:  MOVWF  xB8
029B6:  MOVLW  11
029B8:  MOVWF  xB7
029BA:  MOVLW  7E
029BC:  MOVWF  xB6
029BE:  CLRF   FAA
029C0:  MOVLW  23
029C2:  MOVWF  FA9
029C4:  CLRF   FA8
029C6:  BCF    FA6.6
029C8:  BCF    FA6.7
029CA:  BSF    FA6.2
029CC:  MOVF   FF2,W
029CE:  MOVWF  00
029D0:  BCF    FF2.7
029D2:  MOVLB  F
029D4:  MOVLW  55
029D6:  MOVWF  FA7
029D8:  MOVLW  AA
029DA:  MOVWF  FA7
029DC:  BSF    FA6.1
029DE:  BTFSC  FA6.1
029E0:  BRA    29DE
029E2:  BCF    FA6.2
029E4:  MOVF   00,W
029E6:  IORWF  FF2,F
029E8:  CLRF   FAA
029EA:  MOVLW  24
029EC:  MOVWF  FA9
029EE:  MOVLW  39
029F0:  MOVWF  FA8
029F2:  BCF    FA6.6
029F4:  BCF    FA6.7
029F6:  BSF    FA6.2
029F8:  MOVF   FF2,W
029FA:  MOVWF  00
029FC:  BCF    FF2.7
029FE:  MOVLW  55
02A00:  MOVWF  FA7
02A02:  MOVLW  AA
02A04:  MOVWF  FA7
02A06:  BSF    FA6.1
02A08:  BTFSC  FA6.1
02A0A:  BRA    2A08
02A0C:  BCF    FA6.2
02A0E:  MOVF   00,W
02A10:  IORWF  FF2,F
....................    } 
....................    if(Diferencia>200){ 
02A12:  MOVLB  5
02A14:  CLRF   xD8
02A16:  CLRF   xD7
02A18:  MOVLW  48
02A1A:  MOVWF  xD6
02A1C:  MOVLW  86
02A1E:  MOVWF  xD5
02A20:  MOVFF  521,5DC
02A24:  MOVFF  520,5DB
02A28:  MOVFF  51F,5DA
02A2C:  MOVFF  51E,5D9
02A30:  MOVLB  0
02A32:  CALL   20CE
02A36:  BNC   2A94
....................       Diferencia=0;write_eeprom(60,0);write_eeprom(61,0); 
02A38:  MOVLB  5
02A3A:  CLRF   x21
02A3C:  CLRF   x20
02A3E:  CLRF   x1F
02A40:  CLRF   x1E
02A42:  CLRF   FAA
02A44:  MOVLW  3C
02A46:  MOVWF  FA9
02A48:  CLRF   FA8
02A4A:  BCF    FA6.6
02A4C:  BCF    FA6.7
02A4E:  BSF    FA6.2
02A50:  MOVF   FF2,W
02A52:  MOVWF  00
02A54:  BCF    FF2.7
02A56:  MOVLB  F
02A58:  MOVLW  55
02A5A:  MOVWF  FA7
02A5C:  MOVLW  AA
02A5E:  MOVWF  FA7
02A60:  BSF    FA6.1
02A62:  BTFSC  FA6.1
02A64:  BRA    2A62
02A66:  BCF    FA6.2
02A68:  MOVF   00,W
02A6A:  IORWF  FF2,F
02A6C:  CLRF   FAA
02A6E:  MOVLW  3D
02A70:  MOVWF  FA9
02A72:  CLRF   FA8
02A74:  BCF    FA6.6
02A76:  BCF    FA6.7
02A78:  BSF    FA6.2
02A7A:  MOVF   FF2,W
02A7C:  MOVWF  00
02A7E:  BCF    FF2.7
02A80:  MOVLW  55
02A82:  MOVWF  FA7
02A84:  MOVLW  AA
02A86:  MOVWF  FA7
02A88:  BSF    FA6.1
02A8A:  BTFSC  FA6.1
02A8C:  BRA    2A8A
02A8E:  BCF    FA6.2
02A90:  MOVF   00,W
02A92:  IORWF  FF2,F
....................    } 
....................    if(G>900){ 
02A94:  MOVLB  5
02A96:  CLRF   xD8
02A98:  CLRF   xD7
02A9A:  MOVLW  61
02A9C:  MOVWF  xD6
02A9E:  MOVLW  88
02AA0:  MOVWF  xD5
02AA2:  MOVFF  5B5,5DC
02AA6:  MOVFF  5B4,5DB
02AAA:  MOVFF  5B3,5DA
02AAE:  MOVFF  5B2,5D9
02AB2:  MOVLB  0
02AB4:  CALL   20CE
02AB8:  BNC   2B1C
....................       G=240;write_eeprom(62,240);write_eeprom(63,0); 
02ABA:  MOVLB  5
02ABC:  CLRF   xB5
02ABE:  CLRF   xB4
02AC0:  MOVLW  70
02AC2:  MOVWF  xB3
02AC4:  MOVLW  86
02AC6:  MOVWF  xB2
02AC8:  CLRF   FAA
02ACA:  MOVLW  3E
02ACC:  MOVWF  FA9
02ACE:  MOVLW  F0
02AD0:  MOVWF  FA8
02AD2:  BCF    FA6.6
02AD4:  BCF    FA6.7
02AD6:  BSF    FA6.2
02AD8:  MOVF   FF2,W
02ADA:  MOVWF  00
02ADC:  BCF    FF2.7
02ADE:  MOVLB  F
02AE0:  MOVLW  55
02AE2:  MOVWF  FA7
02AE4:  MOVLW  AA
02AE6:  MOVWF  FA7
02AE8:  BSF    FA6.1
02AEA:  BTFSC  FA6.1
02AEC:  BRA    2AEA
02AEE:  BCF    FA6.2
02AF0:  MOVF   00,W
02AF2:  IORWF  FF2,F
02AF4:  CLRF   FAA
02AF6:  MOVLW  3F
02AF8:  MOVWF  FA9
02AFA:  CLRF   FA8
02AFC:  BCF    FA6.6
02AFE:  BCF    FA6.7
02B00:  BSF    FA6.2
02B02:  MOVF   FF2,W
02B04:  MOVWF  00
02B06:  BCF    FF2.7
02B08:  MOVLW  55
02B0A:  MOVWF  FA7
02B0C:  MOVLW  AA
02B0E:  MOVWF  FA7
02B10:  BSF    FA6.1
02B12:  BTFSC  FA6.1
02B14:  BRA    2B12
02B16:  BCF    FA6.2
02B18:  MOVF   00,W
02B1A:  IORWF  FF2,F
....................    } 
....................    if(negativo>20){ 
02B1C:  MOVLB  4
02B1E:  MOVF   xCA,W
02B20:  SUBLW  14
02B22:  BC    2B56
....................       negativo=10;write_eeprom(50,10); 
02B24:  MOVLW  0A
02B26:  MOVWF  xCA
02B28:  CLRF   FAA
02B2A:  MOVLW  32
02B2C:  MOVWF  FA9
02B2E:  MOVLW  0A
02B30:  MOVWF  FA8
02B32:  BCF    FA6.6
02B34:  BCF    FA6.7
02B36:  BSF    FA6.2
02B38:  MOVF   FF2,W
02B3A:  MOVWF  00
02B3C:  BCF    FF2.7
02B3E:  MOVLB  F
02B40:  MOVLW  55
02B42:  MOVWF  FA7
02B44:  MOVLW  AA
02B46:  MOVWF  FA7
02B48:  BSF    FA6.1
02B4A:  BTFSC  FA6.1
02B4C:  BRA    2B4A
02B4E:  BCF    FA6.2
02B50:  MOVF   00,W
02B52:  IORWF  FF2,F
02B54:  MOVLB  4
....................    } 
.................... } 
02B56:  MOVLB  0
02B58:  GOTO   4F4E (RETURN)
....................  
.................... void VelocidadMotor(int8 Vel){ 
....................    if(Vel==0) 
*
0146E:  MOVLB  5
01470:  MOVF   xD0,F
01472:  BNZ   147A
....................       Motor_off; 
01474:  BCF    F8B.6
01476:  BCF    F94.6
....................    else 
01478:  BRA    147E
....................       Motor_on;    
0147A:  BSF    F8B.6
0147C:  BCF    F94.6
.................... } 
0147E:  MOVLB  0
01480:  RETLW  00
....................  
.................... short PidePassword(int8 MenuAnt, int8 MenuActual, int8 MenuPost, int8 clave0,int8 clave1, int8 clave2,int8 clave3){ 
....................       if(n==0) 
*
03BAC:  MOVLB  4
03BAE:  BTFSC  x1C.3
03BB0:  BRA    3C48
....................       { 
....................          displayContrasena(Contrasena[0],20,30,1);displayContrasena(Contrasena[1],40,30,0); 
03BB2:  MOVFF  50E,5DA
03BB6:  MOVLW  14
03BB8:  MOVLB  5
03BBA:  MOVWF  xDB
03BBC:  MOVLW  1E
03BBE:  MOVWF  xDC
03BC0:  MOVLW  01
03BC2:  MOVWF  xDD
03BC4:  MOVLB  0
03BC6:  RCALL  39D0
03BC8:  MOVFF  50F,5DA
03BCC:  MOVLW  28
03BCE:  MOVLB  5
03BD0:  MOVWF  xDB
03BD2:  MOVLW  1E
03BD4:  MOVWF  xDC
03BD6:  CLRF   xDD
03BD8:  MOVLB  0
03BDA:  RCALL  39D0
....................          displayContrasena(Contrasena[2],60,30,0);displayContrasena(Contrasena[0],80,30,0); 
03BDC:  MOVFF  510,5DA
03BE0:  MOVLW  3C
03BE2:  MOVLB  5
03BE4:  MOVWF  xDB
03BE6:  MOVLW  1E
03BE8:  MOVWF  xDC
03BEA:  CLRF   xDD
03BEC:  MOVLB  0
03BEE:  RCALL  39D0
03BF0:  MOVFF  50E,5DA
03BF4:  MOVLW  50
03BF6:  MOVLB  5
03BF8:  MOVWF  xDB
03BFA:  MOVLW  1E
03BFC:  MOVWF  xDC
03BFE:  CLRF   xDD
03C00:  MOVLB  0
03C02:  RCALL  39D0
....................          strcpy(Menus.Letra,"Clave"); 
03C04:  MOVLW  05
03C06:  MOVWF  FEA
03C08:  MOVLW  BA
03C0A:  MOVWF  FE9
03C0C:  MOVFF  FF2,5D8
03C10:  BCF    FF2.7
03C12:  MOVLW  00
03C14:  CALL   0F0A
03C18:  TBLRD*-
03C1A:  TBLRD*+
03C1C:  MOVF   FF5,W
03C1E:  MOVWF  FEE
03C20:  IORLW  00
03C22:  BNZ   3C1A
03C24:  MOVLB  5
03C26:  BTFSC  xD8.7
03C28:  BSF    FF2.7
....................          displayMenu(Menus.Letra,20,0,1,3); 
03C2A:  MOVLW  05
03C2C:  MOVWF  xD9
03C2E:  MOVLW  BA
03C30:  MOVWF  xD8
03C32:  MOVLW  14
03C34:  MOVWF  xDA
03C36:  CLRF   xDB
03C38:  MOVLW  01
03C3A:  MOVWF  xDC
03C3C:  MOVLW  03
03C3E:  MOVWF  xDD
03C40:  MOVLB  0
03C42:  RCALL  3A86
....................          n=1; 
03C44:  MOVLB  4
03C46:  BSF    x1C.3
....................       } 
....................        
....................       if(UP){ 
03C48:  BSF    F92.5
03C4A:  BTFSC  F80.5
03C4C:  BRA    3D24
....................          flag_latencia=0;t_latencia=0; 
03C4E:  BCF    x1C.0
03C50:  CLRF   xE1
03C52:  CLRF   xE0
....................          if(Flanco == 0){ 
03C54:  BTFSC  x1A.0
03C56:  BRA    3D22
....................             Flanco = 1;delay_ms(5); 
03C58:  BSF    x1A.0
03C5A:  MOVLW  05
03C5C:  MOVLB  5
03C5E:  MOVWF  xD9
03C60:  MOVLB  0
03C62:  CALL   1482
....................             for(i=1;i<=4;i++){ 
03C66:  MOVLW  01
03C68:  MOVLB  4
03C6A:  MOVWF  x19
03C6C:  MOVF   x19,W
03C6E:  SUBLW  04
03C70:  BNC   3D22
....................                if(unidad==i){ 
03C72:  MOVF   x19,W
03C74:  SUBWF  xC7,W
03C76:  BNZ   3CEC
....................                   Contrasena[i-1]++; 
03C78:  MOVLW  01
03C7A:  SUBWF  x19,W
03C7C:  CLRF   03
03C7E:  ADDLW  0E
03C80:  MOVWF  FE9
03C82:  MOVLW  05
03C84:  ADDWFC 03,W
03C86:  MOVWF  FEA
03C88:  INCF   FEF,F
....................                   if(Contrasena[i-1]>9){ 
03C8A:  MOVLW  01
03C8C:  SUBWF  x19,W
03C8E:  CLRF   03
03C90:  ADDLW  0E
03C92:  MOVWF  FE9
03C94:  MOVLW  05
03C96:  ADDWFC 03,W
03C98:  MOVWF  FEA
03C9A:  BTFSC  FEF.7
03C9C:  BRA    3CB6
03C9E:  MOVF   FEF,W
03CA0:  SUBLW  09
03CA2:  BC    3CB6
....................                      Contrasena[i-1]=0; 
03CA4:  MOVLW  01
03CA6:  SUBWF  x19,W
03CA8:  CLRF   03
03CAA:  ADDLW  0E
03CAC:  MOVWF  FE9
03CAE:  MOVLW  05
03CB0:  ADDWFC 03,W
03CB2:  MOVWF  FEA
03CB4:  CLRF   FEF
....................                   } 
....................                   displayContrasena(Contrasena[i-1],i*20,30,1); 
03CB6:  MOVLW  01
03CB8:  SUBWF  x19,W
03CBA:  CLRF   03
03CBC:  ADDLW  0E
03CBE:  MOVWF  FE9
03CC0:  MOVLW  05
03CC2:  ADDWFC 03,W
03CC4:  MOVWF  FEA
03CC6:  MOVFF  FEF,5D8
03CCA:  MOVF   x19,W
03CCC:  MULLW  14
03CCE:  MOVFF  FF3,5D9
03CD2:  MOVLB  5
03CD4:  MOVFF  5D8,5DA
03CD8:  MOVFF  5D9,5DB
03CDC:  MOVLW  1E
03CDE:  MOVWF  xDC
03CE0:  MOVLW  01
03CE2:  MOVWF  xDD
03CE4:  MOVLB  0
03CE6:  RCALL  39D0
....................                }else{ 
03CE8:  BRA    3D1C
03CEA:  MOVLB  4
....................                   displayContrasena(Contrasena[i-1],i*20,30,0); 
03CEC:  MOVLW  01
03CEE:  SUBWF  x19,W
03CF0:  CLRF   03
03CF2:  ADDLW  0E
03CF4:  MOVWF  FE9
03CF6:  MOVLW  05
03CF8:  ADDWFC 03,W
03CFA:  MOVWF  FEA
03CFC:  MOVFF  FEF,5D8
03D00:  MOVF   x19,W
03D02:  MULLW  14
03D04:  MOVFF  FF3,5D9
03D08:  MOVLB  5
03D0A:  MOVFF  5D8,5DA
03D0E:  MOVFF  5D9,5DB
03D12:  MOVLW  1E
03D14:  MOVWF  xDC
03D16:  CLRF   xDD
03D18:  MOVLB  0
03D1A:  RCALL  39D0
....................                } 
....................             } 
03D1C:  MOVLB  4
03D1E:  INCF   x19,F
03D20:  BRA    3C6C
....................          } 
....................       }else{ 
03D22:  BRA    3D26
....................          Flanco = 0; 
03D24:  BCF    x1A.0
....................       } 
....................              
....................       if(DOWN){ 
03D26:  BSF    F96.0
03D28:  BTFSC  F84.0
03D2A:  BRA    3DFE
....................          flag_latencia=0;t_latencia=0; 
03D2C:  BCF    x1C.0
03D2E:  CLRF   xE1
03D30:  CLRF   xE0
....................          if(Flanco2 == 0){ 
03D32:  BTFSC  x1A.2
03D34:  BRA    3DFC
....................             Flanco2 = 1;delay_ms(5); 
03D36:  BSF    x1A.2
03D38:  MOVLW  05
03D3A:  MOVLB  5
03D3C:  MOVWF  xD9
03D3E:  MOVLB  0
03D40:  CALL   1482
....................             for(i=1;i<=4;i++){ 
03D44:  MOVLW  01
03D46:  MOVLB  4
03D48:  MOVWF  x19
03D4A:  MOVF   x19,W
03D4C:  SUBLW  04
03D4E:  BNC   3DFC
....................                if(unidad==i){ 
03D50:  MOVF   x19,W
03D52:  SUBWF  xC7,W
03D54:  BNZ   3DC6
....................                   Contrasena[i-1]--; 
03D56:  MOVLW  01
03D58:  SUBWF  x19,W
03D5A:  CLRF   03
03D5C:  ADDLW  0E
03D5E:  MOVWF  FE9
03D60:  MOVLW  05
03D62:  ADDWFC 03,W
03D64:  MOVWF  FEA
03D66:  DECF   FEF,F
....................                   if(Contrasena[i-1]<0){ 
03D68:  MOVLW  01
03D6A:  SUBWF  x19,W
03D6C:  CLRF   03
03D6E:  ADDLW  0E
03D70:  MOVWF  FE9
03D72:  MOVLW  05
03D74:  ADDWFC 03,W
03D76:  MOVWF  FEA
03D78:  BTFSS  FEF.7
03D7A:  BRA    3D90
....................                      Contrasena[i-1]=9; 
03D7C:  MOVLW  01
03D7E:  SUBWF  x19,W
03D80:  CLRF   03
03D82:  ADDLW  0E
03D84:  MOVWF  FE9
03D86:  MOVLW  05
03D88:  ADDWFC 03,W
03D8A:  MOVWF  FEA
03D8C:  MOVLW  09
03D8E:  MOVWF  FEF
....................                   } 
....................                   displayContrasena(Contrasena[i-1],i*20,30,1); 
03D90:  MOVLW  01
03D92:  SUBWF  x19,W
03D94:  CLRF   03
03D96:  ADDLW  0E
03D98:  MOVWF  FE9
03D9A:  MOVLW  05
03D9C:  ADDWFC 03,W
03D9E:  MOVWF  FEA
03DA0:  MOVFF  FEF,5D8
03DA4:  MOVF   x19,W
03DA6:  MULLW  14
03DA8:  MOVFF  FF3,5D9
03DAC:  MOVLB  5
03DAE:  MOVFF  5D8,5DA
03DB2:  MOVFF  5D9,5DB
03DB6:  MOVLW  1E
03DB8:  MOVWF  xDC
03DBA:  MOVLW  01
03DBC:  MOVWF  xDD
03DBE:  MOVLB  0
03DC0:  RCALL  39D0
....................                }else{ 
03DC2:  BRA    3DF6
03DC4:  MOVLB  4
....................                   displayContrasena(Contrasena[i-1],i*20,30,0); 
03DC6:  MOVLW  01
03DC8:  SUBWF  x19,W
03DCA:  CLRF   03
03DCC:  ADDLW  0E
03DCE:  MOVWF  FE9
03DD0:  MOVLW  05
03DD2:  ADDWFC 03,W
03DD4:  MOVWF  FEA
03DD6:  MOVFF  FEF,5D8
03DDA:  MOVF   x19,W
03DDC:  MULLW  14
03DDE:  MOVFF  FF3,5D9
03DE2:  MOVLB  5
03DE4:  MOVFF  5D8,5DA
03DE8:  MOVFF  5D9,5DB
03DEC:  MOVLW  1E
03DEE:  MOVWF  xDC
03DF0:  CLRF   xDD
03DF2:  MOVLB  0
03DF4:  RCALL  39D0
....................                } 
....................             }       
03DF6:  MOVLB  4
03DF8:  INCF   x19,F
03DFA:  BRA    3D4A
....................          }      
....................       }else{ 
03DFC:  BRA    3E00
....................          Flanco2 = 0; 
03DFE:  BCF    x1A.2
....................       } 
....................              
....................       if(RIGHT){ 
03E00:  BSF    F96.1
03E02:  BTFSC  F84.1
03E04:  BRA    3EA0
....................          flag_latencia=0;t_latencia=0; 
03E06:  BCF    x1C.0
03E08:  CLRF   xE1
03E0A:  CLRF   xE0
....................          if(Flanco1 == 0){ 
03E0C:  BTFSC  x1A.1
03E0E:  BRA    3E9E
....................             Flanco1 = 1;delay_ms(5);unidad++; 
03E10:  BSF    x1A.1
03E12:  MOVLW  05
03E14:  MOVLB  5
03E16:  MOVWF  xD9
03E18:  MOVLB  0
03E1A:  CALL   1482
03E1E:  MOVLB  4
03E20:  INCF   xC7,F
....................             for(i=1;i<=4;i++){ 
03E22:  MOVLW  01
03E24:  MOVWF  x19
03E26:  MOVF   x19,W
03E28:  SUBLW  04
03E2A:  BNC   3E9E
....................                if(unidad==i){ 
03E2C:  MOVF   x19,W
03E2E:  SUBWF  xC7,W
03E30:  BNZ   3E68
....................                   displayContrasena(Contrasena[i-1],i*20,30,1); 
03E32:  MOVLW  01
03E34:  SUBWF  x19,W
03E36:  CLRF   03
03E38:  ADDLW  0E
03E3A:  MOVWF  FE9
03E3C:  MOVLW  05
03E3E:  ADDWFC 03,W
03E40:  MOVWF  FEA
03E42:  MOVFF  FEF,5D8
03E46:  MOVF   x19,W
03E48:  MULLW  14
03E4A:  MOVFF  FF3,5D9
03E4E:  MOVLB  5
03E50:  MOVFF  5D8,5DA
03E54:  MOVFF  5D9,5DB
03E58:  MOVLW  1E
03E5A:  MOVWF  xDC
03E5C:  MOVLW  01
03E5E:  MOVWF  xDD
03E60:  MOVLB  0
03E62:  RCALL  39D0
....................                }else{ 
03E64:  BRA    3E98
03E66:  MOVLB  4
....................                   displayContrasena(Contrasena[i-1],i*20,30,0); 
03E68:  MOVLW  01
03E6A:  SUBWF  x19,W
03E6C:  CLRF   03
03E6E:  ADDLW  0E
03E70:  MOVWF  FE9
03E72:  MOVLW  05
03E74:  ADDWFC 03,W
03E76:  MOVWF  FEA
03E78:  MOVFF  FEF,5D8
03E7C:  MOVF   x19,W
03E7E:  MULLW  14
03E80:  MOVFF  FF3,5D9
03E84:  MOVLB  5
03E86:  MOVFF  5D8,5DA
03E8A:  MOVFF  5D9,5DB
03E8E:  MOVLW  1E
03E90:  MOVWF  xDC
03E92:  CLRF   xDD
03E94:  MOVLB  0
03E96:  RCALL  39D0
....................                } 
....................             } 
03E98:  MOVLB  4
03E9A:  INCF   x19,F
03E9C:  BRA    3E26
....................          } 
....................       }else{ 
03E9E:  BRA    3EA2
....................          Flanco1 = 0; 
03EA0:  BCF    x1A.1
....................       } 
....................        
....................       if(LEFT){ 
03EA2:  BSF    F96.2
03EA4:  BTFSC  F84.2
03EA6:  BRA    3EEC
....................          delay_ms(100); 
03EA8:  MOVLW  64
03EAA:  MOVLB  5
03EAC:  MOVWF  xD9
03EAE:  MOVLB  0
03EB0:  CALL   1482
....................          if(LEFT){ 
03EB4:  BSF    F96.2
03EB6:  BTFSC  F84.2
03EB8:  BRA    3EEA
....................             Menu=MenuAnt;glcd_fillScreen(OFF);n=0;Opcion=1;unidad=1; 
03EBA:  MOVFF  5D1,4C6
03EBE:  MOVLB  5
03EC0:  CLRF   xD8
03EC2:  MOVLB  0
03EC4:  RCALL  3B52
03EC6:  MOVLB  4
03EC8:  BCF    x1C.3
03ECA:  MOVLW  01
03ECC:  MOVWF  xC8
03ECE:  MOVWF  xC7
....................             Contrasena[0]=0;Contrasena[1]=0;Contrasena[2]=0;Contrasena[3]=0; 
03ED0:  MOVLB  5
03ED2:  CLRF   x0E
03ED4:  CLRF   x0F
03ED6:  CLRF   x10
03ED8:  CLRF   x11
....................             glcd_fillScreen(OFF);glcd_update(); 
03EDA:  CLRF   xD8
03EDC:  MOVLB  0
03EDE:  RCALL  3B52
03EE0:  CALL   2B92
....................             return 1; 
03EE4:  MOVLW  01
03EE6:  MOVWF  01
03EE8:  BRA    4268
03EEA:  MOVLB  4
....................          } 
....................       } 
....................      
....................       if(unidad>4){ 
03EEC:  MOVF   xC7,W
03EEE:  SUBLW  04
03EF0:  BTFSC  FD8.0
03EF2:  BRA    426A
....................          glcd_fillScreen(OFF);unidad=1;flag_latencia=0;t_latencia=0; 
03EF4:  MOVLB  5
03EF6:  CLRF   xD8
03EF8:  MOVLB  0
03EFA:  RCALL  3B52
03EFC:  MOVLW  01
03EFE:  MOVLB  4
03F00:  MOVWF  xC7
03F02:  BCF    x1C.0
03F04:  CLRF   xE1
03F06:  CLRF   xE0
....................           
....................          if(Contrasena[0]==3&&Contrasena[1]==8&&Contrasena[2]==9&&Contrasena[3]==2 && MenuActual==0){ // Si Ingresa clave para reset general del sistema. 
03F08:  MOVLB  5
03F0A:  MOVF   x0E,W
03F0C:  SUBLW  03
03F0E:  BTFSS  FD8.2
03F10:  BRA    4004
03F12:  MOVF   x0F,W
03F14:  SUBLW  08
03F16:  BTFSS  FD8.2
03F18:  BRA    4004
03F1A:  MOVF   x10,W
03F1C:  SUBLW  09
03F1E:  BNZ   4004
03F20:  MOVF   x11,W
03F22:  SUBLW  02
03F24:  BNZ   4004
03F26:  MOVF   xD2,F
03F28:  BNZ   4004
....................             write_eeprom(0,0);delay_ms(20);write_eeprom(1,0);delay_ms(20);// Reestablece a contrasea de Fabrica y reinicia Programa. 
03F2A:  CLRF   FAA
03F2C:  CLRF   FA9
03F2E:  CLRF   FA8
03F30:  BCF    FA6.6
03F32:  BCF    FA6.7
03F34:  BSF    FA6.2
03F36:  MOVF   FF2,W
03F38:  MOVWF  00
03F3A:  BCF    FF2.7
03F3C:  MOVLB  F
03F3E:  MOVLW  55
03F40:  MOVWF  FA7
03F42:  MOVLW  AA
03F44:  MOVWF  FA7
03F46:  BSF    FA6.1
03F48:  BTFSC  FA6.1
03F4A:  BRA    3F48
03F4C:  BCF    FA6.2
03F4E:  MOVF   00,W
03F50:  IORWF  FF2,F
03F52:  MOVLW  14
03F54:  MOVLB  5
03F56:  MOVWF  xD9
03F58:  MOVLB  0
03F5A:  CALL   1482
03F5E:  CLRF   FAA
03F60:  MOVLW  01
03F62:  MOVWF  FA9
03F64:  CLRF   FA8
03F66:  BCF    FA6.6
03F68:  BCF    FA6.7
03F6A:  BSF    FA6.2
03F6C:  MOVF   FF2,W
03F6E:  MOVWF  00
03F70:  BCF    FF2.7
03F72:  MOVLB  F
03F74:  MOVLW  55
03F76:  MOVWF  FA7
03F78:  MOVLW  AA
03F7A:  MOVWF  FA7
03F7C:  BSF    FA6.1
03F7E:  BTFSC  FA6.1
03F80:  BRA    3F7E
03F82:  BCF    FA6.2
03F84:  MOVF   00,W
03F86:  IORWF  FF2,F
03F88:  MOVLW  14
03F8A:  MOVLB  5
03F8C:  MOVWF  xD9
03F8E:  MOVLB  0
03F90:  CALL   1482
....................             write_eeprom(2,0);delay_ms(20);write_eeprom(3,0);delay_ms(20); 
03F94:  CLRF   FAA
03F96:  MOVLW  02
03F98:  MOVWF  FA9
03F9A:  CLRF   FA8
03F9C:  BCF    FA6.6
03F9E:  BCF    FA6.7
03FA0:  BSF    FA6.2
03FA2:  MOVF   FF2,W
03FA4:  MOVWF  00
03FA6:  BCF    FF2.7
03FA8:  MOVLB  F
03FAA:  MOVLW  55
03FAC:  MOVWF  FA7
03FAE:  MOVLW  AA
03FB0:  MOVWF  FA7
03FB2:  BSF    FA6.1
03FB4:  BTFSC  FA6.1
03FB6:  BRA    3FB4
03FB8:  BCF    FA6.2
03FBA:  MOVF   00,W
03FBC:  IORWF  FF2,F
03FBE:  MOVLW  14
03FC0:  MOVLB  5
03FC2:  MOVWF  xD9
03FC4:  MOVLB  0
03FC6:  CALL   1482
03FCA:  CLRF   FAA
03FCC:  MOVLW  03
03FCE:  MOVWF  FA9
03FD0:  CLRF   FA8
03FD2:  BCF    FA6.6
03FD4:  BCF    FA6.7
03FD6:  BSF    FA6.2
03FD8:  MOVF   FF2,W
03FDA:  MOVWF  00
03FDC:  BCF    FF2.7
03FDE:  MOVLB  F
03FE0:  MOVLW  55
03FE2:  MOVWF  FA7
03FE4:  MOVLW  AA
03FE6:  MOVWF  FA7
03FE8:  BSF    FA6.1
03FEA:  BTFSC  FA6.1
03FEC:  BRA    3FEA
03FEE:  BCF    FA6.2
03FF0:  MOVF   00,W
03FF2:  IORWF  FF2,F
03FF4:  MOVLW  14
03FF6:  MOVLB  5
03FF8:  MOVWF  xD9
03FFA:  MOVLB  0
03FFC:  CALL   1482
....................             reset_cpu(); 
04000:  RESET
04002:  MOVLB  5
....................          } 
....................        
....................          if((Contrasena[0]==clave0)&&(Contrasena[1]==clave1)&&(Contrasena[2]==clave2)&&(Contrasena[3]==clave3)){ 
04004:  MOVF   xD4,W
04006:  SUBWF  x0E,W
04008:  BTFSS  FD8.2
0400A:  BRA    40E8
0400C:  MOVF   xD5,W
0400E:  SUBWF  x0F,W
04010:  BNZ   40E8
04012:  MOVF   xD6,W
04014:  SUBWF  x10,W
04016:  BNZ   40E8
04018:  MOVF   xD7,W
0401A:  SUBWF  x11,W
0401C:  BNZ   40E8
....................             glcd_fillScreen(OFF); 
0401E:  CLRF   xD8
04020:  MOVLB  0
04022:  RCALL  3B52
....................             strcpy(Menus.Letra,"Clave"); 
04024:  MOVLW  05
04026:  MOVWF  FEA
04028:  MOVLW  BA
0402A:  MOVWF  FE9
0402C:  MOVFF  FF2,5D8
04030:  BCF    FF2.7
04032:  MOVLW  00
04034:  CALL   0F0A
04038:  TBLRD*-
0403A:  TBLRD*+
0403C:  MOVF   FF5,W
0403E:  MOVWF  FEE
04040:  IORLW  00
04042:  BNZ   403A
04044:  MOVLB  5
04046:  BTFSC  xD8.7
04048:  BSF    FF2.7
....................             displayMenu(Menus.Letra,30,0,0,2); 
0404A:  MOVLW  05
0404C:  MOVWF  xD9
0404E:  MOVLW  BA
04050:  MOVWF  xD8
04052:  MOVLW  1E
04054:  MOVWF  xDA
04056:  CLRF   xDB
04058:  CLRF   xDC
0405A:  MOVLW  02
0405C:  MOVWF  xDD
0405E:  MOVLB  0
04060:  RCALL  3A86
....................             strcpy(Menus.Letra,"Correcta"); 
04062:  MOVLW  05
04064:  MOVWF  FEA
04066:  MOVLW  BA
04068:  MOVWF  FE9
0406A:  MOVFF  FF2,5D8
0406E:  BCF    FF2.7
04070:  MOVLW  00
04072:  CALL   0F2E
04076:  TBLRD*-
04078:  TBLRD*+
0407A:  MOVF   FF5,W
0407C:  MOVWF  FEE
0407E:  IORLW  00
04080:  BNZ   4078
04082:  MOVLB  5
04084:  BTFSC  xD8.7
04086:  BSF    FF2.7
....................             displayMenu(Menus.Letra,15,30,0,2); 
04088:  MOVLW  05
0408A:  MOVWF  xD9
0408C:  MOVLW  BA
0408E:  MOVWF  xD8
04090:  MOVLW  0F
04092:  MOVWF  xDA
04094:  MOVLW  1E
04096:  MOVWF  xDB
04098:  CLRF   xDC
0409A:  MOVLW  02
0409C:  MOVWF  xDD
0409E:  MOVLB  0
040A0:  RCALL  3A86
....................             Menu=MenuPost;glcd_update();delay_ms(1000);glcd_fillScreen(OFF); 
040A2:  MOVFF  5D3,4C6
040A6:  CALL   2B92
040AA:  MOVLW  04
040AC:  MOVLB  5
040AE:  MOVWF  xD8
040B0:  MOVLW  FA
040B2:  MOVWF  xD9
040B4:  MOVLB  0
040B6:  CALL   1482
040BA:  MOVLB  5
040BC:  DECFSZ xD8,F
040BE:  BRA    40B0
040C0:  CLRF   xD8
040C2:  MOVLB  0
040C4:  RCALL  3B52
....................             Contrasena[0]=0;Contrasena[1]=0;Contrasena[2]=0;Contrasena[3]=0; 
040C6:  MOVLB  5
040C8:  CLRF   x0E
040CA:  CLRF   x0F
040CC:  CLRF   x10
040CE:  CLRF   x11
....................             if(MenuActual==0)tiempo_purga=1;n=0; 
040D0:  MOVF   xD2,F
040D2:  BNZ   40D8
040D4:  MOVLB  4
040D6:  BSF    x1B.3
040D8:  MOVLB  4
040DA:  BCF    x1C.3
....................             return 1; 
040DC:  MOVLW  01
040DE:  MOVWF  01
040E0:  MOVLB  0
040E2:  BRA    4268
....................          }else{ 
040E4:  BRA    4268
040E6:  MOVLB  5
....................             glcd_fillScreen(OFF); 
040E8:  CLRF   xD8
040EA:  MOVLB  0
040EC:  RCALL  3B52
....................             strcpy(Menus.Letra,"Clave"); 
040EE:  MOVLW  05
040F0:  MOVWF  FEA
040F2:  MOVLW  BA
040F4:  MOVWF  FE9
040F6:  MOVFF  FF2,5D8
040FA:  BCF    FF2.7
040FC:  MOVLW  00
040FE:  CALL   0F0A
04102:  TBLRD*-
04104:  TBLRD*+
04106:  MOVF   FF5,W
04108:  MOVWF  FEE
0410A:  IORLW  00
0410C:  BNZ   4104
0410E:  MOVLB  5
04110:  BTFSC  xD8.7
04112:  BSF    FF2.7
....................             displayMenu(Menus.Letra,30,0,0,2); 
04114:  MOVLW  05
04116:  MOVWF  xD9
04118:  MOVLW  BA
0411A:  MOVWF  xD8
0411C:  MOVLW  1E
0411E:  MOVWF  xDA
04120:  CLRF   xDB
04122:  CLRF   xDC
04124:  MOVLW  02
04126:  MOVWF  xDD
04128:  MOVLB  0
0412A:  RCALL  3A86
....................             strcpy(Menus.Letra,"Incorrecta"); 
0412C:  MOVLW  05
0412E:  MOVWF  FEA
04130:  MOVLW  BA
04132:  MOVWF  FE9
04134:  MOVFF  FF2,5D8
04138:  BCF    FF2.7
0413A:  MOVLW  00
0413C:  CALL   0F56
04140:  TBLRD*-
04142:  TBLRD*+
04144:  MOVF   FF5,W
04146:  MOVWF  FEE
04148:  IORLW  00
0414A:  BNZ   4142
0414C:  MOVLB  5
0414E:  BTFSC  xD8.7
04150:  BSF    FF2.7
....................             displayMenu(Menus.Letra,0,30,0,2); 
04152:  MOVLW  05
04154:  MOVWF  xD9
04156:  MOVLW  BA
04158:  MOVWF  xD8
0415A:  CLRF   xDA
0415C:  MOVLW  1E
0415E:  MOVWF  xDB
04160:  CLRF   xDC
04162:  MOVLW  02
04164:  MOVWF  xDD
04166:  MOVLB  0
04168:  RCALL  3A86
....................             unidad=1;glcd_update();delay_ms(1000);Contrasena[0]=0;Contrasena[1]=0;Contrasena[2]=0;Contrasena[3]=0;glcd_fillScreen(OFF); 
0416A:  MOVLW  01
0416C:  MOVLB  4
0416E:  MOVWF  xC7
04170:  MOVLB  0
04172:  CALL   2B92
04176:  MOVLW  04
04178:  MOVLB  5
0417A:  MOVWF  xD8
0417C:  MOVLW  FA
0417E:  MOVWF  xD9
04180:  MOVLB  0
04182:  CALL   1482
04186:  MOVLB  5
04188:  DECFSZ xD8,F
0418A:  BRA    417C
0418C:  CLRF   x0E
0418E:  CLRF   x0F
04190:  CLRF   x10
04192:  CLRF   x11
04194:  CLRF   xD8
04196:  MOVLB  0
04198:  RCALL  3B52
....................             glcd_rect(0, 0, 127, 25, YES, ON);strcpy(Menus.Letra,"Clave");glcd_text57(25, 1, Menus.Letra, 3, OFF);displayContrasena(Contrasena[0],20,30,1); 
0419A:  MOVLB  5
0419C:  CLRF   xE9
0419E:  CLRF   xEA
041A0:  MOVLW  7F
041A2:  MOVWF  xEB
041A4:  MOVLW  19
041A6:  MOVWF  xEC
041A8:  MOVLW  01
041AA:  MOVWF  xED
041AC:  MOVWF  xEE
041AE:  MOVLB  0
041B0:  CALL   3754
041B4:  MOVLW  05
041B6:  MOVWF  FEA
041B8:  MOVLW  BA
041BA:  MOVWF  FE9
041BC:  MOVFF  FF2,5D8
041C0:  BCF    FF2.7
041C2:  MOVLW  00
041C4:  CALL   0F0A
041C8:  TBLRD*-
041CA:  TBLRD*+
041CC:  MOVF   FF5,W
041CE:  MOVWF  FEE
041D0:  IORLW  00
041D2:  BNZ   41CA
041D4:  MOVLB  5
041D6:  BTFSC  xD8.7
041D8:  BSF    FF2.7
041DA:  MOVLW  19
041DC:  MOVWF  xE9
041DE:  MOVLW  01
041E0:  MOVWF  xEA
041E2:  MOVLW  05
041E4:  MOVWF  xEC
041E6:  MOVLW  BA
041E8:  MOVWF  xEB
041EA:  MOVLW  03
041EC:  MOVWF  xED
041EE:  CLRF   xEE
041F0:  MOVLB  0
041F2:  CALL   3816
041F6:  MOVFF  50E,5DA
041FA:  MOVLW  14
041FC:  MOVLB  5
041FE:  MOVWF  xDB
04200:  MOVLW  1E
04202:  MOVWF  xDC
04204:  MOVLW  01
04206:  MOVWF  xDD
04208:  MOVLB  0
0420A:  CALL   39D0
....................             displayContrasena(Contrasena[1],40,30,0);displayContrasena(Contrasena[2],60,30,0);displayContrasena(Contrasena[0],80,30,0); 
0420E:  MOVFF  50F,5DA
04212:  MOVLW  28
04214:  MOVLB  5
04216:  MOVWF  xDB
04218:  MOVLW  1E
0421A:  MOVWF  xDC
0421C:  CLRF   xDD
0421E:  MOVLB  0
04220:  CALL   39D0
04224:  MOVFF  510,5DA
04228:  MOVLW  3C
0422A:  MOVLB  5
0422C:  MOVWF  xDB
0422E:  MOVLW  1E
04230:  MOVWF  xDC
04232:  CLRF   xDD
04234:  MOVLB  0
04236:  CALL   39D0
0423A:  MOVFF  50E,5DA
0423E:  MOVLW  50
04240:  MOVLB  5
04242:  MOVWF  xDB
04244:  MOVLW  1E
04246:  MOVWF  xDC
04248:  CLRF   xDD
0424A:  MOVLB  0
0424C:  CALL   39D0
....................             Menu=MenuAnt;glcd_fillScreen(OFF);n=0; 
04250:  MOVFF  5D1,4C6
04254:  MOVLB  5
04256:  CLRF   xD8
04258:  MOVLB  0
0425A:  RCALL  3B52
0425C:  MOVLB  4
0425E:  BCF    x1C.3
....................             return 0; 
04260:  MOVLW  00
04262:  MOVWF  01
04264:  MOVLB  0
04266:  BRA    4268
04268:  MOVLB  4
....................          } 
....................       } 
.................... } 
0426A:  MOVLB  0
0426C:  RETLW  00
....................  
.................... void MueveVidrio(){ 
....................    if(VIDRIO){ 
*
02C4A:  BSF    F93.0
02C4C:  BTFSC  F81.0
02C4E:  BRA    2CB4
....................       flagVidrio=ON; 
02C50:  MOVLB  4
02C52:  BSF    x1C.5
....................       if(!flagConteo){ 
02C54:  BTFSC  x1C.6
02C56:  BRA    2C5C
....................          ConteoVidrio++; 
02C58:  INCF   xCF,F
....................          flagConteo=ON; 
02C5A:  BSF    x1C.6
....................       } 
....................       if(tvidrio>300 && ConteoVidrio<2 && VIDRIOUUP){//Mover vidrio hacia arriba 
02C5C:  MOVF   xE9,W
02C5E:  SUBLW  00
02C60:  BC    2C82
02C62:  XORLW  FF
02C64:  BNZ   2C6C
02C66:  MOVF   xE8,W
02C68:  SUBLW  2C
02C6A:  BC    2C82
02C6C:  MOVF   xCF,W
02C6E:  SUBLW  01
02C70:  BNC   2C82
02C72:  BSF    F92.4
02C74:  BTFSS  F80.4
02C76:  BRA    2C82
....................          MotorVp_on; 
02C78:  BSF    F8B.1
02C7A:  BCF    F94.1
....................          MotorVn_off; 
02C7C:  BCF    F8B.2
02C7E:  BCF    F94.2
....................       }else if(tvidrio>300 && ConteoVidrio>=2 && VIDRIODN){//Mover vidrio hacia abajo 
02C80:  BRA    2CB0
02C82:  MOVF   xE9,W
02C84:  SUBLW  00
02C86:  BC    2CA8
02C88:  XORLW  FF
02C8A:  BNZ   2C92
02C8C:  MOVF   xE8,W
02C8E:  SUBLW  2C
02C90:  BC    2CA8
02C92:  MOVF   xCF,W
02C94:  SUBLW  01
02C96:  BC    2CA8
02C98:  BSF    F92.3
02C9A:  BTFSS  F80.3
02C9C:  BRA    2CA8
....................          MotorVp_off; 
02C9E:  BCF    F8B.1
02CA0:  BCF    F94.1
....................          MotorVn_on; 
02CA2:  BSF    F8B.2
02CA4:  BCF    F94.2
....................       }else{ 
02CA6:  BRA    2CB0
....................          MotorVp_off; 
02CA8:  BCF    F8B.1
02CAA:  BCF    F94.1
....................          MotorVn_off;    
02CAC:  BCF    F8B.2
02CAE:  BCF    F94.2
....................       } 
....................    }else{ 
02CB0:  BRA    2CE0
02CB2:  MOVLB  0
....................       flagConteo=OFF; 
02CB4:  MOVLB  4
02CB6:  BCF    x1C.6
....................       if(tvidrio>300){ 
02CB8:  MOVF   xE9,W
02CBA:  SUBLW  00
02CBC:  BC    2CD0
02CBE:  XORLW  FF
02CC0:  BNZ   2CC8
02CC2:  MOVF   xE8,W
02CC4:  SUBLW  2C
02CC6:  BC    2CD0
....................          ConteoVidrio=0; 
02CC8:  CLRF   xCF
....................          tvidrio=0; 
02CCA:  CLRF   xE9
02CCC:  CLRF   xE8
....................          flagVidrio=OFF; 
02CCE:  BCF    x1C.5
....................       } 
....................       if(!MovioVidrio && !MovioVidrioDN){ 
02CD0:  BTFSC  x1C.7
02CD2:  BRA    2CE0
02CD4:  BTFSC  x1D.0
02CD6:  BRA    2CE0
....................          MotorVp_off; 
02CD8:  BCF    F8B.1
02CDA:  BCF    F94.1
....................          MotorVn_off; 
02CDC:  BCF    F8B.2
02CDE:  BCF    F94.2
....................       } 
....................    } 
.................... } 
02CE0:  MOVLB  0
02CE2:  GOTO   4F56 (RETURN)
....................  
.................... void SubirVidrio(void){ 
....................    MotorVp_on; 
*
04922:  BSF    F8B.1
04924:  BCF    F94.1
....................    MotorVn_off; 
04926:  BCF    F8B.2
04928:  BCF    F94.2
.................... } 
0492A:  RETLW  00
....................  
.................... void BajarVidrio(void){ 
....................    MotorVp_off; 
*
0490E:  BCF    F8B.1
04910:  BCF    F94.1
....................    MotorVn_on; 
04912:  BSF    F8B.2
04914:  BCF    F94.2
.................... } 
04916:  RETLW  00
....................  
.................... void DetenerVidrio(void){ 
....................    MotorVp_off; 
04918:  BCF    F8B.1
0491A:  BCF    F94.1
....................    MotorVn_off; 
0491C:  BCF    F8B.2
0491E:  BCF    F94.2
.................... } 
04920:  RETLW  00
....................  
....................  
.................... //---Interrupcin TIMER0---// 
.................... #int_TIMER1 
.................... void temp1s(void){ 
....................    set_timer1(40536); 
*
01322:  MOVLW  9E
01324:  MOVWF  FCF
01326:  MOVLW  58
01328:  MOVWF  FCE
....................    tiempos++; 
0132A:  MOVLB  4
0132C:  INCF   x17,F
0132E:  BTFSC  FD8.2
01330:  INCF   x18,F
....................     
....................    if(flag_latencia==1)    
01332:  BTFSS  x1C.0
01334:  BRA    133C
....................       t_latencia++;          
01336:  INCF   xE0,F
01338:  BTFSC  FD8.2
0133A:  INCF   xE1,F
....................     
....................    if(t_latencia>=3000) 
0133C:  MOVF   xE1,W
0133E:  SUBLW  0A
01340:  BC    134E
01342:  XORLW  FF
01344:  BNZ   134C
01346:  MOVF   xE0,W
01348:  SUBLW  B7
0134A:  BC    134E
....................       Latencia=1; 
0134C:  BSF    x1B.7
....................     
....................    if(flagVidrio){ 
0134E:  BTFSS  x1C.5
01350:  BRA    1358
....................       tvidrio++; 
01352:  INCF   xE8,F
01354:  BTFSC  FD8.2
01356:  INCF   xE9,F
....................    } 
....................     
....................    if(flagVidrioUP){ 
01358:  BTFSS  x1D.1
0135A:  BRA    1362
....................       tvidrioUP++; 
0135C:  INCF   xEA,F
0135E:  BTFSC  FD8.2
01360:  INCF   xEB,F
....................    } 
....................     
....................    if(flagVidrioDN){ 
01362:  BTFSS  x1D.2
01364:  BRA    136C
....................       tvidrioDN++; 
01366:  INCF   xEC,F
01368:  BTFSC  FD8.2
0136A:  INCF   xED,F
....................    } 
....................     
....................    if(tiempos>=200){ 
0136C:  MOVF   x18,F
0136E:  BNZ   1378
01370:  MOVF   x17,W
01372:  SUBLW  C7
01374:  BTFSC  FD8.0
01376:  BRA    1466
....................       tiempos=0;imprimir=1;inicie++;Lectura=1;tiemporeset++; 
01378:  CLRF   x18
0137A:  CLRF   x17
0137C:  BSF    x1A.6
0137E:  INCF   xC9,F
01380:  BSF    x1C.2
01382:  INCF   xCD,F
....................        
....................       if(Alarma==5){ 
01384:  MOVF   xD6,W
01386:  SUBLW  05
01388:  BNZ   139C
....................          if(flag_alarma2==0){ 
0138A:  BTFSC  x1C.4
0138C:  BRA    1396
....................             Alarma_on; 
0138E:  BSF    F8B.3
01390:  BCF    F94.3
....................             flag_alarma2=1; 
01392:  BSF    x1C.4
....................          }else{ 
01394:  BRA    139C
....................             Alarma_off; 
01396:  BCF    F8B.3
01398:  BCF    F94.3
....................             flag_alarma2=0; 
0139A:  BCF    x1C.4
....................          } 
....................       } 
....................     
....................       if(tiempo_postpurga){ 
0139C:  BTFSS  x1B.6
0139E:  BRA    13D8
....................          Tppurga[0]++; 
013A0:  INCF   xF6,F
....................          if(Tppurga[0]>9){ 
013A2:  BTFSC  xF6.7
013A4:  BRA    13B0
013A6:  MOVF   xF6,W
013A8:  SUBLW  09
013AA:  BC    13B0
....................             Tppurga[0]=0; 
013AC:  CLRF   xF6
....................             Tppurga[1]++; 
013AE:  INCF   xF7,F
....................          } 
....................          if(Tppurga[1]>5){   
013B0:  BTFSC  xF7.7
013B2:  BRA    13BE
013B4:  MOVF   xF7,W
013B6:  SUBLW  05
013B8:  BC    13BE
....................             Tppurga[1]=0; 
013BA:  CLRF   xF7
....................             Tppurga[2]++; 
013BC:  INCF   xF8,F
....................          } 
....................          if(Tppurga[2]>9){ 
013BE:  BTFSC  xF8.7
013C0:  BRA    13CC
013C2:  MOVF   xF8,W
013C4:  SUBLW  09
013C6:  BC    13CC
....................             Tppurga[2]=0; 
013C8:  CLRF   xF8
....................             Tppurga[3]++; 
013CA:  INCF   xF9,F
....................          } 
....................          if(Tppurga[3]>5){ 
013CC:  BTFSC  xF9.7
013CE:  BRA    13D8
013D0:  MOVF   xF9,W
013D2:  SUBLW  05
013D4:  BC    13D8
....................             Tppurga[3]=0; 
013D6:  CLRF   xF9
....................          } 
....................       } 
....................     
....................       if(tiempo_uv==1){ 
013D8:  BTFSS  x1B.4
013DA:  BRA    141E
....................          segundos_uv++; 
013DC:  INCF   xE2,F
013DE:  BTFSC  FD8.2
013E0:  INCF   xE3,F
....................        
....................          Tempouv[0]++; 
013E2:  MOVLB  5
013E4:  INCF   x02,F
....................          if(Tempouv[0]>9){ 
013E6:  BTFSC  x02.7
013E8:  BRA    13F4
013EA:  MOVF   x02,W
013EC:  SUBLW  09
013EE:  BC    13F4
....................             Tempouv[0]=0; 
013F0:  CLRF   x02
....................             Tempouv[1]++; 
013F2:  INCF   x03,F
....................          } 
....................          if(Tempouv[1]>5){ 
013F4:  BTFSC  x03.7
013F6:  BRA    1402
013F8:  MOVF   x03,W
013FA:  SUBLW  05
013FC:  BC    1402
....................             Tempouv[1]=0; 
013FE:  CLRF   x03
....................             Tempouv[2]++; 
01400:  INCF   x04,F
....................          } 
....................          if(Tempouv[2]>9){ 
01402:  BTFSC  x04.7
01404:  BRA    1410
01406:  MOVF   x04,W
01408:  SUBLW  09
0140A:  BC    1410
....................             Tempouv[2]=0; 
0140C:  CLRF   x04
....................             Tempouv[3]++; 
0140E:  INCF   x05,F
....................          } 
....................          if(Tempouv[3]>5){ 
01410:  BTFSC  x05.7
01412:  BRA    141C
01414:  MOVF   x05,W
01416:  SUBLW  05
01418:  BC    141C
....................             Tempouv[3]=0; 
0141A:  CLRF   x05
0141C:  MOVLB  4
....................          }      
....................       } 
....................     
....................       if(flag_blower==5) 
0141E:  MOVF   xD9,W
01420:  SUBLW  05
01422:  BNZ   142A
....................          minutos_trabajo++;  
01424:  INCF   xE4,F
01426:  BTFSC  FD8.2
01428:  INCF   xE5,F
....................    
....................       if(tiempo_purga==1){                   
0142A:  BTFSS  x1B.3
0142C:  BRA    1466
....................          Tpurga[0]++; 
0142E:  INCF   xEE,F
....................          if(Tpurga[0]>9){ 
01430:  BTFSC  xEE.7
01432:  BRA    143E
01434:  MOVF   xEE,W
01436:  SUBLW  09
01438:  BC    143E
....................             Tpurga[0]=0; 
0143A:  CLRF   xEE
....................             Tpurga[1]++; 
0143C:  INCF   xEF,F
....................          } 
....................          if(Tpurga[1]>5){ 
0143E:  BTFSC  xEF.7
01440:  BRA    144C
01442:  MOVF   xEF,W
01444:  SUBLW  05
01446:  BC    144C
....................             Tpurga[1]=0; 
01448:  CLRF   xEF
....................             Tpurga[2]++; 
0144A:  INCF   xF0,F
....................          } 
....................          if(Tpurga[2]>9){ 
0144C:  BTFSC  xF0.7
0144E:  BRA    145A
01450:  MOVF   xF0,W
01452:  SUBLW  09
01454:  BC    145A
....................             Tpurga[2]=0; 
01456:  CLRF   xF0
....................             Tpurga[3]++; 
01458:  INCF   xF1,F
....................          } 
....................          if(Tpurga[3]>5) 
0145A:  BTFSC  xF1.7
0145C:  BRA    1466
0145E:  MOVF   xF1,W
01460:  SUBLW  05
01462:  BC    1466
....................             Tpurga[3]=0; 
01464:  CLRF   xF1
....................       }          
....................    } 
.................... } 
....................  
01466:  BCF    F9E.0
01468:  MOVLB  0
0146A:  GOTO   0058
.................... void main(){ 
*
04A0C:  CLRF   FF8
04A0E:  BCF    FD0.7
04A10:  BSF    07.7
04A12:  CLRF   FEA
04A14:  CLRF   FE9
04A16:  MOVLB  4
04A18:  CLRF   x18
04A1A:  CLRF   x17
04A1C:  CLRF   x19
04A1E:  BCF    x1A.0
04A20:  BCF    x1A.1
04A22:  BCF    x1A.2
04A24:  BCF    x1A.3
04A26:  BCF    x1A.4
04A28:  BCF    x1A.5
04A2A:  BCF    x1A.6
04A2C:  BCF    x1A.7
04A2E:  BCF    x1B.0
04A30:  BCF    x1B.1
04A32:  BCF    x1B.2
04A34:  BCF    x1B.3
04A36:  BCF    x1B.4
04A38:  BCF    x1B.5
04A3A:  BCF    x1B.6
04A3C:  BCF    x1B.7
04A3E:  BCF    x1C.0
04A40:  BCF    x1C.1
04A42:  BCF    x1C.2
04A44:  BCF    x1C.3
04A46:  BCF    x1C.4
04A48:  BCF    x1C.5
04A4A:  BCF    x1C.6
04A4C:  BCF    x1C.7
04A4E:  BCF    x1D.0
04A50:  BCF    x1D.1
04A52:  BCF    x1D.2
04A54:  MOVLW  C8
04A56:  MOVWF  xC6
04A58:  MOVLW  01
04A5A:  MOVWF  xC7
04A5C:  MOVWF  xC8
04A5E:  CLRF   xC9
04A60:  MOVLW  0A
04A62:  MOVWF  xCA
04A64:  CLRF   xCB
04A66:  CLRF   xCC
04A68:  CLRF   xCD
04A6A:  CLRF   xCE
04A6C:  CLRF   xCF
04A6E:  CLRF   xD0
04A70:  CLRF   xD1
04A72:  CLRF   xD2
04A74:  CLRF   xD3
04A76:  CLRF   xD4
04A78:  CLRF   xD5
04A7A:  MOVWF  xD6
04A7C:  CLRF   xD7
04A7E:  CLRF   xD8
04A80:  MOVLW  05
04A82:  MOVWF  xD9
04A84:  CLRF   xDB
04A86:  CLRF   xDA
04A88:  CLRF   xDD
04A8A:  CLRF   xDC
04A8C:  CLRF   xDF
04A8E:  CLRF   xDE
04A90:  CLRF   xE1
04A92:  CLRF   xE0
04A94:  CLRF   xE3
04A96:  CLRF   xE2
04A98:  CLRF   xE5
04A9A:  CLRF   xE4
04A9C:  CLRF   xE7
04A9E:  CLRF   xE6
04AA0:  CLRF   xE9
04AA2:  CLRF   xE8
04AA4:  CLRF   xEB
04AA6:  CLRF   xEA
04AA8:  CLRF   xED
04AAA:  CLRF   xEC
04AAC:  MOVLB  5
04AAE:  CLRF   x19
04AB0:  CLRF   x18
04AB2:  CLRF   x17
04AB4:  CLRF   x16
04AB6:  CLRF   x1D
04AB8:  CLRF   x1C
04ABA:  CLRF   x1B
04ABC:  CLRF   x1A
04ABE:  CLRF   x21
04AC0:  CLRF   x20
04AC2:  CLRF   x1F
04AC4:  CLRF   x1E
04AC6:  CLRF   x25
04AC8:  CLRF   x24
04ACA:  CLRF   x23
04ACC:  CLRF   x22
04ACE:  CLRF   x29
04AD0:  CLRF   x28
04AD2:  CLRF   x27
04AD4:  CLRF   x26
04AD6:  CLRF   x2D
04AD8:  CLRF   x2C
04ADA:  CLRF   x2B
04ADC:  CLRF   x2A
04ADE:  CLRF   x31
04AE0:  CLRF   x30
04AE2:  CLRF   x2F
04AE4:  CLRF   x2E
04AE6:  CLRF   x35
04AE8:  CLRF   x34
04AEA:  CLRF   x33
04AEC:  CLRF   x32
04AEE:  CLRF   x39
04AF0:  CLRF   x38
04AF2:  CLRF   x37
04AF4:  CLRF   x36
04AF6:  CLRF   x3D
04AF8:  CLRF   x3C
04AFA:  CLRF   x3B
04AFC:  CLRF   x3A
04AFE:  CLRF   x41
04B00:  CLRF   x40
04B02:  CLRF   x3F
04B04:  CLRF   x3E
04B06:  CLRF   x45
04B08:  CLRF   x44
04B0A:  CLRF   x43
04B0C:  CLRF   x42
04B0E:  CLRF   x49
04B10:  CLRF   x48
04B12:  CLRF   x47
04B14:  CLRF   x46
04B16:  CLRF   x4D
04B18:  CLRF   x4C
04B1A:  CLRF   x4B
04B1C:  CLRF   x4A
04B1E:  MOVLW  19
04B20:  MOVWF  x51
04B22:  MOVLW  53
04B24:  MOVWF  x50
04B26:  MOVLW  18
04B28:  MOVWF  x4F
04B2A:  MOVLW  68
04B2C:  MOVWF  x4E
04B2E:  MOVLW  E9
04B30:  MOVWF  x55
04B32:  MOVLW  BD
04B34:  MOVWF  x54
04B36:  MOVLW  C6
04B38:  MOVWF  x53
04B3A:  MOVLW  71
04B3C:  MOVWF  x52
04B3E:  MOVLW  BE
04B40:  MOVWF  x59
04B42:  MOVLW  96
04B44:  MOVWF  x58
04B46:  MOVLW  24
04B48:  MOVWF  x57
04B4A:  MOVLW  7A
04B4C:  MOVWF  x56
04B4E:  MOVLW  F3
04B50:  MOVWF  x5D
04B52:  MOVLW  5A
04B54:  MOVWF  x5C
04B56:  MOVLW  AB
04B58:  MOVWF  x5B
04B5A:  MOVLW  81
04B5C:  MOVWF  x5A
04B5E:  CLRF   xA1
04B60:  CLRF   xA0
04B62:  CLRF   x9F
04B64:  CLRF   x9E
04B66:  CLRF   xA5
04B68:  CLRF   xA4
04B6A:  MOVLW  4B
04B6C:  MOVWF  xA3
04B6E:  MOVLW  86
04B70:  MOVWF  xA2
04B72:  CLRF   xA9
04B74:  CLRF   xA8
04B76:  CLRF   xA7
04B78:  CLRF   xA6
04B7A:  CLRF   xAD
04B7C:  CLRF   xAC
04B7E:  CLRF   xAB
04B80:  CLRF   xAA
04B82:  CLRF   xB1
04B84:  CLRF   xB0
04B86:  CLRF   xAF
04B88:  CLRF   xAE
04B8A:  CLRF   xB5
04B8C:  CLRF   xB4
04B8E:  CLRF   xB3
04B90:  MOVLW  80
04B92:  MOVWF  xB2
04B94:  MOVLW  85
04B96:  MOVWF  xB9
04B98:  MOVLW  EB
04B9A:  MOVWF  xB8
04B9C:  MOVLW  11
04B9E:  MOVWF  xB7
04BA0:  MOVLW  7E
04BA2:  MOVWF  xB6
04BA4:  MOVF   FC1,W
04BA6:  ANDLW  C0
04BA8:  IORLW  0F
04BAA:  MOVWF  FC1
04BAC:  MOVLW  07
04BAE:  MOVWF  FB4
04BB0:  MOVLW  4A
04BB2:  MOVLB  4
04BB4:  MOVWF  x1E
04BB6:  MOVLW  50
04BB8:  MOVWF  x1F
04BBA:  MOVLW  20
04BBC:  MOVWF  x20
04BBE:  MOVLW  49
04BC0:  MOVWF  x21
04BC2:  MOVLW  6E
04BC4:  MOVWF  x22
04BC6:  MOVLW  67
04BC8:  MOVWF  x23
04BCA:  MOVLW  6C
04BCC:  MOVWF  x24
04BCE:  MOVLW  6F
04BD0:  MOVWF  x25
04BD2:  MOVLW  62
04BD4:  MOVWF  x26
04BD6:  MOVLW  61
04BD8:  MOVWF  x27
04BDA:  MOVLW  6C
04BDC:  MOVWF  x28
04BDE:  CLRF   x29
04BE0:  MOVLW  43
04BE2:  MOVWF  x2A
04BE4:  MOVLW  61
04BE6:  MOVWF  x2B
04BE8:  MOVLW  62
04BEA:  MOVWF  x2C
04BEC:  MOVLW  69
04BEE:  MOVWF  x2D
04BF0:  MOVLW  6E
04BF2:  MOVWF  x2E
04BF4:  MOVLW  61
04BF6:  MOVWF  x2F
04BF8:  MOVLW  20
04BFA:  MOVWF  x30
04BFC:  MOVLW  45
04BFE:  MOVWF  x31
04C00:  MOVLW  78
04C02:  MOVWF  x32
04C04:  MOVLW  74
04C06:  MOVWF  x33
04C08:  MOVLW  72
04C0A:  MOVWF  x34
04C0C:  MOVLW  61
04C0E:  MOVWF  x35
04C10:  MOVLW  63
04C12:  MOVWF  x36
04C14:  MOVLW  74
04C16:  MOVWF  x37
04C18:  MOVLW  6F
04C1A:  MOVWF  x38
04C1C:  MOVLW  72
04C1E:  MOVWF  x39
04C20:  MOVLW  61
04C22:  MOVWF  x3A
04C24:  CLRF   x3B
04C26:  MOVLW  54
04C28:  MOVWF  x3C
04C2A:  MOVLW  20
04C2C:  MOVWF  x3D
04C2E:  MOVLW  65
04C30:  MOVWF  x3E
04C32:  MOVLW  73
04C34:  MOVWF  x3F
04C36:  MOVLW  74
04C38:  MOVWF  x40
04C3A:  MOVLW  3D
04C3C:  MOVWF  x41
04C3E:  CLRF   x42
04C40:  MOVLW  3A
04C42:  MOVWF  x43
04C44:  CLRF   x44
04C46:  MOVLW  43
04C48:  MOVWF  x45
04C4A:  MOVLW  6F
04C4C:  MOVWF  x46
04C4E:  MOVLW  6E
04C50:  MOVWF  x47
04C52:  MOVLW  20
04C54:  MOVWF  x48
04C56:  MOVLW  44
04C58:  MOVWF  x49
04C5A:  MOVLW  75
04C5C:  MOVWF  x4A
04C5E:  MOVLW  63
04C60:  MOVWF  x4B
04C62:  MOVLW  74
04C64:  MOVWF  x4C
04C66:  MOVLW  6F
04C68:  MOVWF  x4D
04C6A:  MOVLW  73
04C6C:  MOVWF  x4E
04C6E:  CLRF   x4F
04C70:  MOVLW  54
04C72:  MOVWF  x50
04C74:  MOVLW  69
04C76:  MOVWF  x51
04C78:  MOVLW  65
04C7A:  MOVWF  x52
04C7C:  MOVLW  6D
04C7E:  MOVWF  x53
04C80:  MOVLW  70
04C82:  MOVWF  x54
04C84:  MOVLW  6F
04C86:  MOVWF  x55
04C88:  MOVLW  20
04C8A:  MOVWF  x56
04C8C:  MOVLW  64
04C8E:  MOVWF  x57
04C90:  MOVLW  65
04C92:  MOVWF  x58
04C94:  MOVLW  20
04C96:  MOVWF  x59
04C98:  MOVLW  50
04C9A:  MOVWF  x5A
04C9C:  MOVLW  75
04C9E:  MOVWF  x5B
04CA0:  MOVLW  72
04CA2:  MOVWF  x5C
04CA4:  MOVLW  67
04CA6:  MOVWF  x5D
04CA8:  MOVLW  61
04CAA:  MOVWF  x5E
04CAC:  CLRF   x5F
04CAE:  MOVLW  4A
04CB0:  MOVWF  x60
04CB2:  MOVLW  50
04CB4:  MOVWF  x61
04CB6:  MOVLW  43
04CB8:  MOVWF  x62
04CBA:  MOVLW  45
04CBC:  MOVWF  x63
04CBE:  MOVLW  47
04CC0:  MOVWF  x64
04CC2:  MOVLW  48
04CC4:  MOVWF  x65
04CC6:  MOVLW  2D
04CC8:  MOVWF  x66
04CCA:  MOVLW  46
04CCC:  MOVWF  x67
04CCE:  MOVLW  2D
04CD0:  MOVWF  x68
04CD2:  MOVLW  41
04CD4:  MOVWF  x69
04CD6:  CLRF   x6A
04CD8:  MOVLW  50
04CDA:  MOVWF  x6B
04CDC:  MOVLW  72
04CDE:  MOVWF  x6C
04CE0:  MOVLW  65
04CE2:  MOVWF  x6D
04CE4:  MOVLW  73
04CE6:  MOVWF  x6E
04CE8:  MOVLW  28
04CEA:  MOVWF  x6F
04CEC:  MOVLW  69
04CEE:  MOVWF  x70
04CF0:  MOVLW  6E
04CF2:  MOVWF  x71
04CF4:  MOVLW  48
04CF6:  MOVWF  x72
04CF8:  MOVLW  32
04CFA:  MOVWF  x73
04CFC:  MOVLW  4F
04CFE:  MOVWF  x74
04D00:  MOVLW  29
04D02:  MOVWF  x75
04D04:  MOVLW  3A
04D06:  MOVWF  x76
04D08:  CLRF   x77
04D0A:  MOVLW  46
04D0C:  MOVWF  x78
04D0E:  MOVLW  61
04D10:  MOVWF  x79
04D12:  MOVLW  62
04D14:  MOVWF  x7A
04D16:  MOVLW  72
04D18:  MOVWF  x7B
04D1A:  MOVLW  69
04D1C:  MOVWF  x7C
04D1E:  MOVLW  63
04D20:  MOVWF  x7D
04D22:  MOVLW  61
04D24:  MOVWF  x7E
04D26:  MOVLW  3A
04D28:  MOVWF  x7F
04D2A:  MOVLW  32
04D2C:  MOVWF  x80
04D2E:  MOVLW  30
04D30:  MOVWF  x81
04D32:  MOVLW  38
04D34:  MOVWF  x82
04D36:  MOVLW  2E
04D38:  MOVWF  x83
04D3A:  MOVLW  30
04D3C:  MOVWF  x84
04D3E:  CLRF   x85
04D40:  MOVLW  41
04D42:  MOVWF  x86
04D44:  MOVLW  63
04D46:  MOVWF  x87
04D48:  MOVLW  74
04D4A:  MOVWF  x88
04D4C:  MOVLW  75
04D4E:  MOVWF  x89
04D50:  MOVLW  61
04D52:  MOVWF  x8A
04D54:  MOVLW  6C
04D56:  MOVWF  x8B
04D58:  MOVLW  3A
04D5A:  MOVWF  x8C
04D5C:  CLRF   x8D
04D5E:  MOVLW  41
04D60:  MOVWF  x8E
04D62:  MOVLW  6A
04D64:  MOVWF  x8F
04D66:  MOVLW  75
04D68:  MOVWF  x90
04D6A:  MOVLW  73
04D6C:  MOVWF  x91
04D6E:  MOVLW  74
04D70:  MOVWF  x92
04D72:  MOVLW  65
04D74:  MOVWF  x93
04D76:  MOVLW  3A
04D78:  MOVWF  x94
04D7A:  CLRF   x95
04D7C:  MOVLW  55
04D7E:  MOVWF  x96
04D80:  MOVLW  56
04D82:  MOVWF  x97
04D84:  MOVLW  4C
04D86:  MOVWF  x98
04D88:  MOVLW  69
04D8A:  MOVWF  x99
04D8C:  MOVLW  66
04D8E:  MOVWF  x9A
04D90:  MOVLW  65
04D92:  MOVWF  x9B
04D94:  MOVLW  3A
04D96:  MOVWF  x9C
04D98:  CLRF   x9D
04D9A:  MOVLW  46
04D9C:  MOVWF  x9E
04D9E:  MOVLW  69
04DA0:  MOVWF  x9F
04DA2:  MOVLW  6C
04DA4:  MOVWF  xA0
04DA6:  MOVLW  74
04DA8:  MOVWF  xA1
04DAA:  MOVLW  65
04DAC:  MOVWF  xA2
04DAE:  MOVLW  72
04DB0:  MOVWF  xA3
04DB2:  MOVLW  3A
04DB4:  MOVWF  xA4
04DB6:  CLRF   xA5
04DB8:  MOVLW  46
04DBA:  MOVWF  xA6
04DBC:  MOVLW  61
04DBE:  MOVWF  xA7
04DC0:  MOVLW  62
04DC2:  MOVWF  xA8
04DC4:  MOVLW  72
04DC6:  MOVWF  xA9
04DC8:  MOVLW  69
04DCA:  MOVWF  xAA
04DCC:  MOVLW  63
04DCE:  MOVWF  xAB
04DD0:  MOVLW  61
04DD2:  MOVWF  xAC
04DD4:  MOVLW  3A
04DD6:  MOVWF  xAD
04DD8:  MOVLW  32
04DDA:  MOVWF  xAE
04DDC:  MOVLW  33
04DDE:  MOVWF  xAF
04DE0:  MOVLW  35
04DE2:  MOVWF  xB0
04DE4:  MOVLW  2E
04DE6:  MOVWF  xB1
04DE8:  MOVLW  30
04DEA:  MOVWF  xB2
04DEC:  CLRF   xB3
04DEE:  MOVLW  21
04DF0:  MOVWF  xB4
04DF2:  MOVLW  46
04DF4:  MOVWF  xB5
04DF6:  MOVLW  69
04DF8:  MOVWF  xB6
04DFA:  MOVLW  6C
04DFC:  MOVWF  xB7
04DFE:  MOVLW  74
04E00:  MOVWF  xB8
04E02:  MOVLW  72
04E04:  MOVWF  xB9
04E06:  MOVLW  6F
04E08:  MOVWF  xBA
04E0A:  MOVLW  20
04E0C:  MOVWF  xBB
04E0E:  MOVLW  53
04E10:  MOVWF  xBC
04E12:  MOVLW  61
04E14:  MOVWF  xBD
04E16:  MOVLW  74
04E18:  MOVWF  xBE
04E1A:  MOVLW  75
04E1C:  MOVWF  xBF
04E1E:  MOVLW  72
04E20:  MOVWF  xC0
04E22:  MOVLW  61
04E24:  MOVWF  xC1
04E26:  MOVLW  64
04E28:  MOVWF  xC2
04E2A:  MOVLW  6F
04E2C:  MOVWF  xC3
04E2E:  MOVLW  21
04E30:  MOVWF  xC4
04E32:  CLRF   xC5
04E34:  CLRF   xEE
04E36:  CLRF   xEF
04E38:  CLRF   xF0
04E3A:  CLRF   xF1
04E3C:  MOVLW  09
04E3E:  MOVWF  xF2
04E40:  CLRF   xF3
04E42:  CLRF   xF4
04E44:  CLRF   xF5
04E46:  CLRF   xF6
04E48:  CLRF   xF7
04E4A:  CLRF   xF8
04E4C:  CLRF   xF9
04E4E:  MOVWF  xFA
04E50:  CLRF   xFB
04E52:  CLRF   xFC
04E54:  CLRF   xFD
04E56:  CLRF   xFE
04E58:  CLRF   xFF
04E5A:  MOVLB  5
04E5C:  CLRF   x00
04E5E:  CLRF   x01
04E60:  CLRF   x02
04E62:  CLRF   x03
04E64:  CLRF   x04
04E66:  CLRF   x05
04E68:  CLRF   x06
04E6A:  CLRF   x07
04E6C:  CLRF   x08
04E6E:  CLRF   x09
04E70:  CLRF   x0A
04E72:  CLRF   x0B
04E74:  CLRF   x0C
04E76:  CLRF   x0D
04E78:  CLRF   x0E
04E7A:  CLRF   x0F
04E7C:  CLRF   x10
04E7E:  CLRF   x11
04E80:  CLRF   x12
04E82:  CLRF   x13
04E84:  CLRF   x14
04E86:  CLRF   x15
04E88:  CLRF   x5E
04E8A:  CLRF   x5F
04E8C:  CLRF   x60
04E8E:  CLRF   x61
04E90:  CLRF   x62
04E92:  CLRF   x63
04E94:  CLRF   x64
04E96:  CLRF   x65
04E98:  CLRF   x66
04E9A:  CLRF   x67
04E9C:  CLRF   x68
04E9E:  CLRF   x69
04EA0:  CLRF   x6A
04EA2:  CLRF   x6B
04EA4:  CLRF   x6C
04EA6:  CLRF   x6D
04EA8:  CLRF   x6E
04EAA:  CLRF   x6F
04EAC:  CLRF   x70
04EAE:  CLRF   x71
04EB0:  CLRF   x72
04EB2:  CLRF   x73
04EB4:  CLRF   x74
04EB6:  CLRF   x75
04EB8:  CLRF   x76
04EBA:  CLRF   x77
04EBC:  CLRF   x78
04EBE:  CLRF   x79
04EC0:  CLRF   x7A
04EC2:  CLRF   x7B
04EC4:  CLRF   x7C
04EC6:  CLRF   x7D
04EC8:  CLRF   x7E
04ECA:  CLRF   x7F
04ECC:  CLRF   x80
04ECE:  CLRF   x81
04ED0:  CLRF   x82
04ED2:  CLRF   x83
04ED4:  CLRF   x84
04ED6:  CLRF   x85
04ED8:  CLRF   x86
04EDA:  CLRF   x87
04EDC:  CLRF   x88
04EDE:  CLRF   x89
04EE0:  CLRF   x8A
04EE2:  CLRF   x8B
04EE4:  CLRF   x8C
04EE6:  CLRF   x8D
04EE8:  CLRF   x8E
04EEA:  CLRF   x8F
04EEC:  CLRF   x90
04EEE:  CLRF   x91
04EF0:  CLRF   x92
04EF2:  CLRF   x93
04EF4:  CLRF   x94
04EF6:  CLRF   x95
04EF8:  CLRF   x96
04EFA:  CLRF   x97
04EFC:  CLRF   x98
04EFE:  CLRF   x99
04F00:  CLRF   x9A
04F02:  CLRF   x9B
04F04:  CLRF   x9C
04F06:  CLRF   x9D
04F08:  CLRF   xCE
04F0A:  CLRF   xCF
....................  
....................    setup_timer_1(T1_INTERNAL|T1_DIV_BY_1);    
04F0C:  MOVLW  85
04F0E:  MOVWF  FCD
....................    enable_interrupts(INT_TIMER1); 
04F10:  BSF    F9D.0
....................    setup_adc_ports(AN0_TO_AN1); 
04F12:  MOVF   FC1,W
04F14:  ANDLW  C0
04F16:  IORLW  0D
04F18:  MOVWF  FC1
....................    setup_adc(ADC_CLOCK_DIV_32 ); 
04F1A:  MOVF   FC0,W
04F1C:  ANDLW  C0
04F1E:  IORLW  02
04F20:  MOVWF  FC0
04F22:  BSF    FC0.7
04F24:  BSF    FC2.0
....................    enable_interrupts(global);    
04F26:  MOVLW  C0
04F28:  IORWF  FF2,F
....................    Display_off;VelocidadMotor(0);LuzBlanca_off;LuzUV_off;Toma_off;Alarma_off; 
04F2A:  BCF    F8A.1
04F2C:  BCF    F93.1
04F2E:  CLRF   xD0
04F30:  MOVLB  0
04F32:  CALL   146E
04F36:  BSF    F8B.4
04F38:  BCF    F94.4
04F3A:  BSF    F8B.5
04F3C:  BCF    F94.5
04F3E:  BCF    F8B.7
04F40:  BCF    F94.7
04F42:  BCF    F8B.3
04F44:  BCF    F94.3
....................    LeeEEPROM(); // Lectura de variables almacenadas en la EEPROM 
04F46:  GOTO   18B6
....................     
....................    LimitaValores(); 
04F4A:  GOTO   2148
....................     
....................    while(true){ 
....................     
....................    glcd_update(); 
04F4E:  CALL   2B92
....................    MueveVidrio(); 
04F52:  GOTO   2C4A
....................  
.................... //**Actualizacin de Lectura de Sensores**// 
....................    if(Lectura==1){ 
04F56:  MOVLB  4
04F58:  BTFSS  x1C.2
04F5A:  BRA    4F98
....................       Lectura=0; 
04F5C:  BCF    x1C.2
....................       InFlow=LeerFlujoInFlow(8); 
04F5E:  MOVLW  08
04F60:  MOVLB  5
04F62:  MOVWF  xD0
04F64:  MOVLB  0
04F66:  GOTO   2E1A
04F6A:  MOVFF  03,519
04F6E:  MOVFF  02,518
04F72:  MOVFF  01,517
04F76:  MOVFF  00,516
....................       Filtro_DownFlow=Leer_Sensor_Presion(8); 
04F7A:  MOVLW  08
04F7C:  MOVLB  5
04F7E:  MOVWF  xD0
04F80:  MOVLB  0
04F82:  GOTO   31EA
04F86:  MOVFF  03,51D
04F8A:  MOVFF  02,51C
04F8E:  MOVFF  01,51B
04F92:  MOVFF  00,51A
04F96:  MOVLB  4
....................    } 
.................... //----------------------------------------// 
....................  
.................... //**Contador de Tiempo de Trabajo del filtro**// 
....................    if(minutos_trabajo>=3600){ // Tiempo de Trabajo 
04F98:  MOVF   xE5,W
04F9A:  SUBLW  0D
04F9C:  BTFSC  FD8.0
04F9E:  BRA    5146
04FA0:  XORLW  FF
04FA2:  BNZ   4FAC
04FA4:  MOVF   xE4,W
04FA6:  SUBLW  0F
04FA8:  BTFSC  FD8.0
04FAA:  BRA    5146
....................       minutos_trabajo=0; //Minutos Trabajo realmente son segundos. 
04FAC:  CLRF   xE5
04FAE:  CLRF   xE4
....................       write_eeprom(33,make8(minutos_trabajo,0)); 
04FB0:  MOVFF  4E4,5D0
04FB4:  CLRF   FAA
04FB6:  MOVLW  21
04FB8:  MOVWF  FA9
04FBA:  MOVFF  5D0,FA8
04FBE:  BCF    FA6.6
04FC0:  BCF    FA6.7
04FC2:  BSF    FA6.2
04FC4:  MOVF   FF2,W
04FC6:  MOVWF  00
04FC8:  BCF    FF2.7
04FCA:  MOVLB  F
04FCC:  MOVLW  55
04FCE:  MOVWF  FA7
04FD0:  MOVLW  AA
04FD2:  MOVWF  FA7
04FD4:  BSF    FA6.1
04FD6:  BTFSC  FA6.1
04FD8:  BRA    4FD6
04FDA:  BCF    FA6.2
04FDC:  MOVF   00,W
04FDE:  IORWF  FF2,F
....................       delay_ms(20); 
04FE0:  MOVLW  14
04FE2:  MOVLB  5
04FE4:  MOVWF  xD9
04FE6:  MOVLB  0
04FE8:  CALL   1482
....................       write_eeprom(34,make8(minutos_trabajo,1)); 
04FEC:  MOVFF  4E5,5D0
04FF0:  CLRF   FAA
04FF2:  MOVLW  22
04FF4:  MOVWF  FA9
04FF6:  MOVFF  5D0,FA8
04FFA:  BCF    FA6.6
04FFC:  BCF    FA6.7
04FFE:  BSF    FA6.2
05000:  MOVF   FF2,W
05002:  MOVWF  00
05004:  BCF    FF2.7
05006:  MOVLB  F
05008:  MOVLW  55
0500A:  MOVWF  FA7
0500C:  MOVLW  AA
0500E:  MOVWF  FA7
05010:  BSF    FA6.1
05012:  BTFSC  FA6.1
05014:  BRA    5012
05016:  BCF    FA6.2
05018:  MOVF   00,W
0501A:  IORWF  FF2,F
....................       delay_ms(20); 
0501C:  MOVLW  14
0501E:  MOVLB  5
05020:  MOVWF  xD9
05022:  MOVLB  0
05024:  CALL   1482
....................       Ttrabajo[0]++; 
05028:  MOVLB  5
0502A:  INCF   x0A,F
....................       if(Ttrabajo[0]>9){ 
0502C:  BTFSC  x0A.7
0502E:  BRA    503A
05030:  MOVF   x0A,W
05032:  SUBLW  09
05034:  BC    503A
....................          Ttrabajo[0]=0; 
05036:  CLRF   x0A
....................          Ttrabajo[1]++; 
05038:  INCF   x0B,F
....................       } 
....................       if(Ttrabajo[1]>9){ 
0503A:  BTFSC  x0B.7
0503C:  BRA    5048
0503E:  MOVF   x0B,W
05040:  SUBLW  09
05042:  BC    5048
....................          Ttrabajo[1]=0; 
05044:  CLRF   x0B
....................          Ttrabajo[2]++; 
05046:  INCF   x0C,F
....................       } 
....................       if(Ttrabajo[2]>9){ 
05048:  BTFSC  x0C.7
0504A:  BRA    5056
0504C:  MOVF   x0C,W
0504E:  SUBLW  09
05050:  BC    5056
....................          Ttrabajo[2]=0; 
05052:  CLRF   x0C
....................          Ttrabajo[3]++; 
05054:  INCF   x0D,F
....................       } 
....................       if(Ttrabajo[3]>9){ 
05056:  BTFSC  x0D.7
05058:  BRA    5062
0505A:  MOVF   x0D,W
0505C:  SUBLW  09
0505E:  BC    5062
....................          Ttrabajo[3]=0; 
05060:  CLRF   x0D
....................       } 
....................       write_eeprom(16,Ttrabajo[0]); 
05062:  CLRF   FAA
05064:  MOVLW  10
05066:  MOVWF  FA9
05068:  MOVFF  50A,FA8
0506C:  BCF    FA6.6
0506E:  BCF    FA6.7
05070:  BSF    FA6.2
05072:  MOVF   FF2,W
05074:  MOVWF  00
05076:  BCF    FF2.7
05078:  MOVLB  F
0507A:  MOVLW  55
0507C:  MOVWF  FA7
0507E:  MOVLW  AA
05080:  MOVWF  FA7
05082:  BSF    FA6.1
05084:  BTFSC  FA6.1
05086:  BRA    5084
05088:  BCF    FA6.2
0508A:  MOVF   00,W
0508C:  IORWF  FF2,F
....................       delay_ms(20); 
0508E:  MOVLW  14
05090:  MOVLB  5
05092:  MOVWF  xD9
05094:  MOVLB  0
05096:  CALL   1482
....................       write_eeprom(17,Ttrabajo[1]); 
0509A:  CLRF   FAA
0509C:  MOVLW  11
0509E:  MOVWF  FA9
050A0:  MOVFF  50B,FA8
050A4:  BCF    FA6.6
050A6:  BCF    FA6.7
050A8:  BSF    FA6.2
050AA:  MOVF   FF2,W
050AC:  MOVWF  00
050AE:  BCF    FF2.7
050B0:  MOVLB  F
050B2:  MOVLW  55
050B4:  MOVWF  FA7
050B6:  MOVLW  AA
050B8:  MOVWF  FA7
050BA:  BSF    FA6.1
050BC:  BTFSC  FA6.1
050BE:  BRA    50BC
050C0:  BCF    FA6.2
050C2:  MOVF   00,W
050C4:  IORWF  FF2,F
....................       delay_ms(20); 
050C6:  MOVLW  14
050C8:  MOVLB  5
050CA:  MOVWF  xD9
050CC:  MOVLB  0
050CE:  CALL   1482
....................       write_eeprom(18,Ttrabajo[2]); 
050D2:  CLRF   FAA
050D4:  MOVLW  12
050D6:  MOVWF  FA9
050D8:  MOVFF  50C,FA8
050DC:  BCF    FA6.6
050DE:  BCF    FA6.7
050E0:  BSF    FA6.2
050E2:  MOVF   FF2,W
050E4:  MOVWF  00
050E6:  BCF    FF2.7
050E8:  MOVLB  F
050EA:  MOVLW  55
050EC:  MOVWF  FA7
050EE:  MOVLW  AA
050F0:  MOVWF  FA7
050F2:  BSF    FA6.1
050F4:  BTFSC  FA6.1
050F6:  BRA    50F4
050F8:  BCF    FA6.2
050FA:  MOVF   00,W
050FC:  IORWF  FF2,F
....................       delay_ms(20); 
050FE:  MOVLW  14
05100:  MOVLB  5
05102:  MOVWF  xD9
05104:  MOVLB  0
05106:  CALL   1482
....................       write_eeprom(19,Ttrabajo[3]); 
0510A:  CLRF   FAA
0510C:  MOVLW  13
0510E:  MOVWF  FA9
05110:  MOVFF  50D,FA8
05114:  BCF    FA6.6
05116:  BCF    FA6.7
05118:  BSF    FA6.2
0511A:  MOVF   FF2,W
0511C:  MOVWF  00
0511E:  BCF    FF2.7
05120:  MOVLB  F
05122:  MOVLW  55
05124:  MOVWF  FA7
05126:  MOVLW  AA
05128:  MOVWF  FA7
0512A:  BSF    FA6.1
0512C:  BTFSC  FA6.1
0512E:  BRA    512C
05130:  BCF    FA6.2
05132:  MOVF   00,W
05134:  IORWF  FF2,F
....................       delay_ms(20); 
05136:  MOVLW  14
05138:  MOVLB  5
0513A:  MOVWF  xD9
0513C:  MOVLB  0
0513E:  CALL   1482
....................    }else if(minutos_trabajo==900 || minutos_trabajo==1800 || minutos_trabajo==2700 ){ 
05142:  BRA    51E2
05144:  MOVLB  4
05146:  MOVF   xE4,W
05148:  SUBLW  84
0514A:  BNZ   5152
0514C:  MOVF   xE5,W
0514E:  SUBLW  03
05150:  BZ    516A
05152:  MOVF   xE4,W
05154:  SUBLW  08
05156:  BNZ   515E
05158:  MOVF   xE5,W
0515A:  SUBLW  07
0515C:  BZ    516A
0515E:  MOVF   xE4,W
05160:  SUBLW  8C
05162:  BNZ   51E4
05164:  MOVF   xE5,W
05166:  SUBLW  0A
05168:  BNZ   51E4
....................       write_eeprom(33,make8(minutos_trabajo,0)); 
0516A:  MOVFF  4E4,5D0
0516E:  CLRF   FAA
05170:  MOVLW  21
05172:  MOVWF  FA9
05174:  MOVFF  5D0,FA8
05178:  BCF    FA6.6
0517A:  BCF    FA6.7
0517C:  BSF    FA6.2
0517E:  MOVF   FF2,W
05180:  MOVWF  00
05182:  BCF    FF2.7
05184:  MOVLB  F
05186:  MOVLW  55
05188:  MOVWF  FA7
0518A:  MOVLW  AA
0518C:  MOVWF  FA7
0518E:  BSF    FA6.1
05190:  BTFSC  FA6.1
05192:  BRA    5190
05194:  BCF    FA6.2
05196:  MOVF   00,W
05198:  IORWF  FF2,F
....................       delay_ms(20); 
0519A:  MOVLW  14
0519C:  MOVLB  5
0519E:  MOVWF  xD9
051A0:  MOVLB  0
051A2:  CALL   1482
....................       write_eeprom(34,make8(minutos_trabajo,1)); 
051A6:  MOVFF  4E5,5D0
051AA:  CLRF   FAA
051AC:  MOVLW  22
051AE:  MOVWF  FA9
051B0:  MOVFF  5D0,FA8
051B4:  BCF    FA6.6
051B6:  BCF    FA6.7
051B8:  BSF    FA6.2
051BA:  MOVF   FF2,W
051BC:  MOVWF  00
051BE:  BCF    FF2.7
051C0:  MOVLB  F
051C2:  MOVLW  55
051C4:  MOVWF  FA7
051C6:  MOVLW  AA
051C8:  MOVWF  FA7
051CA:  BSF    FA6.1
051CC:  BTFSC  FA6.1
051CE:  BRA    51CC
051D0:  BCF    FA6.2
051D2:  MOVF   00,W
051D4:  IORWF  FF2,F
....................       delay_ms(20); 
051D6:  MOVLW  14
051D8:  MOVLB  5
051DA:  MOVWF  xD9
051DC:  MOVLB  0
051DE:  CALL   1482
051E2:  MOVLB  4
....................    } 
.................... //----------------------------------------// 
....................  
....................    if(Menu!=2){ // Si no esta en el menu de estados apaga la alarma 
051E4:  MOVF   xC6,W
051E6:  SUBLW  02
051E8:  BZ    51F2
....................       Alarma_off; 
051EA:  BCF    F8B.3
051EC:  BCF    F94.3
....................       Alarma=10; 
051EE:  MOVLW  0A
051F0:  MOVWF  xD6
....................    } 
....................     
.................... //_-------------------------------------------------------------------------------------------------------------------------------------------------------- 
....................    if(Menu==0){ //Menu de Contrasea.  
051F2:  MOVF   xC6,F
051F4:  BNZ   5218
....................       PidePassword(0,0,1,Password[0],Password[1],Password[2],Password[3]); 
051F6:  MOVLB  5
051F8:  CLRF   xD1
051FA:  CLRF   xD2
051FC:  MOVLW  01
051FE:  MOVWF  xD3
05200:  MOVFF  512,5D4
05204:  MOVFF  513,5D5
05208:  MOVFF  514,5D6
0520C:  MOVFF  515,5D7
05210:  MOVLB  0
05212:  CALL   3BAC
05216:  MOVLB  4
....................    } 
.................... //_--------------------------------------------------------------------------------------------------------------------------------------------------------        
....................  
.................... //_-------------------------------------------------------------------------------------------------------------------------------------------------------- 
....................       if(Menu==1)//Menu de Purga. 
05218:  DECFSZ xC6,W
0521A:  BRA    535A
....................       {  
....................          glcd_text57(15, 1, Tiempo, 1, ON); 
0521C:  MOVLW  0F
0521E:  MOVLB  5
05220:  MOVWF  xE9
05222:  MOVLW  01
05224:  MOVWF  xEA
05226:  MOVLW  04
05228:  MOVWF  xEC
0522A:  MOVLW  50
0522C:  MOVWF  xEB
0522E:  MOVLW  01
05230:  MOVWF  xED
05232:  MOVWF  xEE
05234:  MOVLB  0
05236:  CALL   3816
....................          // Para que inicie el tiempo de purga se debe tener el vidrio en la altura adecuada. 
....................          // Una vez ubicado el vidrio se debe encender la Luz Blanca y el Ventilador e iniciar el Tiempo de purga. 
....................          VelocidadMotor(VelMotor); 
0523A:  MOVFF  4D8,5D0
0523E:  CALL   146E
....................          displayTiempo(Tpurga[3],20,20,0,2);displayTiempo(Tpurga[2],40,20,0,2);glcd_text57(60, 22, Dos_puntos, 2, ON); 
05242:  MOVFF  4F1,5D0
05246:  MOVLW  14
05248:  MOVLB  5
0524A:  MOVWF  xD1
0524C:  MOVWF  xD2
0524E:  CLRF   xD3
05250:  MOVLW  02
05252:  MOVWF  xD4
05254:  MOVLB  0
05256:  CALL   426E
0525A:  MOVFF  4F0,5D0
0525E:  MOVLW  28
05260:  MOVLB  5
05262:  MOVWF  xD1
05264:  MOVLW  14
05266:  MOVWF  xD2
05268:  CLRF   xD3
0526A:  MOVLW  02
0526C:  MOVWF  xD4
0526E:  MOVLB  0
05270:  CALL   426E
05274:  MOVLW  3C
05276:  MOVLB  5
05278:  MOVWF  xE9
0527A:  MOVLW  16
0527C:  MOVWF  xEA
0527E:  MOVLW  04
05280:  MOVWF  xEC
05282:  MOVLW  43
05284:  MOVWF  xEB
05286:  MOVLW  02
05288:  MOVWF  xED
0528A:  MOVLW  01
0528C:  MOVWF  xEE
0528E:  MOVLB  0
05290:  CALL   3816
....................          displayTiempo(Tpurga[1],70,20,0,2);displayTiempo(Tpurga[0],90,20,0,2);         
05294:  MOVFF  4EF,5D0
05298:  MOVLW  46
0529A:  MOVLB  5
0529C:  MOVWF  xD1
0529E:  MOVLW  14
052A0:  MOVWF  xD2
052A2:  CLRF   xD3
052A4:  MOVLW  02
052A6:  MOVWF  xD4
052A8:  MOVLB  0
052AA:  CALL   426E
052AE:  MOVFF  4EE,5D0
052B2:  MOVLW  5A
052B4:  MOVLB  5
052B6:  MOVWF  xD1
052B8:  MOVLW  14
052BA:  MOVWF  xD2
052BC:  CLRF   xD3
052BE:  MOVLW  02
052C0:  MOVWF  xD4
052C2:  MOVLB  0
052C4:  CALL   426E
....................        
....................          if(RIGHT){ // Modo de saltarse el tiempo de purga. 
052C8:  BSF    F96.1
052CA:  BTFSC  F84.1
052CC:  BRA    52FC
....................             delay_ms(1000); 
052CE:  MOVLW  04
052D0:  MOVLB  5
052D2:  MOVWF  xD0
052D4:  MOVLW  FA
052D6:  MOVWF  xD9
052D8:  MOVLB  0
052DA:  CALL   1482
052DE:  MOVLB  5
052E0:  DECFSZ xD0,F
052E2:  BRA    52D4
....................             if(RIGHT){ 
052E4:  BSF    F96.1
052E6:  BTFSC  F84.1
052E8:  BRA    52FE
....................                tiempo_purga=0;Menu=2;glcd_fillScreen(OFF); 
052EA:  MOVLB  4
052EC:  BCF    x1B.3
052EE:  MOVLW  02
052F0:  MOVWF  xC6
052F2:  MOVLB  5
052F4:  CLRF   xD8
052F6:  MOVLB  0
052F8:  CALL   3B52
052FC:  MOVLB  5
....................             } 
....................          } 
....................         
....................          if((Tpurga[0]>=Tpurgap[0])&&(Tpurga[1]>=Tpurgap[1])&&(Tpurga[2]>=Tpurgap[2])&&(Tpurga[3]>=Tpurgap[3])){//Si cumplio el tiempo 
052FE:  MOVLB  4
05300:  MOVF   xF2,W
05302:  XORLW  80
05304:  MOVWF  00
05306:  MOVF   xEE,W
05308:  XORLW  80
0530A:  SUBWF  00,W
0530C:  BZ    5310
0530E:  BC    535A
05310:  MOVF   xF3,W
05312:  XORLW  80
05314:  MOVWF  00
05316:  MOVF   xEF,W
05318:  XORLW  80
0531A:  SUBWF  00,W
0531C:  BZ    5320
0531E:  BC    535A
05320:  MOVF   xF4,W
05322:  XORLW  80
05324:  MOVWF  00
05326:  MOVF   xF0,W
05328:  XORLW  80
0532A:  SUBWF  00,W
0532C:  BZ    5330
0532E:  BC    535A
05330:  MOVF   xF5,W
05332:  XORLW  80
05334:  MOVWF  00
05336:  MOVF   xF1,W
05338:  XORLW  80
0533A:  SUBWF  00,W
0533C:  BZ    5340
0533E:  BC    535A
....................             tiempo_purga=0;Menu=2;glcd_fillScreen(OFF);flag_luz=!flag_luz;flag_blower=5;flag_toma=1; 
05340:  BCF    x1B.3
05342:  MOVLW  02
05344:  MOVWF  xC6
05346:  MOVLB  5
05348:  CLRF   xD8
0534A:  MOVLB  0
0534C:  CALL   3B52
05350:  MOVLB  4
05352:  BTG    x1B.1
05354:  MOVLW  05
05356:  MOVWF  xD9
05358:  BSF    x1B.0
....................          }       
....................       } 
.................... //_--------------------------------------------------------------------------------------------------------------------------------------------------------        
....................  
.................... //_-------------------------------------------------------------------------------------------------------------------------------------------------------- 
....................       if(Menu==2) //Menu General. 
0535A:  MOVF   xC6,W
0535C:  SUBLW  02
0535E:  BTFSS  FD8.2
05360:  GOTO   5AEE
....................       {          
....................          w=0; 
05364:  BCF    x1B.2
....................          glcd_text57(0, 1, Inflowt, 1, ON); 
05366:  MOVLB  5
05368:  CLRF   xE9
0536A:  MOVLW  01
0536C:  MOVWF  xEA
0536E:  MOVLW  04
05370:  MOVWF  xEC
05372:  MOVLW  60
05374:  MOVWF  xEB
05376:  MOVLW  01
05378:  MOVWF  xED
0537A:  MOVWF  xEE
0537C:  MOVLB  0
0537E:  CALL   3816
....................          glcd_text57(0, 21, Downflowt, 1, ON); 
05382:  MOVLB  5
05384:  CLRF   xE9
05386:  MOVLW  15
05388:  MOVWF  xEA
0538A:  MOVLW  04
0538C:  MOVWF  xEC
0538E:  MOVLW  6B
05390:  MOVWF  xEB
05392:  MOVLW  01
05394:  MOVWF  xED
05396:  MOVWF  xEE
05398:  MOVLB  0
0539A:  CALL   3816
....................          glcd_text57(0, 35, Vida_Filtro, 1, ON); 
0539E:  MOVLB  5
053A0:  CLRF   xE9
053A2:  MOVLW  23
053A4:  MOVWF  xEA
053A6:  MOVLW  04
053A8:  MOVWF  xEC
053AA:  MOVLW  9E
053AC:  MOVWF  xEB
053AE:  MOVLW  01
053B0:  MOVWF  xED
053B2:  MOVWF  xEE
053B4:  MOVLB  0
053B6:  CALL   3816
....................          //displayfloat(flag_blower,0,50,0,1);   
....................          //UVTime=Tuv[0]+(Tuv[1]*10)+(Tuv[2]*100)+(Tuv[3]*1000);          
....................           
....................          if(imprimir==1){ 
053BA:  MOVLB  4
053BC:  BTFSS  x1A.6
053BE:  BRA    53F6
....................             displayfloat(Filtro_Downflow,70,21,0,1);     
053C0:  MOVFF  51D,5D7
053C4:  MOVFF  51C,5D6
053C8:  MOVFF  51B,5D5
053CC:  MOVFF  51A,5D4
053D0:  MOVLW  46
053D2:  MOVLB  5
053D4:  MOVWF  xD8
053D6:  MOVLW  15
053D8:  MOVWF  xD9
053DA:  CLRF   xDA
053DC:  MOVLW  01
053DE:  MOVWF  xDB
053E0:  MOVLB  0
053E2:  CALL   45C0
....................             glcd_imagen(4); 
053E6:  MOVLW  04
053E8:  MOVLB  5
053EA:  MOVWF  xD0
053EC:  MOVLB  0
053EE:  CALL   46C8
....................             imprimir=0; 
053F2:  MOVLB  4
053F4:  BCF    x1A.6
....................          } 
....................           
....................          if(flag_blower==5){ 
053F6:  MOVF   xD9,W
053F8:  SUBLW  05
053FA:  BTFSS  FD8.2
053FC:  BRA    557C
....................             glcd_imagen(5);tiempo_trabajo=1;VelocidadMotor(VelMotor); 
053FE:  MOVLW  05
05400:  MOVLB  5
05402:  MOVWF  xD0
05404:  MOVLB  0
05406:  CALL   46C8
0540A:  MOVLB  4
0540C:  BSF    x1B.5
0540E:  MOVFF  4D8,5D0
05412:  MOVLB  0
05414:  CALL   146E
....................             if(guardatrabajo==1){ 
05418:  MOVLB  4
0541A:  BTFSS  x1C.1
0541C:  BRA    557A
....................                guardatrabajo=0; 
0541E:  BCF    x1C.1
....................                write_eeprom(33,make8(minutos_trabajo,0)); 
05420:  MOVFF  4E4,5D0
05424:  CLRF   FAA
05426:  MOVLW  21
05428:  MOVWF  FA9
0542A:  MOVFF  5D0,FA8
0542E:  BCF    FA6.6
05430:  BCF    FA6.7
05432:  BSF    FA6.2
05434:  MOVF   FF2,W
05436:  MOVWF  00
05438:  BCF    FF2.7
0543A:  MOVLB  F
0543C:  MOVLW  55
0543E:  MOVWF  FA7
05440:  MOVLW  AA
05442:  MOVWF  FA7
05444:  BSF    FA6.1
05446:  BTFSC  FA6.1
05448:  BRA    5446
0544A:  BCF    FA6.2
0544C:  MOVF   00,W
0544E:  IORWF  FF2,F
....................                delay_ms(20); 
05450:  MOVLW  14
05452:  MOVLB  5
05454:  MOVWF  xD9
05456:  MOVLB  0
05458:  CALL   1482
....................                write_eeprom(34,make8(minutos_trabajo,1)); 
0545C:  MOVFF  4E5,5D0
05460:  CLRF   FAA
05462:  MOVLW  22
05464:  MOVWF  FA9
05466:  MOVFF  5D0,FA8
0546A:  BCF    FA6.6
0546C:  BCF    FA6.7
0546E:  BSF    FA6.2
05470:  MOVF   FF2,W
05472:  MOVWF  00
05474:  BCF    FF2.7
05476:  MOVLB  F
05478:  MOVLW  55
0547A:  MOVWF  FA7
0547C:  MOVLW  AA
0547E:  MOVWF  FA7
05480:  BSF    FA6.1
05482:  BTFSC  FA6.1
05484:  BRA    5482
05486:  BCF    FA6.2
05488:  MOVF   00,W
0548A:  IORWF  FF2,F
....................                delay_ms(20); 
0548C:  MOVLW  14
0548E:  MOVLB  5
05490:  MOVWF  xD9
05492:  MOVLB  0
05494:  CALL   1482
....................                write_eeprom(16,Ttrabajo[0]); 
05498:  CLRF   FAA
0549A:  MOVLW  10
0549C:  MOVWF  FA9
0549E:  MOVFF  50A,FA8
054A2:  BCF    FA6.6
054A4:  BCF    FA6.7
054A6:  BSF    FA6.2
054A8:  MOVF   FF2,W
054AA:  MOVWF  00
054AC:  BCF    FF2.7
054AE:  MOVLB  F
054B0:  MOVLW  55
054B2:  MOVWF  FA7
054B4:  MOVLW  AA
054B6:  MOVWF  FA7
054B8:  BSF    FA6.1
054BA:  BTFSC  FA6.1
054BC:  BRA    54BA
054BE:  BCF    FA6.2
054C0:  MOVF   00,W
054C2:  IORWF  FF2,F
....................                delay_ms(20); 
054C4:  MOVLW  14
054C6:  MOVLB  5
054C8:  MOVWF  xD9
054CA:  MOVLB  0
054CC:  CALL   1482
....................                write_eeprom(17,Ttrabajo[1]); 
054D0:  CLRF   FAA
054D2:  MOVLW  11
054D4:  MOVWF  FA9
054D6:  MOVFF  50B,FA8
054DA:  BCF    FA6.6
054DC:  BCF    FA6.7
054DE:  BSF    FA6.2
054E0:  MOVF   FF2,W
054E2:  MOVWF  00
054E4:  BCF    FF2.7
054E6:  MOVLB  F
054E8:  MOVLW  55
054EA:  MOVWF  FA7
054EC:  MOVLW  AA
054EE:  MOVWF  FA7
054F0:  BSF    FA6.1
054F2:  BTFSC  FA6.1
054F4:  BRA    54F2
054F6:  BCF    FA6.2
054F8:  MOVF   00,W
054FA:  IORWF  FF2,F
....................                delay_ms(20); 
054FC:  MOVLW  14
054FE:  MOVLB  5
05500:  MOVWF  xD9
05502:  MOVLB  0
05504:  CALL   1482
....................                write_eeprom(18,Ttrabajo[2]); 
05508:  CLRF   FAA
0550A:  MOVLW  12
0550C:  MOVWF  FA9
0550E:  MOVFF  50C,FA8
05512:  BCF    FA6.6
05514:  BCF    FA6.7
05516:  BSF    FA6.2
05518:  MOVF   FF2,W
0551A:  MOVWF  00
0551C:  BCF    FF2.7
0551E:  MOVLB  F
05520:  MOVLW  55
05522:  MOVWF  FA7
05524:  MOVLW  AA
05526:  MOVWF  FA7
05528:  BSF    FA6.1
0552A:  BTFSC  FA6.1
0552C:  BRA    552A
0552E:  BCF    FA6.2
05530:  MOVF   00,W
05532:  IORWF  FF2,F
....................                delay_ms(20); 
05534:  MOVLW  14
05536:  MOVLB  5
05538:  MOVWF  xD9
0553A:  MOVLB  0
0553C:  CALL   1482
....................                write_eeprom(19,Ttrabajo[3]); 
05540:  CLRF   FAA
05542:  MOVLW  13
05544:  MOVWF  FA9
05546:  MOVFF  50D,FA8
0554A:  BCF    FA6.6
0554C:  BCF    FA6.7
0554E:  BSF    FA6.2
05550:  MOVF   FF2,W
05552:  MOVWF  00
05554:  BCF    FF2.7
05556:  MOVLB  F
05558:  MOVLW  55
0555A:  MOVWF  FA7
0555C:  MOVLW  AA
0555E:  MOVWF  FA7
05560:  BSF    FA6.1
05562:  BTFSC  FA6.1
05564:  BRA    5562
05566:  BCF    FA6.2
05568:  MOVF   00,W
0556A:  IORWF  FF2,F
....................                delay_ms(20); 
0556C:  MOVLW  14
0556E:  MOVLB  5
05570:  MOVWF  xD9
05572:  MOVLB  0
05574:  CALL   1482
05578:  MOVLB  4
....................             } 
....................          }else if(flag_blower==10){ 
0557A:  BRA    571A
0557C:  MOVF   xD9,W
0557E:  SUBLW  0A
05580:  BTFSS  FD8.2
05582:  BRA    571A
....................             Filtro_Downflow=0; 
05584:  MOVLB  5
05586:  CLRF   x1D
05588:  CLRF   x1C
0558A:  CLRF   x1B
0558C:  CLRF   x1A
....................             glcd_rect(102, 45, 127, 64, YES, OFF);tiempo_trabajo=0;VelocidadMotor(0); 
0558E:  MOVLW  66
05590:  MOVWF  xE9
05592:  MOVLW  2D
05594:  MOVWF  xEA
05596:  MOVLW  7F
05598:  MOVWF  xEB
0559A:  MOVLW  40
0559C:  MOVWF  xEC
0559E:  MOVLW  01
055A0:  MOVWF  xED
055A2:  CLRF   xEE
055A4:  MOVLB  0
055A6:  CALL   3754
055AA:  MOVLB  4
055AC:  BCF    x1B.5
055AE:  MOVLB  5
055B0:  CLRF   xD0
055B2:  MOVLB  0
055B4:  CALL   146E
....................             if(guardatrabajo==0){ 
055B8:  MOVLB  4
055BA:  BTFSC  x1C.1
055BC:  BRA    571A
....................                guardatrabajo=1; 
055BE:  BSF    x1C.1
....................                write_eeprom(33,make8(minutos_trabajo,0)); 
055C0:  MOVFF  4E4,5D0
055C4:  CLRF   FAA
055C6:  MOVLW  21
055C8:  MOVWF  FA9
055CA:  MOVFF  5D0,FA8
055CE:  BCF    FA6.6
055D0:  BCF    FA6.7
055D2:  BSF    FA6.2
055D4:  MOVF   FF2,W
055D6:  MOVWF  00
055D8:  BCF    FF2.7
055DA:  MOVLB  F
055DC:  MOVLW  55
055DE:  MOVWF  FA7
055E0:  MOVLW  AA
055E2:  MOVWF  FA7
055E4:  BSF    FA6.1
055E6:  BTFSC  FA6.1
055E8:  BRA    55E6
055EA:  BCF    FA6.2
055EC:  MOVF   00,W
055EE:  IORWF  FF2,F
....................                delay_ms(20); 
055F0:  MOVLW  14
055F2:  MOVLB  5
055F4:  MOVWF  xD9
055F6:  MOVLB  0
055F8:  CALL   1482
....................                write_eeprom(34,make8(minutos_trabajo,1)); 
055FC:  MOVFF  4E5,5D0
05600:  CLRF   FAA
05602:  MOVLW  22
05604:  MOVWF  FA9
05606:  MOVFF  5D0,FA8
0560A:  BCF    FA6.6
0560C:  BCF    FA6.7
0560E:  BSF    FA6.2
05610:  MOVF   FF2,W
05612:  MOVWF  00
05614:  BCF    FF2.7
05616:  MOVLB  F
05618:  MOVLW  55
0561A:  MOVWF  FA7
0561C:  MOVLW  AA
0561E:  MOVWF  FA7
05620:  BSF    FA6.1
05622:  BTFSC  FA6.1
05624:  BRA    5622
05626:  BCF    FA6.2
05628:  MOVF   00,W
0562A:  IORWF  FF2,F
....................                delay_ms(20); 
0562C:  MOVLW  14
0562E:  MOVLB  5
05630:  MOVWF  xD9
05632:  MOVLB  0
05634:  CALL   1482
....................                write_eeprom(16,Ttrabajo[0]); 
05638:  CLRF   FAA
0563A:  MOVLW  10
0563C:  MOVWF  FA9
0563E:  MOVFF  50A,FA8
05642:  BCF    FA6.6
05644:  BCF    FA6.7
05646:  BSF    FA6.2
05648:  MOVF   FF2,W
0564A:  MOVWF  00
0564C:  BCF    FF2.7
0564E:  MOVLB  F
05650:  MOVLW  55
05652:  MOVWF  FA7
05654:  MOVLW  AA
05656:  MOVWF  FA7
05658:  BSF    FA6.1
0565A:  BTFSC  FA6.1
0565C:  BRA    565A
0565E:  BCF    FA6.2
05660:  MOVF   00,W
05662:  IORWF  FF2,F
....................                delay_ms(20); 
05664:  MOVLW  14
05666:  MOVLB  5
05668:  MOVWF  xD9
0566A:  MOVLB  0
0566C:  CALL   1482
....................                write_eeprom(17,Ttrabajo[1]); 
05670:  CLRF   FAA
05672:  MOVLW  11
05674:  MOVWF  FA9
05676:  MOVFF  50B,FA8
0567A:  BCF    FA6.6
0567C:  BCF    FA6.7
0567E:  BSF    FA6.2
05680:  MOVF   FF2,W
05682:  MOVWF  00
05684:  BCF    FF2.7
05686:  MOVLB  F
05688:  MOVLW  55
0568A:  MOVWF  FA7
0568C:  MOVLW  AA
0568E:  MOVWF  FA7
05690:  BSF    FA6.1
05692:  BTFSC  FA6.1
05694:  BRA    5692
05696:  BCF    FA6.2
05698:  MOVF   00,W
0569A:  IORWF  FF2,F
....................                delay_ms(20); 
0569C:  MOVLW  14
0569E:  MOVLB  5
056A0:  MOVWF  xD9
056A2:  MOVLB  0
056A4:  CALL   1482
....................                write_eeprom(18,Ttrabajo[2]); 
056A8:  CLRF   FAA
056AA:  MOVLW  12
056AC:  MOVWF  FA9
056AE:  MOVFF  50C,FA8
056B2:  BCF    FA6.6
056B4:  BCF    FA6.7
056B6:  BSF    FA6.2
056B8:  MOVF   FF2,W
056BA:  MOVWF  00
056BC:  BCF    FF2.7
056BE:  MOVLB  F
056C0:  MOVLW  55
056C2:  MOVWF  FA7
056C4:  MOVLW  AA
056C6:  MOVWF  FA7
056C8:  BSF    FA6.1
056CA:  BTFSC  FA6.1
056CC:  BRA    56CA
056CE:  BCF    FA6.2
056D0:  MOVF   00,W
056D2:  IORWF  FF2,F
....................                delay_ms(20); 
056D4:  MOVLW  14
056D6:  MOVLB  5
056D8:  MOVWF  xD9
056DA:  MOVLB  0
056DC:  CALL   1482
....................                write_eeprom(19,Ttrabajo[3]); 
056E0:  CLRF   FAA
056E2:  MOVLW  13
056E4:  MOVWF  FA9
056E6:  MOVFF  50D,FA8
056EA:  BCF    FA6.6
056EC:  BCF    FA6.7
056EE:  BSF    FA6.2
056F0:  MOVF   FF2,W
056F2:  MOVWF  00
056F4:  BCF    FF2.7
056F6:  MOVLB  F
056F8:  MOVLW  55
056FA:  MOVWF  FA7
056FC:  MOVLW  AA
056FE:  MOVWF  FA7
05700:  BSF    FA6.1
05702:  BTFSC  FA6.1
05704:  BRA    5702
05706:  BCF    FA6.2
05708:  MOVF   00,W
0570A:  IORWF  FF2,F
....................                delay_ms(20); 
0570C:  MOVLW  14
0570E:  MOVLB  5
05710:  MOVWF  xD9
05712:  MOVLB  0
05714:  CALL   1482
05718:  MOVLB  4
....................             } 
....................          } 
....................           
.................... // Dibujo de barra de estado de filtro                   
....................          barra=100.0*(Filtro_Downflow/2.0); 
0571A:  MOVFF  51D,5D8
0571E:  MOVFF  51C,5D7
05722:  MOVFF  51B,5D6
05726:  MOVFF  51A,5D5
0572A:  MOVLB  5
0572C:  CLRF   xDC
0572E:  CLRF   xDB
05730:  CLRF   xDA
05732:  MOVLW  80
05734:  MOVWF  xD9
05736:  MOVLB  0
05738:  CALL   14E0
0573C:  MOVLB  5
0573E:  CLRF   xF5
05740:  CLRF   xF4
05742:  MOVLW  48
05744:  MOVWF  xF3
05746:  MOVLW  85
05748:  MOVWF  xF2
0574A:  MOVFF  03,5F9
0574E:  MOVFF  02,5F8
05752:  MOVFF  01,5F7
05756:  MOVFF  00,5F6
0575A:  MOVLB  0
0575C:  CALL   2D24
05760:  MOVFF  03,525
05764:  MOVFF  02,524
05768:  MOVFF  01,523
0576C:  MOVFF  00,522
....................          if(barra>100.0) 
05770:  MOVLB  5
05772:  CLRF   xD8
05774:  CLRF   xD7
05776:  MOVLW  48
05778:  MOVWF  xD6
0577A:  MOVLW  85
0577C:  MOVWF  xD5
0577E:  MOVFF  525,5DC
05782:  MOVFF  524,5DB
05786:  MOVFF  523,5DA
0578A:  MOVFF  522,5D9
0578E:  MOVLB  0
05790:  CALL   20CE
05794:  BNC   57A4
....................             barra=100.0; 
05796:  MOVLB  5
05798:  CLRF   x25
0579A:  CLRF   x24
0579C:  MOVLW  48
0579E:  MOVWF  x23
057A0:  MOVLW  85
057A2:  MOVWF  x22
....................          barra=barra/2; 
057A4:  MOVFF  525,5D8
057A8:  MOVFF  524,5D7
057AC:  MOVFF  523,5D6
057B0:  MOVFF  522,5D5
057B4:  MOVLB  5
057B6:  CLRF   xDC
057B8:  CLRF   xDB
057BA:  CLRF   xDA
057BC:  MOVLW  80
057BE:  MOVWF  xD9
057C0:  MOVLB  0
057C2:  CALL   14E0
057C6:  MOVFF  03,525
057CA:  MOVFF  02,524
057CE:  MOVFF  01,523
057D2:  MOVFF  00,522
....................          glcd_rect(42, 34, (int8)(barra_old)+42, 41, YES, OFF);  // Clears the old bar 
057D6:  MOVFF  529,5D3
057DA:  MOVFF  528,5D2
057DE:  MOVFF  527,5D1
057E2:  MOVFF  526,5D0
057E6:  CALL   48D2
057EA:  MOVLW  2A
057EC:  ADDWF  01,W
057EE:  MOVLB  5
057F0:  MOVWF  xD0
057F2:  MOVLW  2A
057F4:  MOVWF  xE9
057F6:  MOVLW  22
057F8:  MOVWF  xEA
057FA:  MOVFF  5D0,5EB
057FE:  MOVLW  29
05800:  MOVWF  xEC
05802:  MOVLW  01
05804:  MOVWF  xED
05806:  CLRF   xEE
05808:  MOVLB  0
0580A:  CALL   3754
....................          glcd_rect(42, 34, (int8)(barra)+42, 41, YES, ON);             // Draws a new bar 
0580E:  MOVFF  525,5D3
05812:  MOVFF  524,5D2
05816:  MOVFF  523,5D1
0581A:  MOVFF  522,5D0
0581E:  CALL   48D2
05822:  MOVLW  2A
05824:  ADDWF  01,W
05826:  MOVLB  5
05828:  MOVWF  xD0
0582A:  MOVLW  2A
0582C:  MOVWF  xE9
0582E:  MOVLW  22
05830:  MOVWF  xEA
05832:  MOVFF  5D0,5EB
05836:  MOVLW  29
05838:  MOVWF  xEC
0583A:  MOVLW  01
0583C:  MOVWF  xED
0583E:  MOVWF  xEE
05840:  MOVLB  0
05842:  CALL   3754
....................          glcd_rect(40, 32, 94, 43, NO, ON);             // Draws a new bar 
05846:  MOVLW  28
05848:  MOVLB  5
0584A:  MOVWF  xE9
0584C:  MOVLW  20
0584E:  MOVWF  xEA
05850:  MOVLW  5E
05852:  MOVWF  xEB
05854:  MOVLW  2B
05856:  MOVWF  xEC
05858:  CLRF   xED
0585A:  MOVLW  01
0585C:  MOVWF  xEE
0585E:  MOVLB  0
05860:  CALL   3754
....................          barra_old=barra; 
05864:  MOVFF  525,529
05868:  MOVFF  524,528
0586C:  MOVFF  523,527
05870:  MOVFF  522,526
.................... // Fin de Dibujo de barra de estado de Filtro 
....................  
....................          if(Filtro_Downflow>1.5) 
05874:  MOVLB  5
05876:  CLRF   xD8
05878:  CLRF   xD7
0587A:  MOVLW  40
0587C:  MOVWF  xD6
0587E:  MOVLW  7F
05880:  MOVWF  xD5
05882:  MOVFF  51D,5DC
05886:  MOVFF  51C,5DB
0588A:  MOVFF  51B,5DA
0588E:  MOVFF  51A,5D9
05892:  MOVLB  0
05894:  CALL   20CE
05898:  BNC   58D2
....................          { 
....................             flag_latencia=1; 
0589A:  MOVLB  4
0589C:  BSF    x1C.0
....................             if(Latencia==1) 
0589E:  BTFSS  x1B.7
058A0:  BRA    58CE
....................             {          
....................                if(Filtro_Downflow>1.5) 
058A2:  MOVLB  5
058A4:  CLRF   xD8
058A6:  CLRF   xD7
058A8:  MOVLW  40
058AA:  MOVWF  xD6
058AC:  MOVLW  7F
058AE:  MOVWF  xD5
058B0:  MOVFF  51D,5DC
058B4:  MOVFF  51C,5DB
058B8:  MOVFF  51B,5DA
058BC:  MOVFF  51A,5D9
058C0:  MOVLB  0
058C2:  CALL   20CE
058C6:  BNC   58D0
....................                { 
....................                   Alarma=5; 
058C8:  MOVLW  05
058CA:  MOVLB  4
058CC:  MOVWF  xD6
058CE:  MOVLB  0
....................                } 
....................             } 
....................          }else{ 
058D0:  BRA    5902
....................             Latencia=0;t_latencia=0;flag_latencia=0; 
058D2:  MOVLB  4
058D4:  BCF    x1B.7
058D6:  CLRF   xE1
058D8:  CLRF   xE0
058DA:  BCF    x1C.0
....................             glcd_rect(0, 54, 104, 64, YES, OFF);Alarma_off;Alarma=10; 
058DC:  MOVLB  5
058DE:  CLRF   xE9
058E0:  MOVLW  36
058E2:  MOVWF  xEA
058E4:  MOVLW  68
058E6:  MOVWF  xEB
058E8:  MOVLW  40
058EA:  MOVWF  xEC
058EC:  MOVLW  01
058EE:  MOVWF  xED
058F0:  CLRF   xEE
058F2:  MOVLB  0
058F4:  CALL   3754
058F8:  BCF    F8B.3
058FA:  BCF    F94.3
058FC:  MOVLW  0A
058FE:  MOVLB  4
05900:  MOVWF  xD6
....................          } 
....................        
....................          if(flag_luz==1) 
05902:  MOVLB  4
05904:  BTFSS  x1B.1
05906:  BRA    591C
....................          { 
....................             glcd_imagen(3);LuzBlanca_on; 
05908:  MOVLW  03
0590A:  MOVLB  5
0590C:  MOVWF  xD0
0590E:  MOVLB  0
05910:  CALL   46C8
05914:  BCF    F8B.4
05916:  BCF    F94.4
....................          } 
....................          else 
05918:  BRA    593E
0591A:  MOVLB  4
....................          { 
....................             glcd_rect(102, 14, 127, 28, YES, OFF);LuzBlanca_off; 
0591C:  MOVLW  66
0591E:  MOVLB  5
05920:  MOVWF  xE9
05922:  MOVLW  0E
05924:  MOVWF  xEA
05926:  MOVLW  7F
05928:  MOVWF  xEB
0592A:  MOVLW  1C
0592C:  MOVWF  xEC
0592E:  MOVLW  01
05930:  MOVWF  xED
05932:  CLRF   xEE
05934:  MOVLB  0
05936:  CALL   3754
0593A:  BSF    F8B.4
0593C:  BCF    F94.4
....................          } 
....................              
....................          if(Alarma==5) 
0593E:  MOVLB  4
05940:  MOVF   xD6,W
05942:  SUBLW  05
05944:  BNZ   5982
....................          { 
....................             glcd_rect(0, 55, 100, 63, YES, OFF); 
05946:  MOVLB  5
05948:  CLRF   xE9
0594A:  MOVLW  37
0594C:  MOVWF  xEA
0594E:  MOVLW  64
05950:  MOVWF  xEB
05952:  MOVLW  3F
05954:  MOVWF  xEC
05956:  MOVLW  01
05958:  MOVWF  xED
0595A:  CLRF   xEE
0595C:  MOVLB  0
0595E:  CALL   3754
....................             glcd_text57(0,55, Perdida, 1, ON); 
05962:  MOVLB  5
05964:  CLRF   xE9
05966:  MOVLW  37
05968:  MOVWF  xEA
0596A:  MOVLW  04
0596C:  MOVWF  xEC
0596E:  MOVLW  B4
05970:  MOVWF  xEB
05972:  MOVLW  01
05974:  MOVWF  xED
05976:  MOVWF  xEE
05978:  MOVLB  0
0597A:  CALL   3816
....................          } 
....................          else 
0597E:  BRA    599E
05980:  MOVLB  4
....................          {                
....................             glcd_rect(0, 55, 100, 63, YES, OFF);             
05982:  MOVLB  5
05984:  CLRF   xE9
05986:  MOVLW  37
05988:  MOVWF  xEA
0598A:  MOVLW  64
0598C:  MOVWF  xEB
0598E:  MOVLW  3F
05990:  MOVWF  xEC
05992:  MOVLW  01
05994:  MOVWF  xED
05996:  CLRF   xEE
05998:  MOVLB  0
0599A:  CALL   3754
....................          } 
....................              
....................          if(RIGHT){//Si oprime boton de Blower. 
0599E:  BSF    F96.1
059A0:  BTFSC  F84.1
059A2:  BRA    59D4
....................             if(Flanco3 == 0){ 
059A4:  MOVLB  4
059A6:  BTFSC  x1A.3
059A8:  BRA    59D0
....................                Flanco3 = 1;delay_ms(5); 
059AA:  BSF    x1A.3
059AC:  MOVLW  05
059AE:  MOVLB  5
059B0:  MOVWF  xD9
059B2:  MOVLB  0
059B4:  CALL   1482
....................                if(flag_blower==5){ 
059B8:  MOVLB  4
059BA:  MOVF   xD9,W
059BC:  SUBLW  05
059BE:  BNZ   59C6
....................                   flag_blower=10; 
059C0:  MOVLW  0A
059C2:  MOVWF  xD9
....................                }else if(flag_blower==10){ 
059C4:  BRA    59D0
059C6:  MOVF   xD9,W
059C8:  SUBLW  0A
059CA:  BNZ   59D0
....................                   flag_blower=5; 
059CC:  MOVLW  05
059CE:  MOVWF  xD9
....................                } 
....................             } 
....................          }else{ 
059D0:  BRA    59D8
059D2:  MOVLB  0
....................             Flanco3 = 0; 
059D4:  MOVLB  4
059D6:  BCF    x1A.3
....................          } 
....................              
....................          if(LEFT){//Si oprime boton de Luz UV.          
059D8:  BSF    F96.2
059DA:  BTFSC  F84.2
059DC:  BRA    5A02
....................             if(Flanco4 == 0){ 
059DE:  BTFSC  x1A.4
059E0:  BRA    5A00
....................                Flanco4 = 1;delay_ms(5);flag_uv=!flag_uv; 
059E2:  BSF    x1A.4
059E4:  MOVLW  05
059E6:  MOVLB  5
059E8:  MOVWF  xD9
059EA:  MOVLB  0
059EC:  CALL   1482
059F0:  MOVLB  4
059F2:  BTG    x1A.7
....................                if(UV2==0) 
059F4:  MOVF   xD7,F
059F6:  BNZ   59FE
....................                   UV2=10; 
059F8:  MOVLW  0A
059FA:  MOVWF  xD7
....................                else 
059FC:  BRA    5A00
....................                   UV2=0; 
059FE:  CLRF   xD7
....................             } 
....................          }else{ 
05A00:  BRA    5A04
....................             Flanco4 = 0; 
05A02:  BCF    x1A.4
....................          } 
....................              
....................          if(DOWN){//Si oprime boton de Luz Blanca. 
05A04:  BSF    F96.0
05A06:  BTFSC  F84.0
05A08:  BRA    5A32
....................             flagVidrioDN=ON; 
05A0A:  BSF    x1D.2
....................             if(VIDRIODN && tvidrioDN>200){//Mover vidrio hacia arriba 
05A0C:  BSF    F92.3
05A0E:  BTFSS  F80.3
05A10:  BRA    5A28
05A12:  MOVF   xED,F
05A14:  BNZ   5A1C
05A16:  MOVF   xEC,W
05A18:  SUBLW  C8
05A1A:  BC    5A28
....................                BajarVidrio(); 
05A1C:  MOVLB  0
05A1E:  CALL   490E
....................                MovioVidrioDN=ON; 
05A22:  MOVLB  4
05A24:  BSF    x1D.0
....................             }else{ 
05A26:  BRA    5A30
....................                DetenerVidrio(); 
05A28:  MOVLB  0
05A2A:  CALL   4918
05A2E:  MOVLB  4
....................             }  
....................          }else if(tvidrioDN>10 && tvidrioDN<200){ 
05A30:  BRA    5A64
05A32:  MOVF   xED,F
05A34:  BNZ   5A3C
05A36:  MOVF   xEC,W
05A38:  SUBLW  0A
05A3A:  BC    5A50
05A3C:  MOVF   xED,F
05A3E:  BNZ   5A50
05A40:  MOVF   xEC,W
05A42:  SUBLW  C7
05A44:  BNC   5A50
....................             flag_luz=!flag_luz; 
05A46:  BTG    x1B.1
....................             flagVidrioDN=OFF; 
05A48:  BCF    x1D.2
....................             tvidrioDN=0; 
05A4A:  CLRF   xED
05A4C:  CLRF   xEC
....................          }else{ 
05A4E:  BRA    5A64
....................             flagVidrioDN=OFF; 
05A50:  BCF    x1D.2
....................             tvidrioDN=0; 
05A52:  CLRF   xED
05A54:  CLRF   xEC
....................             if(MovioVidrioDN){ 
05A56:  BTFSS  x1D.0
05A58:  BRA    5A64
....................                DetenerVidrio(); 
05A5A:  MOVLB  0
05A5C:  CALL   4918
....................                MovioVidrioDN=OFF; 
05A60:  MOVLB  4
05A62:  BCF    x1D.0
....................             } 
....................          } 
....................        
....................          if(UP){//Si oprime boton de Luz Blanca. 
05A64:  BSF    F92.5
05A66:  BTFSC  F80.5
05A68:  BRA    5A92
....................             flagVidrioUP=ON; 
05A6A:  BSF    x1D.1
....................             if(VIDRIOUUP && tvidrioUP>200){//Mover vidrio hacia arriba 
05A6C:  BSF    F92.4
05A6E:  BTFSS  F80.4
05A70:  BRA    5A88
05A72:  MOVF   xEB,F
05A74:  BNZ   5A7C
05A76:  MOVF   xEA,W
05A78:  SUBLW  C8
05A7A:  BC    5A88
....................                SubirVidrio(); 
05A7C:  MOVLB  0
05A7E:  CALL   4922
....................                MovioVidrio=ON; 
05A82:  MOVLB  4
05A84:  BSF    x1C.7
....................             }else{ 
05A86:  BRA    5A90
....................                DetenerVidrio(); 
05A88:  MOVLB  0
05A8A:  CALL   4918
05A8E:  MOVLB  4
....................             }  
....................          }else if(tvidrioUP>10 && tvidrioUP<200){                
05A90:  BRA    5AEE
05A92:  MOVF   xEB,F
05A94:  BNZ   5A9C
05A96:  MOVF   xEA,W
05A98:  SUBLW  0A
05A9A:  BC    5ADA
05A9C:  MOVF   xEB,F
05A9E:  BNZ   5ADA
05AA0:  MOVF   xEA,W
05AA2:  SUBLW  C7
05AA4:  BNC   5ADA
....................             Menu=3;//glcd_fillScreen(OFF); 
05AA6:  MOVLW  03
05AA8:  MOVWF  xC6
....................             glcd_init(ON);             //Inicializa la glcd 
05AAA:  MOVLW  01
05AAC:  MOVLB  5
05AAE:  MOVWF  xD0
05AB0:  MOVLB  0
05AB2:  CALL   492C
....................             glcd_fillScreen(OFF);      //Limpia la pantalla 
05AB6:  MOVLB  5
05AB8:  CLRF   xD8
05ABA:  MOVLB  0
05ABC:  CALL   3B52
....................             glcd_update();   
05AC0:  CALL   2B92
....................             LuzBlanca_off;LuzUV_off; 
05AC4:  BSF    F8B.4
05AC6:  BCF    F94.4
05AC8:  BSF    F8B.5
05ACA:  BCF    F94.5
....................             DetenerVidrio();  
05ACC:  CALL   4918
....................             flagVidrioUP=OFF; 
05AD0:  MOVLB  4
05AD2:  BCF    x1D.1
....................             tvidrioUP=0; 
05AD4:  CLRF   xEB
05AD6:  CLRF   xEA
....................          }else{ 
05AD8:  BRA    5AEE
....................             flagVidrioUP=OFF; 
05ADA:  BCF    x1D.1
....................             tvidrioUP=0; 
05ADC:  CLRF   xEB
05ADE:  CLRF   xEA
....................             if(MovioVidrio){ 
05AE0:  BTFSS  x1C.7
05AE2:  BRA    5AEE
....................                DetenerVidrio(); 
05AE4:  MOVLB  0
05AE6:  CALL   4918
....................                MovioVidrio=OFF; 
05AEA:  MOVLB  4
05AEC:  BCF    x1C.7
....................             } 
....................          } 
....................       } 
.................... //_--------------------------------------------------------------------------------------------------------------------------------------------------------        
....................  
.................... //_-------------------------------------------------------------------------------------------------------------------------------------------------------- 
....................       if(Menu==3){ //Menu Principal. 
05AEE:  MOVF   xC6,W
05AF0:  SUBLW  03
05AF2:  BTFSS  FD8.2
05AF4:  BRA    5DDC
....................              
....................       strcpy(Menus.Letra,"Menu"); 
05AF6:  MOVLW  05
05AF8:  MOVWF  FEA
05AFA:  MOVLW  BA
05AFC:  MOVWF  FE9
05AFE:  MOVFF  FF2,5D0
05B02:  BCF    FF2.7
05B04:  MOVLW  00
05B06:  MOVLB  0
05B08:  CALL   0F80
05B0C:  TBLRD*-
05B0E:  TBLRD*+
05B10:  MOVF   FF5,W
05B12:  MOVWF  FEE
05B14:  IORLW  00
05B16:  BNZ   5B0E
05B18:  MOVLB  5
05B1A:  BTFSC  xD0.7
05B1C:  BSF    FF2.7
....................       displayMenu(Menus.Letra,40,0,1,2); 
05B1E:  MOVLW  05
05B20:  MOVWF  xD9
05B22:  MOVLW  BA
05B24:  MOVWF  xD8
05B26:  MOVLW  28
05B28:  MOVWF  xDA
05B2A:  CLRF   xDB
05B2C:  MOVLW  01
05B2E:  MOVWF  xDC
05B30:  MOVLW  02
05B32:  MOVWF  xDD
05B34:  MOVLB  0
05B36:  CALL   3A86
....................        
....................       if(Opcion==1){ 
05B3A:  MOVLB  4
05B3C:  DECFSZ xC8,W
05B3E:  BRA    5B86
....................          strcpy(Menus.Letra,"Tiempo Purga"); 
05B40:  MOVLW  05
05B42:  MOVWF  FEA
05B44:  MOVLW  BA
05B46:  MOVWF  FE9
05B48:  MOVFF  FF2,5D0
05B4C:  BCF    FF2.7
05B4E:  MOVLW  00
05B50:  MOVLB  0
05B52:  CALL   0FA4
05B56:  TBLRD*-
05B58:  TBLRD*+
05B5A:  MOVF   FF5,W
05B5C:  MOVWF  FEE
05B5E:  IORLW  00
05B60:  BNZ   5B58
05B62:  MOVLB  5
05B64:  BTFSC  xD0.7
05B66:  BSF    FF2.7
....................          displayMenu(Menus.Letra,0,19,1,1); 
05B68:  MOVLW  05
05B6A:  MOVWF  xD9
05B6C:  MOVLW  BA
05B6E:  MOVWF  xD8
05B70:  CLRF   xDA
05B72:  MOVLW  13
05B74:  MOVWF  xDB
05B76:  MOVLW  01
05B78:  MOVWF  xDC
05B7A:  MOVWF  xDD
05B7C:  MOVLB  0
05B7E:  CALL   3A86
....................       }else{ 
05B82:  BRA    5BC8
05B84:  MOVLB  4
....................          strcpy(Menus.Letra,"Tiempo Purga"); 
05B86:  MOVLW  05
05B88:  MOVWF  FEA
05B8A:  MOVLW  BA
05B8C:  MOVWF  FE9
05B8E:  MOVFF  FF2,5D0
05B92:  BCF    FF2.7
05B94:  MOVLW  00
05B96:  MOVLB  0
05B98:  CALL   0FA4
05B9C:  TBLRD*-
05B9E:  TBLRD*+
05BA0:  MOVF   FF5,W
05BA2:  MOVWF  FEE
05BA4:  IORLW  00
05BA6:  BNZ   5B9E
05BA8:  MOVLB  5
05BAA:  BTFSC  xD0.7
05BAC:  BSF    FF2.7
....................          displayMenu(Menus.Letra,0,19,0,1); 
05BAE:  MOVLW  05
05BB0:  MOVWF  xD9
05BB2:  MOVLW  BA
05BB4:  MOVWF  xD8
05BB6:  CLRF   xDA
05BB8:  MOVLW  13
05BBA:  MOVWF  xDB
05BBC:  CLRF   xDC
05BBE:  MOVLW  01
05BC0:  MOVWF  xDD
05BC2:  MOVLB  0
05BC4:  CALL   3A86
....................       } 
....................           
....................       if(Opcion==2){ 
05BC8:  MOVLB  4
05BCA:  MOVF   xC8,W
05BCC:  SUBLW  02
05BCE:  BNZ   5C16
....................          strcpy(Menus.Letra,"Cambio de Clave"); 
05BD0:  MOVLW  05
05BD2:  MOVWF  FEA
05BD4:  MOVLW  BA
05BD6:  MOVWF  FE9
05BD8:  MOVFF  FF2,5D0
05BDC:  BCF    FF2.7
05BDE:  MOVLW  00
05BE0:  MOVLB  0
05BE2:  CALL   0FD0
05BE6:  TBLRD*-
05BE8:  TBLRD*+
05BEA:  MOVF   FF5,W
05BEC:  MOVWF  FEE
05BEE:  IORLW  00
05BF0:  BNZ   5BE8
05BF2:  MOVLB  5
05BF4:  BTFSC  xD0.7
05BF6:  BSF    FF2.7
....................          displayMenu(Menus.Letra,0,35,1,1); 
05BF8:  MOVLW  05
05BFA:  MOVWF  xD9
05BFC:  MOVLW  BA
05BFE:  MOVWF  xD8
05C00:  CLRF   xDA
05C02:  MOVLW  23
05C04:  MOVWF  xDB
05C06:  MOVLW  01
05C08:  MOVWF  xDC
05C0A:  MOVWF  xDD
05C0C:  MOVLB  0
05C0E:  CALL   3A86
....................       }else{ 
05C12:  BRA    5C58
05C14:  MOVLB  4
....................          strcpy(Menus.Letra,"Cambio de Clave"); 
05C16:  MOVLW  05
05C18:  MOVWF  FEA
05C1A:  MOVLW  BA
05C1C:  MOVWF  FE9
05C1E:  MOVFF  FF2,5D0
05C22:  BCF    FF2.7
05C24:  MOVLW  00
05C26:  MOVLB  0
05C28:  CALL   0FD0
05C2C:  TBLRD*-
05C2E:  TBLRD*+
05C30:  MOVF   FF5,W
05C32:  MOVWF  FEE
05C34:  IORLW  00
05C36:  BNZ   5C2E
05C38:  MOVLB  5
05C3A:  BTFSC  xD0.7
05C3C:  BSF    FF2.7
....................          displayMenu(Menus.Letra,0,35,0,1); 
05C3E:  MOVLW  05
05C40:  MOVWF  xD9
05C42:  MOVLW  BA
05C44:  MOVWF  xD8
05C46:  CLRF   xDA
05C48:  MOVLW  23
05C4A:  MOVWF  xDB
05C4C:  CLRF   xDC
05C4E:  MOVLW  01
05C50:  MOVWF  xDD
05C52:  MOVLB  0
05C54:  CALL   3A86
....................       } 
....................           
....................       if(Opcion==3){ 
05C58:  MOVLB  4
05C5A:  MOVF   xC8,W
05C5C:  SUBLW  03
05C5E:  BNZ   5CA6
....................          strcpy(Menus.Letra,"Modo"); 
05C60:  MOVLW  05
05C62:  MOVWF  FEA
05C64:  MOVLW  BA
05C66:  MOVWF  FE9
05C68:  MOVFF  FF2,5D0
05C6C:  BCF    FF2.7
05C6E:  MOVLW  00
05C70:  MOVLB  0
05C72:  CALL   0FFE
05C76:  TBLRD*-
05C78:  TBLRD*+
05C7A:  MOVF   FF5,W
05C7C:  MOVWF  FEE
05C7E:  IORLW  00
05C80:  BNZ   5C78
05C82:  MOVLB  5
05C84:  BTFSC  xD0.7
05C86:  BSF    FF2.7
....................          displayMenu(Menus.Letra,0,51,1,1); 
05C88:  MOVLW  05
05C8A:  MOVWF  xD9
05C8C:  MOVLW  BA
05C8E:  MOVWF  xD8
05C90:  CLRF   xDA
05C92:  MOVLW  33
05C94:  MOVWF  xDB
05C96:  MOVLW  01
05C98:  MOVWF  xDC
05C9A:  MOVWF  xDD
05C9C:  MOVLB  0
05C9E:  CALL   3A86
....................       }else{ 
05CA2:  BRA    5CE8
05CA4:  MOVLB  4
....................          strcpy(Menus.Letra,"Modo"); 
05CA6:  MOVLW  05
05CA8:  MOVWF  FEA
05CAA:  MOVLW  BA
05CAC:  MOVWF  FE9
05CAE:  MOVFF  FF2,5D0
05CB2:  BCF    FF2.7
05CB4:  MOVLW  00
05CB6:  MOVLB  0
05CB8:  CALL   0FFE
05CBC:  TBLRD*-
05CBE:  TBLRD*+
05CC0:  MOVF   FF5,W
05CC2:  MOVWF  FEE
05CC4:  IORLW  00
05CC6:  BNZ   5CBE
05CC8:  MOVLB  5
05CCA:  BTFSC  xD0.7
05CCC:  BSF    FF2.7
....................          displayMenu(Menus.Letra,0,51,0,1); 
05CCE:  MOVLW  05
05CD0:  MOVWF  xD9
05CD2:  MOVLW  BA
05CD4:  MOVWF  xD8
05CD6:  CLRF   xDA
05CD8:  MOVLW  33
05CDA:  MOVWF  xDB
05CDC:  CLRF   xDC
05CDE:  MOVLW  01
05CE0:  MOVWF  xDD
05CE2:  MOVLB  0
05CE4:  CALL   3A86
....................       } 
....................       glcd_update();  
05CE8:  CALL   2B92
....................        
....................       if(w==0){ 
05CEC:  MOVLB  4
05CEE:  BTFSC  x1B.2
05CF0:  BRA    5D0C
....................          delay_ms(500);w=1; 
05CF2:  MOVLW  02
05CF4:  MOVLB  5
05CF6:  MOVWF  xD0
05CF8:  MOVLW  FA
05CFA:  MOVWF  xD9
05CFC:  MOVLB  0
05CFE:  CALL   1482
05D02:  MOVLB  5
05D04:  DECFSZ xD0,F
05D06:  BRA    5CF8
05D08:  MOVLB  4
05D0A:  BSF    x1B.2
....................       } 
....................           
....................       if(UP){//Si oprime hacia arriba         
05D0C:  BSF    F92.5
05D0E:  BTFSC  F80.5
05D10:  BRA    5D2A
....................          if(Flanco == 0){ 
05D12:  BTFSC  x1A.0
05D14:  BRA    5D28
....................             Flanco = 1;delay_ms(30);Opcion--; 
05D16:  BSF    x1A.0
05D18:  MOVLW  1E
05D1A:  MOVLB  5
05D1C:  MOVWF  xD9
05D1E:  MOVLB  0
05D20:  CALL   1482
05D24:  MOVLB  4
05D26:  DECF   xC8,F
....................          } 
....................       }else{ 
05D28:  BRA    5D2C
....................          Flanco = 0; 
05D2A:  BCF    x1A.0
....................       } 
....................              
....................       if(DOWN){//Si oprime hacia abajo 
05D2C:  BSF    F96.0
05D2E:  BTFSC  F84.0
05D30:  BRA    5D4A
....................          if(Flanco2 == 0){ 
05D32:  BTFSC  x1A.2
05D34:  BRA    5D48
....................             Flanco2 = 1;delay_ms(30);Opcion++; 
05D36:  BSF    x1A.2
05D38:  MOVLW  1E
05D3A:  MOVLB  5
05D3C:  MOVWF  xD9
05D3E:  MOVLB  0
05D40:  CALL   1482
05D44:  MOVLB  4
05D46:  INCF   xC8,F
....................          } 
....................       }else{ 
05D48:  BRA    5D4C
....................          Flanco2 = 0; 
05D4A:  BCF    x1A.2
....................       } 
....................              
....................       if(RIGHT){//Si oprime SET 
05D4C:  BSF    F96.1
05D4E:  BTFSC  F84.1
05D50:  BRA    5D9A
....................          if(Flanco1 == 0){ 
05D52:  BTFSC  x1A.1
05D54:  BRA    5D98
....................             Flanco1 = 1;delay_ms(500);Menu=Opcion+3;Opcion=1;glcd_fillscreen(OFF);unidad=1; 
05D56:  BSF    x1A.1
05D58:  MOVLW  02
05D5A:  MOVLB  5
05D5C:  MOVWF  xD0
05D5E:  MOVLW  FA
05D60:  MOVWF  xD9
05D62:  MOVLB  0
05D64:  CALL   1482
05D68:  MOVLB  5
05D6A:  DECFSZ xD0,F
05D6C:  BRA    5D5E
05D6E:  MOVLW  03
05D70:  MOVLB  4
05D72:  ADDWF  xC8,W
05D74:  MOVWF  xC6
05D76:  MOVLW  01
05D78:  MOVWF  xC8
05D7A:  MOVLB  5
05D7C:  CLRF   xD8
05D7E:  MOVLB  0
05D80:  CALL   3B52
05D84:  MOVLW  01
05D86:  MOVLB  4
05D88:  MOVWF  xC7
....................             Contrasena[0]=0;Contrasena[1]=0;Contrasena[2]=0;Contrasena[3]=0;n=0; 
05D8A:  MOVLB  5
05D8C:  CLRF   x0E
05D8E:  CLRF   x0F
05D90:  CLRF   x10
05D92:  CLRF   x11
05D94:  MOVLB  4
05D96:  BCF    x1C.3
....................          } 
....................       }else{ 
05D98:  BRA    5D9C
....................          Flanco1 = 0; 
05D9A:  BCF    x1A.1
....................       } 
....................              
....................       if(LEFT){//Si oprime boton de Toma. 
05D9C:  BSF    F96.2
05D9E:  BTFSC  F84.2
05DA0:  BRA    5DCA
....................          delay_ms(700);Menu=2;glcd_fillscreen(OFF); 
05DA2:  MOVLW  04
05DA4:  MOVLB  5
05DA6:  MOVWF  xD0
05DA8:  MOVLW  AF
05DAA:  MOVWF  xD9
05DAC:  MOVLB  0
05DAE:  CALL   1482
05DB2:  MOVLB  5
05DB4:  DECFSZ xD0,F
05DB6:  BRA    5DA8
05DB8:  MOVLW  02
05DBA:  MOVLB  4
05DBC:  MOVWF  xC6
05DBE:  MOVLB  5
05DC0:  CLRF   xD8
05DC2:  MOVLB  0
05DC4:  CALL   3B52
05DC8:  MOVLB  4
....................       } 
....................              
....................       if(Opcion>3) 
05DCA:  MOVF   xC8,W
05DCC:  SUBLW  03
05DCE:  BC    5DD4
....................          Opcion=1; 
05DD0:  MOVLW  01
05DD2:  MOVWF  xC8
....................       if(Opcion<1) 
05DD4:  MOVF   xC8,F
05DD6:  BNZ   5DDC
....................          Opcion=3; 
05DD8:  MOVLW  03
05DDA:  MOVWF  xC8
....................     } 
.................... //_--------------------------------------------------------------------------------------------------------------------------------------------------------        
....................  
.................... //_-------------------------------------------------------------------------------------------------------------------------------------------------------- 
....................       if(Menu==4){ //Menu de Purga. 
05DDC:  MOVF   xC6,W
05DDE:  SUBLW  04
05DE0:  BTFSS  FD8.2
05DE2:  BRA    61A4
....................        
....................       strcpy(Menus.Letra,"T. Purga"); 
05DE4:  MOVLW  05
05DE6:  MOVWF  FEA
05DE8:  MOVLW  BA
05DEA:  MOVWF  FE9
05DEC:  MOVFF  FF2,5D0
05DF0:  BCF    FF2.7
05DF2:  MOVLW  00
05DF4:  MOVLB  0
05DF6:  CALL   1022
05DFA:  TBLRD*-
05DFC:  TBLRD*+
05DFE:  MOVF   FF5,W
05E00:  MOVWF  FEE
05E02:  IORLW  00
05E04:  BNZ   5DFC
05E06:  MOVLB  5
05E08:  BTFSC  xD0.7
05E0A:  BSF    FF2.7
....................       displayMenu(Menus.Letra,10,0,1,2); 
05E0C:  MOVLW  05
05E0E:  MOVWF  xD9
05E10:  MOVLW  BA
05E12:  MOVWF  xD8
05E14:  MOVLW  0A
05E16:  MOVWF  xDA
05E18:  CLRF   xDB
05E1A:  MOVLW  01
05E1C:  MOVWF  xDC
05E1E:  MOVLW  02
05E20:  MOVWF  xDD
05E22:  MOVLB  0
05E24:  CALL   3A86
....................        
....................       if(unidad==4) 
05E28:  MOVLB  4
05E2A:  MOVF   xC7,W
05E2C:  SUBLW  04
05E2E:  BNZ   5E4E
....................       {displayTiempo(Tpurgap[3],20,40,1,2);} 
05E30:  MOVFF  4F5,5D0
05E34:  MOVLW  14
05E36:  MOVLB  5
05E38:  MOVWF  xD1
05E3A:  MOVLW  28
05E3C:  MOVWF  xD2
05E3E:  MOVLW  01
05E40:  MOVWF  xD3
05E42:  MOVLW  02
05E44:  MOVWF  xD4
05E46:  MOVLB  0
05E48:  CALL   426E
....................       else 
05E4C:  BRA    5E68
....................       {displayTiempo(Tpurgap[3],20,40,0,2);} 
05E4E:  MOVFF  4F5,5D0
05E52:  MOVLW  14
05E54:  MOVLB  5
05E56:  MOVWF  xD1
05E58:  MOVLW  28
05E5A:  MOVWF  xD2
05E5C:  CLRF   xD3
05E5E:  MOVLW  02
05E60:  MOVWF  xD4
05E62:  MOVLB  0
05E64:  CALL   426E
....................        
....................       if(unidad==3) 
05E68:  MOVLB  4
05E6A:  MOVF   xC7,W
05E6C:  SUBLW  03
05E6E:  BNZ   5E8C
....................       {displayTiempo(Tpurgap[2],40,40,1,2);} 
05E70:  MOVFF  4F4,5D0
05E74:  MOVLW  28
05E76:  MOVLB  5
05E78:  MOVWF  xD1
05E7A:  MOVWF  xD2
05E7C:  MOVLW  01
05E7E:  MOVWF  xD3
05E80:  MOVLW  02
05E82:  MOVWF  xD4
05E84:  MOVLB  0
05E86:  CALL   426E
....................       else 
05E8A:  BRA    5EA4
....................       {displayTiempo(Tpurgap[2],40,40,0,2);} 
05E8C:  MOVFF  4F4,5D0
05E90:  MOVLW  28
05E92:  MOVLB  5
05E94:  MOVWF  xD1
05E96:  MOVWF  xD2
05E98:  CLRF   xD3
05E9A:  MOVLW  02
05E9C:  MOVWF  xD4
05E9E:  MOVLB  0
05EA0:  CALL   426E
....................        
....................       if(unidad==2) 
05EA4:  MOVLB  4
05EA6:  MOVF   xC7,W
05EA8:  SUBLW  02
05EAA:  BNZ   5ECA
....................       {displayTiempo(Tpurgap[1],70,40,1,2);} 
05EAC:  MOVFF  4F3,5D0
05EB0:  MOVLW  46
05EB2:  MOVLB  5
05EB4:  MOVWF  xD1
05EB6:  MOVLW  28
05EB8:  MOVWF  xD2
05EBA:  MOVLW  01
05EBC:  MOVWF  xD3
05EBE:  MOVLW  02
05EC0:  MOVWF  xD4
05EC2:  MOVLB  0
05EC4:  CALL   426E
....................       else 
05EC8:  BRA    5EE4
....................       {displayTiempo(Tpurgap[1],70,40,0,2);} 
05ECA:  MOVFF  4F3,5D0
05ECE:  MOVLW  46
05ED0:  MOVLB  5
05ED2:  MOVWF  xD1
05ED4:  MOVLW  28
05ED6:  MOVWF  xD2
05ED8:  CLRF   xD3
05EDA:  MOVLW  02
05EDC:  MOVWF  xD4
05EDE:  MOVLB  0
05EE0:  CALL   426E
....................        
....................       if(unidad==1) 
05EE4:  MOVLB  4
05EE6:  DECFSZ xC7,W
05EE8:  BRA    5F08
....................       {displayTiempo(Tpurgap[0],90,40,1,2);} 
05EEA:  MOVFF  4F2,5D0
05EEE:  MOVLW  5A
05EF0:  MOVLB  5
05EF2:  MOVWF  xD1
05EF4:  MOVLW  28
05EF6:  MOVWF  xD2
05EF8:  MOVLW  01
05EFA:  MOVWF  xD3
05EFC:  MOVLW  02
05EFE:  MOVWF  xD4
05F00:  MOVLB  0
05F02:  CALL   426E
....................       else 
05F06:  BRA    5F22
....................       {displayTiempo(Tpurgap[0],90,40,0,2);} 
05F08:  MOVFF  4F2,5D0
05F0C:  MOVLW  5A
05F0E:  MOVLB  5
05F10:  MOVWF  xD1
05F12:  MOVLW  28
05F14:  MOVWF  xD2
05F16:  CLRF   xD3
05F18:  MOVLW  02
05F1A:  MOVWF  xD4
05F1C:  MOVLB  0
05F1E:  CALL   426E
....................        
....................       glcd_text57(60, 42, Dos_puntos, 2, ON); 
05F22:  MOVLW  3C
05F24:  MOVLB  5
05F26:  MOVWF  xE9
05F28:  MOVLW  2A
05F2A:  MOVWF  xEA
05F2C:  MOVLW  04
05F2E:  MOVWF  xEC
05F30:  MOVLW  43
05F32:  MOVWF  xEB
05F34:  MOVLW  02
05F36:  MOVWF  xED
05F38:  MOVLW  01
05F3A:  MOVWF  xEE
05F3C:  MOVLB  0
05F3E:  CALL   3816
....................           
....................          
....................       if(UP)//Si oprime hacia arriba 
05F42:  BSF    F92.5
05F44:  BTFSC  F80.5
05F46:  BRA    5F72
....................       {  if(Flanco == 0)  
05F48:  MOVLB  4
05F4A:  BTFSC  x1A.0
05F4C:  BRA    5F70
....................             {Flanco = 1;delay_ms(30);Tpurgap[unidad-1]++; 
05F4E:  BSF    x1A.0
05F50:  MOVLW  1E
05F52:  MOVLB  5
05F54:  MOVWF  xD9
05F56:  MOVLB  0
05F58:  CALL   1482
05F5C:  MOVLW  01
05F5E:  MOVLB  4
05F60:  SUBWF  xC7,W
05F62:  CLRF   03
05F64:  ADDLW  F2
05F66:  MOVWF  FE9
05F68:  MOVLW  04
05F6A:  ADDWFC 03,W
05F6C:  MOVWF  FEA
05F6E:  INCF   FEF,F
....................             } 
....................       } 
....................          else 
05F70:  BRA    5F76
....................             {Flanco = 0;} 
05F72:  MOVLB  4
05F74:  BCF    x1A.0
....................              
....................       if(DOWN)//Si oprime hacia abajo 
05F76:  BSF    F96.0
05F78:  BTFSC  F84.0
05F7A:  BRA    5FA4
....................       {  if(Flanco2 == 0)  
05F7C:  BTFSC  x1A.2
05F7E:  BRA    5FA2
....................             {Flanco2 = 1;delay_ms(30);Tpurgap[unidad-1]--; 
05F80:  BSF    x1A.2
05F82:  MOVLW  1E
05F84:  MOVLB  5
05F86:  MOVWF  xD9
05F88:  MOVLB  0
05F8A:  CALL   1482
05F8E:  MOVLW  01
05F90:  MOVLB  4
05F92:  SUBWF  xC7,W
05F94:  CLRF   03
05F96:  ADDLW  F2
05F98:  MOVWF  FE9
05F9A:  MOVLW  04
05F9C:  ADDWFC 03,W
05F9E:  MOVWF  FEA
05FA0:  DECF   FEF,F
....................             }      
....................       } 
....................          else 
05FA2:  BRA    5FA6
....................             {Flanco2 = 0;}   
05FA4:  BCF    x1A.2
....................              
....................       if(RIGHT)//Si oprime SET 
05FA6:  BSF    F96.1
05FA8:  BTFSC  F84.1
05FAA:  BRA    5FC4
....................       {  if(Flanco1 == 0)  
05FAC:  BTFSC  x1A.1
05FAE:  BRA    5FC2
....................             {Flanco1 = 1;delay_ms(30);unidad--; 
05FB0:  BSF    x1A.1
05FB2:  MOVLW  1E
05FB4:  MOVLB  5
05FB6:  MOVWF  xD9
05FB8:  MOVLB  0
05FBA:  CALL   1482
05FBE:  MOVLB  4
05FC0:  DECF   xC7,F
....................             } 
....................       } 
....................          else 
05FC2:  BRA    5FC6
....................             {Flanco1 = 0;}   
05FC4:  BCF    x1A.1
....................              
....................       if(LEFT)//Si oprime boton de Toma. 
05FC6:  BSF    F96.2
05FC8:  BTFSC  F84.2
05FCA:  BRA    60DC
....................       { 
....................          delay_ms(700);Menu=3;glcd_fillscreen(OFF);Opcion=1;unidad=1; 
05FCC:  MOVLW  04
05FCE:  MOVLB  5
05FD0:  MOVWF  xD0
05FD2:  MOVLW  AF
05FD4:  MOVWF  xD9
05FD6:  MOVLB  0
05FD8:  CALL   1482
05FDC:  MOVLB  5
05FDE:  DECFSZ xD0,F
05FE0:  BRA    5FD2
05FE2:  MOVLW  03
05FE4:  MOVLB  4
05FE6:  MOVWF  xC6
05FE8:  MOVLB  5
05FEA:  CLRF   xD8
05FEC:  MOVLB  0
05FEE:  CALL   3B52
05FF2:  MOVLW  01
05FF4:  MOVLB  4
05FF6:  MOVWF  xC8
05FF8:  MOVWF  xC7
....................          write_eeprom(4,Tpurgap[0]); 
05FFA:  CLRF   FAA
05FFC:  MOVLW  04
05FFE:  MOVWF  FA9
06000:  MOVFF  4F2,FA8
06004:  BCF    FA6.6
06006:  BCF    FA6.7
06008:  BSF    FA6.2
0600A:  MOVF   FF2,W
0600C:  MOVWF  00
0600E:  BCF    FF2.7
06010:  MOVLB  F
06012:  MOVLW  55
06014:  MOVWF  FA7
06016:  MOVLW  AA
06018:  MOVWF  FA7
0601A:  BSF    FA6.1
0601C:  BTFSC  FA6.1
0601E:  BRA    601C
06020:  BCF    FA6.2
06022:  MOVF   00,W
06024:  IORWF  FF2,F
....................          delay_ms(20); 
06026:  MOVLW  14
06028:  MOVLB  5
0602A:  MOVWF  xD9
0602C:  MOVLB  0
0602E:  CALL   1482
....................          write_eeprom(5,Tpurgap[1]); 
06032:  CLRF   FAA
06034:  MOVLW  05
06036:  MOVWF  FA9
06038:  MOVFF  4F3,FA8
0603C:  BCF    FA6.6
0603E:  BCF    FA6.7
06040:  BSF    FA6.2
06042:  MOVF   FF2,W
06044:  MOVWF  00
06046:  BCF    FF2.7
06048:  MOVLB  F
0604A:  MOVLW  55
0604C:  MOVWF  FA7
0604E:  MOVLW  AA
06050:  MOVWF  FA7
06052:  BSF    FA6.1
06054:  BTFSC  FA6.1
06056:  BRA    6054
06058:  BCF    FA6.2
0605A:  MOVF   00,W
0605C:  IORWF  FF2,F
....................          delay_ms(20); 
0605E:  MOVLW  14
06060:  MOVLB  5
06062:  MOVWF  xD9
06064:  MOVLB  0
06066:  CALL   1482
....................          write_eeprom(6,Tpurgap[2]); 
0606A:  CLRF   FAA
0606C:  MOVLW  06
0606E:  MOVWF  FA9
06070:  MOVFF  4F4,FA8
06074:  BCF    FA6.6
06076:  BCF    FA6.7
06078:  BSF    FA6.2
0607A:  MOVF   FF2,W
0607C:  MOVWF  00
0607E:  BCF    FF2.7
06080:  MOVLB  F
06082:  MOVLW  55
06084:  MOVWF  FA7
06086:  MOVLW  AA
06088:  MOVWF  FA7
0608A:  BSF    FA6.1
0608C:  BTFSC  FA6.1
0608E:  BRA    608C
06090:  BCF    FA6.2
06092:  MOVF   00,W
06094:  IORWF  FF2,F
....................          delay_ms(20); 
06096:  MOVLW  14
06098:  MOVLB  5
0609A:  MOVWF  xD9
0609C:  MOVLB  0
0609E:  CALL   1482
....................          write_eeprom(7,Tpurgap[3]); 
060A2:  CLRF   FAA
060A4:  MOVLW  07
060A6:  MOVWF  FA9
060A8:  MOVFF  4F5,FA8
060AC:  BCF    FA6.6
060AE:  BCF    FA6.7
060B0:  BSF    FA6.2
060B2:  MOVF   FF2,W
060B4:  MOVWF  00
060B6:  BCF    FF2.7
060B8:  MOVLB  F
060BA:  MOVLW  55
060BC:  MOVWF  FA7
060BE:  MOVLW  AA
060C0:  MOVWF  FA7
060C2:  BSF    FA6.1
060C4:  BTFSC  FA6.1
060C6:  BRA    60C4
060C8:  BCF    FA6.2
060CA:  MOVF   00,W
060CC:  IORWF  FF2,F
....................          delay_ms(20); 
060CE:  MOVLW  14
060D0:  MOVLB  5
060D2:  MOVWF  xD9
060D4:  MOVLB  0
060D6:  CALL   1482
060DA:  MOVLB  4
....................       } 
....................        
....................       for(i=0;i<4;i++) 
060DC:  CLRF   x19
060DE:  MOVF   x19,W
060E0:  SUBLW  03
060E2:  BNC   6136
....................       { 
....................          if(Tpurgap[i]>9) 
060E4:  CLRF   03
060E6:  MOVF   x19,W
060E8:  ADDLW  F2
060EA:  MOVWF  FE9
060EC:  MOVLW  04
060EE:  ADDWFC 03,W
060F0:  MOVWF  FEA
060F2:  BTFSC  FEF.7
060F4:  BRA    610C
060F6:  MOVF   FEF,W
060F8:  SUBLW  09
060FA:  BC    610C
....................          {Tpurgap[i]=0;} 
060FC:  CLRF   03
060FE:  MOVF   x19,W
06100:  ADDLW  F2
06102:  MOVWF  FE9
06104:  MOVLW  04
06106:  ADDWFC 03,W
06108:  MOVWF  FEA
0610A:  CLRF   FEF
....................           
....................          if(Tpurgap[i]<0) 
0610C:  CLRF   03
0610E:  MOVF   x19,W
06110:  ADDLW  F2
06112:  MOVWF  FE9
06114:  MOVLW  04
06116:  ADDWFC 03,W
06118:  MOVWF  FEA
0611A:  BTFSC  FEF.7
0611C:  BRA    6120
0611E:  BRA    6132
....................          {Tpurgap[i]=9;} 
06120:  CLRF   03
06122:  MOVF   x19,W
06124:  ADDLW  F2
06126:  MOVWF  FE9
06128:  MOVLW  04
0612A:  ADDWFC 03,W
0612C:  MOVWF  FEA
0612E:  MOVLW  09
06130:  MOVWF  FEF
....................       }       
06132:  INCF   x19,F
06134:  BRA    60DE
....................       for(i=1;i<4;i++) 
06136:  MOVLW  01
06138:  MOVWF  x19
0613A:  MOVF   x19,W
0613C:  SUBLW  03
0613E:  BNC   6194
....................       { 
....................          if(Tpurgap[i]>5) 
06140:  CLRF   03
06142:  MOVF   x19,W
06144:  ADDLW  F2
06146:  MOVWF  FE9
06148:  MOVLW  04
0614A:  ADDWFC 03,W
0614C:  MOVWF  FEA
0614E:  BTFSC  FEF.7
06150:  BRA    6168
06152:  MOVF   FEF,W
06154:  SUBLW  05
06156:  BC    6168
....................          {Tpurgap[i]=0;} 
06158:  CLRF   03
0615A:  MOVF   x19,W
0615C:  ADDLW  F2
0615E:  MOVWF  FE9
06160:  MOVLW  04
06162:  ADDWFC 03,W
06164:  MOVWF  FEA
06166:  CLRF   FEF
....................           
....................          if(Tpurgap[i]<0) 
06168:  CLRF   03
0616A:  MOVF   x19,W
0616C:  ADDLW  F2
0616E:  MOVWF  FE9
06170:  MOVLW  04
06172:  ADDWFC 03,W
06174:  MOVWF  FEA
06176:  BTFSC  FEF.7
06178:  BRA    617C
0617A:  BRA    618E
....................          {Tpurgap[i]=5;} 
0617C:  CLRF   03
0617E:  MOVF   x19,W
06180:  ADDLW  F2
06182:  MOVWF  FE9
06184:  MOVLW  04
06186:  ADDWFC 03,W
06188:  MOVWF  FEA
0618A:  MOVLW  05
0618C:  MOVWF  FEF
....................         i++;  
0618E:  INCF   x19,F
....................       } 
06190:  INCF   x19,F
06192:  BRA    613A
....................       if(unidad<1) 
06194:  MOVF   xC7,F
06196:  BNZ   619C
....................       {unidad=4;} 
06198:  MOVLW  04
0619A:  MOVWF  xC7
....................       if(Opcion<1) 
0619C:  MOVF   xC8,F
0619E:  BNZ   61A4
....................       {Opcion=4;} 
061A0:  MOVLW  04
061A2:  MOVWF  xC8
....................      
....................     } 
.................... //_--------------------------------------------------------------------------------------------------------------------------------------------------------        
.................... //_-------------------------------------------------------------------------------------------------------------------------------------------------------- 
....................       if(Menu==6){ //Menu de Modo. 
061A4:  MOVF   xC6,W
061A6:  SUBLW  06
061A8:  BTFSS  FD8.2
061AA:  BRA    63D2
....................        
....................       strcpy(Menus.Letra,"Modo"); 
061AC:  MOVLW  05
061AE:  MOVWF  FEA
061B0:  MOVLW  BA
061B2:  MOVWF  FE9
061B4:  MOVFF  FF2,5D0
061B8:  BCF    FF2.7
061BA:  MOVLW  00
061BC:  MOVLB  0
061BE:  CALL   0FFE
061C2:  TBLRD*-
061C4:  TBLRD*+
061C6:  MOVF   FF5,W
061C8:  MOVWF  FEE
061CA:  IORLW  00
061CC:  BNZ   61C4
061CE:  MOVLB  5
061D0:  BTFSC  xD0.7
061D2:  BSF    FF2.7
....................       displayMenu(Menus.Letra,40,0,1,2); 
061D4:  MOVLW  05
061D6:  MOVWF  xD9
061D8:  MOVLW  BA
061DA:  MOVWF  xD8
061DC:  MOVLW  28
061DE:  MOVWF  xDA
061E0:  CLRF   xDB
061E2:  MOVLW  01
061E4:  MOVWF  xDC
061E6:  MOVLW  02
061E8:  MOVWF  xDD
061EA:  MOVLB  0
061EC:  CALL   3A86
....................           
....................       if(Opcion==1)    
061F0:  MOVLB  4
061F2:  DECFSZ xC8,W
061F4:  BRA    623C
....................          {strcpy(Menus.Letra,"Mantenimiento"); 
061F6:  MOVLW  05
061F8:  MOVWF  FEA
061FA:  MOVLW  BA
061FC:  MOVWF  FE9
061FE:  MOVFF  FF2,5D0
06202:  BCF    FF2.7
06204:  MOVLW  00
06206:  MOVLB  0
06208:  CALL   104A
0620C:  TBLRD*-
0620E:  TBLRD*+
06210:  MOVF   FF5,W
06212:  MOVWF  FEE
06214:  IORLW  00
06216:  BNZ   620E
06218:  MOVLB  5
0621A:  BTFSC  xD0.7
0621C:  BSF    FF2.7
....................          displayMenu(Menus.Letra,0,19,1,1);} 
0621E:  MOVLW  05
06220:  MOVWF  xD9
06222:  MOVLW  BA
06224:  MOVWF  xD8
06226:  CLRF   xDA
06228:  MOVLW  13
0622A:  MOVWF  xDB
0622C:  MOVLW  01
0622E:  MOVWF  xDC
06230:  MOVWF  xDD
06232:  MOVLB  0
06234:  CALL   3A86
....................       else 
06238:  BRA    627E
0623A:  MOVLB  4
....................          {strcpy(Menus.Letra,"Mantenimiento"); 
0623C:  MOVLW  05
0623E:  MOVWF  FEA
06240:  MOVLW  BA
06242:  MOVWF  FE9
06244:  MOVFF  FF2,5D0
06248:  BCF    FF2.7
0624A:  MOVLW  00
0624C:  MOVLB  0
0624E:  CALL   104A
06252:  TBLRD*-
06254:  TBLRD*+
06256:  MOVF   FF5,W
06258:  MOVWF  FEE
0625A:  IORLW  00
0625C:  BNZ   6254
0625E:  MOVLB  5
06260:  BTFSC  xD0.7
06262:  BSF    FF2.7
....................          displayMenu(Menus.Letra,0,19,0,1);}    
06264:  MOVLW  05
06266:  MOVWF  xD9
06268:  MOVLW  BA
0626A:  MOVWF  xD8
0626C:  CLRF   xDA
0626E:  MOVLW  13
06270:  MOVWF  xDB
06272:  CLRF   xDC
06274:  MOVLW  01
06276:  MOVWF  xDD
06278:  MOVLB  0
0627A:  CALL   3A86
....................           
....................       if(Opcion==2)    
0627E:  MOVLB  4
06280:  MOVF   xC8,W
06282:  SUBLW  02
06284:  BNZ   62CC
....................          {strcpy(Menus.Letra,"Servicio"); 
06286:  MOVLW  05
06288:  MOVWF  FEA
0628A:  MOVLW  BA
0628C:  MOVWF  FE9
0628E:  MOVFF  FF2,5D0
06292:  BCF    FF2.7
06294:  MOVLW  00
06296:  MOVLB  0
06298:  CALL   1076
0629C:  TBLRD*-
0629E:  TBLRD*+
062A0:  MOVF   FF5,W
062A2:  MOVWF  FEE
062A4:  IORLW  00
062A6:  BNZ   629E
062A8:  MOVLB  5
062AA:  BTFSC  xD0.7
062AC:  BSF    FF2.7
....................          displayMenu(Menus.Letra,0,35,1,1);} 
062AE:  MOVLW  05
062B0:  MOVWF  xD9
062B2:  MOVLW  BA
062B4:  MOVWF  xD8
062B6:  CLRF   xDA
062B8:  MOVLW  23
062BA:  MOVWF  xDB
062BC:  MOVLW  01
062BE:  MOVWF  xDC
062C0:  MOVWF  xDD
062C2:  MOVLB  0
062C4:  CALL   3A86
....................       else 
062C8:  BRA    630E
062CA:  MOVLB  4
....................          {strcpy(Menus.Letra,"Servicio"); 
062CC:  MOVLW  05
062CE:  MOVWF  FEA
062D0:  MOVLW  BA
062D2:  MOVWF  FE9
062D4:  MOVFF  FF2,5D0
062D8:  BCF    FF2.7
062DA:  MOVLW  00
062DC:  MOVLB  0
062DE:  CALL   1076
062E2:  TBLRD*-
062E4:  TBLRD*+
062E6:  MOVF   FF5,W
062E8:  MOVWF  FEE
062EA:  IORLW  00
062EC:  BNZ   62E4
062EE:  MOVLB  5
062F0:  BTFSC  xD0.7
062F2:  BSF    FF2.7
....................          displayMenu(Menus.Letra,0,35,0,1);}  
062F4:  MOVLW  05
062F6:  MOVWF  xD9
062F8:  MOVLW  BA
062FA:  MOVWF  xD8
062FC:  CLRF   xDA
062FE:  MOVLW  23
06300:  MOVWF  xDB
06302:  CLRF   xDC
06304:  MOVLW  01
06306:  MOVWF  xDD
06308:  MOVLB  0
0630A:  CALL   3A86
....................          
....................       if(UP)//Si oprime hacia arriba 
0630E:  BSF    F92.5
06310:  BTFSC  F80.5
06312:  BRA    632E
....................       {  if(Flanco == 0)  
06314:  MOVLB  4
06316:  BTFSC  x1A.0
06318:  BRA    632C
....................             {Flanco = 1;delay_ms(30);Opcion--; 
0631A:  BSF    x1A.0
0631C:  MOVLW  1E
0631E:  MOVLB  5
06320:  MOVWF  xD9
06322:  MOVLB  0
06324:  CALL   1482
06328:  MOVLB  4
0632A:  DECF   xC8,F
....................             } 
....................       } 
....................          else 
0632C:  BRA    6332
....................             {Flanco = 0;} 
0632E:  MOVLB  4
06330:  BCF    x1A.0
....................              
....................       if(DOWN)//Si oprime hacia abajo 
06332:  BSF    F96.0
06334:  BTFSC  F84.0
06336:  BRA    6350
....................       {  if(Flanco2 == 0)  
06338:  BTFSC  x1A.2
0633A:  BRA    634E
....................             {Flanco2 = 1;delay_ms(30);Opcion++; 
0633C:  BSF    x1A.2
0633E:  MOVLW  1E
06340:  MOVLB  5
06342:  MOVWF  xD9
06344:  MOVLB  0
06346:  CALL   1482
0634A:  MOVLB  4
0634C:  INCF   xC8,F
....................             }      
....................       } 
....................          else 
0634E:  BRA    6352
....................             {Flanco2 = 0;}   
06350:  BCF    x1A.2
....................              
....................       if(RIGHT)//Si oprime SET 
06352:  BSF    F96.1
06354:  BTFSC  F84.1
06356:  BRA    6390
....................       {  if(Flanco1 == 0)  
06358:  BTFSC  x1A.1
0635A:  BRA    638E
....................             {Flanco1 = 1;delay_ms(500);Menu=Opcion+30;glcd_fillScreen(OFF);Opcion=1;unidad=1; 
0635C:  BSF    x1A.1
0635E:  MOVLW  02
06360:  MOVLB  5
06362:  MOVWF  xD0
06364:  MOVLW  FA
06366:  MOVWF  xD9
06368:  MOVLB  0
0636A:  CALL   1482
0636E:  MOVLB  5
06370:  DECFSZ xD0,F
06372:  BRA    6364
06374:  MOVLW  1E
06376:  MOVLB  4
06378:  ADDWF  xC8,W
0637A:  MOVWF  xC6
0637C:  MOVLB  5
0637E:  CLRF   xD8
06380:  MOVLB  0
06382:  CALL   3B52
06386:  MOVLW  01
06388:  MOVLB  4
0638A:  MOVWF  xC8
0638C:  MOVWF  xC7
....................             } 
....................       } 
....................          else 
0638E:  BRA    6392
....................             {Flanco1 = 0;}   
06390:  BCF    x1A.1
....................              
....................       if(LEFT)//Si oprime boton de Toma. 
06392:  BSF    F96.2
06394:  BTFSC  F84.2
06396:  BRA    63C0
....................         {delay_ms(700);Menu=3;glcd_fillscreen(OFF);} 
06398:  MOVLW  04
0639A:  MOVLB  5
0639C:  MOVWF  xD0
0639E:  MOVLW  AF
063A0:  MOVWF  xD9
063A2:  MOVLB  0
063A4:  CALL   1482
063A8:  MOVLB  5
063AA:  DECFSZ xD0,F
063AC:  BRA    639E
063AE:  MOVLW  03
063B0:  MOVLB  4
063B2:  MOVWF  xC6
063B4:  MOVLB  5
063B6:  CLRF   xD8
063B8:  MOVLB  0
063BA:  CALL   3B52
063BE:  MOVLB  4
....................       if(Opcion>2) 
063C0:  MOVF   xC8,W
063C2:  SUBLW  02
063C4:  BC    63CA
....................       {Opcion=1;} 
063C6:  MOVLW  01
063C8:  MOVWF  xC8
....................       if(Opcion<1) 
063CA:  MOVF   xC8,F
063CC:  BNZ   63D2
....................       {Opcion=2;} 
063CE:  MOVLW  02
063D0:  MOVWF  xC8
....................      
....................     } 
.................... //_--------------------------------------------------------------------------------------------------------------------------------------------------------        
....................  
.................... //_-------------------------------------------------------------------------------------------------------------------------------------------------------- 
....................       if(Menu==5){ //Menu de Clave. 
063D2:  MOVF   xC6,W
063D4:  SUBLW  05
063D6:  BNZ   6436
....................  
....................       PidePassword(3,5,211,Password[0],Password[1],Password[2],Password[3]); 
063D8:  MOVLW  03
063DA:  MOVLB  5
063DC:  MOVWF  xD1
063DE:  MOVLW  05
063E0:  MOVWF  xD2
063E2:  MOVLW  D3
063E4:  MOVWF  xD3
063E6:  MOVFF  512,5D4
063EA:  MOVFF  513,5D5
063EE:  MOVFF  514,5D6
063F2:  MOVFF  515,5D7
063F6:  MOVLB  0
063F8:  CALL   3BAC
....................              
....................       if(LEFT)//Si oprime boton de Toma. 
063FC:  BSF    F96.2
063FE:  BTFSC  F84.2
06400:  BRA    6438
....................       { 
....................          delay_ms(200); 
06402:  MOVLW  C8
06404:  MOVLB  5
06406:  MOVWF  xD9
06408:  MOVLB  0
0640A:  CALL   1482
....................          if(unidad==1){ 
0640E:  MOVLB  4
06410:  DECFSZ xC7,W
06412:  BRA    6436
....................             Menu=3;glcd_fillscreen(OFF);Opcion=1;unidad=1;Contrasena[0]=0;Contrasena[1]=0;Contrasena[2]=0;Contrasena[3]=0; 
06414:  MOVLW  03
06416:  MOVWF  xC6
06418:  MOVLB  5
0641A:  CLRF   xD8
0641C:  MOVLB  0
0641E:  CALL   3B52
06422:  MOVLW  01
06424:  MOVLB  4
06426:  MOVWF  xC8
06428:  MOVWF  xC7
0642A:  MOVLB  5
0642C:  CLRF   x0E
0642E:  CLRF   x0F
06430:  CLRF   x10
06432:  CLRF   x11
06434:  MOVLB  4
06436:  MOVLB  0
....................          } 
....................       }  
....................     } 
.................... //_--------------------------------------------------------------------------------------------------------------------------------------------------------        
....................  
.................... //_-------------------------------------------------------------------------------------------------------------------------------------------------------- 
....................       if(Menu==211){ //Menu de Cambio Clave. 
06438:  MOVLB  4
0643A:  MOVF   xC6,W
0643C:  SUBLW  D3
0643E:  BTFSS  FD8.2
06440:  BRA    68D8
....................        
....................       if(n==0) 
06442:  BTFSC  x1C.3
06444:  BRA    64A4
....................       { 
....................          displayContrasena(Contrasena[0],20,30,1);displayContrasena(Contrasena[1],40,30,0); 
06446:  MOVFF  50E,5DA
0644A:  MOVLW  14
0644C:  MOVLB  5
0644E:  MOVWF  xDB
06450:  MOVLW  1E
06452:  MOVWF  xDC
06454:  MOVLW  01
06456:  MOVWF  xDD
06458:  MOVLB  0
0645A:  CALL   39D0
0645E:  MOVFF  50F,5DA
06462:  MOVLW  28
06464:  MOVLB  5
06466:  MOVWF  xDB
06468:  MOVLW  1E
0646A:  MOVWF  xDC
0646C:  CLRF   xDD
0646E:  MOVLB  0
06470:  CALL   39D0
....................          displayContrasena(Contrasena[2],60,30,0);displayContrasena(Contrasena[0],80,30,0); 
06474:  MOVFF  510,5DA
06478:  MOVLW  3C
0647A:  MOVLB  5
0647C:  MOVWF  xDB
0647E:  MOVLW  1E
06480:  MOVWF  xDC
06482:  CLRF   xDD
06484:  MOVLB  0
06486:  CALL   39D0
0648A:  MOVFF  50E,5DA
0648E:  MOVLW  50
06490:  MOVLB  5
06492:  MOVWF  xDB
06494:  MOVLW  1E
06496:  MOVWF  xDC
06498:  CLRF   xDD
0649A:  MOVLB  0
0649C:  CALL   39D0
....................          n=1; 
064A0:  MOVLB  4
064A2:  BSF    x1C.3
....................       } 
....................       strcpy(Menus.Letra,"Clave Nueva"); 
064A4:  MOVLW  05
064A6:  MOVWF  FEA
064A8:  MOVLW  BA
064AA:  MOVWF  FE9
064AC:  MOVFF  FF2,5D0
064B0:  BCF    FF2.7
064B2:  MOVLW  00
064B4:  MOVLB  0
064B6:  CALL   109E
064BA:  TBLRD*-
064BC:  TBLRD*+
064BE:  MOVF   FF5,W
064C0:  MOVWF  FEE
064C2:  IORLW  00
064C4:  BNZ   64BC
064C6:  MOVLB  5
064C8:  BTFSC  xD0.7
064CA:  BSF    FF2.7
....................       displayMenu(Menus.Letra,0,0,1,2); 
064CC:  MOVLW  05
064CE:  MOVWF  xD9
064D0:  MOVLW  BA
064D2:  MOVWF  xD8
064D4:  CLRF   xDA
064D6:  CLRF   xDB
064D8:  MOVLW  01
064DA:  MOVWF  xDC
064DC:  MOVLW  02
064DE:  MOVWF  xDD
064E0:  MOVLB  0
064E2:  CALL   3A86
....................          
....................        
....................       if(UP)//Si oprime hacia arriba 
064E6:  BSF    F92.5
064E8:  BTFSC  F80.5
064EA:  BRA    65C2
....................       {  if(Flanco == 0)  
064EC:  MOVLB  4
064EE:  BTFSC  x1A.0
064F0:  BRA    65C0
....................             {Flanco = 1;delay_ms(30); 
064F2:  BSF    x1A.0
064F4:  MOVLW  1E
064F6:  MOVLB  5
064F8:  MOVWF  xD9
064FA:  MOVLB  0
064FC:  CALL   1482
....................             for(i=1;i<=4;i++) 
06500:  MOVLW  01
06502:  MOVLB  4
06504:  MOVWF  x19
06506:  MOVF   x19,W
06508:  SUBLW  04
0650A:  BNC   65C0
....................                { 
....................                   if(unidad==i) 
0650C:  MOVF   x19,W
0650E:  SUBWF  xC7,W
06510:  BNZ   6588
....................                   {Contrasena[i-1]++; 
06512:  MOVLW  01
06514:  SUBWF  x19,W
06516:  CLRF   03
06518:  ADDLW  0E
0651A:  MOVWF  FE9
0651C:  MOVLW  05
0651E:  ADDWFC 03,W
06520:  MOVWF  FEA
06522:  INCF   FEF,F
....................                   if(Contrasena[i-1]>9) 
06524:  MOVLW  01
06526:  SUBWF  x19,W
06528:  CLRF   03
0652A:  ADDLW  0E
0652C:  MOVWF  FE9
0652E:  MOVLW  05
06530:  ADDWFC 03,W
06532:  MOVWF  FEA
06534:  BTFSC  FEF.7
06536:  BRA    6550
06538:  MOVF   FEF,W
0653A:  SUBLW  09
0653C:  BC    6550
....................                         {Contrasena[i-1]=0;} 
0653E:  MOVLW  01
06540:  SUBWF  x19,W
06542:  CLRF   03
06544:  ADDLW  0E
06546:  MOVWF  FE9
06548:  MOVLW  05
0654A:  ADDWFC 03,W
0654C:  MOVWF  FEA
0654E:  CLRF   FEF
....................                   displayContrasena(Contrasena[i-1],i*20,30,1);} 
06550:  MOVLW  01
06552:  SUBWF  x19,W
06554:  CLRF   03
06556:  ADDLW  0E
06558:  MOVWF  FE9
0655A:  MOVLW  05
0655C:  ADDWFC 03,W
0655E:  MOVWF  FEA
06560:  MOVFF  FEF,5D0
06564:  MOVF   x19,W
06566:  MULLW  14
06568:  MOVFF  FF3,5D1
0656C:  MOVLB  5
0656E:  MOVFF  5D0,5DA
06572:  MOVFF  5D1,5DB
06576:  MOVLW  1E
06578:  MOVWF  xDC
0657A:  MOVLW  01
0657C:  MOVWF  xDD
0657E:  MOVLB  0
06580:  CALL   39D0
....................                   else 
06584:  BRA    65BA
06586:  MOVLB  4
....................                   {displayContrasena(Contrasena[i-1],i*20,30,0);} 
06588:  MOVLW  01
0658A:  SUBWF  x19,W
0658C:  CLRF   03
0658E:  ADDLW  0E
06590:  MOVWF  FE9
06592:  MOVLW  05
06594:  ADDWFC 03,W
06596:  MOVWF  FEA
06598:  MOVFF  FEF,5D0
0659C:  MOVF   x19,W
0659E:  MULLW  14
065A0:  MOVFF  FF3,5D1
065A4:  MOVLB  5
065A6:  MOVFF  5D0,5DA
065AA:  MOVFF  5D1,5DB
065AE:  MOVLW  1E
065B0:  MOVWF  xDC
065B2:  CLRF   xDD
065B4:  MOVLB  0
065B6:  CALL   39D0
....................                } 
065BA:  MOVLB  4
065BC:  INCF   x19,F
065BE:  BRA    6506
....................             } 
....................       } 
....................          else 
065C0:  BRA    65C6
....................             {Flanco = 0;} 
065C2:  MOVLB  4
065C4:  BCF    x1A.0
....................              
....................       if(DOWN )//Si oprime hacia abajo 
065C6:  BSF    F96.0
065C8:  BTFSC  F84.0
065CA:  BRA    669E
....................       {  if(Flanco2 == 0)  
065CC:  BTFSC  x1A.2
065CE:  BRA    669C
....................             {Flanco2 = 1;delay_ms(30); 
065D0:  BSF    x1A.2
065D2:  MOVLW  1E
065D4:  MOVLB  5
065D6:  MOVWF  xD9
065D8:  MOVLB  0
065DA:  CALL   1482
....................                for(i=1;i<=4;i++) 
065DE:  MOVLW  01
065E0:  MOVLB  4
065E2:  MOVWF  x19
065E4:  MOVF   x19,W
065E6:  SUBLW  04
065E8:  BNC   669C
....................                { 
....................                   if(unidad==i) 
065EA:  MOVF   x19,W
065EC:  SUBWF  xC7,W
065EE:  BNZ   6664
....................                   {Contrasena[i-1]--;  
065F0:  MOVLW  01
065F2:  SUBWF  x19,W
065F4:  CLRF   03
065F6:  ADDLW  0E
065F8:  MOVWF  FE9
065FA:  MOVLW  05
065FC:  ADDWFC 03,W
065FE:  MOVWF  FEA
06600:  DECF   FEF,F
....................                      if(Contrasena[i-1]<0) 
06602:  MOVLW  01
06604:  SUBWF  x19,W
06606:  CLRF   03
06608:  ADDLW  0E
0660A:  MOVWF  FE9
0660C:  MOVLW  05
0660E:  ADDWFC 03,W
06610:  MOVWF  FEA
06612:  BTFSC  FEF.7
06614:  BRA    6618
06616:  BRA    662C
....................                         {Contrasena[i-1]=9;} 
06618:  MOVLW  01
0661A:  SUBWF  x19,W
0661C:  CLRF   03
0661E:  ADDLW  0E
06620:  MOVWF  FE9
06622:  MOVLW  05
06624:  ADDWFC 03,W
06626:  MOVWF  FEA
06628:  MOVLW  09
0662A:  MOVWF  FEF
....................                    displayContrasena(Contrasena[i-1],i*20,30,1);} 
0662C:  MOVLW  01
0662E:  SUBWF  x19,W
06630:  CLRF   03
06632:  ADDLW  0E
06634:  MOVWF  FE9
06636:  MOVLW  05
06638:  ADDWFC 03,W
0663A:  MOVWF  FEA
0663C:  MOVFF  FEF,5D0
06640:  MOVF   x19,W
06642:  MULLW  14
06644:  MOVFF  FF3,5D1
06648:  MOVLB  5
0664A:  MOVFF  5D0,5DA
0664E:  MOVFF  5D1,5DB
06652:  MOVLW  1E
06654:  MOVWF  xDC
06656:  MOVLW  01
06658:  MOVWF  xDD
0665A:  MOVLB  0
0665C:  CALL   39D0
....................                   else 
06660:  BRA    6696
06662:  MOVLB  4
....................                   {displayContrasena(Contrasena[i-1],i*20,30,0);} 
06664:  MOVLW  01
06666:  SUBWF  x19,W
06668:  CLRF   03
0666A:  ADDLW  0E
0666C:  MOVWF  FE9
0666E:  MOVLW  05
06670:  ADDWFC 03,W
06672:  MOVWF  FEA
06674:  MOVFF  FEF,5D0
06678:  MOVF   x19,W
0667A:  MULLW  14
0667C:  MOVFF  FF3,5D1
06680:  MOVLB  5
06682:  MOVFF  5D0,5DA
06686:  MOVFF  5D1,5DB
0668A:  MOVLW  1E
0668C:  MOVWF  xDC
0668E:  CLRF   xDD
06690:  MOVLB  0
06692:  CALL   39D0
....................                }       
06696:  MOVLB  4
06698:  INCF   x19,F
0669A:  BRA    65E4
....................             }      
....................       } 
....................          else 
0669C:  BRA    66A0
....................             {Flanco2 = 0;}   
0669E:  BCF    x1A.2
....................              
....................       if(RIGHT)//Si oprime SET 
066A0:  BSF    F96.1
066A2:  BTFSC  F84.1
066A4:  BRA    673E
....................       {  if(Flanco1 == 0)  
066A6:  BTFSC  x1A.1
066A8:  BRA    673C
....................             {Flanco1 = 1;delay_ms(30);unidad++; 
066AA:  BSF    x1A.1
066AC:  MOVLW  1E
066AE:  MOVLB  5
066B0:  MOVWF  xD9
066B2:  MOVLB  0
066B4:  CALL   1482
066B8:  MOVLB  4
066BA:  INCF   xC7,F
....................                for(i=1;i<=4;i++) 
066BC:  MOVLW  01
066BE:  MOVWF  x19
066C0:  MOVF   x19,W
066C2:  SUBLW  04
066C4:  BNC   673C
....................                { 
....................                   if(unidad==i) 
066C6:  MOVF   x19,W
066C8:  SUBWF  xC7,W
066CA:  BNZ   6704
....................                   {displayContrasena(Contrasena[i-1],i*20,30,1);} 
066CC:  MOVLW  01
066CE:  SUBWF  x19,W
066D0:  CLRF   03
066D2:  ADDLW  0E
066D4:  MOVWF  FE9
066D6:  MOVLW  05
066D8:  ADDWFC 03,W
066DA:  MOVWF  FEA
066DC:  MOVFF  FEF,5D0
066E0:  MOVF   x19,W
066E2:  MULLW  14
066E4:  MOVFF  FF3,5D1
066E8:  MOVLB  5
066EA:  MOVFF  5D0,5DA
066EE:  MOVFF  5D1,5DB
066F2:  MOVLW  1E
066F4:  MOVWF  xDC
066F6:  MOVLW  01
066F8:  MOVWF  xDD
066FA:  MOVLB  0
066FC:  CALL   39D0
....................                   else 
06700:  BRA    6736
06702:  MOVLB  4
....................                   {displayContrasena(Contrasena[i-1],i*20,30,0);} 
06704:  MOVLW  01
06706:  SUBWF  x19,W
06708:  CLRF   03
0670A:  ADDLW  0E
0670C:  MOVWF  FE9
0670E:  MOVLW  05
06710:  ADDWFC 03,W
06712:  MOVWF  FEA
06714:  MOVFF  FEF,5D0
06718:  MOVF   x19,W
0671A:  MULLW  14
0671C:  MOVFF  FF3,5D1
06720:  MOVLB  5
06722:  MOVFF  5D0,5DA
06726:  MOVFF  5D1,5DB
0672A:  MOVLW  1E
0672C:  MOVWF  xDC
0672E:  CLRF   xDD
06730:  MOVLB  0
06732:  CALL   39D0
....................                } 
06736:  MOVLB  4
06738:  INCF   x19,F
0673A:  BRA    66C0
....................             } 
....................       } 
....................          else 
0673C:  BRA    6740
....................             {Flanco1 = 0;}   
0673E:  BCF    x1A.1
....................              
....................       if(LEFT)//Si oprime boton de Toma. 
06740:  BSF    F96.2
06742:  BTFSC  F84.2
06744:  BRA    6784
....................       { 
....................          
....................          delay_ms(700); 
06746:  MOVLW  04
06748:  MOVLB  5
0674A:  MOVWF  xD0
0674C:  MOVLW  AF
0674E:  MOVWF  xD9
06750:  MOVLB  0
06752:  CALL   1482
06756:  MOVLB  5
06758:  DECFSZ xD0,F
0675A:  BRA    674C
....................          if(unidad==1){ 
0675C:  MOVLB  4
0675E:  DECFSZ xC7,W
06760:  BRA    6784
....................             Menu=3;glcd_fillscreen(OFF);Opcion=1;unidad=1;Contrasena[0]=0;Contrasena[1]=0;Contrasena[2]=0;Contrasena[3]=0; 
06762:  MOVLW  03
06764:  MOVWF  xC6
06766:  MOVLB  5
06768:  CLRF   xD8
0676A:  MOVLB  0
0676C:  CALL   3B52
06770:  MOVLW  01
06772:  MOVLB  4
06774:  MOVWF  xC8
06776:  MOVWF  xC7
06778:  MOVLB  5
0677A:  CLRF   x0E
0677C:  CLRF   x0F
0677E:  CLRF   x10
06780:  CLRF   x11
06782:  MOVLB  4
....................          } 
....................       } 
....................        
....................       if(unidad>4) 
06784:  MOVF   xC7,W
06786:  SUBLW  04
06788:  BTFSC  FD8.0
0678A:  BRA    68D8
....................       { 
....................          Opcion=1;glcd_fillscreen(OFF);unidad=1;n=0; 
0678C:  MOVLW  01
0678E:  MOVWF  xC8
06790:  MOVLB  5
06792:  CLRF   xD8
06794:  MOVLB  0
06796:  CALL   3B52
0679A:  MOVLW  01
0679C:  MOVLB  4
0679E:  MOVWF  xC7
067A0:  BCF    x1C.3
....................          Password[0]=Contrasena[0];Password[1]=Contrasena[1];Password[2]=Contrasena[2];Password[3]=Contrasena[3]; 
067A2:  MOVFF  50E,512
067A6:  MOVFF  50F,513
067AA:  MOVFF  510,514
067AE:  MOVFF  511,515
....................          write_eeprom(0,Password[0]); 
067B2:  CLRF   FAA
067B4:  CLRF   FA9
067B6:  MOVFF  512,FA8
067BA:  BCF    FA6.6
067BC:  BCF    FA6.7
067BE:  BSF    FA6.2
067C0:  MOVF   FF2,W
067C2:  MOVWF  00
067C4:  BCF    FF2.7
067C6:  MOVLB  F
067C8:  MOVLW  55
067CA:  MOVWF  FA7
067CC:  MOVLW  AA
067CE:  MOVWF  FA7
067D0:  BSF    FA6.1
067D2:  BTFSC  FA6.1
067D4:  BRA    67D2
067D6:  BCF    FA6.2
067D8:  MOVF   00,W
067DA:  IORWF  FF2,F
....................          delay_ms(20); 
067DC:  MOVLW  14
067DE:  MOVLB  5
067E0:  MOVWF  xD9
067E2:  MOVLB  0
067E4:  CALL   1482
....................          write_eeprom(1,Password[1]); 
067E8:  CLRF   FAA
067EA:  MOVLW  01
067EC:  MOVWF  FA9
067EE:  MOVFF  513,FA8
067F2:  BCF    FA6.6
067F4:  BCF    FA6.7
067F6:  BSF    FA6.2
067F8:  MOVF   FF2,W
067FA:  MOVWF  00
067FC:  BCF    FF2.7
067FE:  MOVLB  F
06800:  MOVLW  55
06802:  MOVWF  FA7
06804:  MOVLW  AA
06806:  MOVWF  FA7
06808:  BSF    FA6.1
0680A:  BTFSC  FA6.1
0680C:  BRA    680A
0680E:  BCF    FA6.2
06810:  MOVF   00,W
06812:  IORWF  FF2,F
....................          delay_ms(20); 
06814:  MOVLW  14
06816:  MOVLB  5
06818:  MOVWF  xD9
0681A:  MOVLB  0
0681C:  CALL   1482
....................          write_eeprom(2,Password[2]); 
06820:  CLRF   FAA
06822:  MOVLW  02
06824:  MOVWF  FA9
06826:  MOVFF  514,FA8
0682A:  BCF    FA6.6
0682C:  BCF    FA6.7
0682E:  BSF    FA6.2
06830:  MOVF   FF2,W
06832:  MOVWF  00
06834:  BCF    FF2.7
06836:  MOVLB  F
06838:  MOVLW  55
0683A:  MOVWF  FA7
0683C:  MOVLW  AA
0683E:  MOVWF  FA7
06840:  BSF    FA6.1
06842:  BTFSC  FA6.1
06844:  BRA    6842
06846:  BCF    FA6.2
06848:  MOVF   00,W
0684A:  IORWF  FF2,F
....................          delay_ms(20); 
0684C:  MOVLW  14
0684E:  MOVLB  5
06850:  MOVWF  xD9
06852:  MOVLB  0
06854:  CALL   1482
....................          write_eeprom(3,Password[3]); 
06858:  CLRF   FAA
0685A:  MOVLW  03
0685C:  MOVWF  FA9
0685E:  MOVFF  515,FA8
06862:  BCF    FA6.6
06864:  BCF    FA6.7
06866:  BSF    FA6.2
06868:  MOVF   FF2,W
0686A:  MOVWF  00
0686C:  BCF    FF2.7
0686E:  MOVLB  F
06870:  MOVLW  55
06872:  MOVWF  FA7
06874:  MOVLW  AA
06876:  MOVWF  FA7
06878:  BSF    FA6.1
0687A:  BTFSC  FA6.1
0687C:  BRA    687A
0687E:  BCF    FA6.2
06880:  MOVF   00,W
06882:  IORWF  FF2,F
....................          delay_ms(20); 
06884:  MOVLW  14
06886:  MOVLB  5
06888:  MOVWF  xD9
0688A:  MOVLB  0
0688C:  CALL   1482
....................          glcd_imagen(1);glcd_update();Menu=211;delay_ms(1000);glcd_fillScreen(OFF);Menu=3; 
06890:  MOVLW  01
06892:  MOVLB  5
06894:  MOVWF  xD0
06896:  MOVLB  0
06898:  CALL   46C8
0689C:  CALL   2B92
068A0:  MOVLW  D3
068A2:  MOVLB  4
068A4:  MOVWF  xC6
068A6:  MOVLW  04
068A8:  MOVLB  5
068AA:  MOVWF  xD0
068AC:  MOVLW  FA
068AE:  MOVWF  xD9
068B0:  MOVLB  0
068B2:  CALL   1482
068B6:  MOVLB  5
068B8:  DECFSZ xD0,F
068BA:  BRA    68AC
068BC:  CLRF   xD8
068BE:  MOVLB  0
068C0:  CALL   3B52
068C4:  MOVLW  03
068C6:  MOVLB  4
068C8:  MOVWF  xC6
....................          n=0; 
068CA:  BCF    x1C.3
....................          Contrasena[0]=0;Contrasena[1]=0;Contrasena[2]=0;Contrasena[3]=0; 
068CC:  MOVLB  5
068CE:  CLRF   x0E
068D0:  CLRF   x0F
068D2:  CLRF   x10
068D4:  CLRF   x11
068D6:  MOVLB  4
....................       } 
....................      
....................     } 
.................... //_--------------------------------------------------------------------------------------------------------------------------------------------------------        
....................  
.................... //_-------------------------------------------------------------------------------------------------------------------------------------------------------- 
....................       if(Menu==31){ //Menu de Mantenimiento. 
068D8:  MOVF   xC6,W
068DA:  SUBLW  1F
068DC:  BTFSS  FD8.2
068DE:  BRA    6CD8
....................        
....................          strcpy(Menus.Letra,"Manteniento"); 
068E0:  MOVLW  05
068E2:  MOVWF  FEA
068E4:  MOVLW  BA
068E6:  MOVWF  FE9
068E8:  MOVFF  FF2,5D0
068EC:  BCF    FF2.7
068EE:  MOVLW  00
068F0:  MOVLB  0
068F2:  CALL   10C8
068F6:  TBLRD*-
068F8:  TBLRD*+
068FA:  MOVF   FF5,W
068FC:  MOVWF  FEE
068FE:  IORLW  00
06900:  BNZ   68F8
06902:  MOVLB  5
06904:  BTFSC  xD0.7
06906:  BSF    FF2.7
....................          displayMenu(Menus.Letra,0,0,1,2); 
06908:  MOVLW  05
0690A:  MOVWF  xD9
0690C:  MOVLW  BA
0690E:  MOVWF  xD8
06910:  CLRF   xDA
06912:  CLRF   xDB
06914:  MOVLW  01
06916:  MOVWF  xDC
06918:  MOVLW  02
0691A:  MOVWF  xDD
0691C:  MOVLB  0
0691E:  CALL   3A86
....................           
....................          strcpy(Menus.Letra,"Trabajo Filtro(h):"); 
06922:  MOVLW  05
06924:  MOVWF  FEA
06926:  MOVLW  BA
06928:  MOVWF  FE9
0692A:  MOVFF  FF2,5D0
0692E:  BCF    FF2.7
06930:  MOVLW  00
06932:  CALL   10F2
06936:  TBLRD*-
06938:  TBLRD*+
0693A:  MOVF   FF5,W
0693C:  MOVWF  FEE
0693E:  IORLW  00
06940:  BNZ   6938
06942:  MOVLB  5
06944:  BTFSC  xD0.7
06946:  BSF    FF2.7
....................          displayMenu(Menus.Letra,10,20,1,1); 
06948:  MOVLW  05
0694A:  MOVWF  xD9
0694C:  MOVLW  BA
0694E:  MOVWF  xD8
06950:  MOVLW  0A
06952:  MOVWF  xDA
06954:  MOVLW  14
06956:  MOVWF  xDB
06958:  MOVLW  01
0695A:  MOVWF  xDC
0695C:  MOVWF  xDD
0695E:  MOVLB  0
06960:  CALL   3A86
....................          glcd_text57(0, 31, Vida_Filtro, 1, ON); 
06964:  MOVLB  5
06966:  CLRF   xE9
06968:  MOVLW  1F
0696A:  MOVWF  xEA
0696C:  MOVLW  04
0696E:  MOVWF  xEC
06970:  MOVLW  9E
06972:  MOVWF  xEB
06974:  MOVLW  01
06976:  MOVWF  xED
06978:  MOVWF  xEE
0697A:  MOVLB  0
0697C:  CALL   3816
....................          displayTiempo(Ttrabajo[3],60,30,0,1);displayTiempo(Ttrabajo[2],67,30,0,1);displayTiempo(Ttrabajo[1],74,30,0,1);displayTiempo(Ttrabajo[0],82,30,0,1); 
06980:  MOVFF  50D,5D0
06984:  MOVLW  3C
06986:  MOVLB  5
06988:  MOVWF  xD1
0698A:  MOVLW  1E
0698C:  MOVWF  xD2
0698E:  CLRF   xD3
06990:  MOVLW  01
06992:  MOVWF  xD4
06994:  MOVLB  0
06996:  CALL   426E
0699A:  MOVFF  50C,5D0
0699E:  MOVLW  43
069A0:  MOVLB  5
069A2:  MOVWF  xD1
069A4:  MOVLW  1E
069A6:  MOVWF  xD2
069A8:  CLRF   xD3
069AA:  MOVLW  01
069AC:  MOVWF  xD4
069AE:  MOVLB  0
069B0:  CALL   426E
069B4:  MOVFF  50B,5D0
069B8:  MOVLW  4A
069BA:  MOVLB  5
069BC:  MOVWF  xD1
069BE:  MOVLW  1E
069C0:  MOVWF  xD2
069C2:  CLRF   xD3
069C4:  MOVLW  01
069C6:  MOVWF  xD4
069C8:  MOVLB  0
069CA:  CALL   426E
069CE:  MOVFF  50A,5D0
069D2:  MOVLW  52
069D4:  MOVLB  5
069D6:  MOVWF  xD1
069D8:  MOVLW  1E
069DA:  MOVWF  xD2
069DC:  CLRF   xD3
069DE:  MOVLW  01
069E0:  MOVWF  xD4
069E2:  MOVLB  0
069E4:  CALL   426E
....................           
....................          /*strcpy(Menus.Letra,"Trabajo Luz UV(h):"); 
....................          displayMenu(Menus.Letra,0,40,1,1); 
....................          glcd_text57(0, 53, Vida_UV, 1, ON); 
....................          displayTiempo(Tuv[3],60,52,0,1);displayTiempo(Tuv[2],67,52,0,1);displayTiempo(Tuv[1],74,52,0,1);displayTiempo(Tuv[0],82,52,0,1);                 */ 
....................          LuzBlanca_on; 
069E8:  BCF    F8B.4
069EA:  BCF    F94.4
....................           
....................          if(UP){ 
069EC:  BSF    F92.5
069EE:  BTFSC  F80.5
069F0:  BRA    6A30
....................             delay_us(500); 
069F2:  MOVLW  02
069F4:  MOVLB  5
069F6:  MOVWF  xD0
069F8:  MOVLW  F9
069FA:  MOVWF  xD1
069FC:  MOVLB  0
069FE:  CALL   49EC
06A02:  MOVLB  5
06A04:  DECFSZ xD0,F
06A06:  BRA    69F8
....................             if(UP){ 
06A08:  BSF    F92.5
06A0A:  BTFSC  F80.5
06A0C:  BRA    6A2C
....................                if(VIDRIOUUP){ 
06A0E:  BSF    F92.4
06A10:  BTFSS  F80.4
06A12:  BRA    6A22
....................                   SubirVidrio(); 
06A14:  MOVLB  0
06A16:  CALL   4922
....................                   MovioVidrio=ON; 
06A1A:  MOVLB  4
06A1C:  BSF    x1C.7
....................                }else{ 
06A1E:  BRA    6A2A
06A20:  MOVLB  5
....................                   DetenerVidrio(); 
06A22:  MOVLB  0
06A24:  CALL   4918
06A28:  MOVLB  4
06A2A:  MOVLB  5
....................                } 
....................             } 
....................          }else if(DOWN){ 
06A2C:  BRA    6A86
06A2E:  MOVLB  0
06A30:  BSF    F96.0
06A32:  BTFSC  F84.0
06A34:  BRA    6A74
....................             delay_us(500); 
06A36:  MOVLW  02
06A38:  MOVLB  5
06A3A:  MOVWF  xD0
06A3C:  MOVLW  F9
06A3E:  MOVWF  xD1
06A40:  MOVLB  0
06A42:  CALL   49EC
06A46:  MOVLB  5
06A48:  DECFSZ xD0,F
06A4A:  BRA    6A3C
....................             if(DOWN){ 
06A4C:  BSF    F96.0
06A4E:  BTFSC  F84.0
06A50:  BRA    6A70
....................                if(VIDRIODN){ 
06A52:  BSF    F92.3
06A54:  BTFSS  F80.3
06A56:  BRA    6A66
....................                   BajarVidrio(); 
06A58:  MOVLB  0
06A5A:  CALL   490E
....................                   MovioVidrio=ON; 
06A5E:  MOVLB  4
06A60:  BSF    x1C.7
....................                }else{ 
06A62:  BRA    6A6E
06A64:  MOVLB  5
....................                   DetenerVidrio(); 
06A66:  MOVLB  0
06A68:  CALL   4918
06A6C:  MOVLB  4
06A6E:  MOVLB  5
....................                } 
....................             } 
....................          }else{ 
06A70:  BRA    6A86
06A72:  MOVLB  0
....................             if(MovioVidrio){ 
06A74:  MOVLB  4
06A76:  BTFSS  x1C.7
06A78:  BRA    6A84
....................                DetenerVidrio(); 
06A7A:  MOVLB  0
06A7C:  CALL   4918
....................                MovioVidrio=OFF; 
06A80:  MOVLB  4
06A82:  BCF    x1C.7
06A84:  MOVLB  5
....................             } 
....................          } 
....................             if(UP && RIGHT) // Reinicia Tiempo de Luz UV 
06A86:  BSF    F92.5
06A88:  BTFSC  F80.5
06A8A:  BRA    6B9E
06A8C:  BSF    F96.1
06A8E:  BTFSC  F84.1
06A90:  BRA    6B9E
....................             { 
....................                   delay_ms(2000); 
06A92:  MOVLW  08
06A94:  MOVWF  xD0
06A96:  MOVLW  FA
06A98:  MOVWF  xD9
06A9A:  MOVLB  0
06A9C:  CALL   1482
06AA0:  MOVLB  5
06AA2:  DECFSZ xD0,F
06AA4:  BRA    6A96
....................                   write_eeprom(12,0); 
06AA6:  CLRF   FAA
06AA8:  MOVLW  0C
06AAA:  MOVWF  FA9
06AAC:  CLRF   FA8
06AAE:  BCF    FA6.6
06AB0:  BCF    FA6.7
06AB2:  BSF    FA6.2
06AB4:  MOVF   FF2,W
06AB6:  MOVWF  00
06AB8:  BCF    FF2.7
06ABA:  MOVLB  F
06ABC:  MOVLW  55
06ABE:  MOVWF  FA7
06AC0:  MOVLW  AA
06AC2:  MOVWF  FA7
06AC4:  BSF    FA6.1
06AC6:  BTFSC  FA6.1
06AC8:  BRA    6AC6
06ACA:  BCF    FA6.2
06ACC:  MOVF   00,W
06ACE:  IORWF  FF2,F
....................                   delay_ms(20); 
06AD0:  MOVLW  14
06AD2:  MOVLB  5
06AD4:  MOVWF  xD9
06AD6:  MOVLB  0
06AD8:  CALL   1482
....................                   write_eeprom(13,0); 
06ADC:  CLRF   FAA
06ADE:  MOVLW  0D
06AE0:  MOVWF  FA9
06AE2:  CLRF   FA8
06AE4:  BCF    FA6.6
06AE6:  BCF    FA6.7
06AE8:  BSF    FA6.2
06AEA:  MOVF   FF2,W
06AEC:  MOVWF  00
06AEE:  BCF    FF2.7
06AF0:  MOVLB  F
06AF2:  MOVLW  55
06AF4:  MOVWF  FA7
06AF6:  MOVLW  AA
06AF8:  MOVWF  FA7
06AFA:  BSF    FA6.1
06AFC:  BTFSC  FA6.1
06AFE:  BRA    6AFC
06B00:  BCF    FA6.2
06B02:  MOVF   00,W
06B04:  IORWF  FF2,F
....................                   delay_ms(20); 
06B06:  MOVLW  14
06B08:  MOVLB  5
06B0A:  MOVWF  xD9
06B0C:  MOVLB  0
06B0E:  CALL   1482
....................                   write_eeprom(14,0); 
06B12:  CLRF   FAA
06B14:  MOVLW  0E
06B16:  MOVWF  FA9
06B18:  CLRF   FA8
06B1A:  BCF    FA6.6
06B1C:  BCF    FA6.7
06B1E:  BSF    FA6.2
06B20:  MOVF   FF2,W
06B22:  MOVWF  00
06B24:  BCF    FF2.7
06B26:  MOVLB  F
06B28:  MOVLW  55
06B2A:  MOVWF  FA7
06B2C:  MOVLW  AA
06B2E:  MOVWF  FA7
06B30:  BSF    FA6.1
06B32:  BTFSC  FA6.1
06B34:  BRA    6B32
06B36:  BCF    FA6.2
06B38:  MOVF   00,W
06B3A:  IORWF  FF2,F
....................                   delay_ms(20); 
06B3C:  MOVLW  14
06B3E:  MOVLB  5
06B40:  MOVWF  xD9
06B42:  MOVLB  0
06B44:  CALL   1482
....................                   write_eeprom(15,0); 
06B48:  CLRF   FAA
06B4A:  MOVLW  0F
06B4C:  MOVWF  FA9
06B4E:  CLRF   FA8
06B50:  BCF    FA6.6
06B52:  BCF    FA6.7
06B54:  BSF    FA6.2
06B56:  MOVF   FF2,W
06B58:  MOVWF  00
06B5A:  BCF    FF2.7
06B5C:  MOVLB  F
06B5E:  MOVLW  55
06B60:  MOVWF  FA7
06B62:  MOVLW  AA
06B64:  MOVWF  FA7
06B66:  BSF    FA6.1
06B68:  BTFSC  FA6.1
06B6A:  BRA    6B68
06B6C:  BCF    FA6.2
06B6E:  MOVF   00,W
06B70:  IORWF  FF2,F
....................                   delay_ms(20); 
06B72:  MOVLW  14
06B74:  MOVLB  5
06B76:  MOVWF  xD9
06B78:  MOVLB  0
06B7A:  CALL   1482
....................                   Tuv[3]=0;Tuv[2]=0;Tuv[1]=0;Tuv[0]=0; 
06B7E:  MOVLB  5
06B80:  CLRF   x01
06B82:  CLRF   x00
06B84:  MOVLB  4
06B86:  CLRF   xFF
06B88:  CLRF   xFE
....................                   Menu=3;glcd_fillscreen(OFF);LuzBlanca_off; 
06B8A:  MOVLW  03
06B8C:  MOVWF  xC6
06B8E:  MOVLB  5
06B90:  CLRF   xD8
06B92:  MOVLB  0
06B94:  CALL   3B52
06B98:  BSF    F8B.4
06B9A:  BCF    F94.4
06B9C:  MOVLB  5
....................                 
....................             } 
....................             if(DOWN && RIGHT) // Reinicia Tiempo de Trabajo 
06B9E:  BSF    F96.0
06BA0:  BTFSC  F84.0
06BA2:  BRA    6CB6
06BA4:  BSF    F96.1
06BA6:  BTFSC  F84.1
06BA8:  BRA    6CB6
....................             { 
....................                   delay_ms(2000); 
06BAA:  MOVLW  08
06BAC:  MOVWF  xD0
06BAE:  MOVLW  FA
06BB0:  MOVWF  xD9
06BB2:  MOVLB  0
06BB4:  CALL   1482
06BB8:  MOVLB  5
06BBA:  DECFSZ xD0,F
06BBC:  BRA    6BAE
....................                   write_eeprom(16,0); 
06BBE:  CLRF   FAA
06BC0:  MOVLW  10
06BC2:  MOVWF  FA9
06BC4:  CLRF   FA8
06BC6:  BCF    FA6.6
06BC8:  BCF    FA6.7
06BCA:  BSF    FA6.2
06BCC:  MOVF   FF2,W
06BCE:  MOVWF  00
06BD0:  BCF    FF2.7
06BD2:  MOVLB  F
06BD4:  MOVLW  55
06BD6:  MOVWF  FA7
06BD8:  MOVLW  AA
06BDA:  MOVWF  FA7
06BDC:  BSF    FA6.1
06BDE:  BTFSC  FA6.1
06BE0:  BRA    6BDE
06BE2:  BCF    FA6.2
06BE4:  MOVF   00,W
06BE6:  IORWF  FF2,F
....................                   delay_ms(20); 
06BE8:  MOVLW  14
06BEA:  MOVLB  5
06BEC:  MOVWF  xD9
06BEE:  MOVLB  0
06BF0:  CALL   1482
....................                   write_eeprom(17,0); 
06BF4:  CLRF   FAA
06BF6:  MOVLW  11
06BF8:  MOVWF  FA9
06BFA:  CLRF   FA8
06BFC:  BCF    FA6.6
06BFE:  BCF    FA6.7
06C00:  BSF    FA6.2
06C02:  MOVF   FF2,W
06C04:  MOVWF  00
06C06:  BCF    FF2.7
06C08:  MOVLB  F
06C0A:  MOVLW  55
06C0C:  MOVWF  FA7
06C0E:  MOVLW  AA
06C10:  MOVWF  FA7
06C12:  BSF    FA6.1
06C14:  BTFSC  FA6.1
06C16:  BRA    6C14
06C18:  BCF    FA6.2
06C1A:  MOVF   00,W
06C1C:  IORWF  FF2,F
....................                   delay_ms(20); 
06C1E:  MOVLW  14
06C20:  MOVLB  5
06C22:  MOVWF  xD9
06C24:  MOVLB  0
06C26:  CALL   1482
....................                   write_eeprom(18,0); 
06C2A:  CLRF   FAA
06C2C:  MOVLW  12
06C2E:  MOVWF  FA9
06C30:  CLRF   FA8
06C32:  BCF    FA6.6
06C34:  BCF    FA6.7
06C36:  BSF    FA6.2
06C38:  MOVF   FF2,W
06C3A:  MOVWF  00
06C3C:  BCF    FF2.7
06C3E:  MOVLB  F
06C40:  MOVLW  55
06C42:  MOVWF  FA7
06C44:  MOVLW  AA
06C46:  MOVWF  FA7
06C48:  BSF    FA6.1
06C4A:  BTFSC  FA6.1
06C4C:  BRA    6C4A
06C4E:  BCF    FA6.2
06C50:  MOVF   00,W
06C52:  IORWF  FF2,F
....................                   delay_ms(20); 
06C54:  MOVLW  14
06C56:  MOVLB  5
06C58:  MOVWF  xD9
06C5A:  MOVLB  0
06C5C:  CALL   1482
....................                   write_eeprom(19,0); 
06C60:  CLRF   FAA
06C62:  MOVLW  13
06C64:  MOVWF  FA9
06C66:  CLRF   FA8
06C68:  BCF    FA6.6
06C6A:  BCF    FA6.7
06C6C:  BSF    FA6.2
06C6E:  MOVF   FF2,W
06C70:  MOVWF  00
06C72:  BCF    FF2.7
06C74:  MOVLB  F
06C76:  MOVLW  55
06C78:  MOVWF  FA7
06C7A:  MOVLW  AA
06C7C:  MOVWF  FA7
06C7E:  BSF    FA6.1
06C80:  BTFSC  FA6.1
06C82:  BRA    6C80
06C84:  BCF    FA6.2
06C86:  MOVF   00,W
06C88:  IORWF  FF2,F
....................                   delay_ms(20); 
06C8A:  MOVLW  14
06C8C:  MOVLB  5
06C8E:  MOVWF  xD9
06C90:  MOVLB  0
06C92:  CALL   1482
....................                   Ttrabajo[3]=0;Ttrabajo[2]=0;Ttrabajo[1]=0;Ttrabajo[0]=0; 
06C96:  MOVLB  5
06C98:  CLRF   x0D
06C9A:  CLRF   x0C
06C9C:  CLRF   x0B
06C9E:  CLRF   x0A
....................                   Menu=3;glcd_fillscreen(OFF);LuzBlanca_off; 
06CA0:  MOVLW  03
06CA2:  MOVLB  4
06CA4:  MOVWF  xC6
06CA6:  MOVLB  5
06CA8:  CLRF   xD8
06CAA:  MOVLB  0
06CAC:  CALL   3B52
06CB0:  BSF    F8B.4
06CB2:  BCF    F94.4
06CB4:  MOVLB  5
....................             } 
....................              
....................             if(LEFT) 
06CB6:  BSF    F96.2
06CB8:  BTFSC  F84.2
06CBA:  BRA    6CDA
....................             { 
....................                Menu=6;glcd_fillscreen(OFF);LuzBlanca_off;Opcion=1;unidad=1; 
06CBC:  MOVLW  06
06CBE:  MOVLB  4
06CC0:  MOVWF  xC6
06CC2:  MOVLB  5
06CC4:  CLRF   xD8
06CC6:  MOVLB  0
06CC8:  CALL   3B52
06CCC:  BSF    F8B.4
06CCE:  BCF    F94.4
06CD0:  MOVLW  01
06CD2:  MOVLB  4
06CD4:  MOVWF  xC8
06CD6:  MOVWF  xC7
06CD8:  MOVLB  5
....................             } 
....................     } 
.................... //_--------------------------------------------------------------------------------------------------------------------------------------------------------        
....................  
.................... //_-------------------------------------------------------------------------------------------------------------------------------------------------------- 
....................       if(Menu==32){ //Menu de Servicio 
06CDA:  MOVLB  4
06CDC:  MOVF   xC6,W
06CDE:  SUBLW  20
06CE0:  BTFSS  FD8.2
06CE2:  BRA    708A
....................        
....................       strcpy(Menus.Letra,"Servicio"); 
06CE4:  MOVLW  05
06CE6:  MOVWF  FEA
06CE8:  MOVLW  BA
06CEA:  MOVWF  FE9
06CEC:  MOVFF  FF2,5D0
06CF0:  BCF    FF2.7
06CF2:  MOVLW  00
06CF4:  MOVLB  0
06CF6:  CALL   1076
06CFA:  TBLRD*-
06CFC:  TBLRD*+
06CFE:  MOVF   FF5,W
06D00:  MOVWF  FEE
06D02:  IORLW  00
06D04:  BNZ   6CFC
06D06:  MOVLB  5
06D08:  BTFSC  xD0.7
06D0A:  BSF    FF2.7
....................       displayMenu(Menus.Letra,10,0,1,2); 
06D0C:  MOVLW  05
06D0E:  MOVWF  xD9
06D10:  MOVLW  BA
06D12:  MOVWF  xD8
06D14:  MOVLW  0A
06D16:  MOVWF  xDA
06D18:  CLRF   xDB
06D1A:  MOVLW  01
06D1C:  MOVWF  xDC
06D1E:  MOVLW  02
06D20:  MOVWF  xDD
06D22:  MOVLB  0
06D24:  CALL   3A86
....................        
....................       if(Opcion==1)    
06D28:  MOVLB  4
06D2A:  DECFSZ xC8,W
06D2C:  BRA    6D74
....................          {strcpy(Menus.Letra,"Sensor de Flujo"); 
06D2E:  MOVLW  05
06D30:  MOVWF  FEA
06D32:  MOVLW  BA
06D34:  MOVWF  FE9
06D36:  MOVFF  FF2,5D0
06D3A:  BCF    FF2.7
06D3C:  MOVLW  00
06D3E:  MOVLB  0
06D40:  CALL   1124
06D44:  TBLRD*-
06D46:  TBLRD*+
06D48:  MOVF   FF5,W
06D4A:  MOVWF  FEE
06D4C:  IORLW  00
06D4E:  BNZ   6D46
06D50:  MOVLB  5
06D52:  BTFSC  xD0.7
06D54:  BSF    FF2.7
....................          displayMenu(Menus.Letra,0,18,1,1);} 
06D56:  MOVLW  05
06D58:  MOVWF  xD9
06D5A:  MOVLW  BA
06D5C:  MOVWF  xD8
06D5E:  CLRF   xDA
06D60:  MOVLW  12
06D62:  MOVWF  xDB
06D64:  MOVLW  01
06D66:  MOVWF  xDC
06D68:  MOVWF  xDD
06D6A:  MOVLB  0
06D6C:  CALL   3A86
....................       else 
06D70:  BRA    6DB6
06D72:  MOVLB  4
....................          {strcpy(Menus.Letra,"Sensor de Flujo"); 
06D74:  MOVLW  05
06D76:  MOVWF  FEA
06D78:  MOVLW  BA
06D7A:  MOVWF  FE9
06D7C:  MOVFF  FF2,5D0
06D80:  BCF    FF2.7
06D82:  MOVLW  00
06D84:  MOVLB  0
06D86:  CALL   1124
06D8A:  TBLRD*-
06D8C:  TBLRD*+
06D8E:  MOVF   FF5,W
06D90:  MOVWF  FEE
06D92:  IORLW  00
06D94:  BNZ   6D8C
06D96:  MOVLB  5
06D98:  BTFSC  xD0.7
06D9A:  BSF    FF2.7
....................          displayMenu(Menus.Letra,0,18,0,1);}  
06D9C:  MOVLW  05
06D9E:  MOVWF  xD9
06DA0:  MOVLW  BA
06DA2:  MOVWF  xD8
06DA4:  CLRF   xDA
06DA6:  MOVLW  12
06DA8:  MOVWF  xDB
06DAA:  CLRF   xDC
06DAC:  MOVLW  01
06DAE:  MOVWF  xDD
06DB0:  MOVLB  0
06DB2:  CALL   3A86
....................           
....................       if(Opcion==2)    
06DB6:  MOVLB  4
06DB8:  MOVF   xC8,W
06DBA:  SUBLW  02
06DBC:  BNZ   6E04
....................          {strcpy(Menus.Letra,"Sensor de Presion"); 
06DBE:  MOVLW  05
06DC0:  MOVWF  FEA
06DC2:  MOVLW  BA
06DC4:  MOVWF  FE9
06DC6:  MOVFF  FF2,5D0
06DCA:  BCF    FF2.7
06DCC:  MOVLW  00
06DCE:  MOVLB  0
06DD0:  CALL   1152
06DD4:  TBLRD*-
06DD6:  TBLRD*+
06DD8:  MOVF   FF5,W
06DDA:  MOVWF  FEE
06DDC:  IORLW  00
06DDE:  BNZ   6DD6
06DE0:  MOVLB  5
06DE2:  BTFSC  xD0.7
06DE4:  BSF    FF2.7
....................          displayMenu(Menus.Letra,0,29,1,1);} 
06DE6:  MOVLW  05
06DE8:  MOVWF  xD9
06DEA:  MOVLW  BA
06DEC:  MOVWF  xD8
06DEE:  CLRF   xDA
06DF0:  MOVLW  1D
06DF2:  MOVWF  xDB
06DF4:  MOVLW  01
06DF6:  MOVWF  xDC
06DF8:  MOVWF  xDD
06DFA:  MOVLB  0
06DFC:  CALL   3A86
....................       else 
06E00:  BRA    6E46
06E02:  MOVLB  4
....................          {strcpy(Menus.Letra,"Sensor de Presion"); 
06E04:  MOVLW  05
06E06:  MOVWF  FEA
06E08:  MOVLW  BA
06E0A:  MOVWF  FE9
06E0C:  MOVFF  FF2,5D0
06E10:  BCF    FF2.7
06E12:  MOVLW  00
06E14:  MOVLB  0
06E16:  CALL   1152
06E1A:  TBLRD*-
06E1C:  TBLRD*+
06E1E:  MOVF   FF5,W
06E20:  MOVWF  FEE
06E22:  IORLW  00
06E24:  BNZ   6E1C
06E26:  MOVLB  5
06E28:  BTFSC  xD0.7
06E2A:  BSF    FF2.7
....................          displayMenu(Menus.Letra,0,29,0,1);}   
06E2C:  MOVLW  05
06E2E:  MOVWF  xD9
06E30:  MOVLW  BA
06E32:  MOVWF  xD8
06E34:  CLRF   xDA
06E36:  MOVLW  1D
06E38:  MOVWF  xDB
06E3A:  CLRF   xDC
06E3C:  MOVLW  01
06E3E:  MOVWF  xDD
06E40:  MOVLB  0
06E42:  CALL   3A86
....................        
....................       if(Opcion==3)    
06E46:  MOVLB  4
06E48:  MOVF   xC8,W
06E4A:  SUBLW  03
06E4C:  BNZ   6E94
....................          {strcpy(Menus.Letra,"Velocidad Ventilador"); 
06E4E:  MOVLW  05
06E50:  MOVWF  FEA
06E52:  MOVLW  BA
06E54:  MOVWF  FE9
06E56:  MOVFF  FF2,5D0
06E5A:  BCF    FF2.7
06E5C:  MOVLW  00
06E5E:  MOVLB  0
06E60:  CALL   1182
06E64:  TBLRD*-
06E66:  TBLRD*+
06E68:  MOVF   FF5,W
06E6A:  MOVWF  FEE
06E6C:  IORLW  00
06E6E:  BNZ   6E66
06E70:  MOVLB  5
06E72:  BTFSC  xD0.7
06E74:  BSF    FF2.7
....................          displayMenu(Menus.Letra,0,40,1,1);} 
06E76:  MOVLW  05
06E78:  MOVWF  xD9
06E7A:  MOVLW  BA
06E7C:  MOVWF  xD8
06E7E:  CLRF   xDA
06E80:  MOVLW  28
06E82:  MOVWF  xDB
06E84:  MOVLW  01
06E86:  MOVWF  xDC
06E88:  MOVWF  xDD
06E8A:  MOVLB  0
06E8C:  CALL   3A86
....................       else 
06E90:  BRA    6ED6
06E92:  MOVLB  4
....................          {strcpy(Menus.Letra,"Velocidad Ventilador"); 
06E94:  MOVLW  05
06E96:  MOVWF  FEA
06E98:  MOVLW  BA
06E9A:  MOVWF  FE9
06E9C:  MOVFF  FF2,5D0
06EA0:  BCF    FF2.7
06EA2:  MOVLW  00
06EA4:  MOVLB  0
06EA6:  CALL   1182
06EAA:  TBLRD*-
06EAC:  TBLRD*+
06EAE:  MOVF   FF5,W
06EB0:  MOVWF  FEE
06EB2:  IORLW  00
06EB4:  BNZ   6EAC
06EB6:  MOVLB  5
06EB8:  BTFSC  xD0.7
06EBA:  BSF    FF2.7
....................          displayMenu(Menus.Letra,0,40,0,1);}  
06EBC:  MOVLW  05
06EBE:  MOVWF  xD9
06EC0:  MOVLW  BA
06EC2:  MOVWF  xD8
06EC4:  CLRF   xDA
06EC6:  MOVLW  28
06EC8:  MOVWF  xDB
06ECA:  CLRF   xDC
06ECC:  MOVLW  01
06ECE:  MOVWF  xDD
06ED0:  MOVLB  0
06ED2:  CALL   3A86
....................        
....................       if(Opcion==4)    
06ED6:  MOVLB  4
06ED8:  MOVF   xC8,W
06EDA:  SUBLW  04
06EDC:  BNZ   6F24
....................          {strcpy(Menus.Letra,"Relacion D/I"); 
06EDE:  MOVLW  05
06EE0:  MOVWF  FEA
06EE2:  MOVLW  BA
06EE4:  MOVWF  FE9
06EE6:  MOVFF  FF2,5D0
06EEA:  BCF    FF2.7
06EEC:  MOVLW  00
06EEE:  MOVLB  0
06EF0:  CALL   11B6
06EF4:  TBLRD*-
06EF6:  TBLRD*+
06EF8:  MOVF   FF5,W
06EFA:  MOVWF  FEE
06EFC:  IORLW  00
06EFE:  BNZ   6EF6
06F00:  MOVLB  5
06F02:  BTFSC  xD0.7
06F04:  BSF    FF2.7
....................          displayMenu(Menus.Letra,0,51,1,1);} 
06F06:  MOVLW  05
06F08:  MOVWF  xD9
06F0A:  MOVLW  BA
06F0C:  MOVWF  xD8
06F0E:  CLRF   xDA
06F10:  MOVLW  33
06F12:  MOVWF  xDB
06F14:  MOVLW  01
06F16:  MOVWF  xDC
06F18:  MOVWF  xDD
06F1A:  MOVLB  0
06F1C:  CALL   3A86
....................       else 
06F20:  BRA    6F66
06F22:  MOVLB  4
....................          {strcpy(Menus.Letra,"Relacion D/I"); 
06F24:  MOVLW  05
06F26:  MOVWF  FEA
06F28:  MOVLW  BA
06F2A:  MOVWF  FE9
06F2C:  MOVFF  FF2,5D0
06F30:  BCF    FF2.7
06F32:  MOVLW  00
06F34:  MOVLB  0
06F36:  CALL   11B6
06F3A:  TBLRD*-
06F3C:  TBLRD*+
06F3E:  MOVF   FF5,W
06F40:  MOVWF  FEE
06F42:  IORLW  00
06F44:  BNZ   6F3C
06F46:  MOVLB  5
06F48:  BTFSC  xD0.7
06F4A:  BSF    FF2.7
....................          displayMenu(Menus.Letra,0,51,0,1);} 
06F4C:  MOVLW  05
06F4E:  MOVWF  xD9
06F50:  MOVLW  BA
06F52:  MOVWF  xD8
06F54:  CLRF   xDA
06F56:  MOVLW  33
06F58:  MOVWF  xDB
06F5A:  CLRF   xDC
06F5C:  MOVLW  01
06F5E:  MOVWF  xDD
06F60:  MOVLB  0
06F62:  CALL   3A86
....................          
....................       if(UP)//Si oprime hacia arriba 
06F66:  BSF    F92.5
06F68:  BTFSC  F80.5
06F6A:  BRA    6F86
....................       {  if(Flanco == 0)  
06F6C:  MOVLB  4
06F6E:  BTFSC  x1A.0
06F70:  BRA    6F84
....................             {Flanco = 1;delay_ms(30);Opcion--; 
06F72:  BSF    x1A.0
06F74:  MOVLW  1E
06F76:  MOVLB  5
06F78:  MOVWF  xD9
06F7A:  MOVLB  0
06F7C:  CALL   1482
06F80:  MOVLB  4
06F82:  DECF   xC8,F
....................             } 
....................       } 
....................          else 
06F84:  BRA    6F8A
....................             {Flanco = 0;} 
06F86:  MOVLB  4
06F88:  BCF    x1A.0
....................              
....................       if(DOWN)//Si oprime hacia abajo 
06F8A:  BSF    F96.0
06F8C:  BTFSC  F84.0
06F8E:  BRA    6FA8
....................       {  if(Flanco2 == 0)  
06F90:  BTFSC  x1A.2
06F92:  BRA    6FA6
....................             {Flanco2 = 1;delay_ms(30);Opcion++; 
06F94:  BSF    x1A.2
06F96:  MOVLW  1E
06F98:  MOVLB  5
06F9A:  MOVWF  xD9
06F9C:  MOVLB  0
06F9E:  CALL   1482
06FA2:  MOVLB  4
06FA4:  INCF   xC8,F
....................             }      
....................       } 
....................          else 
06FA6:  BRA    6FAA
....................             {Flanco2 = 0;}   
06FA8:  BCF    x1A.2
....................              
....................       if(RIGHT)//Si oprime SET 
06FAA:  BSF    F96.1
06FAC:  BTFSC  F84.1
06FAE:  BRA    7040
....................       {   
....................          delay_ms(20); 
06FB0:  MOVLW  14
06FB2:  MOVLB  5
06FB4:  MOVWF  xD9
06FB6:  MOVLB  0
06FB8:  CALL   1482
....................          if(RIGHT){ 
06FBC:  BSF    F96.1
06FBE:  BTFSC  F84.1
06FC0:  BRA    7042
....................             delay_ms(100); 
06FC2:  MOVLW  64
06FC4:  MOVLB  5
06FC6:  MOVWF  xD9
06FC8:  MOVLB  0
06FCA:  CALL   1482
....................             glcd_fillScreen(OFF); 
06FCE:  MOVLB  5
06FD0:  CLRF   xD8
06FD2:  MOVLB  0
06FD4:  CALL   3B52
....................             while(!PidePassword(6,32,Opcion+40,4,4,4,4)){ 
06FD8:  MOVLW  28
06FDA:  MOVLB  4
06FDC:  ADDWF  xC8,W
06FDE:  MOVLB  5
06FE0:  MOVWF  xD0
06FE2:  MOVLW  06
06FE4:  MOVWF  xD1
06FE6:  MOVLW  20
06FE8:  MOVWF  xD2
06FEA:  MOVFF  5D0,5D3
06FEE:  MOVLW  04
06FF0:  MOVWF  xD4
06FF2:  MOVWF  xD5
06FF4:  MOVWF  xD6
06FF6:  MOVWF  xD7
06FF8:  MOVLB  0
06FFA:  CALL   3BAC
06FFE:  MOVF   01,F
07000:  BNZ   702E
....................                PidePassword(6,32,Opcion+40,4,4,4,4);glcd_update(); 
07002:  MOVLW  28
07004:  MOVLB  4
07006:  ADDWF  xC8,W
07008:  MOVLB  5
0700A:  MOVWF  xD0
0700C:  MOVLW  06
0700E:  MOVWF  xD1
07010:  MOVLW  20
07012:  MOVWF  xD2
07014:  MOVFF  5D0,5D3
07018:  MOVLW  04
0701A:  MOVWF  xD4
0701C:  MOVWF  xD5
0701E:  MOVWF  xD6
07020:  MOVWF  xD7
07022:  MOVLB  0
07024:  CALL   3BAC
07028:  CALL   2B92
....................             }             
0702C:  BRA    6FD8
....................             glcd_fillScreen(OFF);Opcion=1;unidad=1; 
0702E:  MOVLB  5
07030:  CLRF   xD8
07032:  MOVLB  0
07034:  CALL   3B52
07038:  MOVLW  01
0703A:  MOVLB  4
0703C:  MOVWF  xC8
0703E:  MOVWF  xC7
07040:  MOVLB  0
....................          } 
....................       } 
....................              
....................       if(LEFT)//Si oprime boton de Toma. 
07042:  BSF    F96.2
07044:  BTFSC  F84.2
07046:  BRA    7076
....................         {delay_ms(700);Menu=6;glcd_fillscreen(OFF);Opcion=1;unidad=1;} 
07048:  MOVLW  04
0704A:  MOVLB  5
0704C:  MOVWF  xD0
0704E:  MOVLW  AF
07050:  MOVWF  xD9
07052:  MOVLB  0
07054:  CALL   1482
07058:  MOVLB  5
0705A:  DECFSZ xD0,F
0705C:  BRA    704E
0705E:  MOVLW  06
07060:  MOVLB  4
07062:  MOVWF  xC6
07064:  MOVLB  5
07066:  CLRF   xD8
07068:  MOVLB  0
0706A:  CALL   3B52
0706E:  MOVLW  01
07070:  MOVLB  4
07072:  MOVWF  xC8
07074:  MOVWF  xC7
....................          
....................       if(Opcion>4) 
07076:  MOVLB  4
07078:  MOVF   xC8,W
0707A:  SUBLW  04
0707C:  BC    7082
....................       {Opcion=1;} 
0707E:  MOVLW  01
07080:  MOVWF  xC8
....................       if(Opcion<1) 
07082:  MOVF   xC8,F
07084:  BNZ   708A
....................       {Opcion=4;} 
07086:  MOVLW  04
07088:  MOVWF  xC8
....................     } 
.................... //_--------------------------------------------------------------------------------------------------------------------------------------------------------        
....................  
.................... //_-------------------------------------------------------------------------------------------------------------------------------------------------------- 
....................       if(Menu==41){ //Menu de Sensor de Flujo. 
0708A:  MOVF   xC6,W
0708C:  SUBLW  29
0708E:  BTFSS  FD8.2
07090:  BRA    7654
....................        
....................       if(Ajuste1>10.0) 
07092:  MOVLB  5
07094:  CLRF   xD8
07096:  CLRF   xD7
07098:  MOVLW  20
0709A:  MOVWF  xD6
0709C:  MOVLW  82
0709E:  MOVWF  xD5
070A0:  MOVFF  53D,5DC
070A4:  MOVFF  53C,5DB
070A8:  MOVFF  53B,5DA
070AC:  MOVFF  53A,5D9
070B0:  MOVLB  0
070B2:  CALL   20CE
070B6:  BNC   70C4
....................          Ajuste1=0.0; 
070B8:  MOVLB  5
070BA:  CLRF   x3D
070BC:  CLRF   x3C
070BE:  CLRF   x3B
070C0:  CLRF   x3A
070C2:  MOVLB  0
....................        
....................       strcpy(Menus.Letra,"Sensor de Flujo"); 
070C4:  MOVLW  05
070C6:  MOVWF  FEA
070C8:  MOVLW  BA
070CA:  MOVWF  FE9
070CC:  MOVFF  FF2,5D0
070D0:  BCF    FF2.7
070D2:  MOVLW  00
070D4:  CALL   1124
070D8:  TBLRD*-
070DA:  TBLRD*+
070DC:  MOVF   FF5,W
070DE:  MOVWF  FEE
070E0:  IORLW  00
070E2:  BNZ   70DA
070E4:  MOVLB  5
070E6:  BTFSC  xD0.7
070E8:  BSF    FF2.7
....................       displayMenu(Menus.Letra,10,0,1,1); 
070EA:  MOVLW  05
070EC:  MOVWF  xD9
070EE:  MOVLW  BA
070F0:  MOVWF  xD8
070F2:  MOVLW  0A
070F4:  MOVWF  xDA
070F6:  CLRF   xDB
070F8:  MOVLW  01
070FA:  MOVWF  xDC
070FC:  MOVWF  xDD
070FE:  MOVLB  0
07100:  CALL   3A86
....................        
....................       glcd_text57(0, 12, ZF, 1, ON); 
07104:  MOVLB  5
07106:  CLRF   xE9
07108:  MOVLW  0C
0710A:  MOVWF  xEA
0710C:  MOVLW  04
0710E:  MOVWF  xEC
07110:  MOVLW  78
07112:  MOVWF  xEB
07114:  MOVLW  01
07116:  MOVWF  xED
07118:  MOVWF  xEE
0711A:  MOVLB  0
0711C:  CALL   3816
....................        
....................       glcd_text57(0, 20, ZA, 1, ON); 
07120:  MOVLB  5
07122:  CLRF   xE9
07124:  MOVLW  14
07126:  MOVWF  xEA
07128:  MOVLW  04
0712A:  MOVWF  xEC
0712C:  MOVLW  86
0712E:  MOVWF  xEB
07130:  MOVLW  01
07132:  MOVWF  xED
07134:  MOVWF  xEE
07136:  MOVLB  0
07138:  CALL   3816
....................        
....................       glcd_text57(0, 30, AJ, 1, ON);            
0713C:  MOVLB  5
0713E:  CLRF   xE9
07140:  MOVLW  1E
07142:  MOVWF  xEA
07144:  MOVLW  04
07146:  MOVWF  xEC
07148:  MOVLW  8E
0714A:  MOVWF  xEB
0714C:  MOVLW  01
0714E:  MOVWF  xED
07150:  MOVWF  xEE
07152:  MOVLB  0
07154:  CALL   3816
....................        
....................       displayfloat(zero_actual,44,20,0,1); 
07158:  MOVFF  5A9,5D7
0715C:  MOVFF  5A8,5D6
07160:  MOVFF  5A7,5D5
07164:  MOVFF  5A6,5D4
07168:  MOVLW  2C
0716A:  MOVLB  5
0716C:  MOVWF  xD8
0716E:  MOVLW  14
07170:  MOVWF  xD9
07172:  CLRF   xDA
07174:  MOVLW  01
07176:  MOVWF  xDB
07178:  MOVLB  0
0717A:  CALL   45C0
....................       displayfloat(Ajuste1,44,30,0,1); 
0717E:  MOVFF  53D,5D7
07182:  MOVFF  53C,5D6
07186:  MOVFF  53B,5D5
0718A:  MOVFF  53A,5D4
0718E:  MOVLW  2C
07190:  MOVLB  5
07192:  MOVWF  xD8
07194:  MOVLW  1E
07196:  MOVWF  xD9
07198:  CLRF   xDA
0719A:  MOVLW  01
0719C:  MOVWF  xDB
0719E:  MOVLB  0
071A0:  CALL   45C0
....................       displayfloat(Inflow_adc,0,40,0,1); 
071A4:  MOVFF  4DB,5D6
071A8:  MOVFF  4DA,5D5
071AC:  CALL   14AA
071B0:  MOVFF  00,5D0
071B4:  MOVFF  01,5D1
071B8:  MOVFF  02,5D2
071BC:  MOVFF  03,5D3
071C0:  MOVFF  03,5D7
071C4:  MOVFF  02,5D6
071C8:  MOVFF  01,5D5
071CC:  MOVFF  00,5D4
071D0:  MOVLB  5
071D2:  CLRF   xD8
071D4:  MOVLW  28
071D6:  MOVWF  xD9
071D8:  CLRF   xDA
071DA:  MOVLW  01
071DC:  MOVWF  xDB
071DE:  MOVLB  0
071E0:  CALL   45C0
.................... //      displayfloat(Diferencia,0,50,0,1); 
....................        
....................       if(UP)//Si oprime hacia arriba 
071E4:  BSF    F92.5
071E6:  BTFSC  F80.5
071E8:  BRA    7230
....................       {   
....................          delay_ms(30);Ajuste1+=0.01; 
071EA:  MOVLW  1E
071EC:  MOVLB  5
071EE:  MOVWF  xD9
071F0:  MOVLB  0
071F2:  CALL   1482
071F6:  BCF    FD8.1
071F8:  MOVFF  53D,5DC
071FC:  MOVFF  53C,5DB
07200:  MOVFF  53B,5DA
07204:  MOVFF  53A,5D9
07208:  MOVLW  0A
0720A:  MOVLB  5
0720C:  MOVWF  xE0
0720E:  MOVLW  D7
07210:  MOVWF  xDF
07212:  MOVLW  23
07214:  MOVWF  xDE
07216:  MOVLW  78
07218:  MOVWF  xDD
0721A:  MOVLB  0
0721C:  CALL   163E
07220:  MOVFF  03,53D
07224:  MOVFF  02,53C
07228:  MOVFF  01,53B
0722C:  MOVFF  00,53A
....................       } 
....................              
....................       if(DOWN)//Si oprime hacia abajo 
07230:  BSF    F96.0
07232:  BTFSC  F84.0
07234:  BRA    727C
....................       {    
....................          delay_ms(30);Ajuste1-=0.01; 
07236:  MOVLW  1E
07238:  MOVLB  5
0723A:  MOVWF  xD9
0723C:  MOVLB  0
0723E:  CALL   1482
07242:  BSF    FD8.1
07244:  MOVFF  53D,5DC
07248:  MOVFF  53C,5DB
0724C:  MOVFF  53B,5DA
07250:  MOVFF  53A,5D9
07254:  MOVLW  0A
07256:  MOVLB  5
07258:  MOVWF  xE0
0725A:  MOVLW  D7
0725C:  MOVWF  xDF
0725E:  MOVLW  23
07260:  MOVWF  xDE
07262:  MOVLW  78
07264:  MOVWF  xDD
07266:  MOVLB  0
07268:  CALL   163E
0726C:  MOVFF  03,53D
07270:  MOVFF  02,53C
07274:  MOVFF  01,53B
07278:  MOVFF  00,53A
....................       } 
....................              
....................       if(RIGHT)//Si oprime SET 
0727C:  BSF    F96.1
0727E:  BTFSC  F84.1
07280:  BRA    74EE
....................       {   
....................          zero_actual=Inflow_adc; 
07282:  MOVFF  4DB,5D6
07286:  MOVFF  4DA,5D5
0728A:  CALL   14AA
0728E:  MOVFF  03,5A9
07292:  MOVFF  02,5A8
07296:  MOVFF  01,5A7
0729A:  MOVFF  00,5A6
....................          Diferencia=zero_fabrica-Inflow_adc; 
0729E:  MOVFF  4DB,5D6
072A2:  MOVFF  4DA,5D5
072A6:  CALL   14AA
072AA:  BSF    FD8.1
072AC:  MOVFF  5A5,5DC
072B0:  MOVFF  5A4,5DB
072B4:  MOVFF  5A3,5DA
072B8:  MOVFF  5A2,5D9
072BC:  MOVFF  03,5E0
072C0:  MOVFF  02,5DF
072C4:  MOVFF  01,5DE
072C8:  MOVFF  00,5DD
072CC:  CALL   163E
072D0:  MOVFF  03,521
072D4:  MOVFF  02,520
072D8:  MOVFF  01,51F
072DC:  MOVFF  00,51E
....................              
....................          if(Diferencia>=0) 
072E0:  MOVLB  5
072E2:  CLRF   xD8
072E4:  CLRF   xD7
072E6:  CLRF   xD6
072E8:  CLRF   xD5
072EA:  MOVFF  521,5DC
072EE:  MOVFF  520,5DB
072F2:  MOVFF  51F,5DA
072F6:  MOVFF  51E,5D9
072FA:  MOVLB  0
072FC:  CALL   20CE
07300:  BC    7304
07302:  BNZ   7342
....................          { 
....................             negativo=10;write_eeprom(50,negativo);delay_ms(20); 
07304:  MOVLW  0A
07306:  MOVLB  4
07308:  MOVWF  xCA
0730A:  CLRF   FAA
0730C:  MOVLW  32
0730E:  MOVWF  FA9
07310:  MOVFF  4CA,FA8
07314:  BCF    FA6.6
07316:  BCF    FA6.7
07318:  BSF    FA6.2
0731A:  MOVF   FF2,W
0731C:  MOVWF  00
0731E:  BCF    FF2.7
07320:  MOVLB  F
07322:  MOVLW  55
07324:  MOVWF  FA7
07326:  MOVLW  AA
07328:  MOVWF  FA7
0732A:  BSF    FA6.1
0732C:  BTFSC  FA6.1
0732E:  BRA    732C
07330:  BCF    FA6.2
07332:  MOVF   00,W
07334:  IORWF  FF2,F
07336:  MOVLW  14
07338:  MOVLB  5
0733A:  MOVWF  xD9
0733C:  MOVLB  0
0733E:  CALL   1482
....................          } 
....................          if(Diferencia<0) 
07342:  MOVFF  521,5D8
07346:  MOVFF  520,5D7
0734A:  MOVFF  51F,5D6
0734E:  MOVFF  51E,5D5
07352:  MOVLB  5
07354:  CLRF   xDC
07356:  CLRF   xDB
07358:  CLRF   xDA
0735A:  CLRF   xD9
0735C:  MOVLB  0
0735E:  CALL   20CE
07362:  BNC   73A2
....................          { 
....................             negativo=20;write_eeprom(50,negativo);delay_ms(20); 
07364:  MOVLW  14
07366:  MOVLB  4
07368:  MOVWF  xCA
0736A:  CLRF   FAA
0736C:  MOVLW  32
0736E:  MOVWF  FA9
07370:  MOVFF  4CA,FA8
07374:  BCF    FA6.6
07376:  BCF    FA6.7
07378:  BSF    FA6.2
0737A:  MOVF   FF2,W
0737C:  MOVWF  00
0737E:  BCF    FF2.7
07380:  MOVLB  F
07382:  MOVLW  55
07384:  MOVWF  FA7
07386:  MOVLW  AA
07388:  MOVWF  FA7
0738A:  BSF    FA6.1
0738C:  BTFSC  FA6.1
0738E:  BRA    738C
07390:  BCF    FA6.2
07392:  MOVF   00,W
07394:  IORWF  FF2,F
07396:  MOVLW  14
07398:  MOVLB  5
0739A:  MOVWF  xD9
0739C:  MOVLB  0
0739E:  CALL   1482
....................          } 
....................          Diferencia=abs(Diferencia); 
073A2:  MOVFF  51E,00
073A6:  MOVFF  51F,01
073AA:  MOVFF  520,02
073AE:  MOVFF  521,03
073B2:  BCF    01.7
073B4:  MOVFF  521,521
073B8:  MOVFF  520,520
073BC:  MOVFF  01,51F
073C0:  MOVFF  51E,51E
....................          Temporal1=(int16)Diferencia; 
073C4:  MOVFF  521,5D3
073C8:  MOVFF  520,5D2
073CC:  MOVFF  51F,5D1
073D0:  MOVFF  51E,5D0
073D4:  CALL   48D2
073D8:  MOVFF  02,4DF
073DC:  MOVFF  01,4DE
....................          write_eeprom(60,make8(Temporal1,0)); 
073E0:  MOVFF  4DE,5D0
073E4:  CLRF   FAA
073E6:  MOVLW  3C
073E8:  MOVWF  FA9
073EA:  MOVFF  5D0,FA8
073EE:  BCF    FA6.6
073F0:  BCF    FA6.7
073F2:  BSF    FA6.2
073F4:  MOVF   FF2,W
073F6:  MOVWF  00
073F8:  BCF    FF2.7
073FA:  MOVLB  F
073FC:  MOVLW  55
073FE:  MOVWF  FA7
07400:  MOVLW  AA
07402:  MOVWF  FA7
07404:  BSF    FA6.1
07406:  BTFSC  FA6.1
07408:  BRA    7406
0740A:  BCF    FA6.2
0740C:  MOVF   00,W
0740E:  IORWF  FF2,F
....................          delay_ms(20); 
07410:  MOVLW  14
07412:  MOVLB  5
07414:  MOVWF  xD9
07416:  MOVLB  0
07418:  CALL   1482
....................          write_eeprom(61,make8(Temporal1,1));//Guardar valor de Setpoint en eeprom 
0741C:  MOVFF  4DF,5D0
07420:  CLRF   FAA
07422:  MOVLW  3D
07424:  MOVWF  FA9
07426:  MOVFF  5D0,FA8
0742A:  BCF    FA6.6
0742C:  BCF    FA6.7
0742E:  BSF    FA6.2
07430:  MOVF   FF2,W
07432:  MOVWF  00
07434:  BCF    FF2.7
07436:  MOVLB  F
07438:  MOVLW  55
0743A:  MOVWF  FA7
0743C:  MOVLW  AA
0743E:  MOVWF  FA7
07440:  BSF    FA6.1
07442:  BTFSC  FA6.1
07444:  BRA    7442
07446:  BCF    FA6.2
07448:  MOVF   00,W
0744A:  IORWF  FF2,F
....................          delay_ms(20); 
0744C:  MOVLW  14
0744E:  MOVLB  5
07450:  MOVWF  xD9
07452:  MOVLB  0
07454:  CALL   1482
....................  
....................          Temporal1=(int16)zero_actual; 
07458:  MOVFF  5A9,5D3
0745C:  MOVFF  5A8,5D2
07460:  MOVFF  5A7,5D1
07464:  MOVFF  5A6,5D0
07468:  CALL   48D2
0746C:  MOVFF  02,4DF
07470:  MOVFF  01,4DE
....................          write_eeprom(29,make8(Temporal1,0)); 
07474:  MOVFF  4DE,5D0
07478:  CLRF   FAA
0747A:  MOVLW  1D
0747C:  MOVWF  FA9
0747E:  MOVFF  5D0,FA8
07482:  BCF    FA6.6
07484:  BCF    FA6.7
07486:  BSF    FA6.2
07488:  MOVF   FF2,W
0748A:  MOVWF  00
0748C:  BCF    FF2.7
0748E:  MOVLB  F
07490:  MOVLW  55
07492:  MOVWF  FA7
07494:  MOVLW  AA
07496:  MOVWF  FA7
07498:  BSF    FA6.1
0749A:  BTFSC  FA6.1
0749C:  BRA    749A
0749E:  BCF    FA6.2
074A0:  MOVF   00,W
074A2:  IORWF  FF2,F
....................          delay_ms(20); 
074A4:  MOVLW  14
074A6:  MOVLB  5
074A8:  MOVWF  xD9
074AA:  MOVLB  0
074AC:  CALL   1482
....................          write_eeprom(30,make8(Temporal1,1));//Guardar valor de Setpoint en eeprom 
074B0:  MOVFF  4DF,5D0
074B4:  CLRF   FAA
074B6:  MOVLW  1E
074B8:  MOVWF  FA9
074BA:  MOVFF  5D0,FA8
074BE:  BCF    FA6.6
074C0:  BCF    FA6.7
074C2:  BSF    FA6.2
074C4:  MOVF   FF2,W
074C6:  MOVWF  00
074C8:  BCF    FF2.7
074CA:  MOVLB  F
074CC:  MOVLW  55
074CE:  MOVWF  FA7
074D0:  MOVLW  AA
074D2:  MOVWF  FA7
074D4:  BSF    FA6.1
074D6:  BTFSC  FA6.1
074D8:  BRA    74D6
074DA:  BCF    FA6.2
074DC:  MOVF   00,W
074DE:  IORWF  FF2,F
....................          delay_ms(20); 
074E0:  MOVLW  14
074E2:  MOVLB  5
074E4:  MOVWF  xD9
074E6:  MOVLB  0
074E8:  CALL   1482
....................       } 
....................          else 
074EC:  BRA    74F4
....................             {Flanco1 = 0;}   
074EE:  MOVLB  4
074F0:  BCF    x1A.1
074F2:  MOVLB  0
....................              
....................       if(LEFT)//Si oprime boton de Toma. 
074F4:  BSF    F96.2
074F6:  BTFSC  F84.2
074F8:  BRA    7652
....................       { 
....................          delay_ms(700);Menu=32;glcd_fillscreen(OFF);Opcion=1;unidad=1; 
074FA:  MOVLW  04
074FC:  MOVLB  5
074FE:  MOVWF  xD0
07500:  MOVLW  AF
07502:  MOVWF  xD9
07504:  MOVLB  0
07506:  CALL   1482
0750A:  MOVLB  5
0750C:  DECFSZ xD0,F
0750E:  BRA    7500
07510:  MOVLW  20
07512:  MOVLB  4
07514:  MOVWF  xC6
07516:  MOVLB  5
07518:  CLRF   xD8
0751A:  MOVLB  0
0751C:  CALL   3B52
07520:  MOVLW  01
07522:  MOVLB  4
07524:  MOVWF  xC8
07526:  MOVWF  xC7
....................          Temporal=Ajuste1; 
07528:  MOVFF  53D,549
0752C:  MOVFF  53C,548
07530:  MOVFF  53B,547
07534:  MOVFF  53A,546
....................          Entero=(int)Ajuste1; 
07538:  MOVFF  53D,5D3
0753C:  MOVFF  53C,5D2
07540:  MOVFF  53B,5D1
07544:  MOVFF  53A,5D0
07548:  MOVLB  0
0754A:  CALL   48D2
0754E:  MOVFF  01,4D4
....................          Temporal=Temporal-Entero; 
07552:  MOVLB  5
07554:  CLRF   xD6
07556:  MOVFF  4D4,5D5
0755A:  MOVLB  0
0755C:  CALL   14AA
07560:  BSF    FD8.1
07562:  MOVFF  549,5DC
07566:  MOVFF  548,5DB
0756A:  MOVFF  547,5DA
0756E:  MOVFF  546,5D9
07572:  MOVFF  03,5E0
07576:  MOVFF  02,5DF
0757A:  MOVFF  01,5DE
0757E:  MOVFF  00,5DD
07582:  CALL   163E
07586:  MOVFF  03,549
0758A:  MOVFF  02,548
0758E:  MOVFF  01,547
07592:  MOVFF  00,546
....................          Temporal2=Temporal*10.0; 
07596:  MOVFF  549,5F5
0759A:  MOVFF  548,5F4
0759E:  MOVFF  547,5F3
075A2:  MOVFF  546,5F2
075A6:  MOVLB  5
075A8:  CLRF   xF9
075AA:  CLRF   xF8
075AC:  MOVLW  20
075AE:  MOVWF  xF7
075B0:  MOVLW  82
075B2:  MOVWF  xF6
075B4:  MOVLB  0
075B6:  CALL   2D24
075BA:  MOVFF  03,54D
075BE:  MOVFF  02,54C
075C2:  MOVFF  01,54B
075C6:  MOVFF  00,54A
....................          Decimal1=(int8)Temporal2; 
075CA:  MOVFF  54D,5D3
075CE:  MOVFF  54C,5D2
075D2:  MOVFF  54B,5D1
075D6:  MOVFF  54A,5D0
075DA:  CALL   48D2
075DE:  MOVFF  01,4D5
....................          write_eeprom(25,Entero); 
075E2:  CLRF   FAA
075E4:  MOVLW  19
075E6:  MOVWF  FA9
075E8:  MOVFF  4D4,FA8
075EC:  BCF    FA6.6
075EE:  BCF    FA6.7
075F0:  BSF    FA6.2
075F2:  MOVF   FF2,W
075F4:  MOVWF  00
075F6:  BCF    FF2.7
075F8:  MOVLB  F
075FA:  MOVLW  55
075FC:  MOVWF  FA7
075FE:  MOVLW  AA
07600:  MOVWF  FA7
07602:  BSF    FA6.1
07604:  BTFSC  FA6.1
07606:  BRA    7604
07608:  BCF    FA6.2
0760A:  MOVF   00,W
0760C:  IORWF  FF2,F
....................          delay_ms(20); 
0760E:  MOVLW  14
07610:  MOVLB  5
07612:  MOVWF  xD9
07614:  MOVLB  0
07616:  CALL   1482
....................          write_eeprom(26,Decimal1); 
0761A:  CLRF   FAA
0761C:  MOVLW  1A
0761E:  MOVWF  FA9
07620:  MOVFF  4D5,FA8
07624:  BCF    FA6.6
07626:  BCF    FA6.7
07628:  BSF    FA6.2
0762A:  MOVF   FF2,W
0762C:  MOVWF  00
0762E:  BCF    FF2.7
07630:  MOVLB  F
07632:  MOVLW  55
07634:  MOVWF  FA7
07636:  MOVLW  AA
07638:  MOVWF  FA7
0763A:  BSF    FA6.1
0763C:  BTFSC  FA6.1
0763E:  BRA    763C
07640:  BCF    FA6.2
07642:  MOVF   00,W
07644:  IORWF  FF2,F
....................          delay_ms(20); 
07646:  MOVLW  14
07648:  MOVLB  5
0764A:  MOVWF  xD9
0764C:  MOVLB  0
0764E:  CALL   1482
07652:  MOVLB  4
....................       } 
....................     } 
.................... //_--------------------------------------------------------------------------------------------------------------------------------------------------------        
....................  
.................... //_-------------------------------------------------------------------------------------------------------------------------------------------------------- 
....................       if(Menu==42){ //Menu de Sensor de Presin. 
07654:  MOVF   xC6,W
07656:  SUBLW  2A
07658:  BTFSS  FD8.2
0765A:  BRA    7A88
....................        
....................       if(Ajuste2>10.0) 
0765C:  MOVLB  5
0765E:  CLRF   xD8
07660:  CLRF   xD7
07662:  MOVLW  20
07664:  MOVWF  xD6
07666:  MOVLW  82
07668:  MOVWF  xD5
0766A:  MOVFF  541,5DC
0766E:  MOVFF  540,5DB
07672:  MOVFF  53F,5DA
07676:  MOVFF  53E,5D9
0767A:  MOVLB  0
0767C:  CALL   20CE
07680:  BNC   768E
....................          Ajuste2=0.0; 
07682:  MOVLB  5
07684:  CLRF   x41
07686:  CLRF   x40
07688:  CLRF   x3F
0768A:  CLRF   x3E
0768C:  MOVLB  0
....................        
....................       strcpy(Menus.Letra,"Sensor de Presion"); 
0768E:  MOVLW  05
07690:  MOVWF  FEA
07692:  MOVLW  BA
07694:  MOVWF  FE9
07696:  MOVFF  FF2,5D0
0769A:  BCF    FF2.7
0769C:  MOVLW  00
0769E:  CALL   1152
076A2:  TBLRD*-
076A4:  TBLRD*+
076A6:  MOVF   FF5,W
076A8:  MOVWF  FEE
076AA:  IORLW  00
076AC:  BNZ   76A4
076AE:  MOVLB  5
076B0:  BTFSC  xD0.7
076B2:  BSF    FF2.7
....................       displayMenu(Menus.Letra,10,0,1,1); 
076B4:  MOVLW  05
076B6:  MOVWF  xD9
076B8:  MOVLW  BA
076BA:  MOVWF  xD8
076BC:  MOVLW  0A
076BE:  MOVWF  xDA
076C0:  CLRF   xDB
076C2:  MOVLW  01
076C4:  MOVWF  xDC
076C6:  MOVWF  xDD
076C8:  MOVLB  0
076CA:  CALL   3A86
....................        
....................       glcd_text57(0, 12, ZFP, 1, ON); 
076CE:  MOVLB  5
076D0:  CLRF   xE9
076D2:  MOVLW  0C
076D4:  MOVWF  xEA
076D6:  MOVLW  04
076D8:  MOVWF  xEC
076DA:  MOVLW  A6
076DC:  MOVWF  xEB
076DE:  MOVLW  01
076E0:  MOVWF  xED
076E2:  MOVWF  xEE
076E4:  MOVLB  0
076E6:  CALL   3816
....................        
....................       glcd_text57(0, 20, ZA, 1, ON); 
076EA:  MOVLB  5
076EC:  CLRF   xE9
076EE:  MOVLW  14
076F0:  MOVWF  xEA
076F2:  MOVLW  04
076F4:  MOVWF  xEC
076F6:  MOVLW  86
076F8:  MOVWF  xEB
076FA:  MOVLW  01
076FC:  MOVWF  xED
076FE:  MOVWF  xEE
07700:  MOVLB  0
07702:  CALL   3816
....................        
....................       glcd_text57(0, 30, AJ, 1, ON);            
07706:  MOVLB  5
07708:  CLRF   xE9
0770A:  MOVLW  1E
0770C:  MOVWF  xEA
0770E:  MOVLW  04
07710:  MOVWF  xEC
07712:  MOVLW  8E
07714:  MOVWF  xEB
07716:  MOVLW  01
07718:  MOVWF  xED
0771A:  MOVWF  xEE
0771C:  MOVLB  0
0771E:  CALL   3816
....................        
....................       displayfloat(G,44,20,0,1); 
07722:  MOVFF  5B5,5D7
07726:  MOVFF  5B4,5D6
0772A:  MOVFF  5B3,5D5
0772E:  MOVFF  5B2,5D4
07732:  MOVLW  2C
07734:  MOVLB  5
07736:  MOVWF  xD8
07738:  MOVLW  14
0773A:  MOVWF  xD9
0773C:  CLRF   xDA
0773E:  MOVLW  01
07740:  MOVWF  xDB
07742:  MOVLB  0
07744:  CALL   45C0
....................       displayfloat(Ajuste2,44,30,0,1); 
07748:  MOVFF  541,5D7
0774C:  MOVFF  540,5D6
07750:  MOVFF  53F,5D5
07754:  MOVFF  53E,5D4
07758:  MOVLW  2C
0775A:  MOVLB  5
0775C:  MOVWF  xD8
0775E:  MOVLW  1E
07760:  MOVWF  xD9
07762:  CLRF   xDA
07764:  MOVLW  01
07766:  MOVWF  xDB
07768:  MOVLB  0
0776A:  CALL   45C0
....................       displayfloat(Filtro_DownFlow_adc,0,40,0,1); 
0776E:  MOVFF  4DD,5D6
07772:  MOVFF  4DC,5D5
07776:  CALL   14AA
0777A:  MOVFF  00,5D0
0777E:  MOVFF  01,5D1
07782:  MOVFF  02,5D2
07786:  MOVFF  03,5D3
0778A:  MOVFF  03,5D7
0778E:  MOVFF  02,5D6
07792:  MOVFF  01,5D5
07796:  MOVFF  00,5D4
0779A:  MOVLB  5
0779C:  CLRF   xD8
0779E:  MOVLW  28
077A0:  MOVWF  xD9
077A2:  CLRF   xDA
077A4:  MOVLW  01
077A6:  MOVWF  xDB
077A8:  MOVLB  0
077AA:  CALL   45C0
....................       displayfloat(Filtro_DownFlow,0,50,0,1); 
077AE:  MOVFF  51D,5D7
077B2:  MOVFF  51C,5D6
077B6:  MOVFF  51B,5D5
077BA:  MOVFF  51A,5D4
077BE:  MOVLB  5
077C0:  CLRF   xD8
077C2:  MOVLW  32
077C4:  MOVWF  xD9
077C6:  CLRF   xDA
077C8:  MOVLW  01
077CA:  MOVWF  xDB
077CC:  MOVLB  0
077CE:  CALL   45C0
....................        
....................       if(UP)//Si oprime hacia arriba 
077D2:  BSF    F92.5
077D4:  BTFSC  F80.5
077D6:  BRA    781E
....................       {   
....................          delay_ms(30);Ajuste2+=0.01; 
077D8:  MOVLW  1E
077DA:  MOVLB  5
077DC:  MOVWF  xD9
077DE:  MOVLB  0
077E0:  CALL   1482
077E4:  BCF    FD8.1
077E6:  MOVFF  541,5DC
077EA:  MOVFF  540,5DB
077EE:  MOVFF  53F,5DA
077F2:  MOVFF  53E,5D9
077F6:  MOVLW  0A
077F8:  MOVLB  5
077FA:  MOVWF  xE0
077FC:  MOVLW  D7
077FE:  MOVWF  xDF
07800:  MOVLW  23
07802:  MOVWF  xDE
07804:  MOVLW  78
07806:  MOVWF  xDD
07808:  MOVLB  0
0780A:  CALL   163E
0780E:  MOVFF  03,541
07812:  MOVFF  02,540
07816:  MOVFF  01,53F
0781A:  MOVFF  00,53E
....................       } 
....................              
....................       if(DOWN)//Si oprime hacia abajo 
0781E:  BSF    F96.0
07820:  BTFSC  F84.0
07822:  BRA    786A
....................       {   
....................          delay_ms(30);Ajuste2-=0.01; 
07824:  MOVLW  1E
07826:  MOVLB  5
07828:  MOVWF  xD9
0782A:  MOVLB  0
0782C:  CALL   1482
07830:  BSF    FD8.1
07832:  MOVFF  541,5DC
07836:  MOVFF  540,5DB
0783A:  MOVFF  53F,5DA
0783E:  MOVFF  53E,5D9
07842:  MOVLW  0A
07844:  MOVLB  5
07846:  MOVWF  xE0
07848:  MOVLW  D7
0784A:  MOVWF  xDF
0784C:  MOVLW  23
0784E:  MOVWF  xDE
07850:  MOVLW  78
07852:  MOVWF  xDD
07854:  MOVLB  0
07856:  CALL   163E
0785A:  MOVFF  03,541
0785E:  MOVFF  02,540
07862:  MOVFF  01,53F
07866:  MOVFF  00,53E
....................       } 
....................              
....................       if(RIGHT)//Si oprime SET 
0786A:  BSF    F96.1
0786C:  BTFSC  F84.1
0786E:  BRA    7922
....................       {            
....................          G=Filtro_Downflow_adc; 
07870:  MOVFF  4DD,5D6
07874:  MOVFF  4DC,5D5
07878:  CALL   14AA
0787C:  MOVFF  03,5B5
07880:  MOVFF  02,5B4
07884:  MOVFF  01,5B3
07888:  MOVFF  00,5B2
....................          G16=(int16)G; 
0788C:  MOVFF  5B5,5D3
07890:  MOVFF  5B4,5D2
07894:  MOVFF  5B3,5D1
07898:  MOVFF  5B2,5D0
0789C:  CALL   48D2
078A0:  MOVFF  02,4E7
078A4:  MOVFF  01,4E6
....................          G_l=G16; G_h=(G16>>8); 
078A8:  MOVFF  4E6,4CB
078AC:  MOVFF  4E7,4CC
....................              
....................          write_eeprom(62,G_l); 
078B0:  CLRF   FAA
078B2:  MOVLW  3E
078B4:  MOVWF  FA9
078B6:  MOVFF  4CB,FA8
078BA:  BCF    FA6.6
078BC:  BCF    FA6.7
078BE:  BSF    FA6.2
078C0:  MOVF   FF2,W
078C2:  MOVWF  00
078C4:  BCF    FF2.7
078C6:  MOVLB  F
078C8:  MOVLW  55
078CA:  MOVWF  FA7
078CC:  MOVLW  AA
078CE:  MOVWF  FA7
078D0:  BSF    FA6.1
078D2:  BTFSC  FA6.1
078D4:  BRA    78D2
078D6:  BCF    FA6.2
078D8:  MOVF   00,W
078DA:  IORWF  FF2,F
....................          delay_ms(20); 
078DC:  MOVLW  14
078DE:  MOVLB  5
078E0:  MOVWF  xD9
078E2:  MOVLB  0
078E4:  CALL   1482
....................          write_eeprom(63,G_h);//Guardar valor de Setpoint en eeprom 
078E8:  CLRF   FAA
078EA:  MOVLW  3F
078EC:  MOVWF  FA9
078EE:  MOVFF  4CC,FA8
078F2:  BCF    FA6.6
078F4:  BCF    FA6.7
078F6:  BSF    FA6.2
078F8:  MOVF   FF2,W
078FA:  MOVWF  00
078FC:  BCF    FF2.7
078FE:  MOVLB  F
07900:  MOVLW  55
07902:  MOVWF  FA7
07904:  MOVLW  AA
07906:  MOVWF  FA7
07908:  BSF    FA6.1
0790A:  BTFSC  FA6.1
0790C:  BRA    790A
0790E:  BCF    FA6.2
07910:  MOVF   00,W
07912:  IORWF  FF2,F
....................          delay_ms(20); 
07914:  MOVLW  14
07916:  MOVLB  5
07918:  MOVWF  xD9
0791A:  MOVLB  0
0791C:  CALL   1482
....................       } 
....................          else 
07920:  BRA    7928
....................             {Flanco1 = 0;}   
07922:  MOVLB  4
07924:  BCF    x1A.1
07926:  MOVLB  0
....................              
....................       if(LEFT)//Si oprime boton de Toma. 
07928:  BSF    F96.2
0792A:  BTFSC  F84.2
0792C:  BRA    7A86
....................       {                   
....................          delay_ms(700);Menu=32;glcd_fillscreen(OFF);Opcion=1;unidad=1; 
0792E:  MOVLW  04
07930:  MOVLB  5
07932:  MOVWF  xD0
07934:  MOVLW  AF
07936:  MOVWF  xD9
07938:  MOVLB  0
0793A:  CALL   1482
0793E:  MOVLB  5
07940:  DECFSZ xD0,F
07942:  BRA    7934
07944:  MOVLW  20
07946:  MOVLB  4
07948:  MOVWF  xC6
0794A:  MOVLB  5
0794C:  CLRF   xD8
0794E:  MOVLB  0
07950:  CALL   3B52
07954:  MOVLW  01
07956:  MOVLB  4
07958:  MOVWF  xC8
0795A:  MOVWF  xC7
....................          Temporal=Ajuste2; 
0795C:  MOVFF  541,549
07960:  MOVFF  540,548
07964:  MOVFF  53F,547
07968:  MOVFF  53E,546
....................          Entero=(int)Ajuste2; 
0796C:  MOVFF  541,5D3
07970:  MOVFF  540,5D2
07974:  MOVFF  53F,5D1
07978:  MOVFF  53E,5D0
0797C:  MOVLB  0
0797E:  CALL   48D2
07982:  MOVFF  01,4D4
....................          Temporal=Temporal-Entero; 
07986:  MOVLB  5
07988:  CLRF   xD6
0798A:  MOVFF  4D4,5D5
0798E:  MOVLB  0
07990:  CALL   14AA
07994:  BSF    FD8.1
07996:  MOVFF  549,5DC
0799A:  MOVFF  548,5DB
0799E:  MOVFF  547,5DA
079A2:  MOVFF  546,5D9
079A6:  MOVFF  03,5E0
079AA:  MOVFF  02,5DF
079AE:  MOVFF  01,5DE
079B2:  MOVFF  00,5DD
079B6:  CALL   163E
079BA:  MOVFF  03,549
079BE:  MOVFF  02,548
079C2:  MOVFF  01,547
079C6:  MOVFF  00,546
....................          Temporal2=Temporal*10.0; 
079CA:  MOVFF  549,5F5
079CE:  MOVFF  548,5F4
079D2:  MOVFF  547,5F3
079D6:  MOVFF  546,5F2
079DA:  MOVLB  5
079DC:  CLRF   xF9
079DE:  CLRF   xF8
079E0:  MOVLW  20
079E2:  MOVWF  xF7
079E4:  MOVLW  82
079E6:  MOVWF  xF6
079E8:  MOVLB  0
079EA:  CALL   2D24
079EE:  MOVFF  03,54D
079F2:  MOVFF  02,54C
079F6:  MOVFF  01,54B
079FA:  MOVFF  00,54A
....................          Decimal1=(int8)Temporal2; 
079FE:  MOVFF  54D,5D3
07A02:  MOVFF  54C,5D2
07A06:  MOVFF  54B,5D1
07A0A:  MOVFF  54A,5D0
07A0E:  CALL   48D2
07A12:  MOVFF  01,4D5
....................          write_eeprom(27,Entero); 
07A16:  CLRF   FAA
07A18:  MOVLW  1B
07A1A:  MOVWF  FA9
07A1C:  MOVFF  4D4,FA8
07A20:  BCF    FA6.6
07A22:  BCF    FA6.7
07A24:  BSF    FA6.2
07A26:  MOVF   FF2,W
07A28:  MOVWF  00
07A2A:  BCF    FF2.7
07A2C:  MOVLB  F
07A2E:  MOVLW  55
07A30:  MOVWF  FA7
07A32:  MOVLW  AA
07A34:  MOVWF  FA7
07A36:  BSF    FA6.1
07A38:  BTFSC  FA6.1
07A3A:  BRA    7A38
07A3C:  BCF    FA6.2
07A3E:  MOVF   00,W
07A40:  IORWF  FF2,F
....................          delay_ms(20); 
07A42:  MOVLW  14
07A44:  MOVLB  5
07A46:  MOVWF  xD9
07A48:  MOVLB  0
07A4A:  CALL   1482
....................          write_eeprom(28,Decimal1); 
07A4E:  CLRF   FAA
07A50:  MOVLW  1C
07A52:  MOVWF  FA9
07A54:  MOVFF  4D5,FA8
07A58:  BCF    FA6.6
07A5A:  BCF    FA6.7
07A5C:  BSF    FA6.2
07A5E:  MOVF   FF2,W
07A60:  MOVWF  00
07A62:  BCF    FF2.7
07A64:  MOVLB  F
07A66:  MOVLW  55
07A68:  MOVWF  FA7
07A6A:  MOVLW  AA
07A6C:  MOVWF  FA7
07A6E:  BSF    FA6.1
07A70:  BTFSC  FA6.1
07A72:  BRA    7A70
07A74:  BCF    FA6.2
07A76:  MOVF   00,W
07A78:  IORWF  FF2,F
....................          delay_ms(20); 
07A7A:  MOVLW  14
07A7C:  MOVLB  5
07A7E:  MOVWF  xD9
07A80:  MOVLB  0
07A82:  CALL   1482
07A86:  MOVLB  4
....................       } 
....................     } 
.................... //_--------------------------------------------------------------------------------------------------------------------------------------------------------        
....................  
.................... //_-------------------------------------------------------------------------------------------------------------------------------------------------------- 
....................       if(Menu==43){ //Menu de Velocidad de Motor 
07A88:  MOVF   xC6,W
07A8A:  SUBLW  2B
07A8C:  BTFSS  FD8.2
07A8E:  BRA    7C5C
....................        
....................       if(VelMotor>6)VelMotor=6; 
07A90:  MOVF   xD8,W
07A92:  SUBLW  06
07A94:  BC    7A9A
07A96:  MOVLW  06
07A98:  MOVWF  xD8
....................        
....................       strcpy(Menus.Letra,"Seleccion Vel"); 
07A9A:  MOVLW  05
07A9C:  MOVWF  FEA
07A9E:  MOVLW  BA
07AA0:  MOVWF  FE9
07AA2:  MOVFF  FF2,5D0
07AA6:  BCF    FF2.7
07AA8:  MOVLW  00
07AAA:  MOVLB  0
07AAC:  CALL   11E2
07AB0:  TBLRD*-
07AB2:  TBLRD*+
07AB4:  MOVF   FF5,W
07AB6:  MOVWF  FEE
07AB8:  IORLW  00
07ABA:  BNZ   7AB2
07ABC:  MOVLB  5
07ABE:  BTFSC  xD0.7
07AC0:  BSF    FF2.7
....................       displayMenu(Menus.Letra,10,0,1,1); 
07AC2:  MOVLW  05
07AC4:  MOVWF  xD9
07AC6:  MOVLW  BA
07AC8:  MOVWF  xD8
07ACA:  MOVLW  0A
07ACC:  MOVWF  xDA
07ACE:  CLRF   xDB
07AD0:  MOVLW  01
07AD2:  MOVWF  xDC
07AD4:  MOVWF  xDD
07AD6:  MOVLB  0
07AD8:  CALL   3A86
....................        
....................       displayTiempo(VelMotor,50,40,1,2); 
07ADC:  MOVFF  4D8,5D0
07AE0:  MOVLW  32
07AE2:  MOVLB  5
07AE4:  MOVWF  xD1
07AE6:  MOVLW  28
07AE8:  MOVWF  xD2
07AEA:  MOVLW  01
07AEC:  MOVWF  xD3
07AEE:  MOVLW  02
07AF0:  MOVWF  xD4
07AF2:  MOVLB  0
07AF4:  CALL   426E
....................        
....................       if(UP && VelMotor<6)//Si oprime hacia arriba 
07AF8:  BSF    F92.5
07AFA:  BTFSC  F80.5
07AFC:  BRA    7B1E
07AFE:  MOVLB  4
07B00:  MOVF   xD8,W
07B02:  SUBLW  05
07B04:  BTFSC  FD8.0
07B06:  BRA    7B0C
07B08:  MOVLB  0
07B0A:  BRA    7B1E
....................       {   
....................          delay_ms(200);VelMotor++; 
07B0C:  MOVLW  C8
07B0E:  MOVLB  5
07B10:  MOVWF  xD9
07B12:  MOVLB  0
07B14:  CALL   1482
07B18:  MOVLB  4
07B1A:  INCF   xD8,F
07B1C:  MOVLB  0
....................       } 
....................              
....................       if(DOWN && VelMotor>0)//Si oprime hacia abajo 
07B1E:  BSF    F96.0
07B20:  BTFSC  F84.0
07B22:  BRA    7B42
07B24:  MOVLB  4
07B26:  MOVF   xD8,F
07B28:  BTFSS  FD8.2
07B2A:  BRA    7B30
07B2C:  MOVLB  0
07B2E:  BRA    7B42
....................       {   
....................          delay_ms(200);VelMotor--; 
07B30:  MOVLW  C8
07B32:  MOVLB  5
07B34:  MOVWF  xD9
07B36:  MOVLB  0
07B38:  CALL   1482
07B3C:  MOVLB  4
07B3E:  DECF   xD8,F
07B40:  MOVLB  0
....................       } 
....................              
....................       if(RIGHT)//Si oprime SET 
07B42:  BSF    F96.1
07B44:  BTFSC  F84.1
07B46:  BRA    7B50
....................       {            
....................          VelocidadMotor(VelMotor); 
07B48:  MOVFF  4D8,5D0
07B4C:  CALL   146E
....................       }  
....................              
....................       if(LEFT)//Si oprime boton de Toma. 
07B50:  BSF    F96.2
07B52:  BTFSC  F84.2
07B54:  BRA    7C5E
....................       {                   
....................          delay_ms(100);glcd_fillscreen(OFF);Opcion=1;unidad=1; 
07B56:  MOVLW  64
07B58:  MOVLB  5
07B5A:  MOVWF  xD9
07B5C:  MOVLB  0
07B5E:  CALL   1482
07B62:  MOVLB  5
07B64:  CLRF   xD8
07B66:  MOVLB  0
07B68:  CALL   3B52
07B6C:  MOVLW  01
07B6E:  MOVLB  4
07B70:  MOVWF  xC8
07B72:  MOVWF  xC7
....................          write_eeprom(32,VelMotor);//Guardar valor de Setpoint en eeprom 
07B74:  CLRF   FAA
07B76:  MOVLW  20
07B78:  MOVWF  FA9
07B7A:  MOVFF  4D8,FA8
07B7E:  BCF    FA6.6
07B80:  BCF    FA6.7
07B82:  BSF    FA6.2
07B84:  MOVF   FF2,W
07B86:  MOVWF  00
07B88:  BCF    FF2.7
07B8A:  MOVLB  F
07B8C:  MOVLW  55
07B8E:  MOVWF  FA7
07B90:  MOVLW  AA
07B92:  MOVWF  FA7
07B94:  BSF    FA6.1
07B96:  BTFSC  FA6.1
07B98:  BRA    7B96
07B9A:  BCF    FA6.2
07B9C:  MOVF   00,W
07B9E:  IORWF  FF2,F
....................          delay_ms(20); 
07BA0:  MOVLW  14
07BA2:  MOVLB  5
07BA4:  MOVWF  xD9
07BA6:  MOVLB  0
07BA8:  CALL   1482
....................          glcd_fillScreen(OFF); 
07BAC:  MOVLB  5
07BAE:  CLRF   xD8
07BB0:  MOVLB  0
07BB2:  CALL   3B52
....................          strcpy(Menus.Letra,"Velocidad"); 
07BB6:  MOVLW  05
07BB8:  MOVWF  FEA
07BBA:  MOVLW  BA
07BBC:  MOVWF  FE9
07BBE:  MOVFF  FF2,5D0
07BC2:  BCF    FF2.7
07BC4:  MOVLW  00
07BC6:  CALL   120E
07BCA:  TBLRD*-
07BCC:  TBLRD*+
07BCE:  MOVF   FF5,W
07BD0:  MOVWF  FEE
07BD2:  IORLW  00
07BD4:  BNZ   7BCC
07BD6:  MOVLB  5
07BD8:  BTFSC  xD0.7
07BDA:  BSF    FF2.7
....................          displayMenu(Menus.Letra,0,0,0,2); 
07BDC:  MOVLW  05
07BDE:  MOVWF  xD9
07BE0:  MOVLW  BA
07BE2:  MOVWF  xD8
07BE4:  CLRF   xDA
07BE6:  CLRF   xDB
07BE8:  CLRF   xDC
07BEA:  MOVLW  02
07BEC:  MOVWF  xDD
07BEE:  MOVLB  0
07BF0:  CALL   3A86
....................          strcpy(Menus.Letra,"Guardada"); 
07BF4:  MOVLW  05
07BF6:  MOVWF  FEA
07BF8:  MOVLW  BA
07BFA:  MOVWF  FE9
07BFC:  MOVFF  FF2,5D0
07C00:  BCF    FF2.7
07C02:  MOVLW  00
07C04:  CALL   1236
07C08:  TBLRD*-
07C0A:  TBLRD*+
07C0C:  MOVF   FF5,W
07C0E:  MOVWF  FEE
07C10:  IORLW  00
07C12:  BNZ   7C0A
07C14:  MOVLB  5
07C16:  BTFSC  xD0.7
07C18:  BSF    FF2.7
....................          displayMenu(Menus.Letra,0,30,0,2); 
07C1A:  MOVLW  05
07C1C:  MOVWF  xD9
07C1E:  MOVLW  BA
07C20:  MOVWF  xD8
07C22:  CLRF   xDA
07C24:  MOVLW  1E
07C26:  MOVWF  xDB
07C28:  CLRF   xDC
07C2A:  MOVLW  02
07C2C:  MOVWF  xDD
07C2E:  MOVLB  0
07C30:  CALL   3A86
....................          glcd_update(); 
07C34:  CALL   2B92
....................          delay_ms(1000); 
07C38:  MOVLW  04
07C3A:  MOVLB  5
07C3C:  MOVWF  xD0
07C3E:  MOVLW  FA
07C40:  MOVWF  xD9
07C42:  MOVLB  0
07C44:  CALL   1482
07C48:  MOVLB  5
07C4A:  DECFSZ xD0,F
07C4C:  BRA    7C3E
....................          glcd_fillScreen(OFF); 
07C4E:  CLRF   xD8
07C50:  MOVLB  0
07C52:  CALL   3B52
....................          Menu=32; 
07C56:  MOVLW  20
07C58:  MOVLB  4
07C5A:  MOVWF  xC6
07C5C:  MOVLB  0
....................       } 
....................     } 
.................... //_--------------------------------------------------------------------------------------------------------------------------------------------------------        
....................  
.................... //_-------------------------------------------------------------------------------------------------------------------------------------------------------- 
....................       if(Menu==44){ //Menu de Relacion 
07C5E:  MOVLB  4
07C60:  MOVF   xC6,W
07C62:  SUBLW  2C
07C64:  BTFSS  FD8.2
07C66:  BRA    7F9C
....................        
....................       if(Relacion>2.0)Relacion=2.0; 
07C68:  MOVLB  5
07C6A:  CLRF   xD8
07C6C:  CLRF   xD7
07C6E:  CLRF   xD6
07C70:  MOVLW  80
07C72:  MOVWF  xD5
07C74:  MOVFF  5B9,5DC
07C78:  MOVFF  5B8,5DB
07C7C:  MOVFF  5B7,5DA
07C80:  MOVFF  5B6,5D9
07C84:  MOVLB  0
07C86:  CALL   20CE
07C8A:  BNC   7C9A
07C8C:  MOVLB  5
07C8E:  CLRF   xB9
07C90:  CLRF   xB8
07C92:  CLRF   xB7
07C94:  MOVLW  80
07C96:  MOVWF  xB6
07C98:  MOVLB  0
....................        
....................       strcpy(Menus.Letra,"Relacion"); 
07C9A:  MOVLW  05
07C9C:  MOVWF  FEA
07C9E:  MOVLW  BA
07CA0:  MOVWF  FE9
07CA2:  MOVFF  FF2,5D0
07CA6:  BCF    FF2.7
07CA8:  MOVLW  00
07CAA:  CALL   125E
07CAE:  TBLRD*-
07CB0:  TBLRD*+
07CB2:  MOVF   FF5,W
07CB4:  MOVWF  FEE
07CB6:  IORLW  00
07CB8:  BNZ   7CB0
07CBA:  MOVLB  5
07CBC:  BTFSC  xD0.7
07CBE:  BSF    FF2.7
....................       displayMenu(Menus.Letra,10,0,1,1); 
07CC0:  MOVLW  05
07CC2:  MOVWF  xD9
07CC4:  MOVLW  BA
07CC6:  MOVWF  xD8
07CC8:  MOVLW  0A
07CCA:  MOVWF  xDA
07CCC:  CLRF   xDB
07CCE:  MOVLW  01
07CD0:  MOVWF  xDC
07CD2:  MOVWF  xDD
07CD4:  MOVLB  0
07CD6:  CALL   3A86
....................        
....................       displayfloat(Relacion,44,30,0,2); 
07CDA:  MOVFF  5B9,5D7
07CDE:  MOVFF  5B8,5D6
07CE2:  MOVFF  5B7,5D5
07CE6:  MOVFF  5B6,5D4
07CEA:  MOVLW  2C
07CEC:  MOVLB  5
07CEE:  MOVWF  xD8
07CF0:  MOVLW  1E
07CF2:  MOVWF  xD9
07CF4:  CLRF   xDA
07CF6:  MOVLW  02
07CF8:  MOVWF  xDB
07CFA:  MOVLB  0
07CFC:  CALL   45C0
....................        
....................       if(UP)//Si oprime hacia arriba 
07D00:  BSF    F92.5
07D02:  BTFSC  F80.5
07D04:  BRA    7D4C
....................       {   
....................          delay_ms(100);Relacion+=0.01; 
07D06:  MOVLW  64
07D08:  MOVLB  5
07D0A:  MOVWF  xD9
07D0C:  MOVLB  0
07D0E:  CALL   1482
07D12:  BCF    FD8.1
07D14:  MOVFF  5B9,5DC
07D18:  MOVFF  5B8,5DB
07D1C:  MOVFF  5B7,5DA
07D20:  MOVFF  5B6,5D9
07D24:  MOVLW  0A
07D26:  MOVLB  5
07D28:  MOVWF  xE0
07D2A:  MOVLW  D7
07D2C:  MOVWF  xDF
07D2E:  MOVLW  23
07D30:  MOVWF  xDE
07D32:  MOVLW  78
07D34:  MOVWF  xDD
07D36:  MOVLB  0
07D38:  CALL   163E
07D3C:  MOVFF  03,5B9
07D40:  MOVFF  02,5B8
07D44:  MOVFF  01,5B7
07D48:  MOVFF  00,5B6
....................       } 
....................              
....................       if(DOWN)//Si oprime hacia abajo 
07D4C:  BSF    F96.0
07D4E:  BTFSC  F84.0
07D50:  BRA    7D98
....................       {   
....................          delay_ms(100);Relacion-=0.01; 
07D52:  MOVLW  64
07D54:  MOVLB  5
07D56:  MOVWF  xD9
07D58:  MOVLB  0
07D5A:  CALL   1482
07D5E:  BSF    FD8.1
07D60:  MOVFF  5B9,5DC
07D64:  MOVFF  5B8,5DB
07D68:  MOVFF  5B7,5DA
07D6C:  MOVFF  5B6,5D9
07D70:  MOVLW  0A
07D72:  MOVLB  5
07D74:  MOVWF  xE0
07D76:  MOVLW  D7
07D78:  MOVWF  xDF
07D7A:  MOVLW  23
07D7C:  MOVWF  xDE
07D7E:  MOVLW  78
07D80:  MOVWF  xDD
07D82:  MOVLB  0
07D84:  CALL   163E
07D88:  MOVFF  03,5B9
07D8C:  MOVFF  02,5B8
07D90:  MOVFF  01,5B7
07D94:  MOVFF  00,5B6
....................       } 
....................              
....................       if(LEFT)//Si oprime boton de Toma. 
07D98:  BSF    F96.2
07D9A:  BTFSC  F84.2
07D9C:  BRA    7F9E
....................       {                   
....................          delay_ms(100);Menu=32;glcd_fillscreen(OFF);Opcion=1;unidad=1; 
07D9E:  MOVLW  64
07DA0:  MOVLB  5
07DA2:  MOVWF  xD9
07DA4:  MOVLB  0
07DA6:  CALL   1482
07DAA:  MOVLW  20
07DAC:  MOVLB  4
07DAE:  MOVWF  xC6
07DB0:  MOVLB  5
07DB2:  CLRF   xD8
07DB4:  MOVLB  0
07DB6:  CALL   3B52
07DBA:  MOVLW  01
07DBC:  MOVLB  4
07DBE:  MOVWF  xC8
07DC0:  MOVWF  xC7
....................          Temporal=Relacion; 
07DC2:  MOVFF  5B9,549
07DC6:  MOVFF  5B8,548
07DCA:  MOVFF  5B7,547
07DCE:  MOVFF  5B6,546
....................          Entero=(int)Relacion; 
07DD2:  MOVFF  5B9,5D3
07DD6:  MOVFF  5B8,5D2
07DDA:  MOVFF  5B7,5D1
07DDE:  MOVFF  5B6,5D0
07DE2:  MOVLB  0
07DE4:  CALL   48D2
07DE8:  MOVFF  01,4D4
....................          Temporal=Temporal-Entero; 
07DEC:  MOVLB  5
07DEE:  CLRF   xD6
07DF0:  MOVFF  4D4,5D5
07DF4:  MOVLB  0
07DF6:  CALL   14AA
07DFA:  BSF    FD8.1
07DFC:  MOVFF  549,5DC
07E00:  MOVFF  548,5DB
07E04:  MOVFF  547,5DA
07E08:  MOVFF  546,5D9
07E0C:  MOVFF  03,5E0
07E10:  MOVFF  02,5DF
07E14:  MOVFF  01,5DE
07E18:  MOVFF  00,5DD
07E1C:  CALL   163E
07E20:  MOVFF  03,549
07E24:  MOVFF  02,548
07E28:  MOVFF  01,547
07E2C:  MOVFF  00,546
....................          Temporal2=Temporal*100.0; 
07E30:  MOVFF  549,5F5
07E34:  MOVFF  548,5F4
07E38:  MOVFF  547,5F3
07E3C:  MOVFF  546,5F2
07E40:  MOVLB  5
07E42:  CLRF   xF9
07E44:  CLRF   xF8
07E46:  MOVLW  48
07E48:  MOVWF  xF7
07E4A:  MOVLW  85
07E4C:  MOVWF  xF6
07E4E:  MOVLB  0
07E50:  CALL   2D24
07E54:  MOVFF  03,54D
07E58:  MOVFF  02,54C
07E5C:  MOVFF  01,54B
07E60:  MOVFF  00,54A
....................          Decimal1=(int8)Temporal2; 
07E64:  MOVFF  54D,5D3
07E68:  MOVFF  54C,5D2
07E6C:  MOVFF  54B,5D1
07E70:  MOVFF  54A,5D0
07E74:  CALL   48D2
07E78:  MOVFF  01,4D5
....................          write_eeprom(35,Entero); 
07E7C:  CLRF   FAA
07E7E:  MOVLW  23
07E80:  MOVWF  FA9
07E82:  MOVFF  4D4,FA8
07E86:  BCF    FA6.6
07E88:  BCF    FA6.7
07E8A:  BSF    FA6.2
07E8C:  MOVF   FF2,W
07E8E:  MOVWF  00
07E90:  BCF    FF2.7
07E92:  MOVLB  F
07E94:  MOVLW  55
07E96:  MOVWF  FA7
07E98:  MOVLW  AA
07E9A:  MOVWF  FA7
07E9C:  BSF    FA6.1
07E9E:  BTFSC  FA6.1
07EA0:  BRA    7E9E
07EA2:  BCF    FA6.2
07EA4:  MOVF   00,W
07EA6:  IORWF  FF2,F
....................          delay_ms(20); 
07EA8:  MOVLW  14
07EAA:  MOVLB  5
07EAC:  MOVWF  xD9
07EAE:  MOVLB  0
07EB0:  CALL   1482
....................          write_eeprom(36,Decimal1); 
07EB4:  CLRF   FAA
07EB6:  MOVLW  24
07EB8:  MOVWF  FA9
07EBA:  MOVFF  4D5,FA8
07EBE:  BCF    FA6.6
07EC0:  BCF    FA6.7
07EC2:  BSF    FA6.2
07EC4:  MOVF   FF2,W
07EC6:  MOVWF  00
07EC8:  BCF    FF2.7
07ECA:  MOVLB  F
07ECC:  MOVLW  55
07ECE:  MOVWF  FA7
07ED0:  MOVLW  AA
07ED2:  MOVWF  FA7
07ED4:  BSF    FA6.1
07ED6:  BTFSC  FA6.1
07ED8:  BRA    7ED6
07EDA:  BCF    FA6.2
07EDC:  MOVF   00,W
07EDE:  IORWF  FF2,F
....................          delay_ms(20); 
07EE0:  MOVLW  14
07EE2:  MOVLB  5
07EE4:  MOVWF  xD9
07EE6:  MOVLB  0
07EE8:  CALL   1482
....................          glcd_fillScreen(OFF); 
07EEC:  MOVLB  5
07EEE:  CLRF   xD8
07EF0:  MOVLB  0
07EF2:  CALL   3B52
....................          strcpy(Menus.Letra,"Valor"); 
07EF6:  MOVLW  05
07EF8:  MOVWF  FEA
07EFA:  MOVLW  BA
07EFC:  MOVWF  FE9
07EFE:  MOVFF  FF2,5D0
07F02:  BCF    FF2.7
07F04:  MOVLW  00
07F06:  CALL   1286
07F0A:  TBLRD*-
07F0C:  TBLRD*+
07F0E:  MOVF   FF5,W
07F10:  MOVWF  FEE
07F12:  IORLW  00
07F14:  BNZ   7F0C
07F16:  MOVLB  5
07F18:  BTFSC  xD0.7
07F1A:  BSF    FF2.7
....................          displayMenu(Menus.Letra,0,0,0,2); 
07F1C:  MOVLW  05
07F1E:  MOVWF  xD9
07F20:  MOVLW  BA
07F22:  MOVWF  xD8
07F24:  CLRF   xDA
07F26:  CLRF   xDB
07F28:  CLRF   xDC
07F2A:  MOVLW  02
07F2C:  MOVWF  xDD
07F2E:  MOVLB  0
07F30:  CALL   3A86
....................          strcpy(Menus.Letra,"Guardado"); 
07F34:  MOVLW  05
07F36:  MOVWF  FEA
07F38:  MOVLW  BA
07F3A:  MOVWF  FE9
07F3C:  MOVFF  FF2,5D0
07F40:  BCF    FF2.7
07F42:  MOVLW  00
07F44:  CALL   12AA
07F48:  TBLRD*-
07F4A:  TBLRD*+
07F4C:  MOVF   FF5,W
07F4E:  MOVWF  FEE
07F50:  IORLW  00
07F52:  BNZ   7F4A
07F54:  MOVLB  5
07F56:  BTFSC  xD0.7
07F58:  BSF    FF2.7
....................          displayMenu(Menus.Letra,0,30,0,2); 
07F5A:  MOVLW  05
07F5C:  MOVWF  xD9
07F5E:  MOVLW  BA
07F60:  MOVWF  xD8
07F62:  CLRF   xDA
07F64:  MOVLW  1E
07F66:  MOVWF  xDB
07F68:  CLRF   xDC
07F6A:  MOVLW  02
07F6C:  MOVWF  xDD
07F6E:  MOVLB  0
07F70:  CALL   3A86
....................          glcd_update(); 
07F74:  CALL   2B92
....................          delay_ms(1000); 
07F78:  MOVLW  04
07F7A:  MOVLB  5
07F7C:  MOVWF  xD0
07F7E:  MOVLW  FA
07F80:  MOVWF  xD9
07F82:  MOVLB  0
07F84:  CALL   1482
07F88:  MOVLB  5
07F8A:  DECFSZ xD0,F
07F8C:  BRA    7F7E
....................          glcd_fillScreen(OFF); 
07F8E:  CLRF   xD8
07F90:  MOVLB  0
07F92:  CALL   3B52
....................          Menu=32; 
07F96:  MOVLW  20
07F98:  MOVLB  4
07F9A:  MOVWF  xC6
07F9C:  MOVLB  0
....................       } 
....................     } 
.................... //_--------------------------------------------------------------------------------------------------------------------------------------------------------        
....................  
.................... //_-------------------------------------------------------------------------------------------------------------------------------------------------------- 
....................       if(Menu==120){ //Menu de Post-Purga. 
07F9E:  MOVLB  4
07FA0:  MOVF   xC6,W
07FA2:  SUBLW  78
07FA4:  BTFSS  FD8.2
07FA6:  BRA    813C
....................        
....................       // Para que inicie el tiempo de Post-Purga se debe oprimir el boton de encendido en el Microcontrolador esclavo. 
....................       strcpy(Menus.Letra,"Tiempo"); 
07FA8:  MOVLW  05
07FAA:  MOVWF  FEA
07FAC:  MOVLW  BA
07FAE:  MOVWF  FE9
07FB0:  MOVFF  FF2,5D0
07FB4:  BCF    FF2.7
07FB6:  MOVLW  00
07FB8:  MOVLB  0
07FBA:  CALL   12D2
07FBE:  TBLRD*-
07FC0:  TBLRD*+
07FC2:  MOVF   FF5,W
07FC4:  MOVWF  FEE
07FC6:  IORLW  00
07FC8:  BNZ   7FC0
07FCA:  MOVLB  5
07FCC:  BTFSC  xD0.7
07FCE:  BSF    FF2.7
....................       displayMenu(Menus.Letra,30,0,1,2); 
07FD0:  MOVLW  05
07FD2:  MOVWF  xD9
07FD4:  MOVLW  BA
07FD6:  MOVWF  xD8
07FD8:  MOVLW  1E
07FDA:  MOVWF  xDA
07FDC:  CLRF   xDB
07FDE:  MOVLW  01
07FE0:  MOVWF  xDC
07FE2:  MOVLW  02
07FE4:  MOVWF  xDD
07FE6:  MOVLB  0
07FE8:  CALL   3A86
....................       strcpy(Menus.Letra,"Post-Purga"); 
07FEC:  MOVLW  05
07FEE:  MOVWF  FEA
07FF0:  MOVLW  BA
07FF2:  MOVWF  FE9
07FF4:  MOVFF  FF2,5D0
07FF8:  BCF    FF2.7
07FFA:  MOVLW  00
07FFC:  CALL   12F8
08000:  TBLRD*-
08002:  TBLRD*+
08004:  MOVF   FF5,W
08006:  MOVWF  FEE
08008:  IORLW  00
0800A:  BNZ   8002
0800C:  MOVLB  5
0800E:  BTFSC  xD0.7
08010:  BSF    FF2.7
....................       displayMenu(Menus.Letra,10,17,1,2); 
08012:  MOVLW  05
08014:  MOVWF  xD9
08016:  MOVLW  BA
08018:  MOVWF  xD8
0801A:  MOVLW  0A
0801C:  MOVWF  xDA
0801E:  MOVLW  11
08020:  MOVWF  xDB
08022:  MOVLW  01
08024:  MOVWF  xDC
08026:  MOVLW  02
08028:  MOVWF  xDD
0802A:  MOVLB  0
0802C:  CALL   3A86
....................        
....................       tiempo_postpurga=1; 
08030:  MOVLB  4
08032:  BSF    x1B.6
....................       LuzBlanca_off;  
08034:  BSF    F8B.4
08036:  BCF    F94.4
....................       LuzUV_off; 
08038:  BSF    F8B.5
0803A:  BCF    F94.5
....................       Toma_off; 
0803C:  BCF    F8B.7
0803E:  BCF    F94.7
....................       Alarma_off; 
08040:  BCF    F8B.3
08042:  BCF    F94.3
....................       VelocidadMotor(VelMotor); 
08044:  MOVFF  4D8,5D0
08048:  MOVLB  0
0804A:  CALL   146E
....................       flag_blower=5; 
0804E:  MOVLW  05
08050:  MOVLB  4
08052:  MOVWF  xD9
....................        
....................        displayTiempo(Tppurga[3],20,40,0,2);displayTiempo(Tppurga[2],40,40,0,2);glcd_text57(60, 42, Dos_puntos, 2, ON); 
08054:  MOVFF  4F9,5D0
08058:  MOVLW  14
0805A:  MOVLB  5
0805C:  MOVWF  xD1
0805E:  MOVLW  28
08060:  MOVWF  xD2
08062:  CLRF   xD3
08064:  MOVLW  02
08066:  MOVWF  xD4
08068:  MOVLB  0
0806A:  CALL   426E
0806E:  MOVFF  4F8,5D0
08072:  MOVLW  28
08074:  MOVLB  5
08076:  MOVWF  xD1
08078:  MOVWF  xD2
0807A:  CLRF   xD3
0807C:  MOVLW  02
0807E:  MOVWF  xD4
08080:  MOVLB  0
08082:  CALL   426E
08086:  MOVLW  3C
08088:  MOVLB  5
0808A:  MOVWF  xE9
0808C:  MOVLW  2A
0808E:  MOVWF  xEA
08090:  MOVLW  04
08092:  MOVWF  xEC
08094:  MOVLW  43
08096:  MOVWF  xEB
08098:  MOVLW  02
0809A:  MOVWF  xED
0809C:  MOVLW  01
0809E:  MOVWF  xEE
080A0:  MOVLB  0
080A2:  CALL   3816
....................        displayTiempo(Tppurga[1],70,40,0,2);displayTiempo(Tppurga[0],90,40,0,2);  
080A6:  MOVFF  4F7,5D0
080AA:  MOVLW  46
080AC:  MOVLB  5
080AE:  MOVWF  xD1
080B0:  MOVLW  28
080B2:  MOVWF  xD2
080B4:  CLRF   xD3
080B6:  MOVLW  02
080B8:  MOVWF  xD4
080BA:  MOVLB  0
080BC:  CALL   426E
080C0:  MOVFF  4F6,5D0
080C4:  MOVLW  5A
080C6:  MOVLB  5
080C8:  MOVWF  xD1
080CA:  MOVLW  28
080CC:  MOVWF  xD2
080CE:  CLRF   xD3
080D0:  MOVLW  02
080D2:  MOVWF  xD4
080D4:  MOVLB  0
080D6:  CALL   426E
....................        
....................       if(RIGHT) 
080DA:  BSF    F96.1
080DC:  BTFSC  F84.1
080DE:  BRA    8112
....................       { 
....................          delay_ms(1000); 
080E0:  MOVLW  04
080E2:  MOVLB  5
080E4:  MOVWF  xD0
080E6:  MOVLW  FA
080E8:  MOVWF  xD9
080EA:  MOVLB  0
080EC:  CALL   1482
080F0:  MOVLB  5
080F2:  DECFSZ xD0,F
080F4:  BRA    80E6
....................          if(RIGHT ) 
080F6:  BSF    F96.1
080F8:  BTFSC  F84.1
080FA:  BRA    8112
....................          { 
....................             delay_ms(1500); 
080FC:  MOVLW  06
080FE:  MOVWF  xD0
08100:  MOVLW  FA
08102:  MOVWF  xD9
08104:  MOVLB  0
08106:  CALL   1482
0810A:  MOVLB  5
0810C:  DECFSZ xD0,F
0810E:  BRA    8100
....................             reset_cpu(); 
08110:  RESET
....................          } 
....................       } 
....................        
....................       if((Tppurga[0]==Tppurgap[0])&&(Tppurga[1]==Tppurgap[1])&&(Tppurga[2]==Tppurgap[2])&&(Tppurga[3]==Tppurgap[3])) 
08112:  MOVLB  4
08114:  MOVF   xFA,W
08116:  SUBWF  xF6,W
08118:  BNZ   813C
0811A:  MOVF   xFB,W
0811C:  SUBWF  xF7,W
0811E:  BNZ   813C
08120:  MOVF   xFC,W
08122:  SUBWF  xF8,W
08124:  BNZ   813C
08126:  MOVF   xFD,W
08128:  SUBWF  xF9,W
0812A:  BNZ   813C
....................       {tiempo_postpurga=0;glcd_fillScreen(OFF);reset_cpu();} 
0812C:  BCF    x1B.6
0812E:  MOVLB  5
08130:  CLRF   xD8
08132:  MOVLB  0
08134:  CALL   3B52
08138:  RESET
0813A:  MOVLB  4
....................       
....................     } 
.................... //_--------------------------------------------------------------------------------------------------------------------------------------------------------        
....................  
.................... //_-------------------------------------------------------------------------------------------------------------------------------------------------------- 
....................       if(Menu==200){ //Menu de Inicio.             
0813C:  MOVF   xC6,W
0813E:  SUBLW  C8
08140:  BTFSS  FD8.2
08142:  BRA    8294
....................             Display_on; 
08144:  BSF    F8A.1
08146:  BCF    F93.1
....................             glcd_init(ON);             //Inicializa la glcd 
08148:  MOVLW  01
0814A:  MOVLB  5
0814C:  MOVWF  xD0
0814E:  MOVLB  0
08150:  CALL   492C
....................             glcd_fillScreen(OFF);      //Limpia la pantalla 
08154:  MOVLB  5
08156:  CLRF   xD8
08158:  MOVLB  0
0815A:  CALL   3B52
....................             glcd_text57(0, 0, JP, 2, ON);glcd_text57(5, 20, Cabina, 1, ON);glcd_text57(10, 40, Clase, 2, ON);              
0815E:  MOVLB  5
08160:  CLRF   xE9
08162:  CLRF   xEA
08164:  MOVLW  04
08166:  MOVWF  xEC
08168:  MOVLW  1E
0816A:  MOVWF  xEB
0816C:  MOVLW  02
0816E:  MOVWF  xED
08170:  MOVLW  01
08172:  MOVWF  xEE
08174:  MOVLB  0
08176:  CALL   3816
0817A:  MOVLW  05
0817C:  MOVLB  5
0817E:  MOVWF  xE9
08180:  MOVLW  14
08182:  MOVWF  xEA
08184:  MOVLW  04
08186:  MOVWF  xEC
08188:  MOVLW  2A
0818A:  MOVWF  xEB
0818C:  MOVLW  01
0818E:  MOVWF  xED
08190:  MOVWF  xEE
08192:  MOVLB  0
08194:  CALL   3816
08198:  MOVLW  0A
0819A:  MOVLB  5
0819C:  MOVWF  xE9
0819E:  MOVLW  28
081A0:  MOVWF  xEA
081A2:  MOVLW  04
081A4:  MOVWF  xEC
081A6:  MOVLW  45
081A8:  MOVWF  xEB
081AA:  MOVLW  02
081AC:  MOVWF  xED
081AE:  MOVLW  01
081B0:  MOVWF  xEE
081B2:  MOVLB  0
081B4:  CALL   3816
....................             glcd_update();    
081B8:  CALL   2B92
....................             delay_ms(3000); 
081BC:  MOVLW  0C
081BE:  MOVLB  5
081C0:  MOVWF  xD0
081C2:  MOVLW  FA
081C4:  MOVWF  xD9
081C6:  MOVLB  0
081C8:  CALL   1482
081CC:  MOVLB  5
081CE:  DECFSZ xD0,F
081D0:  BRA    81C2
....................                         
....................             glcd_fillScreen(OFF);      //Limpia la pantalla 
081D2:  CLRF   xD8
081D4:  MOVLB  0
081D6:  CALL   3B52
....................             displayContrasena(Contrasena[0],20,30,1);displayContrasena(Contrasena[1],40,30,0); 
081DA:  MOVFF  50E,5DA
081DE:  MOVLW  14
081E0:  MOVLB  5
081E2:  MOVWF  xDB
081E4:  MOVLW  1E
081E6:  MOVWF  xDC
081E8:  MOVLW  01
081EA:  MOVWF  xDD
081EC:  MOVLB  0
081EE:  CALL   39D0
081F2:  MOVFF  50F,5DA
081F6:  MOVLW  28
081F8:  MOVLB  5
081FA:  MOVWF  xDB
081FC:  MOVLW  1E
081FE:  MOVWF  xDC
08200:  CLRF   xDD
08202:  MOVLB  0
08204:  CALL   39D0
....................             displayContrasena(Contrasena[2],60,30,0);displayContrasena(Contrasena[0],80,30,0); 
08208:  MOVFF  510,5DA
0820C:  MOVLW  3C
0820E:  MOVLB  5
08210:  MOVWF  xDB
08212:  MOVLW  1E
08214:  MOVWF  xDC
08216:  CLRF   xDD
08218:  MOVLB  0
0821A:  CALL   39D0
0821E:  MOVFF  50E,5DA
08222:  MOVLW  50
08224:  MOVLB  5
08226:  MOVWF  xDB
08228:  MOVLW  1E
0822A:  MOVWF  xDC
0822C:  CLRF   xDD
0822E:  MOVLB  0
08230:  CALL   39D0
....................             glcd_rect(0, 0, 127, 25, YES, ON);strcpy(Menus.Letra,"Clave");glcd_text57(25, 1, Menus.Letra, 3, OFF);    
08234:  MOVLB  5
08236:  CLRF   xE9
08238:  CLRF   xEA
0823A:  MOVLW  7F
0823C:  MOVWF  xEB
0823E:  MOVLW  19
08240:  MOVWF  xEC
08242:  MOVLW  01
08244:  MOVWF  xED
08246:  MOVWF  xEE
08248:  MOVLB  0
0824A:  CALL   3754
0824E:  MOVLW  05
08250:  MOVWF  FEA
08252:  MOVLW  BA
08254:  MOVWF  FE9
08256:  MOVFF  FF2,5D0
0825A:  BCF    FF2.7
0825C:  MOVLW  00
0825E:  CALL   0F0A
08262:  TBLRD*-
08264:  TBLRD*+
08266:  MOVF   FF5,W
08268:  MOVWF  FEE
0826A:  IORLW  00
0826C:  BNZ   8264
0826E:  MOVLB  5
08270:  BTFSC  xD0.7
08272:  BSF    FF2.7
08274:  MOVLW  19
08276:  MOVWF  xE9
08278:  MOVLW  01
0827A:  MOVWF  xEA
0827C:  MOVLW  05
0827E:  MOVWF  xEC
08280:  MOVLW  BA
08282:  MOVWF  xEB
08284:  MOVLW  03
08286:  MOVWF  xED
08288:  CLRF   xEE
0828A:  MOVLB  0
0828C:  CALL   3816
....................             Menu=0; 
08290:  MOVLB  4
08292:  CLRF   xC6
....................     } 
.................... //_--------------------------------------------------------------------------------------------------------------------------------------------------------        
....................  
....................    if(tiemporeset>=60 && Menu!=0 && Menu!=5 && Menu!=211) 
08294:  MOVF   xCD,W
08296:  SUBLW  3B
08298:  BC    82BA
0829A:  MOVF   xC6,F
0829C:  BZ    82BA
0829E:  MOVF   xC6,W
082A0:  SUBLW  05
082A2:  BZ    82BA
082A4:  MOVF   xC6,W
082A6:  SUBLW  D3
082A8:  BZ    82BA
....................    { 
....................       glcd_init(ON); 
082AA:  MOVLW  01
082AC:  MOVLB  5
082AE:  MOVWF  xD0
082B0:  MOVLB  0
082B2:  CALL   492C
....................       tiemporeset=0; 
082B6:  MOVLB  4
082B8:  CLRF   xCD
....................    }  
.................... } 
082BA:  MOVLB  0
082BC:  GOTO   4F4E
....................  
.................... } 
....................    
082C0:  SLEEP 

Configuration Fuses:
   Word  1: 0200   HS NOIESO NOFCMEN
   Word  2: 1E1F   BROWNOUT NOWDT BORV20 NOPUT WDT32768
   Word  3: 8000   NOPBADEN NOLPT1OSC MCLR
   Word  4: 00B0   NOSTVREN NODEBUG NOLVP NOXINST BBSIZ4K
   Word  5: C03F   NOPROTECT NOCPD NOCPB
   Word  6: E03F   NOWRT NOWRTD NOWRTC NOWRTB
   Word  7: 403F   NOEBTR NOEBTRB
