CCS PCH C Compiler, Version 4.104, 5967               26-feb.-20 17:42

               Filename: D:\Laboratorio\Cabina Extractora de Gases y  Humos\2020\Cabina Extractora Sin Ductos GLCD 120-ORG DYM #004588098 OP2019212\Firmware\Maestro_v2.lst

               ROM used: 40484 bytes (41%)
                         Largest free fragment is 32768
               RAM used: 1491 (45%) at main() level
                         1558 (47%) worst case
               Stack:    8 worst case (6 in main + 2 for interrupts)

*
00000:  GOTO   5AE8
*
00008:  MOVWF  04
0000A:  MOVFF  FD8,05
0000E:  MOVFF  FE0,06
00012:  MOVLB  0
00014:  MOVFF  FE9,0C
00018:  MOVFF  FEA,07
0001C:  MOVFF  FE1,08
00020:  MOVFF  FE2,09
00024:  MOVFF  FD9,0A
00028:  MOVFF  FDA,0B
0002C:  MOVFF  FF3,12
00030:  MOVFF  FF4,13
00034:  MOVFF  FFA,14
00038:  MOVFF  FFB,15
0003C:  MOVFF  00,0E
00040:  MOVFF  01,0F
00044:  MOVFF  02,10
00048:  MOVFF  03,11
0004C:  BTFSS  FF2.4
0004E:  GOTO   0058
00052:  BTFSC  FF2.1
00054:  GOTO   145E
00058:  MOVFF  0E,00
0005C:  MOVFF  0F,01
00060:  MOVFF  10,02
00064:  MOVFF  11,03
00068:  MOVFF  0C,FE9
0006C:  MOVFF  07,FEA
00070:  BSF    07.7
00072:  MOVFF  08,FE1
00076:  MOVFF  09,FE2
0007A:  MOVFF  0A,FD9
0007E:  MOVFF  0B,FDA
00082:  MOVFF  12,FF3
00086:  MOVFF  13,FF4
0008A:  MOVFF  14,FFA
0008E:  MOVFF  15,FFB
00092:  MOVF   04,W
00094:  MOVFF  06,FE0
00098:  MOVFF  05,FD8
0009C:  RETFIE 0
.................... //Programa para Cabina de Bioseguridad 
....................  
.................... #include <18F4685.h> 
.................... //////// Standard Header file for the PIC18F4685 device //////////////// 
.................... #device PIC18F4685 
.................... #list 
....................  
.................... #device adc=10 
.................... #fuses HS,NOWDT,NOPROTECT,NOLVP,NODEBUG,NOSTVREN,NOPUT,NOCPD,NOWRT,NOIESO,NOFCMEN,NOPBADEN,NOWRTC,NOWRTB,NOEBTR,NOEBTRB,NOCPB,NOXINST,NOLPT1OSC,NOMCLR 
.................... #use delay(clock=20000000) 
*
0143E:  MOVLW  03
01440:  MOVLB  6
01442:  SUBWF  x15,F
01444:  BNC   145A
01446:  MOVLW  06
01448:  MOVWF  FEA
0144A:  MOVLW  15
0144C:  MOVWF  FE9
0144E:  MOVF   FEF,W
01450:  BZ    145A
01452:  BRA    1456
01454:  BRA    1456
01456:  DECFSZ FEF,F
01458:  BRA    1454
0145A:  MOVLB  0
0145C:  RETLW  00
*
0155C:  MOVLW  05
0155E:  MOVWF  FEA
01560:  MOVLW  E3
01562:  MOVWF  FE9
01564:  MOVF   FEF,W
01566:  BZ    1582
01568:  MOVLW  06
0156A:  MOVWF  01
0156C:  CLRF   00
0156E:  DECFSZ 00,F
01570:  BRA    156E
01572:  DECFSZ 01,F
01574:  BRA    156C
01576:  MOVLW  7B
01578:  MOVWF  00
0157A:  DECFSZ 00,F
0157C:  BRA    157A
0157E:  DECFSZ FEF,F
01580:  BRA    1568
01582:  RETLW  00
.................... #include <MATH.h> 
.................... //////////////////////////////////////////////////////////////////////////// 
.................... ////        (C) Copyright 1996,2008 Custom Computer Services            //// 
.................... //// This source code may only be used by licensed users of the CCS C   //// 
.................... //// compiler.  This source code may only be distributed to other       //// 
.................... //// licensed users of the CCS C compiler.  No other use, reproduction  //// 
.................... //// or distribution is permitted without written permission.           //// 
.................... //// Derivative programs created using this software in object code     //// 
.................... //// form are not restricted in any way.                                //// 
.................... //////////////////////////////////////////////////////////////////////////// 
.................... ////                                                                    //// 
.................... //// History:                                                           //// 
.................... ////  * 9/20/2001 :  Improvments are made to sin/cos code.              //// 
.................... ////                 The code now is small, much faster,                //// 
.................... ////                 and more accurate.                                 //// 
.................... ////  * 2/21/2007 :  Compiler handles & operator differently and does 
.................... ////                 not return generic (int8 *) so type cast is done   //// 
.................... ////                                                                    //// 
.................... //////////////////////////////////////////////////////////////////////////// 
....................  
.................... #ifndef MATH_H 
.................... #define MATH_H 
....................  
.................... #ifdef PI 
.................... #undef  PI 
.................... #endif 
.................... #define PI     3.1415926535897932 
....................  
....................  
.................... #define SQRT2  1.4142135623730950 
....................  
.................... //float const ps[4] = {5.9304945, 21.125224, 8.9403076, 0.29730279}; 
.................... //float const qs[4] = {1.0000000, 15.035723, 17.764134, 2.4934718}; 
....................  
.................... ///////////////////////////// Round Functions ////////////////////////////// 
....................  
.................... float32 CEIL_FLOOR(float32 x, unsigned int8 n) 
.................... { 
....................    float32 y, res; 
....................    unsigned int16 l; 
....................    int1 s; 
....................  
....................    s = 0; 
*
02F0A:  MOVLB  5
02F0C:  BCF    xFF.0
....................    y = x; 
02F0E:  MOVFF  5F3,5F8
02F12:  MOVFF  5F2,5F7
02F16:  MOVFF  5F1,5F6
02F1A:  MOVFF  5F0,5F5
....................  
....................    if (x < 0) 
02F1E:  MOVFF  5F3,603
02F22:  MOVFF  5F2,602
02F26:  MOVFF  5F1,601
02F2A:  MOVFF  5F0,600
02F2E:  MOVLB  6
02F30:  CLRF   x07
02F32:  CLRF   x06
02F34:  CLRF   x05
02F36:  CLRF   x04
02F38:  MOVLB  0
02F3A:  CALL   2390
02F3E:  BNC   2F4A
....................    { 
....................       s = 1; 
02F40:  MOVLB  5
02F42:  BSF    xFF.0
....................       y = -y; 
02F44:  MOVF   xF6,W
02F46:  XORLW  80
02F48:  MOVWF  xF6
....................    } 
....................  
....................    if (y <= 32768.0) 
02F4A:  MOVFF  5F8,603
02F4E:  MOVFF  5F7,602
02F52:  MOVFF  5F6,601
02F56:  MOVFF  5F5,600
02F5A:  MOVLB  6
02F5C:  CLRF   x07
02F5E:  CLRF   x06
02F60:  CLRF   x05
02F62:  MOVLW  8E
02F64:  MOVWF  x04
02F66:  MOVLB  0
02F68:  CALL   2390
02F6C:  BC    2F70
02F6E:  BNZ   2FA0
....................   res = (float32)(unsigned int16)y; 
02F70:  MOVFF  5F8,603
02F74:  MOVFF  5F7,602
02F78:  MOVFF  5F6,601
02F7C:  MOVFF  5F5,600
02F80:  RCALL  2DD8
02F82:  MOVFF  02,605
02F86:  MOVFF  01,604
02F8A:  CALL   17F6
02F8E:  MOVFF  03,5FC
02F92:  MOVFF  02,5FB
02F96:  MOVFF  01,5FA
02F9A:  MOVFF  00,5F9
....................  
....................  else if (y < 10000000.0) 
02F9E:  BRA    313E
02FA0:  MOVFF  5F8,603
02FA4:  MOVFF  5F7,602
02FA8:  MOVFF  5F6,601
02FAC:  MOVFF  5F5,600
02FB0:  MOVLW  80
02FB2:  MOVLB  6
02FB4:  MOVWF  x07
02FB6:  MOVLW  96
02FB8:  MOVWF  x06
02FBA:  MOVLW  18
02FBC:  MOVWF  x05
02FBE:  MOVLW  96
02FC0:  MOVWF  x04
02FC2:  MOVLB  0
02FC4:  CALL   2390
02FC8:  BTFSS  FD8.0
02FCA:  BRA    312E
....................    { 
....................   l = (unsigned int16)(y/32768.0); 
02FCC:  MOVFF  5F8,603
02FD0:  MOVFF  5F7,602
02FD4:  MOVFF  5F6,601
02FD8:  MOVFF  5F5,600
02FDC:  MOVLB  6
02FDE:  CLRF   x07
02FE0:  CLRF   x06
02FE2:  CLRF   x05
02FE4:  MOVLW  8E
02FE6:  MOVWF  x04
02FE8:  MOVLB  0
02FEA:  CALL   182C
02FEE:  MOVFF  03,603
02FF2:  MOVFF  02,602
02FF6:  MOVFF  01,601
02FFA:  MOVFF  00,600
02FFE:  RCALL  2DD8
03000:  MOVFF  02,5FE
03004:  MOVFF  01,5FD
....................       y = 32768.0*(y/32768.0 - (float32)l); 
03008:  MOVFF  5F8,603
0300C:  MOVFF  5F7,602
03010:  MOVFF  5F6,601
03014:  MOVFF  5F5,600
03018:  MOVLB  6
0301A:  CLRF   x07
0301C:  CLRF   x06
0301E:  CLRF   x05
03020:  MOVLW  8E
03022:  MOVWF  x04
03024:  MOVLB  0
03026:  CALL   182C
0302A:  MOVFF  00,600
0302E:  MOVFF  01,601
03032:  MOVFF  02,602
03036:  MOVFF  03,603
0303A:  MOVFF  5FE,605
0303E:  MOVFF  5FD,604
03042:  CALL   17F6
03046:  BSF    FD8.1
03048:  MOVFF  603,607
0304C:  MOVFF  602,606
03050:  MOVFF  601,605
03054:  MOVFF  600,604
03058:  MOVFF  03,60B
0305C:  MOVFF  02,60A
03060:  MOVFF  01,609
03064:  MOVFF  00,608
03068:  CALL   198A
0306C:  MOVLB  6
0306E:  CLRF   x03
03070:  CLRF   x02
03072:  CLRF   x01
03074:  MOVLW  8E
03076:  MOVWF  x00
03078:  MOVFF  03,607
0307C:  MOVFF  02,606
03080:  MOVFF  01,605
03084:  MOVFF  00,604
03088:  MOVLB  0
0308A:  RCALL  2E14
0308C:  MOVFF  03,5F8
03090:  MOVFF  02,5F7
03094:  MOVFF  01,5F6
03098:  MOVFF  00,5F5
....................   res = 32768.0*(float32)l; 
0309C:  MOVFF  5FE,605
030A0:  MOVFF  5FD,604
030A4:  CALL   17F6
030A8:  MOVLB  6
030AA:  CLRF   x03
030AC:  CLRF   x02
030AE:  CLRF   x01
030B0:  MOVLW  8E
030B2:  MOVWF  x00
030B4:  MOVFF  03,607
030B8:  MOVFF  02,606
030BC:  MOVFF  01,605
030C0:  MOVFF  00,604
030C4:  MOVLB  0
030C6:  RCALL  2E14
030C8:  MOVFF  03,5FC
030CC:  MOVFF  02,5FB
030D0:  MOVFF  01,5FA
030D4:  MOVFF  00,5F9
....................   res += (float32)(unsigned int16)y; 
030D8:  MOVFF  5F8,603
030DC:  MOVFF  5F7,602
030E0:  MOVFF  5F6,601
030E4:  MOVFF  5F5,600
030E8:  RCALL  2DD8
030EA:  MOVFF  02,605
030EE:  MOVFF  01,604
030F2:  CALL   17F6
030F6:  BCF    FD8.1
030F8:  MOVFF  5FC,607
030FC:  MOVFF  5FB,606
03100:  MOVFF  5FA,605
03104:  MOVFF  5F9,604
03108:  MOVFF  03,60B
0310C:  MOVFF  02,60A
03110:  MOVFF  01,609
03114:  MOVFF  00,608
03118:  CALL   198A
0311C:  MOVFF  03,5FC
03120:  MOVFF  02,5FB
03124:  MOVFF  01,5FA
03128:  MOVFF  00,5F9
....................  } 
....................  
....................  else 
0312C:  BRA    313E
....................   res = y; 
0312E:  MOVFF  5F8,5FC
03132:  MOVFF  5F7,5FB
03136:  MOVFF  5F6,5FA
0313A:  MOVFF  5F5,5F9
....................  
....................  y = y - (float32)(unsigned int16)y; 
0313E:  MOVFF  5F8,603
03142:  MOVFF  5F7,602
03146:  MOVFF  5F6,601
0314A:  MOVFF  5F5,600
0314E:  RCALL  2DD8
03150:  MOVFF  02,605
03154:  MOVFF  01,604
03158:  CALL   17F6
0315C:  BSF    FD8.1
0315E:  MOVFF  5F8,607
03162:  MOVFF  5F7,606
03166:  MOVFF  5F6,605
0316A:  MOVFF  5F5,604
0316E:  MOVFF  03,60B
03172:  MOVFF  02,60A
03176:  MOVFF  01,609
0317A:  MOVFF  00,608
0317E:  CALL   198A
03182:  MOVFF  03,5F8
03186:  MOVFF  02,5F7
0318A:  MOVFF  01,5F6
0318E:  MOVFF  00,5F5
....................  
....................  if (s) 
03192:  MOVLB  5
03194:  BTFSS  xFF.0
03196:  BRA    319E
....................   res = -res; 
03198:  MOVF   xFA,W
0319A:  XORLW  80
0319C:  MOVWF  xFA
....................  
....................  if (y != 0) 
0319E:  MOVFF  5F8,603
031A2:  MOVFF  5F7,602
031A6:  MOVFF  5F6,601
031AA:  MOVFF  5F5,600
031AE:  MOVLB  6
031B0:  CLRF   x07
031B2:  CLRF   x06
031B4:  CLRF   x05
031B6:  CLRF   x04
031B8:  MOVLB  0
031BA:  CALL   2390
031BE:  BZ    323C
....................  { 
....................   if (s == 1 && n == 0) 
031C0:  MOVLB  5
031C2:  BTFSS  xFF.0
031C4:  BRA    3200
031C6:  MOVF   xF4,F
031C8:  BNZ   3200
....................    res -= 1.0; 
031CA:  BSF    FD8.1
031CC:  MOVFF  5FC,607
031D0:  MOVFF  5FB,606
031D4:  MOVFF  5FA,605
031D8:  MOVFF  5F9,604
031DC:  MOVLB  6
031DE:  CLRF   x0B
031E0:  CLRF   x0A
031E2:  CLRF   x09
031E4:  MOVLW  7F
031E6:  MOVWF  x08
031E8:  MOVLB  0
031EA:  CALL   198A
031EE:  MOVFF  03,5FC
031F2:  MOVFF  02,5FB
031F6:  MOVFF  01,5FA
031FA:  MOVFF  00,5F9
031FE:  MOVLB  5
....................  
....................   if (s == 0 && n == 1) 
03200:  BTFSC  xFF.0
03202:  BRA    323E
03204:  DECFSZ xF4,W
03206:  BRA    323E
....................    res += 1.0; 
03208:  BCF    FD8.1
0320A:  MOVFF  5FC,607
0320E:  MOVFF  5FB,606
03212:  MOVFF  5FA,605
03216:  MOVFF  5F9,604
0321A:  MOVLB  6
0321C:  CLRF   x0B
0321E:  CLRF   x0A
03220:  CLRF   x09
03222:  MOVLW  7F
03224:  MOVWF  x08
03226:  MOVLB  0
03228:  CALL   198A
0322C:  MOVFF  03,5FC
03230:  MOVFF  02,5FB
03234:  MOVFF  01,5FA
03238:  MOVFF  00,5F9
0323C:  MOVLB  5
....................  } 
....................  if (x == 0) 
0323E:  MOVFF  5F3,603
03242:  MOVFF  5F2,602
03246:  MOVFF  5F1,601
0324A:  MOVFF  5F0,600
0324E:  MOVLB  6
03250:  CLRF   x07
03252:  CLRF   x06
03254:  CLRF   x05
03256:  CLRF   x04
03258:  MOVLB  0
0325A:  CALL   2390
0325E:  BNZ   326C
....................     res = 0; 
03260:  MOVLB  5
03262:  CLRF   xFC
03264:  CLRF   xFB
03266:  CLRF   xFA
03268:  CLRF   xF9
0326A:  MOVLB  0
....................  
....................  return (res); 
0326C:  MOVFF  5F9,00
03270:  MOVFF  5FA,01
03274:  MOVFF  5FB,02
03278:  MOVFF  5FC,03
.................... } 
0327C:  RETLW  00
....................  
.................... // Overloaded Functions to take care for new Data types in PCD 
.................... // Overloaded function CEIL_FLOOR() for data type - Float48 
.................... #if defined(__PCD__) 
.................... float48 CEIL_FLOOR(float48 x, unsigned int8 n) 
.................... { 
....................    float48 y, res; 
....................    unsigned int16 l; 
....................    int1 s; 
....................  
....................    s = 0; 
....................    y = x; 
....................  
....................    if (x < 0) 
....................    { 
....................       s = 1; 
....................       y = -y; 
....................    } 
....................  
....................    if (y <= 32768.0) 
....................   res = (float48)(unsigned int16)y; 
....................  
....................  else if (y < 10000000.0) 
....................    { 
....................   l = (unsigned int16)(y/32768.0); 
....................       y = 32768.0*(y/32768.0 - (float48)l); 
....................   res = 32768.0*(float32)l; 
....................   res += (float48)(unsigned int16)y; 
....................  } 
....................  
....................  else 
....................   res = y; 
....................  
....................  y = y - (float48)(unsigned int16)y; 
....................  
....................  if (s) 
....................   res = -res; 
....................  
....................  if (y != 0) 
....................  { 
....................   if (s == 1 && n == 0) 
....................    res -= 1.0; 
....................  
....................   if (s == 0 && n == 1) 
....................    res += 1.0; 
....................  } 
....................  if (x == 0) 
....................     res = 0; 
....................  
....................  return (res); 
.................... } 
....................  
....................  
.................... // Overloaded function CEIL_FLOOR() for data type - Float64 
.................... float64 CEIL_FLOOR(float64 x, unsigned int8 n) 
.................... { 
....................    float64 y, res; 
....................    unsigned int16 l; 
....................    int1 s; 
....................  
....................    s = 0; 
....................    y = x; 
....................  
....................    if (x < 0) 
....................    { 
....................       s = 1; 
....................       y = -y; 
....................    } 
....................  
....................    if (y <= 32768.0) 
....................   res = (float64)(unsigned int16)y; 
....................  
....................  else if (y < 10000000.0) 
....................    { 
....................   l = (unsigned int16)(y/32768.0); 
....................       y = 32768.0*(y/32768.0 - (float64)l); 
....................   res = 32768.0*(float64)l; 
....................   res += (float64)(unsigned int16)y; 
....................  } 
....................  
....................  else 
....................   res = y; 
....................  
....................  y = y - (float64)(unsigned int16)y; 
....................  
....................  if (s) 
....................   res = -res; 
....................  
....................  if (y != 0) 
....................  { 
....................   if (s == 1 && n == 0) 
....................    res -= 1.0; 
....................  
....................   if (s == 0 && n == 1) 
....................    res += 1.0; 
....................  } 
....................  if (x == 0) 
....................     res = 0; 
....................  
....................  return (res); 
.................... } 
.................... #endif 
....................  
.................... //////////////////////////////////////////////////////////////////////////// 
.................... //   float floor(float x) 
.................... //////////////////////////////////////////////////////////////////////////// 
.................... // Description : rounds down the number x. 
.................... // Date : N/A 
.................... // 
.................... float32 floor(float32 x) 
.................... { 
....................    return CEIL_FLOOR(x, 0); 
*
0329C:  MOVFF  5EF,5F3
032A0:  MOVFF  5EE,5F2
032A4:  MOVFF  5ED,5F1
032A8:  MOVFF  5EC,5F0
032AC:  MOVLB  5
032AE:  CLRF   xF4
032B0:  MOVLB  0
032B2:  RCALL  2F0A
.................... } 
032B4:  GOTO   33C0 (RETURN)
.................... // Following 2 functions are overloaded functions of floor() for PCD 
.................... // Overloaded function floor() for data type - Float48 
.................... #if defined(__PCD__) 
.................... float48 floor(float48 x) 
.................... { 
....................    return CEIL_FLOOR(x, 0); 
.................... } 
....................  
.................... // Overloaded function floor() for data type - Float64 
.................... float64 floor(float64 x) 
.................... { 
....................    return CEIL_FLOOR(x, 0); 
.................... } 
.................... #endif 
....................  
....................  
.................... //////////////////////////////////////////////////////////////////////////// 
.................... //   float ceil(float x) 
.................... //////////////////////////////////////////////////////////////////////////// 
.................... // Description : rounds up the number x. 
.................... // Date : N/A 
.................... // 
.................... float32 ceil(float32 x) 
.................... { 
....................    return CEIL_FLOOR(x, 1); 
*
0327E:  MOVFF  5EF,5F3
03282:  MOVFF  5EE,5F2
03286:  MOVFF  5ED,5F1
0328A:  MOVFF  5EC,5F0
0328E:  MOVLW  01
03290:  MOVLB  5
03292:  MOVWF  xF4
03294:  MOVLB  0
03296:  RCALL  2F0A
.................... } 
03298:  GOTO   3378 (RETURN)
.................... // Following 2 functions are overloaded functions of ceil() for PCD 
.................... // Overloaded function ceil() for data type - Float48 
.................... #if defined(__PCD__) 
.................... float48 ceil(float48 x) 
.................... { 
....................    return CEIL_FLOOR(x, 1); 
.................... } 
....................  
.................... // Overloaded function ceil() for data type - Float64 
.................... float64 ceil(float64 x) 
.................... { 
....................    return CEIL_FLOOR(x, 1); 
.................... } 
.................... #endif 
....................  
....................  //////////////////////////////////////////////////////////////////////////// 
.................... //   float fabs(float x) 
.................... //////////////////////////////////////////////////////////////////////////// 
.................... // Description : Computes the absolute value of floating point number x 
.................... // Returns : returns the absolute value of x 
.................... // Date : N/A 
.................... // 
.................... #define fabs abs 
....................  
.................... //////////////////////////////////////////////////////////////////////////// 
.................... //   float fmod(float x) 
.................... //////////////////////////////////////////////////////////////////////////// 
.................... // Description : Computes the floating point remainder of x/y 
.................... // Returns : returns the value of x= i*y, for some integer i such that, if y 
.................... // is non zero, the result has the same isgn of x na dmagnitude less than the 
.................... // magnitude of y. If y is zero then a domain error occurs. 
.................... // Date : N/A 
.................... // 
....................  
.................... float fmod(float32 x,float32 y) 
.................... { 
....................    float32 i; 
....................    if (y!=0.0) 
*
032B8:  MOVFF  5E3,603
032BC:  MOVFF  5E2,602
032C0:  MOVFF  5E1,601
032C4:  MOVFF  5E0,600
032C8:  MOVLB  6
032CA:  CLRF   x07
032CC:  CLRF   x06
032CE:  CLRF   x05
032D0:  CLRF   x04
032D2:  MOVLB  0
032D4:  CALL   2390
032D8:  BTFSC  FD8.2
032DA:  BRA    341C
....................    { 
....................       i=(x/y < 0.0)? ceil(x/y): floor(x/y); 
032DC:  MOVFF  5DF,603
032E0:  MOVFF  5DE,602
032E4:  MOVFF  5DD,601
032E8:  MOVFF  5DC,600
032EC:  MOVFF  5E3,607
032F0:  MOVFF  5E2,606
032F4:  MOVFF  5E1,605
032F8:  MOVFF  5E0,604
032FC:  CALL   182C
03300:  MOVFF  00,5E8
03304:  MOVFF  01,5E9
03308:  MOVFF  02,5EA
0330C:  MOVFF  03,5EB
03310:  MOVFF  03,603
03314:  MOVFF  02,602
03318:  MOVFF  01,601
0331C:  MOVFF  00,600
03320:  MOVLB  6
03322:  CLRF   x07
03324:  CLRF   x06
03326:  CLRF   x05
03328:  CLRF   x04
0332A:  MOVLB  0
0332C:  CALL   2390
03330:  BNC   337A
03332:  MOVFF  5DF,603
03336:  MOVFF  5DE,602
0333A:  MOVFF  5DD,601
0333E:  MOVFF  5DC,600
03342:  MOVFF  5E3,607
03346:  MOVFF  5E2,606
0334A:  MOVFF  5E1,605
0334E:  MOVFF  5E0,604
03352:  CALL   182C
03356:  MOVFF  00,5E8
0335A:  MOVFF  01,5E9
0335E:  MOVFF  02,5EA
03362:  MOVFF  03,5EB
03366:  MOVFF  03,5EF
0336A:  MOVFF  02,5EE
0336E:  MOVFF  01,5ED
03372:  MOVFF  00,5EC
03376:  BRA    327E
03378:  BRA    33C0
0337A:  MOVFF  5DF,603
0337E:  MOVFF  5DE,602
03382:  MOVFF  5DD,601
03386:  MOVFF  5DC,600
0338A:  MOVFF  5E3,607
0338E:  MOVFF  5E2,606
03392:  MOVFF  5E1,605
03396:  MOVFF  5E0,604
0339A:  CALL   182C
0339E:  MOVFF  00,5E8
033A2:  MOVFF  01,5E9
033A6:  MOVFF  02,5EA
033AA:  MOVFF  03,5EB
033AE:  MOVFF  03,5EF
033B2:  MOVFF  02,5EE
033B6:  MOVFF  01,5ED
033BA:  MOVFF  00,5EC
033BE:  BRA    329C
033C0:  MOVFF  03,5E7
033C4:  MOVFF  02,5E6
033C8:  MOVFF  01,5E5
033CC:  MOVFF  00,5E4
....................       return(x-(i*y)); 
033D0:  MOVFF  5E7,603
033D4:  MOVFF  5E6,602
033D8:  MOVFF  5E5,601
033DC:  MOVFF  5E4,600
033E0:  MOVFF  5E3,607
033E4:  MOVFF  5E2,606
033E8:  MOVFF  5E1,605
033EC:  MOVFF  5E0,604
033F0:  RCALL  2E14
033F2:  BSF    FD8.1
033F4:  MOVFF  5DF,607
033F8:  MOVFF  5DE,606
033FC:  MOVFF  5DD,605
03400:  MOVFF  5DC,604
03404:  MOVFF  03,60B
03408:  MOVFF  02,60A
0340C:  MOVFF  01,609
03410:  MOVFF  00,608
03414:  CALL   198A
03418:  BRA    341C
....................    } 
....................    else 
0341A:  BRA    341C
....................    { 
....................    #ifdef _ERRNO 
....................    { 
....................       errno=EDOM; 
....................    } 
....................    #endif 
....................    } 
.................... } 
0341C:  RETLW  00
.................... //Overloaded function for fmod() for PCD 
.................... // Overloaded function fmod() for data type - Float48 
.................... #if defined(__PCD__) 
.................... float48 fmod(float48 x,float48 y) 
.................... { 
....................    float48 i; 
....................    if (y!=0.0) 
....................    { 
....................       i=(x/y < 0.0)? ceil(x/y): floor(x/y); 
....................       return(x-(i*y)); 
....................    } 
....................    else 
....................    { 
....................    #ifdef _ERRNO 
....................    { 
....................       errno=EDOM; 
....................    } 
....................    #endif 
....................    } 
.................... } 
.................... // Overloaded function fmod() for data type - Float64 
.................... float64 fmod(float64 x,float64 y) 
.................... { 
....................    float64 i; 
....................    if (y!=0.0) 
....................    { 
....................       i=(x/y < 0.0)? ceil(x/y): floor(x/y); 
....................       return(x-(i*y)); 
....................    } 
....................    else 
....................    { 
....................    #ifdef _ERRNO 
....................    { 
....................       errno=EDOM; 
....................    } 
....................    #endif 
....................    } 
.................... } 
.................... #endif 
.................... //////////////////// Exponential and logarithmic functions //////////////////// 
.................... //////////////////////////////////////////////////////////////////////////// 
.................... //   float exp(float x) 
.................... //////////////////////////////////////////////////////////////////////////// 
.................... // Description : returns the value (e^x) 
.................... // Date : N/A 
.................... // 
.................... #define LN2 0.6931471805599453 
....................  
.................... float const pe[6] = {0.000207455774, 0.00127100575, 0.00965065093, 
....................                      0.0554965651,  0.240227138,  0.693147172}; 
....................  
....................  
.................... float32 exp(float32 x) 
.................... { 
....................    float32 y, res, r; 
....................    #if defined(__PCD__) 
....................    int8 data1; 
....................    #endif 
....................    signed int8 n; 
....................    int1 s; 
....................    #ifdef _ERRNO 
....................    if(x > 88.722838) 
....................    { 
....................       errno=ERANGE; 
....................       return(0); 
....................    } 
....................    #endif 
....................    n = (signed int16)(x/LN2); 
*
0394A:  MOVFF  5E3,603
0394E:  MOVFF  5E2,602
03952:  MOVFF  5E1,601
03956:  MOVFF  5E0,600
0395A:  MOVLW  18
0395C:  MOVLB  6
0395E:  MOVWF  x07
03960:  MOVLW  72
03962:  MOVWF  x06
03964:  MOVLW  31
03966:  MOVWF  x05
03968:  MOVLW  7E
0396A:  MOVWF  x04
0396C:  MOVLB  0
0396E:  CALL   182C
03972:  MOVFF  03,603
03976:  MOVFF  02,602
0397A:  MOVFF  01,601
0397E:  MOVFF  00,600
03982:  CALL   2DD8
03986:  MOVFF  01,5F0
....................    s = 0; 
0398A:  MOVLB  5
0398C:  BCF    xF1.0
....................    y = x; 
0398E:  MOVFF  5E3,5E7
03992:  MOVFF  5E2,5E6
03996:  MOVFF  5E1,5E5
0399A:  MOVFF  5E0,5E4
....................  
....................    if (x < 0) 
0399E:  MOVFF  5E3,603
039A2:  MOVFF  5E2,602
039A6:  MOVFF  5E1,601
039AA:  MOVFF  5E0,600
039AE:  MOVLB  6
039B0:  CLRF   x07
039B2:  CLRF   x06
039B4:  CLRF   x05
039B6:  CLRF   x04
039B8:  MOVLB  0
039BA:  CALL   2390
039BE:  BNC   39CC
....................    { 
....................       s = 1; 
039C0:  MOVLB  5
039C2:  BSF    xF1.0
....................       n = -n; 
039C4:  NEGF   xF0
....................       y = -y; 
039C6:  MOVF   xE5,W
039C8:  XORLW  80
039CA:  MOVWF  xE5
....................    } 
....................  
....................    res = 0.0; 
039CC:  MOVLB  5
039CE:  CLRF   xEB
039D0:  CLRF   xEA
039D2:  CLRF   xE9
039D4:  CLRF   xE8
.................... #if !defined(__PCD__) 
....................    *((unsigned int8 *)(&res)) = n + 0x7F; 
039D6:  MOVLW  05
039D8:  MOVWF  xF3
039DA:  MOVLW  E8
039DC:  MOVWF  FE9
039DE:  MOVFF  5F3,FEA
039E2:  MOVLW  7F
039E4:  ADDWF  xF0,W
039E6:  MOVWF  FEF
.................... #endif 
....................  
.................... #if defined(__PCD__)  // Takes care of IEEE format for PCD 
....................    data1 = n+0x7F; 
....................    if(bit_test(data1,0)) 
....................    bit_set(*(((unsigned int8 *)(&res)+2)),7); 
....................    rotate_right(&data1,1); 
....................    bit_clear(data1,7); 
....................    *(((unsigned int8 *)(&res)+3)) = data1; 
.................... #endif 
....................  
....................    y = y/LN2 - (float32)n; 
039E8:  MOVFF  5E7,603
039EC:  MOVFF  5E6,602
039F0:  MOVFF  5E5,601
039F4:  MOVFF  5E4,600
039F8:  MOVLW  18
039FA:  MOVLB  6
039FC:  MOVWF  x07
039FE:  MOVLW  72
03A00:  MOVWF  x06
03A02:  MOVLW  31
03A04:  MOVWF  x05
03A06:  MOVLW  7E
03A08:  MOVWF  x04
03A0A:  MOVLB  0
03A0C:  CALL   182C
03A10:  MOVFF  00,5F2
03A14:  MOVFF  01,5F3
03A18:  MOVFF  02,5F4
03A1C:  MOVFF  03,5F5
03A20:  MOVLB  5
03A22:  CLRF   xF7
03A24:  MOVFF  5F0,5F6
03A28:  BTFSC  xF6.7
03A2A:  DECF   xF7,F
03A2C:  MOVLB  0
03A2E:  RCALL  341E
03A30:  BSF    FD8.1
03A32:  MOVFF  5F5,607
03A36:  MOVFF  5F4,606
03A3A:  MOVFF  5F3,605
03A3E:  MOVFF  5F2,604
03A42:  MOVFF  03,60B
03A46:  MOVFF  02,60A
03A4A:  MOVFF  01,609
03A4E:  MOVFF  00,608
03A52:  CALL   198A
03A56:  MOVFF  03,5E7
03A5A:  MOVFF  02,5E6
03A5E:  MOVFF  01,5E5
03A62:  MOVFF  00,5E4
....................  
....................    r = pe[0]*y + pe[1]; 
03A66:  MOVLW  7C
03A68:  MOVLB  6
03A6A:  MOVWF  x03
03A6C:  MOVLW  88
03A6E:  MOVWF  x02
03A70:  MOVLW  59
03A72:  MOVWF  x01
03A74:  MOVLW  72
03A76:  MOVWF  x00
03A78:  MOVFF  5E7,607
03A7C:  MOVFF  5E6,606
03A80:  MOVFF  5E5,605
03A84:  MOVFF  5E4,604
03A88:  MOVLB  0
03A8A:  CALL   2E14
03A8E:  MOVFF  00,5F2
03A92:  MOVFF  01,5F3
03A96:  MOVFF  02,5F4
03A9A:  MOVFF  03,5F5
03A9E:  BCF    FD8.1
03AA0:  MOVFF  03,607
03AA4:  MOVFF  02,606
03AA8:  MOVFF  01,605
03AAC:  MOVFF  00,604
03AB0:  MOVLW  E0
03AB2:  MOVLB  6
03AB4:  MOVWF  x0B
03AB6:  MOVLW  97
03AB8:  MOVWF  x0A
03ABA:  MOVLW  26
03ABC:  MOVWF  x09
03ABE:  MOVLW  75
03AC0:  MOVWF  x08
03AC2:  MOVLB  0
03AC4:  CALL   198A
03AC8:  MOVFF  03,5EF
03ACC:  MOVFF  02,5EE
03AD0:  MOVFF  01,5ED
03AD4:  MOVFF  00,5EC
....................    r = r*y + pe[2]; 
03AD8:  MOVFF  5EF,603
03ADC:  MOVFF  5EE,602
03AE0:  MOVFF  5ED,601
03AE4:  MOVFF  5EC,600
03AE8:  MOVFF  5E7,607
03AEC:  MOVFF  5E6,606
03AF0:  MOVFF  5E5,605
03AF4:  MOVFF  5E4,604
03AF8:  CALL   2E14
03AFC:  MOVFF  00,5F2
03B00:  MOVFF  01,5F3
03B04:  MOVFF  02,5F4
03B08:  MOVFF  03,5F5
03B0C:  BCF    FD8.1
03B0E:  MOVFF  03,607
03B12:  MOVFF  02,606
03B16:  MOVFF  01,605
03B1A:  MOVFF  00,604
03B1E:  MOVLW  C4
03B20:  MOVLB  6
03B22:  MOVWF  x0B
03B24:  MOVLW  1D
03B26:  MOVWF  x0A
03B28:  MOVLW  1E
03B2A:  MOVWF  x09
03B2C:  MOVLW  78
03B2E:  MOVWF  x08
03B30:  MOVLB  0
03B32:  CALL   198A
03B36:  MOVFF  03,5EF
03B3A:  MOVFF  02,5EE
03B3E:  MOVFF  01,5ED
03B42:  MOVFF  00,5EC
....................    r = r*y + pe[3]; 
03B46:  MOVFF  5EF,603
03B4A:  MOVFF  5EE,602
03B4E:  MOVFF  5ED,601
03B52:  MOVFF  5EC,600
03B56:  MOVFF  5E7,607
03B5A:  MOVFF  5E6,606
03B5E:  MOVFF  5E5,605
03B62:  MOVFF  5E4,604
03B66:  CALL   2E14
03B6A:  MOVFF  00,5F2
03B6E:  MOVFF  01,5F3
03B72:  MOVFF  02,5F4
03B76:  MOVFF  03,5F5
03B7A:  BCF    FD8.1
03B7C:  MOVFF  03,607
03B80:  MOVFF  02,606
03B84:  MOVFF  01,605
03B88:  MOVFF  00,604
03B8C:  MOVLW  5E
03B8E:  MOVLB  6
03B90:  MOVWF  x0B
03B92:  MOVLW  50
03B94:  MOVWF  x0A
03B96:  MOVLW  63
03B98:  MOVWF  x09
03B9A:  MOVLW  7A
03B9C:  MOVWF  x08
03B9E:  MOVLB  0
03BA0:  CALL   198A
03BA4:  MOVFF  03,5EF
03BA8:  MOVFF  02,5EE
03BAC:  MOVFF  01,5ED
03BB0:  MOVFF  00,5EC
....................    r = r*y + pe[4]; 
03BB4:  MOVFF  5EF,603
03BB8:  MOVFF  5EE,602
03BBC:  MOVFF  5ED,601
03BC0:  MOVFF  5EC,600
03BC4:  MOVFF  5E7,607
03BC8:  MOVFF  5E6,606
03BCC:  MOVFF  5E5,605
03BD0:  MOVFF  5E4,604
03BD4:  CALL   2E14
03BD8:  MOVFF  00,5F2
03BDC:  MOVFF  01,5F3
03BE0:  MOVFF  02,5F4
03BE4:  MOVFF  03,5F5
03BE8:  BCF    FD8.1
03BEA:  MOVFF  03,607
03BEE:  MOVFF  02,606
03BF2:  MOVFF  01,605
03BF6:  MOVFF  00,604
03BFA:  MOVLW  1A
03BFC:  MOVLB  6
03BFE:  MOVWF  x0B
03C00:  MOVLW  FE
03C02:  MOVWF  x0A
03C04:  MOVLW  75
03C06:  MOVWF  x09
03C08:  MOVLW  7C
03C0A:  MOVWF  x08
03C0C:  MOVLB  0
03C0E:  CALL   198A
03C12:  MOVFF  03,5EF
03C16:  MOVFF  02,5EE
03C1A:  MOVFF  01,5ED
03C1E:  MOVFF  00,5EC
....................    r = r*y + pe[5]; 
03C22:  MOVFF  5EF,603
03C26:  MOVFF  5EE,602
03C2A:  MOVFF  5ED,601
03C2E:  MOVFF  5EC,600
03C32:  MOVFF  5E7,607
03C36:  MOVFF  5E6,606
03C3A:  MOVFF  5E5,605
03C3E:  MOVFF  5E4,604
03C42:  CALL   2E14
03C46:  MOVFF  00,5F2
03C4A:  MOVFF  01,5F3
03C4E:  MOVFF  02,5F4
03C52:  MOVFF  03,5F5
03C56:  BCF    FD8.1
03C58:  MOVFF  03,607
03C5C:  MOVFF  02,606
03C60:  MOVFF  01,605
03C64:  MOVFF  00,604
03C68:  MOVLW  18
03C6A:  MOVLB  6
03C6C:  MOVWF  x0B
03C6E:  MOVLW  72
03C70:  MOVWF  x0A
03C72:  MOVLW  31
03C74:  MOVWF  x09
03C76:  MOVLW  7E
03C78:  MOVWF  x08
03C7A:  MOVLB  0
03C7C:  CALL   198A
03C80:  MOVFF  03,5EF
03C84:  MOVFF  02,5EE
03C88:  MOVFF  01,5ED
03C8C:  MOVFF  00,5EC
....................  
....................    res = res*(1.0 + y*r); 
03C90:  MOVFF  5E7,603
03C94:  MOVFF  5E6,602
03C98:  MOVFF  5E5,601
03C9C:  MOVFF  5E4,600
03CA0:  MOVFF  5EF,607
03CA4:  MOVFF  5EE,606
03CA8:  MOVFF  5ED,605
03CAC:  MOVFF  5EC,604
03CB0:  CALL   2E14
03CB4:  BCF    FD8.1
03CB6:  MOVLB  6
03CB8:  CLRF   x07
03CBA:  CLRF   x06
03CBC:  CLRF   x05
03CBE:  MOVLW  7F
03CC0:  MOVWF  x04
03CC2:  MOVFF  03,60B
03CC6:  MOVFF  02,60A
03CCA:  MOVFF  01,609
03CCE:  MOVFF  00,608
03CD2:  MOVLB  0
03CD4:  CALL   198A
03CD8:  MOVFF  5EB,603
03CDC:  MOVFF  5EA,602
03CE0:  MOVFF  5E9,601
03CE4:  MOVFF  5E8,600
03CE8:  MOVFF  03,607
03CEC:  MOVFF  02,606
03CF0:  MOVFF  01,605
03CF4:  MOVFF  00,604
03CF8:  CALL   2E14
03CFC:  MOVFF  03,5EB
03D00:  MOVFF  02,5EA
03D04:  MOVFF  01,5E9
03D08:  MOVFF  00,5E8
....................  
....................    if (s) 
03D0C:  MOVLB  5
03D0E:  BTFSS  xF1.0
03D10:  BRA    3D46
....................       res = 1.0/res; 
03D12:  MOVLB  6
03D14:  CLRF   x03
03D16:  CLRF   x02
03D18:  CLRF   x01
03D1A:  MOVLW  7F
03D1C:  MOVWF  x00
03D1E:  MOVFF  5EB,607
03D22:  MOVFF  5EA,606
03D26:  MOVFF  5E9,605
03D2A:  MOVFF  5E8,604
03D2E:  MOVLB  0
03D30:  CALL   182C
03D34:  MOVFF  03,5EB
03D38:  MOVFF  02,5EA
03D3C:  MOVFF  01,5E9
03D40:  MOVFF  00,5E8
03D44:  MOVLB  5
....................    return(res); 
03D46:  MOVFF  5E8,00
03D4A:  MOVFF  5E9,01
03D4E:  MOVFF  5EA,02
03D52:  MOVFF  5EB,03
.................... } 
03D56:  MOVLB  0
03D58:  RETLW  00
....................  
....................  
.................... //Overloaded function for exp() for PCD 
.................... // Overloaded function exp() for data type - Float48 
.................... #if defined(__PCD__) 
.................... float48 exp(float48 x) 
.................... { 
....................    float48 y, res, r; 
....................    int8 data1; 
....................    signed int8 n; 
....................    int1 s; 
....................    #ifdef _ERRNO 
....................    if(x > 88.722838) 
....................    { 
....................       errno=ERANGE; 
....................       return(0); 
....................    } 
....................    #endif 
....................    n = (signed int16)(x/LN2); 
....................    s = 0; 
....................    y = x; 
....................  
....................    if (x < 0) 
....................    { 
....................       s = 1; 
....................       n = -n; 
....................       y = -y; 
....................    } 
....................  
....................    res = 0.0; 
....................  
....................    data1 = n+0x7F; 
....................    if(bit_test(data1,0)) 
....................    bit_set(*(((unsigned int8 *)(&res)+4)),7); 
....................    rotate_right(&data1,1); 
....................    bit_clear(data1,7); 
....................    *(((unsigned int8 *)(&res)+5)) = data1; 
....................  
....................    y = y/LN2 - (float48)n; 
....................  
....................    r = pe[0]*y + pe[1]; 
....................    r = r*y + pe[2]; 
....................    r = r*y + pe[3]; 
....................    r = r*y + pe[4]; 
....................    r = r*y + pe[5]; 
....................  
....................    res = res*(1.0 + y*r); 
....................  
....................    if (s) 
....................       res = 1.0/res; 
....................    return(res); 
.................... } 
....................  
.................... // Overloaded function exp() for data type - Float64 
.................... float64 exp(float64 x) 
.................... { 
....................    float64 y, res, r; 
....................    unsigned int16 data1, data2; 
....................    unsigned int16 *p; 
....................    signed int16 n; 
....................    int1 s; 
....................    #ifdef _ERRNO 
....................    if(x > 709.7827128) 
....................    { 
....................       errno=ERANGE; 
....................       return(0); 
....................    } 
....................    #endif 
....................    n = (signed int16)(x/LN2); 
....................    s = 0; 
....................    y = x; 
....................  
....................    if (x < 0) 
....................    { 
....................       s = 1; 
....................       n = -n; 
....................       y = -y; 
....................    } 
....................  
....................    res = 0.0; 
....................  
.................... #if !defined(__PCD__) 
....................    *((unsigned int16 *)(&res)) = n + 0x7F; 
.................... #endif 
....................    p= (((unsigned int16 *)(&res))+3); 
....................    data1 = *p; 
....................    data2 = *p;    
....................    data1 = n + 0x3FF; 
....................    data1 = data1 <<4; 
....................    if(bit_test(data2,15)) 
....................    bit_set(data1,15); 
....................    data2 = data2 & 0x000F; 
....................    data1 ^= data2; 
....................  
....................    *(((unsigned int16 *)(&res)+3)) = data1; 
....................  
....................  
....................    y = y/LN2 - (float64)n; 
....................  
....................    r = pe[0]*y + pe[1]; 
....................    r = r*y + pe[2]; 
....................    r = r*y + pe[3]; 
....................    r = r*y + pe[4]; 
....................    r = r*y + pe[5]; 
....................  
....................    res = res*(1.0 + y*r); 
....................  
....................    if (s) 
....................       res = 1.0/res; 
....................    return(res); 
.................... } 
....................  
.................... #ENDIF 
....................  
....................  
.................... /************************************************************/ 
....................  
.................... float32 const pl[4] = {0.45145214, -9.0558803, 26.940971, -19.860189}; 
.................... float32 const ql[4] = {1.0000000,  -8.1354259, 16.780517, -9.9300943}; 
....................  
.................... //////////////////////////////////////////////////////////////////////////// 
.................... //   float log(float x) 
.................... //////////////////////////////////////////////////////////////////////////// 
.................... // Description : returns the the natural log of x 
.................... // Date : N/A 
.................... // 
.................... float32 log(float32 x) 
.................... { 
....................    float32 y, res, r, y2; 
....................    #if defined(__PCD__) 
....................    unsigned int8  data1,data2; 
....................    #endif 
....................    signed int8 n; 
....................    #ifdef _ERRNO 
....................    if(x <0) 
....................    { 
....................       errno=EDOM; 
....................    } 
....................    if(x ==0) 
....................    { 
....................       errno=ERANGE; 
....................       return(0); 
....................    } 
....................    #endif 
....................    y = x; 
*
0346E:  MOVFF  5E3,5E7
03472:  MOVFF  5E2,5E6
03476:  MOVFF  5E1,5E5
0347A:  MOVFF  5E0,5E4
....................  
....................    if (y != 1.0) 
0347E:  MOVFF  5E7,603
03482:  MOVFF  5E6,602
03486:  MOVFF  5E5,601
0348A:  MOVFF  5E4,600
0348E:  MOVLB  6
03490:  CLRF   x07
03492:  CLRF   x06
03494:  CLRF   x05
03496:  MOVLW  7F
03498:  MOVWF  x04
0349A:  MOVLB  0
0349C:  CALL   2390
034A0:  BTFSC  FD8.2
034A2:  BRA    392C
....................    { 
.................... #if !defined(__PCD__) 
....................     *((unsigned int8 *)(&y)) = 0x7E;  
034A4:  MOVLW  05
034A6:  MOVLB  5
034A8:  MOVWF  xF6
034AA:  MOVLW  E4
034AC:  MOVWF  FE9
034AE:  MOVFF  5F6,FEA
034B2:  MOVLW  7E
034B4:  MOVWF  FEF
.................... #endif 
....................  
.................... #if defined(__PCD__) // Takes care of IEEE format 
....................    data2 = *(((unsigned int8 *)(&y))+3); 
....................    *(((unsigned int8 *)(&y))+3) = 0x3F; 
....................    data1 = *(((unsigned int8 *)(&y))+2); 
....................    bit_clear(data1,7); 
....................    *(((unsigned int8 *)(&y))+2) = data1; 
....................    if(bit_test(data2,7)) 
....................    bit_set(*(((unsigned int8 *)(&y))+3),7); 
.................... #endif 
....................  
....................       y = (y - 1.0)/(y + 1.0); 
034B6:  BSF    FD8.1
034B8:  MOVFF  5E7,607
034BC:  MOVFF  5E6,606
034C0:  MOVFF  5E5,605
034C4:  MOVFF  5E4,604
034C8:  MOVLB  6
034CA:  CLRF   x0B
034CC:  CLRF   x0A
034CE:  CLRF   x09
034D0:  MOVLW  7F
034D2:  MOVWF  x08
034D4:  MOVLB  0
034D6:  CALL   198A
034DA:  MOVFF  00,5F5
034DE:  MOVFF  01,5F6
034E2:  MOVFF  02,5F7
034E6:  MOVFF  03,5F8
034EA:  BCF    FD8.1
034EC:  MOVFF  5E7,607
034F0:  MOVFF  5E6,606
034F4:  MOVFF  5E5,605
034F8:  MOVFF  5E4,604
034FC:  MOVLB  6
034FE:  CLRF   x0B
03500:  CLRF   x0A
03502:  CLRF   x09
03504:  MOVLW  7F
03506:  MOVWF  x08
03508:  MOVLB  0
0350A:  CALL   198A
0350E:  MOVFF  5F8,603
03512:  MOVFF  5F7,602
03516:  MOVFF  5F6,601
0351A:  MOVFF  5F5,600
0351E:  MOVFF  03,607
03522:  MOVFF  02,606
03526:  MOVFF  01,605
0352A:  MOVFF  00,604
0352E:  CALL   182C
03532:  MOVFF  03,5E7
03536:  MOVFF  02,5E6
0353A:  MOVFF  01,5E5
0353E:  MOVFF  00,5E4
....................  
....................       y2=y*y; 
03542:  MOVFF  5E7,603
03546:  MOVFF  5E6,602
0354A:  MOVFF  5E5,601
0354E:  MOVFF  5E4,600
03552:  MOVFF  5E7,607
03556:  MOVFF  5E6,606
0355A:  MOVFF  5E5,605
0355E:  MOVFF  5E4,604
03562:  RCALL  2E14
03564:  MOVFF  03,5F3
03568:  MOVFF  02,5F2
0356C:  MOVFF  01,5F1
03570:  MOVFF  00,5F0
....................  
....................       res = pl[0]*y2 + pl[1]; 
03574:  MOVLW  BC
03576:  MOVLB  6
03578:  MOVWF  x03
0357A:  MOVLW  24
0357C:  MOVWF  x02
0357E:  MOVLW  67
03580:  MOVWF  x01
03582:  MOVLW  7D
03584:  MOVWF  x00
03586:  MOVFF  5F3,607
0358A:  MOVFF  5F2,606
0358E:  MOVFF  5F1,605
03592:  MOVFF  5F0,604
03596:  MOVLB  0
03598:  RCALL  2E14
0359A:  MOVFF  00,5F5
0359E:  MOVFF  01,5F6
035A2:  MOVFF  02,5F7
035A6:  MOVFF  03,5F8
035AA:  BCF    FD8.1
035AC:  MOVFF  03,607
035B0:  MOVFF  02,606
035B4:  MOVFF  01,605
035B8:  MOVFF  00,604
035BC:  MOVLW  E3
035BE:  MOVLB  6
035C0:  MOVWF  x0B
035C2:  MOVLW  E4
035C4:  MOVWF  x0A
035C6:  MOVLW  90
035C8:  MOVWF  x09
035CA:  MOVLW  82
035CC:  MOVWF  x08
035CE:  MOVLB  0
035D0:  CALL   198A
035D4:  MOVFF  03,5EB
035D8:  MOVFF  02,5EA
035DC:  MOVFF  01,5E9
035E0:  MOVFF  00,5E8
....................       res = res*y2 + pl[2]; 
035E4:  MOVFF  5EB,603
035E8:  MOVFF  5EA,602
035EC:  MOVFF  5E9,601
035F0:  MOVFF  5E8,600
035F4:  MOVFF  5F3,607
035F8:  MOVFF  5F2,606
035FC:  MOVFF  5F1,605
03600:  MOVFF  5F0,604
03604:  RCALL  2E14
03606:  MOVFF  00,5F5
0360A:  MOVFF  01,5F6
0360E:  MOVFF  02,5F7
03612:  MOVFF  03,5F8
03616:  BCF    FD8.1
03618:  MOVFF  03,607
0361C:  MOVFF  02,606
03620:  MOVFF  01,605
03624:  MOVFF  00,604
03628:  MOVLW  1C
0362A:  MOVLB  6
0362C:  MOVWF  x0B
0362E:  MOVLW  87
03630:  MOVWF  x0A
03632:  MOVLW  57
03634:  MOVWF  x09
03636:  MOVLW  83
03638:  MOVWF  x08
0363A:  MOVLB  0
0363C:  CALL   198A
03640:  MOVFF  03,5EB
03644:  MOVFF  02,5EA
03648:  MOVFF  01,5E9
0364C:  MOVFF  00,5E8
....................       res = res*y2 + pl[3]; 
03650:  MOVFF  5EB,603
03654:  MOVFF  5EA,602
03658:  MOVFF  5E9,601
0365C:  MOVFF  5E8,600
03660:  MOVFF  5F3,607
03664:  MOVFF  5F2,606
03668:  MOVFF  5F1,605
0366C:  MOVFF  5F0,604
03670:  CALL   2E14
03674:  MOVFF  00,5F5
03678:  MOVFF  01,5F6
0367C:  MOVFF  02,5F7
03680:  MOVFF  03,5F8
03684:  BCF    FD8.1
03686:  MOVFF  03,607
0368A:  MOVFF  02,606
0368E:  MOVFF  01,605
03692:  MOVFF  00,604
03696:  MOVLW  AB
03698:  MOVLB  6
0369A:  MOVWF  x0B
0369C:  MOVLW  E1
0369E:  MOVWF  x0A
036A0:  MOVLW  9E
036A2:  MOVWF  x09
036A4:  MOVLW  83
036A6:  MOVWF  x08
036A8:  MOVLB  0
036AA:  CALL   198A
036AE:  MOVFF  03,5EB
036B2:  MOVFF  02,5EA
036B6:  MOVFF  01,5E9
036BA:  MOVFF  00,5E8
....................  
....................       r = ql[0]*y2 + ql[1]; 
036BE:  MOVLB  6
036C0:  CLRF   x03
036C2:  CLRF   x02
036C4:  CLRF   x01
036C6:  MOVLW  7F
036C8:  MOVWF  x00
036CA:  MOVFF  5F3,607
036CE:  MOVFF  5F2,606
036D2:  MOVFF  5F1,605
036D6:  MOVFF  5F0,604
036DA:  MOVLB  0
036DC:  CALL   2E14
036E0:  MOVFF  00,5F5
036E4:  MOVFF  01,5F6
036E8:  MOVFF  02,5F7
036EC:  MOVFF  03,5F8
036F0:  BCF    FD8.1
036F2:  MOVFF  03,607
036F6:  MOVFF  02,606
036FA:  MOVFF  01,605
036FE:  MOVFF  00,604
03702:  MOVLW  B4
03704:  MOVLB  6
03706:  MOVWF  x0B
03708:  MOVLW  2A
0370A:  MOVWF  x0A
0370C:  MOVLW  82
0370E:  MOVWF  x09
03710:  MOVWF  x08
03712:  MOVLB  0
03714:  CALL   198A
03718:  MOVFF  03,5EF
0371C:  MOVFF  02,5EE
03720:  MOVFF  01,5ED
03724:  MOVFF  00,5EC
....................       r = r*y2 + ql[2]; 
03728:  MOVFF  5EF,603
0372C:  MOVFF  5EE,602
03730:  MOVFF  5ED,601
03734:  MOVFF  5EC,600
03738:  MOVFF  5F3,607
0373C:  MOVFF  5F2,606
03740:  MOVFF  5F1,605
03744:  MOVFF  5F0,604
03748:  CALL   2E14
0374C:  MOVFF  00,5F5
03750:  MOVFF  01,5F6
03754:  MOVFF  02,5F7
03758:  MOVFF  03,5F8
0375C:  BCF    FD8.1
0375E:  MOVFF  03,607
03762:  MOVFF  02,606
03766:  MOVFF  01,605
0376A:  MOVFF  00,604
0376E:  MOVLW  80
03770:  MOVLB  6
03772:  MOVWF  x0B
03774:  MOVLW  3E
03776:  MOVWF  x0A
03778:  MOVLW  06
0377A:  MOVWF  x09
0377C:  MOVLW  83
0377E:  MOVWF  x08
03780:  MOVLB  0
03782:  CALL   198A
03786:  MOVFF  03,5EF
0378A:  MOVFF  02,5EE
0378E:  MOVFF  01,5ED
03792:  MOVFF  00,5EC
....................       r = r*y2 + ql[3]; 
03796:  MOVFF  5EF,603
0379A:  MOVFF  5EE,602
0379E:  MOVFF  5ED,601
037A2:  MOVFF  5EC,600
037A6:  MOVFF  5F3,607
037AA:  MOVFF  5F2,606
037AE:  MOVFF  5F1,605
037B2:  MOVFF  5F0,604
037B6:  CALL   2E14
037BA:  MOVFF  00,5F5
037BE:  MOVFF  01,5F6
037C2:  MOVFF  02,5F7
037C6:  MOVFF  03,5F8
037CA:  BCF    FD8.1
037CC:  MOVFF  03,607
037D0:  MOVFF  02,606
037D4:  MOVFF  01,605
037D8:  MOVFF  00,604
037DC:  MOVLW  AB
037DE:  MOVLB  6
037E0:  MOVWF  x0B
037E2:  MOVLW  E1
037E4:  MOVWF  x0A
037E6:  MOVLW  9E
037E8:  MOVWF  x09
037EA:  MOVLW  82
037EC:  MOVWF  x08
037EE:  MOVLB  0
037F0:  CALL   198A
037F4:  MOVFF  03,5EF
037F8:  MOVFF  02,5EE
037FC:  MOVFF  01,5ED
03800:  MOVFF  00,5EC
....................  
....................       res = y*res/r; 
03804:  MOVFF  5E7,603
03808:  MOVFF  5E6,602
0380C:  MOVFF  5E5,601
03810:  MOVFF  5E4,600
03814:  MOVFF  5EB,607
03818:  MOVFF  5EA,606
0381C:  MOVFF  5E9,605
03820:  MOVFF  5E8,604
03824:  CALL   2E14
03828:  MOVFF  00,5F5
0382C:  MOVFF  01,5F6
03830:  MOVFF  02,5F7
03834:  MOVFF  03,5F8
03838:  MOVFF  03,603
0383C:  MOVFF  02,602
03840:  MOVFF  01,601
03844:  MOVFF  00,600
03848:  MOVFF  5EF,607
0384C:  MOVFF  5EE,606
03850:  MOVFF  5ED,605
03854:  MOVFF  5EC,604
03858:  CALL   182C
0385C:  MOVFF  03,5EB
03860:  MOVFF  02,5EA
03864:  MOVFF  01,5E9
03868:  MOVFF  00,5E8
.................... #if !defined(__PCD__) 
....................       n = *((unsigned int8 *)(&x)) - 0x7E; 
0386C:  MOVLW  05
0386E:  MOVLB  5
03870:  MOVWF  xF6
03872:  MOVLW  E0
03874:  MOVWF  FE9
03876:  MOVFF  5F6,FEA
0387A:  MOVLW  7E
0387C:  SUBWF  FEF,W
0387E:  MOVWF  xF4
.................... #endif 
.................... #if defined(__PCD__)  
....................     data1 = *(((unsigned int8 *)(&x)+3)); 
....................     rotate_left(&data1,1); 
....................     data2 = *(((unsigned int8 *)(&x)+2)); 
....................     if(bit_test (data2,7)) 
....................       bit_set(data1,0); 
....................     n = data1 - 0x7E; 
.................... #endif 
....................  
....................       if (n<0)  
03880:  BTFSC  xF4.7
03882:  BRA    3886
03884:  BRA    38AE
....................          r = -(float32)-n; 
03886:  MOVLW  00
03888:  BSF    FD8.0
0388A:  SUBFWB xF4,W
0388C:  CLRF   xF7
0388E:  MOVWF  xF6
03890:  BTFSC  xF6.7
03892:  DECF   xF7,F
03894:  MOVLB  0
03896:  RCALL  341E
03898:  MOVFF  00,5EC
0389C:  MOVF   01,W
0389E:  XORLW  80
038A0:  MOVLB  5
038A2:  MOVWF  xED
038A4:  MOVFF  02,5EE
038A8:  MOVFF  03,5EF
....................       else 
038AC:  BRA    38CC
....................          r = (float32)n; 
038AE:  CLRF   xF7
038B0:  MOVFF  5F4,5F6
038B4:  BTFSC  xF6.7
038B6:  DECF   xF7,F
038B8:  MOVLB  0
038BA:  RCALL  341E
038BC:  MOVFF  03,5EF
038C0:  MOVFF  02,5EE
038C4:  MOVFF  01,5ED
038C8:  MOVFF  00,5EC
....................  
....................       res += r*LN2; 
038CC:  MOVFF  5EF,603
038D0:  MOVFF  5EE,602
038D4:  MOVFF  5ED,601
038D8:  MOVFF  5EC,600
038DC:  MOVLW  18
038DE:  MOVLB  6
038E0:  MOVWF  x07
038E2:  MOVLW  72
038E4:  MOVWF  x06
038E6:  MOVLW  31
038E8:  MOVWF  x05
038EA:  MOVLW  7E
038EC:  MOVWF  x04
038EE:  MOVLB  0
038F0:  CALL   2E14
038F4:  BCF    FD8.1
038F6:  MOVFF  5EB,607
038FA:  MOVFF  5EA,606
038FE:  MOVFF  5E9,605
03902:  MOVFF  5E8,604
03906:  MOVFF  03,60B
0390A:  MOVFF  02,60A
0390E:  MOVFF  01,609
03912:  MOVFF  00,608
03916:  CALL   198A
0391A:  MOVFF  03,5EB
0391E:  MOVFF  02,5EA
03922:  MOVFF  01,5E9
03926:  MOVFF  00,5E8
....................    } 
....................  
....................    else 
0392A:  BRA    3938
....................       res = 0.0; 
0392C:  MOVLB  5
0392E:  CLRF   xEB
03930:  CLRF   xEA
03932:  CLRF   xE9
03934:  CLRF   xE8
03936:  MOVLB  0
....................  
....................    return(res); 
03938:  MOVFF  5E8,00
0393C:  MOVFF  5E9,01
03940:  MOVFF  5EA,02
03944:  MOVFF  5EB,03
.................... } 
03948:  RETLW  00
....................  
.................... //Overloaded function for log() for PCD 
.................... // Overloaded function log() for data type - Float48 
.................... #if defined(__PCD__) 
.................... float48 log(float48 x) 
.................... { 
....................    float48 y, res, r, y2; 
....................    unsigned int8  data1,data2; 
....................    signed int8 n; 
....................    #ifdef _ERRNO 
....................    if(x <0) 
....................    { 
....................       errno=EDOM; 
....................    } 
....................    if(x ==0) 
....................    { 
....................       errno=ERANGE; 
....................       return(0); 
....................    } 
....................    #endif 
....................    y = x; 
....................  
....................    if (y != 1.0) 
....................    { 
....................     
....................    #if !defined(__PCD__) 
....................        *((unsigned int8 *)(&y)) = 0x7E;  
....................    #endif 
....................       data2 = *(((unsigned int8 *)(&y))+5); 
....................       *(((unsigned int8 *)(&y))+5) = 0x3F; 
....................       data1 = *(((unsigned int8 *)(&y))+4); 
....................       bit_clear(data1,7); 
....................       *(((unsigned int8 *)(&y))+4) = data1; 
....................    
....................       if(bit_test(data2,7)) 
....................          bit_set(*(((unsigned int8 *)(&y))+4),7); 
....................       y = (y - 1.0)/(y + 1.0); 
....................  
....................       y2=y*y; 
....................  
....................       res = pl[0]*y2 + pl[1]; 
....................       res = res*y2 + pl[2]; 
....................       res = res*y2 + pl[3]; 
....................  
....................       r = ql[0]*y2 + ql[1]; 
....................       r = r*y2 + ql[2]; 
....................       r = r*y2 + ql[3]; 
....................  
....................       res = y*res/r; 
....................  
....................     data1 = *(((unsigned int8 *)(&x)+5)); 
....................     rotate_left(&data1,1); 
....................     data2 = *(((unsigned int8 *)(&x)+4)); 
....................     if(bit_test (data2,7)) 
....................        bit_set(data1,0); 
....................       
....................     n = data1 - 0x7E; 
....................  
....................       if (n<0) 
....................          r = -(float48)-n; 
....................       else 
....................          r = (float48)n; 
....................  
....................       res += r*LN2; 
....................    } 
....................  
....................    else 
....................       res = 0.0; 
....................  
....................    return(res); 
.................... } 
....................  
.................... // Overloaded function log() for data type - Float48 
.................... #if defined(__PCD__) 
.................... float32 const pl_64[4] = {0.45145214, -9.0558803, 26.940971, -19.860189}; 
.................... float32 const ql_64[4] = {1.0000000,  -8.1354259, 16.780517, -9.9300943}; 
.................... #endif 
.................... float64 log(float64 x) 
.................... { 
....................    float64 y, res, r, y2; 
....................    unsigned int16  data1,data2; 
....................    unsigned int16 *p; 
....................    signed int16 n; 
....................    #ifdef _ERRNO 
....................    if(x <0) 
....................    { 
....................       errno=EDOM; 
....................    } 
....................    if(x ==0) 
....................    { 
....................       errno=ERANGE; 
....................       return(0); 
....................    } 
....................    #endif 
....................    y = x; 
....................  
....................    if (y != 1.0) 
....................    { 
....................    #if !defined(__PCD__) 
....................        *((unsigned int8 *)(&y)) = 0x7E;  
....................    #endif 
....................       p= (((unsigned int16 *)(&y))+3); 
....................       data1 = *p; 
....................       data2 = *p; 
....................       data1 = 0x3FE; 
....................       data1 = data1 <<4; 
....................       if(bit_test (data2,15)) 
....................       bit_set(data1,15); 
....................       data2 = data2 & 0x000F; 
....................       data1 ^=data2; 
....................  
....................       *p = data1; 
....................  
....................       y = (y - 1.0)/(y + 1.0); 
....................  
....................       y2=y*y; 
....................  
....................       res = pl_64[0]*y2 + pl_64[1]; 
....................       res = res*y2 + pl_64[2]; 
....................       res = res*y2 + pl_64[3]; 
....................  
....................       r = ql_64[0]*y2 + ql_64[1]; 
....................       r = r*y2 + ql_64[2]; 
....................       r = r*y2 + ql_64[3]; 
....................  
....................       res = y*res/r; 
....................   
....................       p= (((unsigned int16 *)(&x))+3); 
....................       data1 = *p; 
....................       bit_clear(data1,15); 
....................       data1 = data1 >>4;     
....................       n = data1 - 0x3FE; 
....................  
....................  
....................       if (n<0) 
....................          r = -(float64)-n; 
....................       else 
....................          r = (float64)n; 
....................  
....................       res += r*LN2; 
....................    } 
....................  
....................    else 
....................       res = 0.0; 
....................  
....................    return(res); 
.................... } 
.................... #endif 
....................  
....................  
.................... #define LN10 2.3025850929940456 
....................  
.................... //////////////////////////////////////////////////////////////////////////// 
.................... //   float log10(float x) 
.................... //////////////////////////////////////////////////////////////////////////// 
.................... // Description : returns the the log base 10 of x 
.................... // Date : N/A 
.................... // 
.................... float32 log10(float32 x) 
.................... { 
....................    float32 r; 
....................  
....................    r = log(x); 
....................    r = r/LN10; 
....................    return(r); 
.................... } 
....................  
.................... //Overloaded functions for log10() for PCD 
.................... // Overloaded function log10() for data type - Float48 
.................... #if defined(__PCD__) 
.................... float48 log10(float48 x) 
.................... { 
....................    float48 r; 
....................  
....................    r = log(x); 
....................    r = r/LN10; 
....................    return(r); 
.................... } 
....................  
.................... // Overloaded function log10() for data type - Float64 
.................... float64 log10(float64 x) 
.................... { 
....................    float64 r; 
....................  
....................    r = log(x); 
....................    r = r/LN10; 
....................    return(r); 
.................... } 
.................... #endif 
.................... //////////////////////////////////////////////////////////////////////////// 
.................... //   float modf(float x) 
.................... //////////////////////////////////////////////////////////////////////////// 
.................... // Description :breaks the argument value int integral and fractional parts, 
.................... // ach of which have the same sign as the argument.  It stores the integral part 
.................... // as a float in the object pointed to by the iptr 
.................... // Returns : returns the signed fractional part of value. 
.................... // Date : N/A 
.................... // 
....................  
.................... float32 modf(float32 value,float32 *iptr) 
.................... { 
....................    *iptr=(value < 0.0)? ceil(value): floor(value); 
....................    return(value - *iptr); 
.................... } 
.................... //Overloaded functions for modf() for PCD 
.................... // Overloaded function modf() for data type - Float48 
.................... #if defined(__PCD__) 
.................... float48 modf(float48 value,float48 *iptr) 
.................... { 
....................    *iptr=(value < 0.0)? ceil(value): floor(value); 
....................    return(value - *iptr); 
.................... } 
.................... // Overloaded function modf() for data type - Float64 
.................... float64 modf(float64 value,float64 *iptr) 
.................... { 
....................    *iptr=(value < 0.0)? ceil(value): floor(value); 
....................    return(value - *iptr); 
.................... } 
.................... #endif 
....................  
.................... //////////////////////////////////////////////////////////////////////////// 
.................... //   float pwr(float x,float y) 
.................... //////////////////////////////////////////////////////////////////////////// 
.................... // Description : returns the value (x^y) 
.................... // Date : N/A 
.................... // Note : 0 is returned when the function will generate an imaginary number 
.................... // 
.................... float32 pwr(float32 x,float32 y) 
.................... { 
....................    if(0 > x && fmod(y, 1) == 0) { 
....................       if(fmod(y, 2) == 0) { 
....................          return (exp(log(-x) * y)); 
....................       } else { 
....................          return (-exp(log(-x) * y)); 
....................       } 
....................    } else if(0 > x && fmod(y, 1) != 0) { 
....................       return 0; 
....................    } else { 
....................       if(x != 0 || 0 >= y) { 
....................          return (exp(log(x) * y)); 
....................       } 
....................    } 
.................... } 
.................... //Overloaded functions for pwr() for PCD 
.................... // Overloaded function pwr() for data type - Float48 
.................... #if defined(__PCD__) 
.................... float48 pwr(float48 x,float48 y) 
.................... { 
....................    if(0 > x && fmod(y, 1) == 0) { 
....................       if(fmod(y, 2) == 0) { 
....................          return (exp(log(-x) * y)); 
....................       } else { 
....................          return (-exp(log(-x) * y)); 
....................       } 
....................    } else if(0 > x && fmod(y, 1) != 0) { 
....................       return 0; 
....................    } else { 
....................       if(x != 0 || 0 >= y) { 
....................          return (exp(log(x) * y)); 
....................       } 
....................    } 
.................... } 
.................... // Overloaded function pwr() for data type - Float64 
.................... float64 pwr(float64 x,float64 y) 
.................... { 
....................    if(0 > x && fmod(y, 1) == 0) { 
....................       if(fmod(y, 2) == 0) { 
....................          return (exp(log(-x) * y)); 
....................       } else { 
....................          return (-exp(log(-x) * y)); 
....................       } 
....................    } else if(0 > x && fmod(y, 1) != 0) { 
....................       return 0; 
....................    } else { 
....................       if(x != 0 || 0 >= y) { 
....................          return (exp(log(x) * y)); 
....................       } 
....................    } 
.................... } 
.................... #endif 
....................  
.................... //////////////////// Power functions //////////////////// 
....................  
.................... //////////////////////////////////////////////////////////////////////////// 
.................... //   float pow(float x,float y) 
.................... //////////////////////////////////////////////////////////////////////////// 
.................... // Description : returns the value (x^y) 
.................... // Date : N/A 
.................... // Note : 0 is returned when the function will generate an imaginary number 
.................... // 
.................... float32 pow(float32 x,float32 y) 
.................... { 
....................    if(0 > x && fmod(y, 1) == 0) { 
*
03D5A:  MOVFF  5D7,603
03D5E:  MOVFF  5D6,602
03D62:  MOVFF  5D5,601
03D66:  MOVFF  5D4,600
03D6A:  MOVLB  6
03D6C:  CLRF   x07
03D6E:  CLRF   x06
03D70:  CLRF   x05
03D72:  CLRF   x04
03D74:  MOVLB  0
03D76:  CALL   2390
03D7A:  BTFSS  FD8.0
03D7C:  BRA    3F30
03D7E:  MOVFF  5DB,5DF
03D82:  MOVFF  5DA,5DE
03D86:  MOVFF  5D9,5DD
03D8A:  MOVFF  5D8,5DC
03D8E:  MOVLB  5
03D90:  CLRF   xE3
03D92:  CLRF   xE2
03D94:  CLRF   xE1
03D96:  MOVLW  7F
03D98:  MOVWF  xE0
03D9A:  MOVLB  0
03D9C:  CALL   32B8
03DA0:  MOVFF  00,5DC
03DA4:  MOVFF  01,5DD
03DA8:  MOVFF  02,5DE
03DAC:  MOVFF  03,5DF
03DB0:  MOVFF  03,603
03DB4:  MOVFF  02,602
03DB8:  MOVFF  01,601
03DBC:  MOVFF  00,600
03DC0:  MOVLB  6
03DC2:  CLRF   x07
03DC4:  CLRF   x06
03DC6:  CLRF   x05
03DC8:  CLRF   x04
03DCA:  MOVLB  0
03DCC:  CALL   2390
03DD0:  BTFSS  FD8.2
03DD2:  BRA    3F30
....................       if(fmod(y, 2) == 0) { 
03DD4:  MOVFF  5DB,5DF
03DD8:  MOVFF  5DA,5DE
03DDC:  MOVFF  5D9,5DD
03DE0:  MOVFF  5D8,5DC
03DE4:  MOVLB  5
03DE6:  CLRF   xE3
03DE8:  CLRF   xE2
03DEA:  CLRF   xE1
03DEC:  MOVLW  80
03DEE:  MOVWF  xE0
03DF0:  MOVLB  0
03DF2:  CALL   32B8
03DF6:  MOVFF  00,5DC
03DFA:  MOVFF  01,5DD
03DFE:  MOVFF  02,5DE
03E02:  MOVFF  03,5DF
03E06:  MOVFF  03,603
03E0A:  MOVFF  02,602
03E0E:  MOVFF  01,601
03E12:  MOVFF  00,600
03E16:  MOVLB  6
03E18:  CLRF   x07
03E1A:  CLRF   x06
03E1C:  CLRF   x05
03E1E:  CLRF   x04
03E20:  MOVLB  0
03E22:  CALL   2390
03E26:  BNZ   3EAA
....................          return (exp(log(-x) * y)); 
03E28:  MOVFF  5D4,5DC
03E2C:  MOVLB  5
03E2E:  MOVF   xD5,W
03E30:  XORLW  80
03E32:  MOVWF  xDD
03E34:  MOVFF  5D6,5DE
03E38:  MOVFF  5D7,5DF
03E3C:  MOVFF  5D7,5E3
03E40:  MOVFF  5D6,5E2
03E44:  MOVWF  xE1
03E46:  MOVFF  5D4,5E0
03E4A:  MOVLB  0
03E4C:  CALL   346E
03E50:  MOVFF  00,5DC
03E54:  MOVFF  01,5DD
03E58:  MOVFF  02,5DE
03E5C:  MOVFF  03,5DF
03E60:  MOVFF  03,603
03E64:  MOVFF  02,602
03E68:  MOVFF  01,601
03E6C:  MOVFF  00,600
03E70:  MOVFF  5DB,607
03E74:  MOVFF  5DA,606
03E78:  MOVFF  5D9,605
03E7C:  MOVFF  5D8,604
03E80:  CALL   2E14
03E84:  MOVFF  00,5DC
03E88:  MOVFF  01,5DD
03E8C:  MOVFF  02,5DE
03E90:  MOVFF  03,5DF
03E94:  MOVFF  03,5E3
03E98:  MOVFF  02,5E2
03E9C:  MOVFF  01,5E1
03EA0:  MOVFF  00,5E0
03EA4:  RCALL  394A
03EA6:  BRA    4064
....................       } else { 
03EA8:  BRA    3F2E
....................          return (-exp(log(-x) * y)); 
03EAA:  MOVFF  5D4,5DC
03EAE:  MOVLB  5
03EB0:  MOVF   xD5,W
03EB2:  XORLW  80
03EB4:  MOVWF  xDD
03EB6:  MOVFF  5D6,5DE
03EBA:  MOVFF  5D7,5DF
03EBE:  MOVFF  5D7,5E3
03EC2:  MOVFF  5D6,5E2
03EC6:  MOVWF  xE1
03EC8:  MOVFF  5D4,5E0
03ECC:  MOVLB  0
03ECE:  CALL   346E
03ED2:  MOVFF  00,5DC
03ED6:  MOVFF  01,5DD
03EDA:  MOVFF  02,5DE
03EDE:  MOVFF  03,5DF
03EE2:  MOVFF  03,603
03EE6:  MOVFF  02,602
03EEA:  MOVFF  01,601
03EEE:  MOVFF  00,600
03EF2:  MOVFF  5DB,607
03EF6:  MOVFF  5DA,606
03EFA:  MOVFF  5D9,605
03EFE:  MOVFF  5D8,604
03F02:  CALL   2E14
03F06:  MOVFF  00,5DC
03F0A:  MOVFF  01,5DD
03F0E:  MOVFF  02,5DE
03F12:  MOVFF  03,5DF
03F16:  MOVFF  03,5E3
03F1A:  MOVFF  02,5E2
03F1E:  MOVFF  01,5E1
03F22:  MOVFF  00,5E0
03F26:  RCALL  394A
03F28:  MOVLW  80
03F2A:  XORWF  01,F
03F2C:  BRA    4064
....................       } 
....................    } else if(0 > x && fmod(y, 1) != 0) { 
03F2E:  BRA    4064
03F30:  MOVFF  5D7,603
03F34:  MOVFF  5D6,602
03F38:  MOVFF  5D5,601
03F3C:  MOVFF  5D4,600
03F40:  MOVLB  6
03F42:  CLRF   x07
03F44:  CLRF   x06
03F46:  CLRF   x05
03F48:  CLRF   x04
03F4A:  MOVLB  0
03F4C:  CALL   2390
03F50:  BNC   3FB2
03F52:  MOVFF  5DB,5DF
03F56:  MOVFF  5DA,5DE
03F5A:  MOVFF  5D9,5DD
03F5E:  MOVFF  5D8,5DC
03F62:  MOVLB  5
03F64:  CLRF   xE3
03F66:  CLRF   xE2
03F68:  CLRF   xE1
03F6A:  MOVLW  7F
03F6C:  MOVWF  xE0
03F6E:  MOVLB  0
03F70:  CALL   32B8
03F74:  MOVFF  00,5DC
03F78:  MOVFF  01,5DD
03F7C:  MOVFF  02,5DE
03F80:  MOVFF  03,5DF
03F84:  MOVFF  03,603
03F88:  MOVFF  02,602
03F8C:  MOVFF  01,601
03F90:  MOVFF  00,600
03F94:  MOVLB  6
03F96:  CLRF   x07
03F98:  CLRF   x06
03F9A:  CLRF   x05
03F9C:  CLRF   x04
03F9E:  MOVLB  0
03FA0:  CALL   2390
03FA4:  BZ    3FB2
....................       return 0; 
03FA6:  CLRF   00
03FA8:  CLRF   01
03FAA:  CLRF   02
03FAC:  CLRF   03
03FAE:  BRA    4064
....................    } else { 
03FB0:  BRA    4064
....................       if(x != 0 || 0 >= y) { 
03FB2:  MOVFF  5D7,603
03FB6:  MOVFF  5D6,602
03FBA:  MOVFF  5D5,601
03FBE:  MOVFF  5D4,600
03FC2:  MOVLB  6
03FC4:  CLRF   x07
03FC6:  CLRF   x06
03FC8:  CLRF   x05
03FCA:  CLRF   x04
03FCC:  MOVLB  0
03FCE:  CALL   2390
03FD2:  BNZ   3FF8
03FD4:  MOVFF  5DB,603
03FD8:  MOVFF  5DA,602
03FDC:  MOVFF  5D9,601
03FE0:  MOVFF  5D8,600
03FE4:  MOVLB  6
03FE6:  CLRF   x07
03FE8:  CLRF   x06
03FEA:  CLRF   x05
03FEC:  CLRF   x04
03FEE:  MOVLB  0
03FF0:  CALL   2390
03FF4:  BC    3FF8
03FF6:  BNZ   4064
....................          return (exp(log(x) * y)); 
03FF8:  MOVFF  5D7,5E3
03FFC:  MOVFF  5D6,5E2
04000:  MOVFF  5D5,5E1
04004:  MOVFF  5D4,5E0
04008:  CALL   346E
0400C:  MOVFF  00,5DC
04010:  MOVFF  01,5DD
04014:  MOVFF  02,5DE
04018:  MOVFF  03,5DF
0401C:  MOVFF  03,603
04020:  MOVFF  02,602
04024:  MOVFF  01,601
04028:  MOVFF  00,600
0402C:  MOVFF  5DB,607
04030:  MOVFF  5DA,606
04034:  MOVFF  5D9,605
04038:  MOVFF  5D8,604
0403C:  CALL   2E14
04040:  MOVFF  00,5DC
04044:  MOVFF  01,5DD
04048:  MOVFF  02,5DE
0404C:  MOVFF  03,5DF
04050:  MOVFF  03,5E3
04054:  MOVFF  02,5E2
04058:  MOVFF  01,5E1
0405C:  MOVFF  00,5E0
04060:  RCALL  394A
04062:  BRA    4064
....................       } 
....................    } 
.................... } 
04064:  RETLW  00
.................... //Overloaded functions for pow() for PCD 
.................... // Overloaded function for pow() data type - Float48 
.................... #if defined(__PCD__) 
.................... float48 pow(float48 x,float48 y) 
.................... { 
....................    if(0 > x && fmod(y, 1) == 0) { 
....................       if(fmod(y, 2) == 0) { 
....................          return (exp(log(-x) * y)); 
....................       } else { 
....................          return (-exp(log(-x) * y)); 
....................       } 
....................    } else if(0 > x && fmod(y, 1) != 0) { 
....................       return 0; 
....................    } else { 
....................       if(x != 0 || 0 >= y) { 
....................          return (exp(log(x) * y)); 
....................       } 
....................    } 
.................... } 
....................  
.................... // Overloaded function pow() for data type - Float64 
.................... float64 pow(float64 x,float64 y) 
.................... { 
....................    if(0 > x && fmod(y, 1) == 0) { 
....................       if(fmod(y, 2) == 0) { 
....................          return (exp(log(-x) * y)); 
....................       } else { 
....................          return (-exp(log(-x) * y)); 
....................       } 
....................    } else if(0 > x && fmod(y, 1) != 0) { 
....................       return 0; 
....................    } else { 
....................       if(x != 0 || 0 >= y) { 
....................          return (exp(log(x) * y)); 
....................       } 
....................    } 
.................... } 
.................... #endif 
....................  
.................... //////////////////////////////////////////////////////////////////////////// 
.................... //   float sqrt(float x) 
.................... //////////////////////////////////////////////////////////////////////////// 
.................... // Description : returns the square root of x 
.................... // Date : N/A 
.................... // 
.................... float32 sqrt(float32 x) 
.................... { 
....................    float32 y, res; 
....................    #if defined(__PCD__) 
....................    unsigned int16 data1,data2; 
....................    #endif 
....................    BYTE *p; 
....................  
....................    #ifdef _ERRNO 
....................    if(x < 0) 
....................    { 
....................       errno=EDOM; 
....................    } 
....................    #endif 
....................  
....................    if( x<=0.0) 
....................       return(0.0); 
....................  
....................    y=x; 
....................     
....................    #if !defined(__PCD__) 
....................     p=&y; 
....................    (*p)=(BYTE)((((unsigned int16)(*p)) + 127) >> 1); 
....................    #endif 
....................     
....................    #if defined(__PCD__) 
....................     p = (((unsigned int8 *)(&y))+3); 
....................     data1 = *(((unsigned int8 *)(&y))+3); 
....................     data2 = *(((unsigned int8 *)(&y))+2); 
....................     rotate_left(&data1,1);     
....................     if(bit_test(data2,7))     
....................     bit_set(data1,0);     
....................     data1 = ((data1+127) >>1); 
....................     bit_clear(data2,7); 
....................     if(bit_test(data1,0)) 
....................     bit_set(data2,7); 
....................     data1 = data1 >>1; 
....................     *(((unsigned int8 *)(&y))+3) = data1; 
....................     *(((unsigned int8 *)(&y))+2) = data2; 
....................      
....................   #endif 
....................  
....................    do { 
....................       res=y; 
....................       y+=(x/y); 
....................  
....................       #if !defined(__PCD__) 
....................      (*p)--; 
....................    #endif 
....................     
....................    #if defined(__PCD__) 
....................     data1 = *(((unsigned int8 *)(&y))+3); 
....................     data2 = *(((unsigned int8 *)(&y))+2); 
....................     rotate_left(&data1,1); 
....................     if(bit_test(data2,7)) 
....................     bit_set(data1,0);     
....................     data1--; 
....................     bit_clear(data2,7); 
....................     if(bit_test(data1,0)) 
....................     bit_set(data2,7); 
....................     data1 = data1 >>1; 
....................     *(((unsigned int8 *)(&y))+3) = data1; 
....................     *(((unsigned int8 *)(&y))+2) = data2; 
....................      
....................   #endif 
....................    } while(res != y); 
....................  
....................    return(res); 
.................... } 
.................... //Overloaded functions for sqrt() for PCD 
.................... // Overloaded function sqrt() for data type - Float48 
.................... #if defined(__PCD__) 
.................... float48 sqrt(float48 x) 
.................... { 
....................    float48 y, res; 
....................    unsigned int16 data1,data2; 
....................    BYTE *p; 
....................  
....................    #ifdef _ERRNO 
....................    if(x < 0) 
....................    { 
....................       errno=EDOM; 
....................    } 
....................    #endif 
....................  
....................    if( x<=0.0) 
....................       return(0.0); 
....................  
....................    y=x; 
....................     
....................    #if !defined(__PCD__) 
....................     p=&y; 
....................    (*p)=(BYTE)((((unsigned int16)(*p)) + 127) >> 1); 
....................    #endif 
....................     
....................    #if defined(__PCD__) 
....................     p = (((unsigned int8 *)(&y))+5); 
....................     data1 = *(((unsigned int8 *)(&y))+5); 
....................     data2 = *(((unsigned int8 *)(&y))+4); 
....................     rotate_left(&data1,1); 
....................     if(bit_test(data2,7)) 
....................     bit_set(data1,0);     
....................     data1 = ((data1+127) >>1); 
....................     bit_clear(data2,7); 
....................     if(bit_test(data1,0)) 
....................     bit_set(data2,7); 
....................     data1 = data1 >>1; 
....................     *(((unsigned int8 *)(&y))+5) = data1; 
....................     *(((unsigned int8 *)(&y))+4) = data2; 
....................      
....................   #endif 
....................  
....................    do { 
....................       res=y; 
....................       y+=(x/y); 
....................  
....................       #if !defined(__PCD__) 
....................      (*p)--; 
....................    #endif 
....................     
....................     data1 = *(((unsigned int8 *)(&y))+5); 
....................     data2 = *(((unsigned int8 *)(&y))+4); 
....................     rotate_left(&data1,1); 
....................     if(bit_test(data2,7)) 
....................     bit_set(data1,0);     
....................     data1--; 
....................     bit_clear(data2,7); 
....................     if(bit_test(data1,0)) 
....................     bit_set(data2,7); 
....................     data1 = data1 >>1; 
....................     *(((unsigned int8 *)(&y))+5) = data1; 
....................     *(((unsigned int8 *)(&y))+4) = data2; 
....................      
....................    } while(res != y); 
....................  
....................    return(res); 
.................... } 
....................  
.................... // Overloaded function sqrt() for data type - Float64 
.................... float64 sqrt(float64 x) 
.................... { 
....................    float64 y, res; 
....................    unsigned int16 *p; 
....................    unsigned int16 temp1,temp2; 
....................  
....................    #ifdef _ERRNO 
....................    if(x < 0) 
....................    { 
....................       errno=EDOM; 
....................    } 
....................    #endif 
....................  
....................    if( x<=0.0) 
....................       return(0.0); 
....................  
....................    y=x; 
....................    p= (((unsigned int16 *)(&y))+3); 
....................    temp1 = *p; 
....................    temp2 = *p; 
....................    bit_clear(temp1,15); 
....................    temp1 = (temp1>>4)+1023; 
....................    temp1 = temp1 >> 1; 
....................    temp1 = (temp1<<4) & 0xFFF0; 
....................    if(bit_test(temp2,15)) 
....................    bit_set(temp1,15); 
....................    temp2 = temp2 & 0x000F; 
....................    temp1 ^= temp2; 
....................     
....................    (*p) = temp1; 
....................     
....................    do { 
....................       res=y; 
....................       y+=(x/y); 
....................      temp1 = *p; 
....................      temp2 = *p; 
....................      bit_clear(temp1,15); 
....................      temp1 = (temp1>>4); 
....................      temp1--; 
....................      temp1 = (temp1<<4) & 0xFFF0; 
....................      if(bit_test(temp2,15)) 
....................      bit_set(temp1,15); 
....................      temp2 = temp2 & 0x000F; 
....................      temp1 ^= temp2; 
....................      (*p) = temp1; 
....................  
....................    } while(res != y); 
....................  
....................    return(res); 
.................... } 
.................... #endif 
....................  
.................... ////////////////////////////// Trig Functions ////////////////////////////// 
.................... #ifdef PI_DIV_BY_TWO 
.................... #undef PI_DIV_BY_TWO 
.................... #endif 
.................... #define PI_DIV_BY_TWO   1.5707963267948966 
.................... #ifdef TWOBYPI 
.................... #undef TWOBYPI 
.................... #define TWOBYPI          0.6366197723675813 
.................... #endif 
.................... //////////////////////////////////////////////////////////////////////////// 
.................... //   float cos(float x) 
.................... //////////////////////////////////////////////////////////////////////////// 
.................... // Description : returns the cosine value of the angle x, which is in radian 
.................... // Date : 9/20/2001 
.................... // 
.................... float32 cos(float32 x) 
.................... { 
....................    float32 y, t, t2 = 1.0; 
....................    unsigned int8 quad, i; 
....................    float32 frac; 
....................    float32 p[6] = {                    //by the series definition for cosine 
....................       -0.5,                            // sum ( ( (-1)^n * x^2n )/(2n)! ) 
....................        0.04166666666667, 
....................       -0.00138888888889, 
....................        0.00002480158730, 
....................       -0.00000027557319, 
....................        0.00000000208767, 
....................       //-0.00000000001147, 
....................       // 0.00000000000005 
....................    }; 
....................  
....................    if (x < 0) x = -x;                  // absolute value of input 
....................  
....................    quad = (unsigned int8)(x / PI_DIV_BY_TWO);    // quadrant 
....................    frac = (x / PI_DIV_BY_TWO) - quad;  // fractional part of input 
....................    quad = quad % 4;                    // quadrant (0 to 3) 
....................  
....................    if (quad == 0 || quad == 2) 
....................       t = frac * PI_DIV_BY_TWO; 
....................    else if (quad == 1) 
....................       t = (1-frac) * PI_DIV_BY_TWO; 
....................    else // should be 3 
....................       t = (frac-1) * PI_DIV_BY_TWO; 
....................  
....................    y = 1.0; 
....................    t = t * t; 
....................    for (i = 0; i <= 5; i++) 
....................    { 
....................       t2 = t2 * t; 
....................       y = y + p[i] * t2; 
....................    } 
....................  
....................    if (quad == 2 || quad == 1) 
....................       y = -y;  // correct sign 
....................  
....................    return (y); 
.................... } 
....................  
....................  
.................... //Overloaded functions for cos() for PCD 
.................... // Overloaded function cos() for data type - Float48 
.................... #if defined(__PCD__) 
.................... float48 cos(float48 x) 
.................... { 
....................    float48 y, t, t2 = 1.0; 
....................    unsigned int8 quad, i; 
....................    float48 frac; 
....................    float48 p[6] = {                    //by the series definition for cosine 
....................       -0.5,                            // sum ( ( (-1)^n * x^2n )/(2n)! ) 
....................        0.04166666666667, 
....................       -0.00138888888889, 
....................        0.00002480158730, 
....................       -0.00000027557319, 
....................        0.00000000208767, 
....................       //-0.00000000001147, 
....................       // 0.00000000000005 
....................    }; 
....................  
....................    if (x < 0) x = -x;                  // absolute value of input 
....................  
....................    quad = (unsigned int8)(x / PI_DIV_BY_TWO);    // quadrant 
....................    frac = (x / PI_DIV_BY_TWO) - quad;  // fractional part of input 
....................    quad = quad % 4;                    // quadrant (0 to 3) 
....................  
....................    if (quad == 0 || quad == 2) 
....................       t = frac * PI_DIV_BY_TWO; 
....................    else if (quad == 1) 
....................       t = (1-frac) * PI_DIV_BY_TWO; 
....................    else // should be 3 
....................       t = (frac-1) * PI_DIV_BY_TWO; 
....................  
....................    y = 0.999999999781; 
....................    t = t * t; 
....................    for (i = 0; i <= 5; i++) 
....................    { 
....................       t2 = t2 * t; 
....................       y = y + p[i] * t2; 
....................    } 
....................  
....................    if (quad == 2 || quad == 1) 
....................       y = -y;  // correct sign 
....................  
....................    return (y); 
.................... } 
....................  
.................... // Overloaded function cos() for data type - Float48 
.................... float64 cos(float64 x) 
.................... { 
....................    float64 y, t, t2 = 1.0; 
....................    unsigned int8 quad, i; 
....................    float64 frac; 
....................    float64 p[6] = {                    //by the series definition for cosine 
....................       -0.5,                            // sum ( ( (-1)^n * x^2n )/(2n)! ) 
....................        0.04166666666667, 
....................       -0.00138888888889, 
....................        0.00002480158730, 
....................       -0.00000027557319, 
....................        0.00000000208767, 
....................       //-0.00000000001147, 
....................       // 0.00000000000005 
....................    }; 
....................  
....................    if (x < 0) x = -x;                  // absolute value of input 
....................  
....................    quad = (unsigned int8)(x / PI_DIV_BY_TWO);    // quadrant 
....................    frac = (x / PI_DIV_BY_TWO) - quad;  // fractional part of input 
....................    quad = quad % 4;                    // quadrant (0 to 3) 
....................  
....................    if (quad == 0 || quad == 2) 
....................       t = frac * PI_DIV_BY_TWO; 
....................    else if (quad == 1) 
....................       t = (1-frac) * PI_DIV_BY_TWO; 
....................    else // should be 3 
....................       t = (frac-1) * PI_DIV_BY_TWO; 
....................  
....................    y = 0.999999999781; 
....................    t = t * t; 
....................    for (i = 0; i <= 5; i++) 
....................    { 
....................       t2 = t2 * t; 
....................       y = y + p[i] * t2; 
....................    } 
....................  
....................    if (quad == 2 || quad == 1) 
....................       y = -y;  // correct sign 
....................  
....................    return (y); 
.................... } 
....................  
.................... #endif 
....................  
.................... //////////////////////////////////////////////////////////////////////////// 
.................... //   float sin(float x) 
.................... //////////////////////////////////////////////////////////////////////////// 
.................... // Description : returns the sine value of the angle x, which is in radian 
.................... // Date : 9/20/2001 
.................... // 
.................... float32 sin(float32 x) 
.................... { 
....................    return cos(x - PI_DIV_BY_TWO); 
.................... } 
....................  
.................... //Overloaded functions for sin() for PCD 
.................... // Overloaded function sin() for data type - Float48 
.................... #if defined(__PCD__) 
.................... float48 sin(float48 x) 
.................... { 
....................    return cos(x - PI_DIV_BY_TWO); 
.................... } 
....................  
.................... // Overloaded function sin() for data type - Float48 
.................... float64 sin(float64 x) 
.................... { 
....................    return cos(x - PI_DIV_BY_TWO); 
.................... } 
.................... #endif 
....................  
.................... //////////////////////////////////////////////////////////////////////////// 
.................... //   float tan(float x) 
.................... //////////////////////////////////////////////////////////////////////////// 
.................... // Description : returns the tangent value of the angle x, which is in radian 
.................... // Date : 9/20/2001 
.................... // 
.................... float32 tan(float32 x) 
.................... { 
....................    float32 c, s; 
....................  
....................    c = cos(x); 
....................    if (c == 0.0) 
....................       return (1.0e+36); 
....................  
....................    s = sin(x); 
....................    return(s/c); 
.................... } 
.................... //Overloaded functions for tan() for PCD 
.................... // Overloaded function tan() for data type - Float48 
.................... #if defined(__PCD__) 
.................... float48 tan(float48 x) 
.................... { 
....................    float48 c, s; 
....................  
....................    c = cos(x); 
....................    if (c == 0.0) 
....................       return (1.0e+36); 
....................  
....................    s = sin(x); 
....................    return(s/c); 
.................... } 
....................  
.................... // Overloaded function tan() for data type - Float48 
.................... float64 tan(float64 x) 
.................... { 
....................    float64 c, s; 
....................  
....................    c = cos(x); 
....................    if (c == 0.0) 
....................       return (1.0e+36); 
....................  
....................    s = sin(x); 
....................    return(s/c); 
.................... } 
.................... #endif 
....................  
.................... float32 const pas[3] = {0.49559947, -4.6145309, 5.6036290}; 
.................... float32 const qas[3] = {1.0000000,  -5.5484666, 5.6036290}; 
....................  
.................... float32 ASIN_COS(float32 x, unsigned int8 n) 
.................... { 
....................    float32 y, res, r, y2; 
....................    int1 s; 
....................    #ifdef _ERRNO 
....................    if(x <-1 || x > 1) 
....................    { 
....................       errno=EDOM; 
....................    } 
....................    #endif 
....................    s = 0; 
....................    y = x; 
....................  
....................    if (x < 0) 
....................    { 
....................       s = 1; 
....................       y = -y; 
....................    } 
....................  
....................    if (y > 0.5) 
....................    { 
....................       y = sqrt((1.0 - y)/2.0); 
....................       n += 2; 
....................    } 
....................  
....................    y2=y*y; 
....................  
....................    res = pas[0]*y2 + pas[1]; 
....................    res = res*y2 + pas[2]; 
....................  
....................    r = qas[0]*y2 + qas[1]; 
....................    r = r*y2 + qas[2]; 
....................  
....................    res = y*res/r; 
....................  
....................    if (n & 2)     // |x| > 0.5 
....................       res = PI_DIV_BY_TWO - 2.0*res; 
....................    if (s) 
....................       res = -res; 
....................    if (n & 1)           // take arccos 
....................       res = PI_DIV_BY_TWO - res; 
....................  
....................    return(res); 
.................... } 
....................  
.................... //Overloaded functions for ASIN_COS() for PCD 
.................... // Overloaded function ASIN_COS() for data type - Float48 
.................... #if defined(__PCD__) 
.................... float48 ASIN_COS(float48 x, unsigned int8 n) 
.................... { 
....................    float48 y, res, r, y2; 
....................    int1 s; 
....................    #ifdef _ERRNO 
....................    if(x <-1 || x > 1) 
....................    { 
....................       errno=EDOM; 
....................    } 
....................    #endif 
....................    s = 0; 
....................    y = x; 
....................  
....................    if (x < 0) 
....................    { 
....................       s = 1; 
....................       y = -y; 
....................    } 
....................  
....................    if (y > 0.5) 
....................    { 
....................       y = sqrt((1.0 - y)/2.0); 
....................       n += 2; 
....................    } 
....................  
....................    y2=y*y; 
....................  
....................    res = pas[0]*y2 + pas[1]; 
....................    res = res*y2 + pas[2]; 
....................  
....................    r = qas[0]*y2 + qas[1]; 
....................    r = r*y2 + qas[2]; 
....................  
....................    res = y*res/r; 
....................  
....................    if (n & 2)     // |x| > 0.5 
....................       res = PI_DIV_BY_TWO - 2.0*res; 
....................    if (s) 
....................       res = -res; 
....................    if (n & 1)           // take arccos 
....................       res = PI_DIV_BY_TWO - res; 
....................  
....................    return(res); 
.................... } 
....................  
.................... // Overloaded function ASIN_COS() for data type - Float64 
.................... float64 ASIN_COS(float64 x, unsigned int8 n) 
.................... { 
....................    float64 y, res, r, y2; 
....................    int1 s; 
....................    #ifdef _ERRNO 
....................    if(x <-1 || x > 1) 
....................    { 
....................       errno=EDOM; 
....................    } 
....................    #endif 
....................    s = 0; 
....................    y = x; 
....................  
....................    if (x < 0) 
....................    { 
....................       s = 1; 
....................       y = -y; 
....................    } 
....................  
....................    if (y > 0.5) 
....................    { 
....................       y = sqrt((1.0 - y)/2.0); 
....................       n += 2; 
....................    } 
....................  
....................    y2=y*y; 
....................  
....................    res = pas[0]*y2 + pas[1]; 
....................    res = res*y2 + pas[2]; 
....................  
....................    r = qas[0]*y2 + qas[1]; 
....................    r = r*y2 + qas[2]; 
....................  
....................    res = y*res/r; 
....................  
....................    if (n & 2)     // |x| > 0.5 
....................       res = PI_DIV_BY_TWO - 2.0*res; 
....................    if (s) 
....................       res = -res; 
....................    if (n & 1)           // take arccos 
....................       res = PI_DIV_BY_TWO - res; 
....................  
....................    return(res); 
.................... } 
.................... #endif 
....................  
.................... //////////////////////////////////////////////////////////////////////////// 
.................... //   float asin(float x) 
.................... //////////////////////////////////////////////////////////////////////////// 
.................... // Description : returns the arcsine value of the value x. 
.................... // Date : N/A 
.................... // 
.................... float32 asin(float32 x) 
.................... { 
....................    float32 r; 
....................  
....................    r = ASIN_COS(x, 0); 
....................    return(r); 
.................... } 
.................... //Overloaded functions for asin() for PCD 
.................... // Overloaded function asin() for data type - Float48 
.................... #if defined(__PCD__) 
.................... float48 asin(float48 x) 
.................... { 
....................    float48 r; 
....................  
....................    r = ASIN_COS(x, 0); 
....................    return(r); 
.................... } 
....................  
.................... // Overloaded function asin() for data type - Float64 
.................... float64 asin(float64 x) 
.................... { 
....................    float64 r; 
....................  
....................    r = ASIN_COS(x, 0); 
....................    return(r); 
.................... } 
.................... #endif 
....................  
.................... //////////////////////////////////////////////////////////////////////////// 
.................... //   float acos(float x) 
.................... //////////////////////////////////////////////////////////////////////////// 
.................... // Description : returns the arccosine value of the value x. 
.................... // Date : N/A 
.................... // 
.................... float32 acos(float32 x) 
.................... { 
....................    float32 r; 
....................  
....................    r = ASIN_COS(x, 1); 
....................    return(r); 
.................... } 
.................... //Overloaded functions for acos() for PCD 
.................... // Overloaded function acos() for data type - Float48 
.................... #if defined(__PCD__) 
.................... float48 acos(float48 x) 
.................... { 
....................    float48 r; 
....................  
....................    r = ASIN_COS(x, 1); 
....................    return(r); 
.................... } 
....................  
.................... // Overloaded function acos() for data type - Float64 
.................... float64 acos(float64 x) 
.................... { 
....................    float64 r; 
....................  
....................    r = ASIN_COS(x, 1); 
....................    return(r); 
.................... } 
.................... #endif 
....................  
.................... float32 const pat[4] = {0.17630401, 5.6710795, 22.376096, 19.818457}; 
.................... float32 const qat[4] = {1.0000000,  11.368190, 28.982246, 19.818457}; 
....................  
.................... //////////////////////////////////////////////////////////////////////////// 
.................... //   float atan(float x) 
.................... //////////////////////////////////////////////////////////////////////////// 
.................... // Description : returns the arctangent value of the value x. 
.................... // Date : N/A 
.................... // 
.................... float32 atan(float32 x) 
.................... { 
....................    float32 y, res, r; 
....................    int1 s, flag; 
....................  
....................    s = 0; 
....................    flag = 0; 
....................    y = x; 
....................  
....................    if (x < 0) 
....................    { 
....................       s = 1; 
....................       y = -y; 
....................    } 
....................  
....................    if (y > 1.0) 
....................    { 
....................       y = 1.0/y; 
....................       flag = 1; 
....................    } 
....................  
....................    res = pat[0]*y*y + pat[1]; 
....................    res = res*y*y + pat[2]; 
....................    res = res*y*y + pat[3]; 
....................  
....................    r = qat[0]*y*y + qat[1]; 
....................    r = r*y*y + qat[2]; 
....................    r = r*y*y + qat[3]; 
....................  
....................    res = y*res/r; 
....................  
....................  
....................    if (flag)                              // for |x| > 1 
....................       res = PI_DIV_BY_TWO - res; 
....................    if (s) 
....................       res = -res; 
....................  
....................    return(res); 
.................... } 
.................... //Overloaded functions for atan() for PCD 
.................... // Overloaded function atan() for data type - Float48 
.................... #if defined(__PCD__) 
.................... float48 atan(float48 x) 
.................... { 
....................    float48 y, res, r; 
....................    int1 s, flag; 
....................  
....................    s = 0; 
....................    flag = 0; 
....................    y = x; 
....................  
....................    if (x < 0) 
....................    { 
....................       s = 1; 
....................       y = -y; 
....................    } 
....................  
....................    if (y > 1.0) 
....................    { 
....................       y = 1.0/y; 
....................       flag = 1; 
....................    } 
....................  
....................    res = pat[0]*y*y + pat[1]; 
....................    res = res*y*y + pat[2]; 
....................    res = res*y*y + pat[3]; 
....................  
....................    r = qat[0]*y*y + qat[1]; 
....................    r = r*y*y + qat[2]; 
....................    r = r*y*y + qat[3]; 
....................  
....................    res = y*res/r; 
....................  
....................  
....................    if (flag)                              // for |x| > 1 
....................       res = PI_DIV_BY_TWO - res; 
....................    if (s) 
....................       res = -res; 
....................  
....................    return(res); 
.................... } 
....................  
.................... // Overloaded function atan() for data type - Float64 
.................... float64 atan(float64 x) 
.................... { 
....................    float64 y, res, r; 
....................    int1 s, flag; 
....................  
....................    s = 0; 
....................    flag = 0; 
....................    y = x; 
....................  
....................    if (x < 0) 
....................    { 
....................       s = 1; 
....................       y = -y; 
....................    } 
....................  
....................    if (y > 1.0) 
....................    { 
....................       y = 1.0/y; 
....................       flag = 1; 
....................    } 
....................  
....................    res = pat[0]*y*y + pat[1]; 
....................    res = res*y*y + pat[2]; 
....................    res = res*y*y + pat[3]; 
....................  
....................    r = qat[0]*y*y + qat[1]; 
....................    r = r*y*y + qat[2]; 
....................    r = r*y*y + qat[3]; 
....................  
....................    res = y*res/r; 
....................  
....................  
....................    if (flag)                              // for |x| > 1 
....................       res = PI_DIV_BY_TWO - res; 
....................    if (s) 
....................       res = -res; 
....................  
....................    return(res); 
.................... } 
.................... #endif 
....................  
.................... ///////////////////////////////////////////////////////////////////////////// 
.................... //   float atan2(float y, float x) 
.................... ///////////////////////////////////////////////////////////////////////////// 
.................... // Description :computes the principal value of arc tangent of y/x, using the 
.................... // signs of both the arguments to determine the quadrant of the return value 
.................... // Returns : returns the arc tangent of y/x. 
.................... // Date : N/A 
.................... // 
....................  
.................... float32 atan2(float32 y,float32 x) 
.................... { 
....................    float32 z; 
....................    int1 sign; 
....................    unsigned int8 quad; 
....................    sign=0; 
....................    quad=0; //quadrant 
....................    quad=((y<=0.0)?((x<=0.0)?3:4):((x<0.0)?2:1)); 
....................    if(y<0.0) 
....................    { 
....................       sign=1; 
....................       y=-y; 
....................    } 
....................    if(x<0.0) 
....................    { 
....................       x=-x; 
....................    } 
....................    if (x==0.0) 
....................    { 
....................       if(y==0.0) 
....................       { 
....................       #ifdef _ERRNO 
....................       { 
....................          errno=EDOM; 
....................       } 
....................       #endif 
....................       } 
....................       else 
....................       { 
....................          if(sign) 
....................          { 
....................          return (-(PI_DIV_BY_TWO)); 
....................          } 
....................          else 
....................          { 
....................          return (PI_DIV_BY_TWO); 
....................          } 
....................       } 
....................    } 
....................    else 
....................    { 
....................       z=y/x; 
....................       switch(quad) 
....................       { 
....................          case 1: 
....................          { 
....................             return atan(z); 
....................             break; 
....................          } 
....................          case 2: 
....................          { 
.................... //            return (atan(z)+PI_DIV_BY_TWO);  //2L3122 
....................             return (PI-atan(z)); 
....................             break; 
....................          } 
....................          case 3: 
....................          { 
....................             return (atan(z)-PI); 
....................             break; 
....................          } 
....................          case 4: 
....................          { 
....................             return (-atan(z)); 
....................             break; 
....................          } 
....................       } 
....................    } 
.................... } 
....................  
.................... //Overloaded functions for atan2() for PCD 
.................... // Overloaded function atan2() for data type - Float48 
.................... #if defined(__PCD__) 
.................... float48 atan2(float48 y,float48 x) 
.................... { 
....................    float48 z; 
....................    int1 sign; 
....................    unsigned int8 quad; 
....................    sign=0; 
....................    quad=0; //quadrant 
....................    quad=((y<=0.0)?((x<=0.0)?3:4):((x<0.0)?2:1)); 
....................    if(y<0.0) 
....................    { 
....................       sign=1; 
....................       y=-y; 
....................    } 
....................    if(x<0.0) 
....................    { 
....................       x=-x; 
....................    } 
....................    if (x==0.0) 
....................    { 
....................       if(y==0.0) 
....................       { 
....................       #ifdef _ERRNO 
....................       { 
....................          errno=EDOM; 
....................       } 
....................       #endif 
....................       } 
....................       else 
....................       { 
....................          if(sign) 
....................          { 
....................          return (-(PI_DIV_BY_TWO)); 
....................          } 
....................          else 
....................          { 
....................          return (PI_DIV_BY_TWO); 
....................          } 
....................       } 
....................    } 
....................    else 
....................    { 
....................       z=y/x; 
....................       switch(quad) 
....................       { 
....................          case 1: 
....................          { 
....................             return atan(z); 
....................             break; 
....................          } 
....................          case 2: 
....................          { 
.................... //            return (atan(z)+PI_DIV_BY_TWO);  //2L3122 
....................             return (PI-atan(z)); 
....................             break; 
....................          } 
....................          case 3: 
....................          { 
....................             return (atan(z)-PI); 
....................             break; 
....................          } 
....................          case 4: 
....................          { 
....................             return (-atan(z)); 
....................             break; 
....................          } 
....................       } 
....................    } 
.................... } 
....................  
.................... // Overloaded function atan2() for data type - Float64 
.................... float64 atan2(float64 y,float64 x) 
.................... { 
....................    float64 z; 
....................    int1 sign; 
....................    unsigned int8 quad; 
....................    sign=0; 
....................    quad=0; //quadrant 
....................    quad=((y<=0.0)?((x<=0.0)?3:4):((x<0.0)?2:1)); 
....................    if(y<0.0) 
....................    { 
....................       sign=1; 
....................       y=-y; 
....................    } 
....................    if(x<0.0) 
....................    { 
....................       x=-x; 
....................    } 
....................    if (x==0.0) 
....................    { 
....................       if(y==0.0) 
....................       { 
....................       #ifdef _ERRNO 
....................       { 
....................          errno=EDOM; 
....................       } 
....................       #endif 
....................       } 
....................       else 
....................       { 
....................          if(sign) 
....................          { 
....................          return (-(PI_DIV_BY_TWO)); 
....................          } 
....................          else 
....................          { 
....................          return (PI_DIV_BY_TWO); 
....................          } 
....................       } 
....................    } 
....................    else 
....................    { 
....................       z=y/x; 
....................       switch(quad) 
....................       { 
....................          case 1: 
....................          { 
....................             return atan(z); 
....................             break; 
....................          } 
....................          case 2: 
....................          { 
.................... //            return (atan(z)+PI_DIV_BY_TWO);  //2L3122 
....................             return (PI-atan(z)); 
....................             break; 
....................          } 
....................          case 3: 
....................          { 
....................             return (atan(z)-PI); 
....................             break; 
....................          } 
....................          case 4: 
....................          { 
....................             return (-atan(z)); 
....................             break; 
....................          } 
....................       } 
....................    } 
.................... } 
.................... #endif 
....................  
.................... //////////////////// Hyperbolic functions //////////////////// 
....................  
.................... //////////////////////////////////////////////////////////////////////////// 
.................... //   float cosh(float x) 
.................... //////////////////////////////////////////////////////////////////////////// 
.................... // Description : Computes the hyperbolic cosine value of x 
.................... // Returns : returns the hyperbolic cosine value of x 
.................... // Date : N/A 
.................... // 
....................  
.................... float32 cosh(float32 x) 
.................... { 
....................    return ((exp(x)+exp(-x))/2); 
.................... } 
.................... //Overloaded functions for cosh() for PCD 
.................... // Overloaded function cosh() for data type - Float48 
.................... #if defined(__PCD__) 
.................... float48 cosh(float48 x) 
.................... { 
....................    return ((exp(x)+exp(-x))/2); 
.................... } 
....................  
.................... // Overloaded function cosh() for data type - Float64 
.................... float64 cosh(float64 x) 
.................... { 
....................    return ((exp(x)+exp(-x))/2); 
.................... } 
.................... #endif 
....................  
.................... //////////////////////////////////////////////////////////////////////////// 
.................... //   float sinh(float x) 
.................... //////////////////////////////////////////////////////////////////////////// 
.................... // Description : Computes the hyperbolic sine value of x 
.................... // Returns : returns the hyperbolic sine value of x 
.................... // Date : N/A 
.................... // 
....................  
.................... float32 sinh(float32 x) 
.................... { 
....................  
....................    return ((exp(x) - exp(-x))/2); 
.................... } 
.................... //Overloaded functions for sinh() for PCD 
.................... // Overloaded function sinh() for data type - Float48 
.................... #if defined(__PCD__) 
.................... float48 sinh(float48 x) 
.................... { 
....................  
....................    return ((exp(x) - exp(-x))/2); 
.................... } 
....................  
.................... // Overloaded function sinh() for data type - Float48 
.................... float64 sinh(float64 x) 
.................... { 
....................  
....................    return ((exp(x) - exp(-x))/2); 
.................... } 
.................... #endif 
....................  
.................... //////////////////////////////////////////////////////////////////////////// 
.................... //   float tanh(float x) 
.................... //////////////////////////////////////////////////////////////////////////// 
.................... // Description : Computes the hyperbolic tangent value of x 
.................... // Returns : returns the hyperbolic tangent value of x 
.................... // Date : N/A 
.................... // 
....................  
.................... float32 tanh(float32 x) 
.................... { 
....................    return(sinh(x)/cosh(x)); 
.................... } 
.................... //Overloaded functions for tanh() for PCD 
.................... // Overloaded function tanh() for data type - Float48 
.................... #if defined(__PCD__) 
.................... float48 tanh(float48 x) 
.................... { 
....................    return(sinh(x)/cosh(x)); 
.................... } 
....................  
.................... // Overloaded function tanh() for data type - Float64 
.................... float64 tanh(float64 x) 
.................... { 
....................    return(sinh(x)/cosh(x)); 
.................... } 
.................... #endif 
....................  
.................... //////////////////////////////////////////////////////////////////////////// 
.................... //   float frexp(float x, signed int *exp) 
.................... //////////////////////////////////////////////////////////////////////////// 
.................... // Description : breaks a floating point number into a normalized fraction and an integral 
.................... // power of 2. It stores the integer in the signed int object pointed to by exp. 
.................... // Returns : returns the value x, such that x is a double with magnitude in the interval 
.................... // [1/2,1) or zero, and value equals x times 2 raised to the power *exp.If value is zero, 
.................... // both parts of the result are zero. 
.................... // Date : N/A 
.................... // 
....................  
.................... #define LOG2 .30102999566398119521 
.................... float32 frexp(float32 x, signed int8 *exp) 
.................... { 
....................    float32 res; 
....................    int1 sign = 0; 
....................    if(x == 0.0) 
....................    { 
....................       *exp=0; 
....................       return (0.0); 
....................    } 
....................    if(x < 0.0) 
....................    { 
....................      x=-x; 
....................      sign=1; 
....................    } 
....................    if (x > 1.0) 
....................    { 
....................       *exp=(ceil(log10(x)/LOG2)); 
....................       res=x/(pow(2, *exp)); 
....................       if (res == 1) 
....................       { 
....................          *exp=*exp+1; 
....................           res=.5; 
....................       } 
....................    } 
....................    else 
....................    { 
....................       if(x < 0.5) 
....................       { 
....................          *exp=-1; 
....................          res=x*2; 
....................       } 
....................       else 
....................       { 
....................          *exp=0; 
....................           res=x; 
....................       } 
....................    } 
....................    if(sign) 
....................    { 
....................       res=-res; 
....................    } 
....................    return res; 
.................... } 
....................  
.................... //Overloaded functions for frexp() for PCD 
.................... // Overloaded function frexp() for data type - Float48 
.................... #if defined(__PCD__) 
.................... float48 frexp(float48 x, signed int8 *exp) 
.................... { 
....................    float48 res; 
....................    int1 sign = 0; 
....................    if(x == 0.0) 
....................    { 
....................       *exp=0; 
....................       return (0.0); 
....................    } 
....................    if(x < 0.0) 
....................    { 
....................      x=-x; 
....................      sign=1; 
....................    } 
....................    if (x > 1.0) 
....................    { 
....................       *exp=(ceil(log10(x)/LOG2)); 
....................       res=x/(pow(2, *exp)); 
....................       if (res == 1) 
....................       { 
....................          *exp=*exp+1; 
....................           res=.5; 
....................       } 
....................    } 
....................    else 
....................    { 
....................       if(x < 0.5) 
....................       { 
....................          *exp=-1; 
....................          res=x*2; 
....................       } 
....................       else 
....................       { 
....................          *exp=0; 
....................           res=x; 
....................       } 
....................    } 
....................    if(sign) 
....................    { 
....................       res=-res; 
....................    } 
....................    return res; 
.................... } 
....................  
.................... // Overloaded function frexp() for data type - Float64 
.................... float64 frexp(float64 x, signed int8 *exp) 
.................... { 
....................    float64 res; 
....................    int1 sign = 0; 
....................    if(x == 0.0) 
....................    { 
....................       *exp=0; 
....................       return (0.0); 
....................    } 
....................    if(x < 0.0) 
....................    { 
....................      x=-x; 
....................      sign=1; 
....................    } 
....................    if (x > 1.0) 
....................    { 
....................       *exp=(ceil(log10(x)/LOG2)); 
....................       res=x/(pow(2, *exp)); 
....................       if (res == 1) 
....................       { 
....................          *exp=*exp+1; 
....................           res=.5; 
....................       } 
....................    } 
....................    else 
....................    { 
....................       if(x < 0.5) 
....................       { 
....................          *exp=-1; 
....................          res=x*2; 
....................       } 
....................       else 
....................       { 
....................          *exp=0; 
....................           res=x; 
....................       } 
....................    } 
....................    if(sign) 
....................    { 
....................       res=-res; 
....................    } 
....................    return res; 
.................... } 
.................... #endif 
....................  
.................... ////////////////////////////////////////////////////////////////////////////// 
.................... //   float ldexp(float x, signed int *exp) 
.................... ////////////////////////////////////////////////////////////////////////////// 
.................... // Description : multiplies a floating point number by an integral power of 2. 
.................... // Returns : returns the value of x times 2 raised to the power exp. 
.................... // Date : N/A 
.................... // 
....................  
.................... float32 ldexp(float32 value, signed int8 exp) 
.................... { 
....................    return (value * pow(2,exp)); 
.................... } 
.................... //Overloaded functions for ldexp() for PCD 
.................... // Overloaded function ldexp() for data type - Float48 
....................  
.................... #if defined(__PCD__) 
.................... float48 ldexp(float48 value, signed int8 exp) 
.................... { 
....................    return (value * pow(2,exp)); 
.................... } 
.................... // Overloaded function ldexp() for data type - Float64 
.................... float64 ldexp(float64 value, signed int8 exp) 
.................... { 
....................    return (value * pow(2,exp)); 
.................... } 
.................... #endif 
....................  
.................... #endif 
....................  
.................... #include "HDM64GS12.c" 
.................... ///////////////////////////////////////////////////////////////////////// 
.................... ////                           HDM64GS12.c                           //// 
.................... ////                                                                 //// 
.................... //// This file contains drivers for using a Hantronix HDM64GS12 with //// 
.................... //// a KS0108 display controller. The HDM64GS12 is 128 by 64 pixels. //// 
.................... //// The driver treats the upper left pixel as (0,0).                //// 
.................... ////                                                                 //// 
.................... //// Use #define FAST_GLCD if the target chip has at least 1k of RAM //// 
.................... //// to decrease the time it takes to update the display.            //// 
.................... //// glcd_update() must then be called to update the display after   //// 
.................... //// changing the pixel information.                                 //// 
.................... //// See ex_glcd.c for suggested usage.                              //// 
.................... //// See KS0108.c for controlling a single 64 by 64 display          //// 
.................... ///////////////////////////////////////////////////////////////////////// 
.................... ////                                                                 //// 
.................... //// LCD Pin connections:                                            //// 
.................... //// (These can be changed as needed in the following defines).      //// 
.................... ////  * 1: VSS is connected to GND                                   //// 
.................... ////  * 2: VDD is connected to +5V                                   //// 
.................... ////  * 3: V0  - LCD operating voltage (Constrast adjustment)        //// 
.................... ////  * 4: D/I - Data or Instruction is connected to B2              //// 
.................... ////  * 5: R/W - Read or Write is connected to B4                    //// 
.................... ////  * 6: Enable is connected to B5                                 //// 
.................... ////  *7-14: Data Bus 0 to 7 is connected to port d                  //// 
.................... ////  *15: Chip Select 1 is connected to B0                          //// 
.................... ////  *16: Chip Select 2 is connected to B1                          //// 
.................... ////  *17: Reset is connected to C0                                  //// 
.................... ////  *18: Negative voltage is also connected to the 20k Ohm POT     //// 
.................... ////  *19: Positive voltage for LED backlight is connected to +5V    //// 
.................... ////  *20: Negavtive voltage for LED backlight is connected to GND   //// 
.................... ////                                                                 //// 
.................... ///////////////////////////////////////////////////////////////////////// 
.................... ////                                                                 //// 
.................... ////  glcd_init(mode)                                                //// 
.................... ////     * Must be called before any other function.                 //// 
.................... ////       - mode can be ON or OFF to turn the LCD on or off         //// 
.................... ////                                                                 //// 
.................... ////  glcd_pixel(x,y,color)                                          //// 
.................... ////     * Sets the pixel to the given color.                        //// 
.................... ////       - color can be ON or OFF                                  //// 
.................... ////                                                                 //// 
.................... ////  glcd_fillScreen(color)                                         //// 
.................... ////     * Fills the entire LCD with the given color.                //// 
.................... ////       - color can be ON or OFF                                  //// 
.................... ////                                                                 //// 
.................... ////  glcd_update()                                                  //// 
.................... ////     * Write the display data stored in RAM to the LCD           //// 
.................... ////     * Only available if FAST_GLCD is defined                    //// 
.................... ////                                                                 //// 
.................... ///////////////////////////////////////////////////////////////////////// 
.................... ////        (C) Copyright 1996, 2004 Custom Computer Services        //// 
.................... //// This source code may only be used by licensed users of the CCS  //// 
.................... //// C compiler.  This source code may only be distributed to other  //// 
.................... //// licensed users of the CCS C compiler.  No other use,            //// 
.................... //// reproduction or distribution is permitted without written       //// 
.................... //// permission.  Derivative programs created using this software    //// 
.................... //// in object code form are not restricted in any way.              //// 
.................... ///////////////////////////////////////////////////////////////////////// 
....................  
....................  
....................  
.................... #ifndef HDM64GS12 
.................... #define HDM64GS12 
....................  
.................... #ifndef FAST_GLCD 
.................... #define FAST_GLCD 
....................  
.................... #ifndef GLCD_WIDTH 
.................... #define GLCD_WIDTH   128 
.................... #endif 
....................  
.................... #ifndef GLCD_CS1 
.................... #define GLCD_CS1     PIN_B2   // Chip Selection 1 
.................... #endif 
....................  
.................... #ifndef GLCD_CS2 
.................... #define GLCD_CS2     PIN_B3   // Chip Selection 2 
.................... #endif 
....................  
.................... #ifndef GLCD_DI 
.................... #define GLCD_DI      PIN_B5   // Data or Instruction input 
.................... #endif 
....................  
.................... #ifndef GLCD_RW 
.................... #define GLCD_RW      PIN_B6   // Read/Write 
.................... #endif 
....................  
.................... #ifndef GLCD_E 
.................... #define GLCD_E       PIN_B7   // Enable 
.................... #endif 
....................  
.................... #ifndef GLCD_RST 
.................... #define GLCD_RST     PIN_B4   // Reset 
.................... #endif 
....................  
.................... #define GLCD_LEFT    0 
.................... #define GLCD_RIGHT   1 
....................  
.................... #ifndef ON 
.................... #define ON           1 
.................... #endif 
....................  
.................... #ifndef OFF 
.................... #define OFF          0 
.................... #endif 
....................  
.................... ///////////////////////////////////////////////////////////////////////// 
.................... // Function Prototypes 
.................... ///////////////////////////////////////////////////////////////////////// 
.................... void glcd_init(int1 mode); 
.................... void glcd_pixel(int8 x, int8 y, int1 color); 
.................... void glcd_fillScreen(int1 color); 
.................... void glcd_writeByte(int1 side, BYTE data); 
.................... BYTE glcd_readByte(int1 side); 
.................... void glcd_update(); 
.................... ///////////////////////////////////////////////////////////////////////// 
....................  
.................... #ifdef FAST_GLCD 
.................... struct 
.................... { 
....................    int8 left[512]; 
....................    int8 right[512]; 
.................... } displayData; 
.................... #endif 
....................  
....................  
.................... // Purpose:       Initialize the LCD. 
.................... //                Call before using any other LCD function. 
.................... // Inputs:        OFF - Turns the LCD off 
.................... //                ON  - Turns the LCD on 
.................... void glcd_init(int1 mode) 
.................... { 
....................    // Initialze some pins 
....................    output_high(GLCD_RST); 
*
0174E:  BCF    F93.4
01750:  BSF    F8A.4
....................    output_low(GLCD_E); 
01752:  BCF    F93.7
01754:  BCF    F8A.7
....................    output_low(GLCD_CS1); 
01756:  BCF    F93.2
01758:  BCF    F8A.2
....................    output_low(GLCD_CS2); 
0175A:  BCF    F93.3
0175C:  BCF    F8A.3
....................  
....................    output_low(GLCD_DI);                 // Set for instruction 
0175E:  BCF    F93.5
01760:  BCF    F8A.5
....................    glcd_writeByte(GLCD_LEFT,  0xC0);    // Specify first RAM line at the top 
01762:  MOVLB  5
01764:  CLRF   xDE
01766:  MOVLW  C0
01768:  MOVWF  xDF
0176A:  MOVLB  0
0176C:  RCALL  1606
....................    glcd_writeByte(GLCD_RIGHT, 0xC0);    //   of the screen 
0176E:  MOVLW  01
01770:  MOVLB  5
01772:  MOVWF  xDE
01774:  MOVLW  C0
01776:  MOVWF  xDF
01778:  MOVLB  0
0177A:  RCALL  1606
....................    glcd_writeByte(GLCD_LEFT,  0x40);    // Set the column address to 0 
0177C:  MOVLB  5
0177E:  CLRF   xDE
01780:  MOVLW  40
01782:  MOVWF  xDF
01784:  MOVLB  0
01786:  RCALL  1606
....................    glcd_writeByte(GLCD_RIGHT, 0x40); 
01788:  MOVLW  01
0178A:  MOVLB  5
0178C:  MOVWF  xDE
0178E:  MOVLW  40
01790:  MOVWF  xDF
01792:  MOVLB  0
01794:  RCALL  1606
....................    glcd_writeByte(GLCD_LEFT,  0xB8);    // Set the page address to 0 
01796:  MOVLB  5
01798:  CLRF   xDE
0179A:  MOVLW  B8
0179C:  MOVWF  xDF
0179E:  MOVLB  0
017A0:  RCALL  1606
....................    glcd_writeByte(GLCD_RIGHT, 0xB8); 
017A2:  MOVLW  01
017A4:  MOVLB  5
017A6:  MOVWF  xDE
017A8:  MOVLW  B8
017AA:  MOVWF  xDF
017AC:  MOVLB  0
017AE:  RCALL  1606
....................  
....................    if(mode == ON) 
017B0:  MOVLB  5
017B2:  DECFSZ xCF,W
017B4:  BRA    17D2
....................    { 
....................       glcd_writeByte(GLCD_LEFT,  0x3F); // Turn the display on 
017B6:  CLRF   xDE
017B8:  MOVLW  3F
017BA:  MOVWF  xDF
017BC:  MOVLB  0
017BE:  RCALL  1606
....................       glcd_writeByte(GLCD_RIGHT, 0x3F); 
017C0:  MOVLW  01
017C2:  MOVLB  5
017C4:  MOVWF  xDE
017C6:  MOVLW  3F
017C8:  MOVWF  xDF
017CA:  MOVLB  0
017CC:  RCALL  1606
....................    } 
....................    else 
017CE:  BRA    17EA
017D0:  MOVLB  5
....................    { 
....................       glcd_writeByte(GLCD_LEFT,  0x3E); // Turn the display off 
017D2:  CLRF   xDE
017D4:  MOVLW  3E
017D6:  MOVWF  xDF
017D8:  MOVLB  0
017DA:  RCALL  1606
....................       glcd_writeByte(GLCD_RIGHT, 0x3E); 
017DC:  MOVLW  01
017DE:  MOVLB  5
017E0:  MOVWF  xDE
017E2:  MOVLW  3E
017E4:  MOVWF  xDF
017E6:  MOVLB  0
017E8:  RCALL  1606
....................    } 
....................  
....................    glcd_fillScreen(OFF);                // Clear the display 
017EA:  MOVLB  5
017EC:  CLRF   xD7
017EE:  MOVLB  0
017F0:  RCALL  163C
....................  
....................    #ifdef FAST_GLCD 
....................    glcd_update(); 
017F2:  RCALL  1696
....................    #endif 
.................... } 
017F4:  RETLW  00
....................  
....................  
.................... // Purpose:    Update the LCD with data from the display arrays 
.................... #ifdef FAST_GLCD 
.................... void glcd_update() 
.................... { 
....................    int8 i, j; 
....................    int8 *p1, *p2; 
....................  
....................    p1 = displayData.left; 
*
01696:  MOVLB  5
01698:  CLRF   xDA
0169A:  MOVLW  17
0169C:  MOVWF  xD9
....................    p2 = displayData.right; 
0169E:  MOVLW  02
016A0:  MOVWF  xDC
016A2:  MOVLW  17
016A4:  MOVWF  xDB
....................  
....................    // Loop through the vertical pages 
....................    for(i = 0; i < 8; ++i) 
016A6:  CLRF   xD7
016A8:  MOVF   xD7,W
016AA:  SUBLW  07
016AC:  BNC   174A
....................    { 
....................       output_low(GLCD_DI);                      // Set for instruction 
016AE:  BCF    F93.5
016B0:  BCF    F8A.5
....................       glcd_writeByte(GLCD_LEFT, 0x40);          // Set horizontal address to 0 
016B2:  CLRF   xDE
016B4:  MOVLW  40
016B6:  MOVWF  xDF
016B8:  MOVLB  0
016BA:  RCALL  1606
....................       glcd_writeByte(GLCD_RIGHT, 0x40); 
016BC:  MOVLW  01
016BE:  MOVLB  5
016C0:  MOVWF  xDE
016C2:  MOVLW  40
016C4:  MOVWF  xDF
016C6:  MOVLB  0
016C8:  RCALL  1606
....................       glcd_writeByte(GLCD_LEFT, i | 0xB8);      // Set page address 
016CA:  MOVLB  5
016CC:  MOVF   xD7,W
016CE:  IORLW  B8
016D0:  MOVWF  xDD
016D2:  CLRF   xDE
016D4:  MOVWF  xDF
016D6:  MOVLB  0
016D8:  RCALL  1606
....................       glcd_writeByte(GLCD_RIGHT, i | 0xB8); 
016DA:  MOVLB  5
016DC:  MOVF   xD7,W
016DE:  IORLW  B8
016E0:  MOVWF  xDD
016E2:  MOVLW  01
016E4:  MOVWF  xDE
016E6:  MOVFF  5DD,5DF
016EA:  MOVLB  0
016EC:  RCALL  1606
....................       output_high(GLCD_DI);                     // Set for data 
016EE:  BCF    F93.5
016F0:  BSF    F8A.5
....................  
....................       // Loop through the horizontal sections 
....................       for(j = 0; j < 64; ++j) 
016F2:  MOVLB  5
016F4:  CLRF   xD8
016F6:  MOVF   xD8,W
016F8:  SUBLW  3F
016FA:  BNC   1746
....................       { 
....................          glcd_writeByte(GLCD_LEFT, *p1++);      // Turn pixels on or off 
016FC:  MOVFF  5DA,03
01700:  MOVF   xD9,W
01702:  INCF   xD9,F
01704:  BTFSC  FD8.2
01706:  INCF   xDA,F
01708:  MOVWF  FE9
0170A:  MOVFF  03,FEA
0170E:  MOVFF  FEF,5DD
01712:  CLRF   xDE
01714:  MOVFF  5DD,5DF
01718:  MOVLB  0
0171A:  RCALL  1606
....................          glcd_writeByte(GLCD_RIGHT, *p2++);     // Turn pixels on or off 
0171C:  MOVLB  5
0171E:  MOVFF  5DC,03
01722:  MOVF   xDB,W
01724:  INCF   xDB,F
01726:  BTFSC  FD8.2
01728:  INCF   xDC,F
0172A:  MOVWF  FE9
0172C:  MOVFF  03,FEA
01730:  MOVFF  FEF,5DD
01734:  MOVLW  01
01736:  MOVWF  xDE
01738:  MOVFF  5DD,5DF
0173C:  MOVLB  0
0173E:  RCALL  1606
....................       } 
01740:  MOVLB  5
01742:  INCF   xD8,F
01744:  BRA    16F6
....................    } 
01746:  INCF   xD7,F
01748:  BRA    16A8
.................... } 
0174A:  MOVLB  0
0174C:  RETLW  00
.................... #endif 
....................  
....................  
.................... // Purpose:    Turn a pixel on a graphic LCD on or off 
.................... // Inputs:     1) x - the x coordinate of the pixel 
.................... //             2) y - the y coordinate of the pixel 
.................... //             3) color - ON or OFF 
.................... void glcd_pixel(int8 x, int8 y, int1 color) 
.................... #ifdef FAST_GLCD 
.................... { 
....................    int8* p; 
....................    int16 temp; 
....................    temp =  y/8; 
*
04730:  MOVLB  6
04732:  CLRF   x09
04734:  RRCF   x04,W
04736:  MOVWF  x08
04738:  RRCF   x08,F
0473A:  RRCF   x08,F
0473C:  MOVLW  1F
0473E:  ANDWF  x08,F
....................    temp *= 64; 
04740:  RLCF   x08,F
04742:  RLCF   x09,F
04744:  RLCF   x08,F
04746:  RLCF   x09,F
04748:  RLCF   x08,F
0474A:  RLCF   x09,F
0474C:  RLCF   x08,F
0474E:  RLCF   x09,F
04750:  RLCF   x08,F
04752:  RLCF   x09,F
04754:  RLCF   x08,F
04756:  RLCF   x09,F
04758:  MOVLW  C0
0475A:  ANDWF  x08,F
....................    temp += x; 
0475C:  MOVF   x03,W
0475E:  ADDWF  x08,F
04760:  MOVLW  00
04762:  ADDWFC x09,F
....................  
....................    if(x > 63) 
04764:  MOVF   x03,W
04766:  SUBLW  3F
04768:  BC    4784
....................    { 
....................       p = displayData.right + temp - 64; 
0476A:  MOVLW  17
0476C:  ADDWF  x08,W
0476E:  MOVWF  x0A
04770:  MOVLW  02
04772:  ADDWFC x09,W
04774:  MOVWF  x0B
04776:  MOVLW  40
04778:  SUBWF  x0A,W
0477A:  MOVWF  x06
0477C:  MOVLW  00
0477E:  SUBWFB x0B,W
04780:  MOVWF  x07
....................    } 
....................    else 
04782:  BRA    4790
....................    { 
....................       p = displayData.left + temp; 
04784:  MOVLW  17
04786:  ADDWF  x08,W
04788:  MOVWF  x06
0478A:  MOVLW  00
0478C:  ADDWFC x09,W
0478E:  MOVWF  x07
....................    } 
....................  
....................    if(color) 
04790:  MOVF   x05,F
04792:  BZ    47BE
....................    { 
....................       bit_set(*p, y%8); 
04794:  MOVFF  607,03
04798:  MOVFF  606,FE9
0479C:  MOVFF  607,FEA
047A0:  MOVF   x04,W
047A2:  ANDLW  07
047A4:  MOVWF  x0A
047A6:  MOVLW  01
047A8:  MOVWF  00
047AA:  MOVF   x0A,W
047AC:  MOVWF  01
047AE:  BZ    47B8
047B0:  BCF    FD8.0
047B2:  RLCF   00,F
047B4:  DECFSZ 01,F
047B6:  BRA    47B0
047B8:  MOVF   00,W
047BA:  IORWF  FEF,F
....................    } 
....................    else 
047BC:  BRA    47E8
....................    { 
....................       bit_clear(*p, y%8); 
047BE:  MOVFF  607,03
047C2:  MOVFF  606,FE9
047C6:  MOVFF  607,FEA
047CA:  MOVF   x04,W
047CC:  ANDLW  07
047CE:  MOVWF  x0A
047D0:  MOVLW  01
047D2:  MOVWF  00
047D4:  MOVF   x0A,W
047D6:  MOVWF  01
047D8:  BZ    47E2
047DA:  BCF    FD8.0
047DC:  RLCF   00,F
047DE:  DECFSZ 01,F
047E0:  BRA    47DA
047E2:  MOVF   00,W
047E4:  XORLW  FF
047E6:  ANDWF  FEF,F
....................    } 
.................... } 
047E8:  MOVLB  0
047EA:  RETLW  00
.................... #else 
.................... { 
....................    BYTE data; 
....................    int1 side = GLCD_LEFT;  // Stores which chip to use on the LCD 
....................  
....................    if(x > 63)              // Check for first or second display area 
....................    { 
....................       x -= 64; 
....................       side = GLCD_RIGHT; 
....................    } 
....................  
....................    output_low(GLCD_DI);                         // Set for instruction 
....................    bit_clear(x,7);                              // Clear the MSB. Part of an instruction code 
....................    bit_set(x,6);                                // Set bit 6. Also part of an instruction code 
....................    glcd_writeByte(side, x);                     // Set the horizontal address 
....................    glcd_writeByte(side, (y/8 & 0xBF) | 0xB8);   // Set the vertical page address 
....................    output_high(GLCD_DI);                        // Set for data 
....................    glcd_readByte(side);                         // Need two reads to get data 
....................    data = glcd_readByte(side);                  //  at new address 
....................  
....................    if(color == ON) 
....................       bit_set(data, y%8);        // Turn the pixel on 
....................    else                          // or 
....................       bit_clear(data, y%8);      // turn the pixel off 
....................  
....................    output_low(GLCD_DI);          // Set for instruction 
....................    glcd_writeByte(side, x);      // Set the horizontal address 
....................    output_high(GLCD_DI);         // Set for data 
....................    glcd_writeByte(side, data);   // Write the pixel data 
.................... } 
.................... #endif 
....................  
....................  
.................... // Purpose:    Fill the LCD screen with the passed in color 
.................... // Inputs:     ON  - turn all the pixels on 
.................... //             OFF - turn all the pixels off 
.................... void glcd_fillScreen(int1 color) 
.................... #ifdef FAST_GLCD 
.................... { 
....................    int8  data; 
....................    int8  *p1, *p2; 
....................    int16 i; 
....................  
....................    p1 = displayData.left; 
*
0163C:  MOVLB  5
0163E:  CLRF   xDA
01640:  MOVLW  17
01642:  MOVWF  xD9
....................    p2 = displayData.right; 
01644:  MOVLW  02
01646:  MOVWF  xDC
01648:  MOVLW  17
0164A:  MOVWF  xDB
....................    data = 0xFF * color; 
0164C:  MOVF   xD7,W
0164E:  MULLW  FF
01650:  MOVFF  FF3,5D8
....................  
....................    for(i=0; i<512; ++i) 
01654:  CLRF   xDE
01656:  CLRF   xDD
01658:  MOVF   xDE,W
0165A:  SUBLW  01
0165C:  BNC   1692
....................    { 
....................       *p1++ = data; 
0165E:  MOVFF  5DA,03
01662:  MOVF   xD9,W
01664:  INCF   xD9,F
01666:  BTFSC  FD8.2
01668:  INCF   xDA,F
0166A:  MOVWF  FE9
0166C:  MOVFF  03,FEA
01670:  MOVFF  5D8,FEF
....................       *p2++ = data; 
01674:  MOVFF  5DC,03
01678:  MOVF   xDB,W
0167A:  INCF   xDB,F
0167C:  BTFSC  FD8.2
0167E:  INCF   xDC,F
01680:  MOVWF  FE9
01682:  MOVFF  03,FEA
01686:  MOVFF  5D8,FEF
....................    } 
0168A:  INCF   xDD,F
0168C:  BTFSC  FD8.2
0168E:  INCF   xDE,F
01690:  BRA    1658
.................... } 
01692:  MOVLB  0
01694:  RETLW  00
.................... #else 
.................... { 
....................    int8 i, j; 
....................  
....................    // Loop through the vertical pages 
....................    for(i = 0; i < 8; ++i) 
....................    { 
....................       output_low(GLCD_DI);                      // Set for instruction 
....................       glcd_writeByte(GLCD_LEFT, 0b01000000);    // Set horizontal address to 0 
....................       glcd_writeByte(GLCD_RIGHT, 0b01000000); 
....................       glcd_writeByte(GLCD_LEFT, i | 0b10111000);// Set page address 
....................       glcd_writeByte(GLCD_RIGHT, i | 0b10111000); 
....................       output_high(GLCD_DI);                     // Set for data 
....................  
....................       // Loop through the horizontal sections 
....................       for(j = 0; j < 64; ++j) 
....................       { 
....................          glcd_writeByte(GLCD_LEFT, 0xFF*color);  // Turn pixels on or off 
....................          glcd_writeByte(GLCD_RIGHT, 0xFF*color); // Turn pixels on or off 
....................       } 
....................    } 
.................... } 
.................... #endif 
....................  
....................  
.................... // Purpose:    Write a byte of data to the specified chip 
.................... // Inputs:     1) chipSelect - which chip to write the data to 
.................... //             2) data - the byte of data to write 
.................... void glcd_writeByte(int1 side, BYTE data) 
.................... { 
....................    if(side)                   // Choose which side to write to 
*
01606:  MOVLB  5
01608:  MOVF   xDE,F
0160A:  BZ    1612
....................       output_high(GLCD_CS2); 
0160C:  BCF    F93.3
0160E:  BSF    F8A.3
....................    else 
01610:  BRA    1616
....................       output_high(GLCD_CS1); 
01612:  BCF    F93.2
01614:  BSF    F8A.2
....................  
....................    output_low(GLCD_RW);       // Set for writing 
01616:  BCF    F93.6
01618:  BCF    F8A.6
....................    output_d(data);            // Put the data on the port 
0161A:  CLRF   F95
0161C:  MOVFF  5DF,F8C
....................    delay_cycles(1); 
01620:  NOP   
....................    output_high(GLCD_E);       // Pulse the enable pin 
01622:  BCF    F93.7
01624:  BSF    F8A.7
....................    delay_cycles(5); 
01626:  BRA    1628
01628:  BRA    162A
0162A:  NOP   
....................    output_low(GLCD_E); 
0162C:  BCF    F93.7
0162E:  BCF    F8A.7
....................  
....................    output_low(GLCD_CS1);      // Reset the chip select lines 
01630:  BCF    F93.2
01632:  BCF    F8A.2
....................    output_low(GLCD_CS2); 
01634:  BCF    F93.3
01636:  BCF    F8A.3
.................... } 
01638:  MOVLB  0
0163A:  RETLW  00
....................  
....................  
.................... // Purpose:    Reads a byte of data from the specified chip 
.................... // Ouputs:     A byte of data read from the chip 
.................... BYTE glcd_readByte(int1 side) 
.................... { 
....................    BYTE data;                 // Stores the data read from the LCD 
....................  
....................    set_tris_d(0xFF);          // Set port d to input 
....................    output_high(GLCD_RW);      // Set for reading 
....................  
....................    if(side)                   // Choose which side to write to 
....................       output_high(GLCD_CS2); 
....................    else 
....................       output_high(GLCD_CS1); 
....................  
....................    delay_cycles(1); 
....................    output_high(GLCD_E);       // Pulse the enable pin 
....................    delay_cycles(4); 
....................    data = input_d();          // Get the data from the display's output register 
....................    output_low(GLCD_E); 
....................  
....................    output_low(GLCD_CS1);      // Reset the chip select lines 
....................    output_low(GLCD_CS2); 
....................    return data;               // Return the read data 
.................... } 
....................  
.................... #endif 
....................  
.................... #include "GRAPHICS.c" 
.................... ///////////////////////////////////////////////////////////////////////// 
.................... ////                          graphics.c                             //// 
.................... ////                                                                 //// 
.................... ////   This file contains functions to draw lines, rectangles, bars, //// 
.................... ////   circles and text to a display. A function which draws a       //// 
.................... ////   single pixel must be defined before calling the functions in  //// 
.................... ////   this file. Call it glcd_pixel(x, y, color) where x is the     //// 
.................... ////   horizontal coordinate, y is the vertical coordinate, and      //// 
.................... ////   color is 1 bit to turn the pixel on or off.                   //// 
.................... ////                                                                 //// 
.................... ////   * Note: (0, 0) is treated as the upper left corner            //// 
.................... ////                                                                 //// 
.................... ///////////////////////////////////////////////////////////////////////// 
.................... ////                                                                 //// 
.................... ////  glcd_line(x1, y1, x2, y2, color)                               //// 
.................... ////     * Draws a line from the first point to the second point     //// 
.................... ////       with the given color                                      //// 
.................... ////       - color can be ON or OFF                                  //// 
.................... ////                                                                 //// 
.................... ////  glcd_rect(x1, y1, x2, y2, fill, color)                         //// 
.................... ////     * Draws a rectangle with one corner at point (x1,y1) and    //// 
.................... ////       the other corner at point (x2,y2)                         //// 
.................... ////       - fill can be YES or NO                                   //// 
.................... ////       - color can be ON or OFF                                  //// 
.................... ////                                                                 //// 
.................... ////  glcd_bar(x1, y1, x2, y2, width, color)                         //// 
.................... ////     * Draws a bar (wide line) from the first point to the       //// 
.................... ////       second point                                              //// 
.................... ////       - width is the number of pixels wide                      //// 
.................... ////       - color is ON or OFF                                      //// 
.................... ////                                                                 //// 
.................... ////  glcd_circle(x, y, radius, fill, color)                         //// 
.................... ////     * Draws a circle with center at (x,y)                       //// 
.................... ////       - fill can be YES or NO                                   //// 
.................... ////       - color can be ON or OFF                                  //// 
.................... ////                                                                 //// 
.................... ////  glcd_text57(x, y, textptr, size, color)                        //// 
.................... ////     * Write the null terminated text pointed to by textptr with //// 
.................... ////       the upper left coordinate of the first character at (x,y) //// 
.................... ////       Characters are 5 pixels wide and 7 pixels tall            //// 
.................... ////       - size is an integer that scales the size of the text     //// 
.................... ////       - color is ON or OFF                                      //// 
.................... ////     * Note - This function wraps characters to the next line    //// 
.................... ////              use #define GLCD_WIDTH to specify a display width  //// 
.................... ////                                                                 //// 
.................... ///////////////////////////////////////////////////////////////////////// 
.................... ////        (C) Copyright 1996, 2004 Custom Computer Services        //// 
.................... //// This source code may only be used by licensed users of the CCS  //// 
.................... //// C compiler.  This source code may only be distributed to other  //// 
.................... //// licensed users of the CCS C compiler.  No other use,            //// 
.................... //// reproduction or distribution is permitted without written       //// 
.................... //// permission.  Derivative programs created using this software    //// 
.................... //// in object code form are not restricted in any way.              //// 
.................... ///////////////////////////////////////////////////////////////////////// 
....................  
....................  
.................... ///////////////////////////////////////////////////////////////////////// 
.................... #ifndef GRAPHICS_DRAWING_FUNCTIONS 
.................... #define GRAPHICS_DRAWING_FUNCTIONS 
.................... ///////////////////////////////////////////////////////////////////////// 
....................  
....................  
.................... ///////////////////////////////////////////////////////////////////////// 
.................... #ifndef ON 
.................... #define ON  1 
.................... #endif 
....................  
.................... #ifndef OFF 
.................... #define OFF 0 
.................... #endif 
....................  
.................... #ifndef YES 
.................... #define YES 1 
.................... #endif 
....................  
.................... #ifndef NO 
.................... #define NO  0 
.................... #endif 
.................... ///////////////////////////////////////////////////////////////////////// 
....................  
....................  
.................... ///////////////////////////////////////////////////////////////////////// 
.................... //// Defines a 5x7 font 
.................... ///////////////////////////////////////////////////////////////////////// 
.................... const int8 FONT[51][5] ={0x00, 0x00, 0x00, 0x00, 0x00, // SPACE 
....................                          0x00, 0x00, 0x5F, 0x00, 0x00, // ! 
....................                          0x00, 0x03, 0x00, 0x03, 0x00, // " 
....................                          0x14, 0x3E, 0x14, 0x3E, 0x14, // # 
....................                          0x24, 0x2A, 0x7F, 0x2A, 0x12, // $ 
....................                          0x43, 0x33, 0x08, 0x66, 0x61, // % 
....................                          0x36, 0x49, 0x55, 0x22, 0x50, // & 
....................                          0x00, 0x05, 0x03, 0x00, 0x00, // ' 
....................                          0x00, 0x1C, 0x22, 0x41, 0x00, // ( 
....................                          0x00, 0x41, 0x22, 0x1C, 0x00, // ) 
....................                          0x14, 0x08, 0x3E, 0x08, 0x14, // * 
....................                          0x08, 0x08, 0x3E, 0x08, 0x08, // + 
....................                          0x00, 0x50, 0x30, 0x00, 0x00, // , 
....................                          0x08, 0x08, 0x08, 0x08, 0x08, // - 
....................                          0x00, 0x60, 0x60, 0x00, 0x00, // . 
....................                          0x20, 0x10, 0x08, 0x04, 0x02, // / 
....................                          0x3E, 0x51, 0x49, 0x45, 0x3E, // 0 
....................                          0x00, 0x04, 0x02, 0x7F, 0x00, // 1 
....................                          0x42, 0x61, 0x51, 0x49, 0x46, // 2 
....................                          0x22, 0x41, 0x49, 0x49, 0x36, // 3 
....................                          0x18, 0x14, 0x12, 0x7F, 0x10, // 4 
....................                          0x27, 0x45, 0x45, 0x45, 0x39, // 5 
....................                          0x3E, 0x49, 0x49, 0x49, 0x32, // 6 
....................                          0x01, 0x01, 0x71, 0x09, 0x07, // 7 
....................                          0x36, 0x49, 0x49, 0x49, 0x36, // 8 
....................                          0x26, 0x49, 0x49, 0x49, 0x3E, // 9 
....................                          0x00, 0x36, 0x36, 0x00, 0x00, // : 
....................                          0x00, 0x56, 0x36, 0x00, 0x00, // ; 
....................                          0x08, 0x14, 0x22, 0x41, 0x00, // < 
....................                          0x14, 0x14, 0x14, 0x14, 0x14, // = 
....................                          0x00, 0x41, 0x22, 0x14, 0x08, // > 
....................                          0x02, 0x01, 0x51, 0x09, 0x06, // ? 
....................                          0x3E, 0x41, 0x59, 0x55, 0x5E, // @ 
....................                          0x7E, 0x09, 0x09, 0x09, 0x7E, // A 
....................                          0x7F, 0x49, 0x49, 0x49, 0x36, // B 
....................                          0x3E, 0x41, 0x41, 0x41, 0x22, // C 
....................                          0x7F, 0x41, 0x41, 0x41, 0x3E, // D 
....................                          0x7F, 0x49, 0x49, 0x49, 0x41, // E 
....................                          0x7F, 0x09, 0x09, 0x09, 0x01, // F 
....................                          0x3E, 0x41, 0x41, 0x49, 0x3A, // G 
....................                          0x7F, 0x08, 0x08, 0x08, 0x7F, // H 
....................                          0x00, 0x41, 0x7F, 0x41, 0x00, // I 
....................                          0x30, 0x40, 0x40, 0x40, 0x3F, // J 
....................                          0x7F, 0x08, 0x14, 0x22, 0x41, // K 
....................                          0x7F, 0x40, 0x40, 0x40, 0x40, // L 
....................                          0x7F, 0x02, 0x0C, 0x02, 0x7F, // M 
....................                          0x7F, 0x02, 0x04, 0x08, 0x7F, // N 
....................                          0x3E, 0x41, 0x41, 0x41, 0x3E, // O 
....................                          0x7F, 0x09, 0x09, 0x09, 0x06, // P 
....................                          0x1E, 0x21, 0x21, 0x21, 0x5E, // Q 
....................                          0x7F, 0x09, 0x09, 0x09, 0x76};// R 
....................  
.................... const int8 FONT2[44][5]={0x26, 0x49, 0x49, 0x49, 0x32, // S 
....................                          0x01, 0x01, 0x7F, 0x01, 0x01, // T 
....................                          0x3F, 0x40, 0x40, 0x40, 0x3F, // U 
....................                          0x1F, 0x20, 0x40, 0x20, 0x1F, // V 
....................                          0x7F, 0x20, 0x10, 0x20, 0x7F, // W 
....................                          0x41, 0x22, 0x1C, 0x22, 0x41, // X 
....................                          0x07, 0x08, 0x70, 0x08, 0x07, // Y 
....................                          0x61, 0x51, 0x49, 0x45, 0x43, // Z 
....................                          0x00, 0x7F, 0x41, 0x00, 0x00, // [ 
....................                          0x02, 0x04, 0x08, 0x10, 0x20, // \ 
....................                          0x00, 0x00, 0x41, 0x7F, 0x00, // ] 
....................                          0x04, 0x02, 0x01, 0x02, 0x04, // ^ 
....................                          0x40, 0x40, 0x40, 0x40, 0x40, // _ 
....................                          0x00, 0x01, 0x02, 0x04, 0x00, // ` 
....................                          0x20, 0x54, 0x54, 0x54, 0x78, // a 
....................                          0x7F, 0x44, 0x44, 0x44, 0x38, // b 
....................                          0x38, 0x44, 0x44, 0x44, 0x44, // c 
....................                          0x38, 0x44, 0x44, 0x44, 0x7F, // d 
....................                          0x38, 0x54, 0x54, 0x54, 0x18, // e 
....................                          0x04, 0x04, 0x7E, 0x05, 0x05, // f 
....................                          0x08, 0x54, 0x54, 0x54, 0x3C, // g 
....................                          0x7F, 0x08, 0x04, 0x04, 0x78, // h 
....................                          0x00, 0x44, 0x7D, 0x40, 0x00, // i 
....................                          0x20, 0x40, 0x44, 0x3D, 0x00, // j 
....................                          0x7F, 0x10, 0x28, 0x44, 0x00, // k 
....................                          0x00, 0x41, 0x7F, 0x40, 0x00, // l 
....................                          0x7C, 0x04, 0x78, 0x04, 0x78, // m 
....................                          0x7C, 0x08, 0x04, 0x04, 0x78, // n 
....................                          0x38, 0x44, 0x44, 0x44, 0x38, // o 
....................                          0x7C, 0x14, 0x14, 0x14, 0x08, // p 
....................                          0x08, 0x14, 0x14, 0x14, 0x7C, // q 
....................                          0x00, 0x7C, 0x08, 0x04, 0x04, // r 
....................                          0x48, 0x54, 0x54, 0x54, 0x20, // s 
....................                          0x04, 0x04, 0x3F, 0x44, 0x44, // t 
....................                          0x3C, 0x40, 0x40, 0x20, 0x7C, // u 
....................                          0x1C, 0x20, 0x40, 0x20, 0x1C, // v 
....................                          0x3C, 0x40, 0x30, 0x40, 0x3C, // w 
....................                          0x44, 0x28, 0x10, 0x28, 0x44, // x 
....................                          0x0C, 0x50, 0x50, 0x50, 0x3C, // y 
....................                          0x44, 0x64, 0x54, 0x4C, 0x44, // z 
....................                          0x00, 0x08, 0x36, 0x41, 0x41, // { 
....................                          0x00, 0x00, 0x7F, 0x00, 0x00, // | 
....................                          0x41, 0x41, 0x36, 0x08, 0x00, // } 
....................                          0x02, 0x01, 0x02, 0x04, 0x02};// ~ 
.................... ///////////////////////////////////////////////////////////////////////// 
....................  
....................  
.................... ///////////////////////////////////////////////////////////////////////// 
.................... // Purpose:       Draw a line on a graphic LCD using Bresenham's 
.................... //                line drawing algorithm 
.................... // Inputs:        (x1, y1) - the start coordinate 
.................... //                (x2, y2) - the end coordinate 
.................... //                color - ON or OFF 
.................... // Dependencies:  glcd_pixel() 
.................... ///////////////////////////////////////////////////////////////////////// 
.................... #ifdef LARGE_LCD 
.................... void glcd_line(int16 x1, int16 y1, int16 x2, int16 y2, int1 color) 
.................... #else 
.................... void glcd_line(int8 x1, int8 y1, int8 x2, int8 y2, int1 color) 
.................... #endif 
.................... { 
*
047EC:  MOVLW  01
047EE:  MOVLB  5
047F0:  MOVWF  xFC
047F2:  MOVWF  xFD
047F4:  MOVLB  6
047F6:  CLRF   x02
....................    int16        dy, dx; 
....................    signed int8  addx=1, addy=1; 
....................    signed int16 P, diff; 
....................  
....................    #ifdef LARGE_LCD 
....................    int16 i=0; 
....................    dx = abs((signed int16)(x2 - x1)); 
....................    dy = abs((signed int16)(y2 - y1)); 
....................    #else 
....................    int8 i=0; 
....................    dx = abs((signed int8)(x2 - x1)); 
047F8:  MOVLB  5
047FA:  MOVF   xF3,W
047FC:  SUBWF  xF5,W
047FE:  MOVLB  6
04800:  MOVWF  x03
04802:  MOVF   x03,W
04804:  BTFSS  x03.7
04806:  BRA    480E
04808:  MOVLW  00
0480A:  BSF    FD8.0
0480C:  SUBFWB x03,W
0480E:  CLRF   03
04810:  MOVLB  5
04812:  MOVWF  xFA
04814:  MOVFF  03,5FB
....................    dy = abs((signed int8)(y2 - y1)); 
04818:  MOVF   xF4,W
0481A:  SUBWF  xF6,W
0481C:  MOVLB  6
0481E:  MOVWF  x03
04820:  MOVF   x03,W
04822:  BTFSS  x03.7
04824:  BRA    482C
04826:  MOVLW  00
04828:  BSF    FD8.0
0482A:  SUBFWB x03,W
0482C:  CLRF   03
0482E:  MOVLB  5
04830:  MOVWF  xF8
04832:  MOVFF  03,5F9
....................    #endif 
....................  
....................    if(x1 > x2) 
04836:  MOVF   xF3,W
04838:  SUBWF  xF5,W
0483A:  BC    4840
....................       addx = -1; 
0483C:  MOVLW  FF
0483E:  MOVWF  xFC
....................    if(y1 > y2) 
04840:  MOVF   xF4,W
04842:  SUBWF  xF6,W
04844:  BC    484A
....................       addy = -1; 
04846:  MOVLW  FF
04848:  MOVWF  xFD
....................  
....................    if(dx >= dy) 
0484A:  MOVF   xF9,W
0484C:  SUBWF  xFB,W
0484E:  BNC   48DE
04850:  BNZ   4858
04852:  MOVF   xF8,W
04854:  SUBWF  xFA,W
04856:  BNC   48DE
....................    { 
....................       dy *= 2; 
04858:  BCF    FD8.0
0485A:  RLCF   xF8,F
0485C:  RLCF   xF9,F
....................       P = dy - dx; 
0485E:  MOVF   xFA,W
04860:  SUBWF  xF8,W
04862:  MOVWF  00
04864:  MOVF   xFB,W
04866:  SUBWFB xF9,W
04868:  MOVFF  00,5FE
0486C:  MOVWF  xFF
....................       diff = P - dx; 
0486E:  MOVF   xFA,W
04870:  SUBWF  xFE,W
04872:  MOVLB  6
04874:  MOVWF  x00
04876:  MOVLB  5
04878:  MOVF   xFB,W
0487A:  SUBWFB xFF,W
0487C:  MOVLB  6
0487E:  MOVWF  x01
....................  
....................       for(; i<=dx; ++i) 
04880:  MOVLB  5
04882:  MOVF   xFB,F
04884:  BNZ   4890
04886:  MOVLB  6
04888:  MOVF   x02,W
0488A:  MOVLB  5
0488C:  SUBWF  xFA,W
0488E:  BNC   48DC
....................       { 
....................          glcd_pixel(x1, y1, color); 
04890:  MOVFF  5F3,603
04894:  MOVFF  5F4,604
04898:  MOVFF  5F7,605
0489C:  MOVLB  0
0489E:  RCALL  4730
....................  
....................          if(P < 0) 
048A0:  MOVLB  5
048A2:  BTFSC  xFF.7
048A4:  BRA    48A8
048A6:  BRA    48B8
....................          { 
....................             P  += dy; 
048A8:  MOVF   xF8,W
048AA:  ADDWF  xFE,F
048AC:  MOVF   xF9,W
048AE:  ADDWFC xFF,F
....................             x1 += addx; 
048B0:  MOVF   xFC,W
048B2:  ADDWF  xF3,W
048B4:  MOVWF  xF3
....................          } 
....................          else 
048B6:  BRA    48D4
....................          { 
....................             P  += diff; 
048B8:  MOVLB  6
048BA:  MOVF   x00,W
048BC:  MOVLB  5
048BE:  ADDWF  xFE,F
048C0:  MOVLB  6
048C2:  MOVF   x01,W
048C4:  MOVLB  5
048C6:  ADDWFC xFF,F
....................             x1 += addx; 
048C8:  MOVF   xFC,W
048CA:  ADDWF  xF3,W
048CC:  MOVWF  xF3
....................             y1 += addy; 
048CE:  MOVF   xFD,W
048D0:  ADDWF  xF4,W
048D2:  MOVWF  xF4
....................          } 
....................       } 
048D4:  MOVLB  6
048D6:  INCF   x02,F
048D8:  BRA    4880
048DA:  MOVLB  5
....................    } 
....................    else 
048DC:  BRA    4962
....................    { 
....................       dx *= 2; 
048DE:  BCF    FD8.0
048E0:  RLCF   xFA,F
048E2:  RLCF   xFB,F
....................       P = dx - dy; 
048E4:  MOVF   xF8,W
048E6:  SUBWF  xFA,W
048E8:  MOVWF  00
048EA:  MOVF   xF9,W
048EC:  SUBWFB xFB,W
048EE:  MOVFF  00,5FE
048F2:  MOVWF  xFF
....................       diff = P - dy; 
048F4:  MOVF   xF8,W
048F6:  SUBWF  xFE,W
048F8:  MOVLB  6
048FA:  MOVWF  x00
048FC:  MOVLB  5
048FE:  MOVF   xF9,W
04900:  SUBWFB xFF,W
04902:  MOVLB  6
04904:  MOVWF  x01
....................  
....................       for(; i<=dy; ++i) 
04906:  MOVLB  5
04908:  MOVF   xF9,F
0490A:  BNZ   4916
0490C:  MOVLB  6
0490E:  MOVF   x02,W
04910:  MOVLB  5
04912:  SUBWF  xF8,W
04914:  BNC   4962
....................       { 
....................          glcd_pixel(x1, y1, color); 
04916:  MOVFF  5F3,603
0491A:  MOVFF  5F4,604
0491E:  MOVFF  5F7,605
04922:  MOVLB  0
04924:  RCALL  4730
....................  
....................          if(P < 0) 
04926:  MOVLB  5
04928:  BTFSC  xFF.7
0492A:  BRA    492E
0492C:  BRA    493E
....................          { 
....................             P  += dx; 
0492E:  MOVF   xFA,W
04930:  ADDWF  xFE,F
04932:  MOVF   xFB,W
04934:  ADDWFC xFF,F
....................             y1 += addy; 
04936:  MOVF   xFD,W
04938:  ADDWF  xF4,W
0493A:  MOVWF  xF4
....................          } 
....................          else 
0493C:  BRA    495A
....................          { 
....................             P  += diff; 
0493E:  MOVLB  6
04940:  MOVF   x00,W
04942:  MOVLB  5
04944:  ADDWF  xFE,F
04946:  MOVLB  6
04948:  MOVF   x01,W
0494A:  MOVLB  5
0494C:  ADDWFC xFF,F
....................             x1 += addx; 
0494E:  MOVF   xFC,W
04950:  ADDWF  xF3,W
04952:  MOVWF  xF3
....................             y1 += addy; 
04954:  MOVF   xFD,W
04956:  ADDWF  xF4,W
04958:  MOVWF  xF4
....................          } 
....................       } 
0495A:  MOVLB  6
0495C:  INCF   x02,F
0495E:  BRA    4906
04960:  MOVLB  5
....................    } 
.................... } 
04962:  MOVLB  0
04964:  RETLW  00
....................  
....................  
.................... ///////////////////////////////////////////////////////////////////////// 
.................... // Purpose:       Draw a rectangle on a graphic LCD 
.................... // Inputs:        (x1, y1) - the start coordinate 
.................... //                (x2, y2) - the end coordinate 
.................... //                fill  - YES or NO 
.................... //                color - ON or OFF 
.................... // Dependencies:  glcd_pixel(), glcd_line() 
.................... ///////////////////////////////////////////////////////////////////////// 
.................... #ifdef LARGE_LCD 
.................... void glcd_rect(int16 x1, int16 y1, int16 x2, int16 y2, int1 fill, int1 color) 
.................... #else 
.................... void glcd_rect(int8 x1, int8 y1, int8 x2, int8 y2, int1 fill, int1 color) 
.................... #endif 
.................... { 
....................    if(fill) 
04966:  MOVLB  5
04968:  MOVF   xEC,F
0496A:  BZ    49C8
....................    { 
....................       #ifdef LARGE_LCD 
....................       int16 i, xmin, xmax, ymin, ymax; 
....................       #else 
....................       int8  i, xmin, xmax, ymin, ymax; 
....................       #endif 
....................  
....................       if(x1 < x2)                            //  Find x min and max 
0496C:  MOVF   xEA,W
0496E:  SUBWF  xE8,W
04970:  BC    497C
....................       { 
....................          xmin = x1; 
04972:  MOVFF  5E8,5EF
....................          xmax = x2; 
04976:  MOVFF  5EA,5F0
....................       } 
....................       else 
0497A:  BRA    4984
....................       { 
....................          xmin = x2; 
0497C:  MOVFF  5EA,5EF
....................          xmax = x1; 
04980:  MOVFF  5E8,5F0
....................       } 
....................  
....................       if(y1 < y2)                            // Find the y min and max 
04984:  MOVF   xEB,W
04986:  SUBWF  xE9,W
04988:  BC    4994
....................       { 
....................          ymin = y1; 
0498A:  MOVFF  5E9,5F1
....................          ymax = y2; 
0498E:  MOVFF  5EB,5F2
....................       } 
....................       else 
04992:  BRA    499C
....................       { 
....................          ymin = y2; 
04994:  MOVFF  5EB,5F1
....................          ymax = y1; 
04998:  MOVFF  5E9,5F2
....................       } 
....................  
....................       for(; xmin <= xmax; ++xmin) 
0499C:  MOVF   xEF,W
0499E:  SUBWF  xF0,W
049A0:  BNC   49C6
....................       { 
....................          for(i=ymin; i<=ymax; ++i) 
049A2:  MOVFF  5F1,5EE
049A6:  MOVF   xEE,W
049A8:  SUBWF  xF2,W
049AA:  BNC   49C2
....................          { 
....................             glcd_pixel(xmin, i, color); 
049AC:  MOVFF  5EF,603
049B0:  MOVFF  5EE,604
049B4:  MOVFF  5ED,605
049B8:  MOVLB  0
049BA:  RCALL  4730
....................          } 
049BC:  MOVLB  5
049BE:  INCF   xEE,F
049C0:  BRA    49A6
....................       } 
049C2:  INCF   xEF,F
049C4:  BRA    499C
....................    } 
....................    else 
049C6:  BRA    4A24
....................    { 
....................       glcd_line(x1, y1, x2, y1, color);      // Draw the 4 sides 
049C8:  MOVFF  5E8,5F3
049CC:  MOVFF  5E9,5F4
049D0:  MOVFF  5EA,5F5
049D4:  MOVFF  5E9,5F6
049D8:  MOVFF  5ED,5F7
049DC:  MOVLB  0
049DE:  RCALL  47EC
....................       glcd_line(x1, y2, x2, y2, color); 
049E0:  MOVFF  5E8,5F3
049E4:  MOVFF  5EB,5F4
049E8:  MOVFF  5EA,5F5
049EC:  MOVFF  5EB,5F6
049F0:  MOVFF  5ED,5F7
049F4:  RCALL  47EC
....................       glcd_line(x1, y1, x1, y2, color); 
049F6:  MOVFF  5E8,5F3
049FA:  MOVFF  5E9,5F4
049FE:  MOVFF  5E8,5F5
04A02:  MOVFF  5EB,5F6
04A06:  MOVFF  5ED,5F7
04A0A:  RCALL  47EC
....................       glcd_line(x2, y1, x2, y2, color); 
04A0C:  MOVFF  5EA,5F3
04A10:  MOVFF  5E9,5F4
04A14:  MOVFF  5EA,5F5
04A18:  MOVFF  5EB,5F6
04A1C:  MOVFF  5ED,5F7
04A20:  RCALL  47EC
04A22:  MOVLB  5
....................    } 
.................... } 
04A24:  MOVLB  0
04A26:  RETLW  00
....................  
.................... ///////////////////////////////////////////////////////////////////////// 
.................... // Purpose:       Draw a bar (wide line) on a graphic LCD 
.................... // Inputs:        (x1, y1) - the start coordinate 
.................... //                (x2, y2) - the end coordinate 
.................... //                width  - The number of pixels wide 
.................... //                color - ON or OFF 
.................... ///////////////////////////////////////////////////////////////////////// 
.................... #ifdef LARGE_LCD 
.................... void glcd_bar(int16 x1, int16 y1, int16 x2, int16 y2, int8 width, int1 color) 
.................... #else 
.................... void glcd_bar(int8 x1, int8 y1, int8 x2, int8 y2, int8 width, int1 color) 
.................... #endif 
.................... { 
....................    int8         half_width; 
....................    signed int16 dy, dx; 
....................    signed int8  addx=1, addy=1, j; 
....................    signed int16 P, diff, c1, c2; 
....................  
....................    #ifdef LARGE_LCD 
....................    int16 i=0; 
....................    dx = abs((signed int16)(x2 - x1)); 
....................    dy = abs((signed int16)(y2 - y1)); 
....................    #else 
....................    int8 i=0; 
....................    dx = abs((signed int8)(x2 - x1)); 
....................    dy = abs((signed int8)(y2 - y1)); 
....................    #endif 
....................  
....................    half_width = width/2; 
....................    c1 = -(dx*x1 + dy*y1); 
....................    c2 = -(dx*x2 + dy*y2); 
....................  
....................    if(x1 > x2) 
....................    { 
....................       signed int16 temp; 
....................       temp = c1; 
....................       c1 = c2; 
....................       c2 = temp; 
....................       addx = -1; 
....................    } 
....................    if(y1 > y2) 
....................    { 
....................       signed int16 temp; 
....................       temp = c1; 
....................       c1 = c2; 
....................       c2 = temp; 
....................       addy = -1; 
....................    } 
....................  
....................    if(dx >= dy) 
....................    { 
....................       P = 2*dy - dx; 
....................       diff = P - dx; 
....................  
....................       for(i=0; i<=dx; ++i) 
....................       { 
....................          for(j=-half_width; j<half_width+width%2; ++j) 
....................          { 
....................             #ifdef LARGE_LCD 
....................             int16 temp; 
....................             #else 
....................             int8 temp; 
....................             #endif 
....................  
....................             temp = dx*x1+dy*(y1+j);    // Use more RAM to increase speed 
....................             if(temp+c1 >= 0 && temp+c2 <=0) 
....................                glcd_pixel(x1, y1+j, color); 
....................          } 
....................          if(P < 0) 
....................          { 
....................             P  += 2*dy; 
....................             x1 += addx; 
....................          } 
....................          else 
....................          { 
....................             P  += diff; 
....................             x1 += addx; 
....................             y1 += addy; 
....................          } 
....................       } 
....................    } 
....................    else 
....................    { 
....................       P = 2*dx - dy; 
....................       diff = P - dy; 
....................  
....................       for(i=0; i<=dy; ++i) 
....................       { 
....................          if(P < 0) 
....................          { 
....................             P  += 2*dx; 
....................             y1 += addy; 
....................          } 
....................          else 
....................          { 
....................             P  += diff; 
....................             x1 += addx; 
....................             y1 += addy; 
....................          } 
....................          for(j=-half_width; j<half_width+width%2; ++j) 
....................          { 
....................             #ifdef LARGE_LCD 
....................             int16 temp; 
....................             #else 
....................             int8 temp; 
....................             #endif 
....................  
....................             temp = dx*x1+dy*(y1+j);    // Use more RAM to increase speed 
....................             if(temp+c1 >= 0 && temp+c2 <=0) 
....................                glcd_pixel(x1+j, y1, color); 
....................          } 
....................       } 
....................    } 
.................... } 
....................  
....................  
.................... ///////////////////////////////////////////////////////////////////////// 
.................... // Purpose:       Draw a circle on a graphic LCD 
.................... // Inputs:        (x,y) - the center of the circle 
.................... //                radius - the radius of the circle 
.................... //                fill - YES or NO 
.................... //                color - ON or OFF 
.................... ///////////////////////////////////////////////////////////////////////// 
.................... #ifdef LARGE_LCD 
.................... void glcd_circle(int16 x, int16 y, int16 radius, int1 fill, int1 color) 
.................... #else 
.................... void glcd_circle(int8 x, int8 y, int8 radius, int1 fill, int1 color) 
.................... #endif 
.................... { 
....................    #ifdef LARGE_LCD 
....................    signed int16 a, b, P; 
....................    #else 
....................    signed int8  a, b, P; 
....................    #endif 
....................  
....................    a = 0; 
....................    b = radius; 
....................    P = 1 - radius; 
....................  
....................    do 
....................    { 
....................       if(fill) 
....................       { 
....................          glcd_line(x-a, y+b, x+a, y+b, color); 
....................          glcd_line(x-a, y-b, x+a, y-b, color); 
....................          glcd_line(x-b, y+a, x+b, y+a, color); 
....................          glcd_line(x-b, y-a, x+b, y-a, color); 
....................       } 
....................       else 
....................       { 
....................          glcd_pixel(a+x, b+y, color); 
....................          glcd_pixel(b+x, a+y, color); 
....................          glcd_pixel(x-a, b+y, color); 
....................          glcd_pixel(x-b, a+y, color); 
....................          glcd_pixel(b+x, y-a, color); 
....................          glcd_pixel(a+x, y-b, color); 
....................          glcd_pixel(x-a, y-b, color); 
....................          glcd_pixel(x-b, y-a, color); 
....................       } 
....................  
....................       if(P < 0) 
....................          P += 3 + 2 * a++; 
....................       else 
....................          P += 5 + 2 * (a++ - b--); 
....................     } while(a <= b); 
.................... } 
....................  
....................  
.................... ///////////////////////////////////////////////////////////////////////// 
.................... // Purpose:       Write text on a graphic LCD 
.................... // Inputs:        (x,y) - The upper left coordinate of the first letter 
.................... //                textptr - A pointer to an array of text to display 
.................... //                size - The size of the text: 1 = 5x7, 2 = 10x14, ... 
.................... //                color - ON or OFF 
.................... ///////////////////////////////////////////////////////////////////////// 
.................... #ifdef LARGE_LCD 
.................... void glcd_text57(int16 x, int16 y, char* textptr, int8 size, int1 color) 
.................... #else 
.................... void glcd_text57(int8 x, int8 y, char* textptr, int8 size, int1 color) 
.................... #endif 
.................... { 
....................    int8 j, k, l, m;                       // Loop counters 
....................    int8 pixelData[5];                     // Stores character data 
....................  
....................    for(; *textptr != '\0'; ++textptr, ++x)// Loop through the passed string 
04A28:  MOVFF  5EB,03
04A2C:  MOVLB  5
04A2E:  MOVFF  5EA,FE9
04A32:  MOVFF  5EB,FEA
04A36:  MOVF   FEF,F
04A38:  BTFSC  FD8.2
04A3A:  BRA    4BDE
....................    { 
....................       if(*textptr < 'S') // Checks if the letter is in the first font array 
04A3C:  MOVFF  5EB,03
04A40:  MOVFF  5EA,FE9
04A44:  MOVFF  5EB,FEA
04A48:  MOVF   FEF,W
04A4A:  SUBLW  52
04A4C:  BNC   4A9C
....................          memcpy(pixelData, FONT[*textptr - ' '], 5); 
04A4E:  MOVFF  5EB,03
04A52:  MOVFF  5EA,FE9
04A56:  MOVFF  5EB,FEA
04A5A:  MOVLW  20
04A5C:  SUBWF  FEF,W
04A5E:  MULLW  05
04A60:  MOVF   FF3,W
04A62:  CLRF   03
04A64:  MOVWF  xF7
04A66:  MOVLW  05
04A68:  MOVWF  FEA
04A6A:  MOVLW  F2
04A6C:  MOVWF  FE9
04A6E:  CLRF   xFB
04A70:  MOVFF  5F7,5FA
04A74:  MOVFF  FF2,5F8
04A78:  BCF    FF2.7
04A7A:  MOVLW  05
04A7C:  MOVWF  01
04A7E:  CLRF   FF7
04A80:  MOVF   xF7,W
04A82:  MOVLB  0
04A84:  CALL   009E
04A88:  TBLRD*-
04A8A:  TBLRD*+
04A8C:  MOVFF  FF5,FEE
04A90:  DECFSZ 01,F
04A92:  BRA    4A8A
04A94:  MOVLB  5
04A96:  BTFSC  xF8.7
04A98:  BSF    FF2.7
....................       else if(*textptr <= '~') // Check if the letter is in the second font array 
04A9A:  BRA    4B06
04A9C:  MOVFF  5EB,03
04AA0:  MOVFF  5EA,FE9
04AA4:  MOVFF  5EB,FEA
04AA8:  MOVF   FEF,W
04AAA:  SUBLW  7E
04AAC:  BNC   4AFC
....................          memcpy(pixelData, FONT2[*textptr - 'S'], 5); 
04AAE:  MOVFF  5EB,03
04AB2:  MOVFF  5EA,FE9
04AB6:  MOVFF  5EB,FEA
04ABA:  MOVLW  53
04ABC:  SUBWF  FEF,W
04ABE:  MULLW  05
04AC0:  MOVF   FF3,W
04AC2:  CLRF   03
04AC4:  MOVWF  xF7
04AC6:  MOVLW  05
04AC8:  MOVWF  FEA
04ACA:  MOVLW  F2
04ACC:  MOVWF  FE9
04ACE:  CLRF   xFB
04AD0:  MOVFF  5F7,5FA
04AD4:  MOVFF  FF2,5F8
04AD8:  BCF    FF2.7
04ADA:  MOVLW  05
04ADC:  MOVWF  01
04ADE:  CLRF   FF7
04AE0:  MOVF   xF7,W
04AE2:  MOVLB  0
04AE4:  CALL   01BC
04AE8:  TBLRD*-
04AEA:  TBLRD*+
04AEC:  MOVFF  FF5,FEE
04AF0:  DECFSZ 01,F
04AF2:  BRA    4AEA
04AF4:  MOVLB  5
04AF6:  BTFSC  xF8.7
04AF8:  BSF    FF2.7
....................       else 
04AFA:  BRA    4B06
....................          memcpy(pixelData, FONT[0], 5);   // Default to space 
04AFC:  CLRF   xF2
04AFE:  CLRF   xF3
04B00:  CLRF   xF4
04B02:  CLRF   xF5
04B04:  CLRF   xF6
....................  
....................       // Handles newline and carriage returns 
....................       switch(*textptr) 
....................       { 
04B06:  MOVFF  5EB,03
04B0A:  MOVF   xEA,W
04B0C:  MOVWF  FE9
04B0E:  MOVFF  03,FEA
04B12:  MOVF   FEF,W
04B14:  XORLW  0A
04B16:  MOVLB  0
04B18:  BZ    4B20
04B1A:  XORLW  07
04B1C:  BZ    4B30
04B1E:  BRA    4B36
....................          case '\n': 
....................             y += 7*size + 1; 
04B20:  MOVLB  5
04B22:  MOVF   xEC,W
04B24:  MULLW  07
04B26:  MOVF   FF3,W
04B28:  ADDLW  01
04B2A:  ADDWF  xE9,F
....................             continue; 
04B2C:  BRA    4BD0
04B2E:  MOVLB  0
....................          case '\r': 
....................             x = 0; 
04B30:  MOVLB  5
04B32:  CLRF   xE8
....................             continue; 
04B34:  BRA    4BD0
....................       } 
....................  
....................       if(x+5*size >= GLCD_WIDTH)          // Performs character wrapping 
04B36:  MOVLB  5
04B38:  MOVF   xEC,W
04B3A:  MULLW  05
04B3C:  MOVF   FF3,W
04B3E:  ADDWF  xE8,W
04B40:  SUBLW  7F
04B42:  BC    4B50
....................       { 
....................          x = 0;                           // Set x at far left position 
04B44:  CLRF   xE8
....................          y += 7*size + 1;                 // Set y at next position down 
04B46:  MOVF   xEC,W
04B48:  MULLW  07
04B4A:  MOVF   FF3,W
04B4C:  ADDLW  01
04B4E:  ADDWF  xE9,F
....................       } 
....................       for(j=0; j<5; ++j, x+=size)         // Loop through character byte data 
04B50:  CLRF   xEE
04B52:  MOVF   xEE,W
04B54:  SUBLW  04
04B56:  BNC   4BD0
....................       { 
....................          for(k=0; k < 7; ++k)             // Loop through the vertical pixels 
04B58:  CLRF   xEF
04B5A:  MOVF   xEF,W
04B5C:  SUBLW  06
04B5E:  BNC   4BC8
....................          { 
....................             if(bit_test(pixelData[j], k)) // Check if the pixel should be set 
04B60:  CLRF   03
04B62:  MOVF   xEE,W
04B64:  ADDLW  F2
04B66:  MOVWF  FE9
04B68:  MOVLW  05
04B6A:  ADDWFC 03,W
04B6C:  MOVWF  FEA
04B6E:  MOVFF  FEF,5F7
04B72:  MOVFF  5F7,00
04B76:  MOVF   xEF,W
04B78:  MOVWF  01
04B7A:  BZ    4B84
04B7C:  BCF    FD8.0
04B7E:  RRCF   00,F
04B80:  DECFSZ 01,F
04B82:  BRA    4B7C
04B84:  BTFSS  00.0
04B86:  BRA    4BC4
....................             { 
....................                for(l=0; l < size; ++l)    // These two loops change the 
04B88:  CLRF   xF0
04B8A:  MOVF   xEC,W
04B8C:  SUBWF  xF0,W
04B8E:  BC    4BC4
....................                {                          // character's size 
....................                   for(m=0; m < size; ++m) 
04B90:  CLRF   xF1
04B92:  MOVF   xEC,W
04B94:  SUBWF  xF1,W
04B96:  BC    4BC0
....................                   { 
....................                      glcd_pixel(x+m, y+k*size+l, color); // Draws the pixel 
04B98:  MOVF   xF1,W
04B9A:  ADDWF  xE8,W
04B9C:  MOVWF  xF7
04B9E:  MOVF   xEF,W
04BA0:  MULWF  xEC
04BA2:  MOVF   FF3,W
04BA4:  ADDWF  xE9,W
04BA6:  ADDWF  xF0,W
04BA8:  MOVWF  xF8
04BAA:  MOVFF  5F7,603
04BAE:  MOVFF  FE8,604
04BB2:  MOVFF  5ED,605
04BB6:  MOVLB  0
04BB8:  RCALL  4730
....................                   } 
04BBA:  MOVLB  5
04BBC:  INCF   xF1,F
04BBE:  BRA    4B92
....................                } 
04BC0:  INCF   xF0,F
04BC2:  BRA    4B8A
....................             } 
....................          } 
04BC4:  INCF   xEF,F
04BC6:  BRA    4B5A
....................       } 
04BC8:  INCF   xEE,F
04BCA:  MOVF   xEC,W
04BCC:  ADDWF  xE8,F
04BCE:  BRA    4B52
....................    } 
04BD0:  INCF   xEA,F
04BD2:  BTFSC  FD8.2
04BD4:  INCF   xEB,F
04BD6:  INCF   xE8,F
04BD8:  MOVLB  0
04BDA:  BRA    4A28
04BDC:  MOVLB  5
.................... } 
04BDE:  MOVLB  0
04BE0:  RETLW  00
....................  
.................... #endif 
....................  
.................... #include "imagen.h" 
.................... const int8 Bombillo [64][16] = { 
.................... 0x00, 0x00, 0x00, 0x00, 0x00, 0x00, 0x00, 0x00, 0x00, 0x00, 0x00, 0x00, 0x00, 0x00, 0x00, 0x00, 
.................... 0x00, 0x00, 0x00, 0x00, 0x00, 0x00, 0x00, 0x00, 0x00, 0x00, 0x00, 0x00, 0x00, 0x00, 0x00, 0x00, 
.................... 0x00, 0x00, 0x00, 0x00, 0x00, 0x00, 0x00, 0x00, 0x00, 0x00, 0x00, 0x00, 0x00, 0x00, 0x00, 0x00, 
.................... 0x00, 0x00, 0x00, 0x00, 0x00, 0x00, 0x00, 0x00, 0x00, 0x00, 0x00, 0x00, 0x00, 0x00, 0x00, 0x00, 
.................... 0x00, 0x00, 0x00, 0x00, 0x00, 0x00, 0x00, 0x00, 0x00, 0x00, 0x00, 0x00, 0x00, 0x00, 0x00, 0x00, 
.................... 0x00, 0x00, 0x00, 0x00, 0x00, 0x00, 0x00, 0x00, 0x00, 0x00, 0x00, 0x00, 0x00, 0x00, 0x00, 0x00, 
.................... 0x00, 0x00, 0x00, 0x00, 0x00, 0x00, 0x00, 0x00, 0x00, 0x00, 0x00, 0x00, 0x00, 0x00, 0x00, 0x00, 
.................... 0x00, 0x00, 0x00, 0x00, 0x00, 0x00, 0x00, 0x00, 0x00, 0x00, 0x00, 0x00, 0x00, 0x00, 0x00, 0x00, 
.................... 0x00, 0x00, 0x00, 0x00, 0x00, 0x00, 0x00, 0x00, 0x00, 0x00, 0x00, 0x00, 0x00, 0x00, 0x00, 0x00, 
.................... 0x00, 0x00, 0x00, 0x00, 0x00, 0x00, 0x00, 0x00, 0x00, 0x00, 0x00, 0x00, 0x00, 0x00, 0x00, 0x00, 
.................... 0x00, 0x00, 0x00, 0x00, 0x00, 0x00, 0x00, 0x00, 0x00, 0x00, 0x00, 0x00, 0x00, 0x00, 0x00, 0x00, 
.................... 0x00, 0x00, 0x00, 0x00, 0x00, 0x00, 0x00, 0x00, 0x00, 0x00, 0x00, 0x00, 0x00, 0x00, 0x00, 0x00, 
.................... 0x00, 0x00, 0x00, 0x00, 0x00, 0x00, 0x00, 0x00, 0x00, 0x00, 0x00, 0x00, 0x00, 0x00, 0x00, 0x00, 
.................... 0x00, 0x00, 0x00, 0x00, 0x00, 0x00, 0x00, 0x00, 0x00, 0x00, 0x00, 0x00, 0x00, 0x00, 0x00, 0x00, 
.................... 0x00, 0x00, 0x00, 0x00, 0x00, 0x00, 0x00, 0x00, 0x00, 0x00, 0x00, 0x00, 0x00, 0x00, 0x00, 0x00, 
.................... 0x00, 0x00, 0x00, 0x00, 0x00, 0x00, 0x00, 0x00, 0x00, 0x00, 0x00, 0x00, 0x00, 0x08, 0x00, 0x80, 
.................... 0x00, 0x00, 0x00, 0x00, 0x00, 0x00, 0x00, 0x00, 0x00, 0x00, 0x00, 0x00, 0x00, 0x04, 0x01, 0x00, 
.................... 0x00, 0x00, 0x00, 0x00, 0x00, 0x00, 0x00, 0x00, 0x00, 0x00, 0x00, 0x00, 0x00, 0x02, 0x02, 0x00, 
.................... 0x00, 0x00, 0x00, 0x00, 0x00, 0x00, 0x00, 0x00, 0x00, 0x00, 0x00, 0x00, 0x00, 0x00, 0x78, 0x00, 
.................... 0x00, 0x00, 0x00, 0x00, 0x00, 0x00, 0x00, 0x00, 0x00, 0x00, 0x00, 0x00, 0x00, 0x00, 0x84, 0x00, 
.................... 0x00, 0x00, 0x00, 0x00, 0x00, 0x00, 0x00, 0x00, 0x00, 0x00, 0x00, 0x00, 0x00, 0x01, 0x02, 0x00, 
.................... 0x00, 0x00, 0x00, 0x00, 0x00, 0x00, 0x00, 0x00, 0x00, 0x00, 0x00, 0x00, 0x00, 0xF9, 0x02, 0xF8, 
.................... 0x00, 0x00, 0x00, 0x00, 0x00, 0x00, 0x00, 0x00, 0x00, 0x00, 0x00, 0x00, 0x00, 0x01, 0x02, 0x00, 
.................... 0x00, 0x00, 0x00, 0x00, 0x00, 0x00, 0x00, 0x00, 0x00, 0x00, 0x00, 0x00, 0x00, 0x01, 0x02, 0x00, 
.................... 0x00, 0x00, 0x00, 0x00, 0x00, 0x00, 0x00, 0x00, 0x00, 0x00, 0x00, 0x00, 0x00, 0x04, 0x84, 0x80, 
.................... 0x00, 0x00, 0x00, 0x00, 0x00, 0x00, 0x00, 0x00, 0x00, 0x00, 0x00, 0x00, 0x00, 0x08, 0x78, 0x40, 
.................... 0x00, 0x00, 0x00, 0x00, 0x00, 0x00, 0x00, 0x00, 0x00, 0x00, 0x00, 0x00, 0x00, 0x10, 0x48, 0x20, 
.................... 0x00, 0x00, 0x00, 0x00, 0x00, 0x00, 0x00, 0x00, 0x00, 0x00, 0x00, 0x00, 0x00, 0x20, 0x48, 0x10, 
.................... 0x00, 0x00, 0x00, 0x00, 0x00, 0x00, 0x00, 0x00, 0x00, 0x00, 0x00, 0x00, 0x00, 0x00, 0x78, 0x00, 
.................... 0x00, 0x00, 0x00, 0x00, 0x00, 0x00, 0x00, 0x00, 0x00, 0x00, 0x00, 0x00, 0x00, 0x00, 0x00, 0x00, 
.................... 0x00, 0x00, 0x00, 0x00, 0x00, 0x00, 0x00, 0x00, 0x00, 0x00, 0x00, 0x00, 0x00, 0x00, 0x00, 0x00, 
.................... 0x00, 0x00, 0x00, 0x00, 0x00, 0x00, 0x00, 0x00, 0x00, 0x00, 0x00, 0x00, 0x00, 0x00, 0x00, 0x00, 
.................... 0x00, 0x00, 0x00, 0x00, 0x00, 0x00, 0x00, 0x00, 0x00, 0x00, 0x00, 0x00, 0x00, 0x00, 0x00, 0x00, 
.................... 0x00, 0x00, 0x00, 0x00, 0x00, 0x00, 0x00, 0x00, 0x00, 0x00, 0x00, 0x00, 0x00, 0x00, 0x00, 0x00, 
.................... 0x00, 0x00, 0x00, 0x00, 0x00, 0x00, 0x00, 0x00, 0x00, 0x00, 0x00, 0x00, 0x00, 0x00, 0x00, 0x00, 
.................... 0x00, 0x00, 0x00, 0x00, 0x00, 0x00, 0x00, 0x00, 0x00, 0x00, 0x00, 0x00, 0x00, 0x00, 0x00, 0x00, 
.................... 0x00, 0x00, 0x00, 0x00, 0x00, 0x00, 0x00, 0x00, 0x00, 0x00, 0x00, 0x00, 0x00, 0x00, 0x00, 0x00, 
.................... 0x00, 0x00, 0x00, 0x00, 0x00, 0x00, 0x00, 0x00, 0x00, 0x00, 0x00, 0x00, 0x00, 0x00, 0x00, 0x00, 
.................... 0x00, 0x00, 0x00, 0x00, 0x00, 0x00, 0x00, 0x00, 0x00, 0x00, 0x00, 0x00, 0x00, 0x00, 0x00, 0x00, 
.................... 0x00, 0x00, 0x00, 0x00, 0x00, 0x00, 0x00, 0x00, 0x00, 0x00, 0x00, 0x00, 0x00, 0x00, 0x00, 0x00, 
.................... 0x00, 0x00, 0x00, 0x00, 0x00, 0x00, 0x00, 0x00, 0x00, 0x00, 0x00, 0x00, 0x00, 0x00, 0x00, 0x00, 
.................... 0x00, 0x00, 0x00, 0x00, 0x00, 0x00, 0x00, 0x00, 0x00, 0x00, 0x00, 0x00, 0x00, 0x00, 0x00, 0x00, 
.................... 0x00, 0x00, 0x00, 0x00, 0x00, 0x00, 0x00, 0x00, 0x00, 0x00, 0x00, 0x00, 0x00, 0x00, 0x00, 0x00, 
.................... 0x00, 0x00, 0x00, 0x00, 0x00, 0x00, 0x00, 0x00, 0x00, 0x00, 0x00, 0x00, 0x00, 0x00, 0x00, 0x00, 
.................... 0x00, 0x00, 0x00, 0x00, 0x00, 0x00, 0x00, 0x00, 0x00, 0x00, 0x00, 0x00, 0x00, 0x00, 0x00, 0x00, 
.................... 0x00, 0x00, 0x00, 0x00, 0x00, 0x00, 0x00, 0x00, 0x00, 0x00, 0x00, 0x00, 0x00, 0x00, 0x00, 0x00, 
.................... 0x00, 0x00, 0x00, 0x00, 0x00, 0x00, 0x00, 0x00, 0x00, 0x00, 0x00, 0x00, 0x00, 0x00, 0x00, 0x00, 
.................... 0x00, 0x00, 0x00, 0x00, 0x00, 0x00, 0x00, 0x00, 0x00, 0x00, 0x00, 0x00, 0x00, 0x00, 0x00, 0x00, 
.................... 0x00, 0x00, 0x00, 0x00, 0x00, 0x00, 0x00, 0x00, 0x00, 0x00, 0x00, 0x00, 0x00, 0x00, 0x00, 0x00, 
.................... 0x00, 0x00, 0x00, 0x00, 0x00, 0x00, 0x00, 0x00, 0x00, 0x00, 0x00, 0x00, 0x00, 0x00, 0x00, 0x00, 
.................... 0x00, 0x00, 0x00, 0x00, 0x00, 0x00, 0x00, 0x00, 0x00, 0x00, 0x00, 0x00, 0x00, 0x00, 0x00, 0x00, 
.................... 0x00, 0x00, 0x00, 0x00, 0x00, 0x00, 0x00, 0x00, 0x00, 0x00, 0x00, 0x00, 0x00, 0x00, 0x00, 0x00, 
.................... 0x00, 0x00, 0x00, 0x00, 0x00, 0x00, 0x00, 0x00, 0x00, 0x00, 0x00, 0x00, 0x00, 0x00, 0x00, 0x00, 
.................... 0x00, 0x00, 0x00, 0x00, 0x00, 0x00, 0x00, 0x00, 0x00, 0x00, 0x00, 0x00, 0x00, 0x00, 0x00, 0x00, 
.................... 0x00, 0x00, 0x00, 0x00, 0x00, 0x00, 0x00, 0x00, 0x00, 0x00, 0x00, 0x00, 0x00, 0x00, 0x00, 0x00, 
.................... 0x00, 0x00, 0x00, 0x00, 0x00, 0x00, 0x00, 0x00, 0x00, 0x00, 0x00, 0x00, 0x00, 0x00, 0x00, 0x00, 
.................... 0x00, 0x00, 0x00, 0x00, 0x00, 0x00, 0x00, 0x00, 0x00, 0x00, 0x00, 0x00, 0x00, 0x00, 0x00, 0x00, 
.................... 0x00, 0x00, 0x00, 0x00, 0x00, 0x00, 0x00, 0x00, 0x00, 0x00, 0x00, 0x00, 0x00, 0x00, 0x00, 0x00, 
.................... 0x00, 0x00, 0x00, 0x00, 0x00, 0x00, 0x00, 0x00, 0x00, 0x00, 0x00, 0x00, 0x00, 0x00, 0x00, 0x00, 
.................... 0x00, 0x00, 0x00, 0x00, 0x00, 0x00, 0x00, 0x00, 0x00, 0x00, 0x00, 0x00, 0x00, 0x00, 0x00, 0x00, 
.................... 0x00, 0x00, 0x00, 0x00, 0x00, 0x00, 0x00, 0x00, 0x00, 0x00, 0x00, 0x00, 0x00, 0x00, 0x00, 0x00, 
.................... 0x00, 0x00, 0x00, 0x00, 0x00, 0x00, 0x00, 0x00, 0x00, 0x00, 0x00, 0x00, 0x00, 0x00, 0x00, 0x00, 
.................... 0x00, 0x00, 0x00, 0x00, 0x00, 0x00, 0x00, 0x00, 0x00, 0x00, 0x00, 0x00, 0x00, 0x00, 0x00, 0x00, 
.................... 0x00, 0x00, 0x00, 0x00, 0x00, 0x00, 0x00, 0x00, 0x00, 0x00, 0x00, 0x00, 0x00, 0x00, 0x00, 0x00 
.................... }; 
....................  
.................... const int8 Tomai [64][16] = { 
.................... 0x00, 0x00, 0x00, 0x00, 0x00, 0x00, 0x00, 0x00, 0x00, 0x00, 0x00, 0x00, 0x00, 0x00, 0x00, 0x00, 
.................... 0x00, 0x00, 0x00, 0x00, 0x00, 0x00, 0x00, 0x00, 0x00, 0x00, 0x00, 0x00, 0x00, 0x00, 0x00, 0x00, 
.................... 0x00, 0x00, 0x00, 0x00, 0x00, 0x00, 0x00, 0x00, 0x00, 0x00, 0x00, 0x00, 0x00, 0x00, 0x00, 0x00, 
.................... 0x00, 0x00, 0x00, 0x00, 0x00, 0x00, 0x00, 0x00, 0x00, 0x00, 0x00, 0x00, 0x00, 0x00, 0x00, 0x00, 
.................... 0x00, 0x00, 0x00, 0x00, 0x00, 0x00, 0x00, 0x00, 0x00, 0x00, 0x00, 0x00, 0x00, 0x00, 0x00, 0x00, 
.................... 0x00, 0x00, 0x00, 0x00, 0x00, 0x00, 0x00, 0x00, 0x00, 0x00, 0x00, 0x00, 0x00, 0x00, 0x00, 0x00, 
.................... 0x00, 0x00, 0x00, 0x00, 0x00, 0x00, 0x00, 0x00, 0x00, 0x00, 0x00, 0x00, 0x00, 0x00, 0x00, 0x00, 
.................... 0x00, 0x00, 0x00, 0x00, 0x00, 0x00, 0x00, 0x00, 0x00, 0x00, 0x00, 0x00, 0x00, 0x00, 0x00, 0x00, 
.................... 0x00, 0x00, 0x00, 0x00, 0x00, 0x00, 0x00, 0x00, 0x00, 0x00, 0x00, 0x00, 0x00, 0x00, 0x00, 0x00, 
.................... 0x00, 0x00, 0x00, 0x00, 0x00, 0x00, 0x00, 0x00, 0x00, 0x00, 0x00, 0x00, 0x00, 0x00, 0x00, 0x00, 
.................... 0x00, 0x00, 0x00, 0x00, 0x00, 0x00, 0x00, 0x00, 0x00, 0x00, 0x00, 0x00, 0x00, 0x00, 0x00, 0x00, 
.................... 0x00, 0x00, 0x00, 0x00, 0x00, 0x00, 0x00, 0x00, 0x00, 0x00, 0x00, 0x00, 0x00, 0x00, 0x00, 0x00, 
.................... 0x00, 0x00, 0x00, 0x00, 0x00, 0x00, 0x00, 0x00, 0x00, 0x00, 0x00, 0x00, 0x00, 0x00, 0x00, 0x00, 
.................... 0x00, 0x00, 0x00, 0x00, 0x00, 0x00, 0x00, 0x00, 0x00, 0x00, 0x00, 0x00, 0x00, 0x00, 0x00, 0x00, 
.................... 0x00, 0x00, 0x00, 0x00, 0x00, 0x00, 0x00, 0x00, 0x00, 0x00, 0x00, 0x00, 0x00, 0x00, 0x00, 0x00, 
.................... 0x00, 0x00, 0x00, 0x00, 0x00, 0x00, 0x00, 0x00, 0x00, 0x00, 0x00, 0x00, 0x00, 0x00, 0x00, 0x00, 
.................... 0x00, 0x00, 0x00, 0x00, 0x00, 0x00, 0x00, 0x00, 0x00, 0x00, 0x00, 0x00, 0x00, 0x00, 0x00, 0x00, 
.................... 0x00, 0x00, 0x00, 0x00, 0x00, 0x00, 0x00, 0x00, 0x00, 0x00, 0x00, 0x00, 0x00, 0x00, 0x00, 0x00, 
.................... 0x00, 0x00, 0x00, 0x00, 0x00, 0x00, 0x00, 0x00, 0x00, 0x00, 0x00, 0x00, 0x00, 0x00, 0x00, 0x00, 
.................... 0x00, 0x00, 0x00, 0x00, 0x00, 0x00, 0x00, 0x00, 0x00, 0x00, 0x00, 0x00, 0x00, 0x00, 0x00, 0x00, 
.................... 0x00, 0x00, 0x00, 0x00, 0x00, 0x00, 0x00, 0x00, 0x00, 0x00, 0x00, 0x00, 0x00, 0x00, 0x00, 0x00, 
.................... 0x00, 0x00, 0x00, 0x00, 0x00, 0x00, 0x00, 0x00, 0x00, 0x00, 0x00, 0x00, 0x00, 0x00, 0x00, 0x00, 
.................... 0x00, 0x00, 0x00, 0x00, 0x00, 0x00, 0x00, 0x00, 0x00, 0x00, 0x00, 0x00, 0x00, 0x00, 0x00, 0x00, 
.................... 0x00, 0x00, 0x00, 0x00, 0x00, 0x00, 0x00, 0x00, 0x00, 0x00, 0x00, 0x00, 0x00, 0x00, 0x00, 0x00, 
.................... 0x00, 0x00, 0x00, 0x00, 0x00, 0x00, 0x00, 0x00, 0x00, 0x00, 0x00, 0x00, 0x00, 0x00, 0x00, 0x00, 
.................... 0x00, 0x00, 0x00, 0x00, 0x00, 0x00, 0x00, 0x00, 0x00, 0x00, 0x00, 0x00, 0x00, 0x00, 0x00, 0x00, 
.................... 0x00, 0x00, 0x00, 0x00, 0x00, 0x00, 0x00, 0x00, 0x00, 0x00, 0x00, 0x00, 0x00, 0x00, 0x00, 0x00, 
.................... 0x00, 0x00, 0x00, 0x00, 0x00, 0x00, 0x00, 0x00, 0x00, 0x00, 0x00, 0x00, 0x00, 0x00, 0x00, 0x00, 
.................... 0x00, 0x00, 0x00, 0x00, 0x00, 0x00, 0x00, 0x00, 0x00, 0x00, 0x00, 0x00, 0x00, 0x00, 0x00, 0x00, 
.................... 0x00, 0x00, 0x00, 0x00, 0x00, 0x00, 0x00, 0x00, 0x00, 0x00, 0x00, 0x00, 0x00, 0x00, 0x00, 0x00, 
.................... 0x00, 0x00, 0x00, 0x00, 0x00, 0x00, 0x00, 0x00, 0x00, 0x00, 0x00, 0x00, 0x00, 0x7F, 0xFF, 0xF8, 
.................... 0x00, 0x00, 0x00, 0x00, 0x00, 0x00, 0x00, 0x00, 0x00, 0x00, 0x00, 0x00, 0x00, 0x40, 0x00, 0x08, 
.................... 0x00, 0x00, 0x00, 0x00, 0x00, 0x00, 0x00, 0x00, 0x00, 0x00, 0x00, 0x00, 0x00, 0x47, 0x03, 0x88, 
.................... 0x00, 0x00, 0x00, 0x00, 0x00, 0x00, 0x00, 0x00, 0x00, 0x00, 0x00, 0x00, 0x00, 0x45, 0x02, 0x88, 
.................... 0x00, 0x00, 0x00, 0x00, 0x00, 0x00, 0x00, 0x00, 0x00, 0x00, 0x00, 0x00, 0x00, 0x45, 0x02, 0x88, 
.................... 0x00, 0x00, 0x00, 0x00, 0x00, 0x00, 0x00, 0x00, 0x00, 0x00, 0x00, 0x00, 0x00, 0x45, 0x02, 0x88, 
.................... 0x00, 0x00, 0x00, 0x00, 0x00, 0x00, 0x00, 0x00, 0x00, 0x00, 0x00, 0x00, 0x00, 0x45, 0x02, 0x88, 
.................... 0x00, 0x00, 0x00, 0x00, 0x00, 0x00, 0x00, 0x00, 0x00, 0x00, 0x00, 0x00, 0x00, 0x47, 0x03, 0x88, 
.................... 0x00, 0x00, 0x00, 0x00, 0x00, 0x00, 0x00, 0x00, 0x00, 0x00, 0x00, 0x00, 0x00, 0x40, 0x00, 0x08, 
.................... 0x00, 0x00, 0x00, 0x00, 0x00, 0x00, 0x00, 0x00, 0x00, 0x00, 0x00, 0x00, 0x00, 0x40, 0xFC, 0x08, 
.................... 0x00, 0x00, 0x00, 0x00, 0x00, 0x00, 0x00, 0x00, 0x00, 0x00, 0x00, 0x00, 0x00, 0x40, 0x84, 0x08, 
.................... 0x00, 0x00, 0x00, 0x00, 0x00, 0x00, 0x00, 0x00, 0x00, 0x00, 0x00, 0x00, 0x00, 0x40, 0x84, 0x08, 
.................... 0x00, 0x00, 0x00, 0x00, 0x00, 0x00, 0x00, 0x00, 0x00, 0x00, 0x00, 0x00, 0x00, 0x40, 0xFC, 0x08, 
.................... 0x00, 0x00, 0x00, 0x00, 0x00, 0x00, 0x00, 0x00, 0x00, 0x00, 0x00, 0x00, 0x00, 0x40, 0x00, 0x08, 
.................... 0x00, 0x00, 0x00, 0x00, 0x00, 0x00, 0x00, 0x00, 0x00, 0x00, 0x00, 0x00, 0x00, 0x7F, 0xFF, 0xF8, 
.................... 0x00, 0x00, 0x00, 0x00, 0x00, 0x00, 0x00, 0x00, 0x00, 0x00, 0x00, 0x00, 0x00, 0x00, 0x00, 0x00, 
.................... 0x00, 0x00, 0x00, 0x00, 0x00, 0x00, 0x00, 0x00, 0x00, 0x00, 0x00, 0x00, 0x00, 0x00, 0x00, 0x00, 
.................... 0x00, 0x00, 0x00, 0x00, 0x00, 0x00, 0x00, 0x00, 0x00, 0x00, 0x00, 0x00, 0x00, 0x00, 0x00, 0x00, 
.................... 0x00, 0x00, 0x00, 0x00, 0x00, 0x00, 0x00, 0x00, 0x00, 0x00, 0x00, 0x00, 0x00, 0x00, 0x00, 0x00, 
.................... 0x00, 0x00, 0x00, 0x00, 0x00, 0x00, 0x00, 0x00, 0x00, 0x00, 0x00, 0x00, 0x00, 0x00, 0x00, 0x00, 
.................... 0x00, 0x00, 0x00, 0x00, 0x00, 0x00, 0x00, 0x00, 0x00, 0x00, 0x00, 0x00, 0x00, 0x00, 0x00, 0x00, 
.................... 0x00, 0x00, 0x00, 0x00, 0x00, 0x00, 0x00, 0x00, 0x00, 0x00, 0x00, 0x00, 0x00, 0x00, 0x00, 0x00, 
.................... 0x00, 0x00, 0x00, 0x00, 0x00, 0x00, 0x00, 0x00, 0x00, 0x00, 0x00, 0x00, 0x00, 0x00, 0x00, 0x00, 
.................... 0x00, 0x00, 0x00, 0x00, 0x00, 0x00, 0x00, 0x00, 0x00, 0x00, 0x00, 0x00, 0x00, 0x00, 0x00, 0x00, 
.................... 0x00, 0x00, 0x00, 0x00, 0x00, 0x00, 0x00, 0x00, 0x00, 0x00, 0x00, 0x00, 0x00, 0x00, 0x00, 0x00, 
.................... 0x00, 0x00, 0x00, 0x00, 0x00, 0x00, 0x00, 0x00, 0x00, 0x00, 0x00, 0x00, 0x00, 0x00, 0x00, 0x00, 
.................... 0x00, 0x00, 0x00, 0x00, 0x00, 0x00, 0x00, 0x00, 0x00, 0x00, 0x00, 0x00, 0x00, 0x00, 0x00, 0x00, 
.................... 0x00, 0x00, 0x00, 0x00, 0x00, 0x00, 0x00, 0x00, 0x00, 0x00, 0x00, 0x00, 0x00, 0x00, 0x00, 0x00, 
.................... 0x00, 0x00, 0x00, 0x00, 0x00, 0x00, 0x00, 0x00, 0x00, 0x00, 0x00, 0x00, 0x00, 0x00, 0x00, 0x00, 
.................... 0x00, 0x00, 0x00, 0x00, 0x00, 0x00, 0x00, 0x00, 0x00, 0x00, 0x00, 0x00, 0x00, 0x00, 0x00, 0x00, 
.................... 0x00, 0x00, 0x00, 0x00, 0x00, 0x00, 0x00, 0x00, 0x00, 0x00, 0x00, 0x00, 0x00, 0x00, 0x00, 0x00, 
.................... 0x00, 0x00, 0x00, 0x00, 0x00, 0x00, 0x00, 0x00, 0x00, 0x00, 0x00, 0x00, 0x00, 0x00, 0x00, 0x00, 
.................... 0x00, 0x00, 0x00, 0x00, 0x00, 0x00, 0x00, 0x00, 0x00, 0x00, 0x00, 0x00, 0x00, 0x00, 0x00, 0x00, 
.................... 0x00, 0x00, 0x00, 0x00, 0x00, 0x00, 0x00, 0x00, 0x00, 0x00, 0x00, 0x00, 0x00, 0x00, 0x00, 0x00 
.................... }; 
....................  
.................... const int8 Ventilador [64][16] = { 
.................... 0x00, 0x00, 0x00, 0x00, 0x00, 0x00, 0x00, 0x00, 0x00, 0x00, 0x00, 0x00, 0x00, 0x00, 0x00, 0x00, 
.................... 0x00, 0x00, 0x00, 0x00, 0x00, 0x00, 0x00, 0x00, 0x00, 0x00, 0x00, 0x00, 0x00, 0x00, 0x00, 0x00, 
.................... 0x00, 0x00, 0x00, 0x00, 0x00, 0x00, 0x00, 0x00, 0x00, 0x00, 0x00, 0x00, 0x00, 0x00, 0x00, 0x00, 
.................... 0x00, 0x00, 0x00, 0x00, 0x00, 0x00, 0x00, 0x00, 0x00, 0x00, 0x00, 0x00, 0x00, 0x00, 0x00, 0x00, 
.................... 0x00, 0x00, 0x00, 0x00, 0x00, 0x00, 0x00, 0x00, 0x00, 0x00, 0x00, 0x00, 0x00, 0x00, 0x00, 0x00, 
.................... 0x00, 0x00, 0x00, 0x00, 0x00, 0x00, 0x00, 0x00, 0x00, 0x00, 0x00, 0x00, 0x00, 0x00, 0x00, 0x00, 
.................... 0x00, 0x00, 0x00, 0x00, 0x00, 0x00, 0x00, 0x00, 0x00, 0x00, 0x00, 0x00, 0x00, 0x00, 0x00, 0x00, 
.................... 0x00, 0x00, 0x00, 0x00, 0x00, 0x00, 0x00, 0x00, 0x00, 0x00, 0x00, 0x00, 0x00, 0x00, 0x00, 0x00, 
.................... 0x00, 0x00, 0x00, 0x00, 0x00, 0x00, 0x00, 0x00, 0x00, 0x00, 0x00, 0x00, 0x00, 0x00, 0x00, 0x00, 
.................... 0x00, 0x00, 0x00, 0x00, 0x00, 0x00, 0x00, 0x00, 0x00, 0x00, 0x00, 0x00, 0x00, 0x00, 0x00, 0x00, 
.................... 0x00, 0x00, 0x00, 0x00, 0x00, 0x00, 0x00, 0x00, 0x00, 0x00, 0x00, 0x00, 0x00, 0x00, 0x00, 0x00, 
.................... 0x00, 0x00, 0x00, 0x00, 0x00, 0x00, 0x00, 0x00, 0x00, 0x00, 0x00, 0x00, 0x00, 0x00, 0x00, 0x00, 
.................... 0x00, 0x00, 0x00, 0x00, 0x00, 0x00, 0x00, 0x00, 0x00, 0x00, 0x00, 0x00, 0x00, 0x00, 0x00, 0x00, 
.................... 0x00, 0x00, 0x00, 0x00, 0x00, 0x00, 0x00, 0x00, 0x00, 0x00, 0x00, 0x00, 0x00, 0x00, 0x00, 0x00, 
.................... 0x00, 0x00, 0x00, 0x00, 0x00, 0x00, 0x00, 0x00, 0x00, 0x00, 0x00, 0x00, 0x00, 0x00, 0x00, 0x00, 
.................... 0x00, 0x00, 0x00, 0x00, 0x00, 0x00, 0x00, 0x00, 0x00, 0x00, 0x00, 0x00, 0x00, 0x00, 0x00, 0x00, 
.................... 0x00, 0x00, 0x00, 0x00, 0x00, 0x00, 0x00, 0x00, 0x00, 0x00, 0x00, 0x00, 0x00, 0x00, 0x00, 0x00, 
.................... 0x00, 0x00, 0x00, 0x00, 0x00, 0x00, 0x00, 0x00, 0x00, 0x00, 0x00, 0x00, 0x00, 0x00, 0x00, 0x00, 
.................... 0x00, 0x00, 0x00, 0x00, 0x00, 0x00, 0x00, 0x00, 0x00, 0x00, 0x00, 0x00, 0x00, 0x00, 0x00, 0x00, 
.................... 0x00, 0x00, 0x00, 0x00, 0x00, 0x00, 0x00, 0x00, 0x00, 0x00, 0x00, 0x00, 0x00, 0x00, 0x00, 0x00, 
.................... 0x00, 0x00, 0x00, 0x00, 0x00, 0x00, 0x00, 0x00, 0x00, 0x00, 0x00, 0x00, 0x00, 0x00, 0x00, 0x00, 
.................... 0x00, 0x00, 0x00, 0x00, 0x00, 0x00, 0x00, 0x00, 0x00, 0x00, 0x00, 0x00, 0x00, 0x00, 0x00, 0x00, 
.................... 0x00, 0x00, 0x00, 0x00, 0x00, 0x00, 0x00, 0x00, 0x00, 0x00, 0x00, 0x00, 0x00, 0x00, 0x00, 0x00, 
.................... 0x00, 0x00, 0x00, 0x00, 0x00, 0x00, 0x00, 0x00, 0x00, 0x00, 0x00, 0x00, 0x00, 0x00, 0x00, 0x00, 
.................... 0x00, 0x00, 0x00, 0x00, 0x00, 0x00, 0x00, 0x00, 0x00, 0x00, 0x00, 0x00, 0x00, 0x00, 0x00, 0x00, 
.................... 0x00, 0x00, 0x00, 0x00, 0x00, 0x00, 0x00, 0x00, 0x00, 0x00, 0x00, 0x00, 0x00, 0x00, 0x00, 0x00, 
.................... 0x00, 0x00, 0x00, 0x00, 0x00, 0x00, 0x00, 0x00, 0x00, 0x00, 0x00, 0x00, 0x00, 0x00, 0x00, 0x00, 
.................... 0x00, 0x00, 0x00, 0x00, 0x00, 0x00, 0x00, 0x00, 0x00, 0x00, 0x00, 0x00, 0x00, 0x00, 0x00, 0x00, 
.................... 0x00, 0x00, 0x00, 0x00, 0x00, 0x00, 0x00, 0x00, 0x00, 0x00, 0x00, 0x00, 0x00, 0x00, 0x00, 0x00, 
.................... 0x00, 0x00, 0x00, 0x00, 0x00, 0x00, 0x00, 0x00, 0x00, 0x00, 0x00, 0x00, 0x00, 0x00, 0x00, 0x00, 
.................... 0x00, 0x00, 0x00, 0x00, 0x00, 0x00, 0x00, 0x00, 0x00, 0x00, 0x00, 0x00, 0x00, 0x00, 0x00, 0x00, 
.................... 0x00, 0x00, 0x00, 0x00, 0x00, 0x00, 0x00, 0x00, 0x00, 0x00, 0x00, 0x00, 0x00, 0x00, 0x00, 0x00, 
.................... 0x00, 0x00, 0x00, 0x00, 0x00, 0x00, 0x00, 0x00, 0x00, 0x00, 0x00, 0x00, 0x00, 0x00, 0x00, 0x00, 
.................... 0x00, 0x00, 0x00, 0x00, 0x00, 0x00, 0x00, 0x00, 0x00, 0x00, 0x00, 0x00, 0x00, 0x00, 0x00, 0x00, 
.................... 0x00, 0x00, 0x00, 0x00, 0x00, 0x00, 0x00, 0x00, 0x00, 0x00, 0x00, 0x00, 0x00, 0x00, 0x00, 0x00, 
.................... 0x00, 0x00, 0x00, 0x00, 0x00, 0x00, 0x00, 0x00, 0x00, 0x00, 0x00, 0x00, 0x00, 0x00, 0x00, 0x00, 
.................... 0x00, 0x00, 0x00, 0x00, 0x00, 0x00, 0x00, 0x00, 0x00, 0x00, 0x00, 0x00, 0x00, 0x00, 0x00, 0x00, 
.................... 0x00, 0x00, 0x00, 0x00, 0x00, 0x00, 0x00, 0x00, 0x00, 0x00, 0x00, 0x00, 0x00, 0x00, 0x00, 0x00, 
.................... 0x00, 0x00, 0x00, 0x00, 0x00, 0x00, 0x00, 0x00, 0x00, 0x00, 0x00, 0x00, 0x00, 0x00, 0x00, 0x00, 
.................... 0x00, 0x00, 0x00, 0x00, 0x00, 0x00, 0x00, 0x00, 0x00, 0x00, 0x00, 0x00, 0x00, 0x00, 0x00, 0x00, 
.................... 0x00, 0x00, 0x00, 0x00, 0x00, 0x00, 0x00, 0x00, 0x00, 0x00, 0x00, 0x00, 0x00, 0x00, 0x00, 0x00, 
.................... 0x00, 0x00, 0x00, 0x00, 0x00, 0x00, 0x00, 0x00, 0x00, 0x00, 0x00, 0x00, 0x00, 0x00, 0x00, 0x00, 
.................... 0x00, 0x00, 0x00, 0x00, 0x00, 0x00, 0x00, 0x00, 0x00, 0x00, 0x00, 0x00, 0x00, 0x00, 0x00, 0x00, 
.................... 0x00, 0x00, 0x00, 0x00, 0x00, 0x00, 0x00, 0x00, 0x00, 0x00, 0x00, 0x00, 0x00, 0x00, 0x00, 0x00, 
.................... 0x00, 0x00, 0x00, 0x00, 0x00, 0x00, 0x00, 0x00, 0x00, 0x00, 0x00, 0x00, 0x00, 0x00, 0x00, 0x00, 
.................... 0x00, 0x00, 0x00, 0x00, 0x00, 0x00, 0x00, 0x00, 0x00, 0x00, 0x00, 0x00, 0x00, 0x00, 0x00, 0x00, 
.................... 0x00, 0x00, 0x00, 0x00, 0x00, 0x00, 0x00, 0x00, 0x00, 0x00, 0x00, 0x00, 0x00, 0x00, 0x60, 0x00, 
.................... 0x00, 0x00, 0x00, 0x00, 0x00, 0x00, 0x00, 0x00, 0x00, 0x00, 0x00, 0x00, 0x00, 0x00, 0xF0, 0x00, 
.................... 0x00, 0x00, 0x00, 0x00, 0x00, 0x00, 0x00, 0x00, 0x00, 0x00, 0x00, 0x00, 0x00, 0x01, 0xF8, 0x00, 
.................... 0x00, 0x00, 0x00, 0x00, 0x00, 0x00, 0x00, 0x00, 0x00, 0x00, 0x00, 0x00, 0x00, 0x01, 0xF8, 0x00, 
.................... 0x00, 0x00, 0x00, 0x00, 0x00, 0x00, 0x00, 0x00, 0x00, 0x00, 0x00, 0x00, 0x00, 0x01, 0xF8, 0x00, 
.................... 0x00, 0x00, 0x00, 0x00, 0x00, 0x00, 0x00, 0x00, 0x00, 0x00, 0x00, 0x00, 0x00, 0x00, 0xF0, 0x00, 
.................... 0x00, 0x00, 0x00, 0x00, 0x00, 0x00, 0x00, 0x00, 0x00, 0x00, 0x00, 0x00, 0x00, 0x38, 0x71, 0xC0, 
.................... 0x00, 0x00, 0x00, 0x00, 0x00, 0x00, 0x00, 0x00, 0x00, 0x00, 0x00, 0x00, 0x00, 0x7C, 0x93, 0xE0, 
.................... 0x00, 0x00, 0x00, 0x00, 0x00, 0x00, 0x00, 0x00, 0x00, 0x00, 0x00, 0x00, 0x00, 0xFF, 0x0F, 0xF0, 
.................... 0x00, 0x00, 0x00, 0x00, 0x00, 0x00, 0x00, 0x00, 0x00, 0x00, 0x00, 0x00, 0x00, 0xFF, 0x0F, 0xF0, 
.................... 0x00, 0x00, 0x00, 0x00, 0x00, 0x00, 0x00, 0x00, 0x00, 0x00, 0x00, 0x00, 0x00, 0x7D, 0x93, 0xE0, 
.................... 0x00, 0x00, 0x00, 0x00, 0x00, 0x00, 0x00, 0x00, 0x00, 0x00, 0x00, 0x00, 0x00, 0x38, 0x61, 0xC0, 
.................... 0x00, 0x00, 0x00, 0x00, 0x00, 0x00, 0x00, 0x00, 0x00, 0x00, 0x00, 0x00, 0x00, 0x00, 0xF0, 0x00, 
.................... 0x00, 0x00, 0x00, 0x00, 0x00, 0x00, 0x00, 0x00, 0x00, 0x00, 0x00, 0x00, 0x00, 0x01, 0xF8, 0x00, 
.................... 0x00, 0x00, 0x00, 0x00, 0x00, 0x00, 0x00, 0x00, 0x00, 0x00, 0x00, 0x00, 0x00, 0x01, 0xF8, 0x00, 
.................... 0x00, 0x00, 0x00, 0x00, 0x00, 0x00, 0x00, 0x00, 0x00, 0x00, 0x00, 0x00, 0x00, 0x01, 0xF8, 0x00, 
.................... 0x00, 0x00, 0x00, 0x00, 0x00, 0x00, 0x00, 0x00, 0x00, 0x00, 0x00, 0x00, 0x00, 0x00, 0xF0, 0x00, 
.................... 0x00, 0x00, 0x00, 0x00, 0x00, 0x00, 0x00, 0x00, 0x00, 0x00, 0x00, 0x00, 0x00, 0x00, 0x60, 0x00 
.................... }; 
....................  
.................... #include "FuncionesDisplay.h" 
....................  
.................... typedef struct{ 
....................    char Letra[20]; 
.................... }MENUU; 
....................  
.................... MENUU Menus; 
....................   
.................... void displayContrasena(int digito, int x, int y, int sombreado) 
.................... { 
....................    char voltage[9]; 
....................    sprintf(voltage, "%i", digito); 
04BE2:  MOVLW  05
04BE4:  MOVLB  4
04BE6:  MOVWF  x2C
04BE8:  MOVLW  DD
04BEA:  MOVWF  x2B
04BEC:  MOVFF  5D9,5E6
04BF0:  MOVLW  1F
04BF2:  MOVLB  5
04BF4:  MOVWF  xE7
04BF6:  MOVLB  0
04BF8:  RCALL  4652
....................     
....................    if(sombreado==1) 
04BFA:  MOVLB  5
04BFC:  DECFSZ xDC,W
04BFE:  BRA    4C4E
....................       {glcd_rect(x, y, x+18, y+24, YES, ON);glcd_text57(x+2, y+1, voltage, 2, OFF);} 
04C00:  MOVLW  12
04C02:  ADDWF  xDA,W
04C04:  MOVWF  xE6
04C06:  MOVLW  18
04C08:  ADDWF  xDB,W
04C0A:  MOVWF  xE7
04C0C:  MOVFF  5DA,5E8
04C10:  MOVFF  5DB,5E9
04C14:  MOVFF  5E6,5EA
04C18:  MOVWF  xEB
04C1A:  MOVLW  01
04C1C:  MOVWF  xEC
04C1E:  MOVWF  xED
04C20:  MOVLB  0
04C22:  RCALL  4966
04C24:  MOVLW  02
04C26:  MOVLB  5
04C28:  ADDWF  xDA,W
04C2A:  MOVWF  xE6
04C2C:  MOVLW  01
04C2E:  ADDWF  xDB,W
04C30:  MOVWF  xE7
04C32:  MOVFF  5E6,5E8
04C36:  MOVWF  xE9
04C38:  MOVLW  05
04C3A:  MOVWF  xEB
04C3C:  MOVLW  DD
04C3E:  MOVWF  xEA
04C40:  MOVLW  02
04C42:  MOVWF  xEC
04C44:  CLRF   xED
04C46:  MOVLB  0
04C48:  RCALL  4A28
....................    else    
04C4A:  BRA    4C98
04C4C:  MOVLB  5
....................       {glcd_rect(x, y, x+18, y+24, NO, OFF);glcd_text57(x+2, y+1, voltage, 2, ON);} 
04C4E:  MOVLW  12
04C50:  ADDWF  xDA,W
04C52:  MOVWF  xE6
04C54:  MOVLW  18
04C56:  ADDWF  xDB,W
04C58:  MOVWF  xE7
04C5A:  MOVFF  5DA,5E8
04C5E:  MOVFF  5DB,5E9
04C62:  MOVFF  5E6,5EA
04C66:  MOVWF  xEB
04C68:  CLRF   xEC
04C6A:  CLRF   xED
04C6C:  MOVLB  0
04C6E:  RCALL  4966
04C70:  MOVLW  02
04C72:  MOVLB  5
04C74:  ADDWF  xDA,W
04C76:  MOVWF  xE6
04C78:  MOVLW  01
04C7A:  ADDWF  xDB,W
04C7C:  MOVWF  xE7
04C7E:  MOVFF  5E6,5E8
04C82:  MOVWF  xE9
04C84:  MOVLW  05
04C86:  MOVWF  xEB
04C88:  MOVLW  DD
04C8A:  MOVWF  xEA
04C8C:  MOVLW  02
04C8E:  MOVWF  xEC
04C90:  MOVLW  01
04C92:  MOVWF  xED
04C94:  MOVLB  0
04C96:  RCALL  4A28
....................  
.................... } 
04C98:  RETLW  00
....................  
.................... void displayTiempo(int digito, int x, int y, int sombreado, int tamano) 
.................... { 
....................    char voltage[9]; 
....................    sprintf(voltage, "%i", digito); 
*
05468:  MOVLW  05
0546A:  MOVLB  4
0546C:  MOVWF  x2C
0546E:  MOVLW  D4
05470:  MOVWF  x2B
05472:  MOVFF  5CF,5E6
05476:  MOVLW  1F
05478:  MOVLB  5
0547A:  MOVWF  xE7
0547C:  MOVLB  0
0547E:  CALL   4652
....................     
....................    if(sombreado==1) 
05482:  MOVLB  5
05484:  DECFSZ xD2,W
05486:  BRA    54E0
....................       {glcd_rect(x, y, x+(tamano*6), y+(tamano*8), YES, ON);glcd_text57(x+2, y+1, voltage, tamano, OFF);} 
05488:  MOVF   xD3,W
0548A:  MULLW  06
0548C:  MOVF   FF3,W
0548E:  ADDWF  xD0,W
05490:  MOVWF  xDD
05492:  MOVF   xD3,W
05494:  MULLW  08
05496:  MOVF   FF3,W
05498:  ADDWF  xD1,W
0549A:  MOVWF  xDE
0549C:  MOVFF  5D0,5E8
054A0:  MOVFF  5D1,5E9
054A4:  MOVFF  5DD,5EA
054A8:  MOVWF  xEB
054AA:  MOVLW  01
054AC:  MOVWF  xEC
054AE:  MOVWF  xED
054B0:  MOVLB  0
054B2:  CALL   4966
054B6:  MOVLW  02
054B8:  MOVLB  5
054BA:  ADDWF  xD0,W
054BC:  MOVWF  xDD
054BE:  MOVLW  01
054C0:  ADDWF  xD1,W
054C2:  MOVWF  xDE
054C4:  MOVFF  5DD,5E8
054C8:  MOVWF  xE9
054CA:  MOVLW  05
054CC:  MOVWF  xEB
054CE:  MOVLW  D4
054D0:  MOVWF  xEA
054D2:  MOVFF  5D3,5EC
054D6:  CLRF   xED
054D8:  MOVLB  0
054DA:  CALL   4A28
054DE:  MOVLB  5
....................    if(sombreado==0) 
054E0:  MOVF   xD2,F
054E2:  BNZ   553E
....................       {glcd_rect(x, y, x+(tamano*6), y+(tamano*8), YES, OFF);glcd_text57(x+2, y+1, voltage, tamano, ON);} 
054E4:  MOVF   xD3,W
054E6:  MULLW  06
054E8:  MOVF   FF3,W
054EA:  ADDWF  xD0,W
054EC:  MOVWF  xDD
054EE:  MOVF   xD3,W
054F0:  MULLW  08
054F2:  MOVF   FF3,W
054F4:  ADDWF  xD1,W
054F6:  MOVWF  xDE
054F8:  MOVFF  5D0,5E8
054FC:  MOVFF  5D1,5E9
05500:  MOVFF  5DD,5EA
05504:  MOVWF  xEB
05506:  MOVLW  01
05508:  MOVWF  xEC
0550A:  CLRF   xED
0550C:  MOVLB  0
0550E:  CALL   4966
05512:  MOVLW  02
05514:  MOVLB  5
05516:  ADDWF  xD0,W
05518:  MOVWF  xDD
0551A:  MOVLW  01
0551C:  ADDWF  xD1,W
0551E:  MOVWF  xDE
05520:  MOVFF  5DD,5E8
05524:  MOVWF  xE9
05526:  MOVLW  05
05528:  MOVWF  xEB
0552A:  MOVLW  D4
0552C:  MOVWF  xEA
0552E:  MOVFF  5D3,5EC
05532:  MOVLW  01
05534:  MOVWF  xED
05536:  MOVLB  0
05538:  CALL   4A28
0553C:  MOVLB  5
....................  
.................... } 
0553E:  MOVLB  0
05540:  RETLW  00
....................  
.................... void displayMenu(char palabra[100], int x, int y, int sombreado, int tamano) 
.................... { 
....................    strcpy(Menus.Letra,palabra); 
*
04C9A:  MOVLB  5
04C9C:  MOVFF  5D7,01
04CA0:  MOVFF  5D8,03
04CA4:  MOVFF  5D7,5DD
04CA8:  MOVFF  5D8,5DE
04CAC:  MOVLW  04
04CAE:  MOVWF  FEA
04CB0:  MOVLW  17
04CB2:  MOVWF  FE9
04CB4:  MOVFF  5D8,FE2
04CB8:  MOVFF  5D7,FE1
04CBC:  MOVF   FE7,F
04CBE:  MOVFF  FE6,FEE
04CC2:  BNZ   4CBC
....................    if(sombreado==1) 
04CC4:  DECFSZ xDB,W
04CC6:  BRA    4D12
....................       {glcd_rect(0, y, 127, y+(tamano*8), YES, ON);glcd_text57(x+1, y+1, Menus.Letra, tamano, OFF);} 
04CC8:  MOVF   xDC,W
04CCA:  MULLW  08
04CCC:  MOVF   FF3,W
04CCE:  ADDWF  xDA,W
04CD0:  MOVWF  xDD
04CD2:  CLRF   xE8
04CD4:  MOVFF  5DA,5E9
04CD8:  MOVLW  7F
04CDA:  MOVWF  xEA
04CDC:  MOVFF  5DD,5EB
04CE0:  MOVLW  01
04CE2:  MOVWF  xEC
04CE4:  MOVWF  xED
04CE6:  MOVLB  0
04CE8:  RCALL  4966
04CEA:  MOVLW  01
04CEC:  MOVLB  5
04CEE:  ADDWF  xD9,W
04CF0:  MOVWF  xDD
04CF2:  MOVLW  01
04CF4:  ADDWF  xDA,W
04CF6:  MOVWF  xDE
04CF8:  MOVFF  5DD,5E8
04CFC:  MOVWF  xE9
04CFE:  MOVLW  04
04D00:  MOVWF  xEB
04D02:  MOVLW  17
04D04:  MOVWF  xEA
04D06:  MOVFF  5DC,5EC
04D0A:  CLRF   xED
04D0C:  MOVLB  0
04D0E:  RCALL  4A28
04D10:  MOVLB  5
....................    if(sombreado==0) 
04D12:  MOVF   xDB,F
04D14:  BNZ   4D62
....................       {glcd_rect(0, y, 127, y+(tamano*8), YES, OFF);glcd_text57(x+1, y+1, Menus.Letra, tamano, ON);} 
04D16:  MOVF   xDC,W
04D18:  MULLW  08
04D1A:  MOVF   FF3,W
04D1C:  ADDWF  xDA,W
04D1E:  MOVWF  xDD
04D20:  CLRF   xE8
04D22:  MOVFF  5DA,5E9
04D26:  MOVLW  7F
04D28:  MOVWF  xEA
04D2A:  MOVFF  5DD,5EB
04D2E:  MOVLW  01
04D30:  MOVWF  xEC
04D32:  CLRF   xED
04D34:  MOVLB  0
04D36:  RCALL  4966
04D38:  MOVLW  01
04D3A:  MOVLB  5
04D3C:  ADDWF  xD9,W
04D3E:  MOVWF  xDD
04D40:  MOVLW  01
04D42:  ADDWF  xDA,W
04D44:  MOVWF  xDE
04D46:  MOVFF  5DD,5E8
04D4A:  MOVWF  xE9
04D4C:  MOVLW  04
04D4E:  MOVWF  xEB
04D50:  MOVLW  17
04D52:  MOVWF  xEA
04D54:  MOVFF  5DC,5EC
04D58:  MOVLW  01
04D5A:  MOVWF  xED
04D5C:  MOVLB  0
04D5E:  RCALL  4A28
04D60:  MOVLB  5
....................  
.................... } 
04D62:  MOVLB  0
04D64:  RETLW  00
....................  
.................... void displayfloat(float adc,int x,int y,int sombreado, int tamano) { 
....................    char voltage[9];     
....................       sprintf(voltage, "%2.0fC",adc); // Converts adc to text 
*
059EA:  MOVLW  05
059EC:  MOVLB  4
059EE:  MOVWF  x2C
059F0:  MOVLW  DB
059F2:  MOVWF  x2B
059F4:  MOVLW  01
059F6:  MOVWF  FE9
059F8:  MOVFF  5D6,5E7
059FC:  MOVFF  5D5,5E6
05A00:  MOVFF  5D4,5E5
05A04:  MOVFF  5D3,5E4
05A08:  MOVLB  5
05A0A:  CLRF   xE8
05A0C:  MOVLB  0
05A0E:  BRA    5832
05A10:  MOVLW  B0
05A12:  MOVLB  5
05A14:  MOVWF  xF1
05A16:  MOVLB  0
05A18:  CALL   4630
05A1C:  MOVLW  43
05A1E:  MOVLB  5
05A20:  MOVWF  xF1
05A22:  MOVLB  0
05A24:  CALL   4630
....................        
....................    if(sombreado==1) 
05A28:  MOVLB  5
05A2A:  DECFSZ xD9,W
05A2C:  BRA    5A86
....................       {glcd_rect(x, y, x+(tamano*20), y+(tamano*8), YES, ON);glcd_text57(x+2, y+1, voltage, tamano, OFF);} 
05A2E:  MOVF   xDA,W
05A30:  MULLW  14
05A32:  MOVF   FF3,W
05A34:  ADDWF  xD7,W
05A36:  MOVWF  xE4
05A38:  MOVF   xDA,W
05A3A:  MULLW  08
05A3C:  MOVF   FF3,W
05A3E:  ADDWF  xD8,W
05A40:  MOVWF  xE5
05A42:  MOVFF  5D7,5E8
05A46:  MOVFF  5D8,5E9
05A4A:  MOVFF  5E4,5EA
05A4E:  MOVWF  xEB
05A50:  MOVLW  01
05A52:  MOVWF  xEC
05A54:  MOVWF  xED
05A56:  MOVLB  0
05A58:  CALL   4966
05A5C:  MOVLW  02
05A5E:  MOVLB  5
05A60:  ADDWF  xD7,W
05A62:  MOVWF  xE4
05A64:  MOVLW  01
05A66:  ADDWF  xD8,W
05A68:  MOVWF  xE5
05A6A:  MOVFF  5E4,5E8
05A6E:  MOVWF  xE9
05A70:  MOVLW  05
05A72:  MOVWF  xEB
05A74:  MOVLW  DB
05A76:  MOVWF  xEA
05A78:  MOVFF  5DA,5EC
05A7C:  CLRF   xED
05A7E:  MOVLB  0
05A80:  CALL   4A28
05A84:  MOVLB  5
....................    if(sombreado==0) 
05A86:  MOVF   xD9,F
05A88:  BNZ   5AE4
....................       {glcd_rect(x, y, x+(tamano*20), y+(tamano*8), YES, OFF);glcd_text57(x+2, y+1, voltage, tamano, ON);} 
05A8A:  MOVF   xDA,W
05A8C:  MULLW  14
05A8E:  MOVF   FF3,W
05A90:  ADDWF  xD7,W
05A92:  MOVWF  xE4
05A94:  MOVF   xDA,W
05A96:  MULLW  08
05A98:  MOVF   FF3,W
05A9A:  ADDWF  xD8,W
05A9C:  MOVWF  xE5
05A9E:  MOVFF  5D7,5E8
05AA2:  MOVFF  5D8,5E9
05AA6:  MOVFF  5E4,5EA
05AAA:  MOVWF  xEB
05AAC:  MOVLW  01
05AAE:  MOVWF  xEC
05AB0:  CLRF   xED
05AB2:  MOVLB  0
05AB4:  CALL   4966
05AB8:  MOVLW  02
05ABA:  MOVLB  5
05ABC:  ADDWF  xD7,W
05ABE:  MOVWF  xE4
05AC0:  MOVLW  01
05AC2:  ADDWF  xD8,W
05AC4:  MOVWF  xE5
05AC6:  MOVFF  5E4,5E8
05ACA:  MOVWF  xE9
05ACC:  MOVLW  05
05ACE:  MOVWF  xEB
05AD0:  MOVLW  DB
05AD2:  MOVWF  xEA
05AD4:  MOVFF  5DA,5EC
05AD8:  MOVLW  01
05ADA:  MOVWF  xED
05ADC:  MOVLB  0
05ADE:  CALL   4A28
05AE2:  MOVLB  5
....................        
.................... } 
05AE4:  MOVLB  0
05AE6:  RETLW  00
....................  
.................... // Funcion para conversor analogo-digital 
.................... unsigned int16 sensores(int x){ 
.................... unsigned int16 y;set_adc_channel(x);delay_ms(1);y=read_adc();return (y); 
*
02D9A:  MOVLB  5
02D9C:  RLCF   xE0,W
02D9E:  MOVWF  00
02DA0:  RLCF   00,F
02DA2:  MOVLW  FC
02DA4:  ANDWF  00,F
02DA6:  MOVFF  00,01
02DAA:  MOVF   FC2,W
02DAC:  ANDLW  C3
02DAE:  IORWF  00,W
02DB0:  MOVWF  FC2
02DB2:  MOVLW  01
02DB4:  MOVWF  xE3
02DB6:  MOVLB  0
02DB8:  CALL   155C
02DBC:  BSF    FC2.1
02DBE:  BTFSC  FC2.1
02DC0:  BRA    2DBE
02DC2:  MOVFF  FC4,5E2
02DC6:  MOVLB  5
02DC8:  MOVFF  FC3,5E1
02DCC:  MOVFF  5E1,01
02DD0:  MOVFF  5E2,02
.................... } 
02DD4:  MOVLB  0
02DD6:  RETLW  00
....................  
....................  
.................... #define   UP               !input(PIN_A5) 
.................... #define   DOWN             !input(PIN_E0) 
.................... #define   RIGHT            !input(PIN_E1) 
.................... #define   LEFT             !input(PIN_E2) 
.................... #define   VIDRIOUP         input(PIN_A3) 
.................... #define   VIDRIODN         input(PIN_A4) 
....................  
.................... #define   Alarma_on           output_bit(PIN_C7,1) 
.................... #define   Alarma_off          output_bit(PIN_C7,0) 
.................... #define   LuzBlanca_on        output_bit(PIN_C0,1) 
.................... #define   LuzBlanca_off       output_bit(PIN_C0,0) 
.................... #define   Aux_on              output_bit(PIN_C1,1) 
.................... #define   Aux_off             output_bit(PIN_C1,0) 
.................... #define   Motor_on            output_bit(PIN_C2,1) 
.................... #define   Motor_off           output_bit(PIN_C2,0) 
.................... #define   Display_on          output_bit(PIN_B1,1) 
.................... #define   Display_off         output_bit(PIN_B1,0) 
....................  
.................... short Flanco=0,Flanco1=0,Flanco2=0,Flanco3=0,Flanco4=0,Flanco5=0,imprimir=0,flag_blower=0,flag_toma=0,flag_luz=0,flag_alarma=0,w=0,flag_uv=0; 
.................... short tiempo_purga=0,tiempo_trabajo=0,flag_latencia=0,tiempo_postpurga=0; 
.................... short guardatrabajo=0,Lectura=0,n=0; 
.................... char  JP[] = "JP Inglobal", Cabina[] = "      Cabina",Dos_puntos[]=":",UV[]="UV"; 
.................... char  Clase[] = "Extractora", Tiempo[] = "Tiempo de Purga"; 
.................... char  Inflowt[] = "Vel:",Downflowt[] = "Temperatura", ZF[] = "Fabrica:208.0", ZA[] = "Actual:",AJ[]="Ajuste:"; 
.................... char  Vida_Filtro[] = "T. Filtro:",ZFP[] = "Fabrica:235.0", Perdida[]="!Filtro Saturado!"; 
.................... int8 Menu=200, unidad=1, Opcion=1,negativo=10,G_l=0,G_h=0,tiemporeset=0; 
.................... int8 q=0,r=0,l=0,h=0,Entero=0,Decimal1=0,Alarma=10; 
....................  
.................... unsigned int16 Inflow_adc=0,Filtro_Downflow_adc=0,Temporal1=0; 
....................  
.................... int16 t_latencia=0,minutos_uv=0,minutos_trabajo=0,G16=0; 
.................... signed int  Tpurga[4]={0,0,0,0};       // Tiempo de Purga transcurrido 
.................... signed int  Tpurgap[4]={9,0,0,0};      // Tiempo de Purga programado 
.................... signed int  Tppurga[4]={0,0,0,0};      // Tiempo de Post-Purga transcurrido 
.................... signed int  Tppurgap[4]={9,0,0,0};     // Tiempo de Post-Purga programado 
.................... signed int  Tuv[4]={0,0,0,0};          // Tiempo de UV transcurrido(en Horas) 
.................... signed int  Tempouvp[4]={0,0,0,0};        // Tiempo de UV transcurrido 
.................... signed int  Ttrabajo[4]={0,0,0,0};        // Tiempo de trabajo transcurrido (en Horas) 
.................... signed int  Contrasena[4]={0,0,0,0};      // Contrasena de 4 digitos 
.................... signed int  Password[4]={0,0,0,0};        // Contrasena Almacenada de 4 digitos 
.................... float Inflow=0.0,Downflow=0.0,Filtro_Downflow=0.0,Diferencia=0.0; 
.................... float Velocidad=0.0,x_uno=0.0,x_cuadrado=0.0,x_cubo=0.0,Ajuste1=0.0,Ajuste2=0.0; 
.................... float Temporal=0.0,Temporal2=0.0; 
.................... float a=0.00000957915546738639,b=-0.00727819571978831,c= 1.85375754678451,d= -156.816806902063; 
.................... //float t=378.463968402560,f=-18275.0402762787;//Sensor 2 Posible bueno 
....................  
.................... float promedio[8]={0.0,0.0,0.0,0.0,0.0,0.0,0.0,0.0}; 
.................... float promedio2[8]={0.0,0.0,0.0,0.0,0.0,0.0,0.0,0.0}; 
.................... float PromPresion[8]={0.0,0.0,0.0,0.0,0.0,0.0,0.0,0.0}; 
.................... float Flujo=0.0,zero_fabrica=208.0,zero_actual=0.0; 
.................... float V1=0.0,Presion=0.0,G=2.0; 
....................  
.................... int16 pulsos=0,retardo=0; 
.................... int8 i=0,l2=0,h2=0,Temperatura=0; 
.................... short Cruce=OFF,Purga=OFF,alarmaFiltro=OFF; 
.................... int16 tiempocruce=0; 
.................... int8 Porcentaje=0,VelMotor=0; 
.................... float Tcruce=0.0,Tcruce2=0; 
....................  
.................... #include "Funciones.h" 
.................... float leeTemperatura(int8 media){ 
*
04434:  MOVLB  5
04436:  CLRF   xD3
04438:  CLRF   xD2
0443A:  CLRF   xD1
0443C:  CLRF   xD0
0443E:  CLRF   xD7
04440:  CLRF   xD6
04442:  CLRF   xD5
04444:  CLRF   xD4
04446:  CLRF   xDB
04448:  CLRF   xDA
0444A:  CLRF   xD9
0444C:  CLRF   xD8
0444E:  CLRF   xDF
04450:  CLRF   xDE
04452:  CLRF   xDD
04454:  CLRF   xDC
....................    float ADC=0,V=0,T=0,Tempera=0; 
....................    ADC=sensores(0); 
04456:  CLRF   xE0
04458:  MOVLB  0
0445A:  CALL   2D9A
0445E:  MOVFF  02,605
04462:  MOVFF  01,604
04466:  CALL   17F6
0446A:  MOVFF  03,5D3
0446E:  MOVFF  02,5D2
04472:  MOVFF  01,5D1
04476:  MOVFF  00,5D0
....................    V=5*ADC/1023; 
0447A:  MOVLB  6
0447C:  CLRF   x03
0447E:  CLRF   x02
04480:  MOVLW  20
04482:  MOVWF  x01
04484:  MOVLW  81
04486:  MOVWF  x00
04488:  MOVFF  5D3,607
0448C:  MOVFF  5D2,606
04490:  MOVFF  5D1,605
04494:  MOVFF  5D0,604
04498:  MOVLB  0
0449A:  CALL   2E14
0449E:  MOVFF  00,5E0
044A2:  MOVFF  01,5E1
044A6:  MOVFF  02,5E2
044AA:  MOVFF  03,5E3
044AE:  MOVFF  03,603
044B2:  MOVFF  02,602
044B6:  MOVFF  01,601
044BA:  MOVFF  00,600
044BE:  MOVLB  6
044C0:  CLRF   x07
044C2:  MOVLW  C0
044C4:  MOVWF  x06
044C6:  MOVLW  7F
044C8:  MOVWF  x05
044CA:  MOVLW  88
044CC:  MOVWF  x04
044CE:  MOVLB  0
044D0:  CALL   182C
044D4:  MOVFF  03,5D7
044D8:  MOVFF  02,5D6
044DC:  MOVFF  01,5D5
044E0:  MOVFF  00,5D4
....................    T=V/0.01; 
044E4:  MOVFF  5D7,603
044E8:  MOVFF  5D6,602
044EC:  MOVFF  5D5,601
044F0:  MOVFF  5D4,600
044F4:  MOVLW  0A
044F6:  MOVLB  6
044F8:  MOVWF  x07
044FA:  MOVLW  D7
044FC:  MOVWF  x06
044FE:  MOVLW  23
04500:  MOVWF  x05
04502:  MOVLW  78
04504:  MOVWF  x04
04506:  MOVLB  0
04508:  CALL   182C
0450C:  MOVFF  03,5DB
04510:  MOVFF  02,5DA
04514:  MOVFF  01,5D9
04518:  MOVFF  00,5D8
....................    if(l2>media) 
0451C:  MOVLB  5
0451E:  MOVF   xC0,W
04520:  SUBWF  xCF,W
04522:  BC    4526
....................       l2=0; 
04524:  CLRF   xC0
....................        
....................    promedio2[l2]=T;l2++; 
04526:  MOVF   xC0,W
04528:  MULLW  04
0452A:  MOVF   FF3,W
0452C:  CLRF   03
0452E:  ADDLW  63
04530:  MOVWF  FE9
04532:  MOVLW  05
04534:  ADDWFC 03,W
04536:  MOVWF  FEA
04538:  MOVFF  5D8,FEF
0453C:  MOVFF  5D9,FEC
04540:  MOVFF  5DA,FEC
04544:  MOVFF  5DB,FEC
04548:  INCF   xC0,F
....................    Tempera=0; 
0454A:  CLRF   xDF
0454C:  CLRF   xDE
0454E:  CLRF   xDD
04550:  CLRF   xDC
....................       
....................      for(h2=0;h2<=(media-1);h2++){ 
04552:  CLRF   xC1
04554:  MOVLW  01
04556:  SUBWF  xCF,W
04558:  SUBWF  xC1,W
0455A:  BZ    455E
0455C:  BC    45CE
....................         Tempera+=promedio2[h2]; 
0455E:  MOVF   xC1,W
04560:  MULLW  04
04562:  MOVF   FF3,W
04564:  CLRF   03
04566:  ADDLW  63
04568:  MOVWF  FE9
0456A:  MOVLW  05
0456C:  ADDWFC 03,W
0456E:  MOVWF  FEA
04570:  MOVFF  FEF,00
04574:  MOVFF  FEC,01
04578:  MOVFF  FEC,02
0457C:  MOVFF  FEC,03
04580:  MOVFF  FEA,5E1
04584:  MOVFF  FE9,5E0
04588:  BCF    FD8.1
0458A:  MOVFF  5DF,607
0458E:  MOVFF  5DE,606
04592:  MOVFF  5DD,605
04596:  MOVFF  5DC,604
0459A:  MOVFF  03,60B
0459E:  MOVFF  02,60A
045A2:  MOVFF  01,609
045A6:  MOVFF  00,608
045AA:  MOVLB  0
045AC:  CALL   198A
045B0:  MOVFF  5E1,FEA
045B4:  MOVFF  5E0,FE9
045B8:  MOVFF  03,5DF
045BC:  MOVFF  02,5DE
045C0:  MOVFF  01,5DD
045C4:  MOVFF  00,5DC
....................      }       
045C8:  MOVLB  5
045CA:  INCF   xC1,F
045CC:  BRA    4554
....................    return Tempera/media; 
045CE:  MOVLB  6
045D0:  CLRF   x05
045D2:  MOVFF  5CF,604
045D6:  MOVLB  0
045D8:  CALL   17F6
045DC:  MOVFF  5DF,603
045E0:  MOVFF  5DE,602
045E4:  MOVFF  5DD,601
045E8:  MOVFF  5DC,600
045EC:  MOVFF  03,607
045F0:  MOVFF  02,606
045F4:  MOVFF  01,605
045F8:  MOVFF  00,604
045FC:  CALL   182C
.................... } 
04600:  GOTO   607A (RETURN)
....................  
.................... void LeeEEPROM(void){ 
....................    Password[0]=read_eeprom(0); 
*
01C02:  MOVFF  FF2,5CF
01C06:  BCF    FF2.7
01C08:  CLRF   FAA
01C0A:  CLRF   FA9
01C0C:  BCF    FA6.6
01C0E:  BCF    FA6.7
01C10:  BSF    FA6.0
01C12:  MOVF   FA8,W
01C14:  MOVLB  5
01C16:  BTFSC  xCF.7
01C18:  BSF    FF2.7
01C1A:  MOVLB  4
01C1C:  MOVWF  xFF
....................    delay_ms(10); 
01C1E:  MOVLW  0A
01C20:  MOVLB  5
01C22:  MOVWF  xE3
01C24:  MOVLB  0
01C26:  RCALL  155C
....................    Password[1]=read_eeprom(1); 
01C28:  MOVFF  FF2,5CF
01C2C:  BCF    FF2.7
01C2E:  CLRF   FAA
01C30:  MOVLW  01
01C32:  MOVWF  FA9
01C34:  BCF    FA6.6
01C36:  BCF    FA6.7
01C38:  BSF    FA6.0
01C3A:  MOVF   FA8,W
01C3C:  MOVLB  5
01C3E:  BTFSC  xCF.7
01C40:  BSF    FF2.7
01C42:  MOVWF  x00
....................    delay_ms(10); 
01C44:  MOVLW  0A
01C46:  MOVWF  xE3
01C48:  MOVLB  0
01C4A:  RCALL  155C
....................    Password[2]=read_eeprom(2); 
01C4C:  MOVFF  FF2,5CF
01C50:  BCF    FF2.7
01C52:  CLRF   FAA
01C54:  MOVLW  02
01C56:  MOVWF  FA9
01C58:  BCF    FA6.6
01C5A:  BCF    FA6.7
01C5C:  BSF    FA6.0
01C5E:  MOVF   FA8,W
01C60:  MOVLB  5
01C62:  BTFSC  xCF.7
01C64:  BSF    FF2.7
01C66:  MOVWF  x01
....................    delay_ms(10); 
01C68:  MOVLW  0A
01C6A:  MOVWF  xE3
01C6C:  MOVLB  0
01C6E:  RCALL  155C
....................    Password[3]=read_eeprom(3); 
01C70:  MOVFF  FF2,5CF
01C74:  BCF    FF2.7
01C76:  CLRF   FAA
01C78:  MOVLW  03
01C7A:  MOVWF  FA9
01C7C:  BCF    FA6.6
01C7E:  BCF    FA6.7
01C80:  BSF    FA6.0
01C82:  MOVF   FA8,W
01C84:  MOVLB  5
01C86:  BTFSC  xCF.7
01C88:  BSF    FF2.7
01C8A:  MOVWF  x02
....................    delay_ms(10); 
01C8C:  MOVLW  0A
01C8E:  MOVWF  xE3
01C90:  MOVLB  0
01C92:  RCALL  155C
....................    Tpurgap[0]=read_eeprom(4); 
01C94:  MOVFF  FF2,5CF
01C98:  BCF    FF2.7
01C9A:  CLRF   FAA
01C9C:  MOVLW  04
01C9E:  MOVWF  FA9
01CA0:  BCF    FA6.6
01CA2:  BCF    FA6.7
01CA4:  BSF    FA6.0
01CA6:  MOVF   FA8,W
01CA8:  MOVLB  5
01CAA:  BTFSC  xCF.7
01CAC:  BSF    FF2.7
01CAE:  MOVLB  4
01CB0:  MOVWF  xE3
....................    delay_ms(10); 
01CB2:  MOVLW  0A
01CB4:  MOVLB  5
01CB6:  MOVWF  xE3
01CB8:  MOVLB  0
01CBA:  RCALL  155C
....................    Tpurgap[1]=read_eeprom(5); 
01CBC:  MOVFF  FF2,5CF
01CC0:  BCF    FF2.7
01CC2:  CLRF   FAA
01CC4:  MOVLW  05
01CC6:  MOVWF  FA9
01CC8:  BCF    FA6.6
01CCA:  BCF    FA6.7
01CCC:  BSF    FA6.0
01CCE:  MOVF   FA8,W
01CD0:  MOVLB  5
01CD2:  BTFSC  xCF.7
01CD4:  BSF    FF2.7
01CD6:  MOVLB  4
01CD8:  MOVWF  xE4
....................    delay_ms(10); 
01CDA:  MOVLW  0A
01CDC:  MOVLB  5
01CDE:  MOVWF  xE3
01CE0:  MOVLB  0
01CE2:  RCALL  155C
....................    Tpurgap[2]=read_eeprom(6); 
01CE4:  MOVFF  FF2,5CF
01CE8:  BCF    FF2.7
01CEA:  CLRF   FAA
01CEC:  MOVLW  06
01CEE:  MOVWF  FA9
01CF0:  BCF    FA6.6
01CF2:  BCF    FA6.7
01CF4:  BSF    FA6.0
01CF6:  MOVF   FA8,W
01CF8:  MOVLB  5
01CFA:  BTFSC  xCF.7
01CFC:  BSF    FF2.7
01CFE:  MOVLB  4
01D00:  MOVWF  xE5
....................    delay_ms(10); 
01D02:  MOVLW  0A
01D04:  MOVLB  5
01D06:  MOVWF  xE3
01D08:  MOVLB  0
01D0A:  RCALL  155C
....................    Tpurgap[3]=read_eeprom(7); 
01D0C:  MOVFF  FF2,5CF
01D10:  BCF    FF2.7
01D12:  CLRF   FAA
01D14:  MOVLW  07
01D16:  MOVWF  FA9
01D18:  BCF    FA6.6
01D1A:  BCF    FA6.7
01D1C:  BSF    FA6.0
01D1E:  MOVF   FA8,W
01D20:  MOVLB  5
01D22:  BTFSC  xCF.7
01D24:  BSF    FF2.7
01D26:  MOVLB  4
01D28:  MOVWF  xE6
....................    delay_ms(10); 
01D2A:  MOVLW  0A
01D2C:  MOVLB  5
01D2E:  MOVWF  xE3
01D30:  MOVLB  0
01D32:  RCALL  155C
....................    Tppurgap[0]=read_eeprom(8); 
01D34:  MOVFF  FF2,5CF
01D38:  BCF    FF2.7
01D3A:  CLRF   FAA
01D3C:  MOVLW  08
01D3E:  MOVWF  FA9
01D40:  BCF    FA6.6
01D42:  BCF    FA6.7
01D44:  BSF    FA6.0
01D46:  MOVF   FA8,W
01D48:  MOVLB  5
01D4A:  BTFSC  xCF.7
01D4C:  BSF    FF2.7
01D4E:  MOVLB  4
01D50:  MOVWF  xEB
....................    delay_ms(10); 
01D52:  MOVLW  0A
01D54:  MOVLB  5
01D56:  MOVWF  xE3
01D58:  MOVLB  0
01D5A:  RCALL  155C
....................    Tppurgap[1]=read_eeprom(9); 
01D5C:  MOVFF  FF2,5CF
01D60:  BCF    FF2.7
01D62:  CLRF   FAA
01D64:  MOVLW  09
01D66:  MOVWF  FA9
01D68:  BCF    FA6.6
01D6A:  BCF    FA6.7
01D6C:  BSF    FA6.0
01D6E:  MOVF   FA8,W
01D70:  MOVLB  5
01D72:  BTFSC  xCF.7
01D74:  BSF    FF2.7
01D76:  MOVLB  4
01D78:  MOVWF  xEC
....................    delay_ms(10); 
01D7A:  MOVLW  0A
01D7C:  MOVLB  5
01D7E:  MOVWF  xE3
01D80:  MOVLB  0
01D82:  CALL   155C
....................    Tppurgap[2]=read_eeprom(10); 
01D86:  MOVFF  FF2,5CF
01D8A:  BCF    FF2.7
01D8C:  CLRF   FAA
01D8E:  MOVLW  0A
01D90:  MOVWF  FA9
01D92:  BCF    FA6.6
01D94:  BCF    FA6.7
01D96:  BSF    FA6.0
01D98:  MOVF   FA8,W
01D9A:  MOVLB  5
01D9C:  BTFSC  xCF.7
01D9E:  BSF    FF2.7
01DA0:  MOVLB  4
01DA2:  MOVWF  xED
....................    delay_ms(10); 
01DA4:  MOVLW  0A
01DA6:  MOVLB  5
01DA8:  MOVWF  xE3
01DAA:  MOVLB  0
01DAC:  CALL   155C
....................    Tppurgap[3]=read_eeprom(11); 
01DB0:  MOVFF  FF2,5CF
01DB4:  BCF    FF2.7
01DB6:  CLRF   FAA
01DB8:  MOVLW  0B
01DBA:  MOVWF  FA9
01DBC:  BCF    FA6.6
01DBE:  BCF    FA6.7
01DC0:  BSF    FA6.0
01DC2:  MOVF   FA8,W
01DC4:  MOVLB  5
01DC6:  BTFSC  xCF.7
01DC8:  BSF    FF2.7
01DCA:  MOVLB  4
01DCC:  MOVWF  xEE
....................    delay_ms(10); 
01DCE:  MOVLW  0A
01DD0:  MOVLB  5
01DD2:  MOVWF  xE3
01DD4:  MOVLB  0
01DD6:  CALL   155C
....................    Tuv[0]=read_eeprom(12); 
01DDA:  MOVFF  FF2,5CF
01DDE:  BCF    FF2.7
01DE0:  CLRF   FAA
01DE2:  MOVLW  0C
01DE4:  MOVWF  FA9
01DE6:  BCF    FA6.6
01DE8:  BCF    FA6.7
01DEA:  BSF    FA6.0
01DEC:  MOVF   FA8,W
01DEE:  MOVLB  5
01DF0:  BTFSC  xCF.7
01DF2:  BSF    FF2.7
01DF4:  MOVLB  4
01DF6:  MOVWF  xEF
....................    delay_ms(10); 
01DF8:  MOVLW  0A
01DFA:  MOVLB  5
01DFC:  MOVWF  xE3
01DFE:  MOVLB  0
01E00:  CALL   155C
....................    Tuv[1]=read_eeprom(13); 
01E04:  MOVFF  FF2,5CF
01E08:  BCF    FF2.7
01E0A:  CLRF   FAA
01E0C:  MOVLW  0D
01E0E:  MOVWF  FA9
01E10:  BCF    FA6.6
01E12:  BCF    FA6.7
01E14:  BSF    FA6.0
01E16:  MOVF   FA8,W
01E18:  MOVLB  5
01E1A:  BTFSC  xCF.7
01E1C:  BSF    FF2.7
01E1E:  MOVLB  4
01E20:  MOVWF  xF0
....................    delay_ms(10); 
01E22:  MOVLW  0A
01E24:  MOVLB  5
01E26:  MOVWF  xE3
01E28:  MOVLB  0
01E2A:  CALL   155C
....................    Tuv[2]=read_eeprom(14); 
01E2E:  MOVFF  FF2,5CF
01E32:  BCF    FF2.7
01E34:  CLRF   FAA
01E36:  MOVLW  0E
01E38:  MOVWF  FA9
01E3A:  BCF    FA6.6
01E3C:  BCF    FA6.7
01E3E:  BSF    FA6.0
01E40:  MOVF   FA8,W
01E42:  MOVLB  5
01E44:  BTFSC  xCF.7
01E46:  BSF    FF2.7
01E48:  MOVLB  4
01E4A:  MOVWF  xF1
....................    delay_ms(10); 
01E4C:  MOVLW  0A
01E4E:  MOVLB  5
01E50:  MOVWF  xE3
01E52:  MOVLB  0
01E54:  CALL   155C
....................    Tuv[3]=read_eeprom(15); 
01E58:  MOVFF  FF2,5CF
01E5C:  BCF    FF2.7
01E5E:  CLRF   FAA
01E60:  MOVLW  0F
01E62:  MOVWF  FA9
01E64:  BCF    FA6.6
01E66:  BCF    FA6.7
01E68:  BSF    FA6.0
01E6A:  MOVF   FA8,W
01E6C:  MOVLB  5
01E6E:  BTFSC  xCF.7
01E70:  BSF    FF2.7
01E72:  MOVLB  4
01E74:  MOVWF  xF2
....................    delay_ms(10); 
01E76:  MOVLW  0A
01E78:  MOVLB  5
01E7A:  MOVWF  xE3
01E7C:  MOVLB  0
01E7E:  CALL   155C
....................    Ttrabajo[0]=read_eeprom(16); 
01E82:  MOVFF  FF2,5CF
01E86:  BCF    FF2.7
01E88:  CLRF   FAA
01E8A:  MOVLW  10
01E8C:  MOVWF  FA9
01E8E:  BCF    FA6.6
01E90:  BCF    FA6.7
01E92:  BSF    FA6.0
01E94:  MOVF   FA8,W
01E96:  MOVLB  5
01E98:  BTFSC  xCF.7
01E9A:  BSF    FF2.7
01E9C:  MOVLB  4
01E9E:  MOVWF  xF7
....................    delay_ms(10); 
01EA0:  MOVLW  0A
01EA2:  MOVLB  5
01EA4:  MOVWF  xE3
01EA6:  MOVLB  0
01EA8:  CALL   155C
....................    Ttrabajo[1]=read_eeprom(17); 
01EAC:  MOVFF  FF2,5CF
01EB0:  BCF    FF2.7
01EB2:  CLRF   FAA
01EB4:  MOVLW  11
01EB6:  MOVWF  FA9
01EB8:  BCF    FA6.6
01EBA:  BCF    FA6.7
01EBC:  BSF    FA6.0
01EBE:  MOVF   FA8,W
01EC0:  MOVLB  5
01EC2:  BTFSC  xCF.7
01EC4:  BSF    FF2.7
01EC6:  MOVLB  4
01EC8:  MOVWF  xF8
....................    delay_ms(10); 
01ECA:  MOVLW  0A
01ECC:  MOVLB  5
01ECE:  MOVWF  xE3
01ED0:  MOVLB  0
01ED2:  CALL   155C
....................    Ttrabajo[2]=read_eeprom(18); 
01ED6:  MOVFF  FF2,5CF
01EDA:  BCF    FF2.7
01EDC:  CLRF   FAA
01EDE:  MOVLW  12
01EE0:  MOVWF  FA9
01EE2:  BCF    FA6.6
01EE4:  BCF    FA6.7
01EE6:  BSF    FA6.0
01EE8:  MOVF   FA8,W
01EEA:  MOVLB  5
01EEC:  BTFSC  xCF.7
01EEE:  BSF    FF2.7
01EF0:  MOVLB  4
01EF2:  MOVWF  xF9
....................    delay_ms(10); 
01EF4:  MOVLW  0A
01EF6:  MOVLB  5
01EF8:  MOVWF  xE3
01EFA:  MOVLB  0
01EFC:  CALL   155C
....................    Ttrabajo[3]=read_eeprom(19); 
01F00:  MOVFF  FF2,5CF
01F04:  BCF    FF2.7
01F06:  CLRF   FAA
01F08:  MOVLW  13
01F0A:  MOVWF  FA9
01F0C:  BCF    FA6.6
01F0E:  BCF    FA6.7
01F10:  BSF    FA6.0
01F12:  MOVF   FA8,W
01F14:  MOVLB  5
01F16:  BTFSC  xCF.7
01F18:  BSF    FF2.7
01F1A:  MOVLB  4
01F1C:  MOVWF  xFA
....................    delay_ms(10); 
01F1E:  MOVLW  0A
01F20:  MOVLB  5
01F22:  MOVWF  xE3
01F24:  MOVLB  0
01F26:  CALL   155C
....................    //flag_alarma=read_eeprom(20); 
....................    //delay_ms(10); 
....................    Tempouvp[0]=read_eeprom(21); 
01F2A:  MOVFF  FF2,5CF
01F2E:  BCF    FF2.7
01F30:  CLRF   FAA
01F32:  MOVLW  15
01F34:  MOVWF  FA9
01F36:  BCF    FA6.6
01F38:  BCF    FA6.7
01F3A:  BSF    FA6.0
01F3C:  MOVF   FA8,W
01F3E:  MOVLB  5
01F40:  BTFSC  xCF.7
01F42:  BSF    FF2.7
01F44:  MOVLB  4
01F46:  MOVWF  xF3
....................    delay_ms(10); 
01F48:  MOVLW  0A
01F4A:  MOVLB  5
01F4C:  MOVWF  xE3
01F4E:  MOVLB  0
01F50:  CALL   155C
....................    Tempouvp[1]=read_eeprom(22); 
01F54:  MOVFF  FF2,5CF
01F58:  BCF    FF2.7
01F5A:  CLRF   FAA
01F5C:  MOVLW  16
01F5E:  MOVWF  FA9
01F60:  BCF    FA6.6
01F62:  BCF    FA6.7
01F64:  BSF    FA6.0
01F66:  MOVF   FA8,W
01F68:  MOVLB  5
01F6A:  BTFSC  xCF.7
01F6C:  BSF    FF2.7
01F6E:  MOVLB  4
01F70:  MOVWF  xF4
....................    delay_ms(10); 
01F72:  MOVLW  0A
01F74:  MOVLB  5
01F76:  MOVWF  xE3
01F78:  MOVLB  0
01F7A:  CALL   155C
....................    Tempouvp[2]=read_eeprom(23); 
01F7E:  MOVFF  FF2,5CF
01F82:  BCF    FF2.7
01F84:  CLRF   FAA
01F86:  MOVLW  17
01F88:  MOVWF  FA9
01F8A:  BCF    FA6.6
01F8C:  BCF    FA6.7
01F8E:  BSF    FA6.0
01F90:  MOVF   FA8,W
01F92:  MOVLB  5
01F94:  BTFSC  xCF.7
01F96:  BSF    FF2.7
01F98:  MOVLB  4
01F9A:  MOVWF  xF5
....................    delay_ms(10); 
01F9C:  MOVLW  0A
01F9E:  MOVLB  5
01FA0:  MOVWF  xE3
01FA2:  MOVLB  0
01FA4:  CALL   155C
....................    Tempouvp[3]=read_eeprom(24); 
01FA8:  MOVFF  FF2,5CF
01FAC:  BCF    FF2.7
01FAE:  CLRF   FAA
01FB0:  MOVLW  18
01FB2:  MOVWF  FA9
01FB4:  BCF    FA6.6
01FB6:  BCF    FA6.7
01FB8:  BSF    FA6.0
01FBA:  MOVF   FA8,W
01FBC:  MOVLB  5
01FBE:  BTFSC  xCF.7
01FC0:  BSF    FF2.7
01FC2:  MOVLB  4
01FC4:  MOVWF  xF6
....................     
....................    delay_ms(10); 
01FC6:  MOVLW  0A
01FC8:  MOVLB  5
01FCA:  MOVWF  xE3
01FCC:  MOVLB  0
01FCE:  CALL   155C
....................    Entero=read_eeprom(25);//Decimal1=read_eeprom(26); 
01FD2:  MOVFF  FF2,5CF
01FD6:  BCF    FF2.7
01FD8:  CLRF   FAA
01FDA:  MOVLW  19
01FDC:  MOVWF  FA9
01FDE:  BCF    FA6.6
01FE0:  BCF    FA6.7
01FE2:  BSF    FA6.0
01FE4:  MOVF   FA8,W
01FE6:  MOVLB  5
01FE8:  BTFSC  xCF.7
01FEA:  BSF    FF2.7
01FEC:  MOVLB  4
01FEE:  MOVWF  xCE
....................    delay_ms(10); 
01FF0:  MOVLW  0A
01FF2:  MOVLB  5
01FF4:  MOVWF  xE3
01FF6:  MOVLB  0
01FF8:  CALL   155C
....................    Temporal=read_eeprom(26); 
01FFC:  MOVFF  FF2,5CF
02000:  BCF    FF2.7
02002:  CLRF   FAA
02004:  MOVLW  1A
02006:  MOVWF  FA9
02008:  BCF    FA6.6
0200A:  BCF    FA6.7
0200C:  BSF    FA6.0
0200E:  MOVF   FA8,W
02010:  MOVLB  5
02012:  BTFSC  xCF.7
02014:  BSF    FF2.7
02016:  MOVLB  6
02018:  CLRF   x05
0201A:  MOVWF  x04
0201C:  MOVLB  0
0201E:  CALL   17F6
02022:  MOVFF  03,52E
02026:  MOVFF  02,52D
0202A:  MOVFF  01,52C
0202E:  MOVFF  00,52B
....................    delay_ms(10); 
02032:  MOVLW  0A
02034:  MOVLB  5
02036:  MOVWF  xE3
02038:  MOVLB  0
0203A:  CALL   155C
....................    Temporal=Temporal/10.0; 
0203E:  MOVFF  52E,603
02042:  MOVFF  52D,602
02046:  MOVFF  52C,601
0204A:  MOVFF  52B,600
0204E:  MOVLB  6
02050:  CLRF   x07
02052:  CLRF   x06
02054:  MOVLW  20
02056:  MOVWF  x05
02058:  MOVLW  82
0205A:  MOVWF  x04
0205C:  MOVLB  0
0205E:  CALL   182C
02062:  MOVFF  03,52E
02066:  MOVFF  02,52D
0206A:  MOVFF  01,52C
0206E:  MOVFF  00,52B
....................    Ajuste1=Entero+Temporal; 
02072:  MOVLB  6
02074:  CLRF   x05
02076:  MOVFF  4CE,604
0207A:  MOVLB  0
0207C:  CALL   17F6
02080:  BCF    FD8.1
02082:  MOVFF  03,607
02086:  MOVFF  02,606
0208A:  MOVFF  01,605
0208E:  MOVFF  00,604
02092:  MOVFF  52E,60B
02096:  MOVFF  52D,60A
0209A:  MOVFF  52C,609
0209E:  MOVFF  52B,608
020A2:  RCALL  198A
020A4:  MOVFF  03,526
020A8:  MOVFF  02,525
020AC:  MOVFF  01,524
020B0:  MOVFF  00,523
....................     
....................     
....................    Entero=read_eeprom(27);//Decimal1=read_eeprom(26); 
020B4:  MOVFF  FF2,5CF
020B8:  BCF    FF2.7
020BA:  CLRF   FAA
020BC:  MOVLW  1B
020BE:  MOVWF  FA9
020C0:  BCF    FA6.6
020C2:  BCF    FA6.7
020C4:  BSF    FA6.0
020C6:  MOVF   FA8,W
020C8:  MOVLB  5
020CA:  BTFSC  xCF.7
020CC:  BSF    FF2.7
020CE:  MOVLB  4
020D0:  MOVWF  xCE
....................    delay_ms(10); 
020D2:  MOVLW  0A
020D4:  MOVLB  5
020D6:  MOVWF  xE3
020D8:  MOVLB  0
020DA:  CALL   155C
....................    Temporal=read_eeprom(28); 
020DE:  MOVFF  FF2,5CF
020E2:  BCF    FF2.7
020E4:  CLRF   FAA
020E6:  MOVLW  1C
020E8:  MOVWF  FA9
020EA:  BCF    FA6.6
020EC:  BCF    FA6.7
020EE:  BSF    FA6.0
020F0:  MOVF   FA8,W
020F2:  MOVLB  5
020F4:  BTFSC  xCF.7
020F6:  BSF    FF2.7
020F8:  MOVLB  6
020FA:  CLRF   x05
020FC:  MOVWF  x04
020FE:  MOVLB  0
02100:  CALL   17F6
02104:  MOVFF  03,52E
02108:  MOVFF  02,52D
0210C:  MOVFF  01,52C
02110:  MOVFF  00,52B
....................    delay_ms(10); 
02114:  MOVLW  0A
02116:  MOVLB  5
02118:  MOVWF  xE3
0211A:  MOVLB  0
0211C:  CALL   155C
....................    Temporal=Temporal/10.0; 
02120:  MOVFF  52E,603
02124:  MOVFF  52D,602
02128:  MOVFF  52C,601
0212C:  MOVFF  52B,600
02130:  MOVLB  6
02132:  CLRF   x07
02134:  CLRF   x06
02136:  MOVLW  20
02138:  MOVWF  x05
0213A:  MOVLW  82
0213C:  MOVWF  x04
0213E:  MOVLB  0
02140:  CALL   182C
02144:  MOVFF  03,52E
02148:  MOVFF  02,52D
0214C:  MOVFF  01,52C
02150:  MOVFF  00,52B
....................    Ajuste2=Entero+Temporal; 
02154:  MOVLB  6
02156:  CLRF   x05
02158:  MOVFF  4CE,604
0215C:  MOVLB  0
0215E:  CALL   17F6
02162:  BCF    FD8.1
02164:  MOVFF  03,607
02168:  MOVFF  02,606
0216C:  MOVFF  01,605
02170:  MOVFF  00,604
02174:  MOVFF  52E,60B
02178:  MOVFF  52D,60A
0217C:  MOVFF  52C,609
02180:  MOVFF  52B,608
02184:  RCALL  198A
02186:  MOVFF  03,52A
0218A:  MOVFF  02,529
0218E:  MOVFF  01,528
02192:  MOVFF  00,527
....................     
....................    zero_actual=make16(read_eeprom(30),read_eeprom(29)); 
02196:  MOVFF  FF2,5CF
0219A:  BCF    FF2.7
0219C:  CLRF   FAA
0219E:  MOVLW  1E
021A0:  MOVWF  FA9
021A2:  BCF    FA6.6
021A4:  BCF    FA6.7
021A6:  BSF    FA6.0
021A8:  MOVF   FA8,W
021AA:  MOVLB  5
021AC:  BTFSC  xCF.7
021AE:  BSF    FF2.7
021B0:  MOVWF  xD0
021B2:  MOVFF  FF2,5D1
021B6:  BCF    FF2.7
021B8:  CLRF   FAA
021BA:  MOVLW  1D
021BC:  MOVWF  FA9
021BE:  BCF    FA6.6
021C0:  BCF    FA6.7
021C2:  BSF    FA6.0
021C4:  MOVF   FA8,W
021C6:  BTFSC  xD1.7
021C8:  BSF    FF2.7
021CA:  MOVWF  xD2
021CC:  MOVFF  5D0,03
021D0:  MOVF   xD2,W
021D2:  MOVLB  6
021D4:  MOVWF  x04
021D6:  MOVFF  03,605
021DA:  MOVLB  0
021DC:  CALL   17F6
021E0:  MOVFF  03,5AE
021E4:  MOVFF  02,5AD
021E8:  MOVFF  01,5AC
021EC:  MOVFF  00,5AB
....................    delay_ms(10); 
021F0:  MOVLW  0A
021F2:  MOVLB  5
021F4:  MOVWF  xE3
021F6:  MOVLB  0
021F8:  CALL   155C
....................    minutos_trabajo=make16(read_eeprom(34),read_eeprom(33)); 
021FC:  MOVFF  FF2,5CF
02200:  BCF    FF2.7
02202:  CLRF   FAA
02204:  MOVLW  22
02206:  MOVWF  FA9
02208:  BCF    FA6.6
0220A:  BCF    FA6.7
0220C:  BSF    FA6.0
0220E:  MOVF   FA8,W
02210:  MOVLB  5
02212:  BTFSC  xCF.7
02214:  BSF    FF2.7
02216:  MOVWF  xD0
02218:  MOVFF  FF2,5D1
0221C:  BCF    FF2.7
0221E:  CLRF   FAA
02220:  MOVLW  21
02222:  MOVWF  FA9
02224:  BCF    FA6.6
02226:  BCF    FA6.7
02228:  BSF    FA6.0
0222A:  MOVF   FA8,W
0222C:  BTFSC  xD1.7
0222E:  BSF    FF2.7
02230:  MOVWF  xD2
02232:  MOVFF  5D0,4DC
02236:  MOVFF  5D2,4DB
....................    delay_ms(10); 
0223A:  MOVLW  0A
0223C:  MOVWF  xE3
0223E:  MOVLB  0
02240:  CALL   155C
....................    minutos_uv=read_eeprom(31); 
02244:  MOVFF  FF2,5CF
02248:  BCF    FF2.7
0224A:  CLRF   FAA
0224C:  MOVLW  1F
0224E:  MOVWF  FA9
02250:  BCF    FA6.6
02252:  BCF    FA6.7
02254:  BSF    FA6.0
02256:  MOVF   FA8,W
02258:  MOVLB  5
0225A:  BTFSC  xCF.7
0225C:  BSF    FF2.7
0225E:  MOVLB  4
02260:  CLRF   xDA
02262:  MOVWF  xD9
....................    delay_ms(10); 
02264:  MOVLW  0A
02266:  MOVLB  5
02268:  MOVWF  xE3
0226A:  MOVLB  0
0226C:  CALL   155C
....................    VelMotor=read_eeprom(32); 
02270:  MOVFF  FF2,5CF
02274:  BCF    FF2.7
02276:  CLRF   FAA
02278:  MOVLW  20
0227A:  MOVWF  FA9
0227C:  BCF    FA6.6
0227E:  BCF    FA6.7
02280:  BSF    FA6.0
02282:  MOVF   FA8,W
02284:  MOVLB  5
02286:  BTFSC  xCF.7
02288:  BSF    FF2.7
0228A:  MOVWF  xC6
....................    delay_ms(10); 
0228C:  MOVLW  0A
0228E:  MOVWF  xE3
02290:  MOVLB  0
02292:  CALL   155C
....................     
....................    Diferencia=make16(read_eeprom(61),read_eeprom(60)); 
02296:  MOVFF  FF2,5CF
0229A:  BCF    FF2.7
0229C:  CLRF   FAA
0229E:  MOVLW  3D
022A0:  MOVWF  FA9
022A2:  BCF    FA6.6
022A4:  BCF    FA6.7
022A6:  BSF    FA6.0
022A8:  MOVF   FA8,W
022AA:  MOVLB  5
022AC:  BTFSC  xCF.7
022AE:  BSF    FF2.7
022B0:  MOVWF  xD0
022B2:  MOVFF  FF2,5D1
022B6:  BCF    FF2.7
022B8:  CLRF   FAA
022BA:  MOVLW  3C
022BC:  MOVWF  FA9
022BE:  BCF    FA6.6
022C0:  BCF    FA6.7
022C2:  BSF    FA6.0
022C4:  MOVF   FA8,W
022C6:  BTFSC  xD1.7
022C8:  BSF    FF2.7
022CA:  MOVWF  xD2
022CC:  MOVFF  5D0,03
022D0:  MOVF   xD2,W
022D2:  MOVLB  6
022D4:  MOVWF  x04
022D6:  MOVFF  03,605
022DA:  MOVLB  0
022DC:  CALL   17F6
022E0:  MOVFF  03,512
022E4:  MOVFF  02,511
022E8:  MOVFF  01,510
022EC:  MOVFF  00,50F
....................    delay_ms(10); 
022F0:  MOVLW  0A
022F2:  MOVLB  5
022F4:  MOVWF  xE3
022F6:  MOVLB  0
022F8:  CALL   155C
....................    G=make16(read_eeprom(63),read_eeprom(62)); 
022FC:  MOVFF  FF2,5CF
02300:  BCF    FF2.7
02302:  CLRF   FAA
02304:  MOVLW  3F
02306:  MOVWF  FA9
02308:  BCF    FA6.6
0230A:  BCF    FA6.7
0230C:  BSF    FA6.0
0230E:  MOVF   FA8,W
02310:  MOVLB  5
02312:  BTFSC  xCF.7
02314:  BSF    FF2.7
02316:  MOVWF  xD0
02318:  MOVFF  FF2,5D1
0231C:  BCF    FF2.7
0231E:  CLRF   FAA
02320:  MOVLW  3E
02322:  MOVWF  FA9
02324:  BCF    FA6.6
02326:  BCF    FA6.7
02328:  BSF    FA6.0
0232A:  MOVF   FA8,W
0232C:  BTFSC  xD1.7
0232E:  BSF    FF2.7
02330:  MOVWF  xD2
02332:  MOVFF  5D0,03
02336:  MOVF   xD2,W
02338:  MOVLB  6
0233A:  MOVWF  x04
0233C:  MOVFF  03,605
02340:  MOVLB  0
02342:  CALL   17F6
02346:  MOVFF  03,5BA
0234A:  MOVFF  02,5B9
0234E:  MOVFF  01,5B8
02352:  MOVFF  00,5B7
....................    delay_ms(10); 
02356:  MOVLW  0A
02358:  MOVLB  5
0235A:  MOVWF  xE3
0235C:  MOVLB  0
0235E:  CALL   155C
....................    negativo=read_eeprom(50); 
02362:  MOVFF  FF2,5CF
02366:  BCF    FF2.7
02368:  CLRF   FAA
0236A:  MOVLW  32
0236C:  MOVWF  FA9
0236E:  BCF    FA6.6
02370:  BCF    FA6.7
02372:  BSF    FA6.0
02374:  MOVF   FA8,W
02376:  MOVLB  5
02378:  BTFSC  xCF.7
0237A:  BSF    FF2.7
0237C:  MOVLB  4
0237E:  MOVWF  xC6
....................    delay_ms(10); 
02380:  MOVLW  0A
02382:  MOVLB  5
02384:  MOVWF  xE3
02386:  MOVLB  0
02388:  CALL   155C
....................  
.................... } 
0238C:  GOTO   6042 (RETURN)
....................  
.................... void LimitaValores(void){ 
....................    if(Password[0]>9 || Password[0]<0){ 
*
0240A:  MOVLB  4
0240C:  BTFSC  xFF.7
0240E:  BRA    2416
02410:  MOVF   xFF,W
02412:  SUBLW  09
02414:  BNC   241C
02416:  BTFSC  xFF.7
02418:  BRA    241C
0241A:  BRA    2446
....................       Password[0]=0;write_eeprom(0,0); 
0241C:  CLRF   xFF
0241E:  CLRF   FAA
02420:  CLRF   FA9
02422:  CLRF   FA8
02424:  BCF    FA6.6
02426:  BCF    FA6.7
02428:  BSF    FA6.2
0242A:  MOVF   FF2,W
0242C:  MOVWF  00
0242E:  BCF    FF2.7
02430:  MOVLB  F
02432:  MOVLW  55
02434:  MOVWF  FA7
02436:  MOVLW  AA
02438:  MOVWF  FA7
0243A:  BSF    FA6.1
0243C:  BTFSC  FA6.1
0243E:  BRA    243C
02440:  BCF    FA6.2
02442:  MOVF   00,W
02444:  IORWF  FF2,F
....................    } 
....................    if(Password[1]>9 || Password[1]<0){ 
02446:  MOVLB  5
02448:  BTFSC  x00.7
0244A:  BRA    2452
0244C:  MOVF   x00,W
0244E:  SUBLW  09
02450:  BNC   2458
02452:  BTFSC  x00.7
02454:  BRA    2458
02456:  BRA    2486
....................       Password[1]=0;write_eeprom(1,0); 
02458:  CLRF   x00
0245A:  CLRF   FAA
0245C:  MOVLW  01
0245E:  MOVWF  FA9
02460:  CLRF   FA8
02462:  BCF    FA6.6
02464:  BCF    FA6.7
02466:  BSF    FA6.2
02468:  MOVF   FF2,W
0246A:  MOVWF  00
0246C:  BCF    FF2.7
0246E:  MOVLB  F
02470:  MOVLW  55
02472:  MOVWF  FA7
02474:  MOVLW  AA
02476:  MOVWF  FA7
02478:  BSF    FA6.1
0247A:  BTFSC  FA6.1
0247C:  BRA    247A
0247E:  BCF    FA6.2
02480:  MOVF   00,W
02482:  IORWF  FF2,F
02484:  MOVLB  5
....................    } 
....................    if(Password[2]>9 || Password[2]<0){ 
02486:  BTFSC  x01.7
02488:  BRA    2490
0248A:  MOVF   x01,W
0248C:  SUBLW  09
0248E:  BNC   2496
02490:  BTFSC  x01.7
02492:  BRA    2496
02494:  BRA    24C4
....................       Password[2]=0;write_eeprom(2,0); 
02496:  CLRF   x01
02498:  CLRF   FAA
0249A:  MOVLW  02
0249C:  MOVWF  FA9
0249E:  CLRF   FA8
024A0:  BCF    FA6.6
024A2:  BCF    FA6.7
024A4:  BSF    FA6.2
024A6:  MOVF   FF2,W
024A8:  MOVWF  00
024AA:  BCF    FF2.7
024AC:  MOVLB  F
024AE:  MOVLW  55
024B0:  MOVWF  FA7
024B2:  MOVLW  AA
024B4:  MOVWF  FA7
024B6:  BSF    FA6.1
024B8:  BTFSC  FA6.1
024BA:  BRA    24B8
024BC:  BCF    FA6.2
024BE:  MOVF   00,W
024C0:  IORWF  FF2,F
024C2:  MOVLB  5
....................    } 
....................    if(Password[3]>9 || Password[3]<0){ 
024C4:  BTFSC  x02.7
024C6:  BRA    24CE
024C8:  MOVF   x02,W
024CA:  SUBLW  09
024CC:  BNC   24D4
024CE:  BTFSC  x02.7
024D0:  BRA    24D4
024D2:  BRA    2500
....................       Password[3]=0;write_eeprom(3,0); 
024D4:  CLRF   x02
024D6:  CLRF   FAA
024D8:  MOVLW  03
024DA:  MOVWF  FA9
024DC:  CLRF   FA8
024DE:  BCF    FA6.6
024E0:  BCF    FA6.7
024E2:  BSF    FA6.2
024E4:  MOVF   FF2,W
024E6:  MOVWF  00
024E8:  BCF    FF2.7
024EA:  MOVLB  F
024EC:  MOVLW  55
024EE:  MOVWF  FA7
024F0:  MOVLW  AA
024F2:  MOVWF  FA7
024F4:  BSF    FA6.1
024F6:  BTFSC  FA6.1
024F8:  BRA    24F6
024FA:  BCF    FA6.2
024FC:  MOVF   00,W
024FE:  IORWF  FF2,F
....................    } 
....................    if(Tpurgap[0]>9 || Tpurgap[0]<0){ 
02500:  MOVLB  4
02502:  BTFSC  xE3.7
02504:  BRA    250C
02506:  MOVF   xE3,W
02508:  SUBLW  09
0250A:  BNC   2512
0250C:  BTFSC  xE3.7
0250E:  BRA    2512
02510:  BRA    2540
....................       Tpurgap[0]=0;write_eeprom(4,0); 
02512:  CLRF   xE3
02514:  CLRF   FAA
02516:  MOVLW  04
02518:  MOVWF  FA9
0251A:  CLRF   FA8
0251C:  BCF    FA6.6
0251E:  BCF    FA6.7
02520:  BSF    FA6.2
02522:  MOVF   FF2,W
02524:  MOVWF  00
02526:  BCF    FF2.7
02528:  MOVLB  F
0252A:  MOVLW  55
0252C:  MOVWF  FA7
0252E:  MOVLW  AA
02530:  MOVWF  FA7
02532:  BSF    FA6.1
02534:  BTFSC  FA6.1
02536:  BRA    2534
02538:  BCF    FA6.2
0253A:  MOVF   00,W
0253C:  IORWF  FF2,F
0253E:  MOVLB  4
....................    } 
....................    if(Tpurgap[1]>9 || Tpurgap[1]<0){ 
02540:  BTFSC  xE4.7
02542:  BRA    254A
02544:  MOVF   xE4,W
02546:  SUBLW  09
02548:  BNC   2550
0254A:  BTFSC  xE4.7
0254C:  BRA    2550
0254E:  BRA    257E
....................       Tpurgap[1]=0;write_eeprom(5,0); 
02550:  CLRF   xE4
02552:  CLRF   FAA
02554:  MOVLW  05
02556:  MOVWF  FA9
02558:  CLRF   FA8
0255A:  BCF    FA6.6
0255C:  BCF    FA6.7
0255E:  BSF    FA6.2
02560:  MOVF   FF2,W
02562:  MOVWF  00
02564:  BCF    FF2.7
02566:  MOVLB  F
02568:  MOVLW  55
0256A:  MOVWF  FA7
0256C:  MOVLW  AA
0256E:  MOVWF  FA7
02570:  BSF    FA6.1
02572:  BTFSC  FA6.1
02574:  BRA    2572
02576:  BCF    FA6.2
02578:  MOVF   00,W
0257A:  IORWF  FF2,F
0257C:  MOVLB  4
....................    } 
....................    if(Tpurgap[2]>9 || Tpurgap[2]<0){ 
0257E:  BTFSC  xE5.7
02580:  BRA    2588
02582:  MOVF   xE5,W
02584:  SUBLW  09
02586:  BNC   258E
02588:  BTFSC  xE5.7
0258A:  BRA    258E
0258C:  BRA    25C0
....................       Tpurgap[2]=2;write_eeprom(6,2); 
0258E:  MOVLW  02
02590:  MOVWF  xE5
02592:  CLRF   FAA
02594:  MOVLW  06
02596:  MOVWF  FA9
02598:  MOVLW  02
0259A:  MOVWF  FA8
0259C:  BCF    FA6.6
0259E:  BCF    FA6.7
025A0:  BSF    FA6.2
025A2:  MOVF   FF2,W
025A4:  MOVWF  00
025A6:  BCF    FF2.7
025A8:  MOVLB  F
025AA:  MOVLW  55
025AC:  MOVWF  FA7
025AE:  MOVLW  AA
025B0:  MOVWF  FA7
025B2:  BSF    FA6.1
025B4:  BTFSC  FA6.1
025B6:  BRA    25B4
025B8:  BCF    FA6.2
025BA:  MOVF   00,W
025BC:  IORWF  FF2,F
025BE:  MOVLB  4
....................    } 
....................    if(Tpurgap[3]>9 || Tpurgap[3]<0){ 
025C0:  BTFSC  xE6.7
025C2:  BRA    25CA
025C4:  MOVF   xE6,W
025C6:  SUBLW  09
025C8:  BNC   25D0
025CA:  BTFSC  xE6.7
025CC:  BRA    25D0
025CE:  BRA    25FE
....................       Tpurgap[3]=0;write_eeprom(7,0); 
025D0:  CLRF   xE6
025D2:  CLRF   FAA
025D4:  MOVLW  07
025D6:  MOVWF  FA9
025D8:  CLRF   FA8
025DA:  BCF    FA6.6
025DC:  BCF    FA6.7
025DE:  BSF    FA6.2
025E0:  MOVF   FF2,W
025E2:  MOVWF  00
025E4:  BCF    FF2.7
025E6:  MOVLB  F
025E8:  MOVLW  55
025EA:  MOVWF  FA7
025EC:  MOVLW  AA
025EE:  MOVWF  FA7
025F0:  BSF    FA6.1
025F2:  BTFSC  FA6.1
025F4:  BRA    25F2
025F6:  BCF    FA6.2
025F8:  MOVF   00,W
025FA:  IORWF  FF2,F
025FC:  MOVLB  4
....................    } 
....................    if(Tppurgap[0]>9 || Tppurgap[0]<0){ 
025FE:  BTFSC  xEB.7
02600:  BRA    2608
02602:  MOVF   xEB,W
02604:  SUBLW  09
02606:  BNC   260E
02608:  BTFSC  xEB.7
0260A:  BRA    260E
0260C:  BRA    263C
....................       Tppurgap[0]=0;write_eeprom(8,0); 
0260E:  CLRF   xEB
02610:  CLRF   FAA
02612:  MOVLW  08
02614:  MOVWF  FA9
02616:  CLRF   FA8
02618:  BCF    FA6.6
0261A:  BCF    FA6.7
0261C:  BSF    FA6.2
0261E:  MOVF   FF2,W
02620:  MOVWF  00
02622:  BCF    FF2.7
02624:  MOVLB  F
02626:  MOVLW  55
02628:  MOVWF  FA7
0262A:  MOVLW  AA
0262C:  MOVWF  FA7
0262E:  BSF    FA6.1
02630:  BTFSC  FA6.1
02632:  BRA    2630
02634:  BCF    FA6.2
02636:  MOVF   00,W
02638:  IORWF  FF2,F
0263A:  MOVLB  4
....................    } 
....................    if(Tppurgap[1]>9 || Tppurgap[1]<0){ 
0263C:  BTFSC  xEC.7
0263E:  BRA    2646
02640:  MOVF   xEC,W
02642:  SUBLW  09
02644:  BNC   264C
02646:  BTFSC  xEC.7
02648:  BRA    264C
0264A:  BRA    267A
....................       Tppurgap[1]=0;write_eeprom(9,0); 
0264C:  CLRF   xEC
0264E:  CLRF   FAA
02650:  MOVLW  09
02652:  MOVWF  FA9
02654:  CLRF   FA8
02656:  BCF    FA6.6
02658:  BCF    FA6.7
0265A:  BSF    FA6.2
0265C:  MOVF   FF2,W
0265E:  MOVWF  00
02660:  BCF    FF2.7
02662:  MOVLB  F
02664:  MOVLW  55
02666:  MOVWF  FA7
02668:  MOVLW  AA
0266A:  MOVWF  FA7
0266C:  BSF    FA6.1
0266E:  BTFSC  FA6.1
02670:  BRA    266E
02672:  BCF    FA6.2
02674:  MOVF   00,W
02676:  IORWF  FF2,F
02678:  MOVLB  4
....................    } 
....................    if(Tppurgap[2]>9 || Tppurgap[2]<0){ 
0267A:  BTFSC  xED.7
0267C:  BRA    2684
0267E:  MOVF   xED,W
02680:  SUBLW  09
02682:  BNC   268A
02684:  BTFSC  xED.7
02686:  BRA    268A
02688:  BRA    26BC
....................       Tppurgap[2]=2;write_eeprom(10,2); 
0268A:  MOVLW  02
0268C:  MOVWF  xED
0268E:  CLRF   FAA
02690:  MOVLW  0A
02692:  MOVWF  FA9
02694:  MOVLW  02
02696:  MOVWF  FA8
02698:  BCF    FA6.6
0269A:  BCF    FA6.7
0269C:  BSF    FA6.2
0269E:  MOVF   FF2,W
026A0:  MOVWF  00
026A2:  BCF    FF2.7
026A4:  MOVLB  F
026A6:  MOVLW  55
026A8:  MOVWF  FA7
026AA:  MOVLW  AA
026AC:  MOVWF  FA7
026AE:  BSF    FA6.1
026B0:  BTFSC  FA6.1
026B2:  BRA    26B0
026B4:  BCF    FA6.2
026B6:  MOVF   00,W
026B8:  IORWF  FF2,F
026BA:  MOVLB  4
....................    } 
....................    if(Tppurgap[3]>9 || Tppurgap[3]<0){ 
026BC:  BTFSC  xEE.7
026BE:  BRA    26C6
026C0:  MOVF   xEE,W
026C2:  SUBLW  09
026C4:  BNC   26CC
026C6:  BTFSC  xEE.7
026C8:  BRA    26CC
026CA:  BRA    26FA
....................       Tppurgap[3]=0;write_eeprom(11,0); 
026CC:  CLRF   xEE
026CE:  CLRF   FAA
026D0:  MOVLW  0B
026D2:  MOVWF  FA9
026D4:  CLRF   FA8
026D6:  BCF    FA6.6
026D8:  BCF    FA6.7
026DA:  BSF    FA6.2
026DC:  MOVF   FF2,W
026DE:  MOVWF  00
026E0:  BCF    FF2.7
026E2:  MOVLB  F
026E4:  MOVLW  55
026E6:  MOVWF  FA7
026E8:  MOVLW  AA
026EA:  MOVWF  FA7
026EC:  BSF    FA6.1
026EE:  BTFSC  FA6.1
026F0:  BRA    26EE
026F2:  BCF    FA6.2
026F4:  MOVF   00,W
026F6:  IORWF  FF2,F
026F8:  MOVLB  4
....................    } 
....................    if(Tuv[0]>9 || Tuv[0]<0){ 
026FA:  BTFSC  xEF.7
026FC:  BRA    2704
026FE:  MOVF   xEF,W
02700:  SUBLW  09
02702:  BNC   270A
02704:  BTFSC  xEF.7
02706:  BRA    270A
02708:  BRA    2738
....................       Tuv[0]=0;write_eeprom(12,0); 
0270A:  CLRF   xEF
0270C:  CLRF   FAA
0270E:  MOVLW  0C
02710:  MOVWF  FA9
02712:  CLRF   FA8
02714:  BCF    FA6.6
02716:  BCF    FA6.7
02718:  BSF    FA6.2
0271A:  MOVF   FF2,W
0271C:  MOVWF  00
0271E:  BCF    FF2.7
02720:  MOVLB  F
02722:  MOVLW  55
02724:  MOVWF  FA7
02726:  MOVLW  AA
02728:  MOVWF  FA7
0272A:  BSF    FA6.1
0272C:  BTFSC  FA6.1
0272E:  BRA    272C
02730:  BCF    FA6.2
02732:  MOVF   00,W
02734:  IORWF  FF2,F
02736:  MOVLB  4
....................    } 
....................    if(Tuv[1]>9 || Tuv[1]<0){ 
02738:  BTFSC  xF0.7
0273A:  BRA    2742
0273C:  MOVF   xF0,W
0273E:  SUBLW  09
02740:  BNC   2748
02742:  BTFSC  xF0.7
02744:  BRA    2748
02746:  BRA    2776
....................       Tuv[1]=0;write_eeprom(13,0); 
02748:  CLRF   xF0
0274A:  CLRF   FAA
0274C:  MOVLW  0D
0274E:  MOVWF  FA9
02750:  CLRF   FA8
02752:  BCF    FA6.6
02754:  BCF    FA6.7
02756:  BSF    FA6.2
02758:  MOVF   FF2,W
0275A:  MOVWF  00
0275C:  BCF    FF2.7
0275E:  MOVLB  F
02760:  MOVLW  55
02762:  MOVWF  FA7
02764:  MOVLW  AA
02766:  MOVWF  FA7
02768:  BSF    FA6.1
0276A:  BTFSC  FA6.1
0276C:  BRA    276A
0276E:  BCF    FA6.2
02770:  MOVF   00,W
02772:  IORWF  FF2,F
02774:  MOVLB  4
....................    } 
....................    if(Tuv[2]>9 || Tuv[2]<0){ 
02776:  BTFSC  xF1.7
02778:  BRA    2780
0277A:  MOVF   xF1,W
0277C:  SUBLW  09
0277E:  BNC   2786
02780:  BTFSC  xF1.7
02782:  BRA    2786
02784:  BRA    27B4
....................       Tuv[2]=0;write_eeprom(14,0); 
02786:  CLRF   xF1
02788:  CLRF   FAA
0278A:  MOVLW  0E
0278C:  MOVWF  FA9
0278E:  CLRF   FA8
02790:  BCF    FA6.6
02792:  BCF    FA6.7
02794:  BSF    FA6.2
02796:  MOVF   FF2,W
02798:  MOVWF  00
0279A:  BCF    FF2.7
0279C:  MOVLB  F
0279E:  MOVLW  55
027A0:  MOVWF  FA7
027A2:  MOVLW  AA
027A4:  MOVWF  FA7
027A6:  BSF    FA6.1
027A8:  BTFSC  FA6.1
027AA:  BRA    27A8
027AC:  BCF    FA6.2
027AE:  MOVF   00,W
027B0:  IORWF  FF2,F
027B2:  MOVLB  4
....................    } 
....................    if(Tuv[3]>9 || Tuv[3]<0){ 
027B4:  BTFSC  xF2.7
027B6:  BRA    27BE
027B8:  MOVF   xF2,W
027BA:  SUBLW  09
027BC:  BNC   27C4
027BE:  BTFSC  xF2.7
027C0:  BRA    27C4
027C2:  BRA    27F2
....................       Tuv[3]=0;write_eeprom(15,0); 
027C4:  CLRF   xF2
027C6:  CLRF   FAA
027C8:  MOVLW  0F
027CA:  MOVWF  FA9
027CC:  CLRF   FA8
027CE:  BCF    FA6.6
027D0:  BCF    FA6.7
027D2:  BSF    FA6.2
027D4:  MOVF   FF2,W
027D6:  MOVWF  00
027D8:  BCF    FF2.7
027DA:  MOVLB  F
027DC:  MOVLW  55
027DE:  MOVWF  FA7
027E0:  MOVLW  AA
027E2:  MOVWF  FA7
027E4:  BSF    FA6.1
027E6:  BTFSC  FA6.1
027E8:  BRA    27E6
027EA:  BCF    FA6.2
027EC:  MOVF   00,W
027EE:  IORWF  FF2,F
027F0:  MOVLB  4
....................    } 
....................    if(Ttrabajo[0]>9 || Ttrabajo[0]<0){ 
027F2:  BTFSC  xF7.7
027F4:  BRA    27FC
027F6:  MOVF   xF7,W
027F8:  SUBLW  09
027FA:  BNC   2802
027FC:  BTFSC  xF7.7
027FE:  BRA    2802
02800:  BRA    2830
....................       Ttrabajo[0]=0;write_eeprom(16,0); 
02802:  CLRF   xF7
02804:  CLRF   FAA
02806:  MOVLW  10
02808:  MOVWF  FA9
0280A:  CLRF   FA8
0280C:  BCF    FA6.6
0280E:  BCF    FA6.7
02810:  BSF    FA6.2
02812:  MOVF   FF2,W
02814:  MOVWF  00
02816:  BCF    FF2.7
02818:  MOVLB  F
0281A:  MOVLW  55
0281C:  MOVWF  FA7
0281E:  MOVLW  AA
02820:  MOVWF  FA7
02822:  BSF    FA6.1
02824:  BTFSC  FA6.1
02826:  BRA    2824
02828:  BCF    FA6.2
0282A:  MOVF   00,W
0282C:  IORWF  FF2,F
0282E:  MOVLB  4
....................    } 
....................    if(Ttrabajo[1]>9 || Ttrabajo[1]<0){ 
02830:  BTFSC  xF8.7
02832:  BRA    283A
02834:  MOVF   xF8,W
02836:  SUBLW  09
02838:  BNC   2840
0283A:  BTFSC  xF8.7
0283C:  BRA    2840
0283E:  BRA    286E
....................       Ttrabajo[1]=0;write_eeprom(17,0); 
02840:  CLRF   xF8
02842:  CLRF   FAA
02844:  MOVLW  11
02846:  MOVWF  FA9
02848:  CLRF   FA8
0284A:  BCF    FA6.6
0284C:  BCF    FA6.7
0284E:  BSF    FA6.2
02850:  MOVF   FF2,W
02852:  MOVWF  00
02854:  BCF    FF2.7
02856:  MOVLB  F
02858:  MOVLW  55
0285A:  MOVWF  FA7
0285C:  MOVLW  AA
0285E:  MOVWF  FA7
02860:  BSF    FA6.1
02862:  BTFSC  FA6.1
02864:  BRA    2862
02866:  BCF    FA6.2
02868:  MOVF   00,W
0286A:  IORWF  FF2,F
0286C:  MOVLB  4
....................    } 
....................    if(Ttrabajo[2]>9 || Ttrabajo[2]<0){ 
0286E:  BTFSC  xF9.7
02870:  BRA    2878
02872:  MOVF   xF9,W
02874:  SUBLW  09
02876:  BNC   287E
02878:  BTFSC  xF9.7
0287A:  BRA    287E
0287C:  BRA    28AC
....................       Ttrabajo[2]=0;write_eeprom(18,0); 
0287E:  CLRF   xF9
02880:  CLRF   FAA
02882:  MOVLW  12
02884:  MOVWF  FA9
02886:  CLRF   FA8
02888:  BCF    FA6.6
0288A:  BCF    FA6.7
0288C:  BSF    FA6.2
0288E:  MOVF   FF2,W
02890:  MOVWF  00
02892:  BCF    FF2.7
02894:  MOVLB  F
02896:  MOVLW  55
02898:  MOVWF  FA7
0289A:  MOVLW  AA
0289C:  MOVWF  FA7
0289E:  BSF    FA6.1
028A0:  BTFSC  FA6.1
028A2:  BRA    28A0
028A4:  BCF    FA6.2
028A6:  MOVF   00,W
028A8:  IORWF  FF2,F
028AA:  MOVLB  4
....................    } 
....................    if(Ttrabajo[3]>9 || Ttrabajo[3]<0){ 
028AC:  BTFSC  xFA.7
028AE:  BRA    28B6
028B0:  MOVF   xFA,W
028B2:  SUBLW  09
028B4:  BNC   28BC
028B6:  BTFSC  xFA.7
028B8:  BRA    28BC
028BA:  BRA    28EA
....................       Ttrabajo[3]=0;write_eeprom(19,0); 
028BC:  CLRF   xFA
028BE:  CLRF   FAA
028C0:  MOVLW  13
028C2:  MOVWF  FA9
028C4:  CLRF   FA8
028C6:  BCF    FA6.6
028C8:  BCF    FA6.7
028CA:  BSF    FA6.2
028CC:  MOVF   FF2,W
028CE:  MOVWF  00
028D0:  BCF    FF2.7
028D2:  MOVLB  F
028D4:  MOVLW  55
028D6:  MOVWF  FA7
028D8:  MOVLW  AA
028DA:  MOVWF  FA7
028DC:  BSF    FA6.1
028DE:  BTFSC  FA6.1
028E0:  BRA    28DE
028E2:  BCF    FA6.2
028E4:  MOVF   00,W
028E6:  IORWF  FF2,F
028E8:  MOVLB  4
....................    } 
....................    if(Tempouvp[0]>9 || Tempouvp[0]<0){ 
028EA:  BTFSC  xF3.7
028EC:  BRA    28F4
028EE:  MOVF   xF3,W
028F0:  SUBLW  09
028F2:  BNC   28FA
028F4:  BTFSC  xF3.7
028F6:  BRA    28FA
028F8:  BRA    2928
....................       Tempouvp[0]=0;write_eeprom(21,0); 
028FA:  CLRF   xF3
028FC:  CLRF   FAA
028FE:  MOVLW  15
02900:  MOVWF  FA9
02902:  CLRF   FA8
02904:  BCF    FA6.6
02906:  BCF    FA6.7
02908:  BSF    FA6.2
0290A:  MOVF   FF2,W
0290C:  MOVWF  00
0290E:  BCF    FF2.7
02910:  MOVLB  F
02912:  MOVLW  55
02914:  MOVWF  FA7
02916:  MOVLW  AA
02918:  MOVWF  FA7
0291A:  BSF    FA6.1
0291C:  BTFSC  FA6.1
0291E:  BRA    291C
02920:  BCF    FA6.2
02922:  MOVF   00,W
02924:  IORWF  FF2,F
02926:  MOVLB  4
....................    } 
....................    if(Tempouvp[1]>9 || Tempouvp[1]<0){ 
02928:  BTFSC  xF4.7
0292A:  BRA    2932
0292C:  MOVF   xF4,W
0292E:  SUBLW  09
02930:  BNC   2938
02932:  BTFSC  xF4.7
02934:  BRA    2938
02936:  BRA    2966
....................       Tempouvp[1]=0;write_eeprom(22,0); 
02938:  CLRF   xF4
0293A:  CLRF   FAA
0293C:  MOVLW  16
0293E:  MOVWF  FA9
02940:  CLRF   FA8
02942:  BCF    FA6.6
02944:  BCF    FA6.7
02946:  BSF    FA6.2
02948:  MOVF   FF2,W
0294A:  MOVWF  00
0294C:  BCF    FF2.7
0294E:  MOVLB  F
02950:  MOVLW  55
02952:  MOVWF  FA7
02954:  MOVLW  AA
02956:  MOVWF  FA7
02958:  BSF    FA6.1
0295A:  BTFSC  FA6.1
0295C:  BRA    295A
0295E:  BCF    FA6.2
02960:  MOVF   00,W
02962:  IORWF  FF2,F
02964:  MOVLB  4
....................    } 
....................    if(Tempouvp[2]>9 || Tempouvp[2]<0){ 
02966:  BTFSC  xF5.7
02968:  BRA    2970
0296A:  MOVF   xF5,W
0296C:  SUBLW  09
0296E:  BNC   2976
02970:  BTFSC  xF5.7
02972:  BRA    2976
02974:  BRA    29A4
....................       Tempouvp[2]=0;write_eeprom(23,0); 
02976:  CLRF   xF5
02978:  CLRF   FAA
0297A:  MOVLW  17
0297C:  MOVWF  FA9
0297E:  CLRF   FA8
02980:  BCF    FA6.6
02982:  BCF    FA6.7
02984:  BSF    FA6.2
02986:  MOVF   FF2,W
02988:  MOVWF  00
0298A:  BCF    FF2.7
0298C:  MOVLB  F
0298E:  MOVLW  55
02990:  MOVWF  FA7
02992:  MOVLW  AA
02994:  MOVWF  FA7
02996:  BSF    FA6.1
02998:  BTFSC  FA6.1
0299A:  BRA    2998
0299C:  BCF    FA6.2
0299E:  MOVF   00,W
029A0:  IORWF  FF2,F
029A2:  MOVLB  4
....................    } 
....................    if(Tempouvp[3]>9 || Tempouvp[3]<0){ 
029A4:  BTFSC  xF6.7
029A6:  BRA    29AE
029A8:  MOVF   xF6,W
029AA:  SUBLW  09
029AC:  BNC   29B4
029AE:  BTFSC  xF6.7
029B0:  BRA    29B4
029B2:  BRA    29E4
....................       Tempouvp[3]=1;write_eeprom(24,1); 
029B4:  MOVLW  01
029B6:  MOVWF  xF6
029B8:  CLRF   FAA
029BA:  MOVLW  18
029BC:  MOVWF  FA9
029BE:  MOVLW  01
029C0:  MOVWF  FA8
029C2:  BCF    FA6.6
029C4:  BCF    FA6.7
029C6:  BSF    FA6.2
029C8:  MOVF   FF2,W
029CA:  MOVWF  00
029CC:  BCF    FF2.7
029CE:  MOVLB  F
029D0:  MOVLW  55
029D2:  MOVWF  FA7
029D4:  MOVLW  AA
029D6:  MOVWF  FA7
029D8:  BSF    FA6.1
029DA:  BTFSC  FA6.1
029DC:  BRA    29DA
029DE:  BCF    FA6.2
029E0:  MOVF   00,W
029E2:  IORWF  FF2,F
....................    } 
....................    if(Ajuste1>25.0){ 
029E4:  MOVLB  6
029E6:  CLRF   x03
029E8:  CLRF   x02
029EA:  MOVLW  48
029EC:  MOVWF  x01
029EE:  MOVLW  83
029F0:  MOVWF  x00
029F2:  MOVFF  526,607
029F6:  MOVFF  525,606
029FA:  MOVFF  524,605
029FE:  MOVFF  523,604
02A02:  MOVLB  0
02A04:  RCALL  2390
02A06:  BNC   2A6C
....................       Ajuste1=1.5;write_eeprom(25,1);write_eeprom(26,5); 
02A08:  MOVLB  5
02A0A:  CLRF   x26
02A0C:  CLRF   x25
02A0E:  MOVLW  40
02A10:  MOVWF  x24
02A12:  MOVLW  7F
02A14:  MOVWF  x23
02A16:  CLRF   FAA
02A18:  MOVLW  19
02A1A:  MOVWF  FA9
02A1C:  MOVLW  01
02A1E:  MOVWF  FA8
02A20:  BCF    FA6.6
02A22:  BCF    FA6.7
02A24:  BSF    FA6.2
02A26:  MOVF   FF2,W
02A28:  MOVWF  00
02A2A:  BCF    FF2.7
02A2C:  MOVLB  F
02A2E:  MOVLW  55
02A30:  MOVWF  FA7
02A32:  MOVLW  AA
02A34:  MOVWF  FA7
02A36:  BSF    FA6.1
02A38:  BTFSC  FA6.1
02A3A:  BRA    2A38
02A3C:  BCF    FA6.2
02A3E:  MOVF   00,W
02A40:  IORWF  FF2,F
02A42:  CLRF   FAA
02A44:  MOVLW  1A
02A46:  MOVWF  FA9
02A48:  MOVLW  05
02A4A:  MOVWF  FA8
02A4C:  BCF    FA6.6
02A4E:  BCF    FA6.7
02A50:  BSF    FA6.2
02A52:  MOVF   FF2,W
02A54:  MOVWF  00
02A56:  BCF    FF2.7
02A58:  MOVLW  55
02A5A:  MOVWF  FA7
02A5C:  MOVLW  AA
02A5E:  MOVWF  FA7
02A60:  BSF    FA6.1
02A62:  BTFSC  FA6.1
02A64:  BRA    2A62
02A66:  BCF    FA6.2
02A68:  MOVF   00,W
02A6A:  IORWF  FF2,F
....................    } 
....................    if(Ajuste2>25.0){ 
02A6C:  MOVLB  6
02A6E:  CLRF   x03
02A70:  CLRF   x02
02A72:  MOVLW  48
02A74:  MOVWF  x01
02A76:  MOVLW  83
02A78:  MOVWF  x00
02A7A:  MOVFF  52A,607
02A7E:  MOVFF  529,606
02A82:  MOVFF  528,605
02A86:  MOVFF  527,604
02A8A:  MOVLB  0
02A8C:  RCALL  2390
02A8E:  BNC   2AF0
....................       Ajuste2=1.0;write_eeprom(27,1);write_eeprom(28,0); 
02A90:  MOVLB  5
02A92:  CLRF   x2A
02A94:  CLRF   x29
02A96:  CLRF   x28
02A98:  MOVLW  7F
02A9A:  MOVWF  x27
02A9C:  CLRF   FAA
02A9E:  MOVLW  1B
02AA0:  MOVWF  FA9
02AA2:  MOVLW  01
02AA4:  MOVWF  FA8
02AA6:  BCF    FA6.6
02AA8:  BCF    FA6.7
02AAA:  BSF    FA6.2
02AAC:  MOVF   FF2,W
02AAE:  MOVWF  00
02AB0:  BCF    FF2.7
02AB2:  MOVLB  F
02AB4:  MOVLW  55
02AB6:  MOVWF  FA7
02AB8:  MOVLW  AA
02ABA:  MOVWF  FA7
02ABC:  BSF    FA6.1
02ABE:  BTFSC  FA6.1
02AC0:  BRA    2ABE
02AC2:  BCF    FA6.2
02AC4:  MOVF   00,W
02AC6:  IORWF  FF2,F
02AC8:  CLRF   FAA
02ACA:  MOVLW  1C
02ACC:  MOVWF  FA9
02ACE:  CLRF   FA8
02AD0:  BCF    FA6.6
02AD2:  BCF    FA6.7
02AD4:  BSF    FA6.2
02AD6:  MOVF   FF2,W
02AD8:  MOVWF  00
02ADA:  BCF    FF2.7
02ADC:  MOVLW  55
02ADE:  MOVWF  FA7
02AE0:  MOVLW  AA
02AE2:  MOVWF  FA7
02AE4:  BSF    FA6.1
02AE6:  BTFSC  FA6.1
02AE8:  BRA    2AE6
02AEA:  BCF    FA6.2
02AEC:  MOVF   00,W
02AEE:  IORWF  FF2,F
....................    } 
....................    if(zero_actual>300){ 
02AF0:  MOVLB  6
02AF2:  CLRF   x03
02AF4:  CLRF   x02
02AF6:  MOVLW  16
02AF8:  MOVWF  x01
02AFA:  MOVLW  87
02AFC:  MOVWF  x00
02AFE:  MOVFF  5AE,607
02B02:  MOVFF  5AD,606
02B06:  MOVFF  5AC,605
02B0A:  MOVFF  5AB,604
02B0E:  MOVLB  0
02B10:  RCALL  2390
02B12:  BNC   2B76
....................       zero_actual=203;write_eeprom(29,203);write_eeprom(30,0); 
02B14:  MOVLB  5
02B16:  CLRF   xAE
02B18:  CLRF   xAD
02B1A:  MOVLW  4B
02B1C:  MOVWF  xAC
02B1E:  MOVLW  86
02B20:  MOVWF  xAB
02B22:  CLRF   FAA
02B24:  MOVLW  1D
02B26:  MOVWF  FA9
02B28:  MOVLW  CB
02B2A:  MOVWF  FA8
02B2C:  BCF    FA6.6
02B2E:  BCF    FA6.7
02B30:  BSF    FA6.2
02B32:  MOVF   FF2,W
02B34:  MOVWF  00
02B36:  BCF    FF2.7
02B38:  MOVLB  F
02B3A:  MOVLW  55
02B3C:  MOVWF  FA7
02B3E:  MOVLW  AA
02B40:  MOVWF  FA7
02B42:  BSF    FA6.1
02B44:  BTFSC  FA6.1
02B46:  BRA    2B44
02B48:  BCF    FA6.2
02B4A:  MOVF   00,W
02B4C:  IORWF  FF2,F
02B4E:  CLRF   FAA
02B50:  MOVLW  1E
02B52:  MOVWF  FA9
02B54:  CLRF   FA8
02B56:  BCF    FA6.6
02B58:  BCF    FA6.7
02B5A:  BSF    FA6.2
02B5C:  MOVF   FF2,W
02B5E:  MOVWF  00
02B60:  BCF    FF2.7
02B62:  MOVLW  55
02B64:  MOVWF  FA7
02B66:  MOVLW  AA
02B68:  MOVWF  FA7
02B6A:  BSF    FA6.1
02B6C:  BTFSC  FA6.1
02B6E:  BRA    2B6C
02B70:  BCF    FA6.2
02B72:  MOVF   00,W
02B74:  IORWF  FF2,F
....................    } 
....................    if(minutos_uv>60){ 
02B76:  MOVLB  4
02B78:  MOVF   xDA,F
02B7A:  BNZ   2B82
02B7C:  MOVF   xD9,W
02B7E:  SUBLW  3C
02B80:  BC    2BB0
....................       minutos_uv=0;write_eeprom(31,0); 
02B82:  CLRF   xDA
02B84:  CLRF   xD9
02B86:  CLRF   FAA
02B88:  MOVLW  1F
02B8A:  MOVWF  FA9
02B8C:  CLRF   FA8
02B8E:  BCF    FA6.6
02B90:  BCF    FA6.7
02B92:  BSF    FA6.2
02B94:  MOVF   FF2,W
02B96:  MOVWF  00
02B98:  BCF    FF2.7
02B9A:  MOVLB  F
02B9C:  MOVLW  55
02B9E:  MOVWF  FA7
02BA0:  MOVLW  AA
02BA2:  MOVWF  FA7
02BA4:  BSF    FA6.1
02BA6:  BTFSC  FA6.1
02BA8:  BRA    2BA6
02BAA:  BCF    FA6.2
02BAC:  MOVF   00,W
02BAE:  IORWF  FF2,F
....................    } 
....................    if(VelMotor>6){ 
02BB0:  MOVLB  5
02BB2:  MOVF   xC6,W
02BB4:  SUBLW  06
02BB6:  BC    2BE8
....................       VelMotor=2;write_eeprom(32,2); 
02BB8:  MOVLW  02
02BBA:  MOVWF  xC6
02BBC:  CLRF   FAA
02BBE:  MOVLW  20
02BC0:  MOVWF  FA9
02BC2:  MOVLW  02
02BC4:  MOVWF  FA8
02BC6:  BCF    FA6.6
02BC8:  BCF    FA6.7
02BCA:  BSF    FA6.2
02BCC:  MOVF   FF2,W
02BCE:  MOVWF  00
02BD0:  BCF    FF2.7
02BD2:  MOVLB  F
02BD4:  MOVLW  55
02BD6:  MOVWF  FA7
02BD8:  MOVLW  AA
02BDA:  MOVWF  FA7
02BDC:  BSF    FA6.1
02BDE:  BTFSC  FA6.1
02BE0:  BRA    2BDE
02BE2:  BCF    FA6.2
02BE4:  MOVF   00,W
02BE6:  IORWF  FF2,F
....................    }    
....................    if(minutos_trabajo>3600){ 
02BE8:  MOVLB  4
02BEA:  MOVF   xDC,W
02BEC:  SUBLW  0D
02BEE:  BC    2C50
02BF0:  XORLW  FF
02BF2:  BNZ   2BFA
02BF4:  MOVF   xDB,W
02BF6:  SUBLW  10
02BF8:  BC    2C50
....................       minutos_trabajo=0;write_eeprom(33,0);write_eeprom(34,0); 
02BFA:  CLRF   xDC
02BFC:  CLRF   xDB
02BFE:  CLRF   FAA
02C00:  MOVLW  21
02C02:  MOVWF  FA9
02C04:  CLRF   FA8
02C06:  BCF    FA6.6
02C08:  BCF    FA6.7
02C0A:  BSF    FA6.2
02C0C:  MOVF   FF2,W
02C0E:  MOVWF  00
02C10:  BCF    FF2.7
02C12:  MOVLB  F
02C14:  MOVLW  55
02C16:  MOVWF  FA7
02C18:  MOVLW  AA
02C1A:  MOVWF  FA7
02C1C:  BSF    FA6.1
02C1E:  BTFSC  FA6.1
02C20:  BRA    2C1E
02C22:  BCF    FA6.2
02C24:  MOVF   00,W
02C26:  IORWF  FF2,F
02C28:  CLRF   FAA
02C2A:  MOVLW  22
02C2C:  MOVWF  FA9
02C2E:  CLRF   FA8
02C30:  BCF    FA6.6
02C32:  BCF    FA6.7
02C34:  BSF    FA6.2
02C36:  MOVF   FF2,W
02C38:  MOVWF  00
02C3A:  BCF    FF2.7
02C3C:  MOVLW  55
02C3E:  MOVWF  FA7
02C40:  MOVLW  AA
02C42:  MOVWF  FA7
02C44:  BSF    FA6.1
02C46:  BTFSC  FA6.1
02C48:  BRA    2C46
02C4A:  BCF    FA6.2
02C4C:  MOVF   00,W
02C4E:  IORWF  FF2,F
....................    } 
....................    //if(Relacion>2.0){ 
....................       //Relacion=0.57;write_eeprom(35,0);write_eeprom(36,57); 
....................    //} 
....................    if(Diferencia>200){ 
02C50:  MOVLB  6
02C52:  CLRF   x03
02C54:  CLRF   x02
02C56:  MOVLW  48
02C58:  MOVWF  x01
02C5A:  MOVLW  86
02C5C:  MOVWF  x00
02C5E:  MOVFF  512,607
02C62:  MOVFF  511,606
02C66:  MOVFF  510,605
02C6A:  MOVFF  50F,604
02C6E:  MOVLB  0
02C70:  CALL   2390
02C74:  BNC   2CD2
....................       Diferencia=0;write_eeprom(60,0);write_eeprom(61,0); 
02C76:  MOVLB  5
02C78:  CLRF   x12
02C7A:  CLRF   x11
02C7C:  CLRF   x10
02C7E:  CLRF   x0F
02C80:  CLRF   FAA
02C82:  MOVLW  3C
02C84:  MOVWF  FA9
02C86:  CLRF   FA8
02C88:  BCF    FA6.6
02C8A:  BCF    FA6.7
02C8C:  BSF    FA6.2
02C8E:  MOVF   FF2,W
02C90:  MOVWF  00
02C92:  BCF    FF2.7
02C94:  MOVLB  F
02C96:  MOVLW  55
02C98:  MOVWF  FA7
02C9A:  MOVLW  AA
02C9C:  MOVWF  FA7
02C9E:  BSF    FA6.1
02CA0:  BTFSC  FA6.1
02CA2:  BRA    2CA0
02CA4:  BCF    FA6.2
02CA6:  MOVF   00,W
02CA8:  IORWF  FF2,F
02CAA:  CLRF   FAA
02CAC:  MOVLW  3D
02CAE:  MOVWF  FA9
02CB0:  CLRF   FA8
02CB2:  BCF    FA6.6
02CB4:  BCF    FA6.7
02CB6:  BSF    FA6.2
02CB8:  MOVF   FF2,W
02CBA:  MOVWF  00
02CBC:  BCF    FF2.7
02CBE:  MOVLW  55
02CC0:  MOVWF  FA7
02CC2:  MOVLW  AA
02CC4:  MOVWF  FA7
02CC6:  BSF    FA6.1
02CC8:  BTFSC  FA6.1
02CCA:  BRA    2CC8
02CCC:  BCF    FA6.2
02CCE:  MOVF   00,W
02CD0:  IORWF  FF2,F
....................    } 
....................    if(G>900){ 
02CD2:  MOVLB  6
02CD4:  CLRF   x03
02CD6:  CLRF   x02
02CD8:  MOVLW  61
02CDA:  MOVWF  x01
02CDC:  MOVLW  88
02CDE:  MOVWF  x00
02CE0:  MOVFF  5BA,607
02CE4:  MOVFF  5B9,606
02CE8:  MOVFF  5B8,605
02CEC:  MOVFF  5B7,604
02CF0:  MOVLB  0
02CF2:  CALL   2390
02CF6:  BNC   2D5A
....................       G=240;write_eeprom(62,240);write_eeprom(63,0); 
02CF8:  MOVLB  5
02CFA:  CLRF   xBA
02CFC:  CLRF   xB9
02CFE:  MOVLW  70
02D00:  MOVWF  xB8
02D02:  MOVLW  86
02D04:  MOVWF  xB7
02D06:  CLRF   FAA
02D08:  MOVLW  3E
02D0A:  MOVWF  FA9
02D0C:  MOVLW  F0
02D0E:  MOVWF  FA8
02D10:  BCF    FA6.6
02D12:  BCF    FA6.7
02D14:  BSF    FA6.2
02D16:  MOVF   FF2,W
02D18:  MOVWF  00
02D1A:  BCF    FF2.7
02D1C:  MOVLB  F
02D1E:  MOVLW  55
02D20:  MOVWF  FA7
02D22:  MOVLW  AA
02D24:  MOVWF  FA7
02D26:  BSF    FA6.1
02D28:  BTFSC  FA6.1
02D2A:  BRA    2D28
02D2C:  BCF    FA6.2
02D2E:  MOVF   00,W
02D30:  IORWF  FF2,F
02D32:  CLRF   FAA
02D34:  MOVLW  3F
02D36:  MOVWF  FA9
02D38:  CLRF   FA8
02D3A:  BCF    FA6.6
02D3C:  BCF    FA6.7
02D3E:  BSF    FA6.2
02D40:  MOVF   FF2,W
02D42:  MOVWF  00
02D44:  BCF    FF2.7
02D46:  MOVLW  55
02D48:  MOVWF  FA7
02D4A:  MOVLW  AA
02D4C:  MOVWF  FA7
02D4E:  BSF    FA6.1
02D50:  BTFSC  FA6.1
02D52:  BRA    2D50
02D54:  BCF    FA6.2
02D56:  MOVF   00,W
02D58:  IORWF  FF2,F
....................    } 
....................    if(negativo>20){ 
02D5A:  MOVLB  4
02D5C:  MOVF   xC6,W
02D5E:  SUBLW  14
02D60:  BC    2D94
....................       negativo=10;write_eeprom(50,10); 
02D62:  MOVLW  0A
02D64:  MOVWF  xC6
02D66:  CLRF   FAA
02D68:  MOVLW  32
02D6A:  MOVWF  FA9
02D6C:  MOVLW  0A
02D6E:  MOVWF  FA8
02D70:  BCF    FA6.6
02D72:  BCF    FA6.7
02D74:  BSF    FA6.2
02D76:  MOVF   FF2,W
02D78:  MOVWF  00
02D7A:  BCF    FF2.7
02D7C:  MOVLB  F
02D7E:  MOVLW  55
02D80:  MOVWF  FA7
02D82:  MOVLW  AA
02D84:  MOVWF  FA7
02D86:  BSF    FA6.1
02D88:  BTFSC  FA6.1
02D8A:  BRA    2D88
02D8C:  BCF    FA6.2
02D8E:  MOVF   00,W
02D90:  IORWF  FF2,F
02D92:  MOVLB  4
....................    } 
.................... } 
02D94:  MOVLB  0
02D96:  GOTO   6046 (RETURN)
....................  
.................... void VelocidadMotor(int8 Vel){ 
....................    if(Vel==6){ 
*
01584:  MOVLB  5
01586:  MOVF   xCF,W
01588:  SUBLW  06
0158A:  BNZ   1594
....................       Porcentaje=0; 
0158C:  CLRF   xC5
....................       Motor_on; 
0158E:  BSF    F8B.2
01590:  BCF    F94.2
....................    }else if(Vel==5){ 
01592:  BRA    1602
01594:  MOVF   xCF,W
01596:  SUBLW  05
01598:  BNZ   15A8
....................       Porcentaje=15; 
0159A:  MOVLW  0F
0159C:  MOVWF  xC5
....................       retardo=2000; 
0159E:  MOVLW  07
015A0:  MOVWF  xBE
015A2:  MOVLW  D0
015A4:  MOVWF  xBD
....................    }else if(Vel==4){ 
015A6:  BRA    1602
015A8:  MOVF   xCF,W
015AA:  SUBLW  04
015AC:  BNZ   15BC
....................       Porcentaje=25; 
015AE:  MOVLW  19
015B0:  MOVWF  xC5
....................       retardo=3000; 
015B2:  MOVLW  0B
015B4:  MOVWF  xBE
015B6:  MOVLW  B8
015B8:  MOVWF  xBD
....................    }else if(Vel==3){ 
015BA:  BRA    1602
015BC:  MOVF   xCF,W
015BE:  SUBLW  03
015C0:  BNZ   15D0
....................       Porcentaje=35; 
015C2:  MOVLW  23
015C4:  MOVWF  xC5
....................       retardo=3600; 
015C6:  MOVLW  0E
015C8:  MOVWF  xBE
015CA:  MOVLW  10
015CC:  MOVWF  xBD
....................    }else if(Vel==2){ 
015CE:  BRA    1602
015D0:  MOVF   xCF,W
015D2:  SUBLW  02
015D4:  BNZ   15E4
....................       Porcentaje=45; 
015D6:  MOVLW  2D
015D8:  MOVWF  xC5
....................       retardo=4300; 
015DA:  MOVLW  10
015DC:  MOVWF  xBE
015DE:  MOVLW  CC
015E0:  MOVWF  xBD
....................    }else if(Vel==1){ 
015E2:  BRA    1602
015E4:  DECFSZ xCF,W
015E6:  BRA    15F6
....................       Porcentaje=50; 
015E8:  MOVLW  32
015EA:  MOVWF  xC5
....................       retardo=5000; 
015EC:  MOVLW  13
015EE:  MOVWF  xBE
015F0:  MOVLW  88
015F2:  MOVWF  xBD
....................    }else if(Vel==0){ 
015F4:  BRA    1602
015F6:  MOVF   xCF,F
015F8:  BNZ   1602
....................       Porcentaje=100; 
015FA:  MOVLW  64
015FC:  MOVWF  xC5
....................       Motor_off; 
015FE:  BCF    F8B.2
01600:  BCF    F94.2
....................    } 
.................... } 
01602:  MOVLB  0
01604:  RETLW  00
....................  
.................... short PidePassword(int8 MenuAnt, int8 MenuActual, int8 MenuPost, int8 clave0,int8 clave1, int8 clave2,int8 clave3){ 
....................       if(n==0) 
*
04D66:  MOVLB  4
04D68:  BTFSC  x2F.3
04D6A:  BRA    4E02
....................       { 
....................          displayContrasena(Contrasena[0],20,30,1);displayContrasena(Contrasena[1],40,30,0); 
04D6C:  MOVFF  4FB,5D9
04D70:  MOVLW  14
04D72:  MOVLB  5
04D74:  MOVWF  xDA
04D76:  MOVLW  1E
04D78:  MOVWF  xDB
04D7A:  MOVLW  01
04D7C:  MOVWF  xDC
04D7E:  MOVLB  0
04D80:  RCALL  4BE2
04D82:  MOVFF  4FC,5D9
04D86:  MOVLW  28
04D88:  MOVLB  5
04D8A:  MOVWF  xDA
04D8C:  MOVLW  1E
04D8E:  MOVWF  xDB
04D90:  CLRF   xDC
04D92:  MOVLB  0
04D94:  RCALL  4BE2
....................          displayContrasena(Contrasena[2],60,30,0);displayContrasena(Contrasena[0],80,30,0); 
04D96:  MOVFF  4FD,5D9
04D9A:  MOVLW  3C
04D9C:  MOVLB  5
04D9E:  MOVWF  xDA
04DA0:  MOVLW  1E
04DA2:  MOVWF  xDB
04DA4:  CLRF   xDC
04DA6:  MOVLB  0
04DA8:  RCALL  4BE2
04DAA:  MOVFF  4FB,5D9
04DAE:  MOVLW  50
04DB0:  MOVLB  5
04DB2:  MOVWF  xDA
04DB4:  MOVLW  1E
04DB6:  MOVWF  xDB
04DB8:  CLRF   xDC
04DBA:  MOVLB  0
04DBC:  RCALL  4BE2
....................          strcpy(Menus.Letra,"Clave"); 
04DBE:  MOVLW  04
04DC0:  MOVWF  FEA
04DC2:  MOVLW  17
04DC4:  MOVWF  FE9
04DC6:  MOVFF  FF2,5D7
04DCA:  BCF    FF2.7
04DCC:  MOVLW  00
04DCE:  CALL   0F0A
04DD2:  TBLRD*-
04DD4:  TBLRD*+
04DD6:  MOVF   FF5,W
04DD8:  MOVWF  FEE
04DDA:  IORLW  00
04DDC:  BNZ   4DD4
04DDE:  MOVLB  5
04DE0:  BTFSC  xD7.7
04DE2:  BSF    FF2.7
....................          displayMenu(Menus.Letra,20,0,1,3); 
04DE4:  MOVLW  04
04DE6:  MOVWF  xD8
04DE8:  MOVLW  17
04DEA:  MOVWF  xD7
04DEC:  MOVLW  14
04DEE:  MOVWF  xD9
04DF0:  CLRF   xDA
04DF2:  MOVLW  01
04DF4:  MOVWF  xDB
04DF6:  MOVLW  03
04DF8:  MOVWF  xDC
04DFA:  MOVLB  0
04DFC:  RCALL  4C9A
....................          n=1; 
04DFE:  MOVLB  4
04E00:  BSF    x2F.3
....................       } 
....................        
....................       if(UP){ 
04E02:  BSF    F92.5
04E04:  BTFSC  F80.5
04E06:  BRA    4EE2
....................          flag_latencia=0;t_latencia=0; 
04E08:  BCF    x2E.7
04E0A:  CLRF   xD8
04E0C:  CLRF   xD7
....................          if(Flanco == 0){ 
04E0E:  BTFSC  x2D.0
04E10:  BRA    4EE0
....................             Flanco = 1;delay_ms(5); 
04E12:  BSF    x2D.0
04E14:  MOVLW  05
04E16:  MOVLB  5
04E18:  MOVWF  xE3
04E1A:  MOVLB  0
04E1C:  CALL   155C
....................             for(i=1;i<=4;i++){ 
04E20:  MOVLW  01
04E22:  MOVLB  5
04E24:  MOVWF  xBF
04E26:  MOVF   xBF,W
04E28:  SUBLW  04
04E2A:  BNC   4EDE
....................                if(unidad==i){ 
04E2C:  MOVF   xBF,W
04E2E:  MOVLB  4
04E30:  SUBWF  xC4,W
04E32:  BNZ   4EA8
....................                   Contrasena[i-1]++; 
04E34:  MOVLW  01
04E36:  MOVLB  5
04E38:  SUBWF  xBF,W
04E3A:  CLRF   03
04E3C:  ADDLW  FB
04E3E:  MOVWF  FE9
04E40:  MOVLW  04
04E42:  ADDWFC 03,W
04E44:  MOVWF  FEA
04E46:  INCF   FEF,F
....................                   if(Contrasena[i-1]>9){ 
04E48:  MOVLW  01
04E4A:  SUBWF  xBF,W
04E4C:  CLRF   03
04E4E:  ADDLW  FB
04E50:  MOVWF  FE9
04E52:  MOVLW  04
04E54:  ADDWFC 03,W
04E56:  MOVWF  FEA
04E58:  BTFSC  FEF.7
04E5A:  BRA    4E74
04E5C:  MOVF   FEF,W
04E5E:  SUBLW  09
04E60:  BC    4E74
....................                      Contrasena[i-1]=0; 
04E62:  MOVLW  01
04E64:  SUBWF  xBF,W
04E66:  CLRF   03
04E68:  ADDLW  FB
04E6A:  MOVWF  FE9
04E6C:  MOVLW  04
04E6E:  ADDWFC 03,W
04E70:  MOVWF  FEA
04E72:  CLRF   FEF
....................                   } 
....................                   displayContrasena(Contrasena[i-1],i*20,30,1); 
04E74:  MOVLW  01
04E76:  SUBWF  xBF,W
04E78:  CLRF   03
04E7A:  ADDLW  FB
04E7C:  MOVWF  FE9
04E7E:  MOVLW  04
04E80:  ADDWFC 03,W
04E82:  MOVWF  FEA
04E84:  MOVFF  FEF,5D7
04E88:  MOVF   xBF,W
04E8A:  MULLW  14
04E8C:  MOVFF  FF3,5D8
04E90:  MOVFF  5D7,5D9
04E94:  MOVFF  5D8,5DA
04E98:  MOVLW  1E
04E9A:  MOVWF  xDB
04E9C:  MOVLW  01
04E9E:  MOVWF  xDC
04EA0:  MOVLB  0
04EA2:  RCALL  4BE2
....................                }else{ 
04EA4:  BRA    4ED8
04EA6:  MOVLB  4
....................                   displayContrasena(Contrasena[i-1],i*20,30,0); 
04EA8:  MOVLW  01
04EAA:  MOVLB  5
04EAC:  SUBWF  xBF,W
04EAE:  CLRF   03
04EB0:  ADDLW  FB
04EB2:  MOVWF  FE9
04EB4:  MOVLW  04
04EB6:  ADDWFC 03,W
04EB8:  MOVWF  FEA
04EBA:  MOVFF  FEF,5D7
04EBE:  MOVF   xBF,W
04EC0:  MULLW  14
04EC2:  MOVFF  FF3,5D8
04EC6:  MOVFF  5D7,5D9
04ECA:  MOVFF  5D8,5DA
04ECE:  MOVLW  1E
04ED0:  MOVWF  xDB
04ED2:  CLRF   xDC
04ED4:  MOVLB  0
04ED6:  RCALL  4BE2
....................                } 
....................             } 
04ED8:  MOVLB  5
04EDA:  INCF   xBF,F
04EDC:  BRA    4E26
04EDE:  MOVLB  4
....................          } 
....................       }else{ 
04EE0:  BRA    4EE4
....................          Flanco = 0; 
04EE2:  BCF    x2D.0
....................       } 
....................              
....................       if(DOWN){ 
04EE4:  BSF    F96.0
04EE6:  BTFSC  F84.0
04EE8:  BRA    4FC2
....................          flag_latencia=0;t_latencia=0; 
04EEA:  BCF    x2E.7
04EEC:  CLRF   xD8
04EEE:  CLRF   xD7
....................          if(Flanco2 == 0){ 
04EF0:  BTFSC  x2D.2
04EF2:  BRA    4FC0
....................             Flanco2 = 1;delay_ms(5); 
04EF4:  BSF    x2D.2
04EF6:  MOVLW  05
04EF8:  MOVLB  5
04EFA:  MOVWF  xE3
04EFC:  MOVLB  0
04EFE:  CALL   155C
....................             for(i=1;i<=4;i++){ 
04F02:  MOVLW  01
04F04:  MOVLB  5
04F06:  MOVWF  xBF
04F08:  MOVF   xBF,W
04F0A:  SUBLW  04
04F0C:  BNC   4FBE
....................                if(unidad==i){ 
04F0E:  MOVF   xBF,W
04F10:  MOVLB  4
04F12:  SUBWF  xC4,W
04F14:  BNZ   4F88
....................                   Contrasena[i-1]--; 
04F16:  MOVLW  01
04F18:  MOVLB  5
04F1A:  SUBWF  xBF,W
04F1C:  CLRF   03
04F1E:  ADDLW  FB
04F20:  MOVWF  FE9
04F22:  MOVLW  04
04F24:  ADDWFC 03,W
04F26:  MOVWF  FEA
04F28:  DECF   FEF,F
....................                   if(Contrasena[i-1]<0){ 
04F2A:  MOVLW  01
04F2C:  SUBWF  xBF,W
04F2E:  CLRF   03
04F30:  ADDLW  FB
04F32:  MOVWF  FE9
04F34:  MOVLW  04
04F36:  ADDWFC 03,W
04F38:  MOVWF  FEA
04F3A:  BTFSC  FEF.7
04F3C:  BRA    4F40
04F3E:  BRA    4F54
....................                      Contrasena[i-1]=9; 
04F40:  MOVLW  01
04F42:  SUBWF  xBF,W
04F44:  CLRF   03
04F46:  ADDLW  FB
04F48:  MOVWF  FE9
04F4A:  MOVLW  04
04F4C:  ADDWFC 03,W
04F4E:  MOVWF  FEA
04F50:  MOVLW  09
04F52:  MOVWF  FEF
....................                   } 
....................                   displayContrasena(Contrasena[i-1],i*20,30,1); 
04F54:  MOVLW  01
04F56:  SUBWF  xBF,W
04F58:  CLRF   03
04F5A:  ADDLW  FB
04F5C:  MOVWF  FE9
04F5E:  MOVLW  04
04F60:  ADDWFC 03,W
04F62:  MOVWF  FEA
04F64:  MOVFF  FEF,5D7
04F68:  MOVF   xBF,W
04F6A:  MULLW  14
04F6C:  MOVFF  FF3,5D8
04F70:  MOVFF  5D7,5D9
04F74:  MOVFF  5D8,5DA
04F78:  MOVLW  1E
04F7A:  MOVWF  xDB
04F7C:  MOVLW  01
04F7E:  MOVWF  xDC
04F80:  MOVLB  0
04F82:  RCALL  4BE2
....................                }else{ 
04F84:  BRA    4FB8
04F86:  MOVLB  4
....................                   displayContrasena(Contrasena[i-1],i*20,30,0); 
04F88:  MOVLW  01
04F8A:  MOVLB  5
04F8C:  SUBWF  xBF,W
04F8E:  CLRF   03
04F90:  ADDLW  FB
04F92:  MOVWF  FE9
04F94:  MOVLW  04
04F96:  ADDWFC 03,W
04F98:  MOVWF  FEA
04F9A:  MOVFF  FEF,5D7
04F9E:  MOVF   xBF,W
04FA0:  MULLW  14
04FA2:  MOVFF  FF3,5D8
04FA6:  MOVFF  5D7,5D9
04FAA:  MOVFF  5D8,5DA
04FAE:  MOVLW  1E
04FB0:  MOVWF  xDB
04FB2:  CLRF   xDC
04FB4:  MOVLB  0
04FB6:  RCALL  4BE2
....................                } 
....................             }       
04FB8:  MOVLB  5
04FBA:  INCF   xBF,F
04FBC:  BRA    4F08
04FBE:  MOVLB  4
....................          }      
....................       }else{ 
04FC0:  BRA    4FC4
....................          Flanco2 = 0; 
04FC2:  BCF    x2D.2
....................       } 
....................              
....................       if(RIGHT){ 
04FC4:  BSF    F96.1
04FC6:  BTFSC  F84.1
04FC8:  BRA    506A
....................          flag_latencia=0;t_latencia=0; 
04FCA:  BCF    x2E.7
04FCC:  CLRF   xD8
04FCE:  CLRF   xD7
....................          if(Flanco1 == 0){ 
04FD0:  BTFSC  x2D.1
04FD2:  BRA    5068
....................             Flanco1 = 1;delay_ms(5);unidad++; 
04FD4:  BSF    x2D.1
04FD6:  MOVLW  05
04FD8:  MOVLB  5
04FDA:  MOVWF  xE3
04FDC:  MOVLB  0
04FDE:  CALL   155C
04FE2:  MOVLB  4
04FE4:  INCF   xC4,F
....................             for(i=1;i<=4;i++){ 
04FE6:  MOVLW  01
04FE8:  MOVLB  5
04FEA:  MOVWF  xBF
04FEC:  MOVF   xBF,W
04FEE:  SUBLW  04
04FF0:  BNC   5066
....................                if(unidad==i){ 
04FF2:  MOVF   xBF,W
04FF4:  MOVLB  4
04FF6:  SUBWF  xC4,W
04FF8:  BNZ   5030
....................                   displayContrasena(Contrasena[i-1],i*20,30,1); 
04FFA:  MOVLW  01
04FFC:  MOVLB  5
04FFE:  SUBWF  xBF,W
05000:  CLRF   03
05002:  ADDLW  FB
05004:  MOVWF  FE9
05006:  MOVLW  04
05008:  ADDWFC 03,W
0500A:  MOVWF  FEA
0500C:  MOVFF  FEF,5D7
05010:  MOVF   xBF,W
05012:  MULLW  14
05014:  MOVFF  FF3,5D8
05018:  MOVFF  5D7,5D9
0501C:  MOVFF  5D8,5DA
05020:  MOVLW  1E
05022:  MOVWF  xDB
05024:  MOVLW  01
05026:  MOVWF  xDC
05028:  MOVLB  0
0502A:  RCALL  4BE2
....................                }else{ 
0502C:  BRA    5060
0502E:  MOVLB  4
....................                   displayContrasena(Contrasena[i-1],i*20,30,0); 
05030:  MOVLW  01
05032:  MOVLB  5
05034:  SUBWF  xBF,W
05036:  CLRF   03
05038:  ADDLW  FB
0503A:  MOVWF  FE9
0503C:  MOVLW  04
0503E:  ADDWFC 03,W
05040:  MOVWF  FEA
05042:  MOVFF  FEF,5D7
05046:  MOVF   xBF,W
05048:  MULLW  14
0504A:  MOVFF  FF3,5D8
0504E:  MOVFF  5D7,5D9
05052:  MOVFF  5D8,5DA
05056:  MOVLW  1E
05058:  MOVWF  xDB
0505A:  CLRF   xDC
0505C:  MOVLB  0
0505E:  RCALL  4BE2
....................                } 
....................             } 
05060:  MOVLB  5
05062:  INCF   xBF,F
05064:  BRA    4FEC
05066:  MOVLB  4
....................          } 
....................       }else{ 
05068:  BRA    506C
....................          Flanco1 = 0; 
0506A:  BCF    x2D.1
....................       } 
....................        
....................       if(LEFT){ 
0506C:  BSF    F96.2
0506E:  BTFSC  F84.2
05070:  BRA    50BA
....................          delay_ms(100); 
05072:  MOVLW  64
05074:  MOVLB  5
05076:  MOVWF  xE3
05078:  MOVLB  0
0507A:  CALL   155C
....................          if(LEFT){ 
0507E:  BSF    F96.2
05080:  BTFSC  F84.2
05082:  BRA    50B8
....................             Menu=MenuAnt;glcd_fillScreen(OFF);n=0;Opcion=1;unidad=1; 
05084:  MOVFF  5D0,4C3
05088:  MOVLB  5
0508A:  CLRF   xD7
0508C:  MOVLB  0
0508E:  CALL   163C
05092:  MOVLB  4
05094:  BCF    x2F.3
05096:  MOVLW  01
05098:  MOVWF  xC5
0509A:  MOVWF  xC4
....................             Contrasena[0]=0;Contrasena[1]=0;Contrasena[2]=0;Contrasena[3]=0; 
0509C:  CLRF   xFB
0509E:  CLRF   xFC
050A0:  CLRF   xFD
050A2:  CLRF   xFE
....................             glcd_fillScreen(OFF);glcd_update(); 
050A4:  MOVLB  5
050A6:  CLRF   xD7
050A8:  MOVLB  0
050AA:  CALL   163C
050AE:  CALL   1696
....................             return 1; 
050B2:  MOVLW  01
050B4:  MOVWF  01
050B6:  BRA    5462
050B8:  MOVLB  4
....................          } 
....................       } 
....................      
....................       if(unidad>4){ 
050BA:  MOVF   xC4,W
050BC:  SUBLW  04
050BE:  BTFSC  FD8.0
050C0:  BRA    5464
....................          glcd_fillScreen(OFF);unidad=1;flag_latencia=0;t_latencia=0; 
050C2:  MOVLB  5
050C4:  CLRF   xD7
050C6:  MOVLB  0
050C8:  CALL   163C
050CC:  MOVLW  01
050CE:  MOVLB  4
050D0:  MOVWF  xC4
050D2:  BCF    x2E.7
050D4:  CLRF   xD8
050D6:  CLRF   xD7
....................           
....................          if(Contrasena[0]==3&&Contrasena[1]==8&&Contrasena[2]==9&&Contrasena[3]==2 && MenuActual==0){ // Si Ingresa clave para reset general del sistema. 
050D8:  MOVF   xFB,W
050DA:  SUBLW  03
050DC:  BTFSS  FD8.2
050DE:  BRA    51D8
050E0:  MOVF   xFC,W
050E2:  SUBLW  08
050E4:  BTFSS  FD8.2
050E6:  BRA    51D8
050E8:  MOVF   xFD,W
050EA:  SUBLW  09
050EC:  BNZ   51D8
050EE:  MOVF   xFE,W
050F0:  SUBLW  02
050F2:  BNZ   51D8
050F4:  MOVLB  5
050F6:  MOVF   xD1,F
050F8:  BTFSC  FD8.2
050FA:  BRA    5100
050FC:  MOVLB  4
050FE:  BRA    51D8
....................             write_eeprom(0,0);delay_ms(20);write_eeprom(1,0);delay_ms(20);// Reestablece a contrasea de Fabrica y reinicia Programa. 
05100:  CLRF   FAA
05102:  CLRF   FA9
05104:  CLRF   FA8
05106:  BCF    FA6.6
05108:  BCF    FA6.7
0510A:  BSF    FA6.2
0510C:  MOVF   FF2,W
0510E:  MOVWF  00
05110:  BCF    FF2.7
05112:  MOVLB  F
05114:  MOVLW  55
05116:  MOVWF  FA7
05118:  MOVLW  AA
0511A:  MOVWF  FA7
0511C:  BSF    FA6.1
0511E:  BTFSC  FA6.1
05120:  BRA    511E
05122:  BCF    FA6.2
05124:  MOVF   00,W
05126:  IORWF  FF2,F
05128:  MOVLW  14
0512A:  MOVLB  5
0512C:  MOVWF  xE3
0512E:  MOVLB  0
05130:  CALL   155C
05134:  CLRF   FAA
05136:  MOVLW  01
05138:  MOVWF  FA9
0513A:  CLRF   FA8
0513C:  BCF    FA6.6
0513E:  BCF    FA6.7
05140:  BSF    FA6.2
05142:  MOVF   FF2,W
05144:  MOVWF  00
05146:  BCF    FF2.7
05148:  MOVLB  F
0514A:  MOVLW  55
0514C:  MOVWF  FA7
0514E:  MOVLW  AA
05150:  MOVWF  FA7
05152:  BSF    FA6.1
05154:  BTFSC  FA6.1
05156:  BRA    5154
05158:  BCF    FA6.2
0515A:  MOVF   00,W
0515C:  IORWF  FF2,F
0515E:  MOVLW  14
05160:  MOVLB  5
05162:  MOVWF  xE3
05164:  MOVLB  0
05166:  CALL   155C
....................             write_eeprom(2,0);delay_ms(20);write_eeprom(3,0);delay_ms(20); 
0516A:  CLRF   FAA
0516C:  MOVLW  02
0516E:  MOVWF  FA9
05170:  CLRF   FA8
05172:  BCF    FA6.6
05174:  BCF    FA6.7
05176:  BSF    FA6.2
05178:  MOVF   FF2,W
0517A:  MOVWF  00
0517C:  BCF    FF2.7
0517E:  MOVLB  F
05180:  MOVLW  55
05182:  MOVWF  FA7
05184:  MOVLW  AA
05186:  MOVWF  FA7
05188:  BSF    FA6.1
0518A:  BTFSC  FA6.1
0518C:  BRA    518A
0518E:  BCF    FA6.2
05190:  MOVF   00,W
05192:  IORWF  FF2,F
05194:  MOVLW  14
05196:  MOVLB  5
05198:  MOVWF  xE3
0519A:  MOVLB  0
0519C:  CALL   155C
051A0:  CLRF   FAA
051A2:  MOVLW  03
051A4:  MOVWF  FA9
051A6:  CLRF   FA8
051A8:  BCF    FA6.6
051AA:  BCF    FA6.7
051AC:  BSF    FA6.2
051AE:  MOVF   FF2,W
051B0:  MOVWF  00
051B2:  BCF    FF2.7
051B4:  MOVLB  F
051B6:  MOVLW  55
051B8:  MOVWF  FA7
051BA:  MOVLW  AA
051BC:  MOVWF  FA7
051BE:  BSF    FA6.1
051C0:  BTFSC  FA6.1
051C2:  BRA    51C0
051C4:  BCF    FA6.2
051C6:  MOVF   00,W
051C8:  IORWF  FF2,F
051CA:  MOVLW  14
051CC:  MOVLB  5
051CE:  MOVWF  xE3
051D0:  MOVLB  0
051D2:  CALL   155C
....................             reset_cpu(); 
051D6:  RESET
....................          } 
....................        
....................          if((Contrasena[0]==clave0)&&(Contrasena[1]==clave1)&&(Contrasena[2]==clave2)&&(Contrasena[3]==clave3)){ 
051D8:  MOVLB  5
051DA:  MOVF   xD3,W
051DC:  MOVLB  4
051DE:  SUBWF  xFB,W
051E0:  BTFSS  FD8.2
051E2:  BRA    52D6
051E4:  MOVLB  5
051E6:  MOVF   xD4,W
051E8:  MOVLB  4
051EA:  SUBWF  xFC,W
051EC:  BTFSS  FD8.2
051EE:  BRA    52D6
051F0:  MOVLB  5
051F2:  MOVF   xD5,W
051F4:  MOVLB  4
051F6:  SUBWF  xFD,W
051F8:  BNZ   52D6
051FA:  MOVLB  5
051FC:  MOVF   xD6,W
051FE:  MOVLB  4
05200:  SUBWF  xFE,W
05202:  BNZ   52D6
....................             glcd_fillScreen(OFF); 
05204:  MOVLB  5
05206:  CLRF   xD7
05208:  MOVLB  0
0520A:  CALL   163C
....................             strcpy(Menus.Letra,"Clave"); 
0520E:  MOVLW  04
05210:  MOVWF  FEA
05212:  MOVLW  17
05214:  MOVWF  FE9
05216:  MOVFF  FF2,5D7
0521A:  BCF    FF2.7
0521C:  MOVLW  00
0521E:  CALL   0F0A
05222:  TBLRD*-
05224:  TBLRD*+
05226:  MOVF   FF5,W
05228:  MOVWF  FEE
0522A:  IORLW  00
0522C:  BNZ   5224
0522E:  MOVLB  5
05230:  BTFSC  xD7.7
05232:  BSF    FF2.7
....................             displayMenu(Menus.Letra,30,0,0,2); 
05234:  MOVLW  04
05236:  MOVWF  xD8
05238:  MOVLW  17
0523A:  MOVWF  xD7
0523C:  MOVLW  1E
0523E:  MOVWF  xD9
05240:  CLRF   xDA
05242:  CLRF   xDB
05244:  MOVLW  02
05246:  MOVWF  xDC
05248:  MOVLB  0
0524A:  RCALL  4C9A
....................             strcpy(Menus.Letra,"Correcta"); 
0524C:  MOVLW  04
0524E:  MOVWF  FEA
05250:  MOVLW  17
05252:  MOVWF  FE9
05254:  MOVFF  FF2,5D7
05258:  BCF    FF2.7
0525A:  MOVLW  00
0525C:  CALL   0F2E
05260:  TBLRD*-
05262:  TBLRD*+
05264:  MOVF   FF5,W
05266:  MOVWF  FEE
05268:  IORLW  00
0526A:  BNZ   5262
0526C:  MOVLB  5
0526E:  BTFSC  xD7.7
05270:  BSF    FF2.7
....................             displayMenu(Menus.Letra,15,30,0,2); 
05272:  MOVLW  04
05274:  MOVWF  xD8
05276:  MOVLW  17
05278:  MOVWF  xD7
0527A:  MOVLW  0F
0527C:  MOVWF  xD9
0527E:  MOVLW  1E
05280:  MOVWF  xDA
05282:  CLRF   xDB
05284:  MOVLW  02
05286:  MOVWF  xDC
05288:  MOVLB  0
0528A:  RCALL  4C9A
....................             Menu=MenuPost;glcd_update();delay_ms(1000);glcd_fillScreen(OFF); 
0528C:  MOVFF  5D2,4C3
05290:  CALL   1696
05294:  MOVLW  04
05296:  MOVLB  5
05298:  MOVWF  xD7
0529A:  MOVLW  FA
0529C:  MOVWF  xE3
0529E:  MOVLB  0
052A0:  CALL   155C
052A4:  MOVLB  5
052A6:  DECFSZ xD7,F
052A8:  BRA    529A
052AA:  CLRF   xD7
052AC:  MOVLB  0
052AE:  CALL   163C
....................             Contrasena[0]=0;Contrasena[1]=0;Contrasena[2]=0;Contrasena[3]=0; 
052B2:  MOVLB  4
052B4:  CLRF   xFB
052B6:  CLRF   xFC
052B8:  CLRF   xFD
052BA:  CLRF   xFE
....................             if(MenuActual==0)tiempo_purga=1;n=0; 
052BC:  MOVLB  5
052BE:  MOVF   xD1,F
052C0:  BNZ   52C6
052C2:  MOVLB  4
052C4:  BSF    x2E.5
052C6:  MOVLB  4
052C8:  BCF    x2F.3
....................             return 1; 
052CA:  MOVLW  01
052CC:  MOVWF  01
052CE:  MOVLB  0
052D0:  BRA    5462
....................          }else{ 
052D2:  BRA    5462
052D4:  MOVLB  4
....................             glcd_fillScreen(OFF); 
052D6:  MOVLB  5
052D8:  CLRF   xD7
052DA:  MOVLB  0
052DC:  CALL   163C
....................             strcpy(Menus.Letra,"Clave"); 
052E0:  MOVLW  04
052E2:  MOVWF  FEA
052E4:  MOVLW  17
052E6:  MOVWF  FE9
052E8:  MOVFF  FF2,5D7
052EC:  BCF    FF2.7
052EE:  MOVLW  00
052F0:  CALL   0F0A
052F4:  TBLRD*-
052F6:  TBLRD*+
052F8:  MOVF   FF5,W
052FA:  MOVWF  FEE
052FC:  IORLW  00
052FE:  BNZ   52F6
05300:  MOVLB  5
05302:  BTFSC  xD7.7
05304:  BSF    FF2.7
....................             displayMenu(Menus.Letra,30,0,0,2); 
05306:  MOVLW  04
05308:  MOVWF  xD8
0530A:  MOVLW  17
0530C:  MOVWF  xD7
0530E:  MOVLW  1E
05310:  MOVWF  xD9
05312:  CLRF   xDA
05314:  CLRF   xDB
05316:  MOVLW  02
05318:  MOVWF  xDC
0531A:  MOVLB  0
0531C:  RCALL  4C9A
....................             strcpy(Menus.Letra,"Incorrecta"); 
0531E:  MOVLW  04
05320:  MOVWF  FEA
05322:  MOVLW  17
05324:  MOVWF  FE9
05326:  MOVFF  FF2,5D7
0532A:  BCF    FF2.7
0532C:  MOVLW  00
0532E:  CALL   0F56
05332:  TBLRD*-
05334:  TBLRD*+
05336:  MOVF   FF5,W
05338:  MOVWF  FEE
0533A:  IORLW  00
0533C:  BNZ   5334
0533E:  MOVLB  5
05340:  BTFSC  xD7.7
05342:  BSF    FF2.7
....................             displayMenu(Menus.Letra,0,30,0,2); 
05344:  MOVLW  04
05346:  MOVWF  xD8
05348:  MOVLW  17
0534A:  MOVWF  xD7
0534C:  CLRF   xD9
0534E:  MOVLW  1E
05350:  MOVWF  xDA
05352:  CLRF   xDB
05354:  MOVLW  02
05356:  MOVWF  xDC
05358:  MOVLB  0
0535A:  RCALL  4C9A
....................             unidad=1;glcd_update();delay_ms(1000);Contrasena[0]=0;Contrasena[1]=0;Contrasena[2]=0;Contrasena[3]=0;glcd_fillScreen(OFF); 
0535C:  MOVLW  01
0535E:  MOVLB  4
05360:  MOVWF  xC4
05362:  MOVLB  0
05364:  CALL   1696
05368:  MOVLW  04
0536A:  MOVLB  5
0536C:  MOVWF  xD7
0536E:  MOVLW  FA
05370:  MOVWF  xE3
05372:  MOVLB  0
05374:  CALL   155C
05378:  MOVLB  5
0537A:  DECFSZ xD7,F
0537C:  BRA    536E
0537E:  MOVLB  4
05380:  CLRF   xFB
05382:  CLRF   xFC
05384:  CLRF   xFD
05386:  CLRF   xFE
05388:  MOVLB  5
0538A:  CLRF   xD7
0538C:  MOVLB  0
0538E:  CALL   163C
....................             glcd_rect(0, 0, 127, 25, YES, ON);strcpy(Menus.Letra,"Clave");glcd_text57(25, 1, Menus.Letra, 3, OFF);displayContrasena(Contrasena[0],20,30,1); 
05392:  MOVLB  5
05394:  CLRF   xE8
05396:  CLRF   xE9
05398:  MOVLW  7F
0539A:  MOVWF  xEA
0539C:  MOVLW  19
0539E:  MOVWF  xEB
053A0:  MOVLW  01
053A2:  MOVWF  xEC
053A4:  MOVWF  xED
053A6:  MOVLB  0
053A8:  CALL   4966
053AC:  MOVLW  04
053AE:  MOVWF  FEA
053B0:  MOVLW  17
053B2:  MOVWF  FE9
053B4:  MOVFF  FF2,5D7
053B8:  BCF    FF2.7
053BA:  MOVLW  00
053BC:  CALL   0F0A
053C0:  TBLRD*-
053C2:  TBLRD*+
053C4:  MOVF   FF5,W
053C6:  MOVWF  FEE
053C8:  IORLW  00
053CA:  BNZ   53C2
053CC:  MOVLB  5
053CE:  BTFSC  xD7.7
053D0:  BSF    FF2.7
053D2:  MOVLW  19
053D4:  MOVWF  xE8
053D6:  MOVLW  01
053D8:  MOVWF  xE9
053DA:  MOVLW  04
053DC:  MOVWF  xEB
053DE:  MOVLW  17
053E0:  MOVWF  xEA
053E2:  MOVLW  03
053E4:  MOVWF  xEC
053E6:  CLRF   xED
053E8:  MOVLB  0
053EA:  CALL   4A28
053EE:  MOVFF  4FB,5D9
053F2:  MOVLW  14
053F4:  MOVLB  5
053F6:  MOVWF  xDA
053F8:  MOVLW  1E
053FA:  MOVWF  xDB
053FC:  MOVLW  01
053FE:  MOVWF  xDC
05400:  MOVLB  0
05402:  CALL   4BE2
....................             displayContrasena(Contrasena[1],40,30,0);displayContrasena(Contrasena[2],60,30,0);displayContrasena(Contrasena[0],80,30,0); 
05406:  MOVFF  4FC,5D9
0540A:  MOVLW  28
0540C:  MOVLB  5
0540E:  MOVWF  xDA
05410:  MOVLW  1E
05412:  MOVWF  xDB
05414:  CLRF   xDC
05416:  MOVLB  0
05418:  CALL   4BE2
0541C:  MOVFF  4FD,5D9
05420:  MOVLW  3C
05422:  MOVLB  5
05424:  MOVWF  xDA
05426:  MOVLW  1E
05428:  MOVWF  xDB
0542A:  CLRF   xDC
0542C:  MOVLB  0
0542E:  CALL   4BE2
05432:  MOVFF  4FB,5D9
05436:  MOVLW  50
05438:  MOVLB  5
0543A:  MOVWF  xDA
0543C:  MOVLW  1E
0543E:  MOVWF  xDB
05440:  CLRF   xDC
05442:  MOVLB  0
05444:  CALL   4BE2
....................             Menu=MenuAnt;glcd_fillScreen(OFF);n=0; 
05448:  MOVFF  5D0,4C3
0544C:  MOVLB  5
0544E:  CLRF   xD7
05450:  MOVLB  0
05452:  CALL   163C
05456:  MOVLB  4
05458:  BCF    x2F.3
....................             return 0; 
0545A:  MOVLW  00
0545C:  MOVWF  01
0545E:  MOVLB  0
05460:  BRA    5462
05462:  MOVLB  4
....................          } 
....................       } 
.................... } 
05464:  MOVLB  0
05466:  RETLW  00
....................  
....................  
.................... #int_EXT            // Interrupcin de encoder para control. 
.................... void ext0() {       // 6 pulsos por vuelta. 
....................    pulsos++; 
*
0145E:  MOVLB  5
01460:  INCF   xBB,F
01462:  BTFSC  FD8.2
01464:  INCF   xBC,F
....................    if(pulsos>=120){ 
01466:  MOVF   xBC,F
01468:  BNZ   1470
0146A:  MOVF   xBB,W
0146C:  SUBLW  77
0146E:  BC    1504
....................       pulsos=0; 
01470:  CLRF   xBC
01472:  CLRF   xBB
....................       imprimir=1;Lectura=1;tiemporeset++; 
01474:  MOVLB  4
01476:  BSF    x2D.6
01478:  BSF    x2F.2
0147A:  INCF   xC9,F
....................     
....................       if(flag_blower==1) 
0147C:  BTFSS  x2D.7
0147E:  BRA    1486
....................          minutos_trabajo++;  
01480:  INCF   xDB,F
01482:  BTFSC  FD8.2
01484:  INCF   xDC,F
....................    
....................       if(tiempo_purga==1 || Purga){                   
01486:  BTFSC  x2E.5
01488:  BRA    148E
0148A:  BTFSS  x2F.5
0148C:  BRA    14C6
....................          Tpurga[0]++; 
0148E:  INCF   xDF,F
....................          if(Tpurga[0]>9){ 
01490:  BTFSC  xDF.7
01492:  BRA    149E
01494:  MOVF   xDF,W
01496:  SUBLW  09
01498:  BC    149E
....................             Tpurga[0]=0; 
0149A:  CLRF   xDF
....................             Tpurga[1]++; 
0149C:  INCF   xE0,F
....................          } 
....................          if(Tpurga[1]>5){ 
0149E:  BTFSC  xE0.7
014A0:  BRA    14AC
014A2:  MOVF   xE0,W
014A4:  SUBLW  05
014A6:  BC    14AC
....................             Tpurga[1]=0; 
014A8:  CLRF   xE0
....................             Tpurga[2]++; 
014AA:  INCF   xE1,F
....................          } 
....................          if(Tpurga[2]>9){ 
014AC:  BTFSC  xE1.7
014AE:  BRA    14BA
014B0:  MOVF   xE1,W
014B2:  SUBLW  09
014B4:  BC    14BA
....................             Tpurga[2]=0; 
014B6:  CLRF   xE1
....................             Tpurga[3]++; 
014B8:  INCF   xE2,F
....................          } 
....................          if(Tpurga[3]>5){ 
014BA:  BTFSC  xE2.7
014BC:  BRA    14C6
014BE:  MOVF   xE2,W
014C0:  SUBLW  05
014C2:  BC    14C6
....................             Tpurga[3]=0; 
014C4:  CLRF   xE2
....................          } 
....................       } 
....................        
....................       if(tiempo_postpurga){ 
014C6:  BTFSS  x2F.0
014C8:  BRA    1502
....................          Tppurga[0]++; 
014CA:  INCF   xE7,F
....................          if(Tppurga[0]>9){ 
014CC:  BTFSC  xE7.7
014CE:  BRA    14DA
014D0:  MOVF   xE7,W
014D2:  SUBLW  09
014D4:  BC    14DA
....................             Tppurga[0]=0; 
014D6:  CLRF   xE7
....................             Tppurga[1]++; 
014D8:  INCF   xE8,F
....................          } 
....................          if(Tppurga[1]>5){   
014DA:  BTFSC  xE8.7
014DC:  BRA    14E8
014DE:  MOVF   xE8,W
014E0:  SUBLW  05
014E2:  BC    14E8
....................             Tppurga[1]=0; 
014E4:  CLRF   xE8
....................             Tppurga[2]++; 
014E6:  INCF   xE9,F
....................          } 
....................          if(Tppurga[2]>9){ 
014E8:  BTFSC  xE9.7
014EA:  BRA    14F6
014EC:  MOVF   xE9,W
014EE:  SUBLW  09
014F0:  BC    14F6
....................             Tppurga[2]=0; 
014F2:  CLRF   xE9
....................             Tppurga[3]++; 
014F4:  INCF   xEA,F
....................          } 
....................          if(Tppurga[3]>5){ 
014F6:  BTFSC  xEA.7
014F8:  BRA    1502
014FA:  MOVF   xEA,W
014FC:  SUBLW  05
014FE:  BC    1502
....................             Tppurga[3]=0; 
01500:  CLRF   xEA
01502:  MOVLB  5
....................          } 
....................       } 
....................    } 
....................    tiempocruce=0; 
01504:  CLRF   xC4
01506:  CLRF   xC3
....................    Cruce=ON; 
01508:  MOVLB  4
0150A:  BSF    x2F.4
....................    if(VelMotor<6){ 
0150C:  MOVLB  5
0150E:  MOVF   xC6,W
01510:  SUBLW  05
01512:  BNC   1554
....................       if(VelMotor>0 && Porcentaje<100){ 
01514:  MOVF   xC6,F
01516:  BZ    1550
01518:  MOVF   xC5,W
0151A:  SUBLW  63
0151C:  BNC   1550
....................          delay_us(retardo);       
0151E:  MOVFF  5BE,614
01522:  MOVLB  6
01524:  INCF   x14,F
01526:  DECF   x14,F
01528:  BTFSC  FD8.2
0152A:  BRA    1538
0152C:  MOVLW  FF
0152E:  MOVWF  x15
01530:  MOVLB  0
01532:  RCALL  143E
01534:  MOVLB  6
01536:  BRA    1526
01538:  MOVFF  5BD,615
0153C:  MOVLB  0
0153E:  RCALL  143E
....................          Motor_on; 
01540:  BSF    F8B.2
01542:  BCF    F94.2
....................          delay_us(100);       
01544:  MOVLW  A6
01546:  MOVWF  00
01548:  DECFSZ 00,F
0154A:  BRA    1548
0154C:  NOP   
0154E:  MOVLB  5
....................       } 
....................       Motor_off; 
01550:  BCF    F8B.2
01552:  BCF    F94.2
....................    } 
.................... } 
....................  
01554:  BCF    FF2.1
01556:  MOVLB  0
01558:  GOTO   0058
.................... void glcd_imagen(int8 x) 
.................... { 
....................    char i,j; 
....................    signed char k;  
....................       
....................    if(x==3){ 
*
05564:  MOVLB  5
05566:  MOVF   xCF,W
05568:  SUBLW  03
0556A:  BNZ   5612
....................    for( i = 0 ; i < 64 ; i ++ ) 
0556C:  CLRF   xD0
0556E:  MOVF   xD0,W
05570:  SUBLW  3F
05572:  BNC   5612
....................    {  for( j = 0 ; j < 16 ; j ++) 
05574:  CLRF   xD1
05576:  MOVF   xD1,W
05578:  SUBLW  0F
0557A:  BNC   560E
....................       {  for(k=7;k>-1;k--) 
0557C:  MOVLW  07
0557E:  MOVWF  xD2
05580:  MOVF   xD2,W
05582:  XORLW  80
05584:  SUBLW  7F
05586:  BC    560A
....................          {       
....................             if( bit_test(Bombillo[i][j] ,7-k ))  
05588:  CLRF   xD4
0558A:  MOVFF  5D0,5D3
0558E:  CLRF   xD6
05590:  MOVLW  10
05592:  MOVWF  xD5
05594:  MOVLB  0
05596:  RCALL  5542
05598:  MOVFF  02,5D4
0559C:  MOVFF  01,5D3
055A0:  MOVLB  5
055A2:  MOVF   xD1,W
055A4:  ADDWF  01,W
055A6:  MOVWF  01
055A8:  MOVLW  00
055AA:  ADDWFC 02,W
055AC:  MOVWF  03
055AE:  MOVF   01,W
055B0:  MOVFF  FF2,5D3
055B4:  BCF    FF2.7
055B6:  MOVFF  03,FF7
055BA:  MOVLB  0
055BC:  CALL   02B6
055C0:  MOVLB  5
055C2:  BTFSC  xD3.7
055C4:  BSF    FF2.7
055C6:  MOVWF  xD3
055C8:  MOVLW  07
055CA:  BSF    FD8.0
055CC:  SUBFWB xD2,W
055CE:  MOVWF  xD4
055D0:  MOVFF  5D3,00
055D4:  MOVF   xD4,W
055D6:  MOVWF  01
055D8:  BZ    55E2
055DA:  BCF    FD8.0
055DC:  RRCF   00,F
055DE:  DECFSZ 01,F
055E0:  BRA    55DA
055E2:  BTFSS  00.0
055E4:  BRA    5606
....................                glcd_pixel( j*8+k,i, ON ); 
055E6:  MOVF   xD1,W
055E8:  MULLW  08
055EA:  MOVF   FF3,W
055EC:  ADDWF  xD2,W
055EE:  MOVWF  xD3
055F0:  MOVFF  FE8,603
055F4:  MOVFF  5D0,604
055F8:  MOVLW  01
055FA:  MOVLB  6
055FC:  MOVWF  x05
055FE:  MOVLB  0
05600:  CALL   4730
05604:  MOVLB  5
....................          }   
05606:  DECF   xD2,F
05608:  BRA    5580
....................       } 
0560A:  INCF   xD1,F
0560C:  BRA    5576
....................    } 
0560E:  INCF   xD0,F
05610:  BRA    556E
....................    } 
....................     
....................    if(x==4){ 
05612:  MOVF   xCF,W
05614:  SUBLW  04
05616:  BNZ   56BE
....................    for( i = 0 ; i < 64 ; i ++ ) 
05618:  CLRF   xD0
0561A:  MOVF   xD0,W
0561C:  SUBLW  3F
0561E:  BNC   56BE
....................    {  for( j = 0 ; j < 16 ; j ++) 
05620:  CLRF   xD1
05622:  MOVF   xD1,W
05624:  SUBLW  0F
05626:  BNC   56BA
....................       {  for(k=7;k>-1;k--) 
05628:  MOVLW  07
0562A:  MOVWF  xD2
0562C:  MOVF   xD2,W
0562E:  XORLW  80
05630:  SUBLW  7F
05632:  BC    56B6
....................          {       
....................             if( bit_test(Tomai[i][j] ,7-k ))  
05634:  CLRF   xD4
05636:  MOVFF  5D0,5D3
0563A:  CLRF   xD6
0563C:  MOVLW  10
0563E:  MOVWF  xD5
05640:  MOVLB  0
05642:  RCALL  5542
05644:  MOVFF  02,5D4
05648:  MOVFF  01,5D3
0564C:  MOVLB  5
0564E:  MOVF   xD1,W
05650:  ADDWF  01,W
05652:  MOVWF  01
05654:  MOVLW  00
05656:  ADDWFC 02,W
05658:  MOVWF  03
0565A:  MOVF   01,W
0565C:  MOVFF  FF2,5D3
05660:  BCF    FF2.7
05662:  MOVFF  03,FF7
05666:  MOVLB  0
05668:  CALL   06D2
0566C:  MOVLB  5
0566E:  BTFSC  xD3.7
05670:  BSF    FF2.7
05672:  MOVWF  xD3
05674:  MOVLW  07
05676:  BSF    FD8.0
05678:  SUBFWB xD2,W
0567A:  MOVWF  xD4
0567C:  MOVFF  5D3,00
05680:  MOVF   xD4,W
05682:  MOVWF  01
05684:  BZ    568E
05686:  BCF    FD8.0
05688:  RRCF   00,F
0568A:  DECFSZ 01,F
0568C:  BRA    5686
0568E:  BTFSS  00.0
05690:  BRA    56B2
....................                glcd_pixel( j*8+k,i, ON ); 
05692:  MOVF   xD1,W
05694:  MULLW  08
05696:  MOVF   FF3,W
05698:  ADDWF  xD2,W
0569A:  MOVWF  xD3
0569C:  MOVFF  FE8,603
056A0:  MOVFF  5D0,604
056A4:  MOVLW  01
056A6:  MOVLB  6
056A8:  MOVWF  x05
056AA:  MOVLB  0
056AC:  CALL   4730
056B0:  MOVLB  5
....................          }   
056B2:  DECF   xD2,F
056B4:  BRA    562C
....................       } 
056B6:  INCF   xD1,F
056B8:  BRA    5622
....................    } 
056BA:  INCF   xD0,F
056BC:  BRA    561A
....................    } 
....................     
....................    if(x==5){ 
056BE:  MOVF   xCF,W
056C0:  SUBLW  05
056C2:  BNZ   576A
....................    for( i = 0 ; i < 64 ; i ++ ) 
056C4:  CLRF   xD0
056C6:  MOVF   xD0,W
056C8:  SUBLW  3F
056CA:  BNC   576A
....................    {  for( j = 0 ; j < 16 ; j ++) 
056CC:  CLRF   xD1
056CE:  MOVF   xD1,W
056D0:  SUBLW  0F
056D2:  BNC   5766
....................       {  for(k=7;k>-1;k--) 
056D4:  MOVLW  07
056D6:  MOVWF  xD2
056D8:  MOVF   xD2,W
056DA:  XORLW  80
056DC:  SUBLW  7F
056DE:  BC    5762
....................          {       
....................             if( bit_test(Ventilador[i][j] ,7-k ))  
056E0:  CLRF   xD4
056E2:  MOVFF  5D0,5D3
056E6:  CLRF   xD6
056E8:  MOVLW  10
056EA:  MOVWF  xD5
056EC:  MOVLB  0
056EE:  RCALL  5542
056F0:  MOVFF  02,5D4
056F4:  MOVFF  01,5D3
056F8:  MOVLB  5
056FA:  MOVF   xD1,W
056FC:  ADDWF  01,W
056FE:  MOVWF  01
05700:  MOVLW  00
05702:  ADDWFC 02,W
05704:  MOVWF  03
05706:  MOVF   01,W
05708:  MOVFF  FF2,5D3
0570C:  BCF    FF2.7
0570E:  MOVFF  03,FF7
05712:  MOVLB  0
05714:  CALL   0AEE
05718:  MOVLB  5
0571A:  BTFSC  xD3.7
0571C:  BSF    FF2.7
0571E:  MOVWF  xD3
05720:  MOVLW  07
05722:  BSF    FD8.0
05724:  SUBFWB xD2,W
05726:  MOVWF  xD4
05728:  MOVFF  5D3,00
0572C:  MOVF   xD4,W
0572E:  MOVWF  01
05730:  BZ    573A
05732:  BCF    FD8.0
05734:  RRCF   00,F
05736:  DECFSZ 01,F
05738:  BRA    5732
0573A:  BTFSS  00.0
0573C:  BRA    575E
....................                glcd_pixel( j*8+k,i, ON ); 
0573E:  MOVF   xD1,W
05740:  MULLW  08
05742:  MOVF   FF3,W
05744:  ADDWF  xD2,W
05746:  MOVWF  xD3
05748:  MOVFF  FE8,603
0574C:  MOVFF  5D0,604
05750:  MOVLW  01
05752:  MOVLB  6
05754:  MOVWF  x05
05756:  MOVLB  0
05758:  CALL   4730
0575C:  MOVLB  5
....................          }   
0575E:  DECF   xD2,F
05760:  BRA    56D8
....................       } 
05762:  INCF   xD1,F
05764:  BRA    56CE
....................    } 
05766:  INCF   xD0,F
05768:  BRA    56C6
....................    } 
.................... } 
0576A:  MOVLB  0
0576C:  RETLW  00
....................  
....................  
.................... Float LeerFlujoInFlow(int media) 
.................... { 
....................     InFlow_adc=sensores(1); 
*
04066:  MOVLW  01
04068:  MOVLB  5
0406A:  MOVWF  xE0
0406C:  MOVLB  0
0406E:  CALL   2D9A
04072:  MOVFF  02,4D2
04076:  MOVFF  01,4D1
....................        
....................     if(negativo==10) 
0407A:  MOVLB  4
0407C:  MOVF   xC6,W
0407E:  SUBLW  0A
04080:  BNZ   40C8
....................     { 
....................       x_uno=Inflow_adc+Diferencia; 
04082:  MOVFF  4D2,605
04086:  MOVFF  4D1,604
0408A:  MOVLB  0
0408C:  CALL   17F6
04090:  BCF    FD8.1
04092:  MOVFF  03,607
04096:  MOVFF  02,606
0409A:  MOVFF  01,605
0409E:  MOVFF  00,604
040A2:  MOVFF  512,60B
040A6:  MOVFF  511,60A
040AA:  MOVFF  510,609
040AE:  MOVFF  50F,608
040B2:  CALL   198A
040B6:  MOVFF  03,51A
040BA:  MOVFF  02,519
040BE:  MOVFF  01,518
040C2:  MOVFF  00,517
040C6:  MOVLB  4
....................     } 
....................     if(negativo==20) 
040C8:  MOVF   xC6,W
040CA:  SUBLW  14
040CC:  BNZ   4112
....................     { 
....................       x_uno=Inflow_adc-Diferencia; 
040CE:  MOVFF  4D2,605
040D2:  MOVFF  4D1,604
040D6:  MOVLB  0
040D8:  CALL   17F6
040DC:  BSF    FD8.1
040DE:  MOVFF  03,607
040E2:  MOVFF  02,606
040E6:  MOVFF  01,605
040EA:  MOVFF  00,604
040EE:  MOVFF  512,60B
040F2:  MOVFF  511,60A
040F6:  MOVFF  510,609
040FA:  MOVFF  50F,608
040FE:  CALL   198A
04102:  MOVFF  03,51A
04106:  MOVFF  02,519
0410A:  MOVFF  01,518
0410E:  MOVFF  00,517
....................     } 
....................     Velocidad=(pow(x_uno,3)*a)+(pow(x_uno,2)*b)+(x_uno*c)+(d); 
04112:  MOVFF  51A,5D7
04116:  MOVFF  519,5D6
0411A:  MOVFF  518,5D5
0411E:  MOVFF  517,5D4
04122:  MOVLB  5
04124:  CLRF   xDB
04126:  CLRF   xDA
04128:  MOVLW  40
0412A:  MOVWF  xD9
0412C:  MOVLW  80
0412E:  MOVWF  xD8
04130:  MOVLB  0
04132:  RCALL  3D5A
04134:  MOVFF  00,5D0
04138:  MOVFF  01,5D1
0413C:  MOVFF  02,5D2
04140:  MOVFF  03,5D3
04144:  MOVFF  03,603
04148:  MOVFF  02,602
0414C:  MOVFF  01,601
04150:  MOVFF  00,600
04154:  MOVFF  536,607
04158:  MOVFF  535,606
0415C:  MOVFF  534,605
04160:  MOVFF  533,604
04164:  CALL   2E14
04168:  MOVFF  00,5D0
0416C:  MOVFF  01,5D1
04170:  MOVFF  02,5D2
04174:  MOVFF  03,5D3
04178:  MOVFF  51A,5D7
0417C:  MOVFF  519,5D6
04180:  MOVFF  518,5D5
04184:  MOVFF  517,5D4
04188:  MOVLB  5
0418A:  CLRF   xDB
0418C:  CLRF   xDA
0418E:  CLRF   xD9
04190:  MOVLW  80
04192:  MOVWF  xD8
04194:  MOVLB  0
04196:  RCALL  3D5A
04198:  MOVFF  00,5D4
0419C:  MOVFF  01,5D5
041A0:  MOVFF  02,5D6
041A4:  MOVFF  03,5D7
041A8:  MOVFF  03,603
041AC:  MOVFF  02,602
041B0:  MOVFF  01,601
041B4:  MOVFF  00,600
041B8:  MOVFF  53A,607
041BC:  MOVFF  539,606
041C0:  MOVFF  538,605
041C4:  MOVFF  537,604
041C8:  CALL   2E14
041CC:  MOVFF  FEA,5D5
041D0:  MOVFF  FE9,5D4
041D4:  BCF    FD8.1
041D6:  MOVFF  5D3,607
041DA:  MOVFF  5D2,606
041DE:  MOVFF  5D1,605
041E2:  MOVFF  5D0,604
041E6:  MOVFF  03,60B
041EA:  MOVFF  02,60A
041EE:  MOVFF  01,609
041F2:  MOVFF  00,608
041F6:  CALL   198A
041FA:  MOVFF  5D5,FEA
041FE:  MOVFF  5D4,FE9
04202:  MOVFF  00,5D0
04206:  MOVFF  01,5D1
0420A:  MOVFF  02,5D2
0420E:  MOVFF  03,5D3
04212:  MOVFF  51A,603
04216:  MOVFF  519,602
0421A:  MOVFF  518,601
0421E:  MOVFF  517,600
04222:  MOVFF  53E,607
04226:  MOVFF  53D,606
0422A:  MOVFF  53C,605
0422E:  MOVFF  53B,604
04232:  CALL   2E14
04236:  MOVFF  FEA,5D7
0423A:  MOVFF  FE9,5D6
0423E:  BCF    FD8.1
04240:  MOVFF  5D3,607
04244:  MOVFF  5D2,606
04248:  MOVFF  5D1,605
0424C:  MOVFF  5D0,604
04250:  MOVFF  03,60B
04254:  MOVFF  02,60A
04258:  MOVFF  01,609
0425C:  MOVFF  00,608
04260:  CALL   198A
04264:  MOVFF  5D7,FEA
04268:  MOVFF  5D6,FE9
0426C:  MOVFF  00,5D0
04270:  MOVFF  01,5D1
04274:  MOVFF  02,5D2
04278:  MOVFF  03,5D3
0427C:  MOVFF  FEA,5D9
04280:  MOVFF  FE9,5D8
04284:  BCF    FD8.1
04286:  MOVFF  03,607
0428A:  MOVFF  02,606
0428E:  MOVFF  01,605
04292:  MOVFF  00,604
04296:  MOVFF  542,60B
0429A:  MOVFF  541,60A
0429E:  MOVFF  540,609
042A2:  MOVFF  53F,608
042A6:  CALL   198A
042AA:  MOVFF  5D9,FEA
042AE:  MOVFF  5D8,FE9
042B2:  MOVFF  03,516
042B6:  MOVFF  02,515
042BA:  MOVFF  01,514
042BE:  MOVFF  00,513
....................     //Velocidad=Velocidad*correccion;//Ajuste de Temperatura 
....................      
....................     if(Velocidad<0.0) 
042C2:  MOVFF  516,603
042C6:  MOVFF  515,602
042CA:  MOVFF  514,601
042CE:  MOVFF  513,600
042D2:  MOVLB  6
042D4:  CLRF   x07
042D6:  CLRF   x06
042D8:  CLRF   x05
042DA:  CLRF   x04
042DC:  MOVLB  0
042DE:  CALL   2390
042E2:  BNC   42EE
....................      {Velocidad=0.0;} 
042E4:  MOVLB  5
042E6:  CLRF   x16
042E8:  CLRF   x15
042EA:  CLRF   x14
042EC:  CLRF   x13
....................       
....................      if(l>=media) 
042EE:  MOVLB  5
042F0:  MOVF   xCF,W
042F2:  MOVLB  4
042F4:  SUBWF  xCC,W
042F6:  BNC   42FA
....................        {l=0;} 
042F8:  CLRF   xCC
....................       
....................      promedio[l]=Velocidad;l++; 
042FA:  MOVF   xCC,W
042FC:  MULLW  04
042FE:  MOVF   FF3,W
04300:  CLRF   03
04302:  ADDLW  43
04304:  MOVWF  FE9
04306:  MOVLW  05
04308:  ADDWFC 03,W
0430A:  MOVWF  FEA
0430C:  MOVFF  513,FEF
04310:  MOVFF  514,FEC
04314:  MOVFF  515,FEC
04318:  MOVFF  516,FEC
0431C:  INCF   xCC,F
....................      Flujo=0; 
0431E:  MOVLB  5
04320:  CLRF   xA6
04322:  CLRF   xA5
04324:  CLRF   xA4
04326:  CLRF   xA3
....................         for(h=0;h<=(media-1);h++) 
04328:  MOVLB  4
0432A:  CLRF   xCD
0432C:  MOVLW  01
0432E:  MOVLB  5
04330:  SUBWF  xCF,W
04332:  MOVLB  4
04334:  SUBWF  xCD,W
04336:  BZ    433A
04338:  BC    43AA
....................         { 
....................            Flujo+=promedio[h]; 
0433A:  MOVF   xCD,W
0433C:  MULLW  04
0433E:  MOVF   FF3,W
04340:  CLRF   03
04342:  ADDLW  43
04344:  MOVWF  FE9
04346:  MOVLW  05
04348:  ADDWFC 03,W
0434A:  MOVWF  FEA
0434C:  MOVFF  FEF,00
04350:  MOVFF  FEC,01
04354:  MOVFF  FEC,02
04358:  MOVFF  FEC,03
0435C:  MOVFF  FEA,5D1
04360:  MOVFF  FE9,5D0
04364:  BCF    FD8.1
04366:  MOVFF  5A6,607
0436A:  MOVFF  5A5,606
0436E:  MOVFF  5A4,605
04372:  MOVFF  5A3,604
04376:  MOVFF  03,60B
0437A:  MOVFF  02,60A
0437E:  MOVFF  01,609
04382:  MOVFF  00,608
04386:  MOVLB  0
04388:  CALL   198A
0438C:  MOVFF  5D1,FEA
04390:  MOVFF  5D0,FE9
04394:  MOVFF  03,5A6
04398:  MOVFF  02,5A5
0439C:  MOVFF  01,5A4
043A0:  MOVFF  00,5A3
....................         }  
043A4:  MOVLB  4
043A6:  INCF   xCD,F
043A8:  BRA    432C
....................            Flujo=(Flujo/media)*Ajuste1;  
043AA:  MOVLB  6
043AC:  CLRF   x05
043AE:  MOVFF  5CF,604
043B2:  MOVLB  0
043B4:  CALL   17F6
043B8:  MOVFF  5A6,603
043BC:  MOVFF  5A5,602
043C0:  MOVFF  5A4,601
043C4:  MOVFF  5A3,600
043C8:  MOVFF  03,607
043CC:  MOVFF  02,606
043D0:  MOVFF  01,605
043D4:  MOVFF  00,604
043D8:  CALL   182C
043DC:  MOVFF  00,5D0
043E0:  MOVFF  01,5D1
043E4:  MOVFF  02,5D2
043E8:  MOVFF  03,5D3
043EC:  MOVFF  03,603
043F0:  MOVFF  02,602
043F4:  MOVFF  01,601
043F8:  MOVFF  00,600
043FC:  MOVFF  526,607
04400:  MOVFF  525,606
04404:  MOVFF  524,605
04408:  MOVFF  523,604
0440C:  CALL   2E14
04410:  MOVFF  03,5A6
04414:  MOVFF  02,5A5
04418:  MOVFF  01,5A4
0441C:  MOVFF  00,5A3
....................            return Flujo; 
04420:  MOVFF  5A3,00
04424:  MOVFF  5A4,01
04428:  MOVFF  5A5,02
0442C:  MOVFF  5A6,03
.................... } 
04430:  GOTO   605E (RETURN)
....................  
.................... void main(){ 
*
05AE8:  CLRF   FF8
05AEA:  BCF    FD0.7
05AEC:  BSF    07.7
05AEE:  CLRF   FEA
05AF0:  CLRF   FE9
05AF2:  MOVLB  4
05AF4:  BCF    x2D.0
05AF6:  BCF    x2D.1
05AF8:  BCF    x2D.2
05AFA:  BCF    x2D.3
05AFC:  BCF    x2D.4
05AFE:  BCF    x2D.5
05B00:  BCF    x2D.6
05B02:  BCF    x2D.7
05B04:  BCF    x2E.0
05B06:  BCF    x2E.1
05B08:  BCF    x2E.2
05B0A:  BCF    x2E.3
05B0C:  BCF    x2E.4
05B0E:  BCF    x2E.5
05B10:  BCF    x2E.6
05B12:  BCF    x2E.7
05B14:  BCF    x2F.0
05B16:  BCF    x2F.1
05B18:  BCF    x2F.2
05B1A:  BCF    x2F.3
05B1C:  MOVLW  C8
05B1E:  MOVWF  xC3
05B20:  MOVLW  01
05B22:  MOVWF  xC4
05B24:  MOVWF  xC5
05B26:  MOVLW  0A
05B28:  MOVWF  xC6
05B2A:  CLRF   xC7
05B2C:  CLRF   xC8
05B2E:  CLRF   xC9
05B30:  CLRF   xCA
05B32:  CLRF   xCB
05B34:  CLRF   xCC
05B36:  CLRF   xCD
05B38:  CLRF   xCE
05B3A:  CLRF   xCF
05B3C:  MOVWF  xD0
05B3E:  CLRF   xD2
05B40:  CLRF   xD1
05B42:  CLRF   xD4
05B44:  CLRF   xD3
05B46:  CLRF   xD6
05B48:  CLRF   xD5
05B4A:  CLRF   xD8
05B4C:  CLRF   xD7
05B4E:  CLRF   xDA
05B50:  CLRF   xD9
05B52:  CLRF   xDC
05B54:  CLRF   xDB
05B56:  CLRF   xDE
05B58:  CLRF   xDD
05B5A:  MOVLB  5
05B5C:  CLRF   x06
05B5E:  CLRF   x05
05B60:  CLRF   x04
05B62:  CLRF   x03
05B64:  CLRF   x0A
05B66:  CLRF   x09
05B68:  CLRF   x08
05B6A:  CLRF   x07
05B6C:  CLRF   x0E
05B6E:  CLRF   x0D
05B70:  CLRF   x0C
05B72:  CLRF   x0B
05B74:  CLRF   x12
05B76:  CLRF   x11
05B78:  CLRF   x10
05B7A:  CLRF   x0F
05B7C:  CLRF   x16
05B7E:  CLRF   x15
05B80:  CLRF   x14
05B82:  CLRF   x13
05B84:  CLRF   x1A
05B86:  CLRF   x19
05B88:  CLRF   x18
05B8A:  CLRF   x17
05B8C:  CLRF   x1E
05B8E:  CLRF   x1D
05B90:  CLRF   x1C
05B92:  CLRF   x1B
05B94:  CLRF   x22
05B96:  CLRF   x21
05B98:  CLRF   x20
05B9A:  CLRF   x1F
05B9C:  CLRF   x26
05B9E:  CLRF   x25
05BA0:  CLRF   x24
05BA2:  CLRF   x23
05BA4:  CLRF   x2A
05BA6:  CLRF   x29
05BA8:  CLRF   x28
05BAA:  CLRF   x27
05BAC:  CLRF   x2E
05BAE:  CLRF   x2D
05BB0:  CLRF   x2C
05BB2:  CLRF   x2B
05BB4:  CLRF   x32
05BB6:  CLRF   x31
05BB8:  CLRF   x30
05BBA:  CLRF   x2F
05BBC:  MOVLW  29
05BBE:  MOVWF  x36
05BC0:  MOVLW  B6
05BC2:  MOVWF  x35
05BC4:  MOVLW  20
05BC6:  MOVWF  x34
05BC8:  MOVLW  6E
05BCA:  MOVWF  x33
05BCC:  MOVLW  EE
05BCE:  MOVWF  x3A
05BD0:  MOVLW  7D
05BD2:  MOVWF  x39
05BD4:  MOVLW  EE
05BD6:  MOVWF  x38
05BD8:  MOVLW  77
05BDA:  MOVWF  x37
05BDC:  MOVLW  ED
05BDE:  MOVWF  x3E
05BE0:  MOVLW  47
05BE2:  MOVWF  x3D
05BE4:  MOVLW  6D
05BE6:  MOVWF  x3C
05BE8:  MOVLW  7F
05BEA:  MOVWF  x3B
05BEC:  MOVLW  1A
05BEE:  MOVWF  x42
05BF0:  MOVLW  D1
05BF2:  MOVWF  x41
05BF4:  MOVLW  9C
05BF6:  MOVWF  x40
05BF8:  MOVLW  86
05BFA:  MOVWF  x3F
05BFC:  CLRF   xA6
05BFE:  CLRF   xA5
05C00:  CLRF   xA4
05C02:  CLRF   xA3
05C04:  CLRF   xAA
05C06:  CLRF   xA9
05C08:  MOVLW  50
05C0A:  MOVWF  xA8
05C0C:  MOVLW  86
05C0E:  MOVWF  xA7
05C10:  CLRF   xAE
05C12:  CLRF   xAD
05C14:  CLRF   xAC
05C16:  CLRF   xAB
05C18:  CLRF   xB2
05C1A:  CLRF   xB1
05C1C:  CLRF   xB0
05C1E:  CLRF   xAF
05C20:  CLRF   xB6
05C22:  CLRF   xB5
05C24:  CLRF   xB4
05C26:  CLRF   xB3
05C28:  CLRF   xBA
05C2A:  CLRF   xB9
05C2C:  CLRF   xB8
05C2E:  MOVLW  80
05C30:  MOVWF  xB7
05C32:  CLRF   xBC
05C34:  CLRF   xBB
05C36:  CLRF   xBE
05C38:  CLRF   xBD
05C3A:  CLRF   xBF
05C3C:  CLRF   xC0
05C3E:  CLRF   xC1
05C40:  CLRF   xC2
05C42:  MOVLB  4
05C44:  BCF    x2F.4
05C46:  BCF    x2F.5
05C48:  BCF    x2F.6
05C4A:  MOVLB  5
05C4C:  CLRF   xC4
05C4E:  CLRF   xC3
05C50:  CLRF   xC5
05C52:  CLRF   xC6
05C54:  CLRF   xCA
05C56:  CLRF   xC9
05C58:  CLRF   xC8
05C5A:  CLRF   xC7
05C5C:  CLRF   xCE
05C5E:  CLRF   xCD
05C60:  CLRF   xCC
05C62:  CLRF   xCB
05C64:  MOVF   FC1,W
05C66:  ANDLW  C0
05C68:  IORLW  0F
05C6A:  MOVWF  FC1
05C6C:  MOVLW  07
05C6E:  MOVWF  FB4
05C70:  MOVLB  4
05C72:  CLRF   x2B
05C74:  CLRF   x2C
05C76:  MOVLW  4A
05C78:  MOVWF  x30
05C7A:  MOVLW  50
05C7C:  MOVWF  x31
05C7E:  MOVLW  20
05C80:  MOVWF  x32
05C82:  MOVLW  49
05C84:  MOVWF  x33
05C86:  MOVLW  6E
05C88:  MOVWF  x34
05C8A:  MOVLW  67
05C8C:  MOVWF  x35
05C8E:  MOVLW  6C
05C90:  MOVWF  x36
05C92:  MOVLW  6F
05C94:  MOVWF  x37
05C96:  MOVLW  62
05C98:  MOVWF  x38
05C9A:  MOVLW  61
05C9C:  MOVWF  x39
05C9E:  MOVLW  6C
05CA0:  MOVWF  x3A
05CA2:  CLRF   x3B
05CA4:  MOVLW  20
05CA6:  MOVWF  x3C
05CA8:  MOVWF  x3D
05CAA:  MOVWF  x3E
05CAC:  MOVWF  x3F
05CAE:  MOVWF  x40
05CB0:  MOVWF  x41
05CB2:  MOVLW  43
05CB4:  MOVWF  x42
05CB6:  MOVLW  61
05CB8:  MOVWF  x43
05CBA:  MOVLW  62
05CBC:  MOVWF  x44
05CBE:  MOVLW  69
05CC0:  MOVWF  x45
05CC2:  MOVLW  6E
05CC4:  MOVWF  x46
05CC6:  MOVLW  61
05CC8:  MOVWF  x47
05CCA:  CLRF   x48
05CCC:  MOVLW  3A
05CCE:  MOVWF  x49
05CD0:  CLRF   x4A
05CD2:  MOVLW  55
05CD4:  MOVWF  x4B
05CD6:  MOVLW  56
05CD8:  MOVWF  x4C
05CDA:  CLRF   x4D
05CDC:  MOVLW  45
05CDE:  MOVWF  x4E
05CE0:  MOVLW  78
05CE2:  MOVWF  x4F
05CE4:  MOVLW  74
05CE6:  MOVWF  x50
05CE8:  MOVLW  72
05CEA:  MOVWF  x51
05CEC:  MOVLW  61
05CEE:  MOVWF  x52
05CF0:  MOVLW  63
05CF2:  MOVWF  x53
05CF4:  MOVLW  74
05CF6:  MOVWF  x54
05CF8:  MOVLW  6F
05CFA:  MOVWF  x55
05CFC:  MOVLW  72
05CFE:  MOVWF  x56
05D00:  MOVLW  61
05D02:  MOVWF  x57
05D04:  CLRF   x58
05D06:  MOVLW  54
05D08:  MOVWF  x59
05D0A:  MOVLW  69
05D0C:  MOVWF  x5A
05D0E:  MOVLW  65
05D10:  MOVWF  x5B
05D12:  MOVLW  6D
05D14:  MOVWF  x5C
05D16:  MOVLW  70
05D18:  MOVWF  x5D
05D1A:  MOVLW  6F
05D1C:  MOVWF  x5E
05D1E:  MOVLW  20
05D20:  MOVWF  x5F
05D22:  MOVLW  64
05D24:  MOVWF  x60
05D26:  MOVLW  65
05D28:  MOVWF  x61
05D2A:  MOVLW  20
05D2C:  MOVWF  x62
05D2E:  MOVLW  50
05D30:  MOVWF  x63
05D32:  MOVLW  75
05D34:  MOVWF  x64
05D36:  MOVLW  72
05D38:  MOVWF  x65
05D3A:  MOVLW  67
05D3C:  MOVWF  x66
05D3E:  MOVLW  61
05D40:  MOVWF  x67
05D42:  CLRF   x68
05D44:  MOVLW  56
05D46:  MOVWF  x69
05D48:  MOVLW  65
05D4A:  MOVWF  x6A
05D4C:  MOVLW  6C
05D4E:  MOVWF  x6B
05D50:  MOVLW  3A
05D52:  MOVWF  x6C
05D54:  CLRF   x6D
05D56:  MOVLW  54
05D58:  MOVWF  x6E
05D5A:  MOVLW  65
05D5C:  MOVWF  x6F
05D5E:  MOVLW  6D
05D60:  MOVWF  x70
05D62:  MOVLW  70
05D64:  MOVWF  x71
05D66:  MOVLW  65
05D68:  MOVWF  x72
05D6A:  MOVLW  72
05D6C:  MOVWF  x73
05D6E:  MOVLW  61
05D70:  MOVWF  x74
05D72:  MOVLW  74
05D74:  MOVWF  x75
05D76:  MOVLW  75
05D78:  MOVWF  x76
05D7A:  MOVLW  72
05D7C:  MOVWF  x77
05D7E:  MOVLW  61
05D80:  MOVWF  x78
05D82:  CLRF   x79
05D84:  MOVLW  46
05D86:  MOVWF  x7A
05D88:  MOVLW  61
05D8A:  MOVWF  x7B
05D8C:  MOVLW  62
05D8E:  MOVWF  x7C
05D90:  MOVLW  72
05D92:  MOVWF  x7D
05D94:  MOVLW  69
05D96:  MOVWF  x7E
05D98:  MOVLW  63
05D9A:  MOVWF  x7F
05D9C:  MOVLW  61
05D9E:  MOVWF  x80
05DA0:  MOVLW  3A
05DA2:  MOVWF  x81
05DA4:  MOVLW  32
05DA6:  MOVWF  x82
05DA8:  MOVLW  30
05DAA:  MOVWF  x83
05DAC:  MOVLW  38
05DAE:  MOVWF  x84
05DB0:  MOVLW  2E
05DB2:  MOVWF  x85
05DB4:  MOVLW  30
05DB6:  MOVWF  x86
05DB8:  CLRF   x87
05DBA:  MOVLW  41
05DBC:  MOVWF  x88
05DBE:  MOVLW  63
05DC0:  MOVWF  x89
05DC2:  MOVLW  74
05DC4:  MOVWF  x8A
05DC6:  MOVLW  75
05DC8:  MOVWF  x8B
05DCA:  MOVLW  61
05DCC:  MOVWF  x8C
05DCE:  MOVLW  6C
05DD0:  MOVWF  x8D
05DD2:  MOVLW  3A
05DD4:  MOVWF  x8E
05DD6:  CLRF   x8F
05DD8:  MOVLW  41
05DDA:  MOVWF  x90
05DDC:  MOVLW  6A
05DDE:  MOVWF  x91
05DE0:  MOVLW  75
05DE2:  MOVWF  x92
05DE4:  MOVLW  73
05DE6:  MOVWF  x93
05DE8:  MOVLW  74
05DEA:  MOVWF  x94
05DEC:  MOVLW  65
05DEE:  MOVWF  x95
05DF0:  MOVLW  3A
05DF2:  MOVWF  x96
05DF4:  CLRF   x97
05DF6:  MOVLW  54
05DF8:  MOVWF  x98
05DFA:  MOVLW  2E
05DFC:  MOVWF  x99
05DFE:  MOVLW  20
05E00:  MOVWF  x9A
05E02:  MOVLW  46
05E04:  MOVWF  x9B
05E06:  MOVLW  69
05E08:  MOVWF  x9C
05E0A:  MOVLW  6C
05E0C:  MOVWF  x9D
05E0E:  MOVLW  74
05E10:  MOVWF  x9E
05E12:  MOVLW  72
05E14:  MOVWF  x9F
05E16:  MOVLW  6F
05E18:  MOVWF  xA0
05E1A:  MOVLW  3A
05E1C:  MOVWF  xA1
05E1E:  CLRF   xA2
05E20:  MOVLW  46
05E22:  MOVWF  xA3
05E24:  MOVLW  61
05E26:  MOVWF  xA4
05E28:  MOVLW  62
05E2A:  MOVWF  xA5
05E2C:  MOVLW  72
05E2E:  MOVWF  xA6
05E30:  MOVLW  69
05E32:  MOVWF  xA7
05E34:  MOVLW  63
05E36:  MOVWF  xA8
05E38:  MOVLW  61
05E3A:  MOVWF  xA9
05E3C:  MOVLW  3A
05E3E:  MOVWF  xAA
05E40:  MOVLW  32
05E42:  MOVWF  xAB
05E44:  MOVLW  33
05E46:  MOVWF  xAC
05E48:  MOVLW  35
05E4A:  MOVWF  xAD
05E4C:  MOVLW  2E
05E4E:  MOVWF  xAE
05E50:  MOVLW  30
05E52:  MOVWF  xAF
05E54:  CLRF   xB0
05E56:  MOVLW  21
05E58:  MOVWF  xB1
05E5A:  MOVLW  46
05E5C:  MOVWF  xB2
05E5E:  MOVLW  69
05E60:  MOVWF  xB3
05E62:  MOVLW  6C
05E64:  MOVWF  xB4
05E66:  MOVLW  74
05E68:  MOVWF  xB5
05E6A:  MOVLW  72
05E6C:  MOVWF  xB6
05E6E:  MOVLW  6F
05E70:  MOVWF  xB7
05E72:  MOVLW  20
05E74:  MOVWF  xB8
05E76:  MOVLW  53
05E78:  MOVWF  xB9
05E7A:  MOVLW  61
05E7C:  MOVWF  xBA
05E7E:  MOVLW  74
05E80:  MOVWF  xBB
05E82:  MOVLW  75
05E84:  MOVWF  xBC
05E86:  MOVLW  72
05E88:  MOVWF  xBD
05E8A:  MOVLW  61
05E8C:  MOVWF  xBE
05E8E:  MOVLW  64
05E90:  MOVWF  xBF
05E92:  MOVLW  6F
05E94:  MOVWF  xC0
05E96:  MOVLW  21
05E98:  MOVWF  xC1
05E9A:  CLRF   xC2
05E9C:  CLRF   xDF
05E9E:  CLRF   xE0
05EA0:  CLRF   xE1
05EA2:  CLRF   xE2
05EA4:  MOVLW  09
05EA6:  MOVWF  xE3
05EA8:  CLRF   xE4
05EAA:  CLRF   xE5
05EAC:  CLRF   xE6
05EAE:  CLRF   xE7
05EB0:  CLRF   xE8
05EB2:  CLRF   xE9
05EB4:  CLRF   xEA
05EB6:  MOVWF  xEB
05EB8:  CLRF   xEC
05EBA:  CLRF   xED
05EBC:  CLRF   xEE
05EBE:  CLRF   xEF
05EC0:  CLRF   xF0
05EC2:  CLRF   xF1
05EC4:  CLRF   xF2
05EC6:  CLRF   xF3
05EC8:  CLRF   xF4
05ECA:  CLRF   xF5
05ECC:  CLRF   xF6
05ECE:  CLRF   xF7
05ED0:  CLRF   xF8
05ED2:  CLRF   xF9
05ED4:  CLRF   xFA
05ED6:  CLRF   xFB
05ED8:  CLRF   xFC
05EDA:  CLRF   xFD
05EDC:  CLRF   xFE
05EDE:  CLRF   xFF
05EE0:  MOVLB  5
05EE2:  CLRF   x00
05EE4:  CLRF   x01
05EE6:  CLRF   x02
05EE8:  CLRF   x43
05EEA:  CLRF   x44
05EEC:  CLRF   x45
05EEE:  CLRF   x46
05EF0:  CLRF   x47
05EF2:  CLRF   x48
05EF4:  CLRF   x49
05EF6:  CLRF   x4A
05EF8:  CLRF   x4B
05EFA:  CLRF   x4C
05EFC:  CLRF   x4D
05EFE:  CLRF   x4E
05F00:  CLRF   x4F
05F02:  CLRF   x50
05F04:  CLRF   x51
05F06:  CLRF   x52
05F08:  CLRF   x53
05F0A:  CLRF   x54
05F0C:  CLRF   x55
05F0E:  CLRF   x56
05F10:  CLRF   x57
05F12:  CLRF   x58
05F14:  CLRF   x59
05F16:  CLRF   x5A
05F18:  CLRF   x5B
05F1A:  CLRF   x5C
05F1C:  CLRF   x5D
05F1E:  CLRF   x5E
05F20:  CLRF   x5F
05F22:  CLRF   x60
05F24:  CLRF   x61
05F26:  CLRF   x62
05F28:  CLRF   x63
05F2A:  CLRF   x64
05F2C:  CLRF   x65
05F2E:  CLRF   x66
05F30:  CLRF   x67
05F32:  CLRF   x68
05F34:  CLRF   x69
05F36:  CLRF   x6A
05F38:  CLRF   x6B
05F3A:  CLRF   x6C
05F3C:  CLRF   x6D
05F3E:  CLRF   x6E
05F40:  CLRF   x6F
05F42:  CLRF   x70
05F44:  CLRF   x71
05F46:  CLRF   x72
05F48:  CLRF   x73
05F4A:  CLRF   x74
05F4C:  CLRF   x75
05F4E:  CLRF   x76
05F50:  CLRF   x77
05F52:  CLRF   x78
05F54:  CLRF   x79
05F56:  CLRF   x7A
05F58:  CLRF   x7B
05F5A:  CLRF   x7C
05F5C:  CLRF   x7D
05F5E:  CLRF   x7E
05F60:  CLRF   x7F
05F62:  CLRF   x80
05F64:  CLRF   x81
05F66:  CLRF   x82
05F68:  CLRF   x83
05F6A:  CLRF   x84
05F6C:  CLRF   x85
05F6E:  CLRF   x86
05F70:  CLRF   x87
05F72:  CLRF   x88
05F74:  CLRF   x89
05F76:  CLRF   x8A
05F78:  CLRF   x8B
05F7A:  CLRF   x8C
05F7C:  CLRF   x8D
05F7E:  CLRF   x8E
05F80:  CLRF   x8F
05F82:  CLRF   x90
05F84:  CLRF   x91
05F86:  CLRF   x92
05F88:  CLRF   x93
05F8A:  CLRF   x94
05F8C:  CLRF   x95
05F8E:  CLRF   x96
05F90:  CLRF   x97
05F92:  CLRF   x98
05F94:  CLRF   x99
05F96:  CLRF   x9A
05F98:  CLRF   x9B
05F9A:  CLRF   x9C
05F9C:  CLRF   x9D
05F9E:  CLRF   x9E
05FA0:  CLRF   x9F
05FA2:  CLRF   xA0
05FA4:  CLRF   xA1
05FA6:  CLRF   xA2
....................    delay_ms(1000); 
05FA8:  MOVLW  04
05FAA:  MOVWF  xCF
05FAC:  MOVLW  FA
05FAE:  MOVWF  xE3
05FB0:  MOVLB  0
05FB2:  CALL   155C
05FB6:  MOVLB  5
05FB8:  DECFSZ xCF,F
05FBA:  BRA    5FAC
....................    Cruce=OFF; 
05FBC:  MOVLB  4
05FBE:  BCF    x2F.4
....................    VelocidadMotor(0); 
05FC0:  MOVLB  5
05FC2:  CLRF   xCF
05FC4:  MOVLB  0
05FC6:  CALL   1584
....................    Tcruce2=83; 
05FCA:  MOVLB  5
05FCC:  CLRF   xCE
05FCE:  CLRF   xCD
05FD0:  MOVLW  26
05FD2:  MOVWF  xCC
05FD4:  MOVLW  85
05FD6:  MOVWF  xCB
....................    Tcruce=8300; 
05FD8:  CLRF   xCA
05FDA:  MOVLW  B0
05FDC:  MOVWF  xC9
05FDE:  MOVLW  01
05FE0:  MOVWF  xC8
05FE2:  MOVLW  8C
05FE4:  MOVWF  xC7
....................    Motor_off; 
05FE6:  BCF    F8B.2
05FE8:  BCF    F94.2
....................    //setup_timer_1(T1_INTERNAL|T1_DIV_BY_1); 
....................    //enable_interrupts(INT_TIMER1); 
....................    enable_interrupts(INT_EXT_L2H); 
05FEA:  BSF    FF2.4
05FEC:  BSF    FF1.6
....................    setup_adc_ports(AN0_TO_AN1); 
05FEE:  MOVF   FC1,W
05FF0:  ANDLW  C0
05FF2:  IORLW  0D
05FF4:  MOVWF  FC1
....................    setup_adc(ADC_CLOCK_DIV_32 ); 
05FF6:  MOVF   FC0,W
05FF8:  ANDLW  C0
05FFA:  IORLW  02
05FFC:  MOVWF  FC0
05FFE:  BSF    FC0.7
06000:  BSF    FC2.0
....................    enable_interrupts(global);   
06002:  MOVLW  C0
06004:  IORWF  FF2,F
....................    VelocidadMotor(0); 
06006:  CLRF   xCF
06008:  MOVLB  0
0600A:  CALL   1584
....................    Motor_off; 
0600E:  BCF    F8B.2
06010:  BCF    F94.2
.................... //-------Inicio de Cabina-------------------------------------------------------------------------// 
....................    //Display_on; 
....................    //glcd_init(ON);             //Inicializa la glcd 
....................    //glcd_fillScreen(OFF);      //Limpia la pantalla 
....................    //glcd_text57(0, 0, JP, 2, ON);glcd_text57(5, 20, Cabina, 1, ON);glcd_text57(10, 40, Clase, 2, ON);              
....................    //glcd_update(); 
....................    //delay_ms(3000); 
....................                         
....................    //glcd_filScreen(OFF);      //Limpia la pantalla 
....................    glcd_init(ON); 
06012:  MOVLW  01
06014:  MOVLB  5
06016:  MOVWF  xCF
06018:  MOVLB  0
0601A:  CALL   174E
....................    Menu=200; 
0601E:  MOVLW  C8
06020:  MOVLB  4
06022:  MOVWF  xC3
....................    LuzBlanca_off;Alarma_off;Aux_off; 
06024:  BCF    F8B.0
06026:  BCF    F94.0
06028:  BCF    F8B.7
0602A:  BCF    F94.7
0602C:  BCF    F8B.1
0602E:  BCF    F94.1
.................... //-------Inicio de Cabina-------------------------------------------------------------------------// 
....................    VelocidadMotor(0); 
06030:  MOVLB  5
06032:  CLRF   xCF
06034:  MOVLB  0
06036:  CALL   1584
....................    Motor_off; 
0603A:  BCF    F8B.2
0603C:  BCF    F94.2
....................    LeeEEPROM(); // Lectura de variables almacenadas en la EEPROM  
0603E:  GOTO   1C02
....................    LimitaValores(); 
06042:  GOTO   240A
....................    //Menu=2; 
....................    while(true){  
....................    glcd_update(); 
06046:  CALL   1696
.................... //**Actualizacin de Lectura de Sensores**//    
....................    if(Lectura==1){ 
0604A:  MOVLB  4
0604C:  BTFSS  x2F.2
0604E:  BRA    6094
....................       Lectura=0; 
06050:  BCF    x2F.2
....................       InFlow=LeerFlujoInFlow(8); 
06052:  MOVLW  08
06054:  MOVLB  5
06056:  MOVWF  xCF
06058:  MOVLB  0
0605A:  GOTO   4066
0605E:  MOVFF  03,506
06062:  MOVFF  02,505
06066:  MOVFF  01,504
0606A:  MOVFF  00,503
....................       Temperatura=leeTemperatura(5); 
0606E:  MOVLW  05
06070:  MOVLB  5
06072:  MOVWF  xCF
06074:  MOVLB  0
06076:  GOTO   4434
0607A:  MOVFF  03,603
0607E:  MOVFF  02,602
06082:  MOVFF  01,601
06086:  MOVFF  00,600
0608A:  CALL   2DD8
0608E:  MOVFF  01,5C2
06092:  MOVLB  4
....................    } 
.................... //----------------------------------------// 
....................  
.................... //**Contador de Tiempo de Trabajo del filtro**// 
....................    if(minutos_trabajo>=3600){ // Tiempo de Trabajo 
06094:  MOVF   xDC,W
06096:  SUBLW  0D
06098:  BTFSC  FD8.0
0609A:  BRA    6242
0609C:  XORLW  FF
0609E:  BNZ   60A8
060A0:  MOVF   xDB,W
060A2:  SUBLW  0F
060A4:  BTFSC  FD8.0
060A6:  BRA    6242
....................       minutos_trabajo=0; //Minutos Trabajo realmente son segundos. 
060A8:  CLRF   xDC
060AA:  CLRF   xDB
....................       write_eeprom(33,make8(minutos_trabajo,0)); 
060AC:  MOVFF  4DB,5CF
060B0:  CLRF   FAA
060B2:  MOVLW  21
060B4:  MOVWF  FA9
060B6:  MOVFF  5CF,FA8
060BA:  BCF    FA6.6
060BC:  BCF    FA6.7
060BE:  BSF    FA6.2
060C0:  MOVF   FF2,W
060C2:  MOVWF  00
060C4:  BCF    FF2.7
060C6:  MOVLB  F
060C8:  MOVLW  55
060CA:  MOVWF  FA7
060CC:  MOVLW  AA
060CE:  MOVWF  FA7
060D0:  BSF    FA6.1
060D2:  BTFSC  FA6.1
060D4:  BRA    60D2
060D6:  BCF    FA6.2
060D8:  MOVF   00,W
060DA:  IORWF  FF2,F
....................       delay_ms(20); 
060DC:  MOVLW  14
060DE:  MOVLB  5
060E0:  MOVWF  xE3
060E2:  MOVLB  0
060E4:  CALL   155C
....................       write_eeprom(34,make8(minutos_trabajo,1)); 
060E8:  MOVFF  4DC,5CF
060EC:  CLRF   FAA
060EE:  MOVLW  22
060F0:  MOVWF  FA9
060F2:  MOVFF  5CF,FA8
060F6:  BCF    FA6.6
060F8:  BCF    FA6.7
060FA:  BSF    FA6.2
060FC:  MOVF   FF2,W
060FE:  MOVWF  00
06100:  BCF    FF2.7
06102:  MOVLB  F
06104:  MOVLW  55
06106:  MOVWF  FA7
06108:  MOVLW  AA
0610A:  MOVWF  FA7
0610C:  BSF    FA6.1
0610E:  BTFSC  FA6.1
06110:  BRA    610E
06112:  BCF    FA6.2
06114:  MOVF   00,W
06116:  IORWF  FF2,F
....................       delay_ms(20); 
06118:  MOVLW  14
0611A:  MOVLB  5
0611C:  MOVWF  xE3
0611E:  MOVLB  0
06120:  CALL   155C
....................       Ttrabajo[0]++; 
06124:  MOVLB  4
06126:  INCF   xF7,F
....................       if(Ttrabajo[0]>9){ 
06128:  BTFSC  xF7.7
0612A:  BRA    6136
0612C:  MOVF   xF7,W
0612E:  SUBLW  09
06130:  BC    6136
....................          Ttrabajo[0]=0; 
06132:  CLRF   xF7
....................          Ttrabajo[1]++; 
06134:  INCF   xF8,F
....................       } 
....................       if(Ttrabajo[1]>9){ 
06136:  BTFSC  xF8.7
06138:  BRA    6144
0613A:  MOVF   xF8,W
0613C:  SUBLW  09
0613E:  BC    6144
....................          Ttrabajo[1]=0; 
06140:  CLRF   xF8
....................          Ttrabajo[2]++; 
06142:  INCF   xF9,F
....................       } 
....................       if(Ttrabajo[2]>9){ 
06144:  BTFSC  xF9.7
06146:  BRA    6152
06148:  MOVF   xF9,W
0614A:  SUBLW  09
0614C:  BC    6152
....................          Ttrabajo[2]=0; 
0614E:  CLRF   xF9
....................          Ttrabajo[3]++; 
06150:  INCF   xFA,F
....................       } 
....................       if(Ttrabajo[3]>9){ 
06152:  BTFSC  xFA.7
06154:  BRA    615E
06156:  MOVF   xFA,W
06158:  SUBLW  09
0615A:  BC    615E
....................          Ttrabajo[3]=0; 
0615C:  CLRF   xFA
....................       } 
....................       write_eeprom(16,Ttrabajo[0]); 
0615E:  CLRF   FAA
06160:  MOVLW  10
06162:  MOVWF  FA9
06164:  MOVFF  4F7,FA8
06168:  BCF    FA6.6
0616A:  BCF    FA6.7
0616C:  BSF    FA6.2
0616E:  MOVF   FF2,W
06170:  MOVWF  00
06172:  BCF    FF2.7
06174:  MOVLB  F
06176:  MOVLW  55
06178:  MOVWF  FA7
0617A:  MOVLW  AA
0617C:  MOVWF  FA7
0617E:  BSF    FA6.1
06180:  BTFSC  FA6.1
06182:  BRA    6180
06184:  BCF    FA6.2
06186:  MOVF   00,W
06188:  IORWF  FF2,F
....................       delay_ms(20); 
0618A:  MOVLW  14
0618C:  MOVLB  5
0618E:  MOVWF  xE3
06190:  MOVLB  0
06192:  CALL   155C
....................       write_eeprom(17,Ttrabajo[1]); 
06196:  CLRF   FAA
06198:  MOVLW  11
0619A:  MOVWF  FA9
0619C:  MOVFF  4F8,FA8
061A0:  BCF    FA6.6
061A2:  BCF    FA6.7
061A4:  BSF    FA6.2
061A6:  MOVF   FF2,W
061A8:  MOVWF  00
061AA:  BCF    FF2.7
061AC:  MOVLB  F
061AE:  MOVLW  55
061B0:  MOVWF  FA7
061B2:  MOVLW  AA
061B4:  MOVWF  FA7
061B6:  BSF    FA6.1
061B8:  BTFSC  FA6.1
061BA:  BRA    61B8
061BC:  BCF    FA6.2
061BE:  MOVF   00,W
061C0:  IORWF  FF2,F
....................       delay_ms(20); 
061C2:  MOVLW  14
061C4:  MOVLB  5
061C6:  MOVWF  xE3
061C8:  MOVLB  0
061CA:  CALL   155C
....................       write_eeprom(18,Ttrabajo[2]); 
061CE:  CLRF   FAA
061D0:  MOVLW  12
061D2:  MOVWF  FA9
061D4:  MOVFF  4F9,FA8
061D8:  BCF    FA6.6
061DA:  BCF    FA6.7
061DC:  BSF    FA6.2
061DE:  MOVF   FF2,W
061E0:  MOVWF  00
061E2:  BCF    FF2.7
061E4:  MOVLB  F
061E6:  MOVLW  55
061E8:  MOVWF  FA7
061EA:  MOVLW  AA
061EC:  MOVWF  FA7
061EE:  BSF    FA6.1
061F0:  BTFSC  FA6.1
061F2:  BRA    61F0
061F4:  BCF    FA6.2
061F6:  MOVF   00,W
061F8:  IORWF  FF2,F
....................       delay_ms(20); 
061FA:  MOVLW  14
061FC:  MOVLB  5
061FE:  MOVWF  xE3
06200:  MOVLB  0
06202:  CALL   155C
....................       write_eeprom(19,Ttrabajo[3]); 
06206:  CLRF   FAA
06208:  MOVLW  13
0620A:  MOVWF  FA9
0620C:  MOVFF  4FA,FA8
06210:  BCF    FA6.6
06212:  BCF    FA6.7
06214:  BSF    FA6.2
06216:  MOVF   FF2,W
06218:  MOVWF  00
0621A:  BCF    FF2.7
0621C:  MOVLB  F
0621E:  MOVLW  55
06220:  MOVWF  FA7
06222:  MOVLW  AA
06224:  MOVWF  FA7
06226:  BSF    FA6.1
06228:  BTFSC  FA6.1
0622A:  BRA    6228
0622C:  BCF    FA6.2
0622E:  MOVF   00,W
06230:  IORWF  FF2,F
....................       delay_ms(20); 
06232:  MOVLW  14
06234:  MOVLB  5
06236:  MOVWF  xE3
06238:  MOVLB  0
0623A:  CALL   155C
....................    }else if(minutos_trabajo==900 || minutos_trabajo==1800 || minutos_trabajo==2700 ){ 
0623E:  BRA    62DE
06240:  MOVLB  4
06242:  MOVF   xDB,W
06244:  SUBLW  84
06246:  BNZ   624E
06248:  MOVF   xDC,W
0624A:  SUBLW  03
0624C:  BZ    6266
0624E:  MOVF   xDB,W
06250:  SUBLW  08
06252:  BNZ   625A
06254:  MOVF   xDC,W
06256:  SUBLW  07
06258:  BZ    6266
0625A:  MOVF   xDB,W
0625C:  SUBLW  8C
0625E:  BNZ   62E0
06260:  MOVF   xDC,W
06262:  SUBLW  0A
06264:  BNZ   62E0
....................       write_eeprom(33,make8(minutos_trabajo,0)); 
06266:  MOVFF  4DB,5CF
0626A:  CLRF   FAA
0626C:  MOVLW  21
0626E:  MOVWF  FA9
06270:  MOVFF  5CF,FA8
06274:  BCF    FA6.6
06276:  BCF    FA6.7
06278:  BSF    FA6.2
0627A:  MOVF   FF2,W
0627C:  MOVWF  00
0627E:  BCF    FF2.7
06280:  MOVLB  F
06282:  MOVLW  55
06284:  MOVWF  FA7
06286:  MOVLW  AA
06288:  MOVWF  FA7
0628A:  BSF    FA6.1
0628C:  BTFSC  FA6.1
0628E:  BRA    628C
06290:  BCF    FA6.2
06292:  MOVF   00,W
06294:  IORWF  FF2,F
....................       delay_ms(20); 
06296:  MOVLW  14
06298:  MOVLB  5
0629A:  MOVWF  xE3
0629C:  MOVLB  0
0629E:  CALL   155C
....................       write_eeprom(34,make8(minutos_trabajo,1)); 
062A2:  MOVFF  4DC,5CF
062A6:  CLRF   FAA
062A8:  MOVLW  22
062AA:  MOVWF  FA9
062AC:  MOVFF  5CF,FA8
062B0:  BCF    FA6.6
062B2:  BCF    FA6.7
062B4:  BSF    FA6.2
062B6:  MOVF   FF2,W
062B8:  MOVWF  00
062BA:  BCF    FF2.7
062BC:  MOVLB  F
062BE:  MOVLW  55
062C0:  MOVWF  FA7
062C2:  MOVLW  AA
062C4:  MOVWF  FA7
062C6:  BSF    FA6.1
062C8:  BTFSC  FA6.1
062CA:  BRA    62C8
062CC:  BCF    FA6.2
062CE:  MOVF   00,W
062D0:  IORWF  FF2,F
....................       delay_ms(20); 
062D2:  MOVLW  14
062D4:  MOVLB  5
062D6:  MOVWF  xE3
062D8:  MOVLB  0
062DA:  CALL   155C
062DE:  MOVLB  4
....................    } 
.................... //----------------------------------------//       
....................     
....................    if(Menu!=2){// Si no esta en el menu de estados apaga la alarma 
062E0:  MOVF   xC3,W
062E2:  SUBLW  02
062E4:  BZ    62EE
....................       Alarma_off; 
062E6:  BCF    F8B.7
062E8:  BCF    F94.7
....................       Alarma=10; 
062EA:  MOVLW  0A
062EC:  MOVWF  xD0
....................    } 
....................     
.................... //_-------------------------------------------------------------------------------------------------------------------------------------------------------- 
....................    if(Menu==0){ //Menu de Contrasea. 
062EE:  MOVF   xC3,F
062F0:  BNZ   6328
....................       while(PidePassword(0,0,1,Password[0],Password[1],Password[2],Password[3])==0){ 
062F2:  MOVLB  5
062F4:  CLRF   xD0
062F6:  CLRF   xD1
062F8:  MOVLW  01
062FA:  MOVWF  xD2
062FC:  MOVFF  4FF,5D3
06300:  MOVFF  500,5D4
06304:  MOVFF  501,5D5
06308:  MOVFF  502,5D6
0630C:  MOVLB  0
0630E:  CALL   4D66
06312:  MOVF   01,F
06314:  BNZ   632A
....................          VelocidadMotor(0); 
06316:  MOVLB  5
06318:  CLRF   xCF
0631A:  MOVLB  0
0631C:  CALL   1584
....................          glcd_update(); 
06320:  CALL   1696
....................       }        
06324:  MOVLB  4
06326:  BRA    62F2
06328:  MOVLB  0
....................    } 
.................... //_--------------------------------------------------------------------------------------------------------------------------------------------------------        
....................  
.................... //_-------------------------------------------------------------------------------------------------------------------------------------------------------- 
....................       if(Menu==1){//Menu de Purga. 
0632A:  MOVLB  4
0632C:  DECFSZ xC3,W
0632E:  BRA    6498
....................          Purga=ON; 
06330:  BSF    x2F.5
....................          glcd_text57(15, 1, Tiempo, 1, ON); 
06332:  MOVLW  0F
06334:  MOVLB  5
06336:  MOVWF  xE8
06338:  MOVLW  01
0633A:  MOVWF  xE9
0633C:  MOVLW  04
0633E:  MOVWF  xEB
06340:  MOVLW  59
06342:  MOVWF  xEA
06344:  MOVLW  01
06346:  MOVWF  xEC
06348:  MOVWF  xED
0634A:  MOVLB  0
0634C:  CALL   4A28
....................          tiempo_purga=1;LuzBlanca_off;//Alarma_off; 
06350:  MOVLB  4
06352:  BSF    x2E.5
06354:  BCF    F8B.0
06356:  BCF    F94.0
....................          glcd_rect(9, 54, 120, 64, YES, OFF);          
06358:  MOVLW  09
0635A:  MOVLB  5
0635C:  MOVWF  xE8
0635E:  MOVLW  36
06360:  MOVWF  xE9
06362:  MOVLW  78
06364:  MOVWF  xEA
06366:  MOVLW  40
06368:  MOVWF  xEB
0636A:  MOVLW  01
0636C:  MOVWF  xEC
0636E:  CLRF   xED
06370:  MOVLB  0
06372:  CALL   4966
....................          displayTiempo(Tpurga[3],20,20,0,2);displayTiempo(Tpurga[2],40,20,0,2);glcd_text57(60, 22, Dos_puntos, 2, ON); 
06376:  MOVFF  4E2,5CF
0637A:  MOVLW  14
0637C:  MOVLB  5
0637E:  MOVWF  xD0
06380:  MOVWF  xD1
06382:  CLRF   xD2
06384:  MOVLW  02
06386:  MOVWF  xD3
06388:  MOVLB  0
0638A:  CALL   5468
0638E:  MOVFF  4E1,5CF
06392:  MOVLW  28
06394:  MOVLB  5
06396:  MOVWF  xD0
06398:  MOVLW  14
0639A:  MOVWF  xD1
0639C:  CLRF   xD2
0639E:  MOVLW  02
063A0:  MOVWF  xD3
063A2:  MOVLB  0
063A4:  CALL   5468
063A8:  MOVLW  3C
063AA:  MOVLB  5
063AC:  MOVWF  xE8
063AE:  MOVLW  16
063B0:  MOVWF  xE9
063B2:  MOVLW  04
063B4:  MOVWF  xEB
063B6:  MOVLW  49
063B8:  MOVWF  xEA
063BA:  MOVLW  02
063BC:  MOVWF  xEC
063BE:  MOVLW  01
063C0:  MOVWF  xED
063C2:  MOVLB  0
063C4:  CALL   4A28
....................          displayTiempo(Tpurga[1],70,20,0,2);displayTiempo(Tpurga[0],90,20,0,2);         
063C8:  MOVFF  4E0,5CF
063CC:  MOVLW  46
063CE:  MOVLB  5
063D0:  MOVWF  xD0
063D2:  MOVLW  14
063D4:  MOVWF  xD1
063D6:  CLRF   xD2
063D8:  MOVLW  02
063DA:  MOVWF  xD3
063DC:  MOVLB  0
063DE:  CALL   5468
063E2:  MOVFF  4DF,5CF
063E6:  MOVLW  5A
063E8:  MOVLB  5
063EA:  MOVWF  xD0
063EC:  MOVLW  14
063EE:  MOVWF  xD1
063F0:  CLRF   xD2
063F2:  MOVLW  02
063F4:  MOVWF  xD3
063F6:  MOVLB  0
063F8:  CALL   5468
....................           
....................          VelocidadMotor(VelMotor); 
063FC:  MOVFF  5C6,5CF
06400:  CALL   1584
....................           
....................          if(RIGHT){ 
06404:  BSF    F96.1
06406:  BTFSC  F84.1
06408:  BRA    643E
....................             delay_ms(500); 
0640A:  MOVLW  02
0640C:  MOVLB  5
0640E:  MOVWF  xCF
06410:  MOVLW  FA
06412:  MOVWF  xE3
06414:  MOVLB  0
06416:  CALL   155C
0641A:  MOVLB  5
0641C:  DECFSZ xCF,F
0641E:  BRA    6410
....................             if(RIGHT){ 
06420:  BSF    F96.1
06422:  BTFSC  F84.1
06424:  BRA    643E
....................                tiempo_purga=0;Menu=2;glcd_fillScreen(OFF);Flanco3=1; 
06426:  MOVLB  4
06428:  BCF    x2E.5
0642A:  MOVLW  02
0642C:  MOVWF  xC3
0642E:  MOVLB  5
06430:  CLRF   xD7
06432:  MOVLB  0
06434:  CALL   163C
06438:  MOVLB  4
0643A:  BSF    x2D.3
0643C:  MOVLB  5
....................             } 
....................          } 
....................         
....................          if((Tpurga[0]>=Tpurgap[0])&&(Tpurga[1]>=Tpurgap[1])&&(Tpurga[2]>=Tpurgap[2])&&(Tpurga[3]>=Tpurgap[3])){ 
0643E:  MOVLB  4
06440:  MOVF   xE3,W
06442:  XORLW  80
06444:  MOVWF  00
06446:  MOVF   xDF,W
06448:  XORLW  80
0644A:  SUBWF  00,W
0644C:  BZ    6450
0644E:  BC    6498
06450:  MOVF   xE4,W
06452:  XORLW  80
06454:  MOVWF  00
06456:  MOVF   xE0,W
06458:  XORLW  80
0645A:  SUBWF  00,W
0645C:  BZ    6460
0645E:  BC    6498
06460:  MOVF   xE5,W
06462:  XORLW  80
06464:  MOVWF  00
06466:  MOVF   xE1,W
06468:  XORLW  80
0646A:  SUBWF  00,W
0646C:  BZ    6470
0646E:  BC    6498
06470:  MOVF   xE6,W
06472:  XORLW  80
06474:  MOVWF  00
06476:  MOVF   xE2,W
06478:  XORLW  80
0647A:  SUBWF  00,W
0647C:  BZ    6480
0647E:  BC    6498
....................             tiempo_purga=0;Menu=2;glcd_fillScreen(OFF);flag_luz=!flag_luz;flag_blower=1;flag_toma=1; 
06480:  BCF    x2E.5
06482:  MOVLW  02
06484:  MOVWF  xC3
06486:  MOVLB  5
06488:  CLRF   xD7
0648A:  MOVLB  0
0648C:  CALL   163C
06490:  MOVLB  4
06492:  BTG    x2E.1
06494:  BSF    x2D.7
06496:  BSF    x2E.0
....................          }       
....................       } 
.................... //_--------------------------------------------------------------------------------------------------------------------------------------------------------        
....................  
.................... //_-------------------------------------------------------------------------------------------------------------------------------------------------------- 
....................       if(Menu==2){ //Menu General. 
06498:  MOVF   xC3,W
0649A:  SUBLW  02
0649C:  BTFSS  FD8.2
0649E:  GOTO   6F40
....................          Purga=OFF; 
064A2:  BCF    x2F.5
....................          w=0; 
064A4:  BCF    x2E.3
....................          glcd_imagen(4); 
064A6:  MOVLW  04
064A8:  MOVLB  5
064AA:  MOVWF  xCF
064AC:  MOVLB  0
064AE:  CALL   5564
....................           
....................          if(!flag_blower && flag_luz) 
064B2:  MOVLB  4
064B4:  BTFSC  x2D.7
064B6:  BRA    64BE
064B8:  BTFSS  x2E.1
064BA:  BRA    64BE
....................             alarmaFiltro=ON; 
064BC:  BSF    x2F.6
....................           
....................          if(!AlarmaFiltro) 
064BE:  BTFSC  x2F.6
064C0:  BRA    64C6
....................             Display_on; 
064C2:  BSF    F8A.1
064C4:  BCF    F93.1
....................           
....................          if(VelMotor==1){ 
064C6:  MOVLB  5
064C8:  DECFSZ xC6,W
064CA:  BRA    6580
....................             glcd_rect(0, 29, 13, 39, YES, ON); 
064CC:  CLRF   xE8
064CE:  MOVLW  1D
064D0:  MOVWF  xE9
064D2:  MOVLW  0D
064D4:  MOVWF  xEA
064D6:  MOVLW  27
064D8:  MOVWF  xEB
064DA:  MOVLW  01
064DC:  MOVWF  xEC
064DE:  MOVWF  xED
064E0:  MOVLB  0
064E2:  CALL   4966
....................             glcd_rect(15, 26, 28, 39, NO, ON); 
064E6:  MOVLW  0F
064E8:  MOVLB  5
064EA:  MOVWF  xE8
064EC:  MOVLW  1A
064EE:  MOVWF  xE9
064F0:  MOVLW  1C
064F2:  MOVWF  xEA
064F4:  MOVLW  27
064F6:  MOVWF  xEB
064F8:  CLRF   xEC
064FA:  MOVLW  01
064FC:  MOVWF  xED
064FE:  MOVLB  0
06500:  CALL   4966
....................             glcd_rect(30, 23, 43, 39, NO, ON); 
06504:  MOVLW  1E
06506:  MOVLB  5
06508:  MOVWF  xE8
0650A:  MOVLW  17
0650C:  MOVWF  xE9
0650E:  MOVLW  2B
06510:  MOVWF  xEA
06512:  MOVLW  27
06514:  MOVWF  xEB
06516:  CLRF   xEC
06518:  MOVLW  01
0651A:  MOVWF  xED
0651C:  MOVLB  0
0651E:  CALL   4966
....................             glcd_rect(45, 20, 58, 39, NO, ON); 
06522:  MOVLW  2D
06524:  MOVLB  5
06526:  MOVWF  xE8
06528:  MOVLW  14
0652A:  MOVWF  xE9
0652C:  MOVLW  3A
0652E:  MOVWF  xEA
06530:  MOVLW  27
06532:  MOVWF  xEB
06534:  CLRF   xEC
06536:  MOVLW  01
06538:  MOVWF  xED
0653A:  MOVLB  0
0653C:  CALL   4966
....................             glcd_rect(60, 17, 73, 39, NO, ON); 
06540:  MOVLW  3C
06542:  MOVLB  5
06544:  MOVWF  xE8
06546:  MOVLW  11
06548:  MOVWF  xE9
0654A:  MOVLW  49
0654C:  MOVWF  xEA
0654E:  MOVLW  27
06550:  MOVWF  xEB
06552:  CLRF   xEC
06554:  MOVLW  01
06556:  MOVWF  xED
06558:  MOVLB  0
0655A:  CALL   4966
....................             glcd_rect(75, 14, 88, 39, NO, ON); 
0655E:  MOVLW  4B
06560:  MOVLB  5
06562:  MOVWF  xE8
06564:  MOVLW  0E
06566:  MOVWF  xE9
06568:  MOVLW  58
0656A:  MOVWF  xEA
0656C:  MOVLW  27
0656E:  MOVWF  xEB
06570:  CLRF   xEC
06572:  MOVLW  01
06574:  MOVWF  xED
06576:  MOVLB  0
06578:  CALL   4966
....................          }else if(VelMotor==2){ 
0657C:  BRA    691E
0657E:  MOVLB  5
06580:  MOVF   xC6,W
06582:  SUBLW  02
06584:  BNZ   663A
....................             glcd_rect(0, 29, 13, 39, YES, ON); 
06586:  CLRF   xE8
06588:  MOVLW  1D
0658A:  MOVWF  xE9
0658C:  MOVLW  0D
0658E:  MOVWF  xEA
06590:  MOVLW  27
06592:  MOVWF  xEB
06594:  MOVLW  01
06596:  MOVWF  xEC
06598:  MOVWF  xED
0659A:  MOVLB  0
0659C:  CALL   4966
....................             glcd_rect(15, 26, 28, 39, YES, ON); 
065A0:  MOVLW  0F
065A2:  MOVLB  5
065A4:  MOVWF  xE8
065A6:  MOVLW  1A
065A8:  MOVWF  xE9
065AA:  MOVLW  1C
065AC:  MOVWF  xEA
065AE:  MOVLW  27
065B0:  MOVWF  xEB
065B2:  MOVLW  01
065B4:  MOVWF  xEC
065B6:  MOVWF  xED
065B8:  MOVLB  0
065BA:  CALL   4966
....................             glcd_rect(30, 23, 43, 39, NO, ON); 
065BE:  MOVLW  1E
065C0:  MOVLB  5
065C2:  MOVWF  xE8
065C4:  MOVLW  17
065C6:  MOVWF  xE9
065C8:  MOVLW  2B
065CA:  MOVWF  xEA
065CC:  MOVLW  27
065CE:  MOVWF  xEB
065D0:  CLRF   xEC
065D2:  MOVLW  01
065D4:  MOVWF  xED
065D6:  MOVLB  0
065D8:  CALL   4966
....................             glcd_rect(45, 20, 58, 39, NO, ON); 
065DC:  MOVLW  2D
065DE:  MOVLB  5
065E0:  MOVWF  xE8
065E2:  MOVLW  14
065E4:  MOVWF  xE9
065E6:  MOVLW  3A
065E8:  MOVWF  xEA
065EA:  MOVLW  27
065EC:  MOVWF  xEB
065EE:  CLRF   xEC
065F0:  MOVLW  01
065F2:  MOVWF  xED
065F4:  MOVLB  0
065F6:  CALL   4966
....................             glcd_rect(60, 17, 73, 39, NO, ON); 
065FA:  MOVLW  3C
065FC:  MOVLB  5
065FE:  MOVWF  xE8
06600:  MOVLW  11
06602:  MOVWF  xE9
06604:  MOVLW  49
06606:  MOVWF  xEA
06608:  MOVLW  27
0660A:  MOVWF  xEB
0660C:  CLRF   xEC
0660E:  MOVLW  01
06610:  MOVWF  xED
06612:  MOVLB  0
06614:  CALL   4966
....................             glcd_rect(75, 14, 88, 39, NO, ON); 
06618:  MOVLW  4B
0661A:  MOVLB  5
0661C:  MOVWF  xE8
0661E:  MOVLW  0E
06620:  MOVWF  xE9
06622:  MOVLW  58
06624:  MOVWF  xEA
06626:  MOVLW  27
06628:  MOVWF  xEB
0662A:  CLRF   xEC
0662C:  MOVLW  01
0662E:  MOVWF  xED
06630:  MOVLB  0
06632:  CALL   4966
....................          }else if(VelMotor==3){ 
06636:  BRA    691E
06638:  MOVLB  5
0663A:  MOVF   xC6,W
0663C:  SUBLW  03
0663E:  BNZ   66F4
....................             glcd_rect(0, 29, 13, 39, YES, ON); 
06640:  CLRF   xE8
06642:  MOVLW  1D
06644:  MOVWF  xE9
06646:  MOVLW  0D
06648:  MOVWF  xEA
0664A:  MOVLW  27
0664C:  MOVWF  xEB
0664E:  MOVLW  01
06650:  MOVWF  xEC
06652:  MOVWF  xED
06654:  MOVLB  0
06656:  CALL   4966
....................             glcd_rect(15, 26, 28, 39, YES, ON); 
0665A:  MOVLW  0F
0665C:  MOVLB  5
0665E:  MOVWF  xE8
06660:  MOVLW  1A
06662:  MOVWF  xE9
06664:  MOVLW  1C
06666:  MOVWF  xEA
06668:  MOVLW  27
0666A:  MOVWF  xEB
0666C:  MOVLW  01
0666E:  MOVWF  xEC
06670:  MOVWF  xED
06672:  MOVLB  0
06674:  CALL   4966
....................             glcd_rect(30, 23, 43, 39, YES, ON); 
06678:  MOVLW  1E
0667A:  MOVLB  5
0667C:  MOVWF  xE8
0667E:  MOVLW  17
06680:  MOVWF  xE9
06682:  MOVLW  2B
06684:  MOVWF  xEA
06686:  MOVLW  27
06688:  MOVWF  xEB
0668A:  MOVLW  01
0668C:  MOVWF  xEC
0668E:  MOVWF  xED
06690:  MOVLB  0
06692:  CALL   4966
....................             glcd_rect(45, 20, 58, 39, NO, ON); 
06696:  MOVLW  2D
06698:  MOVLB  5
0669A:  MOVWF  xE8
0669C:  MOVLW  14
0669E:  MOVWF  xE9
066A0:  MOVLW  3A
066A2:  MOVWF  xEA
066A4:  MOVLW  27
066A6:  MOVWF  xEB
066A8:  CLRF   xEC
066AA:  MOVLW  01
066AC:  MOVWF  xED
066AE:  MOVLB  0
066B0:  CALL   4966
....................             glcd_rect(60, 17, 73, 39, NO, ON); 
066B4:  MOVLW  3C
066B6:  MOVLB  5
066B8:  MOVWF  xE8
066BA:  MOVLW  11
066BC:  MOVWF  xE9
066BE:  MOVLW  49
066C0:  MOVWF  xEA
066C2:  MOVLW  27
066C4:  MOVWF  xEB
066C6:  CLRF   xEC
066C8:  MOVLW  01
066CA:  MOVWF  xED
066CC:  MOVLB  0
066CE:  CALL   4966
....................             glcd_rect(75, 14, 88, 39, NO, ON); 
066D2:  MOVLW  4B
066D4:  MOVLB  5
066D6:  MOVWF  xE8
066D8:  MOVLW  0E
066DA:  MOVWF  xE9
066DC:  MOVLW  58
066DE:  MOVWF  xEA
066E0:  MOVLW  27
066E2:  MOVWF  xEB
066E4:  CLRF   xEC
066E6:  MOVLW  01
066E8:  MOVWF  xED
066EA:  MOVLB  0
066EC:  CALL   4966
....................          }else if(VelMotor==4){ 
066F0:  BRA    691E
066F2:  MOVLB  5
066F4:  MOVF   xC6,W
066F6:  SUBLW  04
066F8:  BNZ   67AE
....................             glcd_rect(0, 29, 13, 39, YES, ON); 
066FA:  CLRF   xE8
066FC:  MOVLW  1D
066FE:  MOVWF  xE9
06700:  MOVLW  0D
06702:  MOVWF  xEA
06704:  MOVLW  27
06706:  MOVWF  xEB
06708:  MOVLW  01
0670A:  MOVWF  xEC
0670C:  MOVWF  xED
0670E:  MOVLB  0
06710:  CALL   4966
....................             glcd_rect(15, 26, 28, 39, YES, ON); 
06714:  MOVLW  0F
06716:  MOVLB  5
06718:  MOVWF  xE8
0671A:  MOVLW  1A
0671C:  MOVWF  xE9
0671E:  MOVLW  1C
06720:  MOVWF  xEA
06722:  MOVLW  27
06724:  MOVWF  xEB
06726:  MOVLW  01
06728:  MOVWF  xEC
0672A:  MOVWF  xED
0672C:  MOVLB  0
0672E:  CALL   4966
....................             glcd_rect(30, 23, 43, 39, YES, ON); 
06732:  MOVLW  1E
06734:  MOVLB  5
06736:  MOVWF  xE8
06738:  MOVLW  17
0673A:  MOVWF  xE9
0673C:  MOVLW  2B
0673E:  MOVWF  xEA
06740:  MOVLW  27
06742:  MOVWF  xEB
06744:  MOVLW  01
06746:  MOVWF  xEC
06748:  MOVWF  xED
0674A:  MOVLB  0
0674C:  CALL   4966
....................             glcd_rect(45, 20, 58, 39, YES, ON); 
06750:  MOVLW  2D
06752:  MOVLB  5
06754:  MOVWF  xE8
06756:  MOVLW  14
06758:  MOVWF  xE9
0675A:  MOVLW  3A
0675C:  MOVWF  xEA
0675E:  MOVLW  27
06760:  MOVWF  xEB
06762:  MOVLW  01
06764:  MOVWF  xEC
06766:  MOVWF  xED
06768:  MOVLB  0
0676A:  CALL   4966
....................             glcd_rect(60, 17, 73, 39, NO, ON); 
0676E:  MOVLW  3C
06770:  MOVLB  5
06772:  MOVWF  xE8
06774:  MOVLW  11
06776:  MOVWF  xE9
06778:  MOVLW  49
0677A:  MOVWF  xEA
0677C:  MOVLW  27
0677E:  MOVWF  xEB
06780:  CLRF   xEC
06782:  MOVLW  01
06784:  MOVWF  xED
06786:  MOVLB  0
06788:  CALL   4966
....................             glcd_rect(75, 14, 88, 39, NO, ON); 
0678C:  MOVLW  4B
0678E:  MOVLB  5
06790:  MOVWF  xE8
06792:  MOVLW  0E
06794:  MOVWF  xE9
06796:  MOVLW  58
06798:  MOVWF  xEA
0679A:  MOVLW  27
0679C:  MOVWF  xEB
0679E:  CLRF   xEC
067A0:  MOVLW  01
067A2:  MOVWF  xED
067A4:  MOVLB  0
067A6:  CALL   4966
....................          }else if(VelMotor==5){ 
067AA:  BRA    691E
067AC:  MOVLB  5
067AE:  MOVF   xC6,W
067B0:  SUBLW  05
067B2:  BNZ   6868
....................             glcd_rect(0, 29, 13, 39, YES, ON); 
067B4:  CLRF   xE8
067B6:  MOVLW  1D
067B8:  MOVWF  xE9
067BA:  MOVLW  0D
067BC:  MOVWF  xEA
067BE:  MOVLW  27
067C0:  MOVWF  xEB
067C2:  MOVLW  01
067C4:  MOVWF  xEC
067C6:  MOVWF  xED
067C8:  MOVLB  0
067CA:  CALL   4966
....................             glcd_rect(15, 26, 28, 39, YES, ON); 
067CE:  MOVLW  0F
067D0:  MOVLB  5
067D2:  MOVWF  xE8
067D4:  MOVLW  1A
067D6:  MOVWF  xE9
067D8:  MOVLW  1C
067DA:  MOVWF  xEA
067DC:  MOVLW  27
067DE:  MOVWF  xEB
067E0:  MOVLW  01
067E2:  MOVWF  xEC
067E4:  MOVWF  xED
067E6:  MOVLB  0
067E8:  CALL   4966
....................             glcd_rect(30, 23, 43, 39, YES, ON); 
067EC:  MOVLW  1E
067EE:  MOVLB  5
067F0:  MOVWF  xE8
067F2:  MOVLW  17
067F4:  MOVWF  xE9
067F6:  MOVLW  2B
067F8:  MOVWF  xEA
067FA:  MOVLW  27
067FC:  MOVWF  xEB
067FE:  MOVLW  01
06800:  MOVWF  xEC
06802:  MOVWF  xED
06804:  MOVLB  0
06806:  CALL   4966
....................             glcd_rect(45, 20, 58, 39, YES, ON); 
0680A:  MOVLW  2D
0680C:  MOVLB  5
0680E:  MOVWF  xE8
06810:  MOVLW  14
06812:  MOVWF  xE9
06814:  MOVLW  3A
06816:  MOVWF  xEA
06818:  MOVLW  27
0681A:  MOVWF  xEB
0681C:  MOVLW  01
0681E:  MOVWF  xEC
06820:  MOVWF  xED
06822:  MOVLB  0
06824:  CALL   4966
....................             glcd_rect(60, 17, 73, 39, YES, ON); 
06828:  MOVLW  3C
0682A:  MOVLB  5
0682C:  MOVWF  xE8
0682E:  MOVLW  11
06830:  MOVWF  xE9
06832:  MOVLW  49
06834:  MOVWF  xEA
06836:  MOVLW  27
06838:  MOVWF  xEB
0683A:  MOVLW  01
0683C:  MOVWF  xEC
0683E:  MOVWF  xED
06840:  MOVLB  0
06842:  CALL   4966
....................             glcd_rect(75, 14, 88, 39, NO, ON); 
06846:  MOVLW  4B
06848:  MOVLB  5
0684A:  MOVWF  xE8
0684C:  MOVLW  0E
0684E:  MOVWF  xE9
06850:  MOVLW  58
06852:  MOVWF  xEA
06854:  MOVLW  27
06856:  MOVWF  xEB
06858:  CLRF   xEC
0685A:  MOVLW  01
0685C:  MOVWF  xED
0685E:  MOVLB  0
06860:  CALL   4966
....................          }else if(VelMotor==6){ 
06864:  BRA    691E
06866:  MOVLB  5
06868:  MOVF   xC6,W
0686A:  SUBLW  06
0686C:  BNZ   691E
....................             glcd_rect(0, 29, 13, 39, YES, ON); 
0686E:  CLRF   xE8
06870:  MOVLW  1D
06872:  MOVWF  xE9
06874:  MOVLW  0D
06876:  MOVWF  xEA
06878:  MOVLW  27
0687A:  MOVWF  xEB
0687C:  MOVLW  01
0687E:  MOVWF  xEC
06880:  MOVWF  xED
06882:  MOVLB  0
06884:  CALL   4966
....................             glcd_rect(15, 26, 28, 39, YES, ON); 
06888:  MOVLW  0F
0688A:  MOVLB  5
0688C:  MOVWF  xE8
0688E:  MOVLW  1A
06890:  MOVWF  xE9
06892:  MOVLW  1C
06894:  MOVWF  xEA
06896:  MOVLW  27
06898:  MOVWF  xEB
0689A:  MOVLW  01
0689C:  MOVWF  xEC
0689E:  MOVWF  xED
068A0:  MOVLB  0
068A2:  CALL   4966
....................             glcd_rect(30, 23, 43, 39, YES, ON); 
068A6:  MOVLW  1E
068A8:  MOVLB  5
068AA:  MOVWF  xE8
068AC:  MOVLW  17
068AE:  MOVWF  xE9
068B0:  MOVLW  2B
068B2:  MOVWF  xEA
068B4:  MOVLW  27
068B6:  MOVWF  xEB
068B8:  MOVLW  01
068BA:  MOVWF  xEC
068BC:  MOVWF  xED
068BE:  MOVLB  0
068C0:  CALL   4966
....................             glcd_rect(45, 20, 58, 39, YES, ON); 
068C4:  MOVLW  2D
068C6:  MOVLB  5
068C8:  MOVWF  xE8
068CA:  MOVLW  14
068CC:  MOVWF  xE9
068CE:  MOVLW  3A
068D0:  MOVWF  xEA
068D2:  MOVLW  27
068D4:  MOVWF  xEB
068D6:  MOVLW  01
068D8:  MOVWF  xEC
068DA:  MOVWF  xED
068DC:  MOVLB  0
068DE:  CALL   4966
....................             glcd_rect(60, 17, 73, 39, YES, ON); 
068E2:  MOVLW  3C
068E4:  MOVLB  5
068E6:  MOVWF  xE8
068E8:  MOVLW  11
068EA:  MOVWF  xE9
068EC:  MOVLW  49
068EE:  MOVWF  xEA
068F0:  MOVLW  27
068F2:  MOVWF  xEB
068F4:  MOVLW  01
068F6:  MOVWF  xEC
068F8:  MOVWF  xED
068FA:  MOVLB  0
068FC:  CALL   4966
....................             glcd_rect(75, 14, 88, 39, YES, ON); 
06900:  MOVLW  4B
06902:  MOVLB  5
06904:  MOVWF  xE8
06906:  MOVLW  0E
06908:  MOVWF  xE9
0690A:  MOVLW  58
0690C:  MOVWF  xEA
0690E:  MOVLW  27
06910:  MOVWF  xEB
06912:  MOVLW  01
06914:  MOVWF  xEC
06916:  MOVWF  xED
06918:  MOVLB  0
0691A:  CALL   4966
....................          } 
....................           
....................          if(imprimir==1){ 
0691E:  MOVLB  4
06920:  BTFSS  x2D.6
06922:  BRA    6B04
....................             glcd_text57(2, 12, Inflowt, 1, ON); 
06924:  MOVLW  02
06926:  MOVLB  5
06928:  MOVWF  xE8
0692A:  MOVLW  0C
0692C:  MOVWF  xE9
0692E:  MOVLW  04
06930:  MOVWF  xEB
06932:  MOVLW  69
06934:  MOVWF  xEA
06936:  MOVLW  01
06938:  MOVWF  xEC
0693A:  MOVWF  xED
0693C:  MOVLB  0
0693E:  CALL   4A28
....................             displayTiempo(VelMotor,25,11,0,1);   
06942:  MOVFF  5C6,5CF
06946:  MOVLW  19
06948:  MOVLB  5
0694A:  MOVWF  xD0
0694C:  MOVLW  0B
0694E:  MOVWF  xD1
06950:  CLRF   xD2
06952:  MOVLW  01
06954:  MOVWF  xD3
06956:  MOVLB  0
06958:  CALL   5468
....................             glcd_rect(0, 10, 95, 63, NO, ON); 
0695C:  MOVLB  5
0695E:  CLRF   xE8
06960:  MOVLW  0A
06962:  MOVWF  xE9
06964:  MOVLW  5F
06966:  MOVWF  xEA
06968:  MOVLW  3F
0696A:  MOVWF  xEB
0696C:  CLRF   xEC
0696E:  MOVLW  01
06970:  MOVWF  xED
06972:  MOVLB  0
06974:  CALL   4966
....................             glcd_rect(100, 10, 127, 63, NO, ON); 
06978:  MOVLW  64
0697A:  MOVLB  5
0697C:  MOVWF  xE8
0697E:  MOVLW  0A
06980:  MOVWF  xE9
06982:  MOVLW  7F
06984:  MOVWF  xEA
06986:  MOVLW  3F
06988:  MOVWF  xEB
0698A:  CLRF   xEC
0698C:  MOVLW  01
0698E:  MOVWF  xED
06990:  MOVLB  0
06992:  CALL   4966
....................             glcd_text57(2, 51, Downflowt, 1, ON); 
06996:  MOVLW  02
06998:  MOVLB  5
0699A:  MOVWF  xE8
0699C:  MOVLW  33
0699E:  MOVWF  xE9
069A0:  MOVLW  04
069A2:  MOVWF  xEB
069A4:  MOVLW  6E
069A6:  MOVWF  xEA
069A8:  MOVLW  01
069AA:  MOVWF  xEC
069AC:  MOVWF  xED
069AE:  MOVLB  0
069B0:  CALL   4A28
....................             glcd_text57(2, 41, Vida_Filtro, 1, ON); 
069B4:  MOVLW  02
069B6:  MOVLB  5
069B8:  MOVWF  xE8
069BA:  MOVLW  29
069BC:  MOVWF  xE9
069BE:  MOVLW  04
069C0:  MOVWF  xEB
069C2:  MOVLW  98
069C4:  MOVWF  xEA
069C6:  MOVLW  01
069C8:  MOVWF  xEC
069CA:  MOVWF  xED
069CC:  MOVLB  0
069CE:  CALL   4A28
....................             displayTiempo(Ttrabajo[3],60,41,0,1);displayTiempo(Ttrabajo[2],67,41,0,1);displayTiempo(Ttrabajo[1],74,41,0,1);displayTiempo(Ttrabajo[0],82,41,0,1); 
069D2:  MOVFF  4FA,5CF
069D6:  MOVLW  3C
069D8:  MOVLB  5
069DA:  MOVWF  xD0
069DC:  MOVLW  29
069DE:  MOVWF  xD1
069E0:  CLRF   xD2
069E2:  MOVLW  01
069E4:  MOVWF  xD3
069E6:  MOVLB  0
069E8:  CALL   5468
069EC:  MOVFF  4F9,5CF
069F0:  MOVLW  43
069F2:  MOVLB  5
069F4:  MOVWF  xD0
069F6:  MOVLW  29
069F8:  MOVWF  xD1
069FA:  CLRF   xD2
069FC:  MOVLW  01
069FE:  MOVWF  xD3
06A00:  MOVLB  0
06A02:  CALL   5468
06A06:  MOVFF  4F8,5CF
06A0A:  MOVLW  4A
06A0C:  MOVLB  5
06A0E:  MOVWF  xD0
06A10:  MOVLW  29
06A12:  MOVWF  xD1
06A14:  CLRF   xD2
06A16:  MOVLW  01
06A18:  MOVWF  xD3
06A1A:  MOVLB  0
06A1C:  CALL   5468
06A20:  MOVFF  4F7,5CF
06A24:  MOVLW  52
06A26:  MOVLB  5
06A28:  MOVWF  xD0
06A2A:  MOVLW  29
06A2C:  MOVWF  xD1
06A2E:  CLRF   xD2
06A30:  MOVLW  01
06A32:  MOVWF  xD3
06A34:  MOVLB  0
06A36:  CALL   5468
....................             if(Ttrabajo[3]>=2){ 
06A3A:  MOVLB  4
06A3C:  BTFSC  xFA.7
06A3E:  BRA    6A72
06A40:  MOVF   xFA,W
06A42:  SUBLW  01
06A44:  BC    6A72
....................                strcpy(Menus.Letra,"!Cambie Filtros!"); 
06A46:  MOVLW  04
06A48:  MOVWF  FEA
06A4A:  MOVLW  17
06A4C:  MOVWF  FE9
06A4E:  MOVFF  FF2,5CF
06A52:  BCF    FF2.7
06A54:  MOVLW  00
06A56:  MOVLB  0
06A58:  CALL   0F80
06A5C:  TBLRD*-
06A5E:  TBLRD*+
06A60:  MOVF   FF5,W
06A62:  MOVWF  FEE
06A64:  IORLW  00
06A66:  BNZ   6A5E
06A68:  MOVLB  5
06A6A:  BTFSC  xCF.7
06A6C:  BSF    FF2.7
....................             }else{ 
06A6E:  BRA    6A9A
06A70:  MOVLB  4
....................                strcpy(Menus.Letra,"JPCEGH120DL-ORG"); 
06A72:  MOVLW  04
06A74:  MOVWF  FEA
06A76:  MOVLW  17
06A78:  MOVWF  FE9
06A7A:  MOVFF  FF2,5CF
06A7E:  BCF    FF2.7
06A80:  MOVLW  00
06A82:  MOVLB  0
06A84:  CALL   0FB0
06A88:  TBLRD*-
06A8A:  TBLRD*+
06A8C:  MOVF   FF5,W
06A8E:  MOVWF  FEE
06A90:  IORLW  00
06A92:  BNZ   6A8A
06A94:  MOVLB  5
06A96:  BTFSC  xCF.7
06A98:  BSF    FF2.7
....................             } 
....................             displayMenu(Menus.Letra,20,0,1,1); 
06A9A:  MOVLW  04
06A9C:  MOVWF  xD8
06A9E:  MOVLW  17
06AA0:  MOVWF  xD7
06AA2:  MOVLW  14
06AA4:  MOVWF  xD9
06AA6:  CLRF   xDA
06AA8:  MOVLW  01
06AAA:  MOVWF  xDB
06AAC:  MOVWF  xDC
06AAE:  MOVLB  0
06AB0:  CALL   4C9A
....................             displayfloat(Temperatura,69,50,0,1); 
06AB4:  MOVLB  6
06AB6:  CLRF   x05
06AB8:  MOVFF  5C2,604
06ABC:  MOVLB  0
06ABE:  CALL   17F6
06AC2:  MOVFF  00,5CF
06AC6:  MOVFF  01,5D0
06ACA:  MOVFF  02,5D1
06ACE:  MOVFF  03,5D2
06AD2:  MOVFF  03,5D6
06AD6:  MOVFF  02,5D5
06ADA:  MOVFF  01,5D4
06ADE:  MOVFF  00,5D3
06AE2:  MOVLW  45
06AE4:  MOVLB  5
06AE6:  MOVWF  xD7
06AE8:  MOVLW  32
06AEA:  MOVWF  xD8
06AEC:  CLRF   xD9
06AEE:  MOVLW  01
06AF0:  MOVWF  xDA
06AF2:  MOVLB  0
06AF4:  CALL   59EA
....................             if(alarmaFiltro) 
06AF8:  MOVLB  4
06AFA:  BTFSS  x2F.6
06AFC:  BRA    6B02
....................                output_toggle(PIN_B1); 
06AFE:  BCF    F93.1
06B00:  BTG    F8A.1
....................             imprimir=0; 
06B02:  BCF    x2D.6
....................          } 
....................                    
....................          if(flag_blower==1){ 
06B04:  BTFSS  x2D.7
06B06:  BRA    6CAE
....................             glcd_imagen(5);tiempo_trabajo=1; 
06B08:  MOVLW  05
06B0A:  MOVLB  5
06B0C:  MOVWF  xCF
06B0E:  MOVLB  0
06B10:  CALL   5564
06B14:  MOVLB  4
06B16:  BSF    x2E.6
....................             if(guardatrabajo==1){ 
06B18:  BTFSS  x2F.1
06B1A:  BRA    6C9E
....................                VelocidadMotor(6); 
06B1C:  MOVLW  06
06B1E:  MOVLB  5
06B20:  MOVWF  xCF
06B22:  MOVLB  0
06B24:  CALL   1584
....................                guardatrabajo=0; 
06B28:  MOVLB  4
06B2A:  BCF    x2F.1
....................                write_eeprom(33,make8(minutos_trabajo,0)); 
06B2C:  MOVFF  4DB,5CF
06B30:  CLRF   FAA
06B32:  MOVLW  21
06B34:  MOVWF  FA9
06B36:  MOVFF  5CF,FA8
06B3A:  BCF    FA6.6
06B3C:  BCF    FA6.7
06B3E:  BSF    FA6.2
06B40:  MOVF   FF2,W
06B42:  MOVWF  00
06B44:  BCF    FF2.7
06B46:  MOVLB  F
06B48:  MOVLW  55
06B4A:  MOVWF  FA7
06B4C:  MOVLW  AA
06B4E:  MOVWF  FA7
06B50:  BSF    FA6.1
06B52:  BTFSC  FA6.1
06B54:  BRA    6B52
06B56:  BCF    FA6.2
06B58:  MOVF   00,W
06B5A:  IORWF  FF2,F
....................                delay_ms(20); 
06B5C:  MOVLW  14
06B5E:  MOVLB  5
06B60:  MOVWF  xE3
06B62:  MOVLB  0
06B64:  CALL   155C
....................                write_eeprom(34,make8(minutos_trabajo,1)); 
06B68:  MOVFF  4DC,5CF
06B6C:  CLRF   FAA
06B6E:  MOVLW  22
06B70:  MOVWF  FA9
06B72:  MOVFF  5CF,FA8
06B76:  BCF    FA6.6
06B78:  BCF    FA6.7
06B7A:  BSF    FA6.2
06B7C:  MOVF   FF2,W
06B7E:  MOVWF  00
06B80:  BCF    FF2.7
06B82:  MOVLB  F
06B84:  MOVLW  55
06B86:  MOVWF  FA7
06B88:  MOVLW  AA
06B8A:  MOVWF  FA7
06B8C:  BSF    FA6.1
06B8E:  BTFSC  FA6.1
06B90:  BRA    6B8E
06B92:  BCF    FA6.2
06B94:  MOVF   00,W
06B96:  IORWF  FF2,F
....................                delay_ms(20); 
06B98:  MOVLW  14
06B9A:  MOVLB  5
06B9C:  MOVWF  xE3
06B9E:  MOVLB  0
06BA0:  CALL   155C
....................                write_eeprom(16,Ttrabajo[0]); 
06BA4:  CLRF   FAA
06BA6:  MOVLW  10
06BA8:  MOVWF  FA9
06BAA:  MOVFF  4F7,FA8
06BAE:  BCF    FA6.6
06BB0:  BCF    FA6.7
06BB2:  BSF    FA6.2
06BB4:  MOVF   FF2,W
06BB6:  MOVWF  00
06BB8:  BCF    FF2.7
06BBA:  MOVLB  F
06BBC:  MOVLW  55
06BBE:  MOVWF  FA7
06BC0:  MOVLW  AA
06BC2:  MOVWF  FA7
06BC4:  BSF    FA6.1
06BC6:  BTFSC  FA6.1
06BC8:  BRA    6BC6
06BCA:  BCF    FA6.2
06BCC:  MOVF   00,W
06BCE:  IORWF  FF2,F
....................                delay_ms(20); 
06BD0:  MOVLW  14
06BD2:  MOVLB  5
06BD4:  MOVWF  xE3
06BD6:  MOVLB  0
06BD8:  CALL   155C
....................                write_eeprom(17,Ttrabajo[1]); 
06BDC:  CLRF   FAA
06BDE:  MOVLW  11
06BE0:  MOVWF  FA9
06BE2:  MOVFF  4F8,FA8
06BE6:  BCF    FA6.6
06BE8:  BCF    FA6.7
06BEA:  BSF    FA6.2
06BEC:  MOVF   FF2,W
06BEE:  MOVWF  00
06BF0:  BCF    FF2.7
06BF2:  MOVLB  F
06BF4:  MOVLW  55
06BF6:  MOVWF  FA7
06BF8:  MOVLW  AA
06BFA:  MOVWF  FA7
06BFC:  BSF    FA6.1
06BFE:  BTFSC  FA6.1
06C00:  BRA    6BFE
06C02:  BCF    FA6.2
06C04:  MOVF   00,W
06C06:  IORWF  FF2,F
....................                delay_ms(20); 
06C08:  MOVLW  14
06C0A:  MOVLB  5
06C0C:  MOVWF  xE3
06C0E:  MOVLB  0
06C10:  CALL   155C
....................                write_eeprom(18,Ttrabajo[2]); 
06C14:  CLRF   FAA
06C16:  MOVLW  12
06C18:  MOVWF  FA9
06C1A:  MOVFF  4F9,FA8
06C1E:  BCF    FA6.6
06C20:  BCF    FA6.7
06C22:  BSF    FA6.2
06C24:  MOVF   FF2,W
06C26:  MOVWF  00
06C28:  BCF    FF2.7
06C2A:  MOVLB  F
06C2C:  MOVLW  55
06C2E:  MOVWF  FA7
06C30:  MOVLW  AA
06C32:  MOVWF  FA7
06C34:  BSF    FA6.1
06C36:  BTFSC  FA6.1
06C38:  BRA    6C36
06C3A:  BCF    FA6.2
06C3C:  MOVF   00,W
06C3E:  IORWF  FF2,F
....................                delay_ms(20); 
06C40:  MOVLW  14
06C42:  MOVLB  5
06C44:  MOVWF  xE3
06C46:  MOVLB  0
06C48:  CALL   155C
....................                write_eeprom(19,Ttrabajo[3]); 
06C4C:  CLRF   FAA
06C4E:  MOVLW  13
06C50:  MOVWF  FA9
06C52:  MOVFF  4FA,FA8
06C56:  BCF    FA6.6
06C58:  BCF    FA6.7
06C5A:  BSF    FA6.2
06C5C:  MOVF   FF2,W
06C5E:  MOVWF  00
06C60:  BCF    FF2.7
06C62:  MOVLB  F
06C64:  MOVLW  55
06C66:  MOVWF  FA7
06C68:  MOVLW  AA
06C6A:  MOVWF  FA7
06C6C:  BSF    FA6.1
06C6E:  BTFSC  FA6.1
06C70:  BRA    6C6E
06C72:  BCF    FA6.2
06C74:  MOVF   00,W
06C76:  IORWF  FF2,F
....................                delay_ms(20); 
06C78:  MOVLW  14
06C7A:  MOVLB  5
06C7C:  MOVWF  xE3
06C7E:  MOVLB  0
06C80:  CALL   155C
....................                glcd_init(ON);             //Inicializa la glcd 
06C84:  MOVLW  01
06C86:  MOVLB  5
06C88:  MOVWF  xCF
06C8A:  MOVLB  0
06C8C:  CALL   174E
....................                glcd_fillScreen(OFF);      //Limpia la pantalla 
06C90:  MOVLB  5
06C92:  CLRF   xD7
06C94:  MOVLB  0
06C96:  CALL   163C
....................                glcd_update();   
06C9A:  CALL   1696
....................             } 
....................             VelocidadMotor(VelMotor); 
06C9E:  MOVFF  5C6,5CF
06CA2:  MOVLB  0
06CA4:  CALL   1584
....................             alarmaFiltro=OFF; 
06CA8:  MOVLB  4
06CAA:  BCF    x2F.6
....................          }else{ 
06CAC:  BRA    6E48
....................             Filtro_Downflow=0; 
06CAE:  MOVLB  5
06CB0:  CLRF   x0E
06CB2:  CLRF   x0D
06CB4:  CLRF   x0C
06CB6:  CLRF   x0B
....................             glcd_rect(102, 45, 126, 62, YES, OFF);tiempo_trabajo=0;VelocidadMotor(0); 
06CB8:  MOVLW  66
06CBA:  MOVWF  xE8
06CBC:  MOVLW  2D
06CBE:  MOVWF  xE9
06CC0:  MOVLW  7E
06CC2:  MOVWF  xEA
06CC4:  MOVLW  3E
06CC6:  MOVWF  xEB
06CC8:  MOVLW  01
06CCA:  MOVWF  xEC
06CCC:  CLRF   xED
06CCE:  MOVLB  0
06CD0:  CALL   4966
06CD4:  MOVLB  4
06CD6:  BCF    x2E.6
06CD8:  MOVLB  5
06CDA:  CLRF   xCF
06CDC:  MOVLB  0
06CDE:  CALL   1584
....................             if(guardatrabajo==0){ 
06CE2:  MOVLB  4
06CE4:  BTFSC  x2F.1
06CE6:  BRA    6E48
....................                guardatrabajo=1; 
06CE8:  BSF    x2F.1
....................                write_eeprom(33,make8(minutos_trabajo,0)); 
06CEA:  MOVFF  4DB,5CF
06CEE:  CLRF   FAA
06CF0:  MOVLW  21
06CF2:  MOVWF  FA9
06CF4:  MOVFF  5CF,FA8
06CF8:  BCF    FA6.6
06CFA:  BCF    FA6.7
06CFC:  BSF    FA6.2
06CFE:  MOVF   FF2,W
06D00:  MOVWF  00
06D02:  BCF    FF2.7
06D04:  MOVLB  F
06D06:  MOVLW  55
06D08:  MOVWF  FA7
06D0A:  MOVLW  AA
06D0C:  MOVWF  FA7
06D0E:  BSF    FA6.1
06D10:  BTFSC  FA6.1
06D12:  BRA    6D10
06D14:  BCF    FA6.2
06D16:  MOVF   00,W
06D18:  IORWF  FF2,F
....................                delay_ms(20); 
06D1A:  MOVLW  14
06D1C:  MOVLB  5
06D1E:  MOVWF  xE3
06D20:  MOVLB  0
06D22:  CALL   155C
....................                write_eeprom(34,make8(minutos_trabajo,1)); 
06D26:  MOVFF  4DC,5CF
06D2A:  CLRF   FAA
06D2C:  MOVLW  22
06D2E:  MOVWF  FA9
06D30:  MOVFF  5CF,FA8
06D34:  BCF    FA6.6
06D36:  BCF    FA6.7
06D38:  BSF    FA6.2
06D3A:  MOVF   FF2,W
06D3C:  MOVWF  00
06D3E:  BCF    FF2.7
06D40:  MOVLB  F
06D42:  MOVLW  55
06D44:  MOVWF  FA7
06D46:  MOVLW  AA
06D48:  MOVWF  FA7
06D4A:  BSF    FA6.1
06D4C:  BTFSC  FA6.1
06D4E:  BRA    6D4C
06D50:  BCF    FA6.2
06D52:  MOVF   00,W
06D54:  IORWF  FF2,F
....................                delay_ms(20); 
06D56:  MOVLW  14
06D58:  MOVLB  5
06D5A:  MOVWF  xE3
06D5C:  MOVLB  0
06D5E:  CALL   155C
....................                write_eeprom(16,Ttrabajo[0]); 
06D62:  CLRF   FAA
06D64:  MOVLW  10
06D66:  MOVWF  FA9
06D68:  MOVFF  4F7,FA8
06D6C:  BCF    FA6.6
06D6E:  BCF    FA6.7
06D70:  BSF    FA6.2
06D72:  MOVF   FF2,W
06D74:  MOVWF  00
06D76:  BCF    FF2.7
06D78:  MOVLB  F
06D7A:  MOVLW  55
06D7C:  MOVWF  FA7
06D7E:  MOVLW  AA
06D80:  MOVWF  FA7
06D82:  BSF    FA6.1
06D84:  BTFSC  FA6.1
06D86:  BRA    6D84
06D88:  BCF    FA6.2
06D8A:  MOVF   00,W
06D8C:  IORWF  FF2,F
....................                delay_ms(20); 
06D8E:  MOVLW  14
06D90:  MOVLB  5
06D92:  MOVWF  xE3
06D94:  MOVLB  0
06D96:  CALL   155C
....................                write_eeprom(17,Ttrabajo[1]); 
06D9A:  CLRF   FAA
06D9C:  MOVLW  11
06D9E:  MOVWF  FA9
06DA0:  MOVFF  4F8,FA8
06DA4:  BCF    FA6.6
06DA6:  BCF    FA6.7
06DA8:  BSF    FA6.2
06DAA:  MOVF   FF2,W
06DAC:  MOVWF  00
06DAE:  BCF    FF2.7
06DB0:  MOVLB  F
06DB2:  MOVLW  55
06DB4:  MOVWF  FA7
06DB6:  MOVLW  AA
06DB8:  MOVWF  FA7
06DBA:  BSF    FA6.1
06DBC:  BTFSC  FA6.1
06DBE:  BRA    6DBC
06DC0:  BCF    FA6.2
06DC2:  MOVF   00,W
06DC4:  IORWF  FF2,F
....................                delay_ms(20); 
06DC6:  MOVLW  14
06DC8:  MOVLB  5
06DCA:  MOVWF  xE3
06DCC:  MOVLB  0
06DCE:  CALL   155C
....................                write_eeprom(18,Ttrabajo[2]); 
06DD2:  CLRF   FAA
06DD4:  MOVLW  12
06DD6:  MOVWF  FA9
06DD8:  MOVFF  4F9,FA8
06DDC:  BCF    FA6.6
06DDE:  BCF    FA6.7
06DE0:  BSF    FA6.2
06DE2:  MOVF   FF2,W
06DE4:  MOVWF  00
06DE6:  BCF    FF2.7
06DE8:  MOVLB  F
06DEA:  MOVLW  55
06DEC:  MOVWF  FA7
06DEE:  MOVLW  AA
06DF0:  MOVWF  FA7
06DF2:  BSF    FA6.1
06DF4:  BTFSC  FA6.1
06DF6:  BRA    6DF4
06DF8:  BCF    FA6.2
06DFA:  MOVF   00,W
06DFC:  IORWF  FF2,F
....................                delay_ms(20); 
06DFE:  MOVLW  14
06E00:  MOVLB  5
06E02:  MOVWF  xE3
06E04:  MOVLB  0
06E06:  CALL   155C
....................                write_eeprom(19,Ttrabajo[3]); 
06E0A:  CLRF   FAA
06E0C:  MOVLW  13
06E0E:  MOVWF  FA9
06E10:  MOVFF  4FA,FA8
06E14:  BCF    FA6.6
06E16:  BCF    FA6.7
06E18:  BSF    FA6.2
06E1A:  MOVF   FF2,W
06E1C:  MOVWF  00
06E1E:  BCF    FF2.7
06E20:  MOVLB  F
06E22:  MOVLW  55
06E24:  MOVWF  FA7
06E26:  MOVLW  AA
06E28:  MOVWF  FA7
06E2A:  BSF    FA6.1
06E2C:  BTFSC  FA6.1
06E2E:  BRA    6E2C
06E30:  BCF    FA6.2
06E32:  MOVF   00,W
06E34:  IORWF  FF2,F
....................                delay_ms(20); 
06E36:  MOVLW  14
06E38:  MOVLB  5
06E3A:  MOVWF  xE3
06E3C:  MOVLB  0
06E3E:  CALL   155C
....................                //glcd_init(ON);             //Inicializa la glcd 
....................                //glcd_fillScreen(OFF);      //Limpia la pantalla 
....................                glcd_update();   
06E42:  CALL   1696
06E46:  MOVLB  4
....................             } 
....................          } 
....................           
....................          if(flag_luz==1){ 
06E48:  BTFSS  x2E.1
06E4A:  BRA    6E60
....................             glcd_imagen(3);LuzBlanca_on; 
06E4C:  MOVLW  03
06E4E:  MOVLB  5
06E50:  MOVWF  xCF
06E52:  MOVLB  0
06E54:  CALL   5564
06E58:  BSF    F8B.0
06E5A:  BCF    F94.0
....................          }else{ 
06E5C:  BRA    6E82
06E5E:  MOVLB  4
....................             glcd_rect(102, 14, 126, 28, YES, OFF);LuzBlanca_off; 
06E60:  MOVLW  66
06E62:  MOVLB  5
06E64:  MOVWF  xE8
06E66:  MOVLW  0E
06E68:  MOVWF  xE9
06E6A:  MOVLW  7E
06E6C:  MOVWF  xEA
06E6E:  MOVLW  1C
06E70:  MOVWF  xEB
06E72:  MOVLW  01
06E74:  MOVWF  xEC
06E76:  CLRF   xED
06E78:  MOVLB  0
06E7A:  CALL   4966
06E7E:  BCF    F8B.0
06E80:  BCF    F94.0
....................          } 
....................           
....................       if(LEFT){//Si oprime boton de Luz UV.          
06E82:  BSF    F96.2
06E84:  BTFSC  F84.2
06E86:  BRA    6EA4
....................          if(Flanco4 == 0){ 
06E88:  MOVLB  4
06E8A:  BTFSC  x2D.4
06E8C:  BRA    6EA0
....................             Flanco4 = 1;delay_ms(3);flag_blower=!flag_blower; 
06E8E:  BSF    x2D.4
06E90:  MOVLW  03
06E92:  MOVLB  5
06E94:  MOVWF  xE3
06E96:  MOVLB  0
06E98:  CALL   155C
06E9C:  MOVLB  4
06E9E:  BTG    x2D.7
....................          } 
....................       }else{ 
06EA0:  BRA    6EA8
06EA2:  MOVLB  0
....................          Flanco4 = 0; 
06EA4:  MOVLB  4
06EA6:  BCF    x2D.4
....................       } 
....................           
....................       if(RIGHT){//Si oprime boton de Blower. 
06EA8:  BSF    F96.1
06EAA:  BTFSC  F84.1
06EAC:  BRA    6ED4
....................          if(Flanco3 == 0){ 
06EAE:  BTFSC  x2D.3
06EB0:  BRA    6ED2
....................             Flanco3 = 1;delay_ms(3);Menu=33;glcd_fillScreen(OFF);      //Limpia la pantalla 
06EB2:  BSF    x2D.3
06EB4:  MOVLW  03
06EB6:  MOVLB  5
06EB8:  MOVWF  xE3
06EBA:  MOVLB  0
06EBC:  CALL   155C
06EC0:  MOVLW  21
06EC2:  MOVLB  4
06EC4:  MOVWF  xC3
06EC6:  MOVLB  5
06EC8:  CLRF   xD7
06ECA:  MOVLB  0
06ECC:  CALL   163C
06ED0:  MOVLB  4
....................          } 
....................       }else{ 
06ED2:  BRA    6ED6
....................          Flanco3 = 0; 
06ED4:  BCF    x2D.3
....................       } 
....................              
....................       if(DOWN){//Si oprime boton de Luz Blanca. 
06ED6:  BSF    F96.0
06ED8:  BTFSC  F84.0
06EDA:  BRA    6EF4
....................          if(Flanco5 == 0){ 
06EDC:  BTFSC  x2D.5
06EDE:  BRA    6EF2
....................             Flanco5 = 1;delay_ms(3);flag_luz=!flag_luz; 
06EE0:  BSF    x2D.5
06EE2:  MOVLW  03
06EE4:  MOVLB  5
06EE6:  MOVWF  xE3
06EE8:  MOVLB  0
06EEA:  CALL   155C
06EEE:  MOVLB  4
06EF0:  BTG    x2E.1
....................          } 
....................       }else{ 
06EF2:  BRA    6EF6
....................          Flanco5 = 0; 
06EF4:  BCF    x2D.5
....................       } 
....................        
....................       if(UP){//Si oprime boton de Toma. 
06EF6:  BSF    F92.5
06EF8:  BTFSC  F80.5
06EFA:  BRA    6F40
....................          delay_ms(20); 
06EFC:  MOVLW  14
06EFE:  MOVLB  5
06F00:  MOVWF  xE3
06F02:  MOVLB  0
06F04:  CALL   155C
....................          if(UP){//Si oprime boton de Toma. 
06F08:  BSF    F92.5
06F0A:  BTFSC  F80.5
06F0C:  BRA    6F3E
....................             delay_ms(5);Menu=3;//glcd_fillScreen(OFF); 
06F0E:  MOVLW  05
06F10:  MOVLB  5
06F12:  MOVWF  xE3
06F14:  MOVLB  0
06F16:  CALL   155C
06F1A:  MOVLW  03
06F1C:  MOVLB  4
06F1E:  MOVWF  xC3
....................             glcd_init(ON);             //Inicializa la glcd 
06F20:  MOVLW  01
06F22:  MOVLB  5
06F24:  MOVWF  xCF
06F26:  MOVLB  0
06F28:  CALL   174E
....................             glcd_fillScreen(OFF);      //Limpia la pantalla 
06F2C:  MOVLB  5
06F2E:  CLRF   xD7
06F30:  MOVLB  0
06F32:  CALL   163C
....................             glcd_update();   
06F36:  CALL   1696
....................             LuzBlanca_off; 
06F3A:  BCF    F8B.0
06F3C:  BCF    F94.0
06F3E:  MOVLB  4
....................          } 
....................       } 
....................              
....................     } 
.................... //_--------------------------------------------------------------------------------------------------------------------------------------------------------        
....................  
.................... //_-------------------------------------------------------------------------------------------------------------------------------------------------------- 
....................       if(Menu==3){ //Menu Principal. 
06F40:  MOVF   xC3,W
06F42:  SUBLW  03
06F44:  BTFSS  FD8.2
06F46:  BRA    722A
....................              
....................       strcpy(Menus.Letra,"Menu"); 
06F48:  MOVLW  04
06F4A:  MOVWF  FEA
06F4C:  MOVLW  17
06F4E:  MOVWF  FE9
06F50:  MOVFF  FF2,5CF
06F54:  BCF    FF2.7
06F56:  MOVLW  00
06F58:  MOVLB  0
06F5A:  CALL   0FDE
06F5E:  TBLRD*-
06F60:  TBLRD*+
06F62:  MOVF   FF5,W
06F64:  MOVWF  FEE
06F66:  IORLW  00
06F68:  BNZ   6F60
06F6A:  MOVLB  5
06F6C:  BTFSC  xCF.7
06F6E:  BSF    FF2.7
....................       displayMenu(Menus.Letra,40,0,1,2); 
06F70:  MOVLW  04
06F72:  MOVWF  xD8
06F74:  MOVLW  17
06F76:  MOVWF  xD7
06F78:  MOVLW  28
06F7A:  MOVWF  xD9
06F7C:  CLRF   xDA
06F7E:  MOVLW  01
06F80:  MOVWF  xDB
06F82:  MOVLW  02
06F84:  MOVWF  xDC
06F86:  MOVLB  0
06F88:  CALL   4C9A
....................        
....................       if(Opcion==1){ 
06F8C:  MOVLB  4
06F8E:  DECFSZ xC5,W
06F90:  BRA    6FD8
....................          strcpy(Menus.Letra,"Ajustes"); 
06F92:  MOVLW  04
06F94:  MOVWF  FEA
06F96:  MOVLW  17
06F98:  MOVWF  FE9
06F9A:  MOVFF  FF2,5CF
06F9E:  BCF    FF2.7
06FA0:  MOVLW  00
06FA2:  MOVLB  0
06FA4:  CALL   1002
06FA8:  TBLRD*-
06FAA:  TBLRD*+
06FAC:  MOVF   FF5,W
06FAE:  MOVWF  FEE
06FB0:  IORLW  00
06FB2:  BNZ   6FAA
06FB4:  MOVLB  5
06FB6:  BTFSC  xCF.7
06FB8:  BSF    FF2.7
....................          displayMenu(Menus.Letra,0,19,1,1); 
06FBA:  MOVLW  04
06FBC:  MOVWF  xD8
06FBE:  MOVLW  17
06FC0:  MOVWF  xD7
06FC2:  CLRF   xD9
06FC4:  MOVLW  13
06FC6:  MOVWF  xDA
06FC8:  MOVLW  01
06FCA:  MOVWF  xDB
06FCC:  MOVWF  xDC
06FCE:  MOVLB  0
06FD0:  CALL   4C9A
....................       }else{ 
06FD4:  BRA    701A
06FD6:  MOVLB  4
....................          strcpy(Menus.Letra,"Ajustes"); 
06FD8:  MOVLW  04
06FDA:  MOVWF  FEA
06FDC:  MOVLW  17
06FDE:  MOVWF  FE9
06FE0:  MOVFF  FF2,5CF
06FE4:  BCF    FF2.7
06FE6:  MOVLW  00
06FE8:  MOVLB  0
06FEA:  CALL   1002
06FEE:  TBLRD*-
06FF0:  TBLRD*+
06FF2:  MOVF   FF5,W
06FF4:  MOVWF  FEE
06FF6:  IORLW  00
06FF8:  BNZ   6FF0
06FFA:  MOVLB  5
06FFC:  BTFSC  xCF.7
06FFE:  BSF    FF2.7
....................          displayMenu(Menus.Letra,0,19,0,1); 
07000:  MOVLW  04
07002:  MOVWF  xD8
07004:  MOVLW  17
07006:  MOVWF  xD7
07008:  CLRF   xD9
0700A:  MOVLW  13
0700C:  MOVWF  xDA
0700E:  CLRF   xDB
07010:  MOVLW  01
07012:  MOVWF  xDC
07014:  MOVLB  0
07016:  CALL   4C9A
....................       } 
....................           
....................       if(Opcion==2){ 
0701A:  MOVLB  4
0701C:  MOVF   xC5,W
0701E:  SUBLW  02
07020:  BNZ   7068
....................          strcpy(Menus.Letra,"Cambio de Clave"); 
07022:  MOVLW  04
07024:  MOVWF  FEA
07026:  MOVLW  17
07028:  MOVWF  FE9
0702A:  MOVFF  FF2,5CF
0702E:  BCF    FF2.7
07030:  MOVLW  00
07032:  MOVLB  0
07034:  CALL   1028
07038:  TBLRD*-
0703A:  TBLRD*+
0703C:  MOVF   FF5,W
0703E:  MOVWF  FEE
07040:  IORLW  00
07042:  BNZ   703A
07044:  MOVLB  5
07046:  BTFSC  xCF.7
07048:  BSF    FF2.7
....................          displayMenu(Menus.Letra,0,35,1,1); 
0704A:  MOVLW  04
0704C:  MOVWF  xD8
0704E:  MOVLW  17
07050:  MOVWF  xD7
07052:  CLRF   xD9
07054:  MOVLW  23
07056:  MOVWF  xDA
07058:  MOVLW  01
0705A:  MOVWF  xDB
0705C:  MOVWF  xDC
0705E:  MOVLB  0
07060:  CALL   4C9A
....................       }else{ 
07064:  BRA    70AA
07066:  MOVLB  4
....................          strcpy(Menus.Letra,"Cambio de Clave"); 
07068:  MOVLW  04
0706A:  MOVWF  FEA
0706C:  MOVLW  17
0706E:  MOVWF  FE9
07070:  MOVFF  FF2,5CF
07074:  BCF    FF2.7
07076:  MOVLW  00
07078:  MOVLB  0
0707A:  CALL   1028
0707E:  TBLRD*-
07080:  TBLRD*+
07082:  MOVF   FF5,W
07084:  MOVWF  FEE
07086:  IORLW  00
07088:  BNZ   7080
0708A:  MOVLB  5
0708C:  BTFSC  xCF.7
0708E:  BSF    FF2.7
....................          displayMenu(Menus.Letra,0,35,0,1); 
07090:  MOVLW  04
07092:  MOVWF  xD8
07094:  MOVLW  17
07096:  MOVWF  xD7
07098:  CLRF   xD9
0709A:  MOVLW  23
0709C:  MOVWF  xDA
0709E:  CLRF   xDB
070A0:  MOVLW  01
070A2:  MOVWF  xDC
070A4:  MOVLB  0
070A6:  CALL   4C9A
....................       } 
....................           
....................       if(Opcion==3){ 
070AA:  MOVLB  4
070AC:  MOVF   xC5,W
070AE:  SUBLW  03
070B0:  BNZ   70F8
....................          strcpy(Menus.Letra,"Modo"); 
070B2:  MOVLW  04
070B4:  MOVWF  FEA
070B6:  MOVLW  17
070B8:  MOVWF  FE9
070BA:  MOVFF  FF2,5CF
070BE:  BCF    FF2.7
070C0:  MOVLW  00
070C2:  MOVLB  0
070C4:  CALL   1056
070C8:  TBLRD*-
070CA:  TBLRD*+
070CC:  MOVF   FF5,W
070CE:  MOVWF  FEE
070D0:  IORLW  00
070D2:  BNZ   70CA
070D4:  MOVLB  5
070D6:  BTFSC  xCF.7
070D8:  BSF    FF2.7
....................          displayMenu(Menus.Letra,0,51,1,1); 
070DA:  MOVLW  04
070DC:  MOVWF  xD8
070DE:  MOVLW  17
070E0:  MOVWF  xD7
070E2:  CLRF   xD9
070E4:  MOVLW  33
070E6:  MOVWF  xDA
070E8:  MOVLW  01
070EA:  MOVWF  xDB
070EC:  MOVWF  xDC
070EE:  MOVLB  0
070F0:  CALL   4C9A
....................       }else{ 
070F4:  BRA    713A
070F6:  MOVLB  4
....................          strcpy(Menus.Letra,"Modo"); 
070F8:  MOVLW  04
070FA:  MOVWF  FEA
070FC:  MOVLW  17
070FE:  MOVWF  FE9
07100:  MOVFF  FF2,5CF
07104:  BCF    FF2.7
07106:  MOVLW  00
07108:  MOVLB  0
0710A:  CALL   1056
0710E:  TBLRD*-
07110:  TBLRD*+
07112:  MOVF   FF5,W
07114:  MOVWF  FEE
07116:  IORLW  00
07118:  BNZ   7110
0711A:  MOVLB  5
0711C:  BTFSC  xCF.7
0711E:  BSF    FF2.7
....................          displayMenu(Menus.Letra,0,51,0,1); 
07120:  MOVLW  04
07122:  MOVWF  xD8
07124:  MOVLW  17
07126:  MOVWF  xD7
07128:  CLRF   xD9
0712A:  MOVLW  33
0712C:  MOVWF  xDA
0712E:  CLRF   xDB
07130:  MOVLW  01
07132:  MOVWF  xDC
07134:  MOVLB  0
07136:  CALL   4C9A
....................       } 
....................       glcd_update();  
0713A:  CALL   1696
....................        
....................       if(w==0){ 
0713E:  MOVLB  4
07140:  BTFSC  x2E.3
07142:  BRA    715E
....................          delay_ms(500);w=1; 
07144:  MOVLW  02
07146:  MOVLB  5
07148:  MOVWF  xCF
0714A:  MOVLW  FA
0714C:  MOVWF  xE3
0714E:  MOVLB  0
07150:  CALL   155C
07154:  MOVLB  5
07156:  DECFSZ xCF,F
07158:  BRA    714A
0715A:  MOVLB  4
0715C:  BSF    x2E.3
....................       } 
....................           
....................       if(UP){//Si oprime hacia arriba         
0715E:  BSF    F92.5
07160:  BTFSC  F80.5
07162:  BRA    717C
....................          if(Flanco == 0){ 
07164:  BTFSC  x2D.0
07166:  BRA    717A
....................             Flanco = 1;delay_ms(30);Opcion--; 
07168:  BSF    x2D.0
0716A:  MOVLW  1E
0716C:  MOVLB  5
0716E:  MOVWF  xE3
07170:  MOVLB  0
07172:  CALL   155C
07176:  MOVLB  4
07178:  DECF   xC5,F
....................          } 
....................       }else{ 
0717A:  BRA    717E
....................          Flanco = 0; 
0717C:  BCF    x2D.0
....................       } 
....................              
....................       if(DOWN){//Si oprime hacia abajo 
0717E:  BSF    F96.0
07180:  BTFSC  F84.0
07182:  BRA    719C
....................          if(Flanco2 == 0){ 
07184:  BTFSC  x2D.2
07186:  BRA    719A
....................             Flanco2 = 1;delay_ms(30);Opcion++; 
07188:  BSF    x2D.2
0718A:  MOVLW  1E
0718C:  MOVLB  5
0718E:  MOVWF  xE3
07190:  MOVLB  0
07192:  CALL   155C
07196:  MOVLB  4
07198:  INCF   xC5,F
....................          } 
....................       }else{ 
0719A:  BRA    719E
....................          Flanco2 = 0; 
0719C:  BCF    x2D.2
....................       } 
....................              
....................       if(RIGHT){//Si oprime SET 
0719E:  BSF    F96.1
071A0:  BTFSC  F84.1
071A2:  BRA    71E8
....................          if(Flanco1 == 0){ 
071A4:  BTFSC  x2D.1
071A6:  BRA    71E6
....................             Flanco1 = 1;delay_ms(500);Menu=Opcion+3;Opcion=1;glcd_fillscreen(OFF);unidad=1; 
071A8:  BSF    x2D.1
071AA:  MOVLW  02
071AC:  MOVLB  5
071AE:  MOVWF  xCF
071B0:  MOVLW  FA
071B2:  MOVWF  xE3
071B4:  MOVLB  0
071B6:  CALL   155C
071BA:  MOVLB  5
071BC:  DECFSZ xCF,F
071BE:  BRA    71B0
071C0:  MOVLW  03
071C2:  MOVLB  4
071C4:  ADDWF  xC5,W
071C6:  MOVWF  xC3
071C8:  MOVLW  01
071CA:  MOVWF  xC5
071CC:  MOVLB  5
071CE:  CLRF   xD7
071D0:  MOVLB  0
071D2:  CALL   163C
071D6:  MOVLW  01
071D8:  MOVLB  4
071DA:  MOVWF  xC4
....................             Contrasena[0]=0;Contrasena[1]=0;Contrasena[2]=0;Contrasena[3]=0;n=0; 
071DC:  CLRF   xFB
071DE:  CLRF   xFC
071E0:  CLRF   xFD
071E2:  CLRF   xFE
071E4:  BCF    x2F.3
....................          } 
....................       }else{ 
071E6:  BRA    71EA
....................          Flanco1 = 0; 
071E8:  BCF    x2D.1
....................       } 
....................              
....................       if(LEFT){//Si oprime boton de Toma. 
071EA:  BSF    F96.2
071EC:  BTFSC  F84.2
071EE:  BRA    7218
....................          delay_ms(700);Menu=2;glcd_fillscreen(OFF); 
071F0:  MOVLW  04
071F2:  MOVLB  5
071F4:  MOVWF  xCF
071F6:  MOVLW  AF
071F8:  MOVWF  xE3
071FA:  MOVLB  0
071FC:  CALL   155C
07200:  MOVLB  5
07202:  DECFSZ xCF,F
07204:  BRA    71F6
07206:  MOVLW  02
07208:  MOVLB  4
0720A:  MOVWF  xC3
0720C:  MOVLB  5
0720E:  CLRF   xD7
07210:  MOVLB  0
07212:  CALL   163C
07216:  MOVLB  4
....................       } 
....................              
....................       if(Opcion>3) 
07218:  MOVF   xC5,W
0721A:  SUBLW  03
0721C:  BC    7222
....................          Opcion=1; 
0721E:  MOVLW  01
07220:  MOVWF  xC5
....................       if(Opcion<1) 
07222:  MOVF   xC5,F
07224:  BNZ   722A
....................          Opcion=3; 
07226:  MOVLW  03
07228:  MOVWF  xC5
....................     } 
.................... //_--------------------------------------------------------------------------------------------------------------------------------------------------------        
....................  
.................... //_-------------------------------------------------------------------------------------------------------------------------------------------------------- 
....................       if(Menu==4){ //Menu de Ajustes. 
0722A:  MOVF   xC3,W
0722C:  SUBLW  04
0722E:  BTFSS  FD8.2
07230:  BRA    74E0
....................        
....................       strcpy(Menus.Letra,"Ajustes"); 
07232:  MOVLW  04
07234:  MOVWF  FEA
07236:  MOVLW  17
07238:  MOVWF  FE9
0723A:  MOVFF  FF2,5CF
0723E:  BCF    FF2.7
07240:  MOVLW  00
07242:  MOVLB  0
07244:  CALL   1002
07248:  TBLRD*-
0724A:  TBLRD*+
0724C:  MOVF   FF5,W
0724E:  MOVWF  FEE
07250:  IORLW  00
07252:  BNZ   724A
07254:  MOVLB  5
07256:  BTFSC  xCF.7
07258:  BSF    FF2.7
....................       displayMenu(Menus.Letra,0,0,1,2); 
0725A:  MOVLW  04
0725C:  MOVWF  xD8
0725E:  MOVLW  17
07260:  MOVWF  xD7
07262:  CLRF   xD9
07264:  CLRF   xDA
07266:  MOVLW  01
07268:  MOVWF  xDB
0726A:  MOVLW  02
0726C:  MOVWF  xDC
0726E:  MOVLB  0
07270:  CALL   4C9A
....................        
....................       if(Opcion==1)    
07274:  MOVLB  4
07276:  DECFSZ xC5,W
07278:  BRA    72C0
....................          {strcpy(Menus.Letra,"Tiempo Purga"); 
0727A:  MOVLW  04
0727C:  MOVWF  FEA
0727E:  MOVLW  17
07280:  MOVWF  FE9
07282:  MOVFF  FF2,5CF
07286:  BCF    FF2.7
07288:  MOVLW  00
0728A:  MOVLB  0
0728C:  CALL   107A
07290:  TBLRD*-
07292:  TBLRD*+
07294:  MOVF   FF5,W
07296:  MOVWF  FEE
07298:  IORLW  00
0729A:  BNZ   7292
0729C:  MOVLB  5
0729E:  BTFSC  xCF.7
072A0:  BSF    FF2.7
....................          displayMenu(Menus.Letra,0,20,1,1);} 
072A2:  MOVLW  04
072A4:  MOVWF  xD8
072A6:  MOVLW  17
072A8:  MOVWF  xD7
072AA:  CLRF   xD9
072AC:  MOVLW  14
072AE:  MOVWF  xDA
072B0:  MOVLW  01
072B2:  MOVWF  xDB
072B4:  MOVWF  xDC
072B6:  MOVLB  0
072B8:  CALL   4C9A
....................       else 
072BC:  BRA    7302
072BE:  MOVLB  4
....................          {strcpy(Menus.Letra,"Tiempo Purga"); 
072C0:  MOVLW  04
072C2:  MOVWF  FEA
072C4:  MOVLW  17
072C6:  MOVWF  FE9
072C8:  MOVFF  FF2,5CF
072CC:  BCF    FF2.7
072CE:  MOVLW  00
072D0:  MOVLB  0
072D2:  CALL   107A
072D6:  TBLRD*-
072D8:  TBLRD*+
072DA:  MOVF   FF5,W
072DC:  MOVWF  FEE
072DE:  IORLW  00
072E0:  BNZ   72D8
072E2:  MOVLB  5
072E4:  BTFSC  xCF.7
072E6:  BSF    FF2.7
....................          displayMenu(Menus.Letra,0,20,0,1);}              
072E8:  MOVLW  04
072EA:  MOVWF  xD8
072EC:  MOVLW  17
072EE:  MOVWF  xD7
072F0:  CLRF   xD9
072F2:  MOVLW  14
072F4:  MOVWF  xDA
072F6:  CLRF   xDB
072F8:  MOVLW  01
072FA:  MOVWF  xDC
072FC:  MOVLB  0
072FE:  CALL   4C9A
....................        
....................       if(Opcion==2)    
07302:  MOVLB  4
07304:  MOVF   xC5,W
07306:  SUBLW  02
07308:  BNZ   7350
....................          {strcpy(Menus.Letra,"Tiempo Post-Purga"); 
0730A:  MOVLW  04
0730C:  MOVWF  FEA
0730E:  MOVLW  17
07310:  MOVWF  FE9
07312:  MOVFF  FF2,5CF
07316:  BCF    FF2.7
07318:  MOVLW  00
0731A:  MOVLB  0
0731C:  CALL   10A6
07320:  TBLRD*-
07322:  TBLRD*+
07324:  MOVF   FF5,W
07326:  MOVWF  FEE
07328:  IORLW  00
0732A:  BNZ   7322
0732C:  MOVLB  5
0732E:  BTFSC  xCF.7
07330:  BSF    FF2.7
....................          displayMenu(Menus.Letra,0,35,1,1);} 
07332:  MOVLW  04
07334:  MOVWF  xD8
07336:  MOVLW  17
07338:  MOVWF  xD7
0733A:  CLRF   xD9
0733C:  MOVLW  23
0733E:  MOVWF  xDA
07340:  MOVLW  01
07342:  MOVWF  xDB
07344:  MOVWF  xDC
07346:  MOVLB  0
07348:  CALL   4C9A
....................       else 
0734C:  BRA    7392
0734E:  MOVLB  4
....................          {strcpy(Menus.Letra,"Tiempo Post-Purga"); 
07350:  MOVLW  04
07352:  MOVWF  FEA
07354:  MOVLW  17
07356:  MOVWF  FE9
07358:  MOVFF  FF2,5CF
0735C:  BCF    FF2.7
0735E:  MOVLW  00
07360:  MOVLB  0
07362:  CALL   10A6
07366:  TBLRD*-
07368:  TBLRD*+
0736A:  MOVF   FF5,W
0736C:  MOVWF  FEE
0736E:  IORLW  00
07370:  BNZ   7368
07372:  MOVLB  5
07374:  BTFSC  xCF.7
07376:  BSF    FF2.7
....................          displayMenu(Menus.Letra,0,35,0,1);} 
07378:  MOVLW  04
0737A:  MOVWF  xD8
0737C:  MOVLW  17
0737E:  MOVWF  xD7
07380:  CLRF   xD9
07382:  MOVLW  23
07384:  MOVWF  xDA
07386:  CLRF   xDB
07388:  MOVLW  01
0738A:  MOVWF  xDC
0738C:  MOVLB  0
0738E:  CALL   4C9A
....................        
....................       if(Opcion==3)    
07392:  MOVLB  4
07394:  MOVF   xC5,W
07396:  SUBLW  03
07398:  BNZ   73E0
....................          {strcpy(Menus.Letra,"Luz UV"); 
0739A:  MOVLW  04
0739C:  MOVWF  FEA
0739E:  MOVLW  17
073A0:  MOVWF  FE9
073A2:  MOVFF  FF2,5CF
073A6:  BCF    FF2.7
073A8:  MOVLW  00
073AA:  MOVLB  0
073AC:  CALL   10D6
073B0:  TBLRD*-
073B2:  TBLRD*+
073B4:  MOVF   FF5,W
073B6:  MOVWF  FEE
073B8:  IORLW  00
073BA:  BNZ   73B2
073BC:  MOVLB  5
073BE:  BTFSC  xCF.7
073C0:  BSF    FF2.7
....................          displayMenu(Menus.Letra,0,50,1,1);} 
073C2:  MOVLW  04
073C4:  MOVWF  xD8
073C6:  MOVLW  17
073C8:  MOVWF  xD7
073CA:  CLRF   xD9
073CC:  MOVLW  32
073CE:  MOVWF  xDA
073D0:  MOVLW  01
073D2:  MOVWF  xDB
073D4:  MOVWF  xDC
073D6:  MOVLB  0
073D8:  CALL   4C9A
....................       else 
073DC:  BRA    7422
073DE:  MOVLB  4
....................          {strcpy(Menus.Letra,"Luz UV"); 
073E0:  MOVLW  04
073E2:  MOVWF  FEA
073E4:  MOVLW  17
073E6:  MOVWF  FE9
073E8:  MOVFF  FF2,5CF
073EC:  BCF    FF2.7
073EE:  MOVLW  00
073F0:  MOVLB  0
073F2:  CALL   10D6
073F6:  TBLRD*-
073F8:  TBLRD*+
073FA:  MOVF   FF5,W
073FC:  MOVWF  FEE
073FE:  IORLW  00
07400:  BNZ   73F8
07402:  MOVLB  5
07404:  BTFSC  xCF.7
07406:  BSF    FF2.7
....................          displayMenu(Menus.Letra,0,50,0,1);}    
07408:  MOVLW  04
0740A:  MOVWF  xD8
0740C:  MOVLW  17
0740E:  MOVWF  xD7
07410:  CLRF   xD9
07412:  MOVLW  32
07414:  MOVWF  xDA
07416:  CLRF   xDB
07418:  MOVLW  01
0741A:  MOVWF  xDC
0741C:  MOVLB  0
0741E:  CALL   4C9A
....................           
....................       if(UP)//Si oprime hacia arriba 
07422:  BSF    F92.5
07424:  BTFSC  F80.5
07426:  BRA    7442
....................       {  if(Flanco == 0)  
07428:  MOVLB  4
0742A:  BTFSC  x2D.0
0742C:  BRA    7440
....................             {Flanco = 1;delay_ms(30);Opcion--; 
0742E:  BSF    x2D.0
07430:  MOVLW  1E
07432:  MOVLB  5
07434:  MOVWF  xE3
07436:  MOVLB  0
07438:  CALL   155C
0743C:  MOVLB  4
0743E:  DECF   xC5,F
....................             } 
....................       } 
....................          else 
07440:  BRA    7446
....................             {Flanco = 0;} 
07442:  MOVLB  4
07444:  BCF    x2D.0
....................              
....................       if(DOWN)//Si oprime hacia abajo 
07446:  BSF    F96.0
07448:  BTFSC  F84.0
0744A:  BRA    7464
....................       {  if(Flanco2 == 0)  
0744C:  BTFSC  x2D.2
0744E:  BRA    7462
....................             {Flanco2 = 1;delay_ms(30);Opcion++; 
07450:  BSF    x2D.2
07452:  MOVLW  1E
07454:  MOVLB  5
07456:  MOVWF  xE3
07458:  MOVLB  0
0745A:  CALL   155C
0745E:  MOVLB  4
07460:  INCF   xC5,F
....................             }      
....................       } 
....................          else 
07462:  BRA    7466
....................             {Flanco2 = 0;}   
07464:  BCF    x2D.2
....................              
....................       if(RIGHT)//Si oprime SET 
07466:  BSF    F96.1
07468:  BTFSC  F84.1
0746A:  BRA    749E
....................       {  if(Flanco1 == 0)  
0746C:  BTFSC  x2D.1
0746E:  BRA    749C
....................             {Flanco1 = 1;delay_ms(500);Menu=Opcion+10;glcd_fillScreen(OFF); 
07470:  BSF    x2D.1
07472:  MOVLW  02
07474:  MOVLB  5
07476:  MOVWF  xCF
07478:  MOVLW  FA
0747A:  MOVWF  xE3
0747C:  MOVLB  0
0747E:  CALL   155C
07482:  MOVLB  5
07484:  DECFSZ xCF,F
07486:  BRA    7478
07488:  MOVLW  0A
0748A:  MOVLB  4
0748C:  ADDWF  xC5,W
0748E:  MOVWF  xC3
07490:  MOVLB  5
07492:  CLRF   xD7
07494:  MOVLB  0
07496:  CALL   163C
0749A:  MOVLB  4
....................             } 
....................       } 
....................          else 
0749C:  BRA    74A0
....................             {Flanco1 = 0;}   
0749E:  BCF    x2D.1
....................              
....................       if(LEFT)//Si oprime boton de Toma. 
074A0:  BSF    F96.2
074A2:  BTFSC  F84.2
074A4:  BRA    74CE
....................         {delay_ms(700);Menu=3;glcd_fillscreen(OFF);} 
074A6:  MOVLW  04
074A8:  MOVLB  5
074AA:  MOVWF  xCF
074AC:  MOVLW  AF
074AE:  MOVWF  xE3
074B0:  MOVLB  0
074B2:  CALL   155C
074B6:  MOVLB  5
074B8:  DECFSZ xCF,F
074BA:  BRA    74AC
074BC:  MOVLW  03
074BE:  MOVLB  4
074C0:  MOVWF  xC3
074C2:  MOVLB  5
074C4:  CLRF   xD7
074C6:  MOVLB  0
074C8:  CALL   163C
074CC:  MOVLB  4
....................        
....................       if(Opcion>3) 
074CE:  MOVF   xC5,W
074D0:  SUBLW  03
074D2:  BC    74D8
....................       {Opcion=1;} 
074D4:  MOVLW  01
074D6:  MOVWF  xC5
....................       if(Opcion<1) 
074D8:  MOVF   xC5,F
074DA:  BNZ   74E0
....................       {Opcion=3;} 
074DC:  MOVLW  03
074DE:  MOVWF  xC5
....................      
....................     } 
.................... //_--------------------------------------------------------------------------------------------------------------------------------------------------------        
....................  
.................... //_-------------------------------------------------------------------------------------------------------------------------------------------------------- 
....................       if(Menu==6){ //Menu de Modo. 
074E0:  MOVF   xC3,W
074E2:  SUBLW  06
074E4:  BTFSS  FD8.2
074E6:  BRA    770E
....................        
....................       strcpy(Menus.Letra,"Modo"); 
074E8:  MOVLW  04
074EA:  MOVWF  FEA
074EC:  MOVLW  17
074EE:  MOVWF  FE9
074F0:  MOVFF  FF2,5CF
074F4:  BCF    FF2.7
074F6:  MOVLW  00
074F8:  MOVLB  0
074FA:  CALL   1056
074FE:  TBLRD*-
07500:  TBLRD*+
07502:  MOVF   FF5,W
07504:  MOVWF  FEE
07506:  IORLW  00
07508:  BNZ   7500
0750A:  MOVLB  5
0750C:  BTFSC  xCF.7
0750E:  BSF    FF2.7
....................       displayMenu(Menus.Letra,40,0,1,2); 
07510:  MOVLW  04
07512:  MOVWF  xD8
07514:  MOVLW  17
07516:  MOVWF  xD7
07518:  MOVLW  28
0751A:  MOVWF  xD9
0751C:  CLRF   xDA
0751E:  MOVLW  01
07520:  MOVWF  xDB
07522:  MOVLW  02
07524:  MOVWF  xDC
07526:  MOVLB  0
07528:  CALL   4C9A
....................           
....................       if(Opcion==1)    
0752C:  MOVLB  4
0752E:  DECFSZ xC5,W
07530:  BRA    7578
....................          {strcpy(Menus.Letra,"Mantenimiento"); 
07532:  MOVLW  04
07534:  MOVWF  FEA
07536:  MOVLW  17
07538:  MOVWF  FE9
0753A:  MOVFF  FF2,5CF
0753E:  BCF    FF2.7
07540:  MOVLW  00
07542:  MOVLB  0
07544:  CALL   10FC
07548:  TBLRD*-
0754A:  TBLRD*+
0754C:  MOVF   FF5,W
0754E:  MOVWF  FEE
07550:  IORLW  00
07552:  BNZ   754A
07554:  MOVLB  5
07556:  BTFSC  xCF.7
07558:  BSF    FF2.7
....................          displayMenu(Menus.Letra,0,19,1,1);} 
0755A:  MOVLW  04
0755C:  MOVWF  xD8
0755E:  MOVLW  17
07560:  MOVWF  xD7
07562:  CLRF   xD9
07564:  MOVLW  13
07566:  MOVWF  xDA
07568:  MOVLW  01
0756A:  MOVWF  xDB
0756C:  MOVWF  xDC
0756E:  MOVLB  0
07570:  CALL   4C9A
....................       else 
07574:  BRA    75BA
07576:  MOVLB  4
....................          {strcpy(Menus.Letra,"Mantenimiento"); 
07578:  MOVLW  04
0757A:  MOVWF  FEA
0757C:  MOVLW  17
0757E:  MOVWF  FE9
07580:  MOVFF  FF2,5CF
07584:  BCF    FF2.7
07586:  MOVLW  00
07588:  MOVLB  0
0758A:  CALL   10FC
0758E:  TBLRD*-
07590:  TBLRD*+
07592:  MOVF   FF5,W
07594:  MOVWF  FEE
07596:  IORLW  00
07598:  BNZ   7590
0759A:  MOVLB  5
0759C:  BTFSC  xCF.7
0759E:  BSF    FF2.7
....................          displayMenu(Menus.Letra,0,19,0,1);}    
075A0:  MOVLW  04
075A2:  MOVWF  xD8
075A4:  MOVLW  17
075A6:  MOVWF  xD7
075A8:  CLRF   xD9
075AA:  MOVLW  13
075AC:  MOVWF  xDA
075AE:  CLRF   xDB
075B0:  MOVLW  01
075B2:  MOVWF  xDC
075B4:  MOVLB  0
075B6:  CALL   4C9A
....................           
....................       if(Opcion==2)    
075BA:  MOVLB  4
075BC:  MOVF   xC5,W
075BE:  SUBLW  02
075C0:  BNZ   7608
....................          {strcpy(Menus.Letra,"Servicio"); 
075C2:  MOVLW  04
075C4:  MOVWF  FEA
075C6:  MOVLW  17
075C8:  MOVWF  FE9
075CA:  MOVFF  FF2,5CF
075CE:  BCF    FF2.7
075D0:  MOVLW  00
075D2:  MOVLB  0
075D4:  CALL   1128
075D8:  TBLRD*-
075DA:  TBLRD*+
075DC:  MOVF   FF5,W
075DE:  MOVWF  FEE
075E0:  IORLW  00
075E2:  BNZ   75DA
075E4:  MOVLB  5
075E6:  BTFSC  xCF.7
075E8:  BSF    FF2.7
....................          displayMenu(Menus.Letra,0,35,1,1);} 
075EA:  MOVLW  04
075EC:  MOVWF  xD8
075EE:  MOVLW  17
075F0:  MOVWF  xD7
075F2:  CLRF   xD9
075F4:  MOVLW  23
075F6:  MOVWF  xDA
075F8:  MOVLW  01
075FA:  MOVWF  xDB
075FC:  MOVWF  xDC
075FE:  MOVLB  0
07600:  CALL   4C9A
....................       else 
07604:  BRA    764A
07606:  MOVLB  4
....................          {strcpy(Menus.Letra,"Servicio"); 
07608:  MOVLW  04
0760A:  MOVWF  FEA
0760C:  MOVLW  17
0760E:  MOVWF  FE9
07610:  MOVFF  FF2,5CF
07614:  BCF    FF2.7
07616:  MOVLW  00
07618:  MOVLB  0
0761A:  CALL   1128
0761E:  TBLRD*-
07620:  TBLRD*+
07622:  MOVF   FF5,W
07624:  MOVWF  FEE
07626:  IORLW  00
07628:  BNZ   7620
0762A:  MOVLB  5
0762C:  BTFSC  xCF.7
0762E:  BSF    FF2.7
....................          displayMenu(Menus.Letra,0,35,0,1);} 
07630:  MOVLW  04
07632:  MOVWF  xD8
07634:  MOVLW  17
07636:  MOVWF  xD7
07638:  CLRF   xD9
0763A:  MOVLW  23
0763C:  MOVWF  xDA
0763E:  CLRF   xDB
07640:  MOVLW  01
07642:  MOVWF  xDC
07644:  MOVLB  0
07646:  CALL   4C9A
....................           
....................       if(UP)//Si oprime hacia arriba 
0764A:  BSF    F92.5
0764C:  BTFSC  F80.5
0764E:  BRA    766A
....................       {  if(Flanco == 0)  
07650:  MOVLB  4
07652:  BTFSC  x2D.0
07654:  BRA    7668
....................             {Flanco = 1;delay_ms(30);Opcion--; 
07656:  BSF    x2D.0
07658:  MOVLW  1E
0765A:  MOVLB  5
0765C:  MOVWF  xE3
0765E:  MOVLB  0
07660:  CALL   155C
07664:  MOVLB  4
07666:  DECF   xC5,F
....................             } 
....................       } 
....................          else 
07668:  BRA    766E
....................             {Flanco = 0;} 
0766A:  MOVLB  4
0766C:  BCF    x2D.0
....................              
....................       if(DOWN)//Si oprime hacia abajo 
0766E:  BSF    F96.0
07670:  BTFSC  F84.0
07672:  BRA    768C
....................       {  if(Flanco2 == 0)  
07674:  BTFSC  x2D.2
07676:  BRA    768A
....................             {Flanco2 = 1;delay_ms(30);Opcion++; 
07678:  BSF    x2D.2
0767A:  MOVLW  1E
0767C:  MOVLB  5
0767E:  MOVWF  xE3
07680:  MOVLB  0
07682:  CALL   155C
07686:  MOVLB  4
07688:  INCF   xC5,F
....................             }      
....................       } 
....................          else 
0768A:  BRA    768E
....................             {Flanco2 = 0;}   
0768C:  BCF    x2D.2
....................              
....................       if(RIGHT)//Si oprime SET 
0768E:  BSF    F96.1
07690:  BTFSC  F84.1
07692:  BRA    76CC
....................       {  if(Flanco1 == 0)  
07694:  BTFSC  x2D.1
07696:  BRA    76CA
....................             {Flanco1 = 1;delay_ms(500);Menu=Opcion+30;glcd_fillScreen(OFF);Opcion=1;unidad=1; 
07698:  BSF    x2D.1
0769A:  MOVLW  02
0769C:  MOVLB  5
0769E:  MOVWF  xCF
076A0:  MOVLW  FA
076A2:  MOVWF  xE3
076A4:  MOVLB  0
076A6:  CALL   155C
076AA:  MOVLB  5
076AC:  DECFSZ xCF,F
076AE:  BRA    76A0
076B0:  MOVLW  1E
076B2:  MOVLB  4
076B4:  ADDWF  xC5,W
076B6:  MOVWF  xC3
076B8:  MOVLB  5
076BA:  CLRF   xD7
076BC:  MOVLB  0
076BE:  CALL   163C
076C2:  MOVLW  01
076C4:  MOVLB  4
076C6:  MOVWF  xC5
076C8:  MOVWF  xC4
....................             } 
....................       } 
....................          else 
076CA:  BRA    76CE
....................             {Flanco1 = 0;}   
076CC:  BCF    x2D.1
....................              
....................       if(LEFT)//Si oprime boton de Toma. 
076CE:  BSF    F96.2
076D0:  BTFSC  F84.2
076D2:  BRA    76FC
....................         {delay_ms(700);Menu=3;glcd_fillscreen(OFF);} 
076D4:  MOVLW  04
076D6:  MOVLB  5
076D8:  MOVWF  xCF
076DA:  MOVLW  AF
076DC:  MOVWF  xE3
076DE:  MOVLB  0
076E0:  CALL   155C
076E4:  MOVLB  5
076E6:  DECFSZ xCF,F
076E8:  BRA    76DA
076EA:  MOVLW  03
076EC:  MOVLB  4
076EE:  MOVWF  xC3
076F0:  MOVLB  5
076F2:  CLRF   xD7
076F4:  MOVLB  0
076F6:  CALL   163C
076FA:  MOVLB  4
....................       if(Opcion>2) 
076FC:  MOVF   xC5,W
076FE:  SUBLW  02
07700:  BC    7706
....................       {Opcion=1;} 
07702:  MOVLW  01
07704:  MOVWF  xC5
....................       if(Opcion<1) 
07706:  MOVF   xC5,F
07708:  BNZ   770E
....................       {Opcion=2;} 
0770A:  MOVLW  02
0770C:  MOVWF  xC5
....................      
....................     } 
.................... //_--------------------------------------------------------------------------------------------------------------------------------------------------------        
....................  
.................... //_-------------------------------------------------------------------------------------------------------------------------------------------------------- 
....................       if(Menu==13){ //Menu de Tempo UV. 
0770E:  MOVF   xC3,W
07710:  SUBLW  0D
07712:  BTFSS  FD8.2
07714:  BRA    7872
....................        
....................       strcpy(Menus.Letra,"Luz UV"); 
07716:  MOVLW  04
07718:  MOVWF  FEA
0771A:  MOVLW  17
0771C:  MOVWF  FE9
0771E:  MOVFF  FF2,5CF
07722:  BCF    FF2.7
07724:  MOVLW  00
07726:  MOVLB  0
07728:  CALL   10D6
0772C:  TBLRD*-
0772E:  TBLRD*+
07730:  MOVF   FF5,W
07732:  MOVWF  FEE
07734:  IORLW  00
07736:  BNZ   772E
07738:  MOVLB  5
0773A:  BTFSC  xCF.7
0773C:  BSF    FF2.7
....................       displayMenu(Menus.Letra,30,0,1,2); 
0773E:  MOVLW  04
07740:  MOVWF  xD8
07742:  MOVLW  17
07744:  MOVWF  xD7
07746:  MOVLW  1E
07748:  MOVWF  xD9
0774A:  CLRF   xDA
0774C:  MOVLW  01
0774E:  MOVWF  xDB
07750:  MOVLW  02
07752:  MOVWF  xDC
07754:  MOVLB  0
07756:  CALL   4C9A
....................        
....................       if(!flag_uv){ 
0775A:  MOVLB  4
0775C:  BTFSC  x2E.4
0775E:  BRA    77AC
....................          strcpy(Menus.Letra,"UV Off"); 
07760:  MOVLW  04
07762:  MOVWF  FEA
07764:  MOVLW  17
07766:  MOVWF  FE9
07768:  MOVFF  FF2,5CF
0776C:  BCF    FF2.7
0776E:  MOVLW  00
07770:  MOVLB  0
07772:  CALL   1150
07776:  TBLRD*-
07778:  TBLRD*+
0777A:  MOVF   FF5,W
0777C:  MOVWF  FEE
0777E:  IORLW  00
07780:  BNZ   7778
07782:  MOVLB  5
07784:  BTFSC  xCF.7
07786:  BSF    FF2.7
....................          displayMenu(Menus.Letra,30,30,1,2); 
07788:  MOVLW  04
0778A:  MOVWF  xD8
0778C:  MOVLW  17
0778E:  MOVWF  xD7
07790:  MOVLW  1E
07792:  MOVWF  xD9
07794:  MOVWF  xDA
07796:  MOVLW  01
07798:  MOVWF  xDB
0779A:  MOVLW  02
0779C:  MOVWF  xDC
0779E:  MOVLB  0
077A0:  CALL   4C9A
....................          Aux_off; 
077A4:  BCF    F8B.1
077A6:  BCF    F94.1
....................       }else{ 
077A8:  BRA    77F4
077AA:  MOVLB  4
....................          strcpy(Menus.Letra,"UV On"); 
077AC:  MOVLW  04
077AE:  MOVWF  FEA
077B0:  MOVLW  17
077B2:  MOVWF  FE9
077B4:  MOVFF  FF2,5CF
077B8:  BCF    FF2.7
077BA:  MOVLW  00
077BC:  MOVLB  0
077BE:  CALL   1176
077C2:  TBLRD*-
077C4:  TBLRD*+
077C6:  MOVF   FF5,W
077C8:  MOVWF  FEE
077CA:  IORLW  00
077CC:  BNZ   77C4
077CE:  MOVLB  5
077D0:  BTFSC  xCF.7
077D2:  BSF    FF2.7
....................          displayMenu(Menus.Letra,30,30,1,2); 
077D4:  MOVLW  04
077D6:  MOVWF  xD8
077D8:  MOVLW  17
077DA:  MOVWF  xD7
077DC:  MOVLW  1E
077DE:  MOVWF  xD9
077E0:  MOVWF  xDA
077E2:  MOVLW  01
077E4:  MOVWF  xDB
077E6:  MOVLW  02
077E8:  MOVWF  xDC
077EA:  MOVLB  0
077EC:  CALL   4C9A
....................          Aux_on; 
077F0:  BSF    F8B.1
077F2:  BCF    F94.1
....................       } 
....................          
....................       if(UP)//Si oprime hacia arriba 
077F4:  BSF    F92.5
077F6:  BTFSC  F80.5
077F8:  BRA    7816
....................       {  if(Flanco == 0)  
077FA:  MOVLB  4
077FC:  BTFSC  x2D.0
077FE:  BRA    7812
....................             {Flanco = 1;delay_ms(30);flag_uv=1; 
07800:  BSF    x2D.0
07802:  MOVLW  1E
07804:  MOVLB  5
07806:  MOVWF  xE3
07808:  MOVLB  0
0780A:  CALL   155C
0780E:  MOVLB  4
07810:  BSF    x2E.4
....................             } 
....................       }else{ 
07812:  BRA    781A
07814:  MOVLB  0
....................          Flanco = 0; 
07816:  MOVLB  4
07818:  BCF    x2D.0
....................       } 
....................              
....................       if(DOWN )//Si oprime hacia abajo 
0781A:  BSF    F96.0
0781C:  BTFSC  F84.0
0781E:  BRA    7838
....................       {  if(Flanco2 == 0)  
07820:  BTFSC  x2D.2
07822:  BRA    7836
....................             {Flanco2 = 1;delay_ms(30);flag_uv=0; 
07824:  BSF    x2D.2
07826:  MOVLW  1E
07828:  MOVLB  5
0782A:  MOVWF  xE3
0782C:  MOVLB  0
0782E:  CALL   155C
07832:  MOVLB  4
07834:  BCF    x2E.4
....................             }      
....................       }else{ 
07836:  BRA    783A
....................          Flanco2 = 0; 
07838:  BCF    x2D.2
....................       } 
....................              
....................       if(LEFT)//Si oprime boton de Toma. 
0783A:  BSF    F96.2
0783C:  BTFSC  F84.2
0783E:  BRA    7872
....................       { 
....................          delay_ms(700);Menu=4;glcd_fillscreen(OFF);Opcion=1;unidad=1;Aux_off; 
07840:  MOVLW  04
07842:  MOVLB  5
07844:  MOVWF  xCF
07846:  MOVLW  AF
07848:  MOVWF  xE3
0784A:  MOVLB  0
0784C:  CALL   155C
07850:  MOVLB  5
07852:  DECFSZ xCF,F
07854:  BRA    7846
07856:  MOVLW  04
07858:  MOVLB  4
0785A:  MOVWF  xC3
0785C:  MOVLB  5
0785E:  CLRF   xD7
07860:  MOVLB  0
07862:  CALL   163C
07866:  MOVLW  01
07868:  MOVLB  4
0786A:  MOVWF  xC5
0786C:  MOVWF  xC4
0786E:  BCF    F8B.1
07870:  BCF    F94.1
....................       } 
....................      
....................     } 
.................... //_--------------------------------------------------------------------------------------------------------------------------------------------------------        
....................  
.................... //_-------------------------------------------------------------------------------------------------------------------------------------------------------- 
....................       if(Menu==11){ //Menu de Purga. 
07872:  MOVF   xC3,W
07874:  SUBLW  0B
07876:  BTFSS  FD8.2
07878:  BRA    7C3C
....................        
....................       strcpy(Menus.Letra,"T. Purga"); 
0787A:  MOVLW  04
0787C:  MOVWF  FEA
0787E:  MOVLW  17
07880:  MOVWF  FE9
07882:  MOVFF  FF2,5CF
07886:  BCF    FF2.7
07888:  MOVLW  00
0788A:  MOVLB  0
0788C:  CALL   119A
07890:  TBLRD*-
07892:  TBLRD*+
07894:  MOVF   FF5,W
07896:  MOVWF  FEE
07898:  IORLW  00
0789A:  BNZ   7892
0789C:  MOVLB  5
0789E:  BTFSC  xCF.7
078A0:  BSF    FF2.7
....................       displayMenu(Menus.Letra,10,0,1,2); 
078A2:  MOVLW  04
078A4:  MOVWF  xD8
078A6:  MOVLW  17
078A8:  MOVWF  xD7
078AA:  MOVLW  0A
078AC:  MOVWF  xD9
078AE:  CLRF   xDA
078B0:  MOVLW  01
078B2:  MOVWF  xDB
078B4:  MOVLW  02
078B6:  MOVWF  xDC
078B8:  MOVLB  0
078BA:  CALL   4C9A
....................        
....................       if(unidad==4) 
078BE:  MOVLB  4
078C0:  MOVF   xC4,W
078C2:  SUBLW  04
078C4:  BNZ   78E4
....................       {displayTiempo(Tpurgap[3],20,40,1,2);} 
078C6:  MOVFF  4E6,5CF
078CA:  MOVLW  14
078CC:  MOVLB  5
078CE:  MOVWF  xD0
078D0:  MOVLW  28
078D2:  MOVWF  xD1
078D4:  MOVLW  01
078D6:  MOVWF  xD2
078D8:  MOVLW  02
078DA:  MOVWF  xD3
078DC:  MOVLB  0
078DE:  CALL   5468
....................       else 
078E2:  BRA    78FE
....................       {displayTiempo(Tpurgap[3],20,40,0,2);} 
078E4:  MOVFF  4E6,5CF
078E8:  MOVLW  14
078EA:  MOVLB  5
078EC:  MOVWF  xD0
078EE:  MOVLW  28
078F0:  MOVWF  xD1
078F2:  CLRF   xD2
078F4:  MOVLW  02
078F6:  MOVWF  xD3
078F8:  MOVLB  0
078FA:  CALL   5468
....................        
....................       if(unidad==3) 
078FE:  MOVLB  4
07900:  MOVF   xC4,W
07902:  SUBLW  03
07904:  BNZ   7922
....................       {displayTiempo(Tpurgap[2],40,40,1,2);} 
07906:  MOVFF  4E5,5CF
0790A:  MOVLW  28
0790C:  MOVLB  5
0790E:  MOVWF  xD0
07910:  MOVWF  xD1
07912:  MOVLW  01
07914:  MOVWF  xD2
07916:  MOVLW  02
07918:  MOVWF  xD3
0791A:  MOVLB  0
0791C:  CALL   5468
....................       else 
07920:  BRA    793A
....................       {displayTiempo(Tpurgap[2],40,40,0,2);} 
07922:  MOVFF  4E5,5CF
07926:  MOVLW  28
07928:  MOVLB  5
0792A:  MOVWF  xD0
0792C:  MOVWF  xD1
0792E:  CLRF   xD2
07930:  MOVLW  02
07932:  MOVWF  xD3
07934:  MOVLB  0
07936:  CALL   5468
....................        
....................       if(unidad==2) 
0793A:  MOVLB  4
0793C:  MOVF   xC4,W
0793E:  SUBLW  02
07940:  BNZ   7960
....................       {displayTiempo(Tpurgap[1],70,40,1,2);} 
07942:  MOVFF  4E4,5CF
07946:  MOVLW  46
07948:  MOVLB  5
0794A:  MOVWF  xD0
0794C:  MOVLW  28
0794E:  MOVWF  xD1
07950:  MOVLW  01
07952:  MOVWF  xD2
07954:  MOVLW  02
07956:  MOVWF  xD3
07958:  MOVLB  0
0795A:  CALL   5468
....................       else 
0795E:  BRA    797A
....................       {displayTiempo(Tpurgap[1],70,40,0,2);} 
07960:  MOVFF  4E4,5CF
07964:  MOVLW  46
07966:  MOVLB  5
07968:  MOVWF  xD0
0796A:  MOVLW  28
0796C:  MOVWF  xD1
0796E:  CLRF   xD2
07970:  MOVLW  02
07972:  MOVWF  xD3
07974:  MOVLB  0
07976:  CALL   5468
....................        
....................       if(unidad==1) 
0797A:  MOVLB  4
0797C:  DECFSZ xC4,W
0797E:  BRA    799E
....................       {displayTiempo(Tpurgap[0],90,40,1,2);} 
07980:  MOVFF  4E3,5CF
07984:  MOVLW  5A
07986:  MOVLB  5
07988:  MOVWF  xD0
0798A:  MOVLW  28
0798C:  MOVWF  xD1
0798E:  MOVLW  01
07990:  MOVWF  xD2
07992:  MOVLW  02
07994:  MOVWF  xD3
07996:  MOVLB  0
07998:  CALL   5468
....................       else 
0799C:  BRA    79B8
....................       {displayTiempo(Tpurgap[0],90,40,0,2);} 
0799E:  MOVFF  4E3,5CF
079A2:  MOVLW  5A
079A4:  MOVLB  5
079A6:  MOVWF  xD0
079A8:  MOVLW  28
079AA:  MOVWF  xD1
079AC:  CLRF   xD2
079AE:  MOVLW  02
079B0:  MOVWF  xD3
079B2:  MOVLB  0
079B4:  CALL   5468
....................        
....................       glcd_text57(60, 42, Dos_puntos, 2, ON); 
079B8:  MOVLW  3C
079BA:  MOVLB  5
079BC:  MOVWF  xE8
079BE:  MOVLW  2A
079C0:  MOVWF  xE9
079C2:  MOVLW  04
079C4:  MOVWF  xEB
079C6:  MOVLW  49
079C8:  MOVWF  xEA
079CA:  MOVLW  02
079CC:  MOVWF  xEC
079CE:  MOVLW  01
079D0:  MOVWF  xED
079D2:  MOVLB  0
079D4:  CALL   4A28
....................           
....................          
....................       if(UP)//Si oprime hacia arriba 
079D8:  BSF    F92.5
079DA:  BTFSC  F80.5
079DC:  BRA    7A08
....................       {  if(Flanco == 0)  
079DE:  MOVLB  4
079E0:  BTFSC  x2D.0
079E2:  BRA    7A06
....................             {Flanco = 1;delay_ms(30);Tpurgap[unidad-1]++; 
079E4:  BSF    x2D.0
079E6:  MOVLW  1E
079E8:  MOVLB  5
079EA:  MOVWF  xE3
079EC:  MOVLB  0
079EE:  CALL   155C
079F2:  MOVLW  01
079F4:  MOVLB  4
079F6:  SUBWF  xC4,W
079F8:  CLRF   03
079FA:  ADDLW  E3
079FC:  MOVWF  FE9
079FE:  MOVLW  04
07A00:  ADDWFC 03,W
07A02:  MOVWF  FEA
07A04:  INCF   FEF,F
....................             } 
....................       } 
....................          else 
07A06:  BRA    7A0C
....................             {Flanco = 0;} 
07A08:  MOVLB  4
07A0A:  BCF    x2D.0
....................              
....................       if(DOWN)//Si oprime hacia abajo 
07A0C:  BSF    F96.0
07A0E:  BTFSC  F84.0
07A10:  BRA    7A3A
....................       {  if(Flanco2 == 0)  
07A12:  BTFSC  x2D.2
07A14:  BRA    7A38
....................             {Flanco2 = 1;delay_ms(30);Tpurgap[unidad-1]--; 
07A16:  BSF    x2D.2
07A18:  MOVLW  1E
07A1A:  MOVLB  5
07A1C:  MOVWF  xE3
07A1E:  MOVLB  0
07A20:  CALL   155C
07A24:  MOVLW  01
07A26:  MOVLB  4
07A28:  SUBWF  xC4,W
07A2A:  CLRF   03
07A2C:  ADDLW  E3
07A2E:  MOVWF  FE9
07A30:  MOVLW  04
07A32:  ADDWFC 03,W
07A34:  MOVWF  FEA
07A36:  DECF   FEF,F
....................             }      
....................       } 
....................          else 
07A38:  BRA    7A3C
....................             {Flanco2 = 0;}   
07A3A:  BCF    x2D.2
....................              
....................       if(RIGHT)//Si oprime SET 
07A3C:  BSF    F96.1
07A3E:  BTFSC  F84.1
07A40:  BRA    7A5A
....................       {  if(Flanco1 == 0)  
07A42:  BTFSC  x2D.1
07A44:  BRA    7A58
....................             {Flanco1 = 1;delay_ms(30);unidad--; 
07A46:  BSF    x2D.1
07A48:  MOVLW  1E
07A4A:  MOVLB  5
07A4C:  MOVWF  xE3
07A4E:  MOVLB  0
07A50:  CALL   155C
07A54:  MOVLB  4
07A56:  DECF   xC4,F
....................             } 
....................       } 
....................          else 
07A58:  BRA    7A5C
....................             {Flanco1 = 0;}   
07A5A:  BCF    x2D.1
....................              
....................       if(LEFT)//Si oprime boton de Toma. 
07A5C:  BSF    F96.2
07A5E:  BTFSC  F84.2
07A60:  BRA    7B70
....................       { 
....................          delay_ms(700);Menu=4;glcd_fillscreen(OFF);Opcion=1;unidad=1; 
07A62:  MOVLW  04
07A64:  MOVLB  5
07A66:  MOVWF  xCF
07A68:  MOVLW  AF
07A6A:  MOVWF  xE3
07A6C:  MOVLB  0
07A6E:  CALL   155C
07A72:  MOVLB  5
07A74:  DECFSZ xCF,F
07A76:  BRA    7A68
07A78:  MOVLW  04
07A7A:  MOVLB  4
07A7C:  MOVWF  xC3
07A7E:  MOVLB  5
07A80:  CLRF   xD7
07A82:  MOVLB  0
07A84:  CALL   163C
07A88:  MOVLW  01
07A8A:  MOVLB  4
07A8C:  MOVWF  xC5
07A8E:  MOVWF  xC4
....................          write_eeprom(4,Tpurgap[0]); 
07A90:  CLRF   FAA
07A92:  MOVLW  04
07A94:  MOVWF  FA9
07A96:  MOVFF  4E3,FA8
07A9A:  BCF    FA6.6
07A9C:  BCF    FA6.7
07A9E:  BSF    FA6.2
07AA0:  MOVF   FF2,W
07AA2:  MOVWF  00
07AA4:  BCF    FF2.7
07AA6:  MOVLB  F
07AA8:  MOVLW  55
07AAA:  MOVWF  FA7
07AAC:  MOVLW  AA
07AAE:  MOVWF  FA7
07AB0:  BSF    FA6.1
07AB2:  BTFSC  FA6.1
07AB4:  BRA    7AB2
07AB6:  BCF    FA6.2
07AB8:  MOVF   00,W
07ABA:  IORWF  FF2,F
....................          delay_ms(20); 
07ABC:  MOVLW  14
07ABE:  MOVLB  5
07AC0:  MOVWF  xE3
07AC2:  MOVLB  0
07AC4:  CALL   155C
....................          write_eeprom(5,Tpurgap[1]); 
07AC8:  CLRF   FAA
07ACA:  MOVLW  05
07ACC:  MOVWF  FA9
07ACE:  MOVFF  4E4,FA8
07AD2:  BCF    FA6.6
07AD4:  BCF    FA6.7
07AD6:  BSF    FA6.2
07AD8:  MOVF   FF2,W
07ADA:  MOVWF  00
07ADC:  BCF    FF2.7
07ADE:  MOVLB  F
07AE0:  MOVLW  55
07AE2:  MOVWF  FA7
07AE4:  MOVLW  AA
07AE6:  MOVWF  FA7
07AE8:  BSF    FA6.1
07AEA:  BTFSC  FA6.1
07AEC:  BRA    7AEA
07AEE:  BCF    FA6.2
07AF0:  MOVF   00,W
07AF2:  IORWF  FF2,F
....................          delay_ms(20); 
07AF4:  MOVLW  14
07AF6:  MOVLB  5
07AF8:  MOVWF  xE3
07AFA:  MOVLB  0
07AFC:  CALL   155C
....................          write_eeprom(6,Tpurgap[2]); 
07B00:  CLRF   FAA
07B02:  MOVLW  06
07B04:  MOVWF  FA9
07B06:  MOVFF  4E5,FA8
07B0A:  BCF    FA6.6
07B0C:  BCF    FA6.7
07B0E:  BSF    FA6.2
07B10:  MOVF   FF2,W
07B12:  MOVWF  00
07B14:  BCF    FF2.7
07B16:  MOVLB  F
07B18:  MOVLW  55
07B1A:  MOVWF  FA7
07B1C:  MOVLW  AA
07B1E:  MOVWF  FA7
07B20:  BSF    FA6.1
07B22:  BTFSC  FA6.1
07B24:  BRA    7B22
07B26:  BCF    FA6.2
07B28:  MOVF   00,W
07B2A:  IORWF  FF2,F
....................          delay_ms(20); 
07B2C:  MOVLW  14
07B2E:  MOVLB  5
07B30:  MOVWF  xE3
07B32:  MOVLB  0
07B34:  CALL   155C
....................          write_eeprom(7,Tpurgap[3]); 
07B38:  CLRF   FAA
07B3A:  MOVLW  07
07B3C:  MOVWF  FA9
07B3E:  MOVFF  4E6,FA8
07B42:  BCF    FA6.6
07B44:  BCF    FA6.7
07B46:  BSF    FA6.2
07B48:  MOVF   FF2,W
07B4A:  MOVWF  00
07B4C:  BCF    FF2.7
07B4E:  MOVLB  F
07B50:  MOVLW  55
07B52:  MOVWF  FA7
07B54:  MOVLW  AA
07B56:  MOVWF  FA7
07B58:  BSF    FA6.1
07B5A:  BTFSC  FA6.1
07B5C:  BRA    7B5A
07B5E:  BCF    FA6.2
07B60:  MOVF   00,W
07B62:  IORWF  FF2,F
....................          delay_ms(20); 
07B64:  MOVLW  14
07B66:  MOVLB  5
07B68:  MOVWF  xE3
07B6A:  MOVLB  0
07B6C:  CALL   155C
....................       } 
....................        
....................       for(i=0;i<4;i++) 
07B70:  MOVLB  5
07B72:  CLRF   xBF
07B74:  MOVF   xBF,W
07B76:  SUBLW  03
07B78:  BNC   7BCC
....................       { 
....................          if(Tpurgap[i]>9) 
07B7A:  CLRF   03
07B7C:  MOVF   xBF,W
07B7E:  ADDLW  E3
07B80:  MOVWF  FE9
07B82:  MOVLW  04
07B84:  ADDWFC 03,W
07B86:  MOVWF  FEA
07B88:  BTFSC  FEF.7
07B8A:  BRA    7BA2
07B8C:  MOVF   FEF,W
07B8E:  SUBLW  09
07B90:  BC    7BA2
....................          {Tpurgap[i]=0;} 
07B92:  CLRF   03
07B94:  MOVF   xBF,W
07B96:  ADDLW  E3
07B98:  MOVWF  FE9
07B9A:  MOVLW  04
07B9C:  ADDWFC 03,W
07B9E:  MOVWF  FEA
07BA0:  CLRF   FEF
....................           
....................          if(Tpurgap[i]<0) 
07BA2:  CLRF   03
07BA4:  MOVF   xBF,W
07BA6:  ADDLW  E3
07BA8:  MOVWF  FE9
07BAA:  MOVLW  04
07BAC:  ADDWFC 03,W
07BAE:  MOVWF  FEA
07BB0:  BTFSC  FEF.7
07BB2:  BRA    7BB6
07BB4:  BRA    7BC8
....................          {Tpurgap[i]=9;} 
07BB6:  CLRF   03
07BB8:  MOVF   xBF,W
07BBA:  ADDLW  E3
07BBC:  MOVWF  FE9
07BBE:  MOVLW  04
07BC0:  ADDWFC 03,W
07BC2:  MOVWF  FEA
07BC4:  MOVLW  09
07BC6:  MOVWF  FEF
....................       }       
07BC8:  INCF   xBF,F
07BCA:  BRA    7B74
....................       for(i=1;i<4;i++) 
07BCC:  MOVLW  01
07BCE:  MOVWF  xBF
07BD0:  MOVF   xBF,W
07BD2:  SUBLW  03
07BD4:  BNC   7C2A
....................       { 
....................          if(Tpurgap[i]>5) 
07BD6:  CLRF   03
07BD8:  MOVF   xBF,W
07BDA:  ADDLW  E3
07BDC:  MOVWF  FE9
07BDE:  MOVLW  04
07BE0:  ADDWFC 03,W
07BE2:  MOVWF  FEA
07BE4:  BTFSC  FEF.7
07BE6:  BRA    7BFE
07BE8:  MOVF   FEF,W
07BEA:  SUBLW  05
07BEC:  BC    7BFE
....................          {Tpurgap[i]=0;} 
07BEE:  CLRF   03
07BF0:  MOVF   xBF,W
07BF2:  ADDLW  E3
07BF4:  MOVWF  FE9
07BF6:  MOVLW  04
07BF8:  ADDWFC 03,W
07BFA:  MOVWF  FEA
07BFC:  CLRF   FEF
....................           
....................          if(Tpurgap[i]<0) 
07BFE:  CLRF   03
07C00:  MOVF   xBF,W
07C02:  ADDLW  E3
07C04:  MOVWF  FE9
07C06:  MOVLW  04
07C08:  ADDWFC 03,W
07C0A:  MOVWF  FEA
07C0C:  BTFSC  FEF.7
07C0E:  BRA    7C12
07C10:  BRA    7C24
....................          {Tpurgap[i]=5;} 
07C12:  CLRF   03
07C14:  MOVF   xBF,W
07C16:  ADDLW  E3
07C18:  MOVWF  FE9
07C1A:  MOVLW  04
07C1C:  ADDWFC 03,W
07C1E:  MOVWF  FEA
07C20:  MOVLW  05
07C22:  MOVWF  FEF
....................         i++;  
07C24:  INCF   xBF,F
....................       } 
07C26:  INCF   xBF,F
07C28:  BRA    7BD0
....................       if(unidad<1) 
07C2A:  MOVLB  4
07C2C:  MOVF   xC4,F
07C2E:  BNZ   7C34
....................       {unidad=4;} 
07C30:  MOVLW  04
07C32:  MOVWF  xC4
....................       if(Opcion<1) 
07C34:  MOVF   xC5,F
07C36:  BNZ   7C3C
....................       {Opcion=4;} 
07C38:  MOVLW  04
07C3A:  MOVWF  xC5
....................      
....................     } 
.................... //_--------------------------------------------------------------------------------------------------------------------------------------------------------        
....................  
.................... //_-------------------------------------------------------------------------------------------------------------------------------------------------------- 
....................       if(Menu==12){ //Menu de Post-Purga. 
07C3C:  MOVF   xC3,W
07C3E:  SUBLW  0C
07C40:  BTFSS  FD8.2
07C42:  BRA    8004
....................        
....................       strcpy(Menus.Letra,"T. Post-Purga"); 
07C44:  MOVLW  04
07C46:  MOVWF  FEA
07C48:  MOVLW  17
07C4A:  MOVWF  FE9
07C4C:  MOVFF  FF2,5CF
07C50:  BCF    FF2.7
07C52:  MOVLW  00
07C54:  MOVLB  0
07C56:  CALL   11C2
07C5A:  TBLRD*-
07C5C:  TBLRD*+
07C5E:  MOVF   FF5,W
07C60:  MOVWF  FEE
07C62:  IORLW  00
07C64:  BNZ   7C5C
07C66:  MOVLB  5
07C68:  BTFSC  xCF.7
07C6A:  BSF    FF2.7
....................       displayMenu(Menus.Letra,0,0,1,2); 
07C6C:  MOVLW  04
07C6E:  MOVWF  xD8
07C70:  MOVLW  17
07C72:  MOVWF  xD7
07C74:  CLRF   xD9
07C76:  CLRF   xDA
07C78:  MOVLW  01
07C7A:  MOVWF  xDB
07C7C:  MOVLW  02
07C7E:  MOVWF  xDC
07C80:  MOVLB  0
07C82:  CALL   4C9A
....................        
....................       if(unidad==4) 
07C86:  MOVLB  4
07C88:  MOVF   xC4,W
07C8A:  SUBLW  04
07C8C:  BNZ   7CAC
....................       {displayTiempo(Tppurgap[3],20,40,1,2);} 
07C8E:  MOVFF  4EE,5CF
07C92:  MOVLW  14
07C94:  MOVLB  5
07C96:  MOVWF  xD0
07C98:  MOVLW  28
07C9A:  MOVWF  xD1
07C9C:  MOVLW  01
07C9E:  MOVWF  xD2
07CA0:  MOVLW  02
07CA2:  MOVWF  xD3
07CA4:  MOVLB  0
07CA6:  CALL   5468
....................       else 
07CAA:  BRA    7CC6
....................       {displayTiempo(Tppurgap[3],20,40,0,2);} 
07CAC:  MOVFF  4EE,5CF
07CB0:  MOVLW  14
07CB2:  MOVLB  5
07CB4:  MOVWF  xD0
07CB6:  MOVLW  28
07CB8:  MOVWF  xD1
07CBA:  CLRF   xD2
07CBC:  MOVLW  02
07CBE:  MOVWF  xD3
07CC0:  MOVLB  0
07CC2:  CALL   5468
....................        
....................       if(unidad==3) 
07CC6:  MOVLB  4
07CC8:  MOVF   xC4,W
07CCA:  SUBLW  03
07CCC:  BNZ   7CEA
....................       {displayTiempo(Tppurgap[2],40,40,1,2);} 
07CCE:  MOVFF  4ED,5CF
07CD2:  MOVLW  28
07CD4:  MOVLB  5
07CD6:  MOVWF  xD0
07CD8:  MOVWF  xD1
07CDA:  MOVLW  01
07CDC:  MOVWF  xD2
07CDE:  MOVLW  02
07CE0:  MOVWF  xD3
07CE2:  MOVLB  0
07CE4:  CALL   5468
....................       else 
07CE8:  BRA    7D02
....................       {displayTiempo(Tppurgap[2],40,40,0,2);} 
07CEA:  MOVFF  4ED,5CF
07CEE:  MOVLW  28
07CF0:  MOVLB  5
07CF2:  MOVWF  xD0
07CF4:  MOVWF  xD1
07CF6:  CLRF   xD2
07CF8:  MOVLW  02
07CFA:  MOVWF  xD3
07CFC:  MOVLB  0
07CFE:  CALL   5468
....................        
....................       if(unidad==2) 
07D02:  MOVLB  4
07D04:  MOVF   xC4,W
07D06:  SUBLW  02
07D08:  BNZ   7D28
....................       {displayTiempo(Tppurgap[1],70,40,1,2);} 
07D0A:  MOVFF  4EC,5CF
07D0E:  MOVLW  46
07D10:  MOVLB  5
07D12:  MOVWF  xD0
07D14:  MOVLW  28
07D16:  MOVWF  xD1
07D18:  MOVLW  01
07D1A:  MOVWF  xD2
07D1C:  MOVLW  02
07D1E:  MOVWF  xD3
07D20:  MOVLB  0
07D22:  CALL   5468
....................       else 
07D26:  BRA    7D42
....................       {displayTiempo(Tppurgap[1],70,40,0,2);} 
07D28:  MOVFF  4EC,5CF
07D2C:  MOVLW  46
07D2E:  MOVLB  5
07D30:  MOVWF  xD0
07D32:  MOVLW  28
07D34:  MOVWF  xD1
07D36:  CLRF   xD2
07D38:  MOVLW  02
07D3A:  MOVWF  xD3
07D3C:  MOVLB  0
07D3E:  CALL   5468
....................        
....................       if(unidad==1) 
07D42:  MOVLB  4
07D44:  DECFSZ xC4,W
07D46:  BRA    7D66
....................       {displayTiempo(Tppurgap[0],90,40,1,2);} 
07D48:  MOVFF  4EB,5CF
07D4C:  MOVLW  5A
07D4E:  MOVLB  5
07D50:  MOVWF  xD0
07D52:  MOVLW  28
07D54:  MOVWF  xD1
07D56:  MOVLW  01
07D58:  MOVWF  xD2
07D5A:  MOVLW  02
07D5C:  MOVWF  xD3
07D5E:  MOVLB  0
07D60:  CALL   5468
....................       else 
07D64:  BRA    7D80
....................       {displayTiempo(Tppurgap[0],90,40,0,2);} 
07D66:  MOVFF  4EB,5CF
07D6A:  MOVLW  5A
07D6C:  MOVLB  5
07D6E:  MOVWF  xD0
07D70:  MOVLW  28
07D72:  MOVWF  xD1
07D74:  CLRF   xD2
07D76:  MOVLW  02
07D78:  MOVWF  xD3
07D7A:  MOVLB  0
07D7C:  CALL   5468
....................        
....................       glcd_text57(60, 42, Dos_puntos, 2, ON); 
07D80:  MOVLW  3C
07D82:  MOVLB  5
07D84:  MOVWF  xE8
07D86:  MOVLW  2A
07D88:  MOVWF  xE9
07D8A:  MOVLW  04
07D8C:  MOVWF  xEB
07D8E:  MOVLW  49
07D90:  MOVWF  xEA
07D92:  MOVLW  02
07D94:  MOVWF  xEC
07D96:  MOVLW  01
07D98:  MOVWF  xED
07D9A:  MOVLB  0
07D9C:  CALL   4A28
....................           
....................          
....................       if(UP)//Si oprime hacia arriba 
07DA0:  BSF    F92.5
07DA2:  BTFSC  F80.5
07DA4:  BRA    7DD0
....................       {  if(Flanco == 0)  
07DA6:  MOVLB  4
07DA8:  BTFSC  x2D.0
07DAA:  BRA    7DCE
....................             {Flanco = 1;delay_ms(30);Tppurgap[unidad-1]++; 
07DAC:  BSF    x2D.0
07DAE:  MOVLW  1E
07DB0:  MOVLB  5
07DB2:  MOVWF  xE3
07DB4:  MOVLB  0
07DB6:  CALL   155C
07DBA:  MOVLW  01
07DBC:  MOVLB  4
07DBE:  SUBWF  xC4,W
07DC0:  CLRF   03
07DC2:  ADDLW  EB
07DC4:  MOVWF  FE9
07DC6:  MOVLW  04
07DC8:  ADDWFC 03,W
07DCA:  MOVWF  FEA
07DCC:  INCF   FEF,F
....................             } 
....................       } 
....................          else 
07DCE:  BRA    7DD4
....................             {Flanco = 0;} 
07DD0:  MOVLB  4
07DD2:  BCF    x2D.0
....................              
....................       if(DOWN)//Si oprime hacia abajo 
07DD4:  BSF    F96.0
07DD6:  BTFSC  F84.0
07DD8:  BRA    7E02
....................       {  if(Flanco2 == 0)  
07DDA:  BTFSC  x2D.2
07DDC:  BRA    7E00
....................             {Flanco2 = 1;delay_ms(30);Tppurgap[unidad-1]--; 
07DDE:  BSF    x2D.2
07DE0:  MOVLW  1E
07DE2:  MOVLB  5
07DE4:  MOVWF  xE3
07DE6:  MOVLB  0
07DE8:  CALL   155C
07DEC:  MOVLW  01
07DEE:  MOVLB  4
07DF0:  SUBWF  xC4,W
07DF2:  CLRF   03
07DF4:  ADDLW  EB
07DF6:  MOVWF  FE9
07DF8:  MOVLW  04
07DFA:  ADDWFC 03,W
07DFC:  MOVWF  FEA
07DFE:  DECF   FEF,F
....................             }      
....................       } 
....................          else 
07E00:  BRA    7E04
....................             {Flanco2 = 0;}   
07E02:  BCF    x2D.2
....................              
....................       if(RIGHT)//Si oprime SET 
07E04:  BSF    F96.1
07E06:  BTFSC  F84.1
07E08:  BRA    7E22
....................       {  if(Flanco1 == 0)  
07E0A:  BTFSC  x2D.1
07E0C:  BRA    7E20
....................             {Flanco1 = 1;delay_ms(30);unidad--; 
07E0E:  BSF    x2D.1
07E10:  MOVLW  1E
07E12:  MOVLB  5
07E14:  MOVWF  xE3
07E16:  MOVLB  0
07E18:  CALL   155C
07E1C:  MOVLB  4
07E1E:  DECF   xC4,F
....................             } 
....................       } 
....................          else 
07E20:  BRA    7E24
....................             {Flanco1 = 0;}   
07E22:  BCF    x2D.1
....................              
....................       if(LEFT)//Si oprime boton de Toma. 
07E24:  BSF    F96.2
07E26:  BTFSC  F84.2
07E28:  BRA    7F38
....................       { 
....................          delay_ms(700);Menu=4;glcd_fillscreen(OFF);Opcion=1;unidad=1; 
07E2A:  MOVLW  04
07E2C:  MOVLB  5
07E2E:  MOVWF  xCF
07E30:  MOVLW  AF
07E32:  MOVWF  xE3
07E34:  MOVLB  0
07E36:  CALL   155C
07E3A:  MOVLB  5
07E3C:  DECFSZ xCF,F
07E3E:  BRA    7E30
07E40:  MOVLW  04
07E42:  MOVLB  4
07E44:  MOVWF  xC3
07E46:  MOVLB  5
07E48:  CLRF   xD7
07E4A:  MOVLB  0
07E4C:  CALL   163C
07E50:  MOVLW  01
07E52:  MOVLB  4
07E54:  MOVWF  xC5
07E56:  MOVWF  xC4
....................          write_eeprom(8,Tppurgap[0]); 
07E58:  CLRF   FAA
07E5A:  MOVLW  08
07E5C:  MOVWF  FA9
07E5E:  MOVFF  4EB,FA8
07E62:  BCF    FA6.6
07E64:  BCF    FA6.7
07E66:  BSF    FA6.2
07E68:  MOVF   FF2,W
07E6A:  MOVWF  00
07E6C:  BCF    FF2.7
07E6E:  MOVLB  F
07E70:  MOVLW  55
07E72:  MOVWF  FA7
07E74:  MOVLW  AA
07E76:  MOVWF  FA7
07E78:  BSF    FA6.1
07E7A:  BTFSC  FA6.1
07E7C:  BRA    7E7A
07E7E:  BCF    FA6.2
07E80:  MOVF   00,W
07E82:  IORWF  FF2,F
....................          delay_ms(20); 
07E84:  MOVLW  14
07E86:  MOVLB  5
07E88:  MOVWF  xE3
07E8A:  MOVLB  0
07E8C:  CALL   155C
....................          write_eeprom(9,Tppurgap[1]); 
07E90:  CLRF   FAA
07E92:  MOVLW  09
07E94:  MOVWF  FA9
07E96:  MOVFF  4EC,FA8
07E9A:  BCF    FA6.6
07E9C:  BCF    FA6.7
07E9E:  BSF    FA6.2
07EA0:  MOVF   FF2,W
07EA2:  MOVWF  00
07EA4:  BCF    FF2.7
07EA6:  MOVLB  F
07EA8:  MOVLW  55
07EAA:  MOVWF  FA7
07EAC:  MOVLW  AA
07EAE:  MOVWF  FA7
07EB0:  BSF    FA6.1
07EB2:  BTFSC  FA6.1
07EB4:  BRA    7EB2
07EB6:  BCF    FA6.2
07EB8:  MOVF   00,W
07EBA:  IORWF  FF2,F
....................          delay_ms(20); 
07EBC:  MOVLW  14
07EBE:  MOVLB  5
07EC0:  MOVWF  xE3
07EC2:  MOVLB  0
07EC4:  CALL   155C
....................          write_eeprom(10,Tppurgap[2]); 
07EC8:  CLRF   FAA
07ECA:  MOVLW  0A
07ECC:  MOVWF  FA9
07ECE:  MOVFF  4ED,FA8
07ED2:  BCF    FA6.6
07ED4:  BCF    FA6.7
07ED6:  BSF    FA6.2
07ED8:  MOVF   FF2,W
07EDA:  MOVWF  00
07EDC:  BCF    FF2.7
07EDE:  MOVLB  F
07EE0:  MOVLW  55
07EE2:  MOVWF  FA7
07EE4:  MOVLW  AA
07EE6:  MOVWF  FA7
07EE8:  BSF    FA6.1
07EEA:  BTFSC  FA6.1
07EEC:  BRA    7EEA
07EEE:  BCF    FA6.2
07EF0:  MOVF   00,W
07EF2:  IORWF  FF2,F
....................          delay_ms(20); 
07EF4:  MOVLW  14
07EF6:  MOVLB  5
07EF8:  MOVWF  xE3
07EFA:  MOVLB  0
07EFC:  CALL   155C
....................          write_eeprom(11,Tppurgap[3]); 
07F00:  CLRF   FAA
07F02:  MOVLW  0B
07F04:  MOVWF  FA9
07F06:  MOVFF  4EE,FA8
07F0A:  BCF    FA6.6
07F0C:  BCF    FA6.7
07F0E:  BSF    FA6.2
07F10:  MOVF   FF2,W
07F12:  MOVWF  00
07F14:  BCF    FF2.7
07F16:  MOVLB  F
07F18:  MOVLW  55
07F1A:  MOVWF  FA7
07F1C:  MOVLW  AA
07F1E:  MOVWF  FA7
07F20:  BSF    FA6.1
07F22:  BTFSC  FA6.1
07F24:  BRA    7F22
07F26:  BCF    FA6.2
07F28:  MOVF   00,W
07F2A:  IORWF  FF2,F
....................          delay_ms(20); 
07F2C:  MOVLW  14
07F2E:  MOVLB  5
07F30:  MOVWF  xE3
07F32:  MOVLB  0
07F34:  CALL   155C
....................       } 
....................              
....................       for(i=0;i<4;i++) 
07F38:  MOVLB  5
07F3A:  CLRF   xBF
07F3C:  MOVF   xBF,W
07F3E:  SUBLW  03
07F40:  BNC   7F94
....................       { 
....................          if(Tppurgap[i]>9) 
07F42:  CLRF   03
07F44:  MOVF   xBF,W
07F46:  ADDLW  EB
07F48:  MOVWF  FE9
07F4A:  MOVLW  04
07F4C:  ADDWFC 03,W
07F4E:  MOVWF  FEA
07F50:  BTFSC  FEF.7
07F52:  BRA    7F6A
07F54:  MOVF   FEF,W
07F56:  SUBLW  09
07F58:  BC    7F6A
....................          {Tppurgap[i]=0;} 
07F5A:  CLRF   03
07F5C:  MOVF   xBF,W
07F5E:  ADDLW  EB
07F60:  MOVWF  FE9
07F62:  MOVLW  04
07F64:  ADDWFC 03,W
07F66:  MOVWF  FEA
07F68:  CLRF   FEF
....................           
....................          if(Tppurgap[i]<0) 
07F6A:  CLRF   03
07F6C:  MOVF   xBF,W
07F6E:  ADDLW  EB
07F70:  MOVWF  FE9
07F72:  MOVLW  04
07F74:  ADDWFC 03,W
07F76:  MOVWF  FEA
07F78:  BTFSC  FEF.7
07F7A:  BRA    7F7E
07F7C:  BRA    7F90
....................          {Tppurgap[i]=9;} 
07F7E:  CLRF   03
07F80:  MOVF   xBF,W
07F82:  ADDLW  EB
07F84:  MOVWF  FE9
07F86:  MOVLW  04
07F88:  ADDWFC 03,W
07F8A:  MOVWF  FEA
07F8C:  MOVLW  09
07F8E:  MOVWF  FEF
....................       } 
07F90:  INCF   xBF,F
07F92:  BRA    7F3C
....................        
....................       for(i=1;i<4;i++) 
07F94:  MOVLW  01
07F96:  MOVWF  xBF
07F98:  MOVF   xBF,W
07F9A:  SUBLW  03
07F9C:  BNC   7FF2
....................       { 
....................          if(Tppurgap[i]>5) 
07F9E:  CLRF   03
07FA0:  MOVF   xBF,W
07FA2:  ADDLW  EB
07FA4:  MOVWF  FE9
07FA6:  MOVLW  04
07FA8:  ADDWFC 03,W
07FAA:  MOVWF  FEA
07FAC:  BTFSC  FEF.7
07FAE:  BRA    7FC6
07FB0:  MOVF   FEF,W
07FB2:  SUBLW  05
07FB4:  BC    7FC6
....................          {Tppurgap[i]=0;} 
07FB6:  CLRF   03
07FB8:  MOVF   xBF,W
07FBA:  ADDLW  EB
07FBC:  MOVWF  FE9
07FBE:  MOVLW  04
07FC0:  ADDWFC 03,W
07FC2:  MOVWF  FEA
07FC4:  CLRF   FEF
....................           
....................          if(Tppurgap[i]<0) 
07FC6:  CLRF   03
07FC8:  MOVF   xBF,W
07FCA:  ADDLW  EB
07FCC:  MOVWF  FE9
07FCE:  MOVLW  04
07FD0:  ADDWFC 03,W
07FD2:  MOVWF  FEA
07FD4:  BTFSC  FEF.7
07FD6:  BRA    7FDA
07FD8:  BRA    7FEC
....................          {Tppurgap[i]=5;} 
07FDA:  CLRF   03
07FDC:  MOVF   xBF,W
07FDE:  ADDLW  EB
07FE0:  MOVWF  FE9
07FE2:  MOVLW  04
07FE4:  ADDWFC 03,W
07FE6:  MOVWF  FEA
07FE8:  MOVLW  05
07FEA:  MOVWF  FEF
....................         i++;  
07FEC:  INCF   xBF,F
....................       } 
07FEE:  INCF   xBF,F
07FF0:  BRA    7F98
....................       if(unidad<1) 
07FF2:  MOVLB  4
07FF4:  MOVF   xC4,F
07FF6:  BNZ   7FFC
....................       {unidad=4;} 
07FF8:  MOVLW  04
07FFA:  MOVWF  xC4
....................       if(Opcion<1) 
07FFC:  MOVF   xC5,F
07FFE:  BNZ   8004
....................       {Opcion=4;} 
08000:  MOVLW  04
08002:  MOVWF  xC5
....................      
....................     } 
.................... //_--------------------------------------------------------------------------------------------------------------------------------------------------------        
....................  
.................... //_-------------------------------------------------------------------------------------------------------------------------------------------------------- 
....................       if(Menu==5){ //Menu de Clave. 
08004:  MOVF   xC3,W
08006:  SUBLW  05
08008:  BNZ   8064
....................  
....................       PidePassword(3,5,211,Password[0],Password[1],Password[2],Password[3]); 
0800A:  MOVLW  03
0800C:  MOVLB  5
0800E:  MOVWF  xD0
08010:  MOVLW  05
08012:  MOVWF  xD1
08014:  MOVLW  D3
08016:  MOVWF  xD2
08018:  MOVFF  4FF,5D3
0801C:  MOVFF  500,5D4
08020:  MOVFF  501,5D5
08024:  MOVFF  502,5D6
08028:  MOVLB  0
0802A:  CALL   4D66
....................              
....................       if(LEFT)//Si oprime boton de Toma. 
0802E:  BSF    F96.2
08030:  BTFSC  F84.2
08032:  BRA    8066
....................       { 
....................          delay_ms(200); 
08034:  MOVLW  C8
08036:  MOVLB  5
08038:  MOVWF  xE3
0803A:  MOVLB  0
0803C:  CALL   155C
....................          if(unidad==1){ 
08040:  MOVLB  4
08042:  DECFSZ xC4,W
08044:  BRA    8064
....................             Menu=3;glcd_fillscreen(OFF);Opcion=1;unidad=1;Contrasena[0]=0;Contrasena[1]=0;Contrasena[2]=0;Contrasena[3]=0; 
08046:  MOVLW  03
08048:  MOVWF  xC3
0804A:  MOVLB  5
0804C:  CLRF   xD7
0804E:  MOVLB  0
08050:  CALL   163C
08054:  MOVLW  01
08056:  MOVLB  4
08058:  MOVWF  xC5
0805A:  MOVWF  xC4
0805C:  CLRF   xFB
0805E:  CLRF   xFC
08060:  CLRF   xFD
08062:  CLRF   xFE
08064:  MOVLB  0
....................          } 
....................       }  
....................     } 
.................... //_--------------------------------------------------------------------------------------------------------------------------------------------------------        
....................  
.................... //_-------------------------------------------------------------------------------------------------------------------------------------------------------- 
....................       if(Menu==211){ //Menu de Cambio Clave. 
08066:  MOVLB  4
08068:  MOVF   xC3,W
0806A:  SUBLW  D3
0806C:  BTFSS  FD8.2
0806E:  BRA    8506
....................        
....................       if(n==0) 
08070:  BTFSC  x2F.3
08072:  BRA    80D2
....................       { 
....................          displayContrasena(Contrasena[0],20,30,1);displayContrasena(Contrasena[1],40,30,0); 
08074:  MOVFF  4FB,5D9
08078:  MOVLW  14
0807A:  MOVLB  5
0807C:  MOVWF  xDA
0807E:  MOVLW  1E
08080:  MOVWF  xDB
08082:  MOVLW  01
08084:  MOVWF  xDC
08086:  MOVLB  0
08088:  CALL   4BE2
0808C:  MOVFF  4FC,5D9
08090:  MOVLW  28
08092:  MOVLB  5
08094:  MOVWF  xDA
08096:  MOVLW  1E
08098:  MOVWF  xDB
0809A:  CLRF   xDC
0809C:  MOVLB  0
0809E:  CALL   4BE2
....................          displayContrasena(Contrasena[2],60,30,0);displayContrasena(Contrasena[0],80,30,0); 
080A2:  MOVFF  4FD,5D9
080A6:  MOVLW  3C
080A8:  MOVLB  5
080AA:  MOVWF  xDA
080AC:  MOVLW  1E
080AE:  MOVWF  xDB
080B0:  CLRF   xDC
080B2:  MOVLB  0
080B4:  CALL   4BE2
080B8:  MOVFF  4FB,5D9
080BC:  MOVLW  50
080BE:  MOVLB  5
080C0:  MOVWF  xDA
080C2:  MOVLW  1E
080C4:  MOVWF  xDB
080C6:  CLRF   xDC
080C8:  MOVLB  0
080CA:  CALL   4BE2
....................          n=1; 
080CE:  MOVLB  4
080D0:  BSF    x2F.3
....................       } 
....................       strcpy(Menus.Letra,"Clave Nueva"); 
080D2:  MOVLW  04
080D4:  MOVWF  FEA
080D6:  MOVLW  17
080D8:  MOVWF  FE9
080DA:  MOVFF  FF2,5CF
080DE:  BCF    FF2.7
080E0:  MOVLW  00
080E2:  MOVLB  0
080E4:  CALL   11EE
080E8:  TBLRD*-
080EA:  TBLRD*+
080EC:  MOVF   FF5,W
080EE:  MOVWF  FEE
080F0:  IORLW  00
080F2:  BNZ   80EA
080F4:  MOVLB  5
080F6:  BTFSC  xCF.7
080F8:  BSF    FF2.7
....................       displayMenu(Menus.Letra,0,0,1,2); 
080FA:  MOVLW  04
080FC:  MOVWF  xD8
080FE:  MOVLW  17
08100:  MOVWF  xD7
08102:  CLRF   xD9
08104:  CLRF   xDA
08106:  MOVLW  01
08108:  MOVWF  xDB
0810A:  MOVLW  02
0810C:  MOVWF  xDC
0810E:  MOVLB  0
08110:  CALL   4C9A
....................          
....................        
....................       if(UP)//Si oprime hacia arriba 
08114:  BSF    F92.5
08116:  BTFSC  F80.5
08118:  BRA    81F2
....................       {  if(Flanco == 0)  
0811A:  MOVLB  4
0811C:  BTFSC  x2D.0
0811E:  BRA    81F0
....................             {Flanco = 1;delay_ms(30); 
08120:  BSF    x2D.0
08122:  MOVLW  1E
08124:  MOVLB  5
08126:  MOVWF  xE3
08128:  MOVLB  0
0812A:  CALL   155C
....................             for(i=1;i<=4;i++) 
0812E:  MOVLW  01
08130:  MOVLB  5
08132:  MOVWF  xBF
08134:  MOVF   xBF,W
08136:  SUBLW  04
08138:  BNC   81EE
....................                { 
....................                   if(unidad==i) 
0813A:  MOVF   xBF,W
0813C:  MOVLB  4
0813E:  SUBWF  xC4,W
08140:  BNZ   81B6
....................                   {Contrasena[i-1]++; 
08142:  MOVLW  01
08144:  MOVLB  5
08146:  SUBWF  xBF,W
08148:  CLRF   03
0814A:  ADDLW  FB
0814C:  MOVWF  FE9
0814E:  MOVLW  04
08150:  ADDWFC 03,W
08152:  MOVWF  FEA
08154:  INCF   FEF,F
....................                   if(Contrasena[i-1]>9) 
08156:  MOVLW  01
08158:  SUBWF  xBF,W
0815A:  CLRF   03
0815C:  ADDLW  FB
0815E:  MOVWF  FE9
08160:  MOVLW  04
08162:  ADDWFC 03,W
08164:  MOVWF  FEA
08166:  BTFSC  FEF.7
08168:  BRA    8182
0816A:  MOVF   FEF,W
0816C:  SUBLW  09
0816E:  BC    8182
....................                         {Contrasena[i-1]=0;} 
08170:  MOVLW  01
08172:  SUBWF  xBF,W
08174:  CLRF   03
08176:  ADDLW  FB
08178:  MOVWF  FE9
0817A:  MOVLW  04
0817C:  ADDWFC 03,W
0817E:  MOVWF  FEA
08180:  CLRF   FEF
....................                   displayContrasena(Contrasena[i-1],i*20,30,1);} 
08182:  MOVLW  01
08184:  SUBWF  xBF,W
08186:  CLRF   03
08188:  ADDLW  FB
0818A:  MOVWF  FE9
0818C:  MOVLW  04
0818E:  ADDWFC 03,W
08190:  MOVWF  FEA
08192:  MOVFF  FEF,5CF
08196:  MOVF   xBF,W
08198:  MULLW  14
0819A:  MOVFF  FF3,5D0
0819E:  MOVFF  5CF,5D9
081A2:  MOVFF  5D0,5DA
081A6:  MOVLW  1E
081A8:  MOVWF  xDB
081AA:  MOVLW  01
081AC:  MOVWF  xDC
081AE:  MOVLB  0
081B0:  CALL   4BE2
....................                   else 
081B4:  BRA    81E8
....................                   {displayContrasena(Contrasena[i-1],i*20,30,0);} 
081B6:  MOVLW  01
081B8:  MOVLB  5
081BA:  SUBWF  xBF,W
081BC:  CLRF   03
081BE:  ADDLW  FB
081C0:  MOVWF  FE9
081C2:  MOVLW  04
081C4:  ADDWFC 03,W
081C6:  MOVWF  FEA
081C8:  MOVFF  FEF,5CF
081CC:  MOVF   xBF,W
081CE:  MULLW  14
081D0:  MOVFF  FF3,5D0
081D4:  MOVFF  5CF,5D9
081D8:  MOVFF  5D0,5DA
081DC:  MOVLW  1E
081DE:  MOVWF  xDB
081E0:  CLRF   xDC
081E2:  MOVLB  0
081E4:  CALL   4BE2
....................                } 
081E8:  MOVLB  5
081EA:  INCF   xBF,F
081EC:  BRA    8134
081EE:  MOVLB  4
....................             } 
....................       } 
....................          else 
081F0:  BRA    81F6
....................             {Flanco = 0;} 
081F2:  MOVLB  4
081F4:  BCF    x2D.0
....................              
....................       if(DOWN )//Si oprime hacia abajo 
081F6:  BSF    F96.0
081F8:  BTFSC  F84.0
081FA:  BRA    82D0
....................       {  if(Flanco2 == 0)  
081FC:  BTFSC  x2D.2
081FE:  BRA    82CE
....................             {Flanco2 = 1;delay_ms(30); 
08200:  BSF    x2D.2
08202:  MOVLW  1E
08204:  MOVLB  5
08206:  MOVWF  xE3
08208:  MOVLB  0
0820A:  CALL   155C
....................                for(i=1;i<=4;i++) 
0820E:  MOVLW  01
08210:  MOVLB  5
08212:  MOVWF  xBF
08214:  MOVF   xBF,W
08216:  SUBLW  04
08218:  BNC   82CC
....................                { 
....................                   if(unidad==i) 
0821A:  MOVF   xBF,W
0821C:  MOVLB  4
0821E:  SUBWF  xC4,W
08220:  BNZ   8294
....................                   {Contrasena[i-1]--;  
08222:  MOVLW  01
08224:  MOVLB  5
08226:  SUBWF  xBF,W
08228:  CLRF   03
0822A:  ADDLW  FB
0822C:  MOVWF  FE9
0822E:  MOVLW  04
08230:  ADDWFC 03,W
08232:  MOVWF  FEA
08234:  DECF   FEF,F
....................                      if(Contrasena[i-1]<0) 
08236:  MOVLW  01
08238:  SUBWF  xBF,W
0823A:  CLRF   03
0823C:  ADDLW  FB
0823E:  MOVWF  FE9
08240:  MOVLW  04
08242:  ADDWFC 03,W
08244:  MOVWF  FEA
08246:  BTFSC  FEF.7
08248:  BRA    824C
0824A:  BRA    8260
....................                         {Contrasena[i-1]=9;} 
0824C:  MOVLW  01
0824E:  SUBWF  xBF,W
08250:  CLRF   03
08252:  ADDLW  FB
08254:  MOVWF  FE9
08256:  MOVLW  04
08258:  ADDWFC 03,W
0825A:  MOVWF  FEA
0825C:  MOVLW  09
0825E:  MOVWF  FEF
....................                    displayContrasena(Contrasena[i-1],i*20,30,1);} 
08260:  MOVLW  01
08262:  SUBWF  xBF,W
08264:  CLRF   03
08266:  ADDLW  FB
08268:  MOVWF  FE9
0826A:  MOVLW  04
0826C:  ADDWFC 03,W
0826E:  MOVWF  FEA
08270:  MOVFF  FEF,5CF
08274:  MOVF   xBF,W
08276:  MULLW  14
08278:  MOVFF  FF3,5D0
0827C:  MOVFF  5CF,5D9
08280:  MOVFF  5D0,5DA
08284:  MOVLW  1E
08286:  MOVWF  xDB
08288:  MOVLW  01
0828A:  MOVWF  xDC
0828C:  MOVLB  0
0828E:  CALL   4BE2
....................                   else 
08292:  BRA    82C6
....................                   {displayContrasena(Contrasena[i-1],i*20,30,0);} 
08294:  MOVLW  01
08296:  MOVLB  5
08298:  SUBWF  xBF,W
0829A:  CLRF   03
0829C:  ADDLW  FB
0829E:  MOVWF  FE9
082A0:  MOVLW  04
082A2:  ADDWFC 03,W
082A4:  MOVWF  FEA
082A6:  MOVFF  FEF,5CF
082AA:  MOVF   xBF,W
082AC:  MULLW  14
082AE:  MOVFF  FF3,5D0
082B2:  MOVFF  5CF,5D9
082B6:  MOVFF  5D0,5DA
082BA:  MOVLW  1E
082BC:  MOVWF  xDB
082BE:  CLRF   xDC
082C0:  MOVLB  0
082C2:  CALL   4BE2
....................                }       
082C6:  MOVLB  5
082C8:  INCF   xBF,F
082CA:  BRA    8214
082CC:  MOVLB  4
....................             }      
....................       } 
....................          else 
082CE:  BRA    82D2
....................             {Flanco2 = 0;}   
082D0:  BCF    x2D.2
....................              
....................       if(RIGHT)//Si oprime SET 
082D2:  BSF    F96.1
082D4:  BTFSC  F84.1
082D6:  BRA    8374
....................       {  if(Flanco1 == 0)  
082D8:  BTFSC  x2D.1
082DA:  BRA    8372
....................             {Flanco1 = 1;delay_ms(30);unidad++; 
082DC:  BSF    x2D.1
082DE:  MOVLW  1E
082E0:  MOVLB  5
082E2:  MOVWF  xE3
082E4:  MOVLB  0
082E6:  CALL   155C
082EA:  MOVLB  4
082EC:  INCF   xC4,F
....................                for(i=1;i<=4;i++) 
082EE:  MOVLW  01
082F0:  MOVLB  5
082F2:  MOVWF  xBF
082F4:  MOVF   xBF,W
082F6:  SUBLW  04
082F8:  BNC   8370
....................                { 
....................                   if(unidad==i) 
082FA:  MOVF   xBF,W
082FC:  MOVLB  4
082FE:  SUBWF  xC4,W
08300:  BNZ   8338
....................                   {displayContrasena(Contrasena[i-1],i*20,30,1);} 
08302:  MOVLW  01
08304:  MOVLB  5
08306:  SUBWF  xBF,W
08308:  CLRF   03
0830A:  ADDLW  FB
0830C:  MOVWF  FE9
0830E:  MOVLW  04
08310:  ADDWFC 03,W
08312:  MOVWF  FEA
08314:  MOVFF  FEF,5CF
08318:  MOVF   xBF,W
0831A:  MULLW  14
0831C:  MOVFF  FF3,5D0
08320:  MOVFF  5CF,5D9
08324:  MOVFF  5D0,5DA
08328:  MOVLW  1E
0832A:  MOVWF  xDB
0832C:  MOVLW  01
0832E:  MOVWF  xDC
08330:  MOVLB  0
08332:  CALL   4BE2
....................                   else 
08336:  BRA    836A
....................                   {displayContrasena(Contrasena[i-1],i*20,30,0);} 
08338:  MOVLW  01
0833A:  MOVLB  5
0833C:  SUBWF  xBF,W
0833E:  CLRF   03
08340:  ADDLW  FB
08342:  MOVWF  FE9
08344:  MOVLW  04
08346:  ADDWFC 03,W
08348:  MOVWF  FEA
0834A:  MOVFF  FEF,5CF
0834E:  MOVF   xBF,W
08350:  MULLW  14
08352:  MOVFF  FF3,5D0
08356:  MOVFF  5CF,5D9
0835A:  MOVFF  5D0,5DA
0835E:  MOVLW  1E
08360:  MOVWF  xDB
08362:  CLRF   xDC
08364:  MOVLB  0
08366:  CALL   4BE2
....................                } 
0836A:  MOVLB  5
0836C:  INCF   xBF,F
0836E:  BRA    82F4
08370:  MOVLB  4
....................             } 
....................       } 
....................          else 
08372:  BRA    8376
....................             {Flanco1 = 0;}   
08374:  BCF    x2D.1
....................              
....................       if(LEFT)//Si oprime boton de Toma. 
08376:  BSF    F96.2
08378:  BTFSC  F84.2
0837A:  BRA    83B6
....................       { 
....................          
....................          delay_ms(700); 
0837C:  MOVLW  04
0837E:  MOVLB  5
08380:  MOVWF  xCF
08382:  MOVLW  AF
08384:  MOVWF  xE3
08386:  MOVLB  0
08388:  CALL   155C
0838C:  MOVLB  5
0838E:  DECFSZ xCF,F
08390:  BRA    8382
....................          if(unidad==1){ 
08392:  MOVLB  4
08394:  DECFSZ xC4,W
08396:  BRA    83B6
....................             Menu=3;glcd_fillscreen(OFF);Opcion=1;unidad=1;Contrasena[0]=0;Contrasena[1]=0;Contrasena[2]=0;Contrasena[3]=0; 
08398:  MOVLW  03
0839A:  MOVWF  xC3
0839C:  MOVLB  5
0839E:  CLRF   xD7
083A0:  MOVLB  0
083A2:  CALL   163C
083A6:  MOVLW  01
083A8:  MOVLB  4
083AA:  MOVWF  xC5
083AC:  MOVWF  xC4
083AE:  CLRF   xFB
083B0:  CLRF   xFC
083B2:  CLRF   xFD
083B4:  CLRF   xFE
....................          } 
....................       } 
....................        
....................       if(unidad>4) 
083B6:  MOVF   xC4,W
083B8:  SUBLW  04
083BA:  BTFSC  FD8.0
083BC:  BRA    8506
....................       { 
....................          Opcion=1;glcd_fillscreen(OFF);unidad=1;n=0; 
083BE:  MOVLW  01
083C0:  MOVWF  xC5
083C2:  MOVLB  5
083C4:  CLRF   xD7
083C6:  MOVLB  0
083C8:  CALL   163C
083CC:  MOVLW  01
083CE:  MOVLB  4
083D0:  MOVWF  xC4
083D2:  BCF    x2F.3
....................          Password[0]=Contrasena[0];Password[1]=Contrasena[1];Password[2]=Contrasena[2];Password[3]=Contrasena[3]; 
083D4:  MOVFF  4FB,4FF
083D8:  MOVFF  4FC,500
083DC:  MOVFF  4FD,501
083E0:  MOVFF  4FE,502
....................          write_eeprom(0,Password[0]); 
083E4:  CLRF   FAA
083E6:  CLRF   FA9
083E8:  MOVFF  4FF,FA8
083EC:  BCF    FA6.6
083EE:  BCF    FA6.7
083F0:  BSF    FA6.2
083F2:  MOVF   FF2,W
083F4:  MOVWF  00
083F6:  BCF    FF2.7
083F8:  MOVLB  F
083FA:  MOVLW  55
083FC:  MOVWF  FA7
083FE:  MOVLW  AA
08400:  MOVWF  FA7
08402:  BSF    FA6.1
08404:  BTFSC  FA6.1
08406:  BRA    8404
08408:  BCF    FA6.2
0840A:  MOVF   00,W
0840C:  IORWF  FF2,F
....................          delay_ms(20); 
0840E:  MOVLW  14
08410:  MOVLB  5
08412:  MOVWF  xE3
08414:  MOVLB  0
08416:  CALL   155C
....................          write_eeprom(1,Password[1]); 
0841A:  CLRF   FAA
0841C:  MOVLW  01
0841E:  MOVWF  FA9
08420:  MOVFF  500,FA8
08424:  BCF    FA6.6
08426:  BCF    FA6.7
08428:  BSF    FA6.2
0842A:  MOVF   FF2,W
0842C:  MOVWF  00
0842E:  BCF    FF2.7
08430:  MOVLB  F
08432:  MOVLW  55
08434:  MOVWF  FA7
08436:  MOVLW  AA
08438:  MOVWF  FA7
0843A:  BSF    FA6.1
0843C:  BTFSC  FA6.1
0843E:  BRA    843C
08440:  BCF    FA6.2
08442:  MOVF   00,W
08444:  IORWF  FF2,F
....................          delay_ms(20); 
08446:  MOVLW  14
08448:  MOVLB  5
0844A:  MOVWF  xE3
0844C:  MOVLB  0
0844E:  CALL   155C
....................          write_eeprom(2,Password[2]); 
08452:  CLRF   FAA
08454:  MOVLW  02
08456:  MOVWF  FA9
08458:  MOVFF  501,FA8
0845C:  BCF    FA6.6
0845E:  BCF    FA6.7
08460:  BSF    FA6.2
08462:  MOVF   FF2,W
08464:  MOVWF  00
08466:  BCF    FF2.7
08468:  MOVLB  F
0846A:  MOVLW  55
0846C:  MOVWF  FA7
0846E:  MOVLW  AA
08470:  MOVWF  FA7
08472:  BSF    FA6.1
08474:  BTFSC  FA6.1
08476:  BRA    8474
08478:  BCF    FA6.2
0847A:  MOVF   00,W
0847C:  IORWF  FF2,F
....................          delay_ms(20); 
0847E:  MOVLW  14
08480:  MOVLB  5
08482:  MOVWF  xE3
08484:  MOVLB  0
08486:  CALL   155C
....................          write_eeprom(3,Password[3]); 
0848A:  CLRF   FAA
0848C:  MOVLW  03
0848E:  MOVWF  FA9
08490:  MOVFF  502,FA8
08494:  BCF    FA6.6
08496:  BCF    FA6.7
08498:  BSF    FA6.2
0849A:  MOVF   FF2,W
0849C:  MOVWF  00
0849E:  BCF    FF2.7
084A0:  MOVLB  F
084A2:  MOVLW  55
084A4:  MOVWF  FA7
084A6:  MOVLW  AA
084A8:  MOVWF  FA7
084AA:  BSF    FA6.1
084AC:  BTFSC  FA6.1
084AE:  BRA    84AC
084B0:  BCF    FA6.2
084B2:  MOVF   00,W
084B4:  IORWF  FF2,F
....................          delay_ms(20); 
084B6:  MOVLW  14
084B8:  MOVLB  5
084BA:  MOVWF  xE3
084BC:  MOVLB  0
084BE:  CALL   155C
....................          glcd_imagen(1);glcd_update();Menu=211;delay_ms(1000);glcd_fillScreen(OFF);Menu=3; 
084C2:  MOVLW  01
084C4:  MOVLB  5
084C6:  MOVWF  xCF
084C8:  MOVLB  0
084CA:  CALL   5564
084CE:  CALL   1696
084D2:  MOVLW  D3
084D4:  MOVLB  4
084D6:  MOVWF  xC3
084D8:  MOVLW  04
084DA:  MOVLB  5
084DC:  MOVWF  xCF
084DE:  MOVLW  FA
084E0:  MOVWF  xE3
084E2:  MOVLB  0
084E4:  CALL   155C
084E8:  MOVLB  5
084EA:  DECFSZ xCF,F
084EC:  BRA    84DE
084EE:  CLRF   xD7
084F0:  MOVLB  0
084F2:  CALL   163C
084F6:  MOVLW  03
084F8:  MOVLB  4
084FA:  MOVWF  xC3
....................          n=0; 
084FC:  BCF    x2F.3
....................          Contrasena[0]=0;Contrasena[1]=0;Contrasena[2]=0;Contrasena[3]=0; 
084FE:  CLRF   xFB
08500:  CLRF   xFC
08502:  CLRF   xFD
08504:  CLRF   xFE
....................       } 
....................      
....................     } 
.................... //_--------------------------------------------------------------------------------------------------------------------------------------------------------        
....................  
.................... //_-------------------------------------------------------------------------------------------------------------------------------------------------------- 
....................       if(Menu==31){ //Menu de Mantenimiento. 
08506:  MOVF   xC3,W
08508:  SUBLW  1F
0850A:  BTFSS  FD8.2
0850C:  BRA    8868
....................        
....................          strcpy(Menus.Letra,"Manteniento"); 
0850E:  MOVLW  04
08510:  MOVWF  FEA
08512:  MOVLW  17
08514:  MOVWF  FE9
08516:  MOVFF  FF2,5CF
0851A:  BCF    FF2.7
0851C:  MOVLW  00
0851E:  MOVLB  0
08520:  CALL   1218
08524:  TBLRD*-
08526:  TBLRD*+
08528:  MOVF   FF5,W
0852A:  MOVWF  FEE
0852C:  IORLW  00
0852E:  BNZ   8526
08530:  MOVLB  5
08532:  BTFSC  xCF.7
08534:  BSF    FF2.7
....................          displayMenu(Menus.Letra,0,0,1,2); 
08536:  MOVLW  04
08538:  MOVWF  xD8
0853A:  MOVLW  17
0853C:  MOVWF  xD7
0853E:  CLRF   xD9
08540:  CLRF   xDA
08542:  MOVLW  01
08544:  MOVWF  xDB
08546:  MOVLW  02
08548:  MOVWF  xDC
0854A:  MOVLB  0
0854C:  CALL   4C9A
....................           
....................          strcpy(Menus.Letra,"Trabajo Filtro(h):"); 
08550:  MOVLW  04
08552:  MOVWF  FEA
08554:  MOVLW  17
08556:  MOVWF  FE9
08558:  MOVFF  FF2,5CF
0855C:  BCF    FF2.7
0855E:  MOVLW  00
08560:  CALL   1242
08564:  TBLRD*-
08566:  TBLRD*+
08568:  MOVF   FF5,W
0856A:  MOVWF  FEE
0856C:  IORLW  00
0856E:  BNZ   8566
08570:  MOVLB  5
08572:  BTFSC  xCF.7
08574:  BSF    FF2.7
....................          displayMenu(Menus.Letra,10,20,1,1); 
08576:  MOVLW  04
08578:  MOVWF  xD8
0857A:  MOVLW  17
0857C:  MOVWF  xD7
0857E:  MOVLW  0A
08580:  MOVWF  xD9
08582:  MOVLW  14
08584:  MOVWF  xDA
08586:  MOVLW  01
08588:  MOVWF  xDB
0858A:  MOVWF  xDC
0858C:  MOVLB  0
0858E:  CALL   4C9A
....................          glcd_text57(0, 31, Vida_Filtro, 1, ON); 
08592:  MOVLB  5
08594:  CLRF   xE8
08596:  MOVLW  1F
08598:  MOVWF  xE9
0859A:  MOVLW  04
0859C:  MOVWF  xEB
0859E:  MOVLW  98
085A0:  MOVWF  xEA
085A2:  MOVLW  01
085A4:  MOVWF  xEC
085A6:  MOVWF  xED
085A8:  MOVLB  0
085AA:  CALL   4A28
....................          displayTiempo(Ttrabajo[3],60,30,0,1);displayTiempo(Ttrabajo[2],67,30,0,1);displayTiempo(Ttrabajo[1],74,30,0,1);displayTiempo(Ttrabajo[0],82,30,0,1); 
085AE:  MOVFF  4FA,5CF
085B2:  MOVLW  3C
085B4:  MOVLB  5
085B6:  MOVWF  xD0
085B8:  MOVLW  1E
085BA:  MOVWF  xD1
085BC:  CLRF   xD2
085BE:  MOVLW  01
085C0:  MOVWF  xD3
085C2:  MOVLB  0
085C4:  CALL   5468
085C8:  MOVFF  4F9,5CF
085CC:  MOVLW  43
085CE:  MOVLB  5
085D0:  MOVWF  xD0
085D2:  MOVLW  1E
085D4:  MOVWF  xD1
085D6:  CLRF   xD2
085D8:  MOVLW  01
085DA:  MOVWF  xD3
085DC:  MOVLB  0
085DE:  CALL   5468
085E2:  MOVFF  4F8,5CF
085E6:  MOVLW  4A
085E8:  MOVLB  5
085EA:  MOVWF  xD0
085EC:  MOVLW  1E
085EE:  MOVWF  xD1
085F0:  CLRF   xD2
085F2:  MOVLW  01
085F4:  MOVWF  xD3
085F6:  MOVLB  0
085F8:  CALL   5468
085FC:  MOVFF  4F7,5CF
08600:  MOVLW  52
08602:  MOVLB  5
08604:  MOVWF  xD0
08606:  MOVLW  1E
08608:  MOVWF  xD1
0860A:  CLRF   xD2
0860C:  MOVLW  01
0860E:  MOVWF  xD3
08610:  MOVLB  0
08612:  CALL   5468
....................           
....................          LuzBlanca_on; 
08616:  BSF    F8B.0
08618:  BCF    F94.0
....................           
....................             if(UP && RIGHT) // Reinicia Tiempo de Luz UV 
0861A:  BSF    F92.5
0861C:  BTFSC  F80.5
0861E:  BRA    8730
08620:  BSF    F96.1
08622:  BTFSC  F84.1
08624:  BRA    8730
....................             { 
....................                   delay_ms(2000); 
08626:  MOVLW  08
08628:  MOVLB  5
0862A:  MOVWF  xCF
0862C:  MOVLW  FA
0862E:  MOVWF  xE3
08630:  MOVLB  0
08632:  CALL   155C
08636:  MOVLB  5
08638:  DECFSZ xCF,F
0863A:  BRA    862C
....................                   write_eeprom(12,0); 
0863C:  CLRF   FAA
0863E:  MOVLW  0C
08640:  MOVWF  FA9
08642:  CLRF   FA8
08644:  BCF    FA6.6
08646:  BCF    FA6.7
08648:  BSF    FA6.2
0864A:  MOVF   FF2,W
0864C:  MOVWF  00
0864E:  BCF    FF2.7
08650:  MOVLB  F
08652:  MOVLW  55
08654:  MOVWF  FA7
08656:  MOVLW  AA
08658:  MOVWF  FA7
0865A:  BSF    FA6.1
0865C:  BTFSC  FA6.1
0865E:  BRA    865C
08660:  BCF    FA6.2
08662:  MOVF   00,W
08664:  IORWF  FF2,F
....................                   delay_ms(20); 
08666:  MOVLW  14
08668:  MOVLB  5
0866A:  MOVWF  xE3
0866C:  MOVLB  0
0866E:  CALL   155C
....................                   write_eeprom(13,0); 
08672:  CLRF   FAA
08674:  MOVLW  0D
08676:  MOVWF  FA9
08678:  CLRF   FA8
0867A:  BCF    FA6.6
0867C:  BCF    FA6.7
0867E:  BSF    FA6.2
08680:  MOVF   FF2,W
08682:  MOVWF  00
08684:  BCF    FF2.7
08686:  MOVLB  F
08688:  MOVLW  55
0868A:  MOVWF  FA7
0868C:  MOVLW  AA
0868E:  MOVWF  FA7
08690:  BSF    FA6.1
08692:  BTFSC  FA6.1
08694:  BRA    8692
08696:  BCF    FA6.2
08698:  MOVF   00,W
0869A:  IORWF  FF2,F
....................                   delay_ms(20); 
0869C:  MOVLW  14
0869E:  MOVLB  5
086A0:  MOVWF  xE3
086A2:  MOVLB  0
086A4:  CALL   155C
....................                   write_eeprom(14,0); 
086A8:  CLRF   FAA
086AA:  MOVLW  0E
086AC:  MOVWF  FA9
086AE:  CLRF   FA8
086B0:  BCF    FA6.6
086B2:  BCF    FA6.7
086B4:  BSF    FA6.2
086B6:  MOVF   FF2,W
086B8:  MOVWF  00
086BA:  BCF    FF2.7
086BC:  MOVLB  F
086BE:  MOVLW  55
086C0:  MOVWF  FA7
086C2:  MOVLW  AA
086C4:  MOVWF  FA7
086C6:  BSF    FA6.1
086C8:  BTFSC  FA6.1
086CA:  BRA    86C8
086CC:  BCF    FA6.2
086CE:  MOVF   00,W
086D0:  IORWF  FF2,F
....................                   delay_ms(20); 
086D2:  MOVLW  14
086D4:  MOVLB  5
086D6:  MOVWF  xE3
086D8:  MOVLB  0
086DA:  CALL   155C
....................                   write_eeprom(15,0); 
086DE:  CLRF   FAA
086E0:  MOVLW  0F
086E2:  MOVWF  FA9
086E4:  CLRF   FA8
086E6:  BCF    FA6.6
086E8:  BCF    FA6.7
086EA:  BSF    FA6.2
086EC:  MOVF   FF2,W
086EE:  MOVWF  00
086F0:  BCF    FF2.7
086F2:  MOVLB  F
086F4:  MOVLW  55
086F6:  MOVWF  FA7
086F8:  MOVLW  AA
086FA:  MOVWF  FA7
086FC:  BSF    FA6.1
086FE:  BTFSC  FA6.1
08700:  BRA    86FE
08702:  BCF    FA6.2
08704:  MOVF   00,W
08706:  IORWF  FF2,F
....................                   delay_ms(20); 
08708:  MOVLW  14
0870A:  MOVLB  5
0870C:  MOVWF  xE3
0870E:  MOVLB  0
08710:  CALL   155C
....................                   Tuv[3]=0;Tuv[2]=0;Tuv[1]=0;Tuv[0]=0; 
08714:  MOVLB  4
08716:  CLRF   xF2
08718:  CLRF   xF1
0871A:  CLRF   xF0
0871C:  CLRF   xEF
....................                   Menu=3;glcd_fillscreen(OFF);LuzBlanca_off; 
0871E:  MOVLW  03
08720:  MOVWF  xC3
08722:  MOVLB  5
08724:  CLRF   xD7
08726:  MOVLB  0
08728:  CALL   163C
0872C:  BCF    F8B.0
0872E:  BCF    F94.0
....................                 
....................             } 
....................             if(DOWN && RIGHT) // Reinicia Tiempo de Trabajo 
08730:  BSF    F96.0
08732:  BTFSC  F84.0
08734:  BRA    8846
08736:  BSF    F96.1
08738:  BTFSC  F84.1
0873A:  BRA    8846
....................             { 
....................                   delay_ms(2000); 
0873C:  MOVLW  08
0873E:  MOVLB  5
08740:  MOVWF  xCF
08742:  MOVLW  FA
08744:  MOVWF  xE3
08746:  MOVLB  0
08748:  CALL   155C
0874C:  MOVLB  5
0874E:  DECFSZ xCF,F
08750:  BRA    8742
....................                   write_eeprom(16,0); 
08752:  CLRF   FAA
08754:  MOVLW  10
08756:  MOVWF  FA9
08758:  CLRF   FA8
0875A:  BCF    FA6.6
0875C:  BCF    FA6.7
0875E:  BSF    FA6.2
08760:  MOVF   FF2,W
08762:  MOVWF  00
08764:  BCF    FF2.7
08766:  MOVLB  F
08768:  MOVLW  55
0876A:  MOVWF  FA7
0876C:  MOVLW  AA
0876E:  MOVWF  FA7
08770:  BSF    FA6.1
08772:  BTFSC  FA6.1
08774:  BRA    8772
08776:  BCF    FA6.2
08778:  MOVF   00,W
0877A:  IORWF  FF2,F
....................                   delay_ms(20); 
0877C:  MOVLW  14
0877E:  MOVLB  5
08780:  MOVWF  xE3
08782:  MOVLB  0
08784:  CALL   155C
....................                   write_eeprom(17,0); 
08788:  CLRF   FAA
0878A:  MOVLW  11
0878C:  MOVWF  FA9
0878E:  CLRF   FA8
08790:  BCF    FA6.6
08792:  BCF    FA6.7
08794:  BSF    FA6.2
08796:  MOVF   FF2,W
08798:  MOVWF  00
0879A:  BCF    FF2.7
0879C:  MOVLB  F
0879E:  MOVLW  55
087A0:  MOVWF  FA7
087A2:  MOVLW  AA
087A4:  MOVWF  FA7
087A6:  BSF    FA6.1
087A8:  BTFSC  FA6.1
087AA:  BRA    87A8
087AC:  BCF    FA6.2
087AE:  MOVF   00,W
087B0:  IORWF  FF2,F
....................                   delay_ms(20); 
087B2:  MOVLW  14
087B4:  MOVLB  5
087B6:  MOVWF  xE3
087B8:  MOVLB  0
087BA:  CALL   155C
....................                   write_eeprom(18,0); 
087BE:  CLRF   FAA
087C0:  MOVLW  12
087C2:  MOVWF  FA9
087C4:  CLRF   FA8
087C6:  BCF    FA6.6
087C8:  BCF    FA6.7
087CA:  BSF    FA6.2
087CC:  MOVF   FF2,W
087CE:  MOVWF  00
087D0:  BCF    FF2.7
087D2:  MOVLB  F
087D4:  MOVLW  55
087D6:  MOVWF  FA7
087D8:  MOVLW  AA
087DA:  MOVWF  FA7
087DC:  BSF    FA6.1
087DE:  BTFSC  FA6.1
087E0:  BRA    87DE
087E2:  BCF    FA6.2
087E4:  MOVF   00,W
087E6:  IORWF  FF2,F
....................                   delay_ms(20); 
087E8:  MOVLW  14
087EA:  MOVLB  5
087EC:  MOVWF  xE3
087EE:  MOVLB  0
087F0:  CALL   155C
....................                   write_eeprom(19,0); 
087F4:  CLRF   FAA
087F6:  MOVLW  13
087F8:  MOVWF  FA9
087FA:  CLRF   FA8
087FC:  BCF    FA6.6
087FE:  BCF    FA6.7
08800:  BSF    FA6.2
08802:  MOVF   FF2,W
08804:  MOVWF  00
08806:  BCF    FF2.7
08808:  MOVLB  F
0880A:  MOVLW  55
0880C:  MOVWF  FA7
0880E:  MOVLW  AA
08810:  MOVWF  FA7
08812:  BSF    FA6.1
08814:  BTFSC  FA6.1
08816:  BRA    8814
08818:  BCF    FA6.2
0881A:  MOVF   00,W
0881C:  IORWF  FF2,F
....................                   delay_ms(20); 
0881E:  MOVLW  14
08820:  MOVLB  5
08822:  MOVWF  xE3
08824:  MOVLB  0
08826:  CALL   155C
....................                   Ttrabajo[3]=0;Ttrabajo[2]=0;Ttrabajo[1]=0;Ttrabajo[0]=0; 
0882A:  MOVLB  4
0882C:  CLRF   xFA
0882E:  CLRF   xF9
08830:  CLRF   xF8
08832:  CLRF   xF7
....................                   Menu=3;glcd_fillscreen(OFF);LuzBlanca_off; 
08834:  MOVLW  03
08836:  MOVWF  xC3
08838:  MOVLB  5
0883A:  CLRF   xD7
0883C:  MOVLB  0
0883E:  CALL   163C
08842:  BCF    F8B.0
08844:  BCF    F94.0
....................             } 
....................              
....................             if(LEFT) 
08846:  BSF    F96.2
08848:  BTFSC  F84.2
0884A:  BRA    886A
....................             { 
....................                Menu=6;glcd_fillscreen(OFF);LuzBlanca_off;Opcion=1;unidad=1; 
0884C:  MOVLW  06
0884E:  MOVLB  4
08850:  MOVWF  xC3
08852:  MOVLB  5
08854:  CLRF   xD7
08856:  MOVLB  0
08858:  CALL   163C
0885C:  BCF    F8B.0
0885E:  BCF    F94.0
08860:  MOVLW  01
08862:  MOVLB  4
08864:  MOVWF  xC5
08866:  MOVWF  xC4
08868:  MOVLB  0
....................             } 
....................     } 
.................... //_--------------------------------------------------------------------------------------------------------------------------------------------------------        
....................  
.................... //_-------------------------------------------------------------------------------------------------------------------------------------------------------- 
....................       if(Menu==32){ //Menu de Servicio 
0886A:  MOVLB  4
0886C:  MOVF   xC3,W
0886E:  SUBLW  20
08870:  BTFSS  FD8.2
08872:  BRA    8B8A
....................        
....................       strcpy(Menus.Letra,"Servicio"); 
08874:  MOVLW  04
08876:  MOVWF  FEA
08878:  MOVLW  17
0887A:  MOVWF  FE9
0887C:  MOVFF  FF2,5CF
08880:  BCF    FF2.7
08882:  MOVLW  00
08884:  MOVLB  0
08886:  CALL   1128
0888A:  TBLRD*-
0888C:  TBLRD*+
0888E:  MOVF   FF5,W
08890:  MOVWF  FEE
08892:  IORLW  00
08894:  BNZ   888C
08896:  MOVLB  5
08898:  BTFSC  xCF.7
0889A:  BSF    FF2.7
....................       displayMenu(Menus.Letra,10,0,1,2); 
0889C:  MOVLW  04
0889E:  MOVWF  xD8
088A0:  MOVLW  17
088A2:  MOVWF  xD7
088A4:  MOVLW  0A
088A6:  MOVWF  xD9
088A8:  CLRF   xDA
088AA:  MOVLW  01
088AC:  MOVWF  xDB
088AE:  MOVLW  02
088B0:  MOVWF  xDC
088B2:  MOVLB  0
088B4:  CALL   4C9A
....................        
....................       if(Opcion==1)    
088B8:  MOVLB  4
088BA:  DECFSZ xC5,W
088BC:  BRA    8904
....................          {strcpy(Menus.Letra,"Sensor de Flujo"); 
088BE:  MOVLW  04
088C0:  MOVWF  FEA
088C2:  MOVLW  17
088C4:  MOVWF  FE9
088C6:  MOVFF  FF2,5CF
088CA:  BCF    FF2.7
088CC:  MOVLW  00
088CE:  MOVLB  0
088D0:  CALL   1274
088D4:  TBLRD*-
088D6:  TBLRD*+
088D8:  MOVF   FF5,W
088DA:  MOVWF  FEE
088DC:  IORLW  00
088DE:  BNZ   88D6
088E0:  MOVLB  5
088E2:  BTFSC  xCF.7
088E4:  BSF    FF2.7
....................          displayMenu(Menus.Letra,0,18,1,1);} 
088E6:  MOVLW  04
088E8:  MOVWF  xD8
088EA:  MOVLW  17
088EC:  MOVWF  xD7
088EE:  CLRF   xD9
088F0:  MOVLW  12
088F2:  MOVWF  xDA
088F4:  MOVLW  01
088F6:  MOVWF  xDB
088F8:  MOVWF  xDC
088FA:  MOVLB  0
088FC:  CALL   4C9A
....................       else 
08900:  BRA    8946
08902:  MOVLB  4
....................          {strcpy(Menus.Letra,"Sensor de Flujo"); 
08904:  MOVLW  04
08906:  MOVWF  FEA
08908:  MOVLW  17
0890A:  MOVWF  FE9
0890C:  MOVFF  FF2,5CF
08910:  BCF    FF2.7
08912:  MOVLW  00
08914:  MOVLB  0
08916:  CALL   1274
0891A:  TBLRD*-
0891C:  TBLRD*+
0891E:  MOVF   FF5,W
08920:  MOVWF  FEE
08922:  IORLW  00
08924:  BNZ   891C
08926:  MOVLB  5
08928:  BTFSC  xCF.7
0892A:  BSF    FF2.7
....................          displayMenu(Menus.Letra,0,18,0,1);}  
0892C:  MOVLW  04
0892E:  MOVWF  xD8
08930:  MOVLW  17
08932:  MOVWF  xD7
08934:  CLRF   xD9
08936:  MOVLW  12
08938:  MOVWF  xDA
0893A:  CLRF   xDB
0893C:  MOVLW  01
0893E:  MOVWF  xDC
08940:  MOVLB  0
08942:  CALL   4C9A
....................           
....................       if(Opcion==2)    
08946:  MOVLB  4
08948:  MOVF   xC5,W
0894A:  SUBLW  02
0894C:  BNZ   8994
....................          {strcpy(Menus.Letra,"Sensor de Presion"); 
0894E:  MOVLW  04
08950:  MOVWF  FEA
08952:  MOVLW  17
08954:  MOVWF  FE9
08956:  MOVFF  FF2,5CF
0895A:  BCF    FF2.7
0895C:  MOVLW  00
0895E:  MOVLB  0
08960:  CALL   12A2
08964:  TBLRD*-
08966:  TBLRD*+
08968:  MOVF   FF5,W
0896A:  MOVWF  FEE
0896C:  IORLW  00
0896E:  BNZ   8966
08970:  MOVLB  5
08972:  BTFSC  xCF.7
08974:  BSF    FF2.7
....................          displayMenu(Menus.Letra,0,29,1,1);} 
08976:  MOVLW  04
08978:  MOVWF  xD8
0897A:  MOVLW  17
0897C:  MOVWF  xD7
0897E:  CLRF   xD9
08980:  MOVLW  1D
08982:  MOVWF  xDA
08984:  MOVLW  01
08986:  MOVWF  xDB
08988:  MOVWF  xDC
0898A:  MOVLB  0
0898C:  CALL   4C9A
....................       else 
08990:  BRA    89D6
08992:  MOVLB  4
....................          {strcpy(Menus.Letra,"Sensor de Presion"); 
08994:  MOVLW  04
08996:  MOVWF  FEA
08998:  MOVLW  17
0899A:  MOVWF  FE9
0899C:  MOVFF  FF2,5CF
089A0:  BCF    FF2.7
089A2:  MOVLW  00
089A4:  MOVLB  0
089A6:  CALL   12A2
089AA:  TBLRD*-
089AC:  TBLRD*+
089AE:  MOVF   FF5,W
089B0:  MOVWF  FEE
089B2:  IORLW  00
089B4:  BNZ   89AC
089B6:  MOVLB  5
089B8:  BTFSC  xCF.7
089BA:  BSF    FF2.7
....................          displayMenu(Menus.Letra,0,29,0,1);}   
089BC:  MOVLW  04
089BE:  MOVWF  xD8
089C0:  MOVLW  17
089C2:  MOVWF  xD7
089C4:  CLRF   xD9
089C6:  MOVLW  1D
089C8:  MOVWF  xDA
089CA:  CLRF   xDB
089CC:  MOVLW  01
089CE:  MOVWF  xDC
089D0:  MOVLB  0
089D2:  CALL   4C9A
....................        
....................       if(Opcion==3)    
089D6:  MOVLB  4
089D8:  MOVF   xC5,W
089DA:  SUBLW  03
089DC:  BNZ   8A24
....................          {strcpy(Menus.Letra,"Velocidad Ventilador"); 
089DE:  MOVLW  04
089E0:  MOVWF  FEA
089E2:  MOVLW  17
089E4:  MOVWF  FE9
089E6:  MOVFF  FF2,5CF
089EA:  BCF    FF2.7
089EC:  MOVLW  00
089EE:  MOVLB  0
089F0:  CALL   12D2
089F4:  TBLRD*-
089F6:  TBLRD*+
089F8:  MOVF   FF5,W
089FA:  MOVWF  FEE
089FC:  IORLW  00
089FE:  BNZ   89F6
08A00:  MOVLB  5
08A02:  BTFSC  xCF.7
08A04:  BSF    FF2.7
....................          displayMenu(Menus.Letra,0,40,1,1);} 
08A06:  MOVLW  04
08A08:  MOVWF  xD8
08A0A:  MOVLW  17
08A0C:  MOVWF  xD7
08A0E:  CLRF   xD9
08A10:  MOVLW  28
08A12:  MOVWF  xDA
08A14:  MOVLW  01
08A16:  MOVWF  xDB
08A18:  MOVWF  xDC
08A1A:  MOVLB  0
08A1C:  CALL   4C9A
....................       else 
08A20:  BRA    8A66
08A22:  MOVLB  4
....................          {strcpy(Menus.Letra,"Velocidad Ventilador"); 
08A24:  MOVLW  04
08A26:  MOVWF  FEA
08A28:  MOVLW  17
08A2A:  MOVWF  FE9
08A2C:  MOVFF  FF2,5CF
08A30:  BCF    FF2.7
08A32:  MOVLW  00
08A34:  MOVLB  0
08A36:  CALL   12D2
08A3A:  TBLRD*-
08A3C:  TBLRD*+
08A3E:  MOVF   FF5,W
08A40:  MOVWF  FEE
08A42:  IORLW  00
08A44:  BNZ   8A3C
08A46:  MOVLB  5
08A48:  BTFSC  xCF.7
08A4A:  BSF    FF2.7
....................          displayMenu(Menus.Letra,0,40,0,1);}  
08A4C:  MOVLW  04
08A4E:  MOVWF  xD8
08A50:  MOVLW  17
08A52:  MOVWF  xD7
08A54:  CLRF   xD9
08A56:  MOVLW  28
08A58:  MOVWF  xDA
08A5A:  CLRF   xDB
08A5C:  MOVLW  01
08A5E:  MOVWF  xDC
08A60:  MOVLB  0
08A62:  CALL   4C9A
....................        
....................          
....................       if(UP)//Si oprime hacia arriba 
08A66:  BSF    F92.5
08A68:  BTFSC  F80.5
08A6A:  BRA    8A86
....................       {  if(Flanco == 0)  
08A6C:  MOVLB  4
08A6E:  BTFSC  x2D.0
08A70:  BRA    8A84
....................             {Flanco = 1;delay_ms(30);Opcion--; 
08A72:  BSF    x2D.0
08A74:  MOVLW  1E
08A76:  MOVLB  5
08A78:  MOVWF  xE3
08A7A:  MOVLB  0
08A7C:  CALL   155C
08A80:  MOVLB  4
08A82:  DECF   xC5,F
....................             } 
....................       } 
....................          else 
08A84:  BRA    8A8A
....................             {Flanco = 0;} 
08A86:  MOVLB  4
08A88:  BCF    x2D.0
....................              
....................       if(DOWN)//Si oprime hacia abajo 
08A8A:  BSF    F96.0
08A8C:  BTFSC  F84.0
08A8E:  BRA    8AA8
....................       {  if(Flanco2 == 0)  
08A90:  BTFSC  x2D.2
08A92:  BRA    8AA6
....................             {Flanco2 = 1;delay_ms(30);Opcion++; 
08A94:  BSF    x2D.2
08A96:  MOVLW  1E
08A98:  MOVLB  5
08A9A:  MOVWF  xE3
08A9C:  MOVLB  0
08A9E:  CALL   155C
08AA2:  MOVLB  4
08AA4:  INCF   xC5,F
....................             }      
....................       } 
....................          else 
08AA6:  BRA    8AAA
....................             {Flanco2 = 0;}   
08AA8:  BCF    x2D.2
....................              
....................       if(RIGHT)//Si oprime SET 
08AAA:  BSF    F96.1
08AAC:  BTFSC  F84.1
08AAE:  BRA    8B40
....................       {   
....................          delay_ms(20); 
08AB0:  MOVLW  14
08AB2:  MOVLB  5
08AB4:  MOVWF  xE3
08AB6:  MOVLB  0
08AB8:  CALL   155C
....................          if(RIGHT){ 
08ABC:  BSF    F96.1
08ABE:  BTFSC  F84.1
08AC0:  BRA    8B42
....................             delay_ms(100); 
08AC2:  MOVLW  64
08AC4:  MOVLB  5
08AC6:  MOVWF  xE3
08AC8:  MOVLB  0
08ACA:  CALL   155C
....................             glcd_fillScreen(OFF); 
08ACE:  MOVLB  5
08AD0:  CLRF   xD7
08AD2:  MOVLB  0
08AD4:  CALL   163C
....................             while(!PidePassword(6,32,Opcion+40,4,4,4,4)){ 
08AD8:  MOVLW  28
08ADA:  MOVLB  4
08ADC:  ADDWF  xC5,W
08ADE:  MOVLB  5
08AE0:  MOVWF  xCF
08AE2:  MOVLW  06
08AE4:  MOVWF  xD0
08AE6:  MOVLW  20
08AE8:  MOVWF  xD1
08AEA:  MOVFF  5CF,5D2
08AEE:  MOVLW  04
08AF0:  MOVWF  xD3
08AF2:  MOVWF  xD4
08AF4:  MOVWF  xD5
08AF6:  MOVWF  xD6
08AF8:  MOVLB  0
08AFA:  CALL   4D66
08AFE:  MOVF   01,F
08B00:  BNZ   8B2E
....................                PidePassword(6,32,Opcion+40,4,4,4,4);glcd_update(); 
08B02:  MOVLW  28
08B04:  MOVLB  4
08B06:  ADDWF  xC5,W
08B08:  MOVLB  5
08B0A:  MOVWF  xCF
08B0C:  MOVLW  06
08B0E:  MOVWF  xD0
08B10:  MOVLW  20
08B12:  MOVWF  xD1
08B14:  MOVFF  5CF,5D2
08B18:  MOVLW  04
08B1A:  MOVWF  xD3
08B1C:  MOVWF  xD4
08B1E:  MOVWF  xD5
08B20:  MOVWF  xD6
08B22:  MOVLB  0
08B24:  CALL   4D66
08B28:  CALL   1696
....................             }             
08B2C:  BRA    8AD8
....................             glcd_fillScreen(OFF);Opcion=1;unidad=1; 
08B2E:  MOVLB  5
08B30:  CLRF   xD7
08B32:  MOVLB  0
08B34:  CALL   163C
08B38:  MOVLW  01
08B3A:  MOVLB  4
08B3C:  MOVWF  xC5
08B3E:  MOVWF  xC4
08B40:  MOVLB  0
....................          } 
....................       } 
....................              
....................       if(LEFT)//Si oprime boton de Toma. 
08B42:  BSF    F96.2
08B44:  BTFSC  F84.2
08B46:  BRA    8B76
....................         {delay_ms(700);Menu=6;glcd_fillscreen(OFF);Opcion=1;unidad=1;} 
08B48:  MOVLW  04
08B4A:  MOVLB  5
08B4C:  MOVWF  xCF
08B4E:  MOVLW  AF
08B50:  MOVWF  xE3
08B52:  MOVLB  0
08B54:  CALL   155C
08B58:  MOVLB  5
08B5A:  DECFSZ xCF,F
08B5C:  BRA    8B4E
08B5E:  MOVLW  06
08B60:  MOVLB  4
08B62:  MOVWF  xC3
08B64:  MOVLB  5
08B66:  CLRF   xD7
08B68:  MOVLB  0
08B6A:  CALL   163C
08B6E:  MOVLW  01
08B70:  MOVLB  4
08B72:  MOVWF  xC5
08B74:  MOVWF  xC4
....................          
....................       if(Opcion>3) 
08B76:  MOVLB  4
08B78:  MOVF   xC5,W
08B7A:  SUBLW  03
08B7C:  BC    8B82
....................       {Opcion=1;} 
08B7E:  MOVLW  01
08B80:  MOVWF  xC5
....................       if(Opcion<1) 
08B82:  MOVF   xC5,F
08B84:  BNZ   8B8A
....................       {Opcion=3;} 
08B86:  MOVLW  03
08B88:  MOVWF  xC5
....................     } 
.................... //_--------------------------------------------------------------------------------------------------------------------------------------------------------        
....................  
.................... //_-------------------------------------------------------------------------------------------------------------------------------------------------------- 
....................       if(Menu==33){ //Menu de Apagado de Cabina. 
08B8A:  MOVF   xC3,W
08B8C:  SUBLW  21
08B8E:  BTFSS  FD8.2
08B90:  BRA    8EFC
....................        
....................       strcpy(Menus.Letra,"  Apagar?"); 
08B92:  MOVLW  04
08B94:  MOVWF  FEA
08B96:  MOVLW  17
08B98:  MOVWF  FE9
08B9A:  MOVFF  FF2,5CF
08B9E:  BCF    FF2.7
08BA0:  MOVLW  00
08BA2:  MOVLB  0
08BA4:  CALL   1306
08BA8:  TBLRD*-
08BAA:  TBLRD*+
08BAC:  MOVF   FF5,W
08BAE:  MOVWF  FEE
08BB0:  IORLW  00
08BB2:  BNZ   8BAA
08BB4:  MOVLB  5
08BB6:  BTFSC  xCF.7
08BB8:  BSF    FF2.7
....................       displayMenu(Menus.Letra,10,0,1,2); 
08BBA:  MOVLW  04
08BBC:  MOVWF  xD8
08BBE:  MOVLW  17
08BC0:  MOVWF  xD7
08BC2:  MOVLW  0A
08BC4:  MOVWF  xD9
08BC6:  CLRF   xDA
08BC8:  MOVLW  01
08BCA:  MOVWF  xDB
08BCC:  MOVLW  02
08BCE:  MOVWF  xDC
08BD0:  MOVLB  0
08BD2:  CALL   4C9A
....................        
....................       if(unidad==1) 
08BD6:  MOVLB  4
08BD8:  DECFSZ xC4,W
08BDA:  BRA    8C68
....................       {strcpy(Menus.Letra,"SI"); 
08BDC:  MOVLW  04
08BDE:  MOVWF  FEA
08BE0:  MOVLW  17
08BE2:  MOVWF  FE9
08BE4:  MOVFF  FF2,5CF
08BE8:  BCF    FF2.7
08BEA:  MOVLW  00
08BEC:  MOVLB  0
08BEE:  CALL   132E
08BF2:  TBLRD*-
08BF4:  TBLRD*+
08BF6:  MOVF   FF5,W
08BF8:  MOVWF  FEE
08BFA:  IORLW  00
08BFC:  BNZ   8BF4
08BFE:  MOVLB  5
08C00:  BTFSC  xCF.7
08C02:  BSF    FF2.7
....................       displayMenu(Menus.Letra,50,25,1,2); 
08C04:  MOVLW  04
08C06:  MOVWF  xD8
08C08:  MOVLW  17
08C0A:  MOVWF  xD7
08C0C:  MOVLW  32
08C0E:  MOVWF  xD9
08C10:  MOVLW  19
08C12:  MOVWF  xDA
08C14:  MOVLW  01
08C16:  MOVWF  xDB
08C18:  MOVLW  02
08C1A:  MOVWF  xDC
08C1C:  MOVLB  0
08C1E:  CALL   4C9A
....................       strcpy(Menus.Letra,"NO"); 
08C22:  MOVLW  04
08C24:  MOVWF  FEA
08C26:  MOVLW  17
08C28:  MOVWF  FE9
08C2A:  MOVFF  FF2,5CF
08C2E:  BCF    FF2.7
08C30:  MOVLW  00
08C32:  CALL   1350
08C36:  TBLRD*-
08C38:  TBLRD*+
08C3A:  MOVF   FF5,W
08C3C:  MOVWF  FEE
08C3E:  IORLW  00
08C40:  BNZ   8C38
08C42:  MOVLB  5
08C44:  BTFSC  xCF.7
08C46:  BSF    FF2.7
....................       displayMenu(Menus.Letra,50,45,0,2);} 
08C48:  MOVLW  04
08C4A:  MOVWF  xD8
08C4C:  MOVLW  17
08C4E:  MOVWF  xD7
08C50:  MOVLW  32
08C52:  MOVWF  xD9
08C54:  MOVLW  2D
08C56:  MOVWF  xDA
08C58:  CLRF   xDB
08C5A:  MOVLW  02
08C5C:  MOVWF  xDC
08C5E:  MOVLB  0
08C60:  CALL   4C9A
....................       else 
08C64:  BRA    8CF0
08C66:  MOVLB  4
....................       {strcpy(Menus.Letra,"SI"); 
08C68:  MOVLW  04
08C6A:  MOVWF  FEA
08C6C:  MOVLW  17
08C6E:  MOVWF  FE9
08C70:  MOVFF  FF2,5CF
08C74:  BCF    FF2.7
08C76:  MOVLW  00
08C78:  MOVLB  0
08C7A:  CALL   132E
08C7E:  TBLRD*-
08C80:  TBLRD*+
08C82:  MOVF   FF5,W
08C84:  MOVWF  FEE
08C86:  IORLW  00
08C88:  BNZ   8C80
08C8A:  MOVLB  5
08C8C:  BTFSC  xCF.7
08C8E:  BSF    FF2.7
....................       displayMenu(Menus.Letra,50,25,0,2); 
08C90:  MOVLW  04
08C92:  MOVWF  xD8
08C94:  MOVLW  17
08C96:  MOVWF  xD7
08C98:  MOVLW  32
08C9A:  MOVWF  xD9
08C9C:  MOVLW  19
08C9E:  MOVWF  xDA
08CA0:  CLRF   xDB
08CA2:  MOVLW  02
08CA4:  MOVWF  xDC
08CA6:  MOVLB  0
08CA8:  CALL   4C9A
....................       strcpy(Menus.Letra,"NO"); 
08CAC:  MOVLW  04
08CAE:  MOVWF  FEA
08CB0:  MOVLW  17
08CB2:  MOVWF  FE9
08CB4:  MOVFF  FF2,5CF
08CB8:  BCF    FF2.7
08CBA:  MOVLW  00
08CBC:  CALL   1350
08CC0:  TBLRD*-
08CC2:  TBLRD*+
08CC4:  MOVF   FF5,W
08CC6:  MOVWF  FEE
08CC8:  IORLW  00
08CCA:  BNZ   8CC2
08CCC:  MOVLB  5
08CCE:  BTFSC  xCF.7
08CD0:  BSF    FF2.7
....................       displayMenu(Menus.Letra,50,45,1,2);} 
08CD2:  MOVLW  04
08CD4:  MOVWF  xD8
08CD6:  MOVLW  17
08CD8:  MOVWF  xD7
08CDA:  MOVLW  32
08CDC:  MOVWF  xD9
08CDE:  MOVLW  2D
08CE0:  MOVWF  xDA
08CE2:  MOVLW  01
08CE4:  MOVWF  xDB
08CE6:  MOVLW  02
08CE8:  MOVWF  xDC
08CEA:  MOVLB  0
08CEC:  CALL   4C9A
....................        
....................        
....................          
....................       if(UP)//Si oprime hacia arriba 
08CF0:  BSF    F92.5
08CF2:  BTFSC  F80.5
08CF4:  BRA    8D08
....................       {   
....................          delay_ms(90);unidad++; 
08CF6:  MOVLW  5A
08CF8:  MOVLB  5
08CFA:  MOVWF  xE3
08CFC:  MOVLB  0
08CFE:  CALL   155C
08D02:  MOVLB  4
08D04:  INCF   xC4,F
08D06:  MOVLB  0
....................       } 
....................              
....................       if(DOWN)//Si oprime hacia abajo 
08D08:  BSF    F96.0
08D0A:  BTFSC  F84.0
08D0C:  BRA    8D20
....................       { 
....................          delay_ms(90);unidad--; 
08D0E:  MOVLW  5A
08D10:  MOVLB  5
08D12:  MOVWF  xE3
08D14:  MOVLB  0
08D16:  CALL   155C
08D1A:  MOVLB  4
08D1C:  DECF   xC4,F
08D1E:  MOVLB  0
....................       } 
....................              
....................       if(RIGHT){//Si oprime SET 
08D20:  BSF    F96.1
08D22:  BTFSC  F84.1
08D24:  BRA    8EBC
....................          delay_ms(30); 
08D26:  MOVLW  1E
08D28:  MOVLB  5
08D2A:  MOVWF  xE3
08D2C:  MOVLB  0
08D2E:  CALL   155C
....................          if(Flanco3==0){ 
08D32:  MOVLB  4
08D34:  BTFSC  x2D.3
08D36:  BRA    8EB8
....................             if(unidad==1){ 
08D38:  DECFSZ xC4,W
08D3A:  BRA    8EA6
....................                glcd_fillscreen(OFF); 
08D3C:  MOVLB  5
08D3E:  CLRF   xD7
08D40:  MOVLB  0
08D42:  CALL   163C
....................                write_eeprom(33,make8(minutos_trabajo,0)); 
08D46:  MOVFF  4DB,5CF
08D4A:  CLRF   FAA
08D4C:  MOVLW  21
08D4E:  MOVWF  FA9
08D50:  MOVFF  5CF,FA8
08D54:  BCF    FA6.6
08D56:  BCF    FA6.7
08D58:  BSF    FA6.2
08D5A:  MOVF   FF2,W
08D5C:  MOVWF  00
08D5E:  BCF    FF2.7
08D60:  MOVLB  F
08D62:  MOVLW  55
08D64:  MOVWF  FA7
08D66:  MOVLW  AA
08D68:  MOVWF  FA7
08D6A:  BSF    FA6.1
08D6C:  BTFSC  FA6.1
08D6E:  BRA    8D6C
08D70:  BCF    FA6.2
08D72:  MOVF   00,W
08D74:  IORWF  FF2,F
....................                delay_ms(20); 
08D76:  MOVLW  14
08D78:  MOVLB  5
08D7A:  MOVWF  xE3
08D7C:  MOVLB  0
08D7E:  CALL   155C
....................                write_eeprom(34,make8(minutos_trabajo,1)); 
08D82:  MOVFF  4DC,5CF
08D86:  CLRF   FAA
08D88:  MOVLW  22
08D8A:  MOVWF  FA9
08D8C:  MOVFF  5CF,FA8
08D90:  BCF    FA6.6
08D92:  BCF    FA6.7
08D94:  BSF    FA6.2
08D96:  MOVF   FF2,W
08D98:  MOVWF  00
08D9A:  BCF    FF2.7
08D9C:  MOVLB  F
08D9E:  MOVLW  55
08DA0:  MOVWF  FA7
08DA2:  MOVLW  AA
08DA4:  MOVWF  FA7
08DA6:  BSF    FA6.1
08DA8:  BTFSC  FA6.1
08DAA:  BRA    8DA8
08DAC:  BCF    FA6.2
08DAE:  MOVF   00,W
08DB0:  IORWF  FF2,F
....................                delay_ms(20); 
08DB2:  MOVLW  14
08DB4:  MOVLB  5
08DB6:  MOVWF  xE3
08DB8:  MOVLB  0
08DBA:  CALL   155C
....................                write_eeprom(16,Ttrabajo[0]); 
08DBE:  CLRF   FAA
08DC0:  MOVLW  10
08DC2:  MOVWF  FA9
08DC4:  MOVFF  4F7,FA8
08DC8:  BCF    FA6.6
08DCA:  BCF    FA6.7
08DCC:  BSF    FA6.2
08DCE:  MOVF   FF2,W
08DD0:  MOVWF  00
08DD2:  BCF    FF2.7
08DD4:  MOVLB  F
08DD6:  MOVLW  55
08DD8:  MOVWF  FA7
08DDA:  MOVLW  AA
08DDC:  MOVWF  FA7
08DDE:  BSF    FA6.1
08DE0:  BTFSC  FA6.1
08DE2:  BRA    8DE0
08DE4:  BCF    FA6.2
08DE6:  MOVF   00,W
08DE8:  IORWF  FF2,F
....................                delay_ms(20); 
08DEA:  MOVLW  14
08DEC:  MOVLB  5
08DEE:  MOVWF  xE3
08DF0:  MOVLB  0
08DF2:  CALL   155C
....................                write_eeprom(17,Ttrabajo[1]); 
08DF6:  CLRF   FAA
08DF8:  MOVLW  11
08DFA:  MOVWF  FA9
08DFC:  MOVFF  4F8,FA8
08E00:  BCF    FA6.6
08E02:  BCF    FA6.7
08E04:  BSF    FA6.2
08E06:  MOVF   FF2,W
08E08:  MOVWF  00
08E0A:  BCF    FF2.7
08E0C:  MOVLB  F
08E0E:  MOVLW  55
08E10:  MOVWF  FA7
08E12:  MOVLW  AA
08E14:  MOVWF  FA7
08E16:  BSF    FA6.1
08E18:  BTFSC  FA6.1
08E1A:  BRA    8E18
08E1C:  BCF    FA6.2
08E1E:  MOVF   00,W
08E20:  IORWF  FF2,F
....................                delay_ms(20); 
08E22:  MOVLW  14
08E24:  MOVLB  5
08E26:  MOVWF  xE3
08E28:  MOVLB  0
08E2A:  CALL   155C
....................                write_eeprom(18,Ttrabajo[2]); 
08E2E:  CLRF   FAA
08E30:  MOVLW  12
08E32:  MOVWF  FA9
08E34:  MOVFF  4F9,FA8
08E38:  BCF    FA6.6
08E3A:  BCF    FA6.7
08E3C:  BSF    FA6.2
08E3E:  MOVF   FF2,W
08E40:  MOVWF  00
08E42:  BCF    FF2.7
08E44:  MOVLB  F
08E46:  MOVLW  55
08E48:  MOVWF  FA7
08E4A:  MOVLW  AA
08E4C:  MOVWF  FA7
08E4E:  BSF    FA6.1
08E50:  BTFSC  FA6.1
08E52:  BRA    8E50
08E54:  BCF    FA6.2
08E56:  MOVF   00,W
08E58:  IORWF  FF2,F
....................                delay_ms(20); 
08E5A:  MOVLW  14
08E5C:  MOVLB  5
08E5E:  MOVWF  xE3
08E60:  MOVLB  0
08E62:  CALL   155C
....................                write_eeprom(19,Ttrabajo[3]); 
08E66:  CLRF   FAA
08E68:  MOVLW  13
08E6A:  MOVWF  FA9
08E6C:  MOVFF  4FA,FA8
08E70:  BCF    FA6.6
08E72:  BCF    FA6.7
08E74:  BSF    FA6.2
08E76:  MOVF   FF2,W
08E78:  MOVWF  00
08E7A:  BCF    FF2.7
08E7C:  MOVLB  F
08E7E:  MOVLW  55
08E80:  MOVWF  FA7
08E82:  MOVLW  AA
08E84:  MOVWF  FA7
08E86:  BSF    FA6.1
08E88:  BTFSC  FA6.1
08E8A:  BRA    8E88
08E8C:  BCF    FA6.2
08E8E:  MOVF   00,W
08E90:  IORWF  FF2,F
....................                delay_ms(20); 
08E92:  MOVLW  14
08E94:  MOVLB  5
08E96:  MOVWF  xE3
08E98:  MOVLB  0
08E9A:  CALL   155C
....................                Menu=120; 
08E9E:  MOVLW  78
08EA0:  MOVLB  4
08EA2:  MOVWF  xC3
....................                //reset_cpu(); 
....................             } 
....................             else{ 
08EA4:  BRA    8EB6
....................                Menu=2;glcd_fillscreen(OFF); 
08EA6:  MOVLW  02
08EA8:  MOVWF  xC3
08EAA:  MOVLB  5
08EAC:  CLRF   xD7
08EAE:  MOVLB  0
08EB0:  CALL   163C
08EB4:  MOVLB  4
....................             } 
....................             Flanco3=1; 
08EB6:  BSF    x2D.3
....................          } 
....................       }else{ 
08EB8:  BRA    8EC0
08EBA:  MOVLB  0
....................          Flanco3=0; 
08EBC:  MOVLB  4
08EBE:  BCF    x2D.3
....................       } 
....................              
....................       if(LEFT)//Si oprime boton de Toma. 
08EC0:  BSF    F96.2
08EC2:  BTFSC  F84.2
08EC4:  BRA    8EEA
....................       { 
....................          delay_ms(30);Menu=2;glcd_fillscreen(OFF);Opcion=1;unidad=1; 
08EC6:  MOVLW  1E
08EC8:  MOVLB  5
08ECA:  MOVWF  xE3
08ECC:  MOVLB  0
08ECE:  CALL   155C
08ED2:  MOVLW  02
08ED4:  MOVLB  4
08ED6:  MOVWF  xC3
08ED8:  MOVLB  5
08EDA:  CLRF   xD7
08EDC:  MOVLB  0
08EDE:  CALL   163C
08EE2:  MOVLW  01
08EE4:  MOVLB  4
08EE6:  MOVWF  xC5
08EE8:  MOVWF  xC4
....................       } 
....................        
....................       if(unidad>2) 
08EEA:  MOVF   xC4,W
08EEC:  SUBLW  02
08EEE:  BC    8EF4
....................       {unidad=1;} 
08EF0:  MOVLW  01
08EF2:  MOVWF  xC4
....................       if(unidad<1) 
08EF4:  MOVF   xC4,F
08EF6:  BNZ   8EFC
....................       {unidad=2;} 
08EF8:  MOVLW  02
08EFA:  MOVWF  xC4
....................      
....................     } 
.................... //_--------------------------------------------------------------------------------------------------------------------------------------------------------        
....................  
.................... //_-------------------------------------------------------------------------------------------------------------------------------------------------------- 
....................       if(Menu==41){ //Menu de Sensor de Flujo. 
08EFC:  MOVF   xC3,W
08EFE:  SUBLW  29
08F00:  BTFSS  FD8.2
08F02:  BRA    94C6
....................        
....................       if(Ajuste1>10.0) 
08F04:  MOVLB  6
08F06:  CLRF   x03
08F08:  CLRF   x02
08F0A:  MOVLW  20
08F0C:  MOVWF  x01
08F0E:  MOVLW  82
08F10:  MOVWF  x00
08F12:  MOVFF  526,607
08F16:  MOVFF  525,606
08F1A:  MOVFF  524,605
08F1E:  MOVFF  523,604
08F22:  MOVLB  0
08F24:  CALL   2390
08F28:  BNC   8F36
....................          Ajuste1=0.0; 
08F2A:  MOVLB  5
08F2C:  CLRF   x26
08F2E:  CLRF   x25
08F30:  CLRF   x24
08F32:  CLRF   x23
08F34:  MOVLB  0
....................        
....................       strcpy(Menus.Letra,"Sensor de Flujo"); 
08F36:  MOVLW  04
08F38:  MOVWF  FEA
08F3A:  MOVLW  17
08F3C:  MOVWF  FE9
08F3E:  MOVFF  FF2,5CF
08F42:  BCF    FF2.7
08F44:  MOVLW  00
08F46:  CALL   1274
08F4A:  TBLRD*-
08F4C:  TBLRD*+
08F4E:  MOVF   FF5,W
08F50:  MOVWF  FEE
08F52:  IORLW  00
08F54:  BNZ   8F4C
08F56:  MOVLB  5
08F58:  BTFSC  xCF.7
08F5A:  BSF    FF2.7
....................       displayMenu(Menus.Letra,10,0,1,1); 
08F5C:  MOVLW  04
08F5E:  MOVWF  xD8
08F60:  MOVLW  17
08F62:  MOVWF  xD7
08F64:  MOVLW  0A
08F66:  MOVWF  xD9
08F68:  CLRF   xDA
08F6A:  MOVLW  01
08F6C:  MOVWF  xDB
08F6E:  MOVWF  xDC
08F70:  MOVLB  0
08F72:  CALL   4C9A
....................        
....................       glcd_text57(0, 12, ZF, 1, ON); 
08F76:  MOVLB  5
08F78:  CLRF   xE8
08F7A:  MOVLW  0C
08F7C:  MOVWF  xE9
08F7E:  MOVLW  04
08F80:  MOVWF  xEB
08F82:  MOVLW  7A
08F84:  MOVWF  xEA
08F86:  MOVLW  01
08F88:  MOVWF  xEC
08F8A:  MOVWF  xED
08F8C:  MOVLB  0
08F8E:  CALL   4A28
....................        
....................       glcd_text57(0, 20, ZA, 1, ON); 
08F92:  MOVLB  5
08F94:  CLRF   xE8
08F96:  MOVLW  14
08F98:  MOVWF  xE9
08F9A:  MOVLW  04
08F9C:  MOVWF  xEB
08F9E:  MOVLW  88
08FA0:  MOVWF  xEA
08FA2:  MOVLW  01
08FA4:  MOVWF  xEC
08FA6:  MOVWF  xED
08FA8:  MOVLB  0
08FAA:  CALL   4A28
....................        
....................       glcd_text57(0, 30, AJ, 1, ON);            
08FAE:  MOVLB  5
08FB0:  CLRF   xE8
08FB2:  MOVLW  1E
08FB4:  MOVWF  xE9
08FB6:  MOVLW  04
08FB8:  MOVWF  xEB
08FBA:  MOVLW  90
08FBC:  MOVWF  xEA
08FBE:  MOVLW  01
08FC0:  MOVWF  xEC
08FC2:  MOVWF  xED
08FC4:  MOVLB  0
08FC6:  CALL   4A28
....................        
....................       displayfloat(zero_actual,44,20,0,1); 
08FCA:  MOVFF  5AE,5D6
08FCE:  MOVFF  5AD,5D5
08FD2:  MOVFF  5AC,5D4
08FD6:  MOVFF  5AB,5D3
08FDA:  MOVLW  2C
08FDC:  MOVLB  5
08FDE:  MOVWF  xD7
08FE0:  MOVLW  14
08FE2:  MOVWF  xD8
08FE4:  CLRF   xD9
08FE6:  MOVLW  01
08FE8:  MOVWF  xDA
08FEA:  MOVLB  0
08FEC:  CALL   59EA
....................       displayfloat(Ajuste1,44,30,0,1); 
08FF0:  MOVFF  526,5D6
08FF4:  MOVFF  525,5D5
08FF8:  MOVFF  524,5D4
08FFC:  MOVFF  523,5D3
09000:  MOVLW  2C
09002:  MOVLB  5
09004:  MOVWF  xD7
09006:  MOVLW  1E
09008:  MOVWF  xD8
0900A:  CLRF   xD9
0900C:  MOVLW  01
0900E:  MOVWF  xDA
09010:  MOVLB  0
09012:  CALL   59EA
....................       displayfloat(Inflow_adc,0,40,0,1); 
09016:  MOVFF  4D2,605
0901A:  MOVFF  4D1,604
0901E:  CALL   17F6
09022:  MOVFF  00,5CF
09026:  MOVFF  01,5D0
0902A:  MOVFF  02,5D1
0902E:  MOVFF  03,5D2
09032:  MOVFF  03,5D6
09036:  MOVFF  02,5D5
0903A:  MOVFF  01,5D4
0903E:  MOVFF  00,5D3
09042:  MOVLB  5
09044:  CLRF   xD7
09046:  MOVLW  28
09048:  MOVWF  xD8
0904A:  CLRF   xD9
0904C:  MOVLW  01
0904E:  MOVWF  xDA
09050:  MOVLB  0
09052:  CALL   59EA
.................... //      displayfloat(Diferencia,0,50,0,1); 
....................        
....................       if(UP)//Si oprime hacia arriba 
09056:  BSF    F92.5
09058:  BTFSC  F80.5
0905A:  BRA    90A2
....................       {   
....................          delay_ms(30);Ajuste1+=0.01; 
0905C:  MOVLW  1E
0905E:  MOVLB  5
09060:  MOVWF  xE3
09062:  MOVLB  0
09064:  CALL   155C
09068:  BCF    FD8.1
0906A:  MOVFF  526,607
0906E:  MOVFF  525,606
09072:  MOVFF  524,605
09076:  MOVFF  523,604
0907A:  MOVLW  0A
0907C:  MOVLB  6
0907E:  MOVWF  x0B
09080:  MOVLW  D7
09082:  MOVWF  x0A
09084:  MOVLW  23
09086:  MOVWF  x09
09088:  MOVLW  78
0908A:  MOVWF  x08
0908C:  MOVLB  0
0908E:  CALL   198A
09092:  MOVFF  03,526
09096:  MOVFF  02,525
0909A:  MOVFF  01,524
0909E:  MOVFF  00,523
....................       } 
....................              
....................       if(DOWN)//Si oprime hacia abajo 
090A2:  BSF    F96.0
090A4:  BTFSC  F84.0
090A6:  BRA    90EE
....................       {    
....................          delay_ms(30);Ajuste1-=0.01; 
090A8:  MOVLW  1E
090AA:  MOVLB  5
090AC:  MOVWF  xE3
090AE:  MOVLB  0
090B0:  CALL   155C
090B4:  BSF    FD8.1
090B6:  MOVFF  526,607
090BA:  MOVFF  525,606
090BE:  MOVFF  524,605
090C2:  MOVFF  523,604
090C6:  MOVLW  0A
090C8:  MOVLB  6
090CA:  MOVWF  x0B
090CC:  MOVLW  D7
090CE:  MOVWF  x0A
090D0:  MOVLW  23
090D2:  MOVWF  x09
090D4:  MOVLW  78
090D6:  MOVWF  x08
090D8:  MOVLB  0
090DA:  CALL   198A
090DE:  MOVFF  03,526
090E2:  MOVFF  02,525
090E6:  MOVFF  01,524
090EA:  MOVFF  00,523
....................       } 
....................              
....................       if(RIGHT)//Si oprime SET 
090EE:  BSF    F96.1
090F0:  BTFSC  F84.1
090F2:  BRA    9360
....................       {   
....................          zero_actual=Inflow_adc; 
090F4:  MOVFF  4D2,605
090F8:  MOVFF  4D1,604
090FC:  CALL   17F6
09100:  MOVFF  03,5AE
09104:  MOVFF  02,5AD
09108:  MOVFF  01,5AC
0910C:  MOVFF  00,5AB
....................          Diferencia=zero_fabrica-Inflow_adc; 
09110:  MOVFF  4D2,605
09114:  MOVFF  4D1,604
09118:  CALL   17F6
0911C:  BSF    FD8.1
0911E:  MOVFF  5AA,607
09122:  MOVFF  5A9,606
09126:  MOVFF  5A8,605
0912A:  MOVFF  5A7,604
0912E:  MOVFF  03,60B
09132:  MOVFF  02,60A
09136:  MOVFF  01,609
0913A:  MOVFF  00,608
0913E:  CALL   198A
09142:  MOVFF  03,512
09146:  MOVFF  02,511
0914A:  MOVFF  01,510
0914E:  MOVFF  00,50F
....................              
....................          if(Diferencia>=0) 
09152:  MOVLB  6
09154:  CLRF   x03
09156:  CLRF   x02
09158:  CLRF   x01
0915A:  CLRF   x00
0915C:  MOVFF  512,607
09160:  MOVFF  511,606
09164:  MOVFF  510,605
09168:  MOVFF  50F,604
0916C:  MOVLB  0
0916E:  CALL   2390
09172:  BC    9176
09174:  BNZ   91B4
....................          { 
....................             negativo=10;write_eeprom(50,negativo);delay_ms(20); 
09176:  MOVLW  0A
09178:  MOVLB  4
0917A:  MOVWF  xC6
0917C:  CLRF   FAA
0917E:  MOVLW  32
09180:  MOVWF  FA9
09182:  MOVFF  4C6,FA8
09186:  BCF    FA6.6
09188:  BCF    FA6.7
0918A:  BSF    FA6.2
0918C:  MOVF   FF2,W
0918E:  MOVWF  00
09190:  BCF    FF2.7
09192:  MOVLB  F
09194:  MOVLW  55
09196:  MOVWF  FA7
09198:  MOVLW  AA
0919A:  MOVWF  FA7
0919C:  BSF    FA6.1
0919E:  BTFSC  FA6.1
091A0:  BRA    919E
091A2:  BCF    FA6.2
091A4:  MOVF   00,W
091A6:  IORWF  FF2,F
091A8:  MOVLW  14
091AA:  MOVLB  5
091AC:  MOVWF  xE3
091AE:  MOVLB  0
091B0:  CALL   155C
....................          } 
....................          if(Diferencia<0) 
091B4:  MOVFF  512,603
091B8:  MOVFF  511,602
091BC:  MOVFF  510,601
091C0:  MOVFF  50F,600
091C4:  MOVLB  6
091C6:  CLRF   x07
091C8:  CLRF   x06
091CA:  CLRF   x05
091CC:  CLRF   x04
091CE:  MOVLB  0
091D0:  CALL   2390
091D4:  BNC   9214
....................          { 
....................             negativo=20;write_eeprom(50,negativo);delay_ms(20); 
091D6:  MOVLW  14
091D8:  MOVLB  4
091DA:  MOVWF  xC6
091DC:  CLRF   FAA
091DE:  MOVLW  32
091E0:  MOVWF  FA9
091E2:  MOVFF  4C6,FA8
091E6:  BCF    FA6.6
091E8:  BCF    FA6.7
091EA:  BSF    FA6.2
091EC:  MOVF   FF2,W
091EE:  MOVWF  00
091F0:  BCF    FF2.7
091F2:  MOVLB  F
091F4:  MOVLW  55
091F6:  MOVWF  FA7
091F8:  MOVLW  AA
091FA:  MOVWF  FA7
091FC:  BSF    FA6.1
091FE:  BTFSC  FA6.1
09200:  BRA    91FE
09202:  BCF    FA6.2
09204:  MOVF   00,W
09206:  IORWF  FF2,F
09208:  MOVLW  14
0920A:  MOVLB  5
0920C:  MOVWF  xE3
0920E:  MOVLB  0
09210:  CALL   155C
....................          } 
....................          Diferencia=abs(Diferencia); 
09214:  MOVFF  50F,00
09218:  MOVFF  510,01
0921C:  MOVFF  511,02
09220:  MOVFF  512,03
09224:  BCF    01.7
09226:  MOVFF  512,512
0922A:  MOVFF  511,511
0922E:  MOVFF  01,510
09232:  MOVFF  50F,50F
....................          Temporal1=(int16)Diferencia; 
09236:  MOVFF  512,603
0923A:  MOVFF  511,602
0923E:  MOVFF  510,601
09242:  MOVFF  50F,600
09246:  CALL   2DD8
0924A:  MOVFF  02,4D6
0924E:  MOVFF  01,4D5
....................          write_eeprom(60,make8(Temporal1,0)); 
09252:  MOVFF  4D5,5CF
09256:  CLRF   FAA
09258:  MOVLW  3C
0925A:  MOVWF  FA9
0925C:  MOVFF  5CF,FA8
09260:  BCF    FA6.6
09262:  BCF    FA6.7
09264:  BSF    FA6.2
09266:  MOVF   FF2,W
09268:  MOVWF  00
0926A:  BCF    FF2.7
0926C:  MOVLB  F
0926E:  MOVLW  55
09270:  MOVWF  FA7
09272:  MOVLW  AA
09274:  MOVWF  FA7
09276:  BSF    FA6.1
09278:  BTFSC  FA6.1
0927A:  BRA    9278
0927C:  BCF    FA6.2
0927E:  MOVF   00,W
09280:  IORWF  FF2,F
....................          delay_ms(20); 
09282:  MOVLW  14
09284:  MOVLB  5
09286:  MOVWF  xE3
09288:  MOVLB  0
0928A:  CALL   155C
....................          write_eeprom(61,make8(Temporal1,1));//Guardar valor de Setpoint en eeprom 
0928E:  MOVFF  4D6,5CF
09292:  CLRF   FAA
09294:  MOVLW  3D
09296:  MOVWF  FA9
09298:  MOVFF  5CF,FA8
0929C:  BCF    FA6.6
0929E:  BCF    FA6.7
092A0:  BSF    FA6.2
092A2:  MOVF   FF2,W
092A4:  MOVWF  00
092A6:  BCF    FF2.7
092A8:  MOVLB  F
092AA:  MOVLW  55
092AC:  MOVWF  FA7
092AE:  MOVLW  AA
092B0:  MOVWF  FA7
092B2:  BSF    FA6.1
092B4:  BTFSC  FA6.1
092B6:  BRA    92B4
092B8:  BCF    FA6.2
092BA:  MOVF   00,W
092BC:  IORWF  FF2,F
....................          delay_ms(20); 
092BE:  MOVLW  14
092C0:  MOVLB  5
092C2:  MOVWF  xE3
092C4:  MOVLB  0
092C6:  CALL   155C
....................  
....................          Temporal1=(int16)zero_actual; 
092CA:  MOVFF  5AE,603
092CE:  MOVFF  5AD,602
092D2:  MOVFF  5AC,601
092D6:  MOVFF  5AB,600
092DA:  CALL   2DD8
092DE:  MOVFF  02,4D6
092E2:  MOVFF  01,4D5
....................          write_eeprom(29,make8(Temporal1,0)); 
092E6:  MOVFF  4D5,5CF
092EA:  CLRF   FAA
092EC:  MOVLW  1D
092EE:  MOVWF  FA9
092F0:  MOVFF  5CF,FA8
092F4:  BCF    FA6.6
092F6:  BCF    FA6.7
092F8:  BSF    FA6.2
092FA:  MOVF   FF2,W
092FC:  MOVWF  00
092FE:  BCF    FF2.7
09300:  MOVLB  F
09302:  MOVLW  55
09304:  MOVWF  FA7
09306:  MOVLW  AA
09308:  MOVWF  FA7
0930A:  BSF    FA6.1
0930C:  BTFSC  FA6.1
0930E:  BRA    930C
09310:  BCF    FA6.2
09312:  MOVF   00,W
09314:  IORWF  FF2,F
....................          delay_ms(20); 
09316:  MOVLW  14
09318:  MOVLB  5
0931A:  MOVWF  xE3
0931C:  MOVLB  0
0931E:  CALL   155C
....................          write_eeprom(30,make8(Temporal1,1));//Guardar valor de Setpoint en eeprom 
09322:  MOVFF  4D6,5CF
09326:  CLRF   FAA
09328:  MOVLW  1E
0932A:  MOVWF  FA9
0932C:  MOVFF  5CF,FA8
09330:  BCF    FA6.6
09332:  BCF    FA6.7
09334:  BSF    FA6.2
09336:  MOVF   FF2,W
09338:  MOVWF  00
0933A:  BCF    FF2.7
0933C:  MOVLB  F
0933E:  MOVLW  55
09340:  MOVWF  FA7
09342:  MOVLW  AA
09344:  MOVWF  FA7
09346:  BSF    FA6.1
09348:  BTFSC  FA6.1
0934A:  BRA    9348
0934C:  BCF    FA6.2
0934E:  MOVF   00,W
09350:  IORWF  FF2,F
....................          delay_ms(20); 
09352:  MOVLW  14
09354:  MOVLB  5
09356:  MOVWF  xE3
09358:  MOVLB  0
0935A:  CALL   155C
....................       } 
....................          else 
0935E:  BRA    9366
....................             {Flanco1 = 0;}   
09360:  MOVLB  4
09362:  BCF    x2D.1
09364:  MOVLB  0
....................              
....................       if(LEFT)//Si oprime boton de Toma. 
09366:  BSF    F96.2
09368:  BTFSC  F84.2
0936A:  BRA    94C4
....................       { 
....................          delay_ms(700);Menu=32;glcd_fillscreen(OFF);Opcion=1;unidad=1; 
0936C:  MOVLW  04
0936E:  MOVLB  5
09370:  MOVWF  xCF
09372:  MOVLW  AF
09374:  MOVWF  xE3
09376:  MOVLB  0
09378:  CALL   155C
0937C:  MOVLB  5
0937E:  DECFSZ xCF,F
09380:  BRA    9372
09382:  MOVLW  20
09384:  MOVLB  4
09386:  MOVWF  xC3
09388:  MOVLB  5
0938A:  CLRF   xD7
0938C:  MOVLB  0
0938E:  CALL   163C
09392:  MOVLW  01
09394:  MOVLB  4
09396:  MOVWF  xC5
09398:  MOVWF  xC4
....................          Temporal=Ajuste1; 
0939A:  MOVFF  526,52E
0939E:  MOVFF  525,52D
093A2:  MOVFF  524,52C
093A6:  MOVFF  523,52B
....................          Entero=(int)Ajuste1; 
093AA:  MOVFF  526,603
093AE:  MOVFF  525,602
093B2:  MOVFF  524,601
093B6:  MOVFF  523,600
093BA:  MOVLB  0
093BC:  CALL   2DD8
093C0:  MOVFF  01,4CE
....................          Temporal=Temporal-Entero; 
093C4:  MOVLB  6
093C6:  CLRF   x05
093C8:  MOVFF  4CE,604
093CC:  MOVLB  0
093CE:  CALL   17F6
093D2:  BSF    FD8.1
093D4:  MOVFF  52E,607
093D8:  MOVFF  52D,606
093DC:  MOVFF  52C,605
093E0:  MOVFF  52B,604
093E4:  MOVFF  03,60B
093E8:  MOVFF  02,60A
093EC:  MOVFF  01,609
093F0:  MOVFF  00,608
093F4:  CALL   198A
093F8:  MOVFF  03,52E
093FC:  MOVFF  02,52D
09400:  MOVFF  01,52C
09404:  MOVFF  00,52B
....................          Temporal2=Temporal*10.0; 
09408:  MOVFF  52E,603
0940C:  MOVFF  52D,602
09410:  MOVFF  52C,601
09414:  MOVFF  52B,600
09418:  MOVLB  6
0941A:  CLRF   x07
0941C:  CLRF   x06
0941E:  MOVLW  20
09420:  MOVWF  x05
09422:  MOVLW  82
09424:  MOVWF  x04
09426:  MOVLB  0
09428:  CALL   2E14
0942C:  MOVFF  03,532
09430:  MOVFF  02,531
09434:  MOVFF  01,530
09438:  MOVFF  00,52F
....................          Decimal1=(int8)Temporal2; 
0943C:  MOVFF  532,603
09440:  MOVFF  531,602
09444:  MOVFF  530,601
09448:  MOVFF  52F,600
0944C:  CALL   2DD8
09450:  MOVFF  01,4CF
....................          write_eeprom(25,Entero); 
09454:  CLRF   FAA
09456:  MOVLW  19
09458:  MOVWF  FA9
0945A:  MOVFF  4CE,FA8
0945E:  BCF    FA6.6
09460:  BCF    FA6.7
09462:  BSF    FA6.2
09464:  MOVF   FF2,W
09466:  MOVWF  00
09468:  BCF    FF2.7
0946A:  MOVLB  F
0946C:  MOVLW  55
0946E:  MOVWF  FA7
09470:  MOVLW  AA
09472:  MOVWF  FA7
09474:  BSF    FA6.1
09476:  BTFSC  FA6.1
09478:  BRA    9476
0947A:  BCF    FA6.2
0947C:  MOVF   00,W
0947E:  IORWF  FF2,F
....................          delay_ms(20); 
09480:  MOVLW  14
09482:  MOVLB  5
09484:  MOVWF  xE3
09486:  MOVLB  0
09488:  CALL   155C
....................          write_eeprom(26,Decimal1); 
0948C:  CLRF   FAA
0948E:  MOVLW  1A
09490:  MOVWF  FA9
09492:  MOVFF  4CF,FA8
09496:  BCF    FA6.6
09498:  BCF    FA6.7
0949A:  BSF    FA6.2
0949C:  MOVF   FF2,W
0949E:  MOVWF  00
094A0:  BCF    FF2.7
094A2:  MOVLB  F
094A4:  MOVLW  55
094A6:  MOVWF  FA7
094A8:  MOVLW  AA
094AA:  MOVWF  FA7
094AC:  BSF    FA6.1
094AE:  BTFSC  FA6.1
094B0:  BRA    94AE
094B2:  BCF    FA6.2
094B4:  MOVF   00,W
094B6:  IORWF  FF2,F
....................          delay_ms(20); 
094B8:  MOVLW  14
094BA:  MOVLB  5
094BC:  MOVWF  xE3
094BE:  MOVLB  0
094C0:  CALL   155C
094C4:  MOVLB  4
....................       } 
....................     } 
.................... //_--------------------------------------------------------------------------------------------------------------------------------------------------------        
....................  
.................... //_-------------------------------------------------------------------------------------------------------------------------------------------------------- 
....................       if(Menu==42){ //Menu de Sensor de Presin. 
094C6:  MOVF   xC3,W
094C8:  SUBLW  2A
094CA:  BTFSS  FD8.2
094CC:  BRA    98FA
....................        
....................       if(Ajuste2>10.0) 
094CE:  MOVLB  6
094D0:  CLRF   x03
094D2:  CLRF   x02
094D4:  MOVLW  20
094D6:  MOVWF  x01
094D8:  MOVLW  82
094DA:  MOVWF  x00
094DC:  MOVFF  52A,607
094E0:  MOVFF  529,606
094E4:  MOVFF  528,605
094E8:  MOVFF  527,604
094EC:  MOVLB  0
094EE:  CALL   2390
094F2:  BNC   9500
....................          Ajuste2=0.0; 
094F4:  MOVLB  5
094F6:  CLRF   x2A
094F8:  CLRF   x29
094FA:  CLRF   x28
094FC:  CLRF   x27
094FE:  MOVLB  0
....................        
....................       strcpy(Menus.Letra,"Sensor de Presion"); 
09500:  MOVLW  04
09502:  MOVWF  FEA
09504:  MOVLW  17
09506:  MOVWF  FE9
09508:  MOVFF  FF2,5CF
0950C:  BCF    FF2.7
0950E:  MOVLW  00
09510:  CALL   12A2
09514:  TBLRD*-
09516:  TBLRD*+
09518:  MOVF   FF5,W
0951A:  MOVWF  FEE
0951C:  IORLW  00
0951E:  BNZ   9516
09520:  MOVLB  5
09522:  BTFSC  xCF.7
09524:  BSF    FF2.7
....................       displayMenu(Menus.Letra,10,0,1,1); 
09526:  MOVLW  04
09528:  MOVWF  xD8
0952A:  MOVLW  17
0952C:  MOVWF  xD7
0952E:  MOVLW  0A
09530:  MOVWF  xD9
09532:  CLRF   xDA
09534:  MOVLW  01
09536:  MOVWF  xDB
09538:  MOVWF  xDC
0953A:  MOVLB  0
0953C:  CALL   4C9A
....................        
....................       glcd_text57(0, 12, ZFP, 1, ON); 
09540:  MOVLB  5
09542:  CLRF   xE8
09544:  MOVLW  0C
09546:  MOVWF  xE9
09548:  MOVLW  04
0954A:  MOVWF  xEB
0954C:  MOVLW  A3
0954E:  MOVWF  xEA
09550:  MOVLW  01
09552:  MOVWF  xEC
09554:  MOVWF  xED
09556:  MOVLB  0
09558:  CALL   4A28
....................        
....................       glcd_text57(0, 20, ZA, 1, ON); 
0955C:  MOVLB  5
0955E:  CLRF   xE8
09560:  MOVLW  14
09562:  MOVWF  xE9
09564:  MOVLW  04
09566:  MOVWF  xEB
09568:  MOVLW  88
0956A:  MOVWF  xEA
0956C:  MOVLW  01
0956E:  MOVWF  xEC
09570:  MOVWF  xED
09572:  MOVLB  0
09574:  CALL   4A28
....................        
....................       glcd_text57(0, 30, AJ, 1, ON);            
09578:  MOVLB  5
0957A:  CLRF   xE8
0957C:  MOVLW  1E
0957E:  MOVWF  xE9
09580:  MOVLW  04
09582:  MOVWF  xEB
09584:  MOVLW  90
09586:  MOVWF  xEA
09588:  MOVLW  01
0958A:  MOVWF  xEC
0958C:  MOVWF  xED
0958E:  MOVLB  0
09590:  CALL   4A28
....................        
....................       displayfloat(G,44,20,0,1); 
09594:  MOVFF  5BA,5D6
09598:  MOVFF  5B9,5D5
0959C:  MOVFF  5B8,5D4
095A0:  MOVFF  5B7,5D3
095A4:  MOVLW  2C
095A6:  MOVLB  5
095A8:  MOVWF  xD7
095AA:  MOVLW  14
095AC:  MOVWF  xD8
095AE:  CLRF   xD9
095B0:  MOVLW  01
095B2:  MOVWF  xDA
095B4:  MOVLB  0
095B6:  CALL   59EA
....................       displayfloat(Ajuste2,44,30,0,1); 
095BA:  MOVFF  52A,5D6
095BE:  MOVFF  529,5D5
095C2:  MOVFF  528,5D4
095C6:  MOVFF  527,5D3
095CA:  MOVLW  2C
095CC:  MOVLB  5
095CE:  MOVWF  xD7
095D0:  MOVLW  1E
095D2:  MOVWF  xD8
095D4:  CLRF   xD9
095D6:  MOVLW  01
095D8:  MOVWF  xDA
095DA:  MOVLB  0
095DC:  CALL   59EA
....................       displayfloat(Filtro_DownFlow_adc,0,40,0,1); 
095E0:  MOVFF  4D4,605
095E4:  MOVFF  4D3,604
095E8:  CALL   17F6
095EC:  MOVFF  00,5CF
095F0:  MOVFF  01,5D0
095F4:  MOVFF  02,5D1
095F8:  MOVFF  03,5D2
095FC:  MOVFF  03,5D6
09600:  MOVFF  02,5D5
09604:  MOVFF  01,5D4
09608:  MOVFF  00,5D3
0960C:  MOVLB  5
0960E:  CLRF   xD7
09610:  MOVLW  28
09612:  MOVWF  xD8
09614:  CLRF   xD9
09616:  MOVLW  01
09618:  MOVWF  xDA
0961A:  MOVLB  0
0961C:  CALL   59EA
....................       displayfloat(Filtro_DownFlow,0,50,0,1); 
09620:  MOVFF  50E,5D6
09624:  MOVFF  50D,5D5
09628:  MOVFF  50C,5D4
0962C:  MOVFF  50B,5D3
09630:  MOVLB  5
09632:  CLRF   xD7
09634:  MOVLW  32
09636:  MOVWF  xD8
09638:  CLRF   xD9
0963A:  MOVLW  01
0963C:  MOVWF  xDA
0963E:  MOVLB  0
09640:  CALL   59EA
....................        
....................       if(UP)//Si oprime hacia arriba 
09644:  BSF    F92.5
09646:  BTFSC  F80.5
09648:  BRA    9690
....................       {   
....................          delay_ms(30);Ajuste2+=0.01; 
0964A:  MOVLW  1E
0964C:  MOVLB  5
0964E:  MOVWF  xE3
09650:  MOVLB  0
09652:  CALL   155C
09656:  BCF    FD8.1
09658:  MOVFF  52A,607
0965C:  MOVFF  529,606
09660:  MOVFF  528,605
09664:  MOVFF  527,604
09668:  MOVLW  0A
0966A:  MOVLB  6
0966C:  MOVWF  x0B
0966E:  MOVLW  D7
09670:  MOVWF  x0A
09672:  MOVLW  23
09674:  MOVWF  x09
09676:  MOVLW  78
09678:  MOVWF  x08
0967A:  MOVLB  0
0967C:  CALL   198A
09680:  MOVFF  03,52A
09684:  MOVFF  02,529
09688:  MOVFF  01,528
0968C:  MOVFF  00,527
....................       } 
....................              
....................       if(DOWN)//Si oprime hacia abajo 
09690:  BSF    F96.0
09692:  BTFSC  F84.0
09694:  BRA    96DC
....................       {   
....................          delay_ms(30);Ajuste2-=0.01; 
09696:  MOVLW  1E
09698:  MOVLB  5
0969A:  MOVWF  xE3
0969C:  MOVLB  0
0969E:  CALL   155C
096A2:  BSF    FD8.1
096A4:  MOVFF  52A,607
096A8:  MOVFF  529,606
096AC:  MOVFF  528,605
096B0:  MOVFF  527,604
096B4:  MOVLW  0A
096B6:  MOVLB  6
096B8:  MOVWF  x0B
096BA:  MOVLW  D7
096BC:  MOVWF  x0A
096BE:  MOVLW  23
096C0:  MOVWF  x09
096C2:  MOVLW  78
096C4:  MOVWF  x08
096C6:  MOVLB  0
096C8:  CALL   198A
096CC:  MOVFF  03,52A
096D0:  MOVFF  02,529
096D4:  MOVFF  01,528
096D8:  MOVFF  00,527
....................       } 
....................              
....................       if(RIGHT)//Si oprime SET 
096DC:  BSF    F96.1
096DE:  BTFSC  F84.1
096E0:  BRA    9794
....................       {            
....................          G=Filtro_Downflow_adc; 
096E2:  MOVFF  4D4,605
096E6:  MOVFF  4D3,604
096EA:  CALL   17F6
096EE:  MOVFF  03,5BA
096F2:  MOVFF  02,5B9
096F6:  MOVFF  01,5B8
096FA:  MOVFF  00,5B7
....................          G16=(int16)G; 
096FE:  MOVFF  5BA,603
09702:  MOVFF  5B9,602
09706:  MOVFF  5B8,601
0970A:  MOVFF  5B7,600
0970E:  CALL   2DD8
09712:  MOVFF  02,4DE
09716:  MOVFF  01,4DD
....................          G_l=G16; G_h=(G16>>8); 
0971A:  MOVFF  4DD,4C7
0971E:  MOVFF  4DE,4C8
....................              
....................          write_eeprom(62,G_l); 
09722:  CLRF   FAA
09724:  MOVLW  3E
09726:  MOVWF  FA9
09728:  MOVFF  4C7,FA8
0972C:  BCF    FA6.6
0972E:  BCF    FA6.7
09730:  BSF    FA6.2
09732:  MOVF   FF2,W
09734:  MOVWF  00
09736:  BCF    FF2.7
09738:  MOVLB  F
0973A:  MOVLW  55
0973C:  MOVWF  FA7
0973E:  MOVLW  AA
09740:  MOVWF  FA7
09742:  BSF    FA6.1
09744:  BTFSC  FA6.1
09746:  BRA    9744
09748:  BCF    FA6.2
0974A:  MOVF   00,W
0974C:  IORWF  FF2,F
....................          delay_ms(20); 
0974E:  MOVLW  14
09750:  MOVLB  5
09752:  MOVWF  xE3
09754:  MOVLB  0
09756:  CALL   155C
....................          write_eeprom(63,G_h);//Guardar valor de Setpoint en eeprom 
0975A:  CLRF   FAA
0975C:  MOVLW  3F
0975E:  MOVWF  FA9
09760:  MOVFF  4C8,FA8
09764:  BCF    FA6.6
09766:  BCF    FA6.7
09768:  BSF    FA6.2
0976A:  MOVF   FF2,W
0976C:  MOVWF  00
0976E:  BCF    FF2.7
09770:  MOVLB  F
09772:  MOVLW  55
09774:  MOVWF  FA7
09776:  MOVLW  AA
09778:  MOVWF  FA7
0977A:  BSF    FA6.1
0977C:  BTFSC  FA6.1
0977E:  BRA    977C
09780:  BCF    FA6.2
09782:  MOVF   00,W
09784:  IORWF  FF2,F
....................          delay_ms(20); 
09786:  MOVLW  14
09788:  MOVLB  5
0978A:  MOVWF  xE3
0978C:  MOVLB  0
0978E:  CALL   155C
....................       } 
....................          else 
09792:  BRA    979A
....................             {Flanco1 = 0;}   
09794:  MOVLB  4
09796:  BCF    x2D.1
09798:  MOVLB  0
....................              
....................       if(LEFT)//Si oprime boton de Toma. 
0979A:  BSF    F96.2
0979C:  BTFSC  F84.2
0979E:  BRA    98F8
....................       {                   
....................          delay_ms(700);Menu=32;glcd_fillscreen(OFF);Opcion=1;unidad=1; 
097A0:  MOVLW  04
097A2:  MOVLB  5
097A4:  MOVWF  xCF
097A6:  MOVLW  AF
097A8:  MOVWF  xE3
097AA:  MOVLB  0
097AC:  CALL   155C
097B0:  MOVLB  5
097B2:  DECFSZ xCF,F
097B4:  BRA    97A6
097B6:  MOVLW  20
097B8:  MOVLB  4
097BA:  MOVWF  xC3
097BC:  MOVLB  5
097BE:  CLRF   xD7
097C0:  MOVLB  0
097C2:  CALL   163C
097C6:  MOVLW  01
097C8:  MOVLB  4
097CA:  MOVWF  xC5
097CC:  MOVWF  xC4
....................          Temporal=Ajuste2; 
097CE:  MOVFF  52A,52E
097D2:  MOVFF  529,52D
097D6:  MOVFF  528,52C
097DA:  MOVFF  527,52B
....................          Entero=(int)Ajuste2; 
097DE:  MOVFF  52A,603
097E2:  MOVFF  529,602
097E6:  MOVFF  528,601
097EA:  MOVFF  527,600
097EE:  MOVLB  0
097F0:  CALL   2DD8
097F4:  MOVFF  01,4CE
....................          Temporal=Temporal-Entero; 
097F8:  MOVLB  6
097FA:  CLRF   x05
097FC:  MOVFF  4CE,604
09800:  MOVLB  0
09802:  CALL   17F6
09806:  BSF    FD8.1
09808:  MOVFF  52E,607
0980C:  MOVFF  52D,606
09810:  MOVFF  52C,605
09814:  MOVFF  52B,604
09818:  MOVFF  03,60B
0981C:  MOVFF  02,60A
09820:  MOVFF  01,609
09824:  MOVFF  00,608
09828:  CALL   198A
0982C:  MOVFF  03,52E
09830:  MOVFF  02,52D
09834:  MOVFF  01,52C
09838:  MOVFF  00,52B
....................          Temporal2=Temporal*10.0; 
0983C:  MOVFF  52E,603
09840:  MOVFF  52D,602
09844:  MOVFF  52C,601
09848:  MOVFF  52B,600
0984C:  MOVLB  6
0984E:  CLRF   x07
09850:  CLRF   x06
09852:  MOVLW  20
09854:  MOVWF  x05
09856:  MOVLW  82
09858:  MOVWF  x04
0985A:  MOVLB  0
0985C:  CALL   2E14
09860:  MOVFF  03,532
09864:  MOVFF  02,531
09868:  MOVFF  01,530
0986C:  MOVFF  00,52F
....................          Decimal1=(int8)Temporal2; 
09870:  MOVFF  532,603
09874:  MOVFF  531,602
09878:  MOVFF  530,601
0987C:  MOVFF  52F,600
09880:  CALL   2DD8
09884:  MOVFF  01,4CF
....................          write_eeprom(27,Entero); 
09888:  CLRF   FAA
0988A:  MOVLW  1B
0988C:  MOVWF  FA9
0988E:  MOVFF  4CE,FA8
09892:  BCF    FA6.6
09894:  BCF    FA6.7
09896:  BSF    FA6.2
09898:  MOVF   FF2,W
0989A:  MOVWF  00
0989C:  BCF    FF2.7
0989E:  MOVLB  F
098A0:  MOVLW  55
098A2:  MOVWF  FA7
098A4:  MOVLW  AA
098A6:  MOVWF  FA7
098A8:  BSF    FA6.1
098AA:  BTFSC  FA6.1
098AC:  BRA    98AA
098AE:  BCF    FA6.2
098B0:  MOVF   00,W
098B2:  IORWF  FF2,F
....................          delay_ms(20); 
098B4:  MOVLW  14
098B6:  MOVLB  5
098B8:  MOVWF  xE3
098BA:  MOVLB  0
098BC:  CALL   155C
....................          write_eeprom(28,Decimal1); 
098C0:  CLRF   FAA
098C2:  MOVLW  1C
098C4:  MOVWF  FA9
098C6:  MOVFF  4CF,FA8
098CA:  BCF    FA6.6
098CC:  BCF    FA6.7
098CE:  BSF    FA6.2
098D0:  MOVF   FF2,W
098D2:  MOVWF  00
098D4:  BCF    FF2.7
098D6:  MOVLB  F
098D8:  MOVLW  55
098DA:  MOVWF  FA7
098DC:  MOVLW  AA
098DE:  MOVWF  FA7
098E0:  BSF    FA6.1
098E2:  BTFSC  FA6.1
098E4:  BRA    98E2
098E6:  BCF    FA6.2
098E8:  MOVF   00,W
098EA:  IORWF  FF2,F
....................          delay_ms(20); 
098EC:  MOVLW  14
098EE:  MOVLB  5
098F0:  MOVWF  xE3
098F2:  MOVLB  0
098F4:  CALL   155C
098F8:  MOVLB  4
....................       } 
....................     } 
.................... //_--------------------------------------------------------------------------------------------------------------------------------------------------------        
....................  
.................... //_-------------------------------------------------------------------------------------------------------------------------------------------------------- 
....................       if(Menu==43){ //Menu de Velocidad de Motor 
098FA:  MOVF   xC3,W
098FC:  SUBLW  2B
098FE:  BTFSS  FD8.2
09900:  BRA    9ACC
....................        
....................       if(VelMotor>6)VelMotor=6; 
09902:  MOVLB  5
09904:  MOVF   xC6,W
09906:  SUBLW  06
09908:  BC    990E
0990A:  MOVLW  06
0990C:  MOVWF  xC6
....................        
....................       strcpy(Menus.Letra,"Seleccion Vel"); 
0990E:  MOVLW  04
09910:  MOVWF  FEA
09912:  MOVLW  17
09914:  MOVWF  FE9
09916:  MOVFF  FF2,5CF
0991A:  BCF    FF2.7
0991C:  MOVLW  00
0991E:  MOVLB  0
09920:  CALL   1372
09924:  TBLRD*-
09926:  TBLRD*+
09928:  MOVF   FF5,W
0992A:  MOVWF  FEE
0992C:  IORLW  00
0992E:  BNZ   9926
09930:  MOVLB  5
09932:  BTFSC  xCF.7
09934:  BSF    FF2.7
....................       displayMenu(Menus.Letra,10,0,1,1); 
09936:  MOVLW  04
09938:  MOVWF  xD8
0993A:  MOVLW  17
0993C:  MOVWF  xD7
0993E:  MOVLW  0A
09940:  MOVWF  xD9
09942:  CLRF   xDA
09944:  MOVLW  01
09946:  MOVWF  xDB
09948:  MOVWF  xDC
0994A:  MOVLB  0
0994C:  CALL   4C9A
....................        
....................       displayTiempo(VelMotor,50,40,1,2); 
09950:  MOVFF  5C6,5CF
09954:  MOVLW  32
09956:  MOVLB  5
09958:  MOVWF  xD0
0995A:  MOVLW  28
0995C:  MOVWF  xD1
0995E:  MOVLW  01
09960:  MOVWF  xD2
09962:  MOVLW  02
09964:  MOVWF  xD3
09966:  MOVLB  0
09968:  CALL   5468
....................        
....................       if(UP && VelMotor<6)//Si oprime hacia arriba 
0996C:  BSF    F92.5
0996E:  BTFSC  F80.5
09970:  BRA    9990
09972:  MOVLB  5
09974:  MOVF   xC6,W
09976:  SUBLW  05
09978:  BTFSC  FD8.0
0997A:  BRA    9980
0997C:  MOVLB  0
0997E:  BRA    9990
....................       {   
....................          delay_ms(200);VelMotor++; 
09980:  MOVLW  C8
09982:  MOVWF  xE3
09984:  MOVLB  0
09986:  CALL   155C
0998A:  MOVLB  5
0998C:  INCF   xC6,F
0998E:  MOVLB  0
....................       } 
....................              
....................       if(DOWN && VelMotor>0)//Si oprime hacia abajo 
09990:  BSF    F96.0
09992:  BTFSC  F84.0
09994:  BRA    99B2
09996:  MOVLB  5
09998:  MOVF   xC6,F
0999A:  BTFSS  FD8.2
0999C:  BRA    99A2
0999E:  MOVLB  0
099A0:  BRA    99B2
....................       {   
....................          delay_ms(200);VelMotor--; 
099A2:  MOVLW  C8
099A4:  MOVWF  xE3
099A6:  MOVLB  0
099A8:  CALL   155C
099AC:  MOVLB  5
099AE:  DECF   xC6,F
099B0:  MOVLB  0
....................       } 
....................              
....................       if(RIGHT)//Si oprime SET 
099B2:  BSF    F96.1
099B4:  BTFSC  F84.1
099B6:  BRA    99C0
....................       {            
....................          VelocidadMotor(VelMotor); 
099B8:  MOVFF  5C6,5CF
099BC:  CALL   1584
....................       }  
....................              
....................       if(LEFT)//Si oprime boton de Toma. 
099C0:  BSF    F96.2
099C2:  BTFSC  F84.2
099C4:  BRA    9ACE
....................       {                   
....................          delay_ms(100);glcd_fillscreen(OFF);Opcion=1;unidad=1; 
099C6:  MOVLW  64
099C8:  MOVLB  5
099CA:  MOVWF  xE3
099CC:  MOVLB  0
099CE:  CALL   155C
099D2:  MOVLB  5
099D4:  CLRF   xD7
099D6:  MOVLB  0
099D8:  CALL   163C
099DC:  MOVLW  01
099DE:  MOVLB  4
099E0:  MOVWF  xC5
099E2:  MOVWF  xC4
....................          write_eeprom(32,VelMotor);//Guardar valor de Setpoint en eeprom 
099E4:  CLRF   FAA
099E6:  MOVLW  20
099E8:  MOVWF  FA9
099EA:  MOVFF  5C6,FA8
099EE:  BCF    FA6.6
099F0:  BCF    FA6.7
099F2:  BSF    FA6.2
099F4:  MOVF   FF2,W
099F6:  MOVWF  00
099F8:  BCF    FF2.7
099FA:  MOVLB  F
099FC:  MOVLW  55
099FE:  MOVWF  FA7
09A00:  MOVLW  AA
09A02:  MOVWF  FA7
09A04:  BSF    FA6.1
09A06:  BTFSC  FA6.1
09A08:  BRA    9A06
09A0A:  BCF    FA6.2
09A0C:  MOVF   00,W
09A0E:  IORWF  FF2,F
....................          delay_ms(20); 
09A10:  MOVLW  14
09A12:  MOVLB  5
09A14:  MOVWF  xE3
09A16:  MOVLB  0
09A18:  CALL   155C
....................          glcd_fillScreen(OFF); 
09A1C:  MOVLB  5
09A1E:  CLRF   xD7
09A20:  MOVLB  0
09A22:  CALL   163C
....................          strcpy(Menus.Letra,"Velocidad"); 
09A26:  MOVLW  04
09A28:  MOVWF  FEA
09A2A:  MOVLW  17
09A2C:  MOVWF  FE9
09A2E:  MOVFF  FF2,5CF
09A32:  BCF    FF2.7
09A34:  MOVLW  00
09A36:  CALL   139E
09A3A:  TBLRD*-
09A3C:  TBLRD*+
09A3E:  MOVF   FF5,W
09A40:  MOVWF  FEE
09A42:  IORLW  00
09A44:  BNZ   9A3C
09A46:  MOVLB  5
09A48:  BTFSC  xCF.7
09A4A:  BSF    FF2.7
....................          displayMenu(Menus.Letra,0,0,0,2); 
09A4C:  MOVLW  04
09A4E:  MOVWF  xD8
09A50:  MOVLW  17
09A52:  MOVWF  xD7
09A54:  CLRF   xD9
09A56:  CLRF   xDA
09A58:  CLRF   xDB
09A5A:  MOVLW  02
09A5C:  MOVWF  xDC
09A5E:  MOVLB  0
09A60:  CALL   4C9A
....................          strcpy(Menus.Letra,"Guardada"); 
09A64:  MOVLW  04
09A66:  MOVWF  FEA
09A68:  MOVLW  17
09A6A:  MOVWF  FE9
09A6C:  MOVFF  FF2,5CF
09A70:  BCF    FF2.7
09A72:  MOVLW  00
09A74:  CALL   13C6
09A78:  TBLRD*-
09A7A:  TBLRD*+
09A7C:  MOVF   FF5,W
09A7E:  MOVWF  FEE
09A80:  IORLW  00
09A82:  BNZ   9A7A
09A84:  MOVLB  5
09A86:  BTFSC  xCF.7
09A88:  BSF    FF2.7
....................          displayMenu(Menus.Letra,0,30,0,2); 
09A8A:  MOVLW  04
09A8C:  MOVWF  xD8
09A8E:  MOVLW  17
09A90:  MOVWF  xD7
09A92:  CLRF   xD9
09A94:  MOVLW  1E
09A96:  MOVWF  xDA
09A98:  CLRF   xDB
09A9A:  MOVLW  02
09A9C:  MOVWF  xDC
09A9E:  MOVLB  0
09AA0:  CALL   4C9A
....................          glcd_update(); 
09AA4:  CALL   1696
....................          delay_ms(1000); 
09AA8:  MOVLW  04
09AAA:  MOVLB  5
09AAC:  MOVWF  xCF
09AAE:  MOVLW  FA
09AB0:  MOVWF  xE3
09AB2:  MOVLB  0
09AB4:  CALL   155C
09AB8:  MOVLB  5
09ABA:  DECFSZ xCF,F
09ABC:  BRA    9AAE
....................          glcd_fillScreen(OFF); 
09ABE:  CLRF   xD7
09AC0:  MOVLB  0
09AC2:  CALL   163C
....................          Menu=32; 
09AC6:  MOVLW  20
09AC8:  MOVLB  4
09ACA:  MOVWF  xC3
09ACC:  MOVLB  0
....................       } 
....................     } 
.................... //_--------------------------------------------------------------------------------------------------------------------------------------------------------        
....................  
.................... //_-------------------------------------------------------------------------------------------------------------------------------------------------------- 
....................       if(Menu==120){ //Menu de Post-Purga. 
09ACE:  MOVLB  4
09AD0:  MOVF   xC3,W
09AD2:  SUBLW  78
09AD4:  BTFSS  FD8.2
09AD6:  BRA    9C62
....................        
....................       // Para que inicie el tiempo de Post-Purga se debe oprimir el boton de encendido en el Microcontrolador esclavo. 
....................       strcpy(Menus.Letra,"Tiempo"); 
09AD8:  MOVLW  04
09ADA:  MOVWF  FEA
09ADC:  MOVLW  17
09ADE:  MOVWF  FE9
09AE0:  MOVFF  FF2,5CF
09AE4:  BCF    FF2.7
09AE6:  MOVLW  00
09AE8:  MOVLB  0
09AEA:  CALL   13EE
09AEE:  TBLRD*-
09AF0:  TBLRD*+
09AF2:  MOVF   FF5,W
09AF4:  MOVWF  FEE
09AF6:  IORLW  00
09AF8:  BNZ   9AF0
09AFA:  MOVLB  5
09AFC:  BTFSC  xCF.7
09AFE:  BSF    FF2.7
....................       displayMenu(Menus.Letra,30,0,1,2); 
09B00:  MOVLW  04
09B02:  MOVWF  xD8
09B04:  MOVLW  17
09B06:  MOVWF  xD7
09B08:  MOVLW  1E
09B0A:  MOVWF  xD9
09B0C:  CLRF   xDA
09B0E:  MOVLW  01
09B10:  MOVWF  xDB
09B12:  MOVLW  02
09B14:  MOVWF  xDC
09B16:  MOVLB  0
09B18:  CALL   4C9A
....................       strcpy(Menus.Letra,"Post-Purga"); 
09B1C:  MOVLW  04
09B1E:  MOVWF  FEA
09B20:  MOVLW  17
09B22:  MOVWF  FE9
09B24:  MOVFF  FF2,5CF
09B28:  BCF    FF2.7
09B2A:  MOVLW  00
09B2C:  CALL   1414
09B30:  TBLRD*-
09B32:  TBLRD*+
09B34:  MOVF   FF5,W
09B36:  MOVWF  FEE
09B38:  IORLW  00
09B3A:  BNZ   9B32
09B3C:  MOVLB  5
09B3E:  BTFSC  xCF.7
09B40:  BSF    FF2.7
....................       displayMenu(Menus.Letra,10,17,1,2); 
09B42:  MOVLW  04
09B44:  MOVWF  xD8
09B46:  MOVLW  17
09B48:  MOVWF  xD7
09B4A:  MOVLW  0A
09B4C:  MOVWF  xD9
09B4E:  MOVLW  11
09B50:  MOVWF  xDA
09B52:  MOVLW  01
09B54:  MOVWF  xDB
09B56:  MOVLW  02
09B58:  MOVWF  xDC
09B5A:  MOVLB  0
09B5C:  CALL   4C9A
....................        
....................       tiempo_postpurga=1; 
09B60:  MOVLB  4
09B62:  BSF    x2F.0
....................       LuzBlanca_off;  
09B64:  BCF    F8B.0
09B66:  BCF    F94.0
....................       Aux_off; 
09B68:  BCF    F8B.1
09B6A:  BCF    F94.1
....................       VelocidadMotor(VelMotor); 
09B6C:  MOVFF  5C6,5CF
09B70:  MOVLB  0
09B72:  CALL   1584
....................       flag_blower=1; 
09B76:  MOVLB  4
09B78:  BSF    x2D.7
....................        
....................        displayTiempo(Tppurga[3],20,40,0,2);displayTiempo(Tppurga[2],40,40,0,2);glcd_text57(60, 42, Dos_puntos, 2, ON); 
09B7A:  MOVFF  4EA,5CF
09B7E:  MOVLW  14
09B80:  MOVLB  5
09B82:  MOVWF  xD0
09B84:  MOVLW  28
09B86:  MOVWF  xD1
09B88:  CLRF   xD2
09B8A:  MOVLW  02
09B8C:  MOVWF  xD3
09B8E:  MOVLB  0
09B90:  CALL   5468
09B94:  MOVFF  4E9,5CF
09B98:  MOVLW  28
09B9A:  MOVLB  5
09B9C:  MOVWF  xD0
09B9E:  MOVWF  xD1
09BA0:  CLRF   xD2
09BA2:  MOVLW  02
09BA4:  MOVWF  xD3
09BA6:  MOVLB  0
09BA8:  CALL   5468
09BAC:  MOVLW  3C
09BAE:  MOVLB  5
09BB0:  MOVWF  xE8
09BB2:  MOVLW  2A
09BB4:  MOVWF  xE9
09BB6:  MOVLW  04
09BB8:  MOVWF  xEB
09BBA:  MOVLW  49
09BBC:  MOVWF  xEA
09BBE:  MOVLW  02
09BC0:  MOVWF  xEC
09BC2:  MOVLW  01
09BC4:  MOVWF  xED
09BC6:  MOVLB  0
09BC8:  CALL   4A28
....................        displayTiempo(Tppurga[1],70,40,0,2);displayTiempo(Tppurga[0],90,40,0,2);  
09BCC:  MOVFF  4E8,5CF
09BD0:  MOVLW  46
09BD2:  MOVLB  5
09BD4:  MOVWF  xD0
09BD6:  MOVLW  28
09BD8:  MOVWF  xD1
09BDA:  CLRF   xD2
09BDC:  MOVLW  02
09BDE:  MOVWF  xD3
09BE0:  MOVLB  0
09BE2:  CALL   5468
09BE6:  MOVFF  4E7,5CF
09BEA:  MOVLW  5A
09BEC:  MOVLB  5
09BEE:  MOVWF  xD0
09BF0:  MOVLW  28
09BF2:  MOVWF  xD1
09BF4:  CLRF   xD2
09BF6:  MOVLW  02
09BF8:  MOVWF  xD3
09BFA:  MOVLB  0
09BFC:  CALL   5468
....................        
....................       if(RIGHT) 
09C00:  BSF    F96.1
09C02:  BTFSC  F84.1
09C04:  BRA    9C38
....................       { 
....................          delay_ms(1000); 
09C06:  MOVLW  04
09C08:  MOVLB  5
09C0A:  MOVWF  xCF
09C0C:  MOVLW  FA
09C0E:  MOVWF  xE3
09C10:  MOVLB  0
09C12:  CALL   155C
09C16:  MOVLB  5
09C18:  DECFSZ xCF,F
09C1A:  BRA    9C0C
....................          if(RIGHT ) 
09C1C:  BSF    F96.1
09C1E:  BTFSC  F84.1
09C20:  BRA    9C38
....................          { 
....................             delay_ms(1500); 
09C22:  MOVLW  06
09C24:  MOVWF  xCF
09C26:  MOVLW  FA
09C28:  MOVWF  xE3
09C2A:  MOVLB  0
09C2C:  CALL   155C
09C30:  MOVLB  5
09C32:  DECFSZ xCF,F
09C34:  BRA    9C26
....................             reset_cpu(); 
09C36:  RESET
....................          } 
....................       } 
....................        
....................       if((Tppurga[0]==Tppurgap[0])&&(Tppurga[1]==Tppurgap[1])&&(Tppurga[2]==Tppurgap[2])&&(Tppurga[3]==Tppurgap[3])) 
09C38:  MOVLB  4
09C3A:  MOVF   xEB,W
09C3C:  SUBWF  xE7,W
09C3E:  BNZ   9C62
09C40:  MOVF   xEC,W
09C42:  SUBWF  xE8,W
09C44:  BNZ   9C62
09C46:  MOVF   xED,W
09C48:  SUBWF  xE9,W
09C4A:  BNZ   9C62
09C4C:  MOVF   xEE,W
09C4E:  SUBWF  xEA,W
09C50:  BNZ   9C62
....................       {tiempo_postpurga=0;glcd_fillScreen(OFF);reset_cpu();} 
09C52:  BCF    x2F.0
09C54:  MOVLB  5
09C56:  CLRF   xD7
09C58:  MOVLB  0
09C5A:  CALL   163C
09C5E:  RESET
09C60:  MOVLB  4
....................       
....................     } 
.................... //_--------------------------------------------------------------------------------------------------------------------------------------------------------        
....................  
.................... //_-------------------------------------------------------------------------------------------------------------------------------------------------------- 
....................       if(Menu==200){ //Menu de Inicio. 
09C62:  MOVF   xC3,W
09C64:  SUBLW  C8
09C66:  BTFSS  FD8.2
09C68:  BRA    9E04
....................           
....................       if(RIGHT){ 
09C6A:  BSF    F96.1
09C6C:  BTFSC  F84.1
09C6E:  BRA    9DE0
....................          delay_ms(1000); 
09C70:  MOVLW  04
09C72:  MOVLB  5
09C74:  MOVWF  xCF
09C76:  MOVLW  FA
09C78:  MOVWF  xE3
09C7A:  MOVLB  0
09C7C:  CALL   155C
09C80:  MOVLB  5
09C82:  DECFSZ xCF,F
09C84:  BRA    9C76
....................          if(RIGHT){  
09C86:  BSF    F96.1
09C88:  BTFSC  F84.1
09C8A:  BRA    9DDC
....................             Display_on; 
09C8C:  BSF    F8A.1
09C8E:  BCF    F93.1
....................             glcd_init(ON);             //Inicializa la glcd 
09C90:  MOVLW  01
09C92:  MOVWF  xCF
09C94:  MOVLB  0
09C96:  CALL   174E
....................             glcd_fillScreen(OFF);      //Limpia la pantalla 
09C9A:  MOVLB  5
09C9C:  CLRF   xD7
09C9E:  MOVLB  0
09CA0:  CALL   163C
....................             glcd_text57(0, 0, JP, 2, ON);glcd_text57(5, 20, Cabina, 1, ON);glcd_text57(10, 40, Clase, 2, ON);              
09CA4:  MOVLB  5
09CA6:  CLRF   xE8
09CA8:  CLRF   xE9
09CAA:  MOVLW  04
09CAC:  MOVWF  xEB
09CAE:  MOVLW  30
09CB0:  MOVWF  xEA
09CB2:  MOVLW  02
09CB4:  MOVWF  xEC
09CB6:  MOVLW  01
09CB8:  MOVWF  xED
09CBA:  MOVLB  0
09CBC:  CALL   4A28
09CC0:  MOVLW  05
09CC2:  MOVLB  5
09CC4:  MOVWF  xE8
09CC6:  MOVLW  14
09CC8:  MOVWF  xE9
09CCA:  MOVLW  04
09CCC:  MOVWF  xEB
09CCE:  MOVLW  3C
09CD0:  MOVWF  xEA
09CD2:  MOVLW  01
09CD4:  MOVWF  xEC
09CD6:  MOVWF  xED
09CD8:  MOVLB  0
09CDA:  CALL   4A28
09CDE:  MOVLW  0A
09CE0:  MOVLB  5
09CE2:  MOVWF  xE8
09CE4:  MOVLW  28
09CE6:  MOVWF  xE9
09CE8:  MOVLW  04
09CEA:  MOVWF  xEB
09CEC:  MOVLW  4E
09CEE:  MOVWF  xEA
09CF0:  MOVLW  02
09CF2:  MOVWF  xEC
09CF4:  MOVLW  01
09CF6:  MOVWF  xED
09CF8:  MOVLB  0
09CFA:  CALL   4A28
....................             glcd_update();    
09CFE:  CALL   1696
....................             delay_ms(3000); 
09D02:  MOVLW  0C
09D04:  MOVLB  5
09D06:  MOVWF  xCF
09D08:  MOVLW  FA
09D0A:  MOVWF  xE3
09D0C:  MOVLB  0
09D0E:  CALL   155C
09D12:  MOVLB  5
09D14:  DECFSZ xCF,F
09D16:  BRA    9D08
....................                         
....................             glcd_fillScreen(OFF);      //Limpia la pantalla 
09D18:  CLRF   xD7
09D1A:  MOVLB  0
09D1C:  CALL   163C
....................             displayContrasena(Contrasena[0],20,30,1);displayContrasena(Contrasena[1],40,30,0); 
09D20:  MOVFF  4FB,5D9
09D24:  MOVLW  14
09D26:  MOVLB  5
09D28:  MOVWF  xDA
09D2A:  MOVLW  1E
09D2C:  MOVWF  xDB
09D2E:  MOVLW  01
09D30:  MOVWF  xDC
09D32:  MOVLB  0
09D34:  CALL   4BE2
09D38:  MOVFF  4FC,5D9
09D3C:  MOVLW  28
09D3E:  MOVLB  5
09D40:  MOVWF  xDA
09D42:  MOVLW  1E
09D44:  MOVWF  xDB
09D46:  CLRF   xDC
09D48:  MOVLB  0
09D4A:  CALL   4BE2
....................             displayContrasena(Contrasena[2],60,30,0);displayContrasena(Contrasena[0],80,30,0); 
09D4E:  MOVFF  4FD,5D9
09D52:  MOVLW  3C
09D54:  MOVLB  5
09D56:  MOVWF  xDA
09D58:  MOVLW  1E
09D5A:  MOVWF  xDB
09D5C:  CLRF   xDC
09D5E:  MOVLB  0
09D60:  CALL   4BE2
09D64:  MOVFF  4FB,5D9
09D68:  MOVLW  50
09D6A:  MOVLB  5
09D6C:  MOVWF  xDA
09D6E:  MOVLW  1E
09D70:  MOVWF  xDB
09D72:  CLRF   xDC
09D74:  MOVLB  0
09D76:  CALL   4BE2
....................             glcd_rect(0, 0, 127, 25, YES, ON);strcpy(Menus.Letra,"Clave");glcd_text57(25, 1, Menus.Letra, 3, OFF);    
09D7A:  MOVLB  5
09D7C:  CLRF   xE8
09D7E:  CLRF   xE9
09D80:  MOVLW  7F
09D82:  MOVWF  xEA
09D84:  MOVLW  19
09D86:  MOVWF  xEB
09D88:  MOVLW  01
09D8A:  MOVWF  xEC
09D8C:  MOVWF  xED
09D8E:  MOVLB  0
09D90:  CALL   4966
09D94:  MOVLW  04
09D96:  MOVWF  FEA
09D98:  MOVLW  17
09D9A:  MOVWF  FE9
09D9C:  MOVFF  FF2,5CF
09DA0:  BCF    FF2.7
09DA2:  MOVLW  00
09DA4:  CALL   0F0A
09DA8:  TBLRD*-
09DAA:  TBLRD*+
09DAC:  MOVF   FF5,W
09DAE:  MOVWF  FEE
09DB0:  IORLW  00
09DB2:  BNZ   9DAA
09DB4:  MOVLB  5
09DB6:  BTFSC  xCF.7
09DB8:  BSF    FF2.7
09DBA:  MOVLW  19
09DBC:  MOVWF  xE8
09DBE:  MOVLW  01
09DC0:  MOVWF  xE9
09DC2:  MOVLW  04
09DC4:  MOVWF  xEB
09DC6:  MOVLW  17
09DC8:  MOVWF  xEA
09DCA:  MOVLW  03
09DCC:  MOVWF  xEC
09DCE:  CLRF   xED
09DD0:  MOVLB  0
09DD2:  CALL   4A28
....................             Menu=0; 
09DD6:  MOVLB  4
09DD8:  CLRF   xC3
09DDA:  MOVLB  5
....................          } 
....................       } 
....................       else 
09DDC:  BRA    9E02
09DDE:  MOVLB  4
....................       { 
....................          Display_off;VelocidadMotor(0);LuzBlanca_off;Aux_off;glcd_fillScreen(OFF);      //Limpia la pantalla 
09DE0:  BCF    F8A.1
09DE2:  BCF    F93.1
09DE4:  MOVLB  5
09DE6:  CLRF   xCF
09DE8:  MOVLB  0
09DEA:  CALL   1584
09DEE:  BCF    F8B.0
09DF0:  BCF    F94.0
09DF2:  BCF    F8B.1
09DF4:  BCF    F94.1
09DF6:  MOVLB  5
09DF8:  CLRF   xD7
09DFA:  MOVLB  0
09DFC:  CALL   163C
09E00:  MOVLB  5
09E02:  MOVLB  4
....................       } 
....................     } 
.................... //_--------------------------------------------------------------------------------------------------------------------------------------------------------        
....................    if(tiemporeset>=60) 
09E04:  MOVF   xC9,W
09E06:  SUBLW  3B
09E08:  BC    9E20
....................    { 
....................       if(Menu!=200){ 
09E0A:  MOVF   xC3,W
09E0C:  SUBLW  C8
09E0E:  BZ    9E20
....................          glcd_init(ON); 
09E10:  MOVLW  01
09E12:  MOVLB  5
09E14:  MOVWF  xCF
09E16:  MOVLB  0
09E18:  CALL   174E
....................          tiemporeset=0; 
09E1C:  MOVLB  4
09E1E:  CLRF   xC9
....................       } 
....................    }  
.................... } 
09E20:  MOVLB  0
09E22:  GOTO   6046
....................  
.................... } 
....................  
09E26:  SLEEP 

Configuration Fuses:
   Word  1: 0200   HS NOIESO NOFCMEN
   Word  2: 1E1F   BROWNOUT NOWDT BORV20 NOPUT WDT32768
   Word  3: 0000   NOPBADEN NOLPT1OSC NOMCLR
   Word  4: 00B0   NOSTVREN NODEBUG NOLVP NOXINST BBSIZ4K
   Word  5: C03F   NOPROTECT NOCPD NOCPB
   Word  6: E03F   NOWRT NOWRTD NOWRTC NOWRTB
   Word  7: 403F   NOEBTR NOEBTRB
